
midnightmega.prg.elf:	file format elf32-mos

SYMBOL TABLE:
00002056 l       .text	00000000 fourbytes
0000205a l       .text	00000000 lpstore
00002075 l       .text	00000000 lprestore
00000000 l    df *ABS*	00000000 exit-return.c
00002015 l       .basic_header	00000000 next_line
0000fff0 l       *ABS*	00000000 PLOT
00000000 l    df *ABS*	00000000 exit.c
00000000 l    df *ABS*	00000000 zero-bss.c
00000000 l    df *ABS*	00000000 zero-zp-bss.c
00000000 l    df *ABS*	00000000 copy-zp-data.c
00000000 l    df *ABS*	00000000 ld-temp.o
0000d640 l       *ABS*	00000000 HTRAP00
00002040 l       .text	00000000 shift
0000002e l     O .zp.bss	00000001 g_curScreenW
0000002f l     O .zp.bss	00000001 g_curScreenH
0000725a l     O .bss	000002fd escapeCode
00005e19 l     F .text	00000001 escNOP
0000002b l     O .zp.data	00000001 g_curTextColor
00004e60 l     F .text	0000005e clrhome
00004ecc l     F .text	00000016 mcputsxy
00004ebe l     F .text	0000000e msprintf
00005255 l     F .text	00000388 shortcuts
0000506d l     F .text	000000e7 messagebox
0000002d l     O .zp.bss	00000001 option.0
00000027 l     O .zp.data	00000004 midnight
00005154 l     F .text	000000c0 progress
0000567c l     F .text	000005d1 UpdateSectors
00005c4d l     F .text	00000046 Deselect
00007158 l     O .bss	000000e0 direntflags
00004ee2 l     F .text	0000018b mcbox
00007238 l     O .bss	00000022 diskname
00005e1a l     F .text	00000009 cputc
00000030 l     O .zp.bss	00000001 g_curX
00004d49 l     F .text	000000c6 csputdec
00004c55 l     F .text	000000e0 getdirententry
00007108 l     O .bss	00000050 s
00005ecb l     F .text	000000db cputsxy
00000031 l     O .zp.bss	00000001 g_curY
00005dd3 l     F .text	00000046 sidbong
0000620d l     F .text	0000000b __ashlqi3
000055dd l     F .text	0000009f optionstring
00006050 l     F .text	00000009 cgetc
000044df l     F .text	00000039 GetBAM
00006080 l     F .text	00000067 lcopy
00004518 l     F .text	0000005c PutBAM
000043d6 l     F .text	00000043 GetOneSector
0000460e l     F .text	00000302 BAMSectorUpdate
00004419 l     F .text	000000c6 PutOneSector
0000625d l     F .text	000000c1 __udivhi3
00005ec4 l     F .text	00000007 cputs
00004574 l     F .text	0000009a readblockchain
00004ab0 l     F .text	00000119 findnextBAMtracksector
000060e7 l     F .text	00000050 lfill
00004910 l     F .text	000001a0 isallocatedBAMtracksector
00004bc9 l     F .text	0000008c tracksectorstring
00005c93 l     F .text	00000140 sizeselectcurrentifnone
000042c3 l     F .text	00000030 hyppo_setname
00003c5f l       .text	00000000 errhyp1att0
00003c63 l       .text	00000000 donehyp1att0
00003e5e l       .text	00000000 errhypchdir1
00003e62 l       .text	00000000 donehypchdir1
00003eb7 l       .text	00000000 errhypchdir2
00003ebb l       .text	00000000 donehypchdir2
00006137 l     F .text	0000005c usleep
000040a8 l       .text	00000000 errhyp0att3
000040ac l       .text	00000000 donehyp0att3
000042a3 l       .text	00000000 errhypd81detach4
000042a7 l       .text	00000000 donehypd81detach4
0000002c l     O .zp.bss	00000001 fnamehi
00006193 l     F .text	0000003e strcpy
000042ed l       .text	00000000 errhypsetnam5
000042f1 l       .text	00000000 donehypsetnam5
000042f3 l     F .text	00000063 getsfn
00004356 l     F .text	00000080 ReadSector
0000631e l     F .text	00000045 __umodqi3
00006218 l     F .text	00000013 __ashlhi3
000070b0 l     O .rodata	00000004 BAMsector
00006363 l     F .text	00000070 __udivmodqi4
00004d35 l     F .text	00000014 strcopy
000064fb l     F .text	000001ba __udivmodsi4
00004e0f l     F .text	00000051 asciitoscreencode_s
0000622b l     F .text	00000032 __mulhi3
00005fa6 l     F .text	000000aa fillrect
00005e23 l     F .text	000000a1 cputcxy
00005214 l     F .text	00000041 shortcutprint
00005760 l       .text	00000000 errgetproc6
00005764 l       .text	00000000 donegetproc6
00005a22 l       .text	00000000 errgetcurdrv7
00005a26 l       .text	00000000 donegetcurdrv7
00005a3f l       .text	00000000 errhypopendir8
00005a43 l       .text	00000000 donehypopendir8
00005adb l       .text	00000000 hypreaddirloop9
00005af3 l       .text	00000000 errhypreaddir9
00005af5 l       .text	00000000 donehypreaddir9
00005c41 l       .text	00000000 errhypclosedir10
00005c43 l       .text	00000000 donehypclosedir10
000061d1 l     F .text	0000003c strlen
000063d3 l     F .text	000000dc __udivmodhi4
00006059 l     F .text	00000027 do_dma
00000032 l     O .zp.bss	00000014 dmalist
00002116 g     F .text	000021ad main
00002090 g       .text	00000000 lpoke
000020b1 g       .text	00000000 lpeek
00000007 g       *ABS*	00000000 __rc5
00000008 g       *ABS*	00000000 __rc6
00000009 g       *ABS*	00000000 __rc7
0000000a g       *ABS*	00000000 __rc8
00000004 g       *ABS*	00000000 __rc2
00000005 g       *ABS*	00000000 __rc3
00000006 g       *ABS*	00000000 __rc4
00002048 g       .text	00000000 __after_main
0000203d g       .text	00000000 __do_copy_zp_data
000020ff g     F .text	00000017 __copy_zp_data
00002037 g       .text	00000000 __do_zero_bss
000020d9 g     F .text	00000013 __zero_bss
0000203a g       .text	00000000 __do_zero_zp_bss
000020ec g     F .text	00000013 __zero_zp_bss
000020cf g     F .text	0000000a __exit_return
0000204b g       .text	00000000 _fini
0000202f g       .text	00000000 __do_init_stack
0000d000 g       *ABS*	00000000 __stack
00000002 g       *ABS*	00000000 __rc0
00000003 g       *ABS*	00000000 __rc1
0000ff81  w      *ABS*	00000000 CINT
0000ff84  w      *ABS*	00000000 IOINIT
0000ff87  w      *ABS*	00000000 RAMTAS
0000ff8a  w      *ABS*	00000000 RESTOR
0000ff8d  w      *ABS*	00000000 VECTOR
0000ff90  w      *ABS*	00000000 SETMSG
0000ff93  w      *ABS*	00000000 SECOND
0000ff96  w      *ABS*	00000000 TKSA
0000ff99  w      *ABS*	00000000 MEMTOP
0000ff9c  w      *ABS*	00000000 MEMBOT
0000ff9f  w      *ABS*	00000000 SCNKEY
0000ffa2  w      *ABS*	00000000 SETTMO
0000ffa5  w      *ABS*	00000000 ACPTR
0000ffa8  w      *ABS*	00000000 CIOUT
0000ffab  w      *ABS*	00000000 UNTLK
0000ffae  w      *ABS*	00000000 UNLSN
0000ffb1  w      *ABS*	00000000 LISTEN
0000ffb4  w      *ABS*	00000000 TALK
0000ffb7  w      *ABS*	00000000 READST
0000ffba  w      *ABS*	00000000 SETLFS
0000ffbd  w      *ABS*	00000000 SETNAM
0000ffc0  w      *ABS*	00000000 OPEN
0000ffc3  w      *ABS*	00000000 CLOSE
0000ffc6  w      *ABS*	00000000 CHKIN
0000ffc9  w      *ABS*	00000000 CKOUT
0000ffc9  w      *ABS*	00000000 CHKOUT
0000ffcc  w      *ABS*	00000000 CLRCH
0000ffcc  w      *ABS*	00000000 CLRCHN
0000ffcf  w      *ABS*	00000000 BASIN
0000ffcf  w      *ABS*	00000000 CHRIN
0000ffd2  w      *ABS*	00000000 BSOUT
0000ffd2  w      *ABS*	00000000 CHROUT
0000ffd5  w      *ABS*	00000000 LOAD
0000ffd8  w      *ABS*	00000000 SAVE
0000ffdb  w      *ABS*	00000000 SETTIM
0000ffde  w      *ABS*	00000000 RDTIM
0000ffe1  w      *ABS*	00000000 STOP
0000ffe4  w      *ABS*	00000000 GETIN
0000ffe7  w      *ABS*	00000000 CLALL
0000ffea  w      *ABS*	00000000 UDTIM
0000ffed  w      *ABS*	00000000 SCREEN
0000fff3  w      *ABS*	00000000 IOBASE
0000ffc6 g       *ABS*	00000000 __CHKIN
0000ffc9 g       *ABS*	00000000 __CKOUT
0000ffc9 g       *ABS*	00000000 __CHKOUT
0000ffcc g       *ABS*	00000000 __CLRCH
0000ffcc g       *ABS*	00000000 __CLRCHN
0000ffcf g       *ABS*	00000000 __BASIN
0000ffcf g       *ABS*	00000000 __CHRIN
0000ffd2 g       *ABS*	00000000 __BSOUT
0000ffd2 g       *ABS*	00000000 __CHROUT
0000ffe1 g       *ABS*	00000000 __STOP
0000ffe4 g       *ABS*	00000000 __GETIN
0000ffe7 g       *ABS*	00000000 __CLALL
0000ffea g       *ABS*	00000000 __UDTIM
0000ff81 g       *ABS*	00000000 __CINT
0000ff84 g       *ABS*	00000000 __IOINIT
0000ff87 g       *ABS*	00000000 __RAMTAS
0000ff8a g       *ABS*	00000000 __RESTOR
0000ff8d g       *ABS*	00000000 __VECTOR
0000ff90 g       *ABS*	00000000 __SETMSG
0000ff93 g       *ABS*	00000000 __SECOND
0000ff96 g       *ABS*	00000000 __TKSA
0000ff99 g       *ABS*	00000000 __MEMTOP
0000ff9c g       *ABS*	00000000 __MEMBOT
0000ff9f g       *ABS*	00000000 __SCNKEY
0000ffa2 g       *ABS*	00000000 __SETTMO
0000ffa5 g       *ABS*	00000000 __ACPTR
0000ffa8 g       *ABS*	00000000 __CIOUT
0000ffab g       *ABS*	00000000 __UNTLK
0000ffae g       *ABS*	00000000 __UNLSN
0000ffb1 g       *ABS*	00000000 __LISTEN
0000ffb4 g       *ABS*	00000000 __TALK
0000ffb7 g       *ABS*	00000000 __READST
0000ffba g       *ABS*	00000000 __SETLFS
0000ffbd g       *ABS*	00000000 __SETNAM
0000ffc0 g       *ABS*	00000000 __OPEN
0000ffc3 g       *ABS*	00000000 __CLOSE
0000ffd5 g       *ABS*	00000000 __LOAD
0000ffd8 g       *ABS*	00000000 __SAVE
0000ffdb g       *ABS*	00000000 __SETTIM
0000ffde g       *ABS*	00000000 __RDTIM
0000ffed g       *ABS*	00000000 __SCREEN
0000fff3 g       *ABS*	00000000 __IOBASE
00001000  w      *ABS*	00000000 __heap_default_limit
000064af  w    F .text	0000002c memcpy
000064db  w    F .text	00000020 __memset
00002021 g       .text	00000000 _start
00000002 g       *ABS*	00000000 __basic_zp_start
0000000c g       *ABS*	00000000 __rc10
0000000e g       *ABS*	00000000 __rc12
00000010 g       *ABS*	00000000 __rc14
00000012 g       *ABS*	00000000 __rc16
00000014 g       *ABS*	00000000 __rc18
00000016 g       *ABS*	00000000 __rc20
00000018 g       *ABS*	00000000 __rc22
0000001a g       *ABS*	00000000 __rc24
0000001c g       *ABS*	00000000 __rc26
0000001e g       *ABS*	00000000 __rc28
00000020 g       *ABS*	00000000 __rc30
00000021 g       *ABS*	00000000 __rc31
00000090 g       *ABS*	00000000 __basic_zp_end
0000001f g       *ABS*	00000000 __rc29
0000001d g       *ABS*	00000000 __rc27
0000001b g       *ABS*	00000000 __rc25
00000019 g       *ABS*	00000000 __rc23
00000017 g       *ABS*	00000000 __rc21
00000015 g       *ABS*	00000000 __rc19
00000013 g       *ABS*	00000000 __rc17
00000011 g       *ABS*	00000000 __rc15
0000000f g       *ABS*	00000000 __rc13
0000000d g       *ABS*	00000000 __rc11
0000000b g       *ABS*	00000000 __rc9
00007558 g       .noinit	00000000 __heap_start
00000022 g       .zp.data	00000000 __zp_data_start
00002017 g       *ABS*	00000000 __zp_data_load_start
0000000a g       *ABS*	00000000 __zp_data_size
0000002c g       .zp.bss	00000000 __zp_bss_start
0000001a g       *ABS*	00000000 __zp_bss_size
00002021 g       .text	00000000 _init
000066b5 g       .text	00000000 __init_array_start
000066b5 g       .text	00000000 __init_array_end
000066b5 g       .text	00000000 __fini_array_start
000066b5 g       .text	00000000 __fini_array_end
00007108 g       .data	00000000 __data_start
00007108 g       .data	00000000 __data_end
00007108 g       *ABS*	00000000 __data_load_start
00000000 g       *ABS*	00000000 __data_size
00007108 g       .bss	00000000 __bss_start
00007557 g       .bss	00000000 __bss_end
0000044f g       *ABS*	00000000 __bss_size

Disassembly of section .text:

00002021 <_start>:
    2021: 78           	sei
    2022: a2 2f        	ldx	#$2f
    2024: 86 00        	stx	$0                      ; 0x0 <__data_size>
    2026: a2 3e        	ldx	#$3e
    2028: 86 01        	stx	$1                      ; 0x1 <__data_size+0x1>
    202a: a2 44        	ldx	#$44
    202c: 8e 30 d0     	stx	$d030                   ; 0xd030 <__heap_start+0x5ad8>

0000202f <__do_init_stack>:
    202f: a9 00        	lda	#$0
    2031: 85 02        	sta	$2                      ; 0x2 <__rc0>
    2033: a9 d0        	lda	#$d0
    2035: 85 03        	sta	$3                      ; 0x3 <__rc1>

00002037 <__do_zero_bss>:
    2037: 20 d9 20     	jsr	$20d9 <__zero_bss>

0000203a <__do_zero_zp_bss>:
    203a: 20 ec 20     	jsr	$20ec <__zero_zp_bss>

0000203d <__do_copy_zp_data>:
    203d: 20 ff 20     	jsr	$20ff <__copy_zp_data>

00002040 <shift>:
    2040: a9 0e        	lda	#$e
    2042: 20 d2 ff     	jsr	$ffd2 <__heap_start+0x8a7a>
    2045: 20 16 21     	jsr	$2116 <main>

00002048 <__after_main>:
    2048: 4c cf 20     	jmp	$20cf <__exit_return>

0000204b <_fini>:
    204b: a2 3f        	ldx	#$3f
    204d: 86 01        	stx	$1                      ; 0x1 <__data_size+0x1>
    204f: a2 64        	ldx	#$64
    2051: 8e 30 d0     	stx	$d030                   ; 0xd030 <__heap_start+0x5ad8>
    2054: 58           	cli
    2055: 60           	rts

00002056 <fourbytes>:
    2056: 00           	brk
    2057: 00           	brk
    2058: 00           	brk
    2059: 00           	brk

0000205a <lpstore>:
    205a: 48           	pha
    205b: ad 07 00     	lda	$7                      ; 0x7 <__rc5>
    205e: 8d 56 20     	sta	$2056                   ; 0x2056 <fourbytes>
    2061: ad 08 00     	lda	$8                      ; 0x8 <__rc6>
    2064: 8d 57 20     	sta	$2057                   ; 0x2057 <fourbytes+0x1>
    2067: ad 09 00     	lda	$9                      ; 0x9 <__rc7>
    206a: 8d 58 20     	sta	$2058                   ; 0x2058 <fourbytes+0x2>
    206d: ad 0a 00     	lda	$a                      ; 0xa <__zp_data_size>
    2070: 8d 59 20     	sta	$2059                   ; 0x2059 <fourbytes+0x3>
    2073: 68           	pla
    2074: 60           	rts

00002075 <lprestore>:
    2075: 48           	pha
    2076: ad 56 20     	lda	$2056                   ; 0x2056 <fourbytes>
    2079: 8d 07 00     	sta	$7                      ; 0x7 <__rc5>
    207c: ad 57 20     	lda	$2057                   ; 0x2057 <fourbytes+0x1>
    207f: 8d 08 00     	sta	$8                      ; 0x8 <__rc6>
    2082: ad 58 20     	lda	$2058                   ; 0x2058 <fourbytes+0x2>
    2085: 8d 09 00     	sta	$9                      ; 0x9 <__rc7>
    2088: ad 59 20     	lda	$2059                   ; 0x2059 <fourbytes+0x3>
    208b: 8d 0a 00     	sta	$a                      ; 0xa <__zp_data_size>
    208e: 68           	pla
    208f: 60           	rts

00002090 <lpoke>:
    2090: 20 5a 20     	jsr	$205a <lpstore>
    2093: 8d 07 00     	sta	$7                      ; 0x7 <__rc5>
    2096: 8e 08 00     	stx	$8                      ; 0x8 <__rc6>
    2099: ad 04 00     	lda	$4                      ; 0x4 <__rc2>
    209c: 8d 09 00     	sta	$9                      ; 0x9 <__rc7>
    209f: ad 05 00     	lda	$5                      ; 0x5 <__rc3>
    20a2: 8d 0a 00     	sta	$a                      ; 0xa <__zp_data_size>
    20a5: ad 06 00     	lda	$6                      ; 0x6 <__rc4>
    20a8: a3 00        	ldz	#$0
    20aa: ea 92 07     	sta	[$7],z                  ; 0x7 <__rc5>
    20ad: 20 75 20     	jsr	$2075 <lprestore>
    20b0: 60           	rts

000020b1 <lpeek>:
    20b1: 20 5a 20     	jsr	$205a <lpstore>
    20b4: 8d 06 00     	sta	$6                      ; 0x6 <__rc4>
    20b7: 8e 07 00     	stx	$7                      ; 0x7 <__rc5>
    20ba: ad 04 00     	lda	$4                      ; 0x4 <__rc2>
    20bd: 8d 08 00     	sta	$8                      ; 0x8 <__rc6>
    20c0: ad 05 00     	lda	$5                      ; 0x5 <__rc3>
    20c3: 8d 09 00     	sta	$9                      ; 0x9 <__rc7>
    20c6: a3 00        	ldz	#$0
    20c8: ea b2 06     	lda	[$6],z                  ; 0x6 <__rc4>
    20cb: 20 75 20     	jsr	$2075 <lprestore>
    20ce: 60           	rts

000020cf <__exit_return>:
    20cf: 8d 57 75     	sta	$7557                   ; 0x7557 <__data_load_start+0x44f>
    20d2: 20 4b 20     	jsr	$204b <_fini>
    20d5: ad 57 75     	lda	$7557                   ; 0x7557 <__data_load_start+0x44f>
    20d8: 60           	rts

000020d9 <__zero_bss>:
    20d9: a2 4f        	ldx	#$4f
    20db: a0 04        	ldy	#$4
    20dd: a9 08        	lda	#$8
    20df: 85 04        	sta	$4                      ; 0x4 <__rc2>
    20e1: a9 71        	lda	#$71
    20e3: 85 05        	sta	$5                      ; 0x5 <__rc3>
    20e5: a9 00        	lda	#$0
    20e7: 84 06        	sty	$6                      ; 0x6 <__rc4>
    20e9: 4c db 64     	jmp	$64db <__memset>

000020ec <__zero_zp_bss>:
    20ec: a2 1a        	ldx	#$1a
    20ee: a0 00        	ldy	#$0
    20f0: a9 2c        	lda	#$2c
    20f2: 85 04        	sta	$4                      ; 0x4 <__rc2>
    20f4: a9 00        	lda	#$0
    20f6: 85 05        	sta	$5                      ; 0x5 <__rc3>
    20f8: a9 00        	lda	#$0
    20fa: 84 06        	sty	$6                      ; 0x6 <__rc4>
    20fc: 4c db 64     	jmp	$64db <__memset>

000020ff <__copy_zp_data>:
    20ff: a9 0a        	lda	#$a
    2101: a2 00        	ldx	#$0
    2103: a0 22        	ldy	#$22
    2105: 84 04        	sty	$4                      ; 0x4 <__rc2>
    2107: a0 00        	ldy	#$0
    2109: 84 05        	sty	$5                      ; 0x5 <__rc3>
    210b: a0 17        	ldy	#$17
    210d: 84 06        	sty	$6                      ; 0x6 <__rc4>
    210f: a0 20        	ldy	#$20
    2111: 84 07        	sty	$7                      ; 0x7 <__rc5>
    2113: 4c af 64     	jmp	$64af <memcpy>

00002116 <main>:
    2116: a2 47        	ldx	#$47
    2118: 8e 2f d0     	stx	$d02f                   ; 0xd02f <__heap_start+0x5ad7>
    211b: a2 53        	ldx	#$53
    211d: 8e 2f d0     	stx	$d02f                   ; 0xd02f <__heap_start+0x5ad7>
    2120: ad 5d d0     	lda	$d05d                   ; 0xd05d <__heap_start+0x5b05>
    2123: 29 7f        	and	#$7f
    2125: 8d 5d d0     	sta	$d05d                   ; 0xd05d <__heap_start+0x5b05>
    2128: 9c 68 d0     	stz	$d068                   ; 0xd068 <__heap_start+0x5b10>
    212b: a2 d8        	ldx	#$d8
    212d: 8e 69 d0     	stx	$d069                   ; 0xd069 <__heap_start+0x5b11>
    2130: a2 02        	ldx	#$2
    2132: 8e 6a d0     	stx	$d06a                   ; 0xd06a <__heap_start+0x5b12>
    2135: ac 31 d0     	ldy	$d031                   ; 0xd031 <__heap_start+0x5ad9>
    2138: a2 28        	ldx	#$28
    213a: 98           	tya
    213b: 10 02        	bpl	$213f <main+0x29>
    213d: a2 50        	ldx	#$50
    213f: 86 2e        	stx	$2e                     ; 0x2e <g_curScreenW>
    2141: ad 31 d0     	lda	$d031                   ; 0xd031 <__heap_start+0x5ad9>
    2144: 29 08        	and	#$8
    2146: f0 04        	beq	$214c <main+0x36>
    2148: a2 32        	ldx	#$32
    214a: 80 02        	bra	$214e <main+0x38>
    214c: a2 19        	ldx	#$19
    214e: 18           	clc
    214f: a5 02        	lda	$2                      ; 0x2 <__rc0>
    2151: 69 d7        	adc	#$d7
    2153: 85 02        	sta	$2                      ; 0x2 <__rc0>
    2155: a5 03        	lda	$3                      ; 0x3 <__rc1>
    2157: 69 ff        	adc	#$ff
    2159: 85 03        	sta	$3                      ; 0x3 <__rc1>
    215b: a4 16        	ldy	$16                     ; 0x16 <__rc20>
    215d: 5a           	phy
    215e: a4 17        	ldy	$17                     ; 0x17 <__rc21>
    2160: 5a           	phy
    2161: a4 18        	ldy	$18                     ; 0x18 <__rc22>
    2163: 5a           	phy
    2164: a4 19        	ldy	$19                     ; 0x19 <__rc23>
    2166: 5a           	phy
    2167: a5 1a        	lda	$1a                     ; 0x1a <__zp_bss_size>
    2169: a0 07        	ldy	#$7
    216b: 91 02        	sta	($2),y                  ; 0x2 <__rc0>
    216d: a5 1b        	lda	$1b                     ; 0x1b <__rc25>
    216f: 88           	dey
    2170: 91 02        	sta	($2),y                  ; 0x2 <__rc0>
    2172: a5 1c        	lda	$1c                     ; 0x1c <__rc26>
    2174: 88           	dey
    2175: 91 02        	sta	($2),y                  ; 0x2 <__rc0>
    2177: a5 1d        	lda	$1d                     ; 0x1d <__rc27>
    2179: 88           	dey
    217a: 91 02        	sta	($2),y                  ; 0x2 <__rc0>
    217c: a5 1e        	lda	$1e                     ; 0x1e <__rc28>
    217e: 88           	dey
    217f: 91 02        	sta	($2),y                  ; 0x2 <__rc0>
    2181: a5 1f        	lda	$1f                     ; 0x1f <__rc29>
    2183: 88           	dey
    2184: 91 02        	sta	($2),y                  ; 0x2 <__rc0>
    2186: a5 20        	lda	$20                     ; 0x20 <__rc30>
    2188: 88           	dey
    2189: 91 02        	sta	($2),y                  ; 0x2 <__rc0>
    218b: a5 21        	lda	$21                     ; 0x21 <__rc31>
    218d: 88           	dey
    218e: 91 02        	sta	($2),y                  ; 0x2 <__rc0>
    2190: 86 2f        	stx	$2f                     ; 0x2f <g_curScreenH>
    2192: 80 03        	bra	$2197 <main+0x81>
    2194: 9c 10 d6     	stz	$d610                   ; 0xd610 <__heap_start+0x60b8>
    2197: ae 10 d6     	ldx	$d610                   ; 0xd610 <__heap_start+0x60b8>
    219a: d0 f8        	bne	$2194 <main+0x7e>
    219c: a2 5a        	ldx	#$5a
    219e: 86 04        	stx	$4                      ; 0x4 <__rc2>
    21a0: a2 72        	ldx	#$72
    21a2: 86 05        	stx	$5                      ; 0x5 <__rc3>
    21a4: a2 ff        	ldx	#$ff
    21a6: a0 01        	ldy	#$1
    21a8: 4c db 21     	jmp	$21db <main+0xc5>
    21ab: a5 04        	lda	$4                      ; 0x4 <__rc2>
    21ad: 18           	clc
    21ae: 69 03        	adc	#$3
    21b0: 85 08        	sta	$8                      ; 0x8 <__rc6>
    21b2: a5 05        	lda	$5                      ; 0x5 <__rc3>
    21b4: 69 00        	adc	#$0
    21b6: 85 09        	sta	$9                      ; 0x9 <__rc7>
    21b8: a5 04        	lda	$4                      ; 0x4 <__rc2>
    21ba: 85 06        	sta	$6                      ; 0x6 <__rc4>
    21bc: a5 05        	lda	$5                      ; 0x5 <__rc3>
    21be: 85 07        	sta	$7                      ; 0x7 <__rc5>
    21c0: a9 19        	lda	#$19
    21c2: 91 04        	sta	($4),y                  ; 0x4 <__rc2>
    21c4: a9 00        	lda	#$0
    21c6: 92 04        	sta	($4),z                  ; 0x4 <__rc2>
    21c8: a5 08        	lda	$8                      ; 0x8 <__rc6>
    21ca: 85 04        	sta	$4                      ; 0x4 <__rc2>
    21cc: a5 09        	lda	$9                      ; 0x9 <__rc7>
    21ce: 85 05        	sta	$5                      ; 0x5 <__rc3>
    21d0: e6 06        	inc	$6                      ; 0x6 <__rc4>
    21d2: d0 02        	bne	$21d6 <main+0xc0>
    21d4: e6 07        	inc	$7                      ; 0x7 <__rc5>
    21d6: a9 5e        	lda	#$5e
    21d8: 91 06        	sta	($6),y                  ; 0x6 <__rc4>
    21da: ca           	dex
    21db: 8a           	txa
    21dc: f0 03        	beq	$21e1 <main+0xcb>
    21de: 4c ab 21     	jmp	$21ab <main+0x95>
    21e1: a9 f0        	lda	#$f0
    21e3: 25 2b        	and	$2b                     ; 0x2b <g_curTextColor>
    21e5: 09 03        	ora	#$3
    21e7: 85 2b        	sta	$2b                     ; 0x2b <g_curTextColor>
    21e9: 9c 20 d0     	stz	$d020                   ; 0xd020 <__heap_start+0x5ac8>
    21ec: a2 06        	ldx	#$6
    21ee: 8e 21 d0     	stx	$d021                   ; 0xd021 <__heap_start+0x5ac9>
    21f1: ad 31 d0     	lda	$d031                   ; 0xd031 <__heap_start+0x5ad9>
    21f4: 09 80        	ora	#$80
    21f6: 8d 31 d0     	sta	$d031                   ; 0xd031 <__heap_start+0x5ad9>
    21f9: a2 50        	ldx	#$50
    21fb: 8e 4c d0     	stx	$d04c                   ; 0xd04c <__heap_start+0x5af4>
    21fe: ad 31 d0     	lda	$d031                   ; 0xd031 <__heap_start+0x5ad9>
    2201: 29 f7        	and	#$f7
    2203: 8d 31 d0     	sta	$d031                   ; 0xd031 <__heap_start+0x5ad9>
    2206: 86 2e        	stx	$2e                     ; 0x2e <g_curScreenW>
    2208: a2 19        	ldx	#$19
    220a: 86 2f        	stx	$2f                     ; 0x2f <g_curScreenH>
    220c: 20 60 4e     	jsr	$4e60 <clrhome>
    220f: a2 16        	ldx	#$16
    2211: a0 80        	ldy	#$80
    2213: 84 04        	sty	$4                      ; 0x4 <__rc2>
    2215: a0 67        	ldy	#$67
    2217: 84 05        	sty	$5                      ; 0x5 <__rc3>
    2219: a9 00        	lda	#$0
    221b: 20 cc 4e     	jsr	$4ecc <mcputsxy>
    221e: a2 e3        	ldx	#$e3
    2220: 86 04        	stx	$4                      ; 0x4 <__rc2>
    2222: a2 6e        	ldx	#$6e
    2224: 86 05        	stx	$5                      ; 0x5 <__rc3>
    2226: 20 be 4e     	jsr	$4ebe <msprintf>
    2229: a2 17        	ldx	#$17
    222b: a0 c9        	ldy	#$c9
    222d: 84 04        	sty	$4                      ; 0x4 <__rc2>
    222f: a0 6c        	ldy	#$6c
    2231: 84 05        	sty	$5                      ; 0x5 <__rc3>
    2233: a9 00        	lda	#$0
    2235: 20 cc 4e     	jsr	$4ecc <mcputsxy>
    2238: a9 14        	lda	#$14
    223a: a2 00        	ldx	#$0
    223c: 20 55 52     	jsr	$5255 <shortcuts>
    223f: a9 01        	lda	#$1
    2241: a2 1f        	ldx	#$1f
    2243: 86 04        	stx	$4                      ; 0x4 <__rc2>
    2245: a2 70        	ldx	#$70
    2247: 86 05        	stx	$5                      ; 0x5 <__rc3>
    2249: a2 6d        	ldx	#$6d
    224b: 86 06        	stx	$6                      ; 0x6 <__rc4>
    224d: a2 6f        	ldx	#$6f
    224f: 86 07        	stx	$7                      ; 0x7 <__rc5>
    2251: a2 73        	ldx	#$73
    2253: 86 08        	stx	$8                      ; 0x8 <__rc6>
    2255: a2 6a        	ldx	#$6a
    2257: 86 09        	stx	$9                      ; 0x9 <__rc7>
    2259: 20 6d 50     	jsr	$506d <messagebox>
    225c: aa           	tax
    225d: d0 03        	bne	$2262 <main+0x14c>
    225f: 4c 2d 40     	jmp	$402d <donehypchdir2+0x172>
    2262: a2 02        	ldx	#$2
    2264: 86 2d        	stx	$2d                     ; 0x2d <option.0>
    2266: a2 28        	ldx	#$28
    2268: 8a           	txa
    2269: a0 21        	ldy	#$21
    226b: 91 02        	sta	($2),y                  ; 0x2 <__rc0>
    226d: a0 00        	ldy	#$0
    226f: 64 19        	stz	$19                     ; 0x19 <__rc23>
    2271: 4c ec 22     	jmp	$22ec <main+0x1d6>
    2274: a6 19        	ldx	$19                     ; 0x19 <__rc23>
    2276: 84 18        	sty	$18                     ; 0x18 <__rc22>
    2278: b4 27        	ldy	$27,x                   ; 0x27 <midnight>
    227a: b5 28        	lda	$28,x                   ; 0x28 <midnight+0x1>
    227c: aa           	tax
    227d: 84 16        	sty	$16                     ; 0x16 <__rc20>
    227f: 86 17        	stx	$17                     ; 0x17 <__rc21>
    2281: a5 18        	lda	$18                     ; 0x18 <__rc22>
    2283: 92 16        	sta	($16),z                 ; 0x16 <__rc20>
    2285: 18           	clc
    2286: 98           	tya
    2287: 69 03        	adc	#$3
    2289: 85 04        	sta	$4                      ; 0x4 <__rc2>
    228b: 8a           	txa
    228c: 69 00        	adc	#$0
    228e: 85 05        	sta	$5                      ; 0x5 <__rc3>
    2290: a2 57        	ldx	#$57
    2292: 86 06        	stx	$6                      ; 0x6 <__rc4>
    2294: a2 6a        	ldx	#$6a
    2296: 86 07        	stx	$7                      ; 0x7 <__rc5>
    2298: a2 00        	ldx	#$0
    229a: a9 10        	lda	#$10
    229c: 20 af 64     	jsr	$64af <memcpy>
    229f: a9 28        	lda	#$28
    22a1: a0 47        	ldy	#$47
    22a3: 91 16        	sta	($16),y                 ; 0x16 <__rc20>
    22a5: a0 01        	ldy	#$1
    22a7: a9 00        	lda	#$0
    22a9: 91 16        	sta	($16),y                 ; 0x16 <__rc20>
    22ab: 98           	tya
    22ac: a0 46        	ldy	#$46
    22ae: 11 16        	ora	($16),y                 ; 0x16 <__rc20>
    22b0: 91 16        	sta	($16),y                 ; 0x16 <__rc20>
    22b2: a2 df        	ldx	#$df
    22b4: 86 04        	stx	$4                      ; 0x4 <__rc2>
    22b6: a2 69        	ldx	#$69
    22b8: 86 05        	stx	$5                      ; 0x5 <__rc3>
    22ba: a2 b7        	ldx	#$b7
    22bc: 86 06        	stx	$6                      ; 0x6 <__rc4>
    22be: a2 68        	ldx	#$68
    22c0: 86 07        	stx	$7                      ; 0x7 <__rc5>
    22c2: a0 21        	ldy	#$21
    22c4: b1 02        	lda	($2),y                  ; 0x2 <__rc0>
    22c6: 85 1a        	sta	$1a                     ; 0x1a <__zp_bss_size>
    22c8: 20 54 51     	jsr	$5154 <progress>
    22cb: b2 16        	lda	($16),z                 ; 0x16 <__rc20>
    22cd: a6 18        	ldx	$18                     ; 0x18 <__rc22>
    22cf: 20 7c 56     	jsr	$567c <UpdateSectors>
    22d2: a5 18        	lda	$18                     ; 0x18 <__rc22>
    22d4: 20 4d 5c     	jsr	$5c4d <Deselect>
    22d7: a5 19        	lda	$19                     ; 0x19 <__rc23>
    22d9: a4 18        	ldy	$18                     ; 0x18 <__rc22>
    22db: 18           	clc
    22dc: 69 02        	adc	#$2
    22de: 85 19        	sta	$19                     ; 0x19 <__rc23>
    22e0: c8           	iny
    22e1: 18           	clc
    22e2: a5 1a        	lda	$1a                     ; 0x1a <__zp_bss_size>
    22e4: 69 28        	adc	#$28
    22e6: 5a           	phy
    22e7: a0 21        	ldy	#$21
    22e9: 91 02        	sta	($2),y                  ; 0x2 <__rc0>
    22eb: 7a           	ply
    22ec: c0 02        	cpy	#$2
    22ee: f0 03        	beq	$22f3 <main+0x1dd>
    22f0: 4c 74 22     	jmp	$2274 <main+0x15e>
    22f3: 64 04        	stz	$4                      ; 0x4 <__rc2>
    22f5: a9 00        	lda	#$0
    22f7: a0 1c        	ldy	#$1c
    22f9: 91 02        	sta	($2),y                  ; 0x2 <__rc0>
    22fb: 9c 80 d0     	stz	$d080                   ; 0xd080 <__heap_start+0x5b28>
    22fe: a2 58        	ldx	#$58
    2300: 86 16        	stx	$16                     ; 0x16 <__rc20>
    2302: a2 71        	ldx	#$71
    2304: 86 17        	stx	$17                     ; 0x17 <__rc21>
    2306: a9 00        	lda	#$0
    2308: 64 04        	stz	$4                      ; 0x4 <__rc2>
    230a: 48           	pha
    230b: a9 00        	lda	#$0
    230d: a0 21        	ldy	#$21
    230f: 91 02        	sta	($2),y                  ; 0x2 <__rc0>
    2311: 68           	pla
    2312: 64 21        	stz	$21                     ; 0x21 <__rc31>
    2314: 64 20        	stz	$20                     ; 0x20 <__rc30>
    2316: 64 18        	stz	$18                     ; 0x18 <__rc22>
    2318: a6 18        	ldx	$18                     ; 0x18 <__rc22>
    231a: d0 09        	bne	$2325 <main+0x20f>
    231c: a6 20        	ldx	$20                     ; 0x20 <__rc30>
    231e: e0 02        	cpx	#$2
    2320: d0 03        	bne	$2325 <main+0x20f>
    2322: 4c b3 27     	jmp	$27b3 <main+0x69d>
    2325: 85 1f        	sta	$1f                     ; 0x1f <__rc29>
    2327: a6 21        	ldx	$21                     ; 0x21 <__rc31>
    2329: b4 27        	ldy	$27,x                   ; 0x27 <midnight>
    232b: b5 28        	lda	$28,x                   ; 0x28 <midnight+0x1>
    232d: aa           	tax
    232e: 84 1c        	sty	$1c                     ; 0x1c <__rc26>
    2330: 84 1a        	sty	$1a                     ; 0x1a <__zp_bss_size>
    2332: 86 1d        	stx	$1d                     ; 0x1d <__rc27>
    2334: 86 1b        	stx	$1b                     ; 0x1b <__rc25>
    2336: a0 02        	ldy	#$2
    2338: b1 1a        	lda	($1a),y                 ; 0x1a <__zp_bss_size>
    233a: 88           	dey
    233b: d1 1a        	cmp	($1a),y                 ; 0x1a <__zp_bss_size>
    233d: b0 02        	bcs	$2341 <main+0x22b>
    233f: 91 1a        	sta	($1a),y                 ; 0x1a <__zp_bss_size>
    2341: a5 20        	lda	$20                     ; 0x20 <__rc30>
    2343: 0a           	asl
    2344: 0a           	asl
    2345: 0a           	asl
    2346: 85 04        	sta	$4                      ; 0x4 <__rc2>
    2348: 0a           	asl
    2349: 0a           	asl
    234a: 18           	clc
    234b: 65 04        	adc	$4                      ; 0x4 <__rc2>
    234d: 85 1e        	sta	$1e                     ; 0x1e <__rc28>
    234f: 18           	clc
    2350: 69 27        	adc	#$27
    2352: 85 04        	sta	$4                      ; 0x4 <__rc2>
    2354: a2 17        	ldx	#$17
    2356: 86 05        	stx	$5                      ; 0x5 <__rc3>
    2358: 64 06        	stz	$6                      ; 0x6 <__rc4>
    235a: a2 00        	ldx	#$0
    235c: a5 1e        	lda	$1e                     ; 0x1e <__rc28>
    235e: 20 e2 4e     	jsr	$4ee2 <mcbox>
    2361: a9 20        	lda	#$20
    2363: 05 2b        	ora	$2b                     ; 0x2b <g_curTextColor>
    2365: 85 2b        	sta	$2b                     ; 0x2b <g_curTextColor>
    2367: a6 1e        	ldx	$1e                     ; 0x1e <__rc28>
    2369: 86 19        	stx	$19                     ; 0x19 <__rc23>
    236b: a5 1e        	lda	$1e                     ; 0x1e <__rc28>
    236d: 09 02        	ora	#$2
    236f: a2 b7        	ldx	#$b7
    2371: 86 04        	stx	$4                      ; 0x4 <__rc2>
    2373: a2 67        	ldx	#$67
    2375: 86 05        	stx	$5                      ; 0x5 <__rc3>
    2377: a2 00        	ldx	#$0
    2379: 85 1e        	sta	$1e                     ; 0x1e <__rc28>
    237b: 20 cc 4e     	jsr	$4ecc <mcputsxy>
    237e: a0 21        	ldy	#$21
    2380: b1 02        	lda	($2),y                  ; 0x2 <__rc0>
    2382: 85 04        	sta	$4                      ; 0x4 <__rc2>
    2384: a9 38        	lda	#$38
    2386: 18           	clc
    2387: 65 04        	adc	$4                      ; 0x4 <__rc2>
    2389: 85 04        	sta	$4                      ; 0x4 <__rc2>
    238b: a9 72        	lda	#$72
    238d: 69 00        	adc	#$0
    238f: 85 05        	sta	$5                      ; 0x5 <__rc3>
    2391: 20 be 4e     	jsr	$4ebe <msprintf>
    2394: a9 20        	lda	#$20
    2396: 20 1a 5e     	jsr	$5e1a <cputc>
    2399: a9 01        	lda	#$1
    239b: a0 46        	ldy	#$46
    239d: 31 1a        	and	($1a),y                 ; 0x1a <__zp_bss_size>
    239f: f0 25        	beq	$23c6 <main+0x2b0>
    23a1: a5 30        	lda	$30                     ; 0x30 <g_curX>
    23a3: 1a           	inc
    23a4: a2 b7        	ldx	#$b7
    23a6: 86 04        	stx	$4                      ; 0x4 <__rc2>
    23a8: a2 67        	ldx	#$67
    23aa: 86 05        	stx	$5                      ; 0x5 <__rc3>
    23ac: a2 00        	ldx	#$0
    23ae: 20 cc 4e     	jsr	$4ecc <mcputsxy>
    23b1: a5 1c        	lda	$1c                     ; 0x1c <__rc26>
    23b3: 18           	clc
    23b4: 69 03        	adc	#$3
    23b6: 85 04        	sta	$4                      ; 0x4 <__rc2>
    23b8: a5 1d        	lda	$1d                     ; 0x1d <__rc27>
    23ba: 69 00        	adc	#$0
    23bc: 85 05        	sta	$5                      ; 0x5 <__rc3>
    23be: 20 be 4e     	jsr	$4ebe <msprintf>
    23c1: a9 20        	lda	#$20
    23c3: 20 1a 5e     	jsr	$5e1a <cputc>
    23c6: a2 05        	ldx	#$5
    23c8: 86 04        	stx	$4                      ; 0x4 <__rc2>
    23ca: a2 6c        	ldx	#$6c
    23cc: 86 05        	stx	$5                      ; 0x5 <__rc3>
    23ce: a2 17        	ldx	#$17
    23d0: a5 1e        	lda	$1e                     ; 0x1e <__rc28>
    23d2: 20 cc 4e     	jsr	$4ecc <mcputsxy>
    23d5: b2 1a        	lda	($1a),z                 ; 0x1a <__zp_bss_size>
    23d7: 64 04        	stz	$4                      ; 0x4 <__rc2>
    23d9: 64 05        	stz	$5                      ; 0x5 <__rc3>
    23db: 64 06        	stz	$6                      ; 0x6 <__rc4>
    23dd: a2 00        	ldx	#$0
    23df: 20 49 4d     	jsr	$4d49 <csputdec>
    23e2: a0 02        	ldy	#$2
    23e4: b1 1a        	lda	($1a),y                 ; 0x1a <__zp_bss_size>
    23e6: c9 ff        	cmp	#$ff
    23e8: d0 03        	bne	$23ed <main+0x2d7>
    23ea: 4c f6 26     	jmp	$26f6 <main+0x5e0>
    23ed: a9 20        	lda	#$20
    23ef: 20 1a 5e     	jsr	$5e1a <cputc>
    23f2: 18           	clc
    23f3: a5 1c        	lda	$1c                     ; 0x1c <__rc26>
    23f5: 69 44        	adc	#$44
    23f7: aa           	tax
    23f8: a5 1d        	lda	$1d                     ; 0x1d <__rc27>
    23fa: 69 00        	adc	#$0
    23fc: 86 1c        	stx	$1c                     ; 0x1c <__rc26>
    23fe: 86 04        	stx	$4                      ; 0x4 <__rc2>
    2400: 85 1d        	sta	$1d                     ; 0x1d <__rc27>
    2402: 85 05        	sta	$5                      ; 0x5 <__rc3>
    2404: a0 01        	ldy	#$1
    2406: b1 04        	lda	($4),y                  ; 0x4 <__rc2>
    2408: c9 ff        	cmp	#$ff
    240a: d0 0d        	bne	$2419 <main+0x303>
    240c: a0 44        	ldy	#$44
    240e: b1 1a        	lda	($1a),y                 ; 0x1a <__zp_bss_size>
    2410: a0 01        	ldy	#$1
    2412: c9 ff        	cmp	#$ff
    2414: d0 03        	bne	$2419 <main+0x303>
    2416: 4c 56 24     	jmp	$2456 <main+0x340>
    2419: 18           	clc
    241a: a5 19        	lda	$19                     ; 0x19 <__rc23>
    241c: 69 0c        	adc	#$c
    241e: a2 b7        	ldx	#$b7
    2420: 86 04        	stx	$4                      ; 0x4 <__rc2>
    2422: a2 67        	ldx	#$67
    2424: 86 05        	stx	$5                      ; 0x5 <__rc3>
    2426: a2 17        	ldx	#$17
    2428: 20 cc 4e     	jsr	$4ecc <mcputsxy>
    242b: a6 1c        	ldx	$1c                     ; 0x1c <__rc26>
    242d: 86 04        	stx	$4                      ; 0x4 <__rc2>
    242f: a6 1d        	ldx	$1d                     ; 0x1d <__rc27>
    2431: 86 05        	stx	$5                      ; 0x5 <__rc3>
    2433: a0 44        	ldy	#$44
    2435: b1 1a        	lda	($1a),y                 ; 0x1a <__zp_bss_size>
    2437: 85 07        	sta	$7                      ; 0x7 <__rc5>
    2439: a0 01        	ldy	#$1
    243b: b1 04        	lda	($4),y                  ; 0x4 <__rc2>
    243d: 64 04        	stz	$4                      ; 0x4 <__rc2>
    243f: 64 05        	stz	$5                      ; 0x5 <__rc3>
    2441: 64 06        	stz	$6                      ; 0x6 <__rc4>
    2443: aa           	tax
    2444: a5 07        	lda	$7                      ; 0x7 <__rc5>
    2446: 20 49 4d     	jsr	$4d49 <csputdec>
    2449: a2 96        	ldx	#$96
    244b: 86 04        	stx	$4                      ; 0x4 <__rc2>
    244d: a2 6c        	ldx	#$6c
    244f: 86 05        	stx	$5                      ; 0x5 <__rc3>
    2451: 20 be 4e     	jsr	$4ebe <msprintf>
    2454: a0 01        	ldy	#$1
    2456: a9 df        	lda	#$df
    2458: 25 2b        	and	$2b                     ; 0x2b <g_curTextColor>
    245a: 85 06        	sta	$6                      ; 0x6 <__rc4>
    245c: 85 2b        	sta	$2b                     ; 0x2b <g_curTextColor>
    245e: b1 1a        	lda	($1a),y                 ; 0x1a <__zp_bss_size>
    2460: a0 1d        	ldy	#$1d
    2462: 91 02        	sta	($2),y                  ; 0x2 <__rc0>
    2464: aa           	tax
    2465: a0 02        	ldy	#$2
    2467: b1 1a        	lda	($1a),y                 ; 0x1a <__zp_bss_size>
    2469: a0 18        	ldy	#$18
    246b: 91 02        	sta	($2),y                  ; 0x2 <__rc0>
    246d: e0 15        	cpx	#$15
    246f: 64 1e        	stz	$1e                     ; 0x1e <__rc28>
    2471: 64 1a        	stz	$1a                     ; 0x1a <__zp_bss_size>
    2473: a9 00        	lda	#$0
    2475: 90 0a        	bcc	$2481 <main+0x36b>
    2477: 18           	clc
    2478: 8a           	txa
    2479: 69 eb        	adc	#$eb
    247b: 85 1a        	sta	$1a                     ; 0x1a <__zp_bss_size>
    247d: a9 00        	lda	#$0
    247f: 69 ff        	adc	#$ff
    2481: aa           	tax
    2482: a5 1a        	lda	$1a                     ; 0x1a <__zp_bss_size>
    2484: 18           	clc
    2485: 65 16        	adc	$16                     ; 0x16 <__rc20>
    2487: 85 1c        	sta	$1c                     ; 0x1c <__rc26>
    2489: 8a           	txa
    248a: a0 1f        	ldy	#$1f
    248c: 91 02        	sta	($2),y                  ; 0x2 <__rc0>
    248e: 65 17        	adc	$17                     ; 0x17 <__rc21>
    2490: 85 1d        	sta	$1d                     ; 0x1d <__rc27>
    2492: a5 19        	lda	$19                     ; 0x19 <__rc23>
    2494: 09 01        	ora	#$1
    2496: a0 1a        	ldy	#$1a
    2498: 91 02        	sta	($2),y                  ; 0x2 <__rc0>
    249a: a5 06        	lda	$6                      ; 0x6 <__rc4>
    249c: a4 1f        	ldy	$1f                     ; 0x1f <__rc29>
    249e: a6 1e        	ldx	$1e                     ; 0x1e <__rc28>
    24a0: e0 16        	cpx	#$16
    24a2: d0 03        	bne	$24a7 <main+0x391>
    24a4: 4c ef 26     	jmp	$26ef <main+0x5d9>
    24a7: 86 04        	stx	$4                      ; 0x4 <__rc2>
    24a9: a5 1a        	lda	$1a                     ; 0x1a <__zp_bss_size>
    24ab: 18           	clc
    24ac: 65 04        	adc	$4                      ; 0x4 <__rc2>
    24ae: a2 01        	ldx	#$1
    24b0: b0 02        	bcs	$24b4 <main+0x39e>
    24b2: a2 00        	ldx	#$0
    24b4: 86 1b        	stx	$1b                     ; 0x1b <__rc25>
    24b6: 85 19        	sta	$19                     ; 0x19 <__rc23>
    24b8: aa           	tax
    24b9: a5 20        	lda	$20                     ; 0x20 <__rc30>
    24bb: 20 55 4c     	jsr	$4c55 <getdirententry>
    24be: a6 04        	ldx	$4                      ; 0x4 <__rc2>
    24c0: 86 16        	stx	$16                     ; 0x16 <__rc20>
    24c2: a6 05        	ldx	$5                      ; 0x5 <__rc3>
    24c4: 86 17        	stx	$17                     ; 0x17 <__rc21>
    24c6: a6 17        	ldx	$17                     ; 0x17 <__rc21>
    24c8: a0 00        	ldy	#$0
    24ca: 84 04        	sty	$4                      ; 0x4 <__rc2>
    24cc: a0 00        	ldy	#$0
    24ce: 84 05        	sty	$5                      ; 0x5 <__rc3>
    24d0: e4 05        	cpx	$5                      ; 0x5 <__rc3>
    24d2: d0 11        	bne	$24e5 <main+0x3cf>
    24d4: a6 16        	ldx	$16                     ; 0x16 <__rc20>
    24d6: a4 1f        	ldy	$1f                     ; 0x1f <__rc29>
    24d8: 5a           	phy
    24d9: a0 1f        	ldy	#$1f
    24db: b1 02        	lda	($2),y                  ; 0x2 <__rc0>
    24dd: 7a           	ply
    24de: e4 04        	cpx	$4                      ; 0x4 <__rc2>
    24e0: d0 07        	bne	$24e9 <main+0x3d3>
    24e2: 4c ed 26     	jmp	$26ed <main+0x5d7>
    24e5: a0 1f        	ldy	#$1f
    24e7: b1 02        	lda	($2),y                  ; 0x2 <__rc0>
    24e9: a6 1b        	ldx	$1b                     ; 0x1b <__rc25>
    24eb: e0 01        	cpx	#$1
    24ed: 69 00        	adc	#$0
    24ef: 85 1b        	sta	$1b                     ; 0x1b <__rc25>
    24f1: a2 00        	ldx	#$0
    24f3: e4 1b        	cpx	$1b                     ; 0x1b <__rc25>
    24f5: d0 08        	bne	$24ff <main+0x3e9>
    24f7: a0 18        	ldy	#$18
    24f9: b1 02        	lda	($2),y                  ; 0x2 <__rc0>
    24fb: c5 19        	cmp	$19                     ; 0x19 <__rc23>
    24fd: 80 02        	bra	$2501 <main+0x3eb>
    24ff: e4 1b        	cpx	$1b                     ; 0x1b <__rc25>
    2501: a4 1f        	ldy	$1f                     ; 0x1f <__rc29>
    2503: b0 03        	bcs	$2508 <main+0x3f2>
    2505: 4c ed 26     	jmp	$26ed <main+0x5d7>
    2508: a5 1b        	lda	$1b                     ; 0x1b <__rc25>
    250a: d0 0f        	bne	$251b <main+0x405>
    250c: a0 1d        	ldy	#$1d
    250e: b1 02        	lda	($2),y                  ; 0x2 <__rc0>
    2510: 85 04        	sta	$4                      ; 0x4 <__rc2>
    2512: a6 19        	ldx	$19                     ; 0x19 <__rc23>
    2514: e4 04        	cpx	$4                      ; 0x4 <__rc2>
    2516: d0 03        	bne	$251b <main+0x405>
    2518: 4c 62 27     	jmp	$2762 <main+0x64c>
    251b: a9 01        	lda	#$1
    251d: 29 01        	and	#$1
    251f: a2 20        	ldx	#$20
    2521: a8           	tay
    2522: d0 02        	bne	$2526 <main+0x410>
    2524: a2 3e        	ldx	#$3e
    2526: 8e 08 71     	stx	$7108                   ; 0x7108 <s>
    2529: a2 20        	ldx	#$20
    252b: 8e 09 71     	stx	$7109                   ; 0x7109 <s+0x1>
    252e: a0 00        	ldy	#$0
    2530: 80 04        	bra	$2536 <main+0x420>
    2532: 99 0a 71     	sta	$710a,y                 ; 0x710a <s+0x2>
    2535: c8           	iny
    2536: 84 06        	sty	$6                      ; 0x6 <__rc4>
    2538: 98           	tya
    2539: 18           	clc
    253a: 65 16        	adc	$16                     ; 0x16 <__rc20>
    253c: 85 04        	sta	$4                      ; 0x4 <__rc2>
    253e: a5 17        	lda	$17                     ; 0x17 <__rc21>
    2540: 69 00        	adc	#$0
    2542: 85 05        	sta	$5                      ; 0x5 <__rc3>
    2544: a0 05        	ldy	#$5
    2546: b1 04        	lda	($4),y                  ; 0x4 <__rc2>
    2548: c9 a0        	cmp	#$a0
    254a: f0 0f        	beq	$255b <main+0x445>
    254c: aa           	tax
    254d: f0 0c        	beq	$255b <main+0x445>
    254f: a4 06        	ldy	$6                      ; 0x6 <__rc4>
    2551: c0 10        	cpy	#$10
    2553: d0 dd        	bne	$2532 <main+0x41c>
    2555: a2 10        	ldx	#$10
    2557: a9 12        	lda	#$12
    2559: 80 07        	bra	$2562 <main+0x44c>
    255b: 18           	clc
    255c: a6 06        	ldx	$6                      ; 0x6 <__rc4>
    255e: a5 06        	lda	$6                      ; 0x6 <__rc4>
    2560: 69 02        	adc	#$2
    2562: a8           	tay
    2563: 18           	clc
    2564: 69 10        	adc	#$10
    2566: 86 04        	stx	$4                      ; 0x4 <__rc2>
    2568: 38           	sec
    2569: e5 04        	sbc	$4                      ; 0x4 <__rc2>
    256b: 85 05        	sta	$5                      ; 0x5 <__rc3>
    256d: 18           	clc
    256e: 8a           	txa
    256f: 69 f0        	adc	#$f0
    2571: 85 04        	sta	$4                      ; 0x4 <__rc2>
    2573: 5a           	phy
    2574: fa           	plx
    2575: a5 05        	lda	$5                      ; 0x5 <__rc3>
    2577: 80 0c        	bra	$2585 <main+0x46f>
    2579: c8           	iny
    257a: a9 20        	lda	#$20
    257c: 9d 08 71     	sta	$7108,x                 ; 0x7108 <s>
    257f: a5 05        	lda	$5                      ; 0x5 <__rc3>
    2581: e6 04        	inc	$4                      ; 0x4 <__rc2>
    2583: 5a           	phy
    2584: fa           	plx
    2585: e6 04        	inc	$4                      ; 0x4 <__rc2>
    2587: c6 04        	dec	$4                      ; 0x4 <__rc2>
    2589: d0 ee        	bne	$2579 <main+0x463>
    258b: aa           	tax
    258c: e8           	inx
    258d: a8           	tay
    258e: 85 04        	sta	$4                      ; 0x4 <__rc2>
    2590: a9 20        	lda	#$20
    2592: 99 08 71     	sta	$7108,y                 ; 0x7108 <s>
    2595: 18           	clc
    2596: a5 04        	lda	$4                      ; 0x4 <__rc2>
    2598: 69 02        	adc	#$2
    259a: a8           	tay
    259b: a9 5d        	lda	#$5d
    259d: 9d 08 71     	sta	$7108,x                 ; 0x7108 <s>
    25a0: 18           	clc
    25a1: a5 04        	lda	$4                      ; 0x4 <__rc2>
    25a3: 69 03        	adc	#$3
    25a5: 85 06        	sta	$6                      ; 0x6 <__rc4>
    25a7: a9 20        	lda	#$20
    25a9: 99 08 71     	sta	$7108,y                 ; 0x7108 <s>
    25ac: a0 02        	ldy	#$2
    25ae: b1 16        	lda	($16),y                 ; 0x16 <__rc20>
    25b0: aa           	tax
    25b1: 29 40        	and	#$40
    25b3: d0 2b        	bne	$25e0 <main+0x4ca>
    25b5: 8a           	txa
    25b6: 29 0f        	and	#$f
    25b8: 85 07        	sta	$7                      ; 0x7 <__rc5>
    25ba: 18           	clc
    25bb: a5 04        	lda	$4                      ; 0x4 <__rc2>
    25bd: 69 04        	adc	#$4
    25bf: a8           	tay
    25c0: 18           	clc
    25c1: a5 04        	lda	$4                      ; 0x4 <__rc2>
    25c3: 69 05        	adc	#$5
    25c5: 85 04        	sta	$4                      ; 0x4 <__rc2>
    25c7: a2 00        	ldx	#$0
    25c9: a9 ff        	lda	#$ff
    25cb: c6 07        	dec	$7                      ; 0x7 <__rc5>
    25cd: c5 07        	cmp	$7                      ; 0x7 <__rc5>
    25cf: d0 03        	bne	$25d4 <main+0x4be>
    25d1: 4c 67 27     	jmp	$2767 <main+0x651>
    25d4: a5 07        	lda	$7                      ; 0x7 <__rc5>
    25d6: e0 00        	cpx	#$0
    25d8: f0 03        	beq	$25dd <main+0x4c7>
    25da: 4c 74 27     	jmp	$2774 <main+0x65e>
    25dd: 4c 6b 27     	jmp	$276b <main+0x655>
    25e0: 8a           	txa
    25e1: 29 bf        	and	#$bf
    25e3: a8           	tay
    25e4: 18           	clc
    25e5: a5 04        	lda	$4                      ; 0x4 <__rc2>
    25e7: 69 04        	adc	#$4
    25e9: 85 07        	sta	$7                      ; 0x7 <__rc5>
    25eb: 18           	clc
    25ec: a5 04        	lda	$4                      ; 0x4 <__rc2>
    25ee: 69 05        	adc	#$5
    25f0: aa           	tax
    25f1: c0 10        	cpy	#$10
    25f3: f0 03        	beq	$25f8 <main+0x4e2>
    25f5: 4c 90 27     	jmp	$2790 <main+0x67a>
    25f8: 4c 7d 27     	jmp	$277d <main+0x667>
    25fb: a6 06        	ldx	$6                      ; 0x6 <__rc4>
    25fd: 9d 08 71     	sta	$7108,x                 ; 0x7108 <s>
    2600: a9 45        	lda	#$45
    2602: 99 08 71     	sta	$7108,y                 ; 0x7108 <s>
    2605: a9 4c        	lda	#$4c
    2607: a6 04        	ldx	$4                      ; 0x4 <__rc2>
    2609: 9d 08 71     	sta	$7108,x                 ; 0x7108 <s>
    260c: 18           	clc
    260d: a5 05        	lda	$5                      ; 0x5 <__rc3>
    260f: 69 06        	adc	#$6
    2611: aa           	tax
    2612: 18           	clc
    2613: a5 05        	lda	$5                      ; 0x5 <__rc3>
    2615: 69 07        	adc	#$7
    2617: a8           	tay
    2618: a9 20        	lda	#$20
    261a: 9d 08 71     	sta	$7108,x                 ; 0x7108 <s>
    261d: 18           	clc
    261e: a5 05        	lda	$5                      ; 0x5 <__rc3>
    2620: 69 08        	adc	#$8
    2622: aa           	tax
    2623: a9 5d        	lda	#$5d
    2625: 99 08 71     	sta	$7108,y                 ; 0x7108 <s>
    2628: 18           	clc
    2629: a5 05        	lda	$5                      ; 0x5 <__rc3>
    262b: 69 09        	adc	#$9
    262d: a8           	tay
    262e: a9 20        	lda	#$20
    2630: 9d 08 71     	sta	$7108,x                 ; 0x7108 <s>
    2633: 5a           	phy
    2634: fa           	plx
    2635: 9e 08 71     	stz	$7108,x                 ; 0x7108 <s>
    2638: a2 07        	ldx	#$7
    263a: 86 04        	stx	$4                      ; 0x4 <__rc2>
    263c: a9 01        	lda	#$1
    263e: a4 1e        	ldy	$1e                     ; 0x1e <__rc28>
    2640: 31 1c        	and	($1c),y                 ; 0x1c <__rc26>
    2642: 29 01        	and	#$1
    2644: d0 0f        	bne	$2655 <main+0x53f>
    2646: a0 02        	ldy	#$2
    2648: b1 16        	lda	($16),y                 ; 0x16 <__rc20>
    264a: d0 03        	bne	$264f <main+0x539>
    264c: 4c ae 27     	jmp	$27ae <main+0x698>
    264f: a2 03        	ldx	#$3
    2651: 86 04        	stx	$4                      ; 0x4 <__rc2>
    2653: a4 1e        	ldy	$1e                     ; 0x1e <__rc28>
    2655: a9 f0        	lda	#$f0
    2657: 25 2b        	and	$2b                     ; 0x2b <g_curTextColor>
    2659: 05 04        	ora	$4                      ; 0x4 <__rc2>
    265b: a6 1b        	ldx	$1b                     ; 0x1b <__rc25>
    265d: d0 13        	bne	$2672 <main+0x55c>
    265f: 48           	pha
    2660: 5a           	phy
    2661: a0 1d        	ldy	#$1d
    2663: b1 02        	lda	($2),y                  ; 0x2 <__rc0>
    2665: 7a           	ply
    2666: 85 04        	sta	$4                      ; 0x4 <__rc2>
    2668: 68           	pla
    2669: a6 19        	ldx	$19                     ; 0x19 <__rc23>
    266b: e4 04        	cpx	$4                      ; 0x4 <__rc2>
    266d: d0 03        	bne	$2672 <main+0x55c>
    266f: 4c 9f 27     	jmp	$279f <main+0x689>
    2672: 29 df        	and	#$df
    2674: 85 2b        	sta	$2b                     ; 0x2b <g_curTextColor>
    2676: c8           	iny
    2677: a2 08        	ldx	#$8
    2679: 86 04        	stx	$4                      ; 0x4 <__rc2>
    267b: a2 71        	ldx	#$71
    267d: 86 05        	stx	$5                      ; 0x5 <__rc3>
    267f: 84 1e        	sty	$1e                     ; 0x1e <__rc28>
    2681: 5a           	phy
    2682: fa           	plx
    2683: a0 1a        	ldy	#$1a
    2685: b1 02        	lda	($2),y                  ; 0x2 <__rc0>
    2687: 20 cb 5e     	jsr	$5ecb <cputsxy>
    268a: a5 16        	lda	$16                     ; 0x16 <__rc20>
    268c: 18           	clc
    268d: 69 1e        	adc	#$1e
    268f: 85 04        	sta	$4                      ; 0x4 <__rc2>
    2691: a5 17        	lda	$17                     ; 0x17 <__rc21>
    2693: 69 00        	adc	#$0
    2695: 85 05        	sta	$5                      ; 0x5 <__rc3>
    2697: a0 1e        	ldy	#$1e
    2699: b1 16        	lda	($16),y                 ; 0x16 <__rc20>
    269b: 85 06        	sta	$6                      ; 0x6 <__rc4>
    269d: a0 01        	ldy	#$1
    269f: b1 04        	lda	($4),y                  ; 0x4 <__rc2>
    26a1: d0 07        	bne	$26aa <main+0x594>
    26a3: a6 06        	ldx	$6                      ; 0x6 <__rc4>
    26a5: d0 03        	bne	$26aa <main+0x594>
    26a7: 4c 28 2e     	jmp	$2e28 <main+0xd12>
    26aa: a4 06        	ldy	$6                      ; 0x6 <__rc4>
    26ac: 64 04        	stz	$4                      ; 0x4 <__rc2>
    26ae: 64 05        	stz	$5                      ; 0x5 <__rc3>
    26b0: a2 05        	ldx	#$5
    26b2: 86 06        	stx	$6                      ; 0x6 <__rc4>
    26b4: aa           	tax
    26b5: 98           	tya
    26b6: 20 49 4d     	jsr	$4d49 <csputdec>
    26b9: a5 1b        	lda	$1b                     ; 0x1b <__rc25>
    26bb: d0 0f        	bne	$26cc <main+0x5b6>
    26bd: a0 1d        	ldy	#$1d
    26bf: b1 02        	lda	($2),y                  ; 0x2 <__rc0>
    26c1: 85 04        	sta	$4                      ; 0x4 <__rc2>
    26c3: a6 19        	ldx	$19                     ; 0x19 <__rc23>
    26c5: e4 04        	cpx	$4                      ; 0x4 <__rc2>
    26c7: d0 03        	bne	$26cc <main+0x5b6>
    26c9: 4c a9 27     	jmp	$27a9 <main+0x693>
    26cc: a9 01        	lda	#$1
    26ce: 29 01        	and	#$1
    26d0: 85 16        	sta	$16                     ; 0x16 <__rc20>
    26d2: a9 20        	lda	#$20
    26d4: 20 1a 5e     	jsr	$5e1a <cputc>
    26d7: a9 20        	lda	#$20
    26d9: a6 16        	ldx	$16                     ; 0x16 <__rc20>
    26db: d0 02        	bne	$26df <main+0x5c9>
    26dd: a9 3c        	lda	#$3c
    26df: 20 1a 5e     	jsr	$5e1a <cputc>
    26e2: a9 f0        	lda	#$f0
    26e4: 25 2b        	and	$2b                     ; 0x2b <g_curTextColor>
    26e6: 09 03        	ora	#$3
    26e8: 85 2b        	sta	$2b                     ; 0x2b <g_curTextColor>
    26ea: 4c 9c 24     	jmp	$249c <main+0x386>
    26ed: a5 2b        	lda	$2b                     ; 0x2b <g_curTextColor>
    26ef: 29 df        	and	#$df
    26f1: 85 2b        	sta	$2b                     ; 0x2b <g_curTextColor>
    26f3: 4c 30 27     	jmp	$2730 <main+0x61a>
    26f6: 18           	clc
    26f7: a5 19        	lda	$19                     ; 0x19 <__rc23>
    26f9: 69 11        	adc	#$11
    26fb: a2 78        	ldx	#$78
    26fd: 86 04        	stx	$4                      ; 0x4 <__rc2>
    26ff: a2 67        	ldx	#$67
    2701: 86 05        	stx	$5                      ; 0x5 <__rc3>
    2703: a2 03        	ldx	#$3
    2705: 20 cc 4e     	jsr	$4ecc <mcputsxy>
    2708: a4 1f        	ldy	$1f                     ; 0x1f <__rc29>
    270a: a5 18        	lda	$18                     ; 0x18 <__rc22>
    270c: d0 22        	bne	$2730 <main+0x61a>
    270e: a6 20        	ldx	$20                     ; 0x20 <__rc30>
    2710: 5a           	phy
    2711: a0 1c        	ldy	#$1c
    2713: b1 02        	lda	($2),y                  ; 0x2 <__rc0>
    2715: 7a           	ply
    2716: 85 04        	sta	$4                      ; 0x4 <__rc2>
    2718: e4 04        	cpx	$4                      ; 0x4 <__rc2>
    271a: d0 14        	bne	$2730 <main+0x61a>
    271c: 18           	clc
    271d: a5 19        	lda	$19                     ; 0x19 <__rc23>
    271f: 69 0c        	adc	#$c
    2721: a2 16        	ldx	#$16
    2723: 86 04        	stx	$4                      ; 0x4 <__rc2>
    2725: a2 6b        	ldx	#$6b
    2727: 86 05        	stx	$5                      ; 0x5 <__rc3>
    2729: a2 05        	ldx	#$5
    272b: 20 cc 4e     	jsr	$4ecc <mcputsxy>
    272e: a4 1f        	ldy	$1f                     ; 0x1f <__rc29>
    2730: 18           	clc
    2731: a5 21        	lda	$21                     ; 0x21 <__rc31>
    2733: 69 02        	adc	#$2
    2735: 85 21        	sta	$21                     ; 0x21 <__rc31>
    2737: 18           	clc
    2738: 5a           	phy
    2739: a0 21        	ldy	#$21
    273b: b1 02        	lda	($2),y                  ; 0x2 <__rc0>
    273d: 69 11        	adc	#$11
    273f: 91 02        	sta	($2),y                  ; 0x2 <__rc0>
    2741: 7a           	ply
    2742: 84 04        	sty	$4                      ; 0x4 <__rc2>
    2744: a9 c8        	lda	#$c8
    2746: 18           	clc
    2747: 65 04        	adc	$4                      ; 0x4 <__rc2>
    2749: 85 16        	sta	$16                     ; 0x16 <__rc20>
    274b: a9 71        	lda	#$71
    274d: 69 00        	adc	#$0
    274f: 85 17        	sta	$17                     ; 0x17 <__rc21>
    2751: a5 1f        	lda	$1f                     ; 0x1f <__rc29>
    2753: 18           	clc
    2754: 69 70        	adc	#$70
    2756: e6 20        	inc	$20                     ; 0x20 <__rc30>
    2758: f0 03        	beq	$275d <main+0x647>
    275a: 4c 18 23     	jmp	$2318 <main+0x202>
    275d: e6 18        	inc	$18                     ; 0x18 <__rc22>
    275f: 4c 18 23     	jmp	$2318 <main+0x202>
    2762: a9 00        	lda	#$0
    2764: 4c 1d 25     	jmp	$251d <main+0x407>
    2767: ca           	dex
    2768: 4c d4 25     	jmp	$25d4 <main+0x4be>
    276b: c9 05        	cmp	#$5
    276d: 90 09        	bcc	$2778 <main+0x662>
    276f: a9 44        	lda	#$44
    2771: 4c fb 25     	jmp	$25fb <main+0x4e5>
    2774: e0 00        	cpx	#$0
    2776: b0 f7        	bcs	$276f <main+0x659>
    2778: 0a           	asl
    2779: aa           	tax
    277a: 7c b5 66     	jmp	($66b5,x)               ; 0x66b5 <__zp_data_load_start+0x469e>
    277d: a9 44        	lda	#$44
    277f: a4 06        	ldy	$6                      ; 0x6 <__rc4>
    2781: 99 08 71     	sta	$7108,y                 ; 0x7108 <s>
    2784: a9 49        	lda	#$49
    2786: a4 07        	ldy	$7                      ; 0x7 <__rc5>
    2788: 99 08 71     	sta	$7108,y                 ; 0x7108 <s>
    278b: a9 52        	lda	#$52
    278d: 4c 09 26     	jmp	$2609 <main+0x4f3>
    2790: a9 20        	lda	#$20
    2792: a4 06        	ldy	$6                      ; 0x6 <__rc4>
    2794: 99 08 71     	sta	$7108,y                 ; 0x7108 <s>
    2797: a4 07        	ldy	$7                      ; 0x7 <__rc5>
    2799: 99 08 71     	sta	$7108,y                 ; 0x7108 <s>
    279c: 4c 09 26     	jmp	$2609 <main+0x4f3>
    279f: a6 18        	ldx	$18                     ; 0x18 <__rc22>
    27a1: f0 03        	beq	$27a6 <main+0x690>
    27a3: 4c 72 26     	jmp	$2672 <main+0x55c>
    27a6: 4c 36 2e     	jmp	$2e36 <main+0xd20>
    27a9: a9 00        	lda	#$0
    27ab: 4c ce 26     	jmp	$26ce <main+0x5b8>
    27ae: a2 0c        	ldx	#$c
    27b0: 4c 51 26     	jmp	$2651 <main+0x53b>
    27b3: a9 00        	lda	#$0
    27b5: 48           	pha
    27b6: a0 1c        	ldy	#$1c
    27b8: b1 02        	lda	($2),y                  ; 0x2 <__rc0>
    27ba: 85 1d        	sta	$1d                     ; 0x1d <__rc27>
    27bc: 68           	pla
    27bd: a6 04        	ldx	$4                      ; 0x4 <__rc2>
    27bf: 86 1c        	stx	$1c                     ; 0x1c <__rc26>
    27c1: a6 1d        	ldx	$1d                     ; 0x1d <__rc27>
    27c3: 20 55 52     	jsr	$5255 <shortcuts>
    27c6: a0 01        	ldy	#$1
    27c8: ae 10 d6     	ldx	$d610                   ; 0xd610 <__heap_start+0x60b8>
    27cb: d0 0b        	bne	$27d8 <main+0x6c2>
    27cd: ad 11 d6     	lda	$d611                   ; 0xd611 <__heap_start+0x60b9>
    27d0: 85 04        	sta	$4                      ; 0x4 <__rc2>
    27d2: c5 1c        	cmp	$1c                     ; 0x1c <__rc26>
    27d4: f0 f2        	beq	$27c8 <main+0x6b2>
    27d6: 80 e5        	bra	$27bd <main+0x6a7>
    27d8: 86 16        	stx	$16                     ; 0x16 <__rc20>
    27da: 8a           	txa
    27db: 38           	sec
    27dc: e9 f1        	sbc	#$f1
    27de: 85 07        	sta	$7                      ; 0x7 <__rc5>
    27e0: a5 1c        	lda	$1c                     ; 0x1c <__rc26>
    27e2: a2 01        	ldx	#$1
    27e4: b0 02        	bcs	$27e8 <main+0x6d2>
    27e6: a2 00        	ldx	#$0
    27e8: 86 06        	stx	$6                      ; 0x6 <__rc4>
    27ea: e9 00        	sbc	#$0
    27ec: 85 08        	sta	$8                      ; 0x8 <__rc6>
    27ee: a6 1d        	ldx	$1d                     ; 0x1d <__rc27>
    27f0: 86 19        	stx	$19                     ; 0x19 <__rc23>
    27f2: 06 19        	asl	$19                     ; 0x19 <__rc23>
    27f4: 64 18        	stz	$18                     ; 0x18 <__rc22>
    27f6: 26 18        	rol	$18                     ; 0x18 <__rc22>
    27f8: a2 01        	ldx	#$1
    27fa: b0 02        	bcs	$27fe <main+0x6e8>
    27fc: a2 00        	ldx	#$0
    27fe: 86 17        	stx	$17                     ; 0x17 <__rc21>
    2800: a6 19        	ldx	$19                     ; 0x19 <__rc23>
    2802: 86 1b        	stx	$1b                     ; 0x1b <__rc25>
    2804: 06 1b        	asl	$1b                     ; 0x1b <__rc25>
    2806: a6 18        	ldx	$18                     ; 0x18 <__rc22>
    2808: 86 1a        	stx	$1a                     ; 0x1a <__zp_bss_size>
    280a: 26 1a        	rol	$1a                     ; 0x1a <__zp_bss_size>
    280c: a6 1d        	ldx	$1d                     ; 0x1d <__rc27>
    280e: a9 01        	lda	#$1
    2810: b0 02        	bcs	$2814 <main+0x6fe>
    2812: a9 00        	lda	#$0
    2814: 85 1e        	sta	$1e                     ; 0x1e <__rc28>
    2816: 06 1b        	asl	$1b                     ; 0x1b <__rc25>
    2818: 26 1a        	rol	$1a                     ; 0x1a <__zp_bss_size>
    281a: a9 01        	lda	#$1
    281c: b0 02        	bcs	$2820 <main+0x70a>
    281e: a9 00        	lda	#$0
    2820: 85 21        	sta	$21                     ; 0x21 <__rc31>
    2822: a5 1b        	lda	$1b                     ; 0x1b <__rc25>
    2824: 85 1d        	sta	$1d                     ; 0x1d <__rc27>
    2826: a5 1a        	lda	$1a                     ; 0x1a <__zp_bss_size>
    2828: 85 1f        	sta	$1f                     ; 0x1f <__rc29>
    282a: 06 1b        	asl	$1b                     ; 0x1b <__rc25>
    282c: 26 1a        	rol	$1a                     ; 0x1a <__zp_bss_size>
    282e: a5 1b        	lda	$1b                     ; 0x1b <__rc25>
    2830: 85 20        	sta	$20                     ; 0x20 <__rc30>
    2832: a5 1a        	lda	$1a                     ; 0x1a <__zp_bss_size>
    2834: 06 20        	asl	$20                     ; 0x20 <__rc30>
    2836: 2a           	rol
    2837: 06 20        	asl	$20                     ; 0x20 <__rc30>
    2839: 2a           	rol
    283a: 06 20        	asl	$20                     ; 0x20 <__rc30>
    283c: 2a           	rol
    283d: 5a           	phy
    283e: a0 1f        	ldy	#$1f
    2840: 91 02        	sta	($2),y                  ; 0x2 <__rc0>
    2842: 9c 10 d6     	stz	$d610                   ; 0xd610 <__heap_start+0x60b8>
    2845: 64 30        	stz	$30                     ; 0x30 <g_curX>
    2847: 64 31        	stz	$31                     ; 0x31 <g_curY>
    2849: 9c 20 d0     	stz	$d020                   ; 0xd020 <__heap_start+0x5ac8>
    284c: 8a           	txa
    284d: a0 1c        	ldy	#$1c
    284f: 91 02        	sta	($2),y                  ; 0x2 <__rc0>
    2851: 49 01        	eor	#$1
    2853: a0 21        	ldy	#$21
    2855: 91 02        	sta	($2),y                  ; 0x2 <__rc0>
    2857: 7a           	ply
    2858: a5 08        	lda	$8                      ; 0x8 <__rc6>
    285a: f0 03        	beq	$285f <main+0x749>
    285c: 4c 12 2a     	jmp	$2a12 <main+0x8fc>
    285f: a5 07        	lda	$7                      ; 0x7 <__rc5>
    2861: c9 19        	cmp	#$19
    2863: 90 03        	bcc	$2868 <main+0x752>
    2865: 4c 1d 2a     	jmp	$2a1d <main+0x907>
    2868: 0a           	asl
    2869: aa           	tax
    286a: 7c cb 66     	jmp	($66cb,x)               ; 0x66cb <__zp_data_load_start+0x46b4>
    286d: a2 00        	ldx	#$0
    286f: a9 14        	lda	#$14
    2871: 20 55 52     	jsr	$5255 <shortcuts>
    2874: 64 17        	stz	$17                     ; 0x17 <__rc21>
    2876: a0 1c        	ldy	#$1c
    2878: b1 02        	lda	($2),y                  ; 0x2 <__rc0>
    287a: 85 16        	sta	$16                     ; 0x16 <__rc20>
    287c: 4c be 28     	jmp	$28be <main+0x7a8>
    287f: e6 17        	inc	$17                     ; 0x17 <__rc21>
    2881: 4c be 28     	jmp	$28be <main+0x7a8>
    2884: 20 d3 5d     	jsr	$5dd3 <sidbong>
    2887: a2 a2        	ldx	#$a2
    2889: 86 04        	stx	$4                      ; 0x4 <__rc2>
    288b: a2 6b        	ldx	#$6b
    288d: 86 05        	stx	$5                      ; 0x5 <__rc3>
    288f: a2 88        	ldx	#$88
    2891: 86 06        	stx	$6                      ; 0x6 <__rc4>
    2893: a2 6d        	ldx	#$6d
    2895: 86 07        	stx	$7                      ; 0x7 <__rc5>
    2897: a2 5c        	ldx	#$5c
    2899: 86 08        	stx	$8                      ; 0x8 <__rc6>
    289b: a2 69        	ldx	#$69
    289d: 86 09        	stx	$9                      ; 0x9 <__rc7>
    289f: a9 00        	lda	#$0
    28a1: 20 6d 50     	jsr	$506d <messagebox>
    28a4: 80 18        	bra	$28be <main+0x7a8>
    28a6: 64 17        	stz	$17                     ; 0x17 <__rc21>
    28a8: a5 1a        	lda	$1a                     ; 0x1a <__zp_bss_size>
    28aa: f0 12        	beq	$28be <main+0x7a8>
    28ac: a6 1a        	ldx	$1a                     ; 0x1a <__zp_bss_size>
    28ae: ca           	dex
    28af: 86 17        	stx	$17                     ; 0x17 <__rc21>
    28b1: 80 0b        	bra	$28be <main+0x7a8>
    28b3: a6 17        	ldx	$17                     ; 0x17 <__rc21>
    28b5: a9 01        	lda	#$1
    28b7: 20 0d 62     	jsr	$620d <__ashlqi3>
    28ba: 45 2d        	eor	$2d                     ; 0x2d <option.0>
    28bc: 85 2d        	sta	$2d                     ; 0x2d <option.0>
    28be: a2 46        	ldx	#$46
    28c0: 86 04        	stx	$4                      ; 0x4 <__rc2>
    28c2: a2 14        	ldx	#$14
    28c4: 86 05        	stx	$5                      ; 0x5 <__rc3>
    28c6: a2 01        	ldx	#$1
    28c8: 86 06        	stx	$6                      ; 0x6 <__rc4>
    28ca: a2 04        	ldx	#$4
    28cc: a9 0a        	lda	#$a
    28ce: 20 e2 4e     	jsr	$4ee2 <mcbox>
    28d1: a9 20        	lda	#$20
    28d3: 05 2b        	ora	$2b                     ; 0x2b <g_curTextColor>
    28d5: 85 2b        	sta	$2b                     ; 0x2b <g_curTextColor>
    28d7: a2 08        	ldx	#$8
    28d9: 86 04        	stx	$4                      ; 0x4 <__rc2>
    28db: a2 68        	ldx	#$68
    28dd: 86 05        	stx	$5                      ; 0x5 <__rc3>
    28df: a2 04        	ldx	#$4
    28e1: a9 0e        	lda	#$e
    28e3: 20 cc 4e     	jsr	$4ecc <mcputsxy>
    28e6: a2 a4        	ldx	#$a4
    28e8: 86 04        	stx	$4                      ; 0x4 <__rc2>
    28ea: a2 6a        	ldx	#$6a
    28ec: 86 05        	stx	$5                      ; 0x5 <__rc3>
    28ee: a2 04        	ldx	#$4
    28f0: a9 1f        	lda	#$1f
    28f2: 20 cc 4e     	jsr	$4ecc <mcputsxy>
    28f5: a2 65        	ldx	#$65
    28f7: 86 04        	stx	$4                      ; 0x4 <__rc2>
    28f9: a2 6b        	ldx	#$6b
    28fb: 86 05        	stx	$5                      ; 0x5 <__rc3>
    28fd: a2 04        	ldx	#$4
    28ff: a9 28        	lda	#$28
    2901: 20 cc 4e     	jsr	$4ecc <mcputsxy>
    2904: a9 df        	lda	#$df
    2906: 25 2b        	and	$2b                     ; 0x2b <g_curTextColor>
    2908: 85 2b        	sta	$2b                     ; 0x2b <g_curTextColor>
    290a: a2 ac        	ldx	#$ac
    290c: 86 04        	stx	$4                      ; 0x4 <__rc2>
    290e: a2 6a        	ldx	#$6a
    2910: 86 05        	stx	$5                      ; 0x5 <__rc3>
    2912: a2 10        	ldx	#$10
    2914: a9 17        	lda	#$17
    2916: 20 cc 4e     	jsr	$4ecc <mcputsxy>
    2919: a9 20        	lda	#$20
    291b: 05 2b        	ora	$2b                     ; 0x2b <g_curTextColor>
    291d: 85 2b        	sta	$2b                     ; 0x2b <g_curTextColor>
    291f: a2 0d        	ldx	#$d
    2921: 86 04        	stx	$4                      ; 0x4 <__rc2>
    2923: a2 6a        	ldx	#$6a
    2925: 86 05        	stx	$5                      ; 0x5 <__rc3>
    2927: a2 12        	ldx	#$12
    2929: a9 24        	lda	#$24
    292b: 20 cc 4e     	jsr	$4ecc <mcputsxy>
    292e: a9 df        	lda	#$df
    2930: 25 2b        	and	$2b                     ; 0x2b <g_curTextColor>
    2932: 85 2b        	sta	$2b                     ; 0x2b <g_curTextColor>
    2934: a6 17        	ldx	$17                     ; 0x17 <__rc21>
    2936: e0 05        	cpx	#$5
    2938: 90 02        	bcc	$293c <main+0x826>
    293a: a2 04        	ldx	#$4
    293c: a5 2d        	lda	$2d                     ; 0x2d <option.0>
    293e: a0 80        	ldy	#$80
    2940: 84 04        	sty	$4                      ; 0x4 <__rc2>
    2942: a0 69        	ldy	#$69
    2944: 84 05        	sty	$5                      ; 0x5 <__rc3>
    2946: 86 06        	stx	$6                      ; 0x6 <__rc4>
    2948: 64 07        	stz	$7                      ; 0x7 <__rc5>
    294a: 86 17        	stx	$17                     ; 0x17 <__rc21>
    294c: a2 01        	ldx	#$1
    294e: 20 dd 55     	jsr	$55dd <optionstring>
    2951: a5 2d        	lda	$2d                     ; 0x2d <option.0>
    2953: a2 4c        	ldx	#$4c
    2955: 86 04        	stx	$4                      ; 0x4 <__rc2>
    2957: a2 6e        	ldx	#$6e
    2959: 86 05        	stx	$5                      ; 0x5 <__rc3>
    295b: a6 17        	ldx	$17                     ; 0x17 <__rc21>
    295d: 86 06        	stx	$6                      ; 0x6 <__rc4>
    295f: a2 01        	ldx	#$1
    2961: 86 07        	stx	$7                      ; 0x7 <__rc5>
    2963: e8           	inx
    2964: 20 dd 55     	jsr	$55dd <optionstring>
    2967: a5 2d        	lda	$2d                     ; 0x2d <option.0>
    2969: a2 3e        	ldx	#$3e
    296b: 86 04        	stx	$4                      ; 0x4 <__rc2>
    296d: a2 69        	ldx	#$69
    296f: 86 05        	stx	$5                      ; 0x5 <__rc3>
    2971: 48           	pha
    2972: a5 04        	lda	$4                      ; 0x4 <__rc2>
    2974: a0 21        	ldy	#$21
    2976: 91 02        	sta	($2),y                  ; 0x2 <__rc0>
    2978: a5 05        	lda	$5                      ; 0x5 <__rc3>
    297a: c8           	iny
    297b: 91 02        	sta	($2),y                  ; 0x2 <__rc0>
    297d: 88           	dey
    297e: b1 02        	lda	($2),y                  ; 0x2 <__rc0>
    2980: 85 04        	sta	$4                      ; 0x4 <__rc2>
    2982: c8           	iny
    2983: b1 02        	lda	($2),y                  ; 0x2 <__rc0>
    2985: 85 05        	sta	$5                      ; 0x5 <__rc3>
    2987: 68           	pla
    2988: a6 17        	ldx	$17                     ; 0x17 <__rc21>
    298a: 86 06        	stx	$6                      ; 0x6 <__rc4>
    298c: a2 02        	ldx	#$2
    298e: 86 07        	stx	$7                      ; 0x7 <__rc5>
    2990: a2 04        	ldx	#$4
    2992: 20 dd 55     	jsr	$55dd <optionstring>
    2995: a5 2d        	lda	$2d                     ; 0x2d <option.0>
    2997: 48           	pha
    2998: a0 21        	ldy	#$21
    299a: b1 02        	lda	($2),y                  ; 0x2 <__rc0>
    299c: 85 04        	sta	$4                      ; 0x4 <__rc2>
    299e: c8           	iny
    299f: b1 02        	lda	($2),y                  ; 0x2 <__rc0>
    29a1: 85 05        	sta	$5                      ; 0x5 <__rc3>
    29a3: 68           	pla
    29a4: a6 17        	ldx	$17                     ; 0x17 <__rc21>
    29a6: 86 06        	stx	$6                      ; 0x6 <__rc4>
    29a8: a2 03        	ldx	#$3
    29aa: 86 07        	stx	$7                      ; 0x7 <__rc5>
    29ac: a2 08        	ldx	#$8
    29ae: 20 dd 55     	jsr	$55dd <optionstring>
    29b1: a5 2d        	lda	$2d                     ; 0x2d <option.0>
    29b3: 48           	pha
    29b4: a0 21        	ldy	#$21
    29b6: b1 02        	lda	($2),y                  ; 0x2 <__rc0>
    29b8: 85 04        	sta	$4                      ; 0x4 <__rc2>
    29ba: c8           	iny
    29bb: b1 02        	lda	($2),y                  ; 0x2 <__rc0>
    29bd: 85 05        	sta	$5                      ; 0x5 <__rc3>
    29bf: 68           	pla
    29c0: a6 17        	ldx	$17                     ; 0x17 <__rc21>
    29c2: 86 1a        	stx	$1a                     ; 0x1a <__zp_bss_size>
    29c4: a6 17        	ldx	$17                     ; 0x17 <__rc21>
    29c6: 86 06        	stx	$6                      ; 0x6 <__rc4>
    29c8: a2 04        	ldx	#$4
    29ca: 86 07        	stx	$7                      ; 0x7 <__rc5>
    29cc: a2 10        	ldx	#$10
    29ce: 20 dd 55     	jsr	$55dd <optionstring>
    29d1: 20 50 60     	jsr	$6050 <cgetc>
    29d4: c9 91        	cmp	#$91
    29d6: d0 03        	bne	$29db <main+0x8c5>
    29d8: 4c a6 28     	jmp	$28a6 <main+0x790>
    29db: c9 9d        	cmp	#$9d
    29dd: d0 03        	bne	$29e2 <main+0x8cc>
    29df: 4c a6 28     	jmp	$28a6 <main+0x790>
    29e2: c9 03        	cmp	#$3
    29e4: d0 03        	bne	$29e9 <main+0x8d3>
    29e6: 4c 84 28     	jmp	$2884 <main+0x76e>
    29e9: c9 11        	cmp	#$11
    29eb: d0 03        	bne	$29f0 <main+0x8da>
    29ed: 4c 7f 28     	jmp	$287f <main+0x769>
    29f0: c9 1b        	cmp	#$1b
    29f2: d0 03        	bne	$29f7 <main+0x8e1>
    29f4: 4c 84 28     	jmp	$2884 <main+0x76e>
    29f7: c9 1d        	cmp	#$1d
    29f9: d0 03        	bne	$29fe <main+0x8e8>
    29fb: 4c 7f 28     	jmp	$287f <main+0x769>
    29fe: c9 20        	cmp	#$20
    2a00: d0 03        	bne	$2a05 <main+0x8ef>
    2a02: 4c b3 28     	jmp	$28b3 <main+0x79d>
    2a05: c9 0d        	cmp	#$d
    2a07: d0 03        	bne	$2a0c <main+0x8f6>
    2a09: 4c ac 39     	jmp	$39ac <main+0x1896>
    2a0c: 20 d3 5d     	jsr	$5dd3 <sidbong>
    2a0f: 4c be 28     	jmp	$28be <main+0x7a8>
    2a12: a6 08        	ldx	$8                      ; 0x8 <__rc6>
    2a14: e0 00        	cpx	#$0
    2a16: a5 07        	lda	$7                      ; 0x7 <__rc5>
    2a18: b0 03        	bcs	$2a1d <main+0x907>
    2a1a: 4c 68 28     	jmp	$2868 <main+0x752>
    2a1d: aa           	tax
    2a1e: a5 1c        	lda	$1c                     ; 0x1c <__rc26>
    2a20: 5a           	phy
    2a21: a4 06        	ldy	$6                      ; 0x6 <__rc4>
    2a23: c0 01        	cpy	#$1
    2a25: 7a           	ply
    2a26: e9 01        	sbc	#$1
    2a28: f0 03        	beq	$2a2d <main+0x917>
    2a2a: 4c b6 2a     	jmp	$2ab6 <main+0x9a0>
    2a2d: e0 0a        	cpx	#$a
    2a2f: b0 03        	bcs	$2a34 <main+0x91e>
    2a31: 4c bd 2a     	jmp	$2abd <main+0x9a7>
    2a34: a5 1c        	lda	$1c                     ; 0x1c <__rc26>
    2a36: 5a           	phy
    2a37: a4 06        	ldy	$6                      ; 0x6 <__rc4>
    2a39: c0 01        	cpy	#$1
    2a3b: 7a           	ply
    2a3c: e9 02        	sbc	#$2
    2a3e: f0 03        	beq	$2a43 <main+0x92d>
    2a40: 4c 4e 2e     	jmp	$2e4e <main+0xd38>
    2a43: 8a           	txa
    2a44: e0 0a        	cpx	#$a
    2a46: b0 03        	bcs	$2a4b <main+0x935>
    2a48: 4c 56 2e     	jmp	$2e56 <main+0xd40>
    2a4b: a5 16        	lda	$16                     ; 0x16 <__rc20>
    2a4d: 38           	sec
    2a4e: e9 1b        	sbc	#$1b
    2a50: aa           	tax
    2a51: a5 1c        	lda	$1c                     ; 0x1c <__rc26>
    2a53: e9 00        	sbc	#$0
    2a55: f0 03        	beq	$2a5a <main+0x944>
    2a57: 4c 36 2f     	jmp	$2f36 <main+0xe20>
    2a5a: 8a           	txa
    2a5b: e0 06        	cpx	#$6
    2a5d: b0 03        	bcs	$2a62 <main+0x94c>
    2a5f: 4c 3e 2f     	jmp	$2f3e <main+0xe28>
    2a62: a5 1c        	lda	$1c                     ; 0x1c <__rc26>
    2a64: d0 09        	bne	$2a6f <main+0x959>
    2a66: a6 16        	ldx	$16                     ; 0x16 <__rc20>
    2a68: e0 03        	cpx	#$3
    2a6a: d0 03        	bne	$2a6f <main+0x959>
    2a6c: 4c 43 2f     	jmp	$2f43 <main+0xe2d>
    2a6f: a5 1c        	lda	$1c                     ; 0x1c <__rc26>
    2a71: d0 09        	bne	$2a7c <main+0x966>
    2a73: a6 16        	ldx	$16                     ; 0x16 <__rc20>
    2a75: e0 09        	cpx	#$9
    2a77: d0 03        	bne	$2a7c <main+0x966>
    2a79: 4c cb 3d     	jmp	$3dcb <donehyp1att0+0x168>
    2a7c: a6 16        	ldx	$16                     ; 0x16 <__rc20>
    2a7e: a5 1c        	lda	$1c                     ; 0x1c <__rc26>
    2a80: d0 0f        	bne	$2a91 <main+0x97b>
    2a82: 5a           	phy
    2a83: a0 1c        	ldy	#$1c
    2a85: b1 02        	lda	($2),y                  ; 0x2 <__rc0>
    2a87: 7a           	ply
    2a88: 85 1d        	sta	$1d                     ; 0x1d <__rc27>
    2a8a: e0 0d        	cpx	#$d
    2a8c: d0 03        	bne	$2a91 <main+0x97b>
    2a8e: 4c f5 3b     	jmp	$3bf5 <main+0x1adf>
    2a91: a5 1c        	lda	$1c                     ; 0x1c <__rc26>
    2a93: d0 07        	bne	$2a9c <main+0x986>
    2a95: e0 11        	cpx	#$11
    2a97: d0 03        	bne	$2a9c <main+0x986>
    2a99: 4c 94 3c     	jmp	$3c94 <donehyp1att0+0x31>
    2a9c: a5 1c        	lda	$1c                     ; 0x1c <__rc26>
    2a9e: d0 03        	bne	$2aa3 <main+0x98d>
    2aa0: 4c eb 3b     	jmp	$3beb <main+0x1ad5>
    2aa3: a5 16        	lda	$16                     ; 0x16 <__rc20>
    2aa5: a6 1c        	ldx	$1c                     ; 0x1c <__rc26>
    2aa7: d0 03        	bne	$2aac <main+0x996>
    2aa9: 4c 7c 3c     	jmp	$3c7c <donehyp1att0+0x19>
    2aac: a6 1c        	ldx	$1c                     ; 0x1c <__rc26>
    2aae: f0 03        	beq	$2ab3 <main+0x99d>
    2ab0: 4c 28 3d     	jmp	$3d28 <donehyp1att0+0xc5>
    2ab3: 4c 21 3d     	jmp	$3d21 <donehyp1att0+0xbe>
    2ab6: c9 00        	cmp	#$0
    2ab8: 90 03        	bcc	$2abd <main+0x9a7>
    2aba: 4c 34 2a     	jmp	$2a34 <main+0x91e>
    2abd: 8a           	txa
    2abe: 0a           	asl
    2abf: aa           	tax
    2ac0: 7c fd 66     	jmp	($66fd,x)               ; 0x66fd <__zp_data_load_start+0x46e6>
    2ac3: c0 70        	cpy	#$70
    2ac5: d0 03        	bne	$2aca <main+0x9b4>
    2ac7: 4c 86 3c     	jmp	$3c86 <donehyp1att0+0x23>
    2aca: a9 01        	lda	#$1
    2acc: 31 18        	and	($18),y                 ; 0x18 <__rc22>
    2ace: d0 03        	bne	$2ad3 <main+0x9bd>
    2ad0: 4c 9c 2c     	jmp	$2c9c <main+0xb86>
    2ad3: 98           	tya
    2ad4: 5a           	phy
    2ad5: a0 21        	ldy	#$21
    2ad7: 91 02        	sta	($2),y                  ; 0x2 <__rc0>
    2ad9: 7a           	ply
    2ada: 5a           	phy
    2adb: fa           	plx
    2adc: a0 1c        	ldy	#$1c
    2ade: b1 02        	lda	($2),y                  ; 0x2 <__rc0>
    2ae0: 85 1e        	sta	$1e                     ; 0x1e <__rc28>
    2ae2: 20 55 4c     	jsr	$4c55 <getdirententry>
    2ae5: a6 04        	ldx	$4                      ; 0x4 <__rc2>
    2ae7: 86 1a        	stx	$1a                     ; 0x1a <__zp_bss_size>
    2ae9: a6 05        	ldx	$5                      ; 0x5 <__rc3>
    2aeb: 86 1b        	stx	$1b                     ; 0x1b <__rc25>
    2aed: a2 da        	ldx	#$da
    2aef: 86 04        	stx	$4                      ; 0x4 <__rc2>
    2af1: a2 6f        	ldx	#$6f
    2af3: 86 05        	stx	$5                      ; 0x5 <__rc3>
    2af5: a2 ef        	ldx	#$ef
    2af7: 86 06        	stx	$6                      ; 0x6 <__rc4>
    2af9: a2 69        	ldx	#$69
    2afb: 86 07        	stx	$7                      ; 0x7 <__rc5>
    2afd: a9 14        	lda	#$14
    2aff: 20 54 51     	jsr	$5154 <progress>
    2b02: a9 00        	lda	#$0
    2b04: a0 02        	ldy	#$2
    2b06: 64 20        	stz	$20                     ; 0x20 <__rc30>
    2b08: 91 1a        	sta	($1a),y                 ; 0x1a <__zp_bss_size>
    2b0a: a5 1e        	lda	$1e                     ; 0x1e <__rc28>
    2b0c: 20 df 44     	jsr	$44df <GetBAM>
    2b0f: a2 3a        	ldx	#$3a
    2b11: 86 04        	stx	$4                      ; 0x4 <__rc2>
    2b13: a2 6e        	ldx	#$6e
    2b15: 86 05        	stx	$5                      ; 0x5 <__rc3>
    2b17: a2 b4        	ldx	#$b4
    2b19: 86 06        	stx	$6                      ; 0x6 <__rc4>
    2b1b: a2 6c        	ldx	#$6c
    2b1d: 86 07        	stx	$7                      ; 0x7 <__rc5>
    2b1f: a9 28        	lda	#$28
    2b21: 20 54 51     	jsr	$5154 <progress>
    2b24: b2 16        	lda	($16),z                 ; 0x16 <__rc20>
    2b26: a0 17        	ldy	#$17
    2b28: 91 02        	sta	($2),y                  ; 0x2 <__rc0>
    2b2a: a0 47        	ldy	#$47
    2b2c: b1 16        	lda	($16),y                 ; 0x16 <__rc20>
    2b2e: 85 06        	sta	$6                      ; 0x6 <__rc4>
    2b30: a0 01        	ldy	#$1
    2b32: b1 16        	lda	($16),y                 ; 0x16 <__rc20>
    2b34: 85 17        	sta	$17                     ; 0x17 <__rc21>
    2b36: a2 03        	ldx	#$3
    2b38: 8a           	txa
    2b39: a0 1a        	ldy	#$1a
    2b3b: 91 02        	sta	($2),y                  ; 0x2 <__rc0>
    2b3d: a0 08        	ldy	#$8
    2b3f: a9 00        	lda	#$0
    2b41: 64 05        	stz	$5                      ; 0x5 <__rc3>
    2b43: 48           	pha
    2b44: 5a           	phy
    2b45: a5 06        	lda	$6                      ; 0x6 <__rc4>
    2b47: a0 13        	ldy	#$13
    2b49: 91 02        	sta	($2),y                  ; 0x2 <__rc0>
    2b4b: a0 18        	ldy	#$18
    2b4d: 91 02        	sta	($2),y                  ; 0x2 <__rc0>
    2b4f: 7a           	ply
    2b50: 68           	pla
    2b51: 64 1d        	stz	$1d                     ; 0x1d <__rc27>
    2b53: 64 1a        	stz	$1a                     ; 0x1a <__zp_bss_size>
    2b55: a2 00        	ldx	#$0
    2b57: 4c 52 2c     	jmp	$2c52 <main+0xb3c>
    2b5a: 5a           	phy
    2b5b: a4 05        	ldy	$5                      ; 0x5 <__rc3>
    2b5d: 84 1b        	sty	$1b                     ; 0x1b <__rc25>
    2b5f: 7a           	ply
    2b60: e4 05        	cpx	$5                      ; 0x5 <__rc3>
    2b62: 90 03        	bcc	$2b67 <main+0xa51>
    2b64: 4c 66 2c     	jmp	$2c66 <main+0xb50>
    2b67: 48           	pha
    2b68: 5a           	phy
    2b69: a5 18        	lda	$18                     ; 0x18 <__rc22>
    2b6b: a0 1f        	ldy	#$1f
    2b6d: 91 02        	sta	($2),y                  ; 0x2 <__rc0>
    2b6f: a5 19        	lda	$19                     ; 0x19 <__rc23>
    2b71: c8           	iny
    2b72: 91 02        	sta	($2),y                  ; 0x2 <__rc0>
    2b74: 7a           	ply
    2b75: 68           	pla
    2b76: 84 21        	sty	$21                     ; 0x21 <__rc31>
    2b78: 85 04        	sta	$4                      ; 0x4 <__rc2>
    2b7a: 46 04        	lsr	$4                      ; 0x4 <__rc2>
    2b7c: 85 1f        	sta	$1f                     ; 0x1f <__rc29>
    2b7e: a9 00        	lda	#$0
    2b80: 6a           	ror
    2b81: 46 04        	lsr	$4                      ; 0x4 <__rc2>
    2b83: 6a           	ror
    2b84: 48           	pha
    2b85: a5 04        	lda	$4                      ; 0x4 <__rc2>
    2b87: a0 12        	ldy	#$12
    2b89: 91 02        	sta	($2),y                  ; 0x2 <__rc0>
    2b8b: 68           	pla
    2b8c: 46 04        	lsr	$4                      ; 0x4 <__rc2>
    2b8e: a6 04        	ldx	$4                      ; 0x4 <__rc2>
    2b90: 86 05        	stx	$5                      ; 0x5 <__rc3>
    2b92: 6a           	ror
    2b93: 85 04        	sta	$4                      ; 0x4 <__rc2>
    2b95: a9 00        	lda	#$0
    2b97: 18           	clc
    2b98: 65 04        	adc	$4                      ; 0x4 <__rc2>
    2b9a: a8           	tay
    2b9b: 84 13        	sty	$13                     ; 0x13 <__rc17>
    2b9d: a0 16        	ldy	#$16
    2b9f: b1 02        	lda	($2),y                  ; 0x2 <__rc0>
    2ba1: 85 04        	sta	$4                      ; 0x4 <__rc2>
    2ba3: a5 05        	lda	$5                      ; 0x5 <__rc3>
    2ba5: 65 04        	adc	$4                      ; 0x4 <__rc2>
    2ba7: 85 0c        	sta	$c                      ; 0xc <__rc10>
    2ba9: 88           	dey
    2baa: b1 02        	lda	($2),y                  ; 0x2 <__rc0>
    2bac: 69 00        	adc	#$0
    2bae: aa           	tax
    2baf: 88           	dey
    2bb0: b1 02        	lda	($2),y                  ; 0x2 <__rc0>
    2bb2: 69 00        	adc	#$0
    2bb4: 48           	pha
    2bb5: 8a           	txa
    2bb6: a0 10        	ldy	#$10
    2bb8: 91 02        	sta	($2),y                  ; 0x2 <__rc0>
    2bba: a4 13        	ldy	$13                     ; 0x13 <__rc17>
    2bbc: 68           	pla
    2bbd: 86 04        	stx	$4                      ; 0x4 <__rc2>
    2bbf: 85 1c        	sta	$1c                     ; 0x1c <__rc26>
    2bc1: 85 05        	sta	$5                      ; 0x5 <__rc3>
    2bc3: 64 06        	stz	$6                      ; 0x6 <__rc4>
    2bc5: a2 1a        	ldx	#$1a
    2bc7: 86 07        	stx	$7                      ; 0x7 <__rc5>
    2bc9: 64 08        	stz	$8                      ; 0x8 <__rc6>
    2bcb: 64 09        	stz	$9                      ; 0x9 <__rc7>
    2bcd: a2 20        	ldx	#$20
    2bcf: 86 0a        	stx	$a                      ; 0xa <__zp_data_size>
    2bd1: 64 0b        	stz	$b                      ; 0xb <__rc9>
    2bd3: a6 0c        	ldx	$c                      ; 0xc <__rc10>
    2bd5: 86 18        	stx	$18                     ; 0x18 <__rc22>
    2bd7: 98           	tya
    2bd8: 84 19        	sty	$19                     ; 0x19 <__rc23>
    2bda: 20 80 60     	jsr	$6080 <lcopy>
    2bdd: a5 1f        	lda	$1f                     ; 0x1f <__rc29>
    2bdf: f0 13        	beq	$2bf4 <main+0xade>
    2be1: a5 1f        	lda	$1f                     ; 0x1f <__rc29>
    2be3: 29 07        	and	#$7
    2be5: d0 0d        	bne	$2bf4 <main+0xade>
    2be7: a5 1d        	lda	$1d                     ; 0x1d <__rc27>
    2be9: a0 18        	ldy	#$18
    2beb: 91 02        	sta	($2),y                  ; 0x2 <__rc0>
    2bed: a6 1a        	ldx	$1a                     ; 0x1a <__zp_bss_size>
    2bef: 8a           	txa
    2bf0: a0 1a        	ldy	#$1a
    2bf2: 91 02        	sta	($2),y                  ; 0x2 <__rc0>
    2bf4: ae 00 1a     	ldx	$1a00                   ; 0x1a00 <__heap_default_limit+0xa00>
    2bf7: f0 1a        	beq	$2c13 <main+0xafd>
    2bf9: a4 1e        	ldy	$1e                     ; 0x1e <__rc28>
    2bfb: 84 16        	sty	$16                     ; 0x16 <__rc20>
    2bfd: 18           	clc
    2bfe: a5 21        	lda	$21                     ; 0x21 <__rc31>
    2c00: 69 08        	adc	#$8
    2c02: 85 21        	sta	$21                     ; 0x21 <__rc31>
    2c04: a5 1b        	lda	$1b                     ; 0x1b <__rc25>
    2c06: 69 00        	adc	#$0
    2c08: 85 1b        	sta	$1b                     ; 0x1b <__rc25>
    2c0a: ac 01 1a     	ldy	$1a01                   ; 0x1a01 <__heap_default_limit+0xa01>
    2c0d: 84 1a        	sty	$1a                     ; 0x1a <__zp_bss_size>
    2c0f: 86 1d        	stx	$1d                     ; 0x1d <__rc27>
    2c11: 80 04        	bra	$2c17 <main+0xb01>
    2c13: a6 1e        	ldx	$1e                     ; 0x1e <__rc28>
    2c15: 86 16        	stx	$16                     ; 0x16 <__rc20>
    2c17: ae 02 1a     	ldx	$1a02                   ; 0x1a02 <__heap_default_limit+0xa02>
    2c1a: 86 1e        	stx	$1e                     ; 0x1e <__rc28>
    2c1c: d0 06        	bne	$2c24 <main+0xb0e>
    2c1e: a9 01        	lda	#$1
    2c20: 25 2d        	and	$2d                     ; 0x2d <option.0>
    2c22: f0 0c        	beq	$2c30 <main+0xb1a>
    2c24: a6 20        	ldx	$20                     ; 0x20 <__rc30>
    2c26: e4 17        	cpx	$17                     ; 0x17 <__rc21>
    2c28: d0 03        	bne	$2c2d <main+0xb17>
    2c2a: 4c e2 2c     	jmp	$2ce2 <main+0xbcc>
    2c2d: e8           	inx
    2c2e: 86 20        	stx	$20                     ; 0x20 <__rc30>
    2c30: a2 00        	ldx	#$0
    2c32: a5 1f        	lda	$1f                     ; 0x1f <__rc29>
    2c34: 1a           	inc
    2c35: a4 21        	ldy	$21                     ; 0x21 <__rc31>
    2c37: 48           	pha
    2c38: a5 1b        	lda	$1b                     ; 0x1b <__rc25>
    2c3a: 85 05        	sta	$5                      ; 0x5 <__rc3>
    2c3c: 68           	pla
    2c3d: 48           	pha
    2c3e: 5a           	phy
    2c3f: a0 1f        	ldy	#$1f
    2c41: b1 02        	lda	($2),y                  ; 0x2 <__rc0>
    2c43: 85 18        	sta	$18                     ; 0x18 <__rc22>
    2c45: c8           	iny
    2c46: b1 02        	lda	($2),y                  ; 0x2 <__rc0>
    2c48: 7a           	ply
    2c49: 85 19        	sta	$19                     ; 0x19 <__rc23>
    2c4b: 68           	pla
    2c4c: 5a           	phy
    2c4d: a4 16        	ldy	$16                     ; 0x16 <__rc20>
    2c4f: 84 1e        	sty	$1e                     ; 0x1e <__rc28>
    2c51: 7a           	ply
    2c52: e4 05        	cpx	$5                      ; 0x5 <__rc3>
    2c54: f0 03        	beq	$2c59 <main+0xb43>
    2c56: 4c 5a 2b     	jmp	$2b5a <main+0xa44>
    2c59: a6 05        	ldx	$5                      ; 0x5 <__rc3>
    2c5b: 86 1b        	stx	$1b                     ; 0x1b <__rc25>
    2c5d: 84 04        	sty	$4                      ; 0x4 <__rc2>
    2c5f: c5 04        	cmp	$4                      ; 0x4 <__rc2>
    2c61: b0 03        	bcs	$2c66 <main+0xb50>
    2c63: 4c 67 2b     	jmp	$2b67 <main+0xa51>
    2c66: a2 3a        	ldx	#$3a
    2c68: 86 04        	stx	$4                      ; 0x4 <__rc2>
    2c6a: a2 6e        	ldx	#$6e
    2c6c: 86 05        	stx	$5                      ; 0x5 <__rc3>
    2c6e: a2 79        	ldx	#$79
    2c70: 86 06        	stx	$6                      ; 0x6 <__rc4>
    2c72: a2 68        	ldx	#$68
    2c74: 86 07        	stx	$7                      ; 0x7 <__rc5>
    2c76: a9 50        	lda	#$50
    2c78: 20 54 51     	jsr	$5154 <progress>
    2c7b: a0 1d        	ldy	#$1d
    2c7d: b1 02        	lda	($2),y                  ; 0x2 <__rc0>
    2c7f: 85 16        	sta	$16                     ; 0x16 <__rc20>
    2c81: c8           	iny
    2c82: b1 02        	lda	($2),y                  ; 0x2 <__rc0>
    2c84: 85 17        	sta	$17                     ; 0x17 <__rc21>
    2c86: b2 16        	lda	($16),z                 ; 0x16 <__rc20>
    2c88: 85 05        	sta	$5                      ; 0x5 <__rc3>
    2c8a: a0 47        	ldy	#$47
    2c8c: b1 16        	lda	($16),y                 ; 0x16 <__rc20>
    2c8e: 85 04        	sta	$4                      ; 0x4 <__rc2>
    2c90: a6 1e        	ldx	$1e                     ; 0x1e <__rc28>
    2c92: a5 05        	lda	$5                      ; 0x5 <__rc3>
    2c94: 20 18 45     	jsr	$4518 <PutBAM>
    2c97: a0 21        	ldy	#$21
    2c99: b1 02        	lda	($2),y                  ; 0x2 <__rc0>
    2c9b: a8           	tay
    2c9c: c8           	iny
    2c9d: 4c c3 2a     	jmp	$2ac3 <main+0x9ad>
    2ca0: 5a           	phy
    2ca1: a0 00        	ldy	#$0
    2ca3: 84 04        	sty	$4                      ; 0x4 <__rc2>
    2ca5: a0 18        	ldy	#$18
    2ca7: 84 05        	sty	$5                      ; 0x5 <__rc3>
    2ca9: 7a           	ply
    2caa: 84 06        	sty	$6                      ; 0x6 <__rc4>
    2cac: 86 16        	stx	$16                     ; 0x16 <__rc20>
    2cae: 84 17        	sty	$17                     ; 0x17 <__rc21>
    2cb0: 20 d6 43     	jsr	$43d6 <GetOneSector>
    2cb3: a2 00        	ldx	#$0
    2cb5: 86 04        	stx	$4                      ; 0x4 <__rc2>
    2cb7: a2 16        	ldx	#$16
    2cb9: 86 05        	stx	$5                      ; 0x5 <__rc3>
    2cbb: a2 00        	ldx	#$0
    2cbd: 86 06        	stx	$6                      ; 0x6 <__rc4>
    2cbf: a2 17        	ldx	#$17
    2cc1: 86 07        	stx	$7                      ; 0x7 <__rc5>
    2cc3: 64 08        	stz	$8                      ; 0x8 <__rc6>
    2cc5: a6 17        	ldx	$17                     ; 0x17 <__rc21>
    2cc7: a5 16        	lda	$16                     ; 0x16 <__rc20>
    2cc9: 20 0e 46     	jsr	$460e <BAMSectorUpdate>
    2ccc: ae 00 18     	ldx	$1800                   ; 0x1800 <__heap_default_limit+0x800>
    2ccf: ac 01 18     	ldy	$1801                   ; 0x1801 <__heap_default_limit+0x801>
    2cd2: 5a           	phy
    2cd3: a0 17        	ldy	#$17
    2cd5: b1 02        	lda	($2),y                  ; 0x2 <__rc0>
    2cd7: 7a           	ply
    2cd8: e0 00        	cpx	#$0
    2cda: f0 03        	beq	$2cdf <main+0xbc9>
    2cdc: 4c a0 2c     	jmp	$2ca0 <main+0xb8a>
    2cdf: 4c 22 42     	jmp	$4222 <donehyp0att3+0x176>
    2ce2: 9c 02 1a     	stz	$1a02                   ; 0x1a02 <__heap_default_limit+0xa02>
    2ce5: a6 19        	ldx	$19                     ; 0x19 <__rc23>
    2ce7: 86 06        	stx	$6                      ; 0x6 <__rc4>
    2ce9: a6 18        	ldx	$18                     ; 0x18 <__rc22>
    2ceb: 86 07        	stx	$7                      ; 0x7 <__rc5>
    2ced: 64 04        	stz	$4                      ; 0x4 <__rc2>
    2cef: 64 05        	stz	$5                      ; 0x5 <__rc3>
    2cf1: a0 10        	ldy	#$10
    2cf3: b1 02        	lda	($2),y                  ; 0x2 <__rc0>
    2cf5: 85 08        	sta	$8                      ; 0x8 <__rc6>
    2cf7: a6 1c        	ldx	$1c                     ; 0x1c <__rc26>
    2cf9: 86 09        	stx	$9                      ; 0x9 <__rc7>
    2cfb: a2 20        	ldx	#$20
    2cfd: 86 0a        	stx	$a                      ; 0xa <__zp_data_size>
    2cff: 64 0b        	stz	$b                      ; 0xb <__rc9>
    2d01: a2 1a        	ldx	#$1a
    2d03: a9 00        	lda	#$0
    2d05: 20 80 60     	jsr	$6080 <lcopy>
    2d08: a0 12        	ldy	#$12
    2d0a: b1 02        	lda	($2),y                  ; 0x2 <__rc0>
    2d0c: 4a           	lsr
    2d0d: 18           	clc
    2d0e: 48           	pha
    2d0f: a0 0f        	ldy	#$f
    2d11: b1 02        	lda	($2),y                  ; 0x2 <__rc0>
    2d13: 85 04        	sta	$4                      ; 0x4 <__rc2>
    2d15: 68           	pla
    2d16: 65 04        	adc	$4                      ; 0x4 <__rc2>
    2d18: 85 0c        	sta	$c                      ; 0xc <__rc10>
    2d1a: 88           	dey
    2d1b: b1 02        	lda	($2),y                  ; 0x2 <__rc0>
    2d1d: 85 04        	sta	$4                      ; 0x4 <__rc2>
    2d1f: a9 00        	lda	#$0
    2d21: 65 04        	adc	$4                      ; 0x4 <__rc2>
    2d23: aa           	tax
    2d24: a9 00        	lda	#$0
    2d26: 48           	pha
    2d27: 88           	dey
    2d28: b1 02        	lda	($2),y                  ; 0x2 <__rc0>
    2d2a: 85 04        	sta	$4                      ; 0x4 <__rc2>
    2d2c: 68           	pla
    2d2d: 65 04        	adc	$4                      ; 0x4 <__rc2>
    2d2f: 86 04        	stx	$4                      ; 0x4 <__rc2>
    2d31: 85 05        	sta	$5                      ; 0x5 <__rc3>
    2d33: 64 06        	stz	$6                      ; 0x6 <__rc4>
    2d35: a2 18        	ldx	#$18
    2d37: 86 07        	stx	$7                      ; 0x7 <__rc5>
    2d39: 64 08        	stz	$8                      ; 0x8 <__rc6>
    2d3b: 64 09        	stz	$9                      ; 0x9 <__rc7>
    2d3d: 64 0a        	stz	$a                      ; 0xa <__zp_data_size>
    2d3f: a2 01        	ldx	#$1
    2d41: 86 0b        	stx	$b                      ; 0xb <__rc9>
    2d43: a6 0c        	ldx	$c                      ; 0xc <__rc10>
    2d45: a9 00        	lda	#$0
    2d47: 20 80 60     	jsr	$6080 <lcopy>
    2d4a: a2 00        	ldx	#$0
    2d4c: 86 04        	stx	$4                      ; 0x4 <__rc2>
    2d4e: a2 18        	ldx	#$18
    2d50: 86 05        	stx	$5                      ; 0x5 <__rc3>
    2d52: a0 1a        	ldy	#$1a
    2d54: b1 02        	lda	($2),y                  ; 0x2 <__rc0>
    2d56: 85 06        	sta	$6                      ; 0x6 <__rc4>
    2d58: a0 18        	ldy	#$18
    2d5a: b1 02        	lda	($2),y                  ; 0x2 <__rc0>
    2d5c: aa           	tax
    2d5d: 88           	dey
    2d5e: b1 02        	lda	($2),y                  ; 0x2 <__rc0>
    2d60: 85 17        	sta	$17                     ; 0x17 <__rc21>
    2d62: 20 19 44     	jsr	$4419 <PutOneSector>
    2d65: a5 1e        	lda	$1e                     ; 0x1e <__rc28>
    2d67: 29 0f        	and	#$f
    2d69: c9 05        	cmp	#$5
    2d6b: d0 19        	bne	$2d86 <main+0xc70>
    2d6d: a0 00        	ldy	#$0
    2d6f: 98           	tya
    2d70: 48           	pha
    2d71: 5a           	phy
    2d72: a0 1f        	ldy	#$1f
    2d74: b1 02        	lda	($2),y                  ; 0x2 <__rc0>
    2d76: 85 18        	sta	$18                     ; 0x18 <__rc22>
    2d78: c8           	iny
    2d79: b1 02        	lda	($2),y                  ; 0x2 <__rc0>
    2d7b: 7a           	ply
    2d7c: 85 19        	sta	$19                     ; 0x19 <__rc23>
    2d7e: 68           	pla
    2d7f: a6 16        	ldx	$16                     ; 0x16 <__rc20>
    2d81: 86 1e        	stx	$1e                     ; 0x1e <__rc28>
    2d83: 4c 16 2e     	jmp	$2e16 <main+0xd00>
    2d86: ae 03 1a     	ldx	$1a03                   ; 0x1a03 <__heap_default_limit+0xa03>
    2d89: 86 1a        	stx	$1a                     ; 0x1a <__zp_bss_size>
    2d8b: ae 04 1a     	ldx	$1a04                   ; 0x1a04 <__heap_default_limit+0xa04>
    2d8e: 86 1b        	stx	$1b                     ; 0x1b <__rc25>
    2d90: a2 00        	ldx	#$0
    2d92: 86 04        	stx	$4                      ; 0x4 <__rc2>
    2d94: a2 16        	ldx	#$16
    2d96: 86 05        	stx	$5                      ; 0x5 <__rc3>
    2d98: a2 01        	ldx	#$1
    2d9a: 86 06        	stx	$6                      ; 0x6 <__rc4>
    2d9c: a0 13        	ldy	#$13
    2d9e: b1 02        	lda	($2),y                  ; 0x2 <__rc0>
    2da0: aa           	tax
    2da1: a5 17        	lda	$17                     ; 0x17 <__rc21>
    2da3: 20 d6 43     	jsr	$43d6 <GetOneSector>
    2da6: c9 02        	cmp	#$2
    2da8: a0 1f        	ldy	#$1f
    2daa: b1 02        	lda	($2),y                  ; 0x2 <__rc0>
    2dac: 85 18        	sta	$18                     ; 0x18 <__rc22>
    2dae: c8           	iny
    2daf: b1 02        	lda	($2),y                  ; 0x2 <__rc0>
    2db1: 85 19        	sta	$19                     ; 0x19 <__rc23>
    2db3: a6 16        	ldx	$16                     ; 0x16 <__rc20>
    2db5: 86 1e        	stx	$1e                     ; 0x1e <__rc28>
    2db7: 90 03        	bcc	$2dbc <main+0xca6>
    2db9: 4c 66 2c     	jmp	$2c66 <main+0xb50>
    2dbc: 4c 0e 41     	jmp	$410e <donehyp0att3+0x62>
    2dbf: cd 1f 1a     	cmp	$1a1f                   ; 0x1a1f <__heap_default_limit+0xa1f>
    2dc2: 64 05        	stz	$5                      ; 0x5 <__rc3>
    2dc4: 90 03        	bcc	$2dc9 <main+0xcb3>
    2dc6: 4c 66 2c     	jmp	$2c66 <main+0xb50>
    2dc9: a2 28        	ldx	#$28
    2dcb: 86 04        	stx	$4                      ; 0x4 <__rc2>
    2dcd: aa           	tax
    2dce: 84 16        	sty	$16                     ; 0x16 <__rc20>
    2dd0: 85 17        	sta	$17                     ; 0x17 <__rc21>
    2dd2: 98           	tya
    2dd3: 20 5d 62     	jsr	$625d <__udivhi3>
    2dd6: aa           	tax
    2dd7: 0a           	asl
    2dd8: 0a           	asl
    2dd9: 0a           	asl
    2dda: 85 04        	sta	$4                      ; 0x4 <__rc2>
    2ddc: 0a           	asl
    2ddd: 0a           	asl
    2dde: 18           	clc
    2ddf: 65 04        	adc	$4                      ; 0x4 <__rc2>
    2de1: 85 04        	sta	$4                      ; 0x4 <__rc2>
    2de3: 38           	sec
    2de4: a5 16        	lda	$16                     ; 0x16 <__rc20>
    2de6: e5 04        	sbc	$4                      ; 0x4 <__rc2>
    2de8: 85 04        	sta	$4                      ; 0x4 <__rc2>
    2dea: 18           	clc
    2deb: 8a           	txa
    2dec: 6d 03 1a     	adc	$1a03                   ; 0x1a03 <__heap_default_limit+0xa03>
    2def: a8           	tay
    2df0: 18           	clc
    2df1: a5 04        	lda	$4                      ; 0x4 <__rc2>
    2df3: 6d 04 1a     	adc	$1a04                   ; 0x1a04 <__heap_default_limit+0xa04>
    2df6: a2 00        	ldx	#$0
    2df8: 86 04        	stx	$4                      ; 0x4 <__rc2>
    2dfa: a2 16        	ldx	#$16
    2dfc: 86 05        	stx	$5                      ; 0x5 <__rc3>
    2dfe: a2 00        	ldx	#$0
    2e00: 86 06        	stx	$6                      ; 0x6 <__rc4>
    2e02: a2 17        	ldx	#$17
    2e04: 86 07        	stx	$7                      ; 0x7 <__rc5>
    2e06: 64 08        	stz	$8                      ; 0x8 <__rc6>
    2e08: aa           	tax
    2e09: 98           	tya
    2e0a: 20 0e 46     	jsr	$460e <BAMSectorUpdate>
    2e0d: a4 16        	ldy	$16                     ; 0x16 <__rc20>
    2e0f: a6 17        	ldx	$17                     ; 0x17 <__rc21>
    2e11: c8           	iny
    2e12: d0 01        	bne	$2e15 <main+0xcff>
    2e14: e8           	inx
    2e15: 8a           	txa
    2e16: cd 1f 1a     	cmp	$1a1f                   ; 0x1a1f <__heap_default_limit+0xa1f>
    2e19: f0 03        	beq	$2e1e <main+0xd08>
    2e1b: 4c bf 2d     	jmp	$2dbf <main+0xca9>
    2e1e: ae 1e 1a     	ldx	$1a1e                   ; 0x1a1e <__heap_default_limit+0xa1e>
    2e21: 86 04        	stx	$4                      ; 0x4 <__rc2>
    2e23: c4 04        	cpy	$4                      ; 0x4 <__rc2>
    2e25: 4c c2 2d     	jmp	$2dc2 <main+0xcac>
    2e28: a2 87        	ldx	#$87
    2e2a: 86 04        	stx	$4                      ; 0x4 <__rc2>
    2e2c: a2 6e        	ldx	#$6e
    2e2e: 86 05        	stx	$5                      ; 0x5 <__rc3>
    2e30: 20 c4 5e     	jsr	$5ec4 <cputs>
    2e33: 4c b9 26     	jmp	$26b9 <main+0x5a3>
    2e36: a6 20        	ldx	$20                     ; 0x20 <__rc30>
    2e38: 48           	pha
    2e39: 5a           	phy
    2e3a: a0 1c        	ldy	#$1c
    2e3c: b1 02        	lda	($2),y                  ; 0x2 <__rc0>
    2e3e: 7a           	ply
    2e3f: 85 04        	sta	$4                      ; 0x4 <__rc2>
    2e41: 68           	pla
    2e42: e4 04        	cpx	$4                      ; 0x4 <__rc2>
    2e44: f0 03        	beq	$2e49 <main+0xd33>
    2e46: 4c 72 26     	jmp	$2672 <main+0x55c>
    2e49: 09 20        	ora	#$20
    2e4b: 4c 74 26     	jmp	$2674 <main+0x55e>
    2e4e: c9 00        	cmp	#$0
    2e50: 8a           	txa
    2e51: 90 03        	bcc	$2e56 <main+0xd40>
    2e53: 4c 4b 2a     	jmp	$2a4b <main+0x935>
    2e56: 0a           	asl
    2e57: aa           	tax
    2e58: 7c 11 67     	jmp	($6711,x)               ; 0x6711 <__zp_data_load_start+0x46fa>
    2e5b: 20 d3 5d     	jsr	$5dd3 <sidbong>
    2e5e: 4c fb 22     	jmp	$22fb <main+0x1e5>
    2e61: a9 27        	lda	#$27
    2e63: 18           	clc
    2e64: 65 19        	adc	$19                     ; 0x19 <__rc23>
    2e66: 85 04        	sta	$4                      ; 0x4 <__rc2>
    2e68: a9 00        	lda	#$0
    2e6a: 65 18        	adc	$18                     ; 0x18 <__rc22>
    2e6c: 85 05        	sta	$5                      ; 0x5 <__rc3>
    2e6e: b2 04        	lda	($4),z                  ; 0x4 <__rc2>
    2e70: 85 06        	sta	$6                      ; 0x6 <__rc4>
    2e72: b1 04        	lda	($4),y                  ; 0x4 <__rc2>
    2e74: 85 07        	sta	$7                      ; 0x7 <__rc5>
    2e76: a9 01        	lda	#$1
    2e78: a0 46        	ldy	#$46
    2e7a: 31 06        	and	($6),y                  ; 0x6 <__rc4>
    2e7c: 29 01        	and	#$1
    2e7e: f0 03        	beq	$2e83 <main+0xd6d>
    2e80: 4c e2 2e     	jmp	$2ee2 <main+0xdcc>
    2e83: a2 08        	ldx	#$8
    2e85: 86 04        	stx	$4                      ; 0x4 <__rc2>
    2e87: a2 6f        	ldx	#$6f
    2e89: 86 05        	stx	$5                      ; 0x5 <__rc3>
    2e8b: a2 d6        	ldx	#$d6
    2e8d: 86 06        	stx	$6                      ; 0x6 <__rc4>
    2e8f: a2 67        	ldx	#$67
    2e91: 86 07        	stx	$7                      ; 0x7 <__rc5>
    2e93: a2 b7        	ldx	#$b7
    2e95: 86 08        	stx	$8                      ; 0x8 <__rc6>
    2e97: a2 67        	ldx	#$67
    2e99: 4c 2c 2f     	jmp	$2f2c <main+0xe16>
    2e9c: ae 11 d6     	ldx	$d611                   ; 0xd611 <__heap_start+0x60b9>
    2e9f: e0 01        	cpx	#$1
    2ea1: d0 03        	bne	$2ea6 <main+0xd90>
    2ea3: 4c 2d 40     	jmp	$402d <donehypchdir2+0x172>
    2ea6: ae 11 d6     	ldx	$d611                   ; 0xd611 <__heap_start+0x60b9>
    2ea9: e0 02        	cpx	#$2
    2eab: f0 03        	beq	$2eb0 <main+0xd9a>
    2ead: 4c fb 22     	jmp	$22fb <main+0x1e5>
    2eb0: 4c 2d 40     	jmp	$402d <donehypchdir2+0x172>
    2eb3: a9 27        	lda	#$27
    2eb5: 18           	clc
    2eb6: 65 19        	adc	$19                     ; 0x19 <__rc23>
    2eb8: 85 04        	sta	$4                      ; 0x4 <__rc2>
    2eba: a9 00        	lda	#$0
    2ebc: 65 18        	adc	$18                     ; 0x18 <__rc22>
    2ebe: 85 05        	sta	$5                      ; 0x5 <__rc3>
    2ec0: b2 04        	lda	($4),z                  ; 0x4 <__rc2>
    2ec2: 85 06        	sta	$6                      ; 0x6 <__rc4>
    2ec4: b1 04        	lda	($4),y                  ; 0x4 <__rc2>
    2ec6: 85 07        	sta	$7                      ; 0x7 <__rc5>
    2ec8: a9 01        	lda	#$1
    2eca: a0 46        	ldy	#$46
    2ecc: 51 06        	eor	($6),y                  ; 0x6 <__rc4>
    2ece: 91 06        	sta	($6),y                  ; 0x6 <__rc4>
    2ed0: a9 28        	lda	#$28
    2ed2: c8           	iny
    2ed3: 91 06        	sta	($6),y                  ; 0x6 <__rc4>
    2ed5: b2 06        	lda	($6),z                  ; 0x6 <__rc4>
    2ed7: 48           	pha
    2ed8: a0 1c        	ldy	#$1c
    2eda: b1 02        	lda	($2),y                  ; 0x2 <__rc0>
    2edc: 85 16        	sta	$16                     ; 0x16 <__rc20>
    2ede: 68           	pla
    2edf: 4c 0c 3a     	jmp	$3a0c <main+0x18f6>
    2ee2: a5 06        	lda	$6                      ; 0x6 <__rc4>
    2ee4: a0 1d        	ldy	#$1d
    2ee6: 91 02        	sta	($2),y                  ; 0x2 <__rc0>
    2ee8: a5 07        	lda	$7                      ; 0x7 <__rc5>
    2eea: c8           	iny
    2eeb: 91 02        	sta	($2),y                  ; 0x2 <__rc0>
    2eed: a0 01        	ldy	#$1
    2eef: b1 06        	lda	($6),y                  ; 0x6 <__rc4>
    2ef1: aa           	tax
    2ef2: a0 1c        	ldy	#$1c
    2ef4: b1 02        	lda	($2),y                  ; 0x2 <__rc0>
    2ef6: 20 55 4c     	jsr	$4c55 <getdirententry>
    2ef9: a6 04        	ldx	$4                      ; 0x4 <__rc2>
    2efb: 86 06        	stx	$6                      ; 0x6 <__rc4>
    2efd: a6 05        	ldx	$5                      ; 0x5 <__rc3>
    2eff: 86 07        	stx	$7                      ; 0x7 <__rc5>
    2f01: a0 02        	ldy	#$2
    2f03: b1 04        	lda	($4),y                  ; 0x4 <__rc2>
    2f05: a8           	tay
    2f06: 29 0f        	and	#$f
    2f08: f0 07        	beq	$2f11 <main+0xdfb>
    2f0a: c9 05        	cmp	#$5
    2f0c: f0 03        	beq	$2f11 <main+0xdfb>
    2f0e: 4c 19 3a     	jmp	$3a19 <main+0x1903>
    2f11: a5 06        	lda	$6                      ; 0x6 <__rc4>
    2f13: 18           	clc
    2f14: 69 05        	adc	#$5
    2f16: 85 06        	sta	$6                      ; 0x6 <__rc4>
    2f18: a5 07        	lda	$7                      ; 0x7 <__rc5>
    2f1a: 69 00        	adc	#$0
    2f1c: 85 07        	sta	$7                      ; 0x7 <__rc5>
    2f1e: a2 79        	ldx	#$79
    2f20: 86 04        	stx	$4                      ; 0x4 <__rc2>
    2f22: a2 6e        	ldx	#$6e
    2f24: 86 05        	stx	$5                      ; 0x5 <__rc3>
    2f26: a2 67        	ldx	#$67
    2f28: 86 08        	stx	$8                      ; 0x8 <__rc6>
    2f2a: a2 6a        	ldx	#$6a
    2f2c: 86 09        	stx	$9                      ; 0x9 <__rc7>
    2f2e: a9 00        	lda	#$0
    2f30: 20 6d 50     	jsr	$506d <messagebox>
    2f33: 4c fb 22     	jmp	$22fb <main+0x1e5>
    2f36: c9 00        	cmp	#$0
    2f38: 8a           	txa
    2f39: 90 03        	bcc	$2f3e <main+0xe28>
    2f3b: 4c 62 2a     	jmp	$2a62 <main+0x94c>
    2f3e: 0a           	asl
    2f3f: aa           	tax
    2f40: 7c bf 66     	jmp	($66bf,x)               ; 0x66bf <__zp_data_load_start+0x46a8>
    2f43: a9 27        	lda	#$27
    2f45: 18           	clc
    2f46: 65 19        	adc	$19                     ; 0x19 <__rc23>
    2f48: 85 04        	sta	$4                      ; 0x4 <__rc2>
    2f4a: a9 00        	lda	#$0
    2f4c: 65 18        	adc	$18                     ; 0x18 <__rc22>
    2f4e: 85 05        	sta	$5                      ; 0x5 <__rc3>
    2f50: b2 04        	lda	($4),z                  ; 0x4 <__rc2>
    2f52: 85 18        	sta	$18                     ; 0x18 <__rc22>
    2f54: b1 04        	lda	($4),y                  ; 0x4 <__rc2>
    2f56: 85 19        	sta	$19                     ; 0x19 <__rc23>
    2f58: a9 01        	lda	#$1
    2f5a: a0 46        	ldy	#$46
    2f5c: 31 18        	and	($18),y                 ; 0x18 <__rc22>
    2f5e: 29 01        	and	#$1
    2f60: f0 03        	beq	$2f65 <main+0xe4f>
    2f62: 4c 38 3a     	jmp	$3a38 <main+0x1922>
    2f65: 64 1a        	stz	$1a                     ; 0x1a <__zp_bss_size>
    2f67: 64 1b        	stz	$1b                     ; 0x1b <__rc25>
    2f69: a0 1c        	ldy	#$1c
    2f6b: b1 02        	lda	($2),y                  ; 0x2 <__rc0>
    2f6d: 85 1c        	sta	$1c                     ; 0x1c <__rc26>
    2f6f: a2 00        	ldx	#$0
    2f71: e4 1b        	cpx	$1b                     ; 0x1b <__rc25>
    2f73: d0 0b        	bne	$2f80 <main+0xe6a>
    2f75: a0 02        	ldy	#$2
    2f77: b1 18        	lda	($18),y                 ; 0x18 <__rc22>
    2f79: c5 1a        	cmp	$1a                     ; 0x1a <__zp_bss_size>
    2f7b: b0 0a        	bcs	$2f87 <main+0xe71>
    2f7d: 4c fb 22     	jmp	$22fb <main+0x1e5>
    2f80: e4 1b        	cpx	$1b                     ; 0x1b <__rc25>
    2f82: b0 03        	bcs	$2f87 <main+0xe71>
    2f84: 4c fb 22     	jmp	$22fb <main+0x1e5>
    2f87: a6 1a        	ldx	$1a                     ; 0x1a <__zp_bss_size>
    2f89: a5 1c        	lda	$1c                     ; 0x1c <__rc26>
    2f8b: 20 55 4c     	jsr	$4c55 <getdirententry>
    2f8e: a9 10        	lda	#$10
    2f90: a0 02        	ldy	#$2
    2f92: 31 04        	and	($4),y                  ; 0x4 <__rc2>
    2f94: f0 13        	beq	$2fa9 <main+0xe93>
    2f96: a0 05        	ldy	#$5
    2f98: b1 04        	lda	($4),y                  ; 0x4 <__rc2>
    2f9a: c9 2e        	cmp	#$2e
    2f9c: d0 0b        	bne	$2fa9 <main+0xe93>
    2f9e: a0 06        	ldy	#$6
    2fa0: b1 04        	lda	($4),y                  ; 0x4 <__rc2>
    2fa2: c9 2e        	cmp	#$2e
    2fa4: d0 03        	bne	$2fa9 <main+0xe93>
    2fa6: 4c 33 3e     	jmp	$3e33 <donehyp1att0+0x1d0>
    2fa9: e6 1a        	inc	$1a                     ; 0x1a <__zp_bss_size>
    2fab: f0 03        	beq	$2fb0 <main+0xe9a>
    2fad: 4c 6f 2f     	jmp	$2f6f <main+0xe59>
    2fb0: e6 1b        	inc	$1b                     ; 0x1b <__rc25>
    2fb2: 4c 6f 2f     	jmp	$2f6f <main+0xe59>
    2fb5: a2 00        	ldx	#$0
    2fb7: a9 14        	lda	#$14
    2fb9: 20 55 52     	jsr	$5255 <shortcuts>
    2fbc: 80 03        	bra	$2fc1 <main+0xeab>
    2fbe: 20 d3 5d     	jsr	$5dd3 <sidbong>
    2fc1: a2 4c        	ldx	#$4c
    2fc3: 86 04        	stx	$4                      ; 0x4 <__rc2>
    2fc5: a2 18        	ldx	#$18
    2fc7: 86 05        	stx	$5                      ; 0x5 <__rc3>
    2fc9: a2 01        	ldx	#$1
    2fcb: 86 06        	stx	$6                      ; 0x6 <__rc4>
    2fcd: ca           	dex
    2fce: a9 04        	lda	#$4
    2fd0: 20 e2 4e     	jsr	$4ee2 <mcbox>
    2fd3: a9 20        	lda	#$20
    2fd5: 05 2b        	ora	$2b                     ; 0x2b <g_curTextColor>
    2fd7: 85 2b        	sta	$2b                     ; 0x2b <g_curTextColor>
    2fd9: a2 08        	ldx	#$8
    2fdb: 86 04        	stx	$4                      ; 0x4 <__rc2>
    2fdd: a2 68        	ldx	#$68
    2fdf: 86 05        	stx	$5                      ; 0x5 <__rc3>
    2fe1: a2 00        	ldx	#$0
    2fe3: a9 0e        	lda	#$e
    2fe5: 20 cc 4e     	jsr	$4ecc <mcputsxy>
    2fe8: a2 71        	ldx	#$71
    2fea: 86 04        	stx	$4                      ; 0x4 <__rc2>
    2fec: a2 67        	ldx	#$67
    2fee: 86 05        	stx	$5                      ; 0x5 <__rc3>
    2ff0: a2 00        	ldx	#$0
    2ff2: a9 1f        	lda	#$1f
    2ff4: 20 cc 4e     	jsr	$4ecc <mcputsxy>
    2ff7: a2 65        	ldx	#$65
    2ff9: 86 04        	stx	$4                      ; 0x4 <__rc2>
    2ffb: a2 6b        	ldx	#$6b
    2ffd: 86 05        	stx	$5                      ; 0x5 <__rc3>
    2fff: a2 00        	ldx	#$0
    3001: a9 28        	lda	#$28
    3003: 20 cc 4e     	jsr	$4ecc <mcputsxy>
    3006: a9 df        	lda	#$df
    3008: 25 2b        	and	$2b                     ; 0x2b <g_curTextColor>
    300a: 85 2b        	sta	$2b                     ; 0x2b <g_curTextColor>
    300c: a2 b7        	ldx	#$b7
    300e: 86 04        	stx	$4                      ; 0x4 <__rc2>
    3010: a2 67        	ldx	#$67
    3012: 86 05        	stx	$5                      ; 0x5 <__rc3>
    3014: a5 04        	lda	$4                      ; 0x4 <__rc2>
    3016: a0 21        	ldy	#$21
    3018: 91 02        	sta	($2),y                  ; 0x2 <__rc0>
    301a: a5 05        	lda	$5                      ; 0x5 <__rc3>
    301c: c8           	iny
    301d: 91 02        	sta	($2),y                  ; 0x2 <__rc0>
    301f: 88           	dey
    3020: b1 02        	lda	($2),y                  ; 0x2 <__rc0>
    3022: 85 04        	sta	$4                      ; 0x4 <__rc2>
    3024: c8           	iny
    3025: b1 02        	lda	($2),y                  ; 0x2 <__rc0>
    3027: 85 05        	sta	$5                      ; 0x5 <__rc3>
    3029: a2 18        	ldx	#$18
    302b: a9 07        	lda	#$7
    302d: 20 cc 4e     	jsr	$4ecc <mcputsxy>
    3030: a2 d2        	ldx	#$d2
    3032: 86 04        	stx	$4                      ; 0x4 <__rc2>
    3034: a2 69        	ldx	#$69
    3036: 86 05        	stx	$5                      ; 0x5 <__rc3>
    3038: 20 be 4e     	jsr	$4ebe <msprintf>
    303b: a0 21        	ldy	#$21
    303d: b1 02        	lda	($2),y                  ; 0x2 <__rc0>
    303f: 85 04        	sta	$4                      ; 0x4 <__rc2>
    3041: c8           	iny
    3042: b1 02        	lda	($2),y                  ; 0x2 <__rc0>
    3044: 85 05        	sta	$5                      ; 0x5 <__rc3>
    3046: 20 be 4e     	jsr	$4ebe <msprintf>
    3049: a2 94        	ldx	#$94
    304b: 86 04        	stx	$4                      ; 0x4 <__rc2>
    304d: a2 6e        	ldx	#$6e
    304f: 86 05        	stx	$5                      ; 0x5 <__rc3>
    3051: a2 18        	ldx	#$18
    3053: a9 34        	lda	#$34
    3055: 20 cc 4e     	jsr	$4ecc <mcputsxy>
    3058: a9 20        	lda	#$20
    305a: 05 2b        	ora	$2b                     ; 0x2b <g_curTextColor>
    305c: 85 2b        	sta	$2b                     ; 0x2b <g_curTextColor>
    305e: a2 ac        	ldx	#$ac
    3060: 86 04        	stx	$4                      ; 0x4 <__rc2>
    3062: a2 68        	ldx	#$68
    3064: 86 05        	stx	$5                      ; 0x5 <__rc3>
    3066: a2 02        	ldx	#$2
    3068: a9 06        	lda	#$6
    306a: 20 cc 4e     	jsr	$4ecc <mcputsxy>
    306d: a6 2b        	ldx	$2b                     ; 0x2b <g_curTextColor>
    306f: 86 17        	stx	$17                     ; 0x17 <__rc21>
    3071: a9 df        	lda	#$df
    3073: 25 2b        	and	$2b                     ; 0x2b <g_curTextColor>
    3075: 85 2b        	sta	$2b                     ; 0x2b <g_curTextColor>
    3077: 85 16        	sta	$16                     ; 0x16 <__rc20>
    3079: a0 21        	ldy	#$21
    307b: b1 02        	lda	($2),y                  ; 0x2 <__rc0>
    307d: 85 04        	sta	$4                      ; 0x4 <__rc2>
    307f: c8           	iny
    3080: b1 02        	lda	($2),y                  ; 0x2 <__rc0>
    3082: 85 05        	sta	$5                      ; 0x5 <__rc3>
    3084: 20 be 4e     	jsr	$4ebe <msprintf>
    3087: a5 17        	lda	$17                     ; 0x17 <__rc21>
    3089: 09 20        	ora	#$20
    308b: 85 2b        	sta	$2b                     ; 0x2b <g_curTextColor>
    308d: a2 b3        	ldx	#$b3
    308f: 86 04        	stx	$4                      ; 0x4 <__rc2>
    3091: a2 68        	ldx	#$68
    3093: 86 05        	stx	$5                      ; 0x5 <__rc3>
    3095: 20 be 4e     	jsr	$4ebe <msprintf>
    3098: a6 16        	ldx	$16                     ; 0x16 <__rc20>
    309a: 86 2b        	stx	$2b                     ; 0x2b <g_curTextColor>
    309c: a2 74        	ldx	#$74
    309e: 86 04        	stx	$4                      ; 0x4 <__rc2>
    30a0: a2 70        	ldx	#$70
    30a2: 86 05        	stx	$5                      ; 0x5 <__rc3>
    30a4: 20 be 4e     	jsr	$4ebe <msprintf>
    30a7: a2 18        	ldx	#$18
    30a9: 86 04        	stx	$4                      ; 0x4 <__rc2>
    30ab: a2 68        	ldx	#$68
    30ad: 86 05        	stx	$5                      ; 0x5 <__rc3>
    30af: a2 04        	ldx	#$4
    30b1: a9 06        	lda	#$6
    30b3: 20 cc 4e     	jsr	$4ecc <mcputsxy>
    30b6: a2 aa        	ldx	#$aa
    30b8: 86 04        	stx	$4                      ; 0x4 <__rc2>
    30ba: a2 6d        	ldx	#$6d
    30bc: 86 05        	stx	$5                      ; 0x5 <__rc3>
    30be: a2 05        	ldx	#$5
    30c0: a9 06        	lda	#$6
    30c2: 20 cc 4e     	jsr	$4ecc <mcputsxy>
    30c5: a9 20        	lda	#$20
    30c7: 05 2b        	ora	$2b                     ; 0x2b <g_curTextColor>
    30c9: 85 2b        	sta	$2b                     ; 0x2b <g_curTextColor>
    30cb: a2 fe        	ldx	#$fe
    30cd: 86 04        	stx	$4                      ; 0x4 <__rc2>
    30cf: a2 6d        	ldx	#$6d
    30d1: 86 05        	stx	$5                      ; 0x5 <__rc3>
    30d3: a2 07        	ldx	#$7
    30d5: a9 06        	lda	#$6
    30d7: 20 cc 4e     	jsr	$4ecc <mcputsxy>
    30da: a6 2b        	ldx	$2b                     ; 0x2b <g_curTextColor>
    30dc: 86 17        	stx	$17                     ; 0x17 <__rc21>
    30de: a9 df        	lda	#$df
    30e0: 25 2b        	and	$2b                     ; 0x2b <g_curTextColor>
    30e2: 85 2b        	sta	$2b                     ; 0x2b <g_curTextColor>
    30e4: 85 16        	sta	$16                     ; 0x16 <__rc20>
    30e6: a0 21        	ldy	#$21
    30e8: b1 02        	lda	($2),y                  ; 0x2 <__rc0>
    30ea: 85 04        	sta	$4                      ; 0x4 <__rc2>
    30ec: c8           	iny
    30ed: b1 02        	lda	($2),y                  ; 0x2 <__rc0>
    30ef: 85 05        	sta	$5                      ; 0x5 <__rc3>
    30f1: 20 be 4e     	jsr	$4ebe <msprintf>
    30f4: a5 17        	lda	$17                     ; 0x17 <__rc21>
    30f6: 09 20        	ora	#$20
    30f8: 85 2b        	sta	$2b                     ; 0x2b <g_curTextColor>
    30fa: a2 05        	ldx	#$5
    30fc: 86 04        	stx	$4                      ; 0x4 <__rc2>
    30fe: a2 6e        	ldx	#$6e
    3100: 86 05        	stx	$5                      ; 0x5 <__rc3>
    3102: 20 be 4e     	jsr	$4ebe <msprintf>
    3105: a6 16        	ldx	$16                     ; 0x16 <__rc20>
    3107: 86 2b        	stx	$2b                     ; 0x2b <g_curTextColor>
    3109: a2 ab        	ldx	#$ab
    310b: 86 04        	stx	$4                      ; 0x4 <__rc2>
    310d: a2 6e        	ldx	#$6e
    310f: 86 05        	stx	$5                      ; 0x5 <__rc3>
    3111: 20 be 4e     	jsr	$4ebe <msprintf>
    3114: a2 8f        	ldx	#$8f
    3116: 86 04        	stx	$4                      ; 0x4 <__rc2>
    3118: a2 69        	ldx	#$69
    311a: 86 05        	stx	$5                      ; 0x5 <__rc3>
    311c: a2 08        	ldx	#$8
    311e: a9 06        	lda	#$6
    3120: 20 cc 4e     	jsr	$4ecc <mcputsxy>
    3123: a6 2b        	ldx	$2b                     ; 0x2b <g_curTextColor>
    3125: 86 16        	stx	$16                     ; 0x16 <__rc20>
    3127: a9 40        	lda	#$40
    3129: 05 2b        	ora	$2b                     ; 0x2b <g_curTextColor>
    312b: 85 2b        	sta	$2b                     ; 0x2b <g_curTextColor>
    312d: a2 76        	ldx	#$76
    312f: 86 04        	stx	$4                      ; 0x4 <__rc2>
    3131: a2 69        	ldx	#$69
    3133: 86 05        	stx	$5                      ; 0x5 <__rc3>
    3135: 20 be 4e     	jsr	$4ebe <msprintf>
    3138: a5 16        	lda	$16                     ; 0x16 <__rc20>
    313a: 29 bf        	and	#$bf
    313c: 85 2b        	sta	$2b                     ; 0x2b <g_curTextColor>
    313e: a2 6b        	ldx	#$6b
    3140: 86 04        	stx	$4                      ; 0x4 <__rc2>
    3142: a2 6e        	ldx	#$6e
    3144: 86 05        	stx	$5                      ; 0x5 <__rc3>
    3146: 20 be 4e     	jsr	$4ebe <msprintf>
    3149: a2 39        	ldx	#$39
    314b: 86 04        	stx	$4                      ; 0x4 <__rc2>
    314d: a2 6c        	ldx	#$6c
    314f: 86 05        	stx	$5                      ; 0x5 <__rc3>
    3151: a2 09        	ldx	#$9
    3153: a9 06        	lda	#$6
    3155: 20 cc 4e     	jsr	$4ecc <mcputsxy>
    3158: a9 20        	lda	#$20
    315a: 05 2b        	ora	$2b                     ; 0x2b <g_curTextColor>
    315c: 85 2b        	sta	$2b                     ; 0x2b <g_curTextColor>
    315e: a0 21        	ldy	#$21
    3160: b1 02        	lda	($2),y                  ; 0x2 <__rc0>
    3162: 85 04        	sta	$4                      ; 0x4 <__rc2>
    3164: c8           	iny
    3165: b1 02        	lda	($2),y                  ; 0x2 <__rc0>
    3167: 85 05        	sta	$5                      ; 0x5 <__rc3>
    3169: a2 0b        	ldx	#$b
    316b: a9 06        	lda	#$6
    316d: 20 cc 4e     	jsr	$4ecc <mcputsxy>
    3170: a9 1f        	lda	#$1f
    3172: 20 1a 5e     	jsr	$5e1a <cputc>
    3175: a0 21        	ldy	#$21
    3177: b1 02        	lda	($2),y                  ; 0x2 <__rc0>
    3179: 85 04        	sta	$4                      ; 0x4 <__rc2>
    317b: c8           	iny
    317c: b1 02        	lda	($2),y                  ; 0x2 <__rc0>
    317e: 85 05        	sta	$5                      ; 0x5 <__rc3>
    3180: 20 be 4e     	jsr	$4ebe <msprintf>
    3183: a6 2b        	ldx	$2b                     ; 0x2b <g_curTextColor>
    3185: 86 16        	stx	$16                     ; 0x16 <__rc20>
    3187: a9 df        	lda	#$df
    3189: 25 2b        	and	$2b                     ; 0x2b <g_curTextColor>
    318b: 85 2b        	sta	$2b                     ; 0x2b <g_curTextColor>
    318d: a2 57        	ldx	#$57
    318f: 86 04        	stx	$4                      ; 0x4 <__rc2>
    3191: a2 6c        	ldx	#$6c
    3193: 86 05        	stx	$5                      ; 0x5 <__rc3>
    3195: 20 be 4e     	jsr	$4ebe <msprintf>
    3198: a5 16        	lda	$16                     ; 0x16 <__rc20>
    319a: 09 20        	ora	#$20
    319c: 85 2b        	sta	$2b                     ; 0x2b <g_curTextColor>
    319e: a2 54        	ldx	#$54
    31a0: 86 04        	stx	$4                      ; 0x4 <__rc2>
    31a2: a2 70        	ldx	#$70
    31a4: 86 05        	stx	$5                      ; 0x5 <__rc3>
    31a6: a2 0c        	ldx	#$c
    31a8: a9 06        	lda	#$6
    31aa: 20 cc 4e     	jsr	$4ecc <mcputsxy>
    31ad: a9 df        	lda	#$df
    31af: 25 2b        	and	$2b                     ; 0x2b <g_curTextColor>
    31b1: 85 2b        	sta	$2b                     ; 0x2b <g_curTextColor>
    31b3: a2 a2        	ldx	#$a2
    31b5: 86 04        	stx	$4                      ; 0x4 <__rc2>
    31b7: a2 6f        	ldx	#$6f
    31b9: 86 05        	stx	$5                      ; 0x5 <__rc3>
    31bb: 20 be 4e     	jsr	$4ebe <msprintf>
    31be: a2 0b        	ldx	#$b
    31c0: 86 04        	stx	$4                      ; 0x4 <__rc2>
    31c2: a2 6d        	ldx	#$6d
    31c4: 86 05        	stx	$5                      ; 0x5 <__rc3>
    31c6: a2 0e        	ldx	#$e
    31c8: a9 06        	lda	#$6
    31ca: 20 cc 4e     	jsr	$4ecc <mcputsxy>
    31cd: a2 c6        	ldx	#$c6
    31cf: 86 04        	stx	$4                      ; 0x4 <__rc2>
    31d1: a2 6b        	ldx	#$6b
    31d3: 86 05        	stx	$5                      ; 0x5 <__rc3>
    31d5: a2 0f        	ldx	#$f
    31d7: a9 06        	lda	#$6
    31d9: 20 cc 4e     	jsr	$4ecc <mcputsxy>
    31dc: a2 25        	ldx	#$25
    31de: 86 04        	stx	$4                      ; 0x4 <__rc2>
    31e0: a2 67        	ldx	#$67
    31e2: 86 05        	stx	$5                      ; 0x5 <__rc3>
    31e4: a2 10        	ldx	#$10
    31e6: a9 06        	lda	#$6
    31e8: 20 cc 4e     	jsr	$4ecc <mcputsxy>
    31eb: a9 20        	lda	#$20
    31ed: 05 2b        	ora	$2b                     ; 0x2b <g_curTextColor>
    31ef: 85 2b        	sta	$2b                     ; 0x2b <g_curTextColor>
    31f1: a2 d5        	ldx	#$d5
    31f3: 86 04        	stx	$4                      ; 0x4 <__rc2>
    31f5: a2 6f        	ldx	#$6f
    31f7: 86 05        	stx	$5                      ; 0x5 <__rc3>
    31f9: a2 12        	ldx	#$12
    31fb: a9 06        	lda	#$6
    31fd: 20 cc 4e     	jsr	$4ecc <mcputsxy>
    3200: a6 2b        	ldx	$2b                     ; 0x2b <g_curTextColor>
    3202: 86 17        	stx	$17                     ; 0x17 <__rc21>
    3204: a9 df        	lda	#$df
    3206: 25 2b        	and	$2b                     ; 0x2b <g_curTextColor>
    3208: 85 2b        	sta	$2b                     ; 0x2b <g_curTextColor>
    320a: 85 16        	sta	$16                     ; 0x16 <__rc20>
    320c: a2 16        	ldx	#$16
    320e: 86 04        	stx	$4                      ; 0x4 <__rc2>
    3210: a2 6a        	ldx	#$6a
    3212: 86 05        	stx	$5                      ; 0x5 <__rc3>
    3214: 20 be 4e     	jsr	$4ebe <msprintf>
    3217: a5 17        	lda	$17                     ; 0x17 <__rc21>
    3219: 09 20        	ora	#$20
    321b: 85 2b        	sta	$2b                     ; 0x2b <g_curTextColor>
    321d: 85 17        	sta	$17                     ; 0x17 <__rc21>
    321f: a2 8c        	ldx	#$8c
    3221: 86 04        	stx	$4                      ; 0x4 <__rc2>
    3223: a2 6e        	ldx	#$6e
    3225: 86 05        	stx	$5                      ; 0x5 <__rc3>
    3227: 20 be 4e     	jsr	$4ebe <msprintf>
    322a: a6 16        	ldx	$16                     ; 0x16 <__rc20>
    322c: 86 2b        	stx	$2b                     ; 0x2b <g_curTextColor>
    322e: a0 21        	ldy	#$21
    3230: b1 02        	lda	($2),y                  ; 0x2 <__rc0>
    3232: 85 04        	sta	$4                      ; 0x4 <__rc2>
    3234: c8           	iny
    3235: b1 02        	lda	($2),y                  ; 0x2 <__rc0>
    3237: 85 05        	sta	$5                      ; 0x5 <__rc3>
    3239: 20 be 4e     	jsr	$4ebe <msprintf>
    323c: a6 17        	ldx	$17                     ; 0x17 <__rc21>
    323e: 86 2b        	stx	$2b                     ; 0x2b <g_curTextColor>
    3240: a2 05        	ldx	#$5
    3242: 86 04        	stx	$4                      ; 0x4 <__rc2>
    3244: a2 6a        	ldx	#$6a
    3246: 86 05        	stx	$5                      ; 0x5 <__rc3>
    3248: 20 be 4e     	jsr	$4ebe <msprintf>
    324b: a6 16        	ldx	$16                     ; 0x16 <__rc20>
    324d: 86 2b        	stx	$2b                     ; 0x2b <g_curTextColor>
    324f: a2 50        	ldx	#$50
    3251: 86 04        	stx	$4                      ; 0x4 <__rc2>
    3253: a2 6d        	ldx	#$6d
    3255: 86 05        	stx	$5                      ; 0x5 <__rc3>
    3257: 20 be 4e     	jsr	$4ebe <msprintf>
    325a: a2 19        	ldx	#$19
    325c: 86 04        	stx	$4                      ; 0x4 <__rc2>
    325e: a2 6a        	ldx	#$6a
    3260: 86 05        	stx	$5                      ; 0x5 <__rc3>
    3262: a2 13        	ldx	#$13
    3264: a9 06        	lda	#$6
    3266: 20 cc 4e     	jsr	$4ecc <mcputsxy>
    3269: a2 b9        	ldx	#$b9
    326b: 86 04        	stx	$4                      ; 0x4 <__rc2>
    326d: a2 69        	ldx	#$69
    326f: 86 05        	stx	$5                      ; 0x5 <__rc3>
    3271: a2 14        	ldx	#$14
    3273: a9 06        	lda	#$6
    3275: 20 cc 4e     	jsr	$4ecc <mcputsxy>
    3278: a9 20        	lda	#$20
    327a: 05 2b        	ora	$2b                     ; 0x2b <g_curTextColor>
    327c: 85 2b        	sta	$2b                     ; 0x2b <g_curTextColor>
    327e: a2 0d        	ldx	#$d
    3280: 86 04        	stx	$4                      ; 0x4 <__rc2>
    3282: a2 6a        	ldx	#$6a
    3284: 86 05        	stx	$5                      ; 0x5 <__rc3>
    3286: a2 16        	ldx	#$16
    3288: a9 24        	lda	#$24
    328a: 20 cc 4e     	jsr	$4ecc <mcputsxy>
    328d: a9 df        	lda	#$df
    328f: 25 2b        	and	$2b                     ; 0x2b <g_curTextColor>
    3291: 85 2b        	sta	$2b                     ; 0x2b <g_curTextColor>
    3293: 20 50 60     	jsr	$6050 <cgetc>
    3296: c9 03        	cmp	#$3
    3298: d0 03        	bne	$329d <main+0x1187>
    329a: 4c fb 22     	jmp	$22fb <main+0x1e5>
    329d: c9 0d        	cmp	#$d
    329f: d0 03        	bne	$32a4 <main+0x118e>
    32a1: 4c fb 22     	jmp	$22fb <main+0x1e5>
    32a4: c9 1b        	cmp	#$1b
    32a6: d0 03        	bne	$32ab <main+0x1195>
    32a8: 4c fb 22     	jmp	$22fb <main+0x1e5>
    32ab: c9 20        	cmp	#$20
    32ad: f0 03        	beq	$32b2 <main+0x119c>
    32af: 4c be 2f     	jmp	$2fbe <main+0xea8>
    32b2: 4c fb 22     	jmp	$22fb <main+0x1e5>
    32b5: c0 70        	cpy	#$70
    32b7: d0 03        	bne	$32bc <main+0x11a6>
    32b9: 4c f1 3e     	jmp	$3ef1 <donehypchdir2+0x36>
    32bc: a9 01        	lda	#$1
    32be: 31 04        	and	($4),y                  ; 0x4 <__rc2>
    32c0: d0 03        	bne	$32c5 <main+0x11af>
    32c2: 4c d0 38     	jmp	$38d0 <main+0x17ba>
    32c5: 5a           	phy
    32c6: a5 04        	lda	$4                      ; 0x4 <__rc2>
    32c8: a0 10        	ldy	#$10
    32ca: 91 02        	sta	($2),y                  ; 0x2 <__rc0>
    32cc: a5 05        	lda	$5                      ; 0x5 <__rc3>
    32ce: c8           	iny
    32cf: 91 02        	sta	($2),y                  ; 0x2 <__rc0>
    32d1: a5 17        	lda	$17                     ; 0x17 <__rc21>
    32d3: a0 1f        	ldy	#$1f
    32d5: 91 02        	sta	($2),y                  ; 0x2 <__rc0>
    32d7: a5 21        	lda	$21                     ; 0x21 <__rc31>
    32d9: a0 17        	ldy	#$17
    32db: 91 02        	sta	($2),y                  ; 0x2 <__rc0>
    32dd: a5 1e        	lda	$1e                     ; 0x1e <__rc28>
    32df: a0 0e        	ldy	#$e
    32e1: 91 02        	sta	($2),y                  ; 0x2 <__rc0>
    32e3: 7a           	ply
    32e4: 98           	tya
    32e5: 5a           	phy
    32e6: a0 12        	ldy	#$12
    32e8: 91 02        	sta	($2),y                  ; 0x2 <__rc0>
    32ea: 7a           	ply
    32eb: 5a           	phy
    32ec: fa           	plx
    32ed: a5 16        	lda	$16                     ; 0x16 <__rc20>
    32ef: a0 1c        	ldy	#$1c
    32f1: 91 02        	sta	($2),y                  ; 0x2 <__rc0>
    32f3: 20 55 4c     	jsr	$4c55 <getdirententry>
    32f6: a6 04        	ldx	$4                      ; 0x4 <__rc2>
    32f8: 86 16        	stx	$16                     ; 0x16 <__rc20>
    32fa: a6 05        	ldx	$5                      ; 0x5 <__rc3>
    32fc: 86 17        	stx	$17                     ; 0x17 <__rc21>
    32fe: a2 da        	ldx	#$da
    3300: 86 04        	stx	$4                      ; 0x4 <__rc2>
    3302: a2 6f        	ldx	#$6f
    3304: 86 05        	stx	$5                      ; 0x5 <__rc3>
    3306: a5 04        	lda	$4                      ; 0x4 <__rc2>
    3308: a0 21        	ldy	#$21
    330a: 91 02        	sta	($2),y                  ; 0x2 <__rc0>
    330c: a5 05        	lda	$5                      ; 0x5 <__rc3>
    330e: c8           	iny
    330f: 91 02        	sta	($2),y                  ; 0x2 <__rc0>
    3311: 88           	dey
    3312: b1 02        	lda	($2),y                  ; 0x2 <__rc0>
    3314: 85 04        	sta	$4                      ; 0x4 <__rc2>
    3316: c8           	iny
    3317: b1 02        	lda	($2),y                  ; 0x2 <__rc0>
    3319: 85 05        	sta	$5                      ; 0x5 <__rc3>
    331b: a2 2f        	ldx	#$2f
    331d: 86 06        	stx	$6                      ; 0x6 <__rc4>
    331f: a2 6f        	ldx	#$6f
    3321: 86 07        	stx	$7                      ; 0x7 <__rc5>
    3323: a9 14        	lda	#$14
    3325: 20 54 51     	jsr	$5154 <progress>
    3328: a0 1d        	ldy	#$1d
    332a: b1 02        	lda	($2),y                  ; 0x2 <__rc0>
    332c: 85 04        	sta	$4                      ; 0x4 <__rc2>
    332e: c8           	iny
    332f: b1 02        	lda	($2),y                  ; 0x2 <__rc0>
    3331: 85 05        	sta	$5                      ; 0x5 <__rc3>
    3333: b2 04        	lda	($4),z                  ; 0x4 <__rc2>
    3335: 85 08        	sta	$8                      ; 0x8 <__rc6>
    3337: a0 03        	ldy	#$3
    3339: b1 16        	lda	($16),y                 ; 0x16 <__rc20>
    333b: 85 09        	sta	$9                      ; 0x9 <__rc7>
    333d: c8           	iny
    333e: b1 16        	lda	($16),y                 ; 0x16 <__rc20>
    3340: 64 04        	stz	$4                      ; 0x4 <__rc2>
    3342: a2 08        	ldx	#$8
    3344: 86 05        	stx	$5                      ; 0x5 <__rc3>
    3346: a2 80        	ldx	#$80
    3348: 86 06        	stx	$6                      ; 0x6 <__rc4>
    334a: a2 0c        	ldx	#$c
    334c: 86 07        	stx	$7                      ; 0x7 <__rc5>
    334e: 85 0a        	sta	$a                      ; 0xa <__zp_data_size>
    3350: a2 20        	ldx	#$20
    3352: a9 00        	lda	#$0
    3354: 20 74 45     	jsr	$4574 <readblockchain>
    3357: a0 21        	ldy	#$21
    3359: b1 02        	lda	($2),y                  ; 0x2 <__rc0>
    335b: 85 04        	sta	$4                      ; 0x4 <__rc2>
    335d: c8           	iny
    335e: b1 02        	lda	($2),y                  ; 0x2 <__rc0>
    3360: 85 05        	sta	$5                      ; 0x5 <__rc3>
    3362: a2 ef        	ldx	#$ef
    3364: 86 06        	stx	$6                      ; 0x6 <__rc4>
    3366: a2 69        	ldx	#$69
    3368: 86 07        	stx	$7                      ; 0x7 <__rc5>
    336a: a9 1e        	lda	#$1e
    336c: 20 54 51     	jsr	$5154 <progress>
    336f: a0 15        	ldy	#$15
    3371: b1 02        	lda	($2),y                  ; 0x2 <__rc0>
    3373: 20 df 44     	jsr	$44df <GetBAM>
    3376: a2 3a        	ldx	#$3a
    3378: 86 04        	stx	$4                      ; 0x4 <__rc2>
    337a: a2 6e        	ldx	#$6e
    337c: 86 05        	stx	$5                      ; 0x5 <__rc3>
    337e: a2 f7        	ldx	#$f7
    3380: 86 06        	stx	$6                      ; 0x6 <__rc4>
    3382: a2 67        	ldx	#$67
    3384: 86 07        	stx	$7                      ; 0x7 <__rc5>
    3386: a9 28        	lda	#$28
    3388: 20 54 51     	jsr	$5154 <progress>
    338b: a5 18        	lda	$18                     ; 0x18 <__rc22>
    338d: a0 18        	ldy	#$18
    338f: 91 02        	sta	($2),y                  ; 0x2 <__rc0>
    3391: a5 19        	lda	$19                     ; 0x19 <__rc23>
    3393: c8           	iny
    3394: 91 02        	sta	($2),y                  ; 0x2 <__rc0>
    3396: b2 18        	lda	($18),z                 ; 0x18 <__rc22>
    3398: 85 20        	sta	$20                     ; 0x20 <__rc30>
    339a: 18           	clc
    339b: a5 02        	lda	$2                      ; 0x2 <__rc0>
    339d: 69 26        	adc	#$26
    339f: 85 18        	sta	$18                     ; 0x18 <__rc22>
    33a1: a5 03        	lda	$3                      ; 0x3 <__rc1>
    33a3: 69 00        	adc	#$0
    33a5: 85 19        	sta	$19                     ; 0x19 <__rc23>
    33a7: a9 00        	lda	#$0
    33a9: 92 18        	sta	($18),z                 ; 0x18 <__rc22>
    33ab: 18           	clc
    33ac: a5 02        	lda	$2                      ; 0x2 <__rc0>
    33ae: 69 25        	adc	#$25
    33b0: 85 1a        	sta	$1a                     ; 0x1a <__zp_bss_size>
    33b2: a5 03        	lda	$3                      ; 0x3 <__rc1>
    33b4: 69 00        	adc	#$0
    33b6: 85 1b        	sta	$1b                     ; 0x1b <__rc25>
    33b8: a9 ff        	lda	#$ff
    33ba: aa           	tax
    33bb: 48           	pha
    33bc: 8a           	txa
    33bd: a0 21        	ldy	#$21
    33bf: 91 02        	sta	($2),y                  ; 0x2 <__rc0>
    33c1: 68           	pla
    33c2: 92 1a        	sta	($1a),z                 ; 0x1a <__zp_bss_size>
    33c4: 18           	clc
    33c5: a5 02        	lda	$2                      ; 0x2 <__rc0>
    33c7: 69 24        	adc	#$24
    33c9: 85 1c        	sta	$1c                     ; 0x1c <__rc26>
    33cb: a5 03        	lda	$3                      ; 0x3 <__rc1>
    33cd: 69 00        	adc	#$0
    33cf: 85 1d        	sta	$1d                     ; 0x1d <__rc27>
    33d1: a6 1c        	ldx	$1c                     ; 0x1c <__rc26>
    33d3: 86 04        	stx	$4                      ; 0x4 <__rc2>
    33d5: 85 05        	sta	$5                      ; 0x5 <__rc3>
    33d7: 18           	clc
    33d8: a5 02        	lda	$2                      ; 0x2 <__rc0>
    33da: 69 23        	adc	#$23
    33dc: 85 1e        	sta	$1e                     ; 0x1e <__rc28>
    33de: a5 03        	lda	$3                      ; 0x3 <__rc1>
    33e0: 69 00        	adc	#$0
    33e2: 85 1f        	sta	$1f                     ; 0x1f <__rc29>
    33e4: a6 1e        	ldx	$1e                     ; 0x1e <__rc28>
    33e6: 86 06        	stx	$6                      ; 0x6 <__rc4>
    33e8: 85 07        	sta	$7                      ; 0x7 <__rc5>
    33ea: 64 21        	stz	$21                     ; 0x21 <__rc31>
    33ec: a9 00        	lda	#$0
    33ee: 20 b0 4a     	jsr	$4ab0 <findnextBAMtracksector>
    33f1: b2 1c        	lda	($1c),z                 ; 0x1c <__rc26>
    33f3: 85 1d        	sta	$1d                     ; 0x1d <__rc27>
    33f5: b2 1e        	lda	($1e),z                 ; 0x1e <__rc28>
    33f7: a0 1a        	ldy	#$1a
    33f9: 91 02        	sta	($2),y                  ; 0x2 <__rc0>
    33fb: 85 1c        	sta	$1c                     ; 0x1c <__rc26>
    33fd: a5 1d        	lda	$1d                     ; 0x1d <__rc27>
    33ff: a0 16        	ldy	#$16
    3401: 91 02        	sta	($2),y                  ; 0x2 <__rc0>
    3403: a0 00        	ldy	#$0
    3405: a2 00        	ldx	#$0
    3407: e0 0c        	cpx	#$c
    3409: d0 07        	bne	$3412 <main+0x12fc>
    340b: c0 80        	cpy	#$80
    340d: d0 03        	bne	$3412 <main+0x12fc>
    340f: 4c a1 34     	jmp	$34a1 <main+0x138b>
    3412: 18           	clc
    3413: 84 1f        	sty	$1f                     ; 0x1f <__rc29>
    3415: 98           	tya
    3416: 69 20        	adc	#$20
    3418: 85 0c        	sta	$c                      ; 0xc <__rc10>
    341a: 86 1e        	stx	$1e                     ; 0x1e <__rc28>
    341c: 8a           	txa
    341d: 69 00        	adc	#$0
    341f: 85 04        	sta	$4                      ; 0x4 <__rc2>
    3421: a9 00        	lda	#$0
    3423: 69 08        	adc	#$8
    3425: 85 05        	sta	$5                      ; 0x5 <__rc3>
    3427: 64 06        	stz	$6                      ; 0x6 <__rc4>
    3429: a0 18        	ldy	#$18
    342b: 84 07        	sty	$7                      ; 0x7 <__rc5>
    342d: 64 08        	stz	$8                      ; 0x8 <__rc6>
    342f: 64 09        	stz	$9                      ; 0x9 <__rc7>
    3431: 64 0a        	stz	$a                      ; 0xa <__zp_data_size>
    3433: a2 01        	ldx	#$1
    3435: 86 0b        	stx	$b                      ; 0xb <__rc9>
    3437: a6 0c        	ldx	$c                      ; 0xc <__rc10>
    3439: a9 00        	lda	#$0
    343b: 20 80 60     	jsr	$6080 <lcopy>
    343e: ae 00 18     	ldx	$1800                   ; 0x1800 <__heap_default_limit+0x800>
    3441: f0 29        	beq	$346c <main+0x1356>
    3443: a6 18        	ldx	$18                     ; 0x18 <__rc22>
    3445: 86 04        	stx	$4                      ; 0x4 <__rc2>
    3447: a6 19        	ldx	$19                     ; 0x19 <__rc23>
    3449: 86 05        	stx	$5                      ; 0x5 <__rc3>
    344b: a6 1a        	ldx	$1a                     ; 0x1a <__zp_bss_size>
    344d: 86 06        	stx	$6                      ; 0x6 <__rc4>
    344f: a6 1b        	ldx	$1b                     ; 0x1b <__rc25>
    3451: 86 07        	stx	$7                      ; 0x7 <__rc5>
    3453: a9 00        	lda	#$0
    3455: 20 b0 4a     	jsr	$4ab0 <findnextBAMtracksector>
    3458: b2 18        	lda	($18),z                 ; 0x18 <__rc22>
    345a: 85 21        	sta	$21                     ; 0x21 <__rc31>
    345c: b2 18        	lda	($18),z                 ; 0x18 <__rc22>
    345e: 8d 00 18     	sta	$1800                   ; 0x1800 <__heap_default_limit+0x800>
    3461: b2 1a        	lda	($1a),z                 ; 0x1a <__zp_bss_size>
    3463: a0 21        	ldy	#$21
    3465: 91 02        	sta	($2),y                  ; 0x2 <__rc0>
    3467: b2 1a        	lda	($1a),z                 ; 0x1a <__zp_bss_size>
    3469: 8d 01 18     	sta	$1801                   ; 0x1801 <__heap_default_limit+0x801>
    346c: a2 00        	ldx	#$0
    346e: 86 04        	stx	$4                      ; 0x4 <__rc2>
    3470: a2 18        	ldx	#$18
    3472: 86 05        	stx	$5                      ; 0x5 <__rc3>
    3474: a6 1c        	ldx	$1c                     ; 0x1c <__rc26>
    3476: 86 06        	stx	$6                      ; 0x6 <__rc4>
    3478: a6 1d        	ldx	$1d                     ; 0x1d <__rc27>
    347a: a5 20        	lda	$20                     ; 0x20 <__rc30>
    347c: 20 19 44     	jsr	$4419 <PutOneSector>
    347f: ad 00 18     	lda	$1800                   ; 0x1800 <__heap_default_limit+0x800>
    3482: a4 1f        	ldy	$1f                     ; 0x1f <__rc29>
    3484: a6 1e        	ldx	$1e                     ; 0x1e <__rc28>
    3486: c8           	iny
    3487: d0 01        	bne	$348a <main+0x1374>
    3489: e8           	inx
    348a: 48           	pha
    348b: 5a           	phy
    348c: a0 21        	ldy	#$21
    348e: b1 02        	lda	($2),y                  ; 0x2 <__rc0>
    3490: 7a           	ply
    3491: 85 1c        	sta	$1c                     ; 0x1c <__rc26>
    3493: 68           	pla
    3494: 5a           	phy
    3495: a4 21        	ldy	$21                     ; 0x21 <__rc31>
    3497: 84 1d        	sty	$1d                     ; 0x1d <__rc27>
    3499: 7a           	ply
    349a: c9 00        	cmp	#$0
    349c: f0 24        	beq	$34c2 <main+0x13ac>
    349e: 4c 07 34     	jmp	$3407 <main+0x12f1>
    34a1: a5 21        	lda	$21                     ; 0x21 <__rc31>
    34a3: f0 1d        	beq	$34c2 <main+0x13ac>
    34a5: a2 fa        	ldx	#$fa
    34a7: 86 04        	stx	$4                      ; 0x4 <__rc2>
    34a9: a2 6e        	ldx	#$6e
    34ab: 86 05        	stx	$5                      ; 0x5 <__rc3>
    34ad: a2 57        	ldx	#$57
    34af: 86 06        	stx	$6                      ; 0x6 <__rc4>
    34b1: a2 67        	ldx	#$67
    34b3: 86 07        	stx	$7                      ; 0x7 <__rc5>
    34b5: a2 b7        	ldx	#$b7
    34b7: 86 08        	stx	$8                      ; 0x8 <__rc6>
    34b9: a2 67        	ldx	#$67
    34bb: 86 09        	stx	$9                      ; 0x9 <__rc7>
    34bd: a9 00        	lda	#$0
    34bf: 20 6d 50     	jsr	$506d <messagebox>
    34c2: a0 03        	ldy	#$3
    34c4: 5a           	phy
    34c5: a0 16        	ldy	#$16
    34c7: b1 02        	lda	($2),y                  ; 0x2 <__rc0>
    34c9: 7a           	ply
    34ca: 91 16        	sta	($16),y                 ; 0x16 <__rc20>
    34cc: a0 04        	ldy	#$4
    34ce: 5a           	phy
    34cf: a0 1a        	ldy	#$1a
    34d1: b1 02        	lda	($2),y                  ; 0x2 <__rc0>
    34d3: 7a           	ply
    34d4: 91 16        	sta	($16),y                 ; 0x16 <__rc20>
    34d6: a2 3a        	ldx	#$3a
    34d8: 86 04        	stx	$4                      ; 0x4 <__rc2>
    34da: a2 6e        	ldx	#$6e
    34dc: 86 05        	stx	$5                      ; 0x5 <__rc3>
    34de: a2 59        	ldx	#$59
    34e0: 86 06        	stx	$6                      ; 0x6 <__rc4>
    34e2: a2 70        	ldx	#$70
    34e4: 86 07        	stx	$7                      ; 0x7 <__rc5>
    34e6: a9 3c        	lda	#$3c
    34e8: 20 54 51     	jsr	$5154 <progress>
    34eb: a0 18        	ldy	#$18
    34ed: b1 02        	lda	($2),y                  ; 0x2 <__rc0>
    34ef: 85 18        	sta	$18                     ; 0x18 <__rc22>
    34f1: c8           	iny
    34f2: b1 02        	lda	($2),y                  ; 0x2 <__rc0>
    34f4: 85 19        	sta	$19                     ; 0x19 <__rc23>
    34f6: b2 18        	lda	($18),z                 ; 0x18 <__rc22>
    34f8: a0 0f        	ldy	#$f
    34fa: 91 02        	sta	($2),y                  ; 0x2 <__rc0>
    34fc: a0 47        	ldy	#$47
    34fe: b1 18        	lda	($18),y                 ; 0x18 <__rc22>
    3500: a0 14        	ldy	#$14
    3502: 91 02        	sta	($2),y                  ; 0x2 <__rc0>
    3504: a2 03        	ldx	#$3
    3506: 8a           	txa
    3507: 88           	dey
    3508: 91 02        	sta	($2),y                  ; 0x2 <__rc0>
    350a: a2 08        	ldx	#$8
    350c: 8a           	txa
    350d: a0 1a        	ldy	#$1a
    350f: 91 02        	sta	($2),y                  ; 0x2 <__rc0>
    3511: 64 1f        	stz	$1f                     ; 0x1f <__rc29>
    3513: 64 1b        	stz	$1b                     ; 0x1b <__rc25>
    3515: 64 04        	stz	$4                      ; 0x4 <__rc2>
    3517: a9 00        	lda	#$0
    3519: a0 16        	ldy	#$16
    351b: 91 02        	sta	($2),y                  ; 0x2 <__rc0>
    351d: a8           	tay
    351e: 64 20        	stz	$20                     ; 0x20 <__rc30>
    3520: 5a           	phy
    3521: a0 0e        	ldy	#$e
    3523: b1 02        	lda	($2),y                  ; 0x2 <__rc0>
    3525: 85 1e        	sta	$1e                     ; 0x1e <__rc28>
    3527: a0 17        	ldy	#$17
    3529: b1 02        	lda	($2),y                  ; 0x2 <__rc0>
    352b: 85 1c        	sta	$1c                     ; 0x1c <__rc26>
    352d: a0 1f        	ldy	#$1f
    352f: b1 02        	lda	($2),y                  ; 0x2 <__rc0>
    3531: 7a           	ply
    3532: 85 09        	sta	$9                      ; 0x9 <__rc7>
    3534: 4c 01 36     	jmp	$3601 <main+0x14eb>
    3537: e4 20        	cpx	$20                     ; 0x20 <__rc30>
    3539: 90 03        	bcc	$353e <main+0x1428>
    353b: 4c 4d 36     	jmp	$364d <main+0x1537>
    353e: 5a           	phy
    353f: a5 16        	lda	$16                     ; 0x16 <__rc20>
    3541: a0 21        	ldy	#$21
    3543: 91 02        	sta	($2),y                  ; 0x2 <__rc0>
    3545: a5 17        	lda	$17                     ; 0x17 <__rc21>
    3547: c8           	iny
    3548: 91 02        	sta	($2),y                  ; 0x2 <__rc0>
    354a: 7a           	ply
    354b: a6 09        	ldx	$9                      ; 0x9 <__rc7>
    354d: 86 17        	stx	$17                     ; 0x17 <__rc21>
    354f: a6 1c        	ldx	$1c                     ; 0x1c <__rc26>
    3551: 86 16        	stx	$16                     ; 0x16 <__rc20>
    3553: 84 1a        	sty	$1a                     ; 0x1a <__zp_bss_size>
    3555: a5 1e        	lda	$1e                     ; 0x1e <__rc28>
    3557: 18           	clc
    3558: 65 1d        	adc	$1d                     ; 0x1d <__rc27>
    355a: 85 0c        	sta	$c                      ; 0xc <__rc10>
    355c: a5 09        	lda	$9                      ; 0x9 <__rc7>
    355e: 65 0a        	adc	$a                      ; 0xa <__zp_data_size>
    3560: 85 0d        	sta	$d                      ; 0xd <__rc11>
    3562: a5 1e        	lda	$1e                     ; 0x1e <__rc28>
    3564: 69 00        	adc	#$0
    3566: 85 06        	sta	$6                      ; 0x6 <__rc4>
    3568: a5 1c        	lda	$1c                     ; 0x1c <__rc26>
    356a: 69 00        	adc	#$0
    356c: 48           	pha
    356d: a5 06        	lda	$6                      ; 0x6 <__rc4>
    356f: a0 0d        	ldy	#$d
    3571: 91 02        	sta	($2),y                  ; 0x2 <__rc0>
    3573: 68           	pla
    3574: a6 06        	ldx	$6                      ; 0x6 <__rc4>
    3576: 86 04        	stx	$4                      ; 0x4 <__rc2>
    3578: 85 21        	sta	$21                     ; 0x21 <__rc31>
    357a: 85 05        	sta	$5                      ; 0x5 <__rc3>
    357c: 64 06        	stz	$6                      ; 0x6 <__rc4>
    357e: a0 1b        	ldy	#$1b
    3580: 84 07        	sty	$7                      ; 0x7 <__rc5>
    3582: 64 08        	stz	$8                      ; 0x8 <__rc6>
    3584: 64 09        	stz	$9                      ; 0x9 <__rc7>
    3586: a0 20        	ldy	#$20
    3588: 84 0a        	sty	$a                      ; 0xa <__zp_data_size>
    358a: 64 0b        	stz	$b                      ; 0xb <__rc9>
    358c: a6 0d        	ldx	$d                      ; 0xd <__rc11>
    358e: 86 1d        	stx	$1d                     ; 0x1d <__rc27>
    3590: a5 0c        	lda	$c                      ; 0xc <__rc10>
    3592: 85 1c        	sta	$1c                     ; 0x1c <__rc26>
    3594: 20 80 60     	jsr	$6080 <lcopy>
    3597: a5 1a        	lda	$1a                     ; 0x1a <__zp_bss_size>
    3599: 29 07        	and	#$7
    359b: f0 04        	beq	$35a1 <main+0x148b>
    359d: a0 01        	ldy	#$1
    359f: 80 1f        	bra	$35c0 <main+0x14aa>
    35a1: a6 1a        	ldx	$1a                     ; 0x1a <__zp_bss_size>
    35a3: a0 01        	ldy	#$1
    35a5: a5 1a        	lda	$1a                     ; 0x1a <__zp_bss_size>
    35a7: d0 03        	bne	$35ac <main+0x1496>
    35a9: 4c d4 38     	jmp	$38d4 <main+0x17be>
    35ac: 5a           	phy
    35ad: 8a           	txa
    35ae: a0 16        	ldy	#$16
    35b0: 91 02        	sta	($2),y                  ; 0x2 <__rc0>
    35b2: a6 1b        	ldx	$1b                     ; 0x1b <__rc25>
    35b4: 8a           	txa
    35b5: a0 14        	ldy	#$14
    35b7: 91 02        	sta	($2),y                  ; 0x2 <__rc0>
    35b9: a6 1f        	ldx	$1f                     ; 0x1f <__rc29>
    35bb: 8a           	txa
    35bc: 88           	dey
    35bd: 91 02        	sta	($2),y                  ; 0x2 <__rc0>
    35bf: 7a           	ply
    35c0: ae 00 1b     	ldx	$1b00                   ; 0x1b00 <__heap_default_limit+0xb00>
    35c3: f0 1a        	beq	$35df <main+0x14c9>
    35c5: 18           	clc
    35c6: 86 1b        	stx	$1b                     ; 0x1b <__rc25>
    35c8: 5a           	phy
    35c9: a0 1a        	ldy	#$1a
    35cb: b1 02        	lda	($2),y                  ; 0x2 <__rc0>
    35cd: 69 08        	adc	#$8
    35cf: 91 02        	sta	($2),y                  ; 0x2 <__rc0>
    35d1: 7a           	ply
    35d2: a5 20        	lda	$20                     ; 0x20 <__rc30>
    35d4: 69 00        	adc	#$0
    35d6: 85 20        	sta	$20                     ; 0x20 <__rc30>
    35d8: ae 01 1b     	ldx	$1b01                   ; 0x1b01 <__heap_default_limit+0xb01>
    35db: 86 1f        	stx	$1f                     ; 0x1f <__rc29>
    35dd: a6 1b        	ldx	$1b                     ; 0x1b <__rc25>
    35df: a9 0f        	lda	#$f
    35e1: 2d 02 1b     	and	$1b02                   ; 0x1b02 <__heap_default_limit+0xb02>
    35e4: d0 03        	bne	$35e9 <main+0x14d3>
    35e6: 4c de 38     	jmp	$38de <main+0x17c8>
    35e9: a4 1a        	ldy	$1a                     ; 0x1a <__zp_bss_size>
    35eb: c8           	iny
    35ec: a6 16        	ldx	$16                     ; 0x16 <__rc20>
    35ee: 86 1c        	stx	$1c                     ; 0x1c <__rc26>
    35f0: a6 17        	ldx	$17                     ; 0x17 <__rc21>
    35f2: 86 09        	stx	$9                      ; 0x9 <__rc7>
    35f4: 5a           	phy
    35f5: a0 21        	ldy	#$21
    35f7: b1 02        	lda	($2),y                  ; 0x2 <__rc0>
    35f9: 85 16        	sta	$16                     ; 0x16 <__rc20>
    35fb: c8           	iny
    35fc: b1 02        	lda	($2),y                  ; 0x2 <__rc0>
    35fe: 7a           	ply
    35ff: 85 17        	sta	$17                     ; 0x17 <__rc21>
    3601: 98           	tya
    3602: 4a           	lsr
    3603: a2 01        	ldx	#$1
    3605: b0 02        	bcs	$3609 <main+0x14f3>
    3607: a2 00        	ldx	#$0
    3609: 86 06        	stx	$6                      ; 0x6 <__rc4>
    360b: 4a           	lsr
    360c: a2 01        	ldx	#$1
    360e: b0 02        	bcs	$3612 <main+0x14fc>
    3610: a2 00        	ldx	#$0
    3612: 86 05        	stx	$5                      ; 0x5 <__rc3>
    3614: 85 04        	sta	$4                      ; 0x4 <__rc2>
    3616: 64 1d        	stz	$1d                     ; 0x1d <__rc27>
    3618: a6 06        	ldx	$6                      ; 0x6 <__rc4>
    361a: e0 01        	cpx	#$1
    361c: 66 1d        	ror	$1d                     ; 0x1d <__rc27>
    361e: 46 04        	lsr	$4                      ; 0x4 <__rc2>
    3620: 48           	pha
    3621: a5 04        	lda	$4                      ; 0x4 <__rc2>
    3623: 5a           	phy
    3624: a0 17        	ldy	#$17
    3626: 91 02        	sta	($2),y                  ; 0x2 <__rc0>
    3628: 7a           	ply
    3629: 68           	pla
    362a: a6 05        	ldx	$5                      ; 0x5 <__rc3>
    362c: e0 01        	cpx	#$1
    362e: 66 1d        	ror	$1d                     ; 0x1d <__rc27>
    3630: 4a           	lsr
    3631: 85 0a        	sta	$a                      ; 0xa <__zp_data_size>
    3633: 66 1d        	ror	$1d                     ; 0x1d <__rc27>
    3635: a2 00        	ldx	#$0
    3637: e4 20        	cpx	$20                     ; 0x20 <__rc30>
    3639: f0 03        	beq	$363e <main+0x1528>
    363b: 4c 37 35     	jmp	$3537 <main+0x1421>
    363e: 5a           	phy
    363f: a0 1a        	ldy	#$1a
    3641: b1 02        	lda	($2),y                  ; 0x2 <__rc0>
    3643: 7a           	ply
    3644: 85 04        	sta	$4                      ; 0x4 <__rc2>
    3646: c4 04        	cpy	$4                      ; 0x4 <__rc2>
    3648: b0 03        	bcs	$364d <main+0x1537>
    364a: 4c 3e 35     	jmp	$353e <main+0x1428>
    364d: 18           	clc
    364e: a5 02        	lda	$2                      ; 0x2 <__rc0>
    3650: 69 28        	adc	#$28
    3652: 85 18        	sta	$18                     ; 0x18 <__rc22>
    3654: a5 03        	lda	$3                      ; 0x3 <__rc1>
    3656: 69 00        	adc	#$0
    3658: 85 19        	sta	$19                     ; 0x19 <__rc23>
    365a: a5 1b        	lda	$1b                     ; 0x1b <__rc25>
    365c: 92 18        	sta	($18),z                 ; 0x18 <__rc22>
    365e: 18           	clc
    365f: a5 02        	lda	$2                      ; 0x2 <__rc0>
    3661: 69 27        	adc	#$27
    3663: 85 1a        	sta	$1a                     ; 0x1a <__zp_bss_size>
    3665: a5 03        	lda	$3                      ; 0x3 <__rc1>
    3667: 69 00        	adc	#$0
    3669: 85 1b        	sta	$1b                     ; 0x1b <__rc25>
    366b: a5 1f        	lda	$1f                     ; 0x1f <__rc29>
    366d: 92 1a        	sta	($1a),z                 ; 0x1a <__zp_bss_size>
    366f: a6 1e        	ldx	$1e                     ; 0x1e <__rc28>
    3671: 86 1f        	stx	$1f                     ; 0x1f <__rc29>
    3673: a0 16        	ldy	#$16
    3675: b1 02        	lda	($2),y                  ; 0x2 <__rc0>
    3677: 85 1e        	sta	$1e                     ; 0x1e <__rc28>
    3679: 46 1e        	lsr	$1e                     ; 0x1e <__rc28>
    367b: a9 00        	lda	#$0
    367d: 6a           	ror
    367e: 46 1e        	lsr	$1e                     ; 0x1e <__rc28>
    3680: 6a           	ror
    3681: a6 1e        	ldx	$1e                     ; 0x1e <__rc28>
    3683: 86 04        	stx	$4                      ; 0x4 <__rc2>
    3685: 46 04        	lsr	$4                      ; 0x4 <__rc2>
    3687: 6a           	ror
    3688: 85 05        	sta	$5                      ; 0x5 <__rc3>
    368a: a6 1f        	ldx	$1f                     ; 0x1f <__rc29>
    368c: 8a           	txa
    368d: a0 0c        	ldy	#$c
    368f: 91 02        	sta	($2),y                  ; 0x2 <__rc0>
    3691: a5 1f        	lda	$1f                     ; 0x1f <__rc29>
    3693: 18           	clc
    3694: 65 05        	adc	$5                      ; 0x5 <__rc3>
    3696: 85 21        	sta	$21                     ; 0x21 <__rc31>
    3698: a6 09        	ldx	$9                      ; 0x9 <__rc7>
    369a: 8a           	txa
    369b: 88           	dey
    369c: 91 02        	sta	($2),y                  ; 0x2 <__rc0>
    369e: a5 09        	lda	$9                      ; 0x9 <__rc7>
    36a0: 65 04        	adc	$4                      ; 0x4 <__rc2>
    36a2: 48           	pha
    36a3: a5 16        	lda	$16                     ; 0x16 <__rc20>
    36a5: a0 21        	ldy	#$21
    36a7: 91 02        	sta	($2),y                  ; 0x2 <__rc0>
    36a9: a5 17        	lda	$17                     ; 0x17 <__rc21>
    36ab: c8           	iny
    36ac: 91 02        	sta	($2),y                  ; 0x2 <__rc0>
    36ae: 68           	pla
    36af: 85 16        	sta	$16                     ; 0x16 <__rc20>
    36b1: a5 09        	lda	$9                      ; 0x9 <__rc7>
    36b3: a0 1f        	ldy	#$1f
    36b5: 91 02        	sta	($2),y                  ; 0x2 <__rc0>
    36b7: a6 1f        	ldx	$1f                     ; 0x1f <__rc29>
    36b9: 8a           	txa
    36ba: a0 08        	ldy	#$8
    36bc: 91 02        	sta	($2),y                  ; 0x2 <__rc0>
    36be: a5 1f        	lda	$1f                     ; 0x1f <__rc29>
    36c0: 69 00        	adc	#$0
    36c2: 85 17        	sta	$17                     ; 0x17 <__rc21>
    36c4: a5 1c        	lda	$1c                     ; 0x1c <__rc26>
    36c6: a0 0a        	ldy	#$a
    36c8: 91 02        	sta	($2),y                  ; 0x2 <__rc0>
    36ca: 69 00        	adc	#$0
    36cc: 85 20        	sta	$20                     ; 0x20 <__rc30>
    36ce: a6 17        	ldx	$17                     ; 0x17 <__rc21>
    36d0: 86 04        	stx	$4                      ; 0x4 <__rc2>
    36d2: 85 05        	sta	$5                      ; 0x5 <__rc3>
    36d4: 64 06        	stz	$6                      ; 0x6 <__rc4>
    36d6: a2 1b        	ldx	#$1b
    36d8: 86 07        	stx	$7                      ; 0x7 <__rc5>
    36da: 64 08        	stz	$8                      ; 0x8 <__rc6>
    36dc: 64 09        	stz	$9                      ; 0x9 <__rc7>
    36de: a2 20        	ldx	#$20
    36e0: a5 0a        	lda	$a                      ; 0xa <__zp_data_size>
    36e2: 88           	dey
    36e3: 91 02        	sta	($2),y                  ; 0x2 <__rc0>
    36e5: 86 0a        	stx	$a                      ; 0xa <__zp_data_size>
    36e7: 64 0b        	stz	$b                      ; 0xb <__rc9>
    36e9: a6 16        	ldx	$16                     ; 0x16 <__rc20>
    36eb: a5 21        	lda	$21                     ; 0x21 <__rc31>
    36ed: 20 80 60     	jsr	$6080 <lcopy>
    36f0: a6 18        	ldx	$18                     ; 0x18 <__rc22>
    36f2: 86 04        	stx	$4                      ; 0x4 <__rc2>
    36f4: a6 19        	ldx	$19                     ; 0x19 <__rc23>
    36f6: 86 05        	stx	$5                      ; 0x5 <__rc3>
    36f8: a6 1a        	ldx	$1a                     ; 0x1a <__zp_bss_size>
    36fa: 86 06        	stx	$6                      ; 0x6 <__rc4>
    36fc: a6 1b        	ldx	$1b                     ; 0x1b <__rc25>
    36fe: 86 07        	stx	$7                      ; 0x7 <__rc5>
    3700: a9 01        	lda	#$1
    3702: 20 b0 4a     	jsr	$4ab0 <findnextBAMtracksector>
    3705: b2 18        	lda	($18),z                 ; 0x18 <__rc22>
    3707: a0 16        	ldy	#$16
    3709: 91 02        	sta	($2),y                  ; 0x2 <__rc0>
    370b: b2 18        	lda	($18),z                 ; 0x18 <__rc22>
    370d: 8d 00 1b     	sta	$1b00                   ; 0x1b00 <__heap_default_limit+0xb00>
    3710: b2 1a        	lda	($1a),z                 ; 0x1a <__zp_bss_size>
    3712: a0 0d        	ldy	#$d
    3714: 91 02        	sta	($2),y                  ; 0x2 <__rc0>
    3716: b2 1a        	lda	($1a),z                 ; 0x1a <__zp_bss_size>
    3718: 8d 01 1b     	sta	$1b01                   ; 0x1b01 <__heap_default_limit+0xb01>
    371b: a6 21        	ldx	$21                     ; 0x21 <__rc31>
    371d: 86 06        	stx	$6                      ; 0x6 <__rc4>
    371f: a6 16        	ldx	$16                     ; 0x16 <__rc20>
    3721: 86 07        	stx	$7                      ; 0x7 <__rc5>
    3723: 64 04        	stz	$4                      ; 0x4 <__rc2>
    3725: 64 05        	stz	$5                      ; 0x5 <__rc3>
    3727: a6 17        	ldx	$17                     ; 0x17 <__rc21>
    3729: 86 08        	stx	$8                      ; 0x8 <__rc6>
    372b: a6 20        	ldx	$20                     ; 0x20 <__rc30>
    372d: 86 09        	stx	$9                      ; 0x9 <__rc7>
    372f: a2 20        	ldx	#$20
    3731: 86 0a        	stx	$a                      ; 0xa <__zp_data_size>
    3733: 64 0b        	stz	$b                      ; 0xb <__rc9>
    3735: a2 1b        	ldx	#$1b
    3737: a9 00        	lda	#$0
    3739: 20 80 60     	jsr	$6080 <lcopy>
    373c: a6 1e        	ldx	$1e                     ; 0x1e <__rc28>
    373e: 86 05        	stx	$5                      ; 0x5 <__rc3>
    3740: a6 1f        	ldx	$1f                     ; 0x1f <__rc29>
    3742: 86 1e        	stx	$1e                     ; 0x1e <__rc28>
    3744: 46 05        	lsr	$5                      ; 0x5 <__rc3>
    3746: a9 00        	lda	#$0
    3748: 18           	clc
    3749: 65 1f        	adc	$1f                     ; 0x1f <__rc29>
    374b: a2 01        	ldx	#$1
    374d: b0 02        	bcs	$3751 <main+0x163b>
    374f: a2 00        	ldx	#$0
    3751: 86 19        	stx	$19                     ; 0x19 <__rc23>
    3753: 85 18        	sta	$18                     ; 0x18 <__rc22>
    3755: a0 1f        	ldy	#$1f
    3757: b1 02        	lda	($2),y                  ; 0x2 <__rc0>
    3759: 85 04        	sta	$4                      ; 0x4 <__rc2>
    375b: a5 05        	lda	$5                      ; 0x5 <__rc3>
    375d: 65 04        	adc	$4                      ; 0x4 <__rc2>
    375f: 85 0c        	sta	$c                      ; 0xc <__rc10>
    3761: a9 00        	lda	#$0
    3763: 65 1f        	adc	$1f                     ; 0x1f <__rc29>
    3765: 85 04        	sta	$4                      ; 0x4 <__rc2>
    3767: a9 00        	lda	#$0
    3769: 65 1c        	adc	$1c                     ; 0x1c <__rc26>
    376b: 85 05        	sta	$5                      ; 0x5 <__rc3>
    376d: 64 06        	stz	$6                      ; 0x6 <__rc4>
    376f: a2 18        	ldx	#$18
    3771: 86 07        	stx	$7                      ; 0x7 <__rc5>
    3773: 64 08        	stz	$8                      ; 0x8 <__rc6>
    3775: 64 09        	stz	$9                      ; 0x9 <__rc7>
    3777: 64 0a        	stz	$a                      ; 0xa <__zp_data_size>
    3779: a2 01        	ldx	#$1
    377b: 86 0b        	stx	$b                      ; 0xb <__rc9>
    377d: a6 0c        	ldx	$c                      ; 0xc <__rc10>
    377f: a5 18        	lda	$18                     ; 0x18 <__rc22>
    3781: 20 80 60     	jsr	$6080 <lcopy>
    3784: a2 00        	ldx	#$0
    3786: 86 04        	stx	$4                      ; 0x4 <__rc2>
    3788: a2 18        	ldx	#$18
    378a: 86 05        	stx	$5                      ; 0x5 <__rc3>
    378c: a5 04        	lda	$4                      ; 0x4 <__rc2>
    378e: a0 1a        	ldy	#$1a
    3790: 91 02        	sta	($2),y                  ; 0x2 <__rc0>
    3792: a5 05        	lda	$5                      ; 0x5 <__rc3>
    3794: c8           	iny
    3795: 91 02        	sta	($2),y                  ; 0x2 <__rc0>
    3797: 88           	dey
    3798: b1 02        	lda	($2),y                  ; 0x2 <__rc0>
    379a: 85 04        	sta	$4                      ; 0x4 <__rc2>
    379c: c8           	iny
    379d: b1 02        	lda	($2),y                  ; 0x2 <__rc0>
    379f: 85 05        	sta	$5                      ; 0x5 <__rc3>
    37a1: a0 13        	ldy	#$13
    37a3: b1 02        	lda	($2),y                  ; 0x2 <__rc0>
    37a5: 85 06        	sta	$6                      ; 0x6 <__rc4>
    37a7: c8           	iny
    37a8: b1 02        	lda	($2),y                  ; 0x2 <__rc0>
    37aa: aa           	tax
    37ab: a0 0f        	ldy	#$f
    37ad: b1 02        	lda	($2),y                  ; 0x2 <__rc0>
    37af: 85 1a        	sta	$1a                     ; 0x1a <__zp_bss_size>
    37b1: 20 19 44     	jsr	$4419 <PutOneSector>
    37b4: a0 0c        	ldy	#$c
    37b6: b1 02        	lda	($2),y                  ; 0x2 <__rc0>
    37b8: 18           	clc
    37b9: 65 1d        	adc	$1d                     ; 0x1d <__rc27>
    37bb: 85 1b        	sta	$1b                     ; 0x1b <__rc25>
    37bd: 88           	dey
    37be: b1 02        	lda	($2),y                  ; 0x2 <__rc0>
    37c0: 48           	pha
    37c1: a0 09        	ldy	#$9
    37c3: b1 02        	lda	($2),y                  ; 0x2 <__rc0>
    37c5: 85 04        	sta	$4                      ; 0x4 <__rc2>
    37c7: 68           	pla
    37c8: 65 04        	adc	$4                      ; 0x4 <__rc2>
    37ca: 85 1d        	sta	$1d                     ; 0x1d <__rc27>
    37cc: 88           	dey
    37cd: b1 02        	lda	($2),y                  ; 0x2 <__rc0>
    37cf: 48           	pha
    37d0: a0 1f        	ldy	#$1f
    37d2: b1 02        	lda	($2),y                  ; 0x2 <__rc0>
    37d4: 85 17        	sta	$17                     ; 0x17 <__rc21>
    37d6: 68           	pla
    37d7: a6 1c        	ldx	$1c                     ; 0x1c <__rc26>
    37d9: 86 21        	stx	$21                     ; 0x21 <__rc31>
    37db: 69 00        	adc	#$0
    37dd: 85 1c        	sta	$1c                     ; 0x1c <__rc26>
    37df: a0 0a        	ldy	#$a
    37e1: b1 02        	lda	($2),y                  ; 0x2 <__rc0>
    37e3: 69 00        	adc	#$0
    37e5: 85 1f        	sta	$1f                     ; 0x1f <__rc29>
    37e7: a6 1c        	ldx	$1c                     ; 0x1c <__rc26>
    37e9: 86 04        	stx	$4                      ; 0x4 <__rc2>
    37eb: 85 05        	sta	$5                      ; 0x5 <__rc3>
    37ed: 64 06        	stz	$6                      ; 0x6 <__rc4>
    37ef: 64 07        	stz	$7                      ; 0x7 <__rc5>
    37f1: a2 01        	ldx	#$1
    37f3: 86 08        	stx	$8                      ; 0x8 <__rc6>
    37f5: a6 1d        	ldx	$1d                     ; 0x1d <__rc27>
    37f7: a5 1b        	lda	$1b                     ; 0x1b <__rc25>
    37f9: 20 e7 60     	jsr	$60e7 <lfill>
    37fc: a0 21        	ldy	#$21
    37fe: b1 02        	lda	($2),y                  ; 0x2 <__rc0>
    3800: 85 04        	sta	$4                      ; 0x4 <__rc2>
    3802: c8           	iny
    3803: b1 02        	lda	($2),y                  ; 0x2 <__rc0>
    3805: 85 05        	sta	$5                      ; 0x5 <__rc3>
    3807: a9 00        	lda	#$0
    3809: 92 04        	sta	($4),z                  ; 0x4 <__rc2>
    380b: 3a           	dec
    380c: a0 01        	ldy	#$1
    380e: 91 04        	sta	($4),y                  ; 0x4 <__rc2>
    3810: a6 04        	ldx	$4                      ; 0x4 <__rc2>
    3812: 86 0c        	stx	$c                      ; 0xc <__rc10>
    3814: a6 05        	ldx	$5                      ; 0x5 <__rc3>
    3816: 86 0d        	stx	$d                      ; 0xd <__rc11>
    3818: a6 1b        	ldx	$1b                     ; 0x1b <__rc25>
    381a: 86 06        	stx	$6                      ; 0x6 <__rc4>
    381c: a6 1d        	ldx	$1d                     ; 0x1d <__rc27>
    381e: 86 07        	stx	$7                      ; 0x7 <__rc5>
    3820: 64 04        	stz	$4                      ; 0x4 <__rc2>
    3822: 64 05        	stz	$5                      ; 0x5 <__rc3>
    3824: 64 0b        	stz	$b                      ; 0xb <__rc9>
    3826: a6 1c        	ldx	$1c                     ; 0x1c <__rc26>
    3828: 86 08        	stx	$8                      ; 0x8 <__rc6>
    382a: a6 1f        	ldx	$1f                     ; 0x1f <__rc29>
    382c: 86 09        	stx	$9                      ; 0x9 <__rc7>
    382e: a2 20        	ldx	#$20
    3830: 86 0a        	stx	$a                      ; 0xa <__zp_data_size>
    3832: a6 0d        	ldx	$d                      ; 0xd <__rc11>
    3834: a5 0c        	lda	$c                      ; 0xc <__rc10>
    3836: 20 80 60     	jsr	$6080 <lcopy>
    3839: a0 17        	ldy	#$17
    383b: b1 02        	lda	($2),y                  ; 0x2 <__rc0>
    383d: a6 19        	ldx	$19                     ; 0x19 <__rc23>
    383f: e0 01        	cpx	#$1
    3841: 65 17        	adc	$17                     ; 0x17 <__rc21>
    3843: 85 0c        	sta	$c                      ; 0xc <__rc10>
    3845: a9 00        	lda	#$0
    3847: 65 1e        	adc	$1e                     ; 0x1e <__rc28>
    3849: 85 04        	sta	$4                      ; 0x4 <__rc2>
    384b: a9 00        	lda	#$0
    384d: 65 21        	adc	$21                     ; 0x21 <__rc31>
    384f: 85 05        	sta	$5                      ; 0x5 <__rc3>
    3851: 64 06        	stz	$6                      ; 0x6 <__rc4>
    3853: a2 18        	ldx	#$18
    3855: 86 07        	stx	$7                      ; 0x7 <__rc5>
    3857: 64 08        	stz	$8                      ; 0x8 <__rc6>
    3859: 64 09        	stz	$9                      ; 0x9 <__rc7>
    385b: 64 0a        	stz	$a                      ; 0xa <__zp_data_size>
    385d: a2 01        	ldx	#$1
    385f: 86 0b        	stx	$b                      ; 0xb <__rc9>
    3861: a6 0c        	ldx	$c                      ; 0xc <__rc10>
    3863: a5 18        	lda	$18                     ; 0x18 <__rc22>
    3865: 48           	pha
    3866: c8           	iny
    3867: b1 02        	lda	($2),y                  ; 0x2 <__rc0>
    3869: 85 18        	sta	$18                     ; 0x18 <__rc22>
    386b: c8           	iny
    386c: b1 02        	lda	($2),y                  ; 0x2 <__rc0>
    386e: 85 19        	sta	$19                     ; 0x19 <__rc23>
    3870: 68           	pla
    3871: 20 80 60     	jsr	$6080 <lcopy>
    3874: a0 1a        	ldy	#$1a
    3876: b1 02        	lda	($2),y                  ; 0x2 <__rc0>
    3878: 85 04        	sta	$4                      ; 0x4 <__rc2>
    387a: c8           	iny
    387b: b1 02        	lda	($2),y                  ; 0x2 <__rc0>
    387d: 85 05        	sta	$5                      ; 0x5 <__rc3>
    387f: a0 0d        	ldy	#$d
    3881: b1 02        	lda	($2),y                  ; 0x2 <__rc0>
    3883: 85 06        	sta	$6                      ; 0x6 <__rc4>
    3885: a0 16        	ldy	#$16
    3887: b1 02        	lda	($2),y                  ; 0x2 <__rc0>
    3889: aa           	tax
    388a: a5 1a        	lda	$1a                     ; 0x1a <__zp_bss_size>
    388c: 20 19 44     	jsr	$4419 <PutOneSector>
    388f: a2 3a        	ldx	#$3a
    3891: 86 04        	stx	$4                      ; 0x4 <__rc2>
    3893: a2 6e        	ldx	#$6e
    3895: 86 05        	stx	$5                      ; 0x5 <__rc3>
    3897: a2 ef        	ldx	#$ef
    3899: 86 06        	stx	$6                      ; 0x6 <__rc4>
    389b: a2 69        	ldx	#$69
    389d: 86 07        	stx	$7                      ; 0x7 <__rc5>
    389f: a9 50        	lda	#$50
    38a1: 20 54 51     	jsr	$5154 <progress>
    38a4: b2 18        	lda	($18),z                 ; 0x18 <__rc22>
    38a6: 85 05        	sta	$5                      ; 0x5 <__rc3>
    38a8: a0 47        	ldy	#$47
    38aa: b1 18        	lda	($18),y                 ; 0x18 <__rc22>
    38ac: 85 04        	sta	$4                      ; 0x4 <__rc2>
    38ae: a0 15        	ldy	#$15
    38b0: b1 02        	lda	($2),y                  ; 0x2 <__rc0>
    38b2: aa           	tax
    38b3: a5 05        	lda	$5                      ; 0x5 <__rc3>
    38b5: 20 18 45     	jsr	$4518 <PutBAM>
    38b8: a0 12        	ldy	#$12
    38ba: b1 02        	lda	($2),y                  ; 0x2 <__rc0>
    38bc: a8           	tay
    38bd: 5a           	phy
    38be: a0 10        	ldy	#$10
    38c0: b1 02        	lda	($2),y                  ; 0x2 <__rc0>
    38c2: 85 04        	sta	$4                      ; 0x4 <__rc2>
    38c4: c8           	iny
    38c5: b1 02        	lda	($2),y                  ; 0x2 <__rc0>
    38c7: 85 05        	sta	$5                      ; 0x5 <__rc3>
    38c9: a0 1c        	ldy	#$1c
    38cb: b1 02        	lda	($2),y                  ; 0x2 <__rc0>
    38cd: 7a           	ply
    38ce: 85 16        	sta	$16                     ; 0x16 <__rc20>
    38d0: c8           	iny
    38d1: 4c b5 32     	jmp	$32b5 <main+0x119f>
    38d4: 64 04        	stz	$4                      ; 0x4 <__rc2>
    38d6: a9 00        	lda	#$0
    38d8: 5a           	phy
    38d9: a0 16        	ldy	#$16
    38db: 4c bd 35     	jmp	$35bd <main+0x14a7>
    38de: 5a           	phy
    38df: a0 21        	ldy	#$21
    38e1: b1 02        	lda	($2),y                  ; 0x2 <__rc0>
    38e3: 85 0c        	sta	$c                      ; 0xc <__rc10>
    38e5: c8           	iny
    38e6: b1 02        	lda	($2),y                  ; 0x2 <__rc0>
    38e8: 7a           	ply
    38e9: 85 0d        	sta	$d                      ; 0xd <__rc11>
    38eb: 8a           	txa
    38ec: 92 0c        	sta	($c),z                  ; 0xc <__rc10>
    38ee: ad 01 1b     	lda	$1b01                   ; 0x1b01 <__heap_default_limit+0xb01>
    38f1: 91 0c        	sta	($c),y                  ; 0xc <__rc10>
    38f3: a6 1c        	ldx	$1c                     ; 0x1c <__rc26>
    38f5: 86 06        	stx	$6                      ; 0x6 <__rc4>
    38f7: a6 1d        	ldx	$1d                     ; 0x1d <__rc27>
    38f9: 86 07        	stx	$7                      ; 0x7 <__rc5>
    38fb: 64 04        	stz	$4                      ; 0x4 <__rc2>
    38fd: 64 05        	stz	$5                      ; 0x5 <__rc3>
    38ff: a0 0d        	ldy	#$d
    3901: b1 02        	lda	($2),y                  ; 0x2 <__rc0>
    3903: 85 08        	sta	$8                      ; 0x8 <__rc6>
    3905: a6 21        	ldx	$21                     ; 0x21 <__rc31>
    3907: 86 09        	stx	$9                      ; 0x9 <__rc7>
    3909: a2 20        	ldx	#$20
    390b: 86 0a        	stx	$a                      ; 0xa <__zp_data_size>
    390d: 64 0b        	stz	$b                      ; 0xb <__rc9>
    390f: a6 0d        	ldx	$d                      ; 0xd <__rc11>
    3911: a5 0c        	lda	$c                      ; 0xc <__rc10>
    3913: 20 80 60     	jsr	$6080 <lcopy>
    3916: a9 00        	lda	#$0
    3918: 18           	clc
    3919: 65 1e        	adc	$1e                     ; 0x1e <__rc28>
    391b: a8           	tay
    391c: 5a           	phy
    391d: a0 17        	ldy	#$17
    391f: b1 02        	lda	($2),y                  ; 0x2 <__rc0>
    3921: 7a           	ply
    3922: 65 17        	adc	$17                     ; 0x17 <__rc21>
    3924: 85 0c        	sta	$c                      ; 0xc <__rc10>
    3926: a9 00        	lda	#$0
    3928: 65 1e        	adc	$1e                     ; 0x1e <__rc28>
    392a: 85 04        	sta	$4                      ; 0x4 <__rc2>
    392c: a9 00        	lda	#$0
    392e: a6 16        	ldx	$16                     ; 0x16 <__rc20>
    3930: 86 21        	stx	$21                     ; 0x21 <__rc31>
    3932: 65 16        	adc	$16                     ; 0x16 <__rc20>
    3934: 85 05        	sta	$5                      ; 0x5 <__rc3>
    3936: 64 06        	stz	$6                      ; 0x6 <__rc4>
    3938: a2 18        	ldx	#$18
    393a: 86 07        	stx	$7                      ; 0x7 <__rc5>
    393c: 64 08        	stz	$8                      ; 0x8 <__rc6>
    393e: 64 09        	stz	$9                      ; 0x9 <__rc7>
    3940: 64 0a        	stz	$a                      ; 0xa <__zp_data_size>
    3942: a2 01        	ldx	#$1
    3944: 86 0b        	stx	$b                      ; 0xb <__rc9>
    3946: a6 0c        	ldx	$c                      ; 0xc <__rc10>
    3948: 98           	tya
    3949: 20 80 60     	jsr	$6080 <lcopy>
    394c: a2 00        	ldx	#$0
    394e: 86 04        	stx	$4                      ; 0x4 <__rc2>
    3950: a2 18        	ldx	#$18
    3952: 86 05        	stx	$5                      ; 0x5 <__rc3>
    3954: a0 13        	ldy	#$13
    3956: b1 02        	lda	($2),y                  ; 0x2 <__rc0>
    3958: 85 06        	sta	$6                      ; 0x6 <__rc4>
    395a: c8           	iny
    395b: b1 02        	lda	($2),y                  ; 0x2 <__rc0>
    395d: aa           	tax
    395e: a0 0f        	ldy	#$f
    3960: b1 02        	lda	($2),y                  ; 0x2 <__rc0>
    3962: 4c 8c 38     	jmp	$388c <main+0x1776>
    3965: a9 43        	lda	#$43
    3967: a6 06        	ldx	$6                      ; 0x6 <__rc4>
    3969: 9d 08 71     	sta	$7108,x                 ; 0x7108 <s>
    396c: 3a           	dec
    396d: 99 08 71     	sta	$7108,y                 ; 0x7108 <s>
    3970: a9 4d        	lda	#$4d
    3972: 4c 07 26     	jmp	$2607 <main+0x4f1>
    3975: a9 55        	lda	#$55
    3977: a6 06        	ldx	$6                      ; 0x6 <__rc4>
    3979: 9d 08 71     	sta	$7108,x                 ; 0x7108 <s>
    397c: a9 53        	lda	#$53
    397e: 99 08 71     	sta	$7108,y                 ; 0x7108 <s>
    3981: 3a           	dec
    3982: 4c 07 26     	jmp	$2607 <main+0x4f1>
    3985: a9 52        	lda	#$52
    3987: 4c fb 25     	jmp	$25fb <main+0x4e5>
    398a: a9 53        	lda	#$53
    398c: a6 06        	ldx	$6                      ; 0x6 <__rc4>
    398e: 9d 08 71     	sta	$7108,x                 ; 0x7108 <s>
    3991: a9 45        	lda	#$45
    3993: 99 08 71     	sta	$7108,y                 ; 0x7108 <s>
    3996: a9 51        	lda	#$51
    3998: 4c 07 26     	jmp	$2607 <main+0x4f1>
    399b: a9 50        	lda	#$50
    399d: a6 06        	ldx	$6                      ; 0x6 <__rc4>
    399f: 9d 08 71     	sta	$7108,x                 ; 0x7108 <s>
    39a2: a9 52        	lda	#$52
    39a4: 99 08 71     	sta	$7108,y                 ; 0x7108 <s>
    39a7: a9 47        	lda	#$47
    39a9: 4c 07 26     	jmp	$2607 <main+0x4f1>
    39ac: a2 da        	ldx	#$da
    39ae: 86 04        	stx	$4                      ; 0x4 <__rc2>
    39b0: a2 6f        	ldx	#$6f
    39b2: 86 05        	stx	$5                      ; 0x5 <__rc3>
    39b4: a2 ef        	ldx	#$ef
    39b6: 86 06        	stx	$6                      ; 0x6 <__rc4>
    39b8: a2 69        	ldx	#$69
    39ba: 86 07        	stx	$7                      ; 0x7 <__rc5>
    39bc: a9 14        	lda	#$14
    39be: 20 54 51     	jsr	$5154 <progress>
    39c1: a9 27        	lda	#$27
    39c3: 18           	clc
    39c4: 65 19        	adc	$19                     ; 0x19 <__rc23>
    39c6: 85 04        	sta	$4                      ; 0x4 <__rc2>
    39c8: a9 00        	lda	#$0
    39ca: 65 18        	adc	$18                     ; 0x18 <__rc22>
    39cc: 85 05        	sta	$5                      ; 0x5 <__rc3>
    39ce: b2 04        	lda	($4),z                  ; 0x4 <__rc2>
    39d0: aa           	tax
    39d1: a0 01        	ldy	#$1
    39d3: b1 04        	lda	($4),y                  ; 0x4 <__rc2>
    39d5: 86 04        	stx	$4                      ; 0x4 <__rc2>
    39d7: 85 05        	sta	$5                      ; 0x5 <__rc3>
    39d9: b2 04        	lda	($4),z                  ; 0x4 <__rc2>
    39db: a6 16        	ldx	$16                     ; 0x16 <__rc20>
    39dd: 20 7c 56     	jsr	$567c <UpdateSectors>
    39e0: a5 16        	lda	$16                     ; 0x16 <__rc20>
    39e2: 20 4d 5c     	jsr	$5c4d <Deselect>
    39e5: a5 16        	lda	$16                     ; 0x16 <__rc20>
    39e7: 49 01        	eor	#$1
    39e9: 85 16        	sta	$16                     ; 0x16 <__rc20>
    39eb: 0a           	asl
    39ec: 85 04        	sta	$4                      ; 0x4 <__rc2>
    39ee: a9 00        	lda	#$0
    39f0: 2a           	rol
    39f1: 85 05        	sta	$5                      ; 0x5 <__rc3>
    39f3: a9 27        	lda	#$27
    39f5: 18           	clc
    39f6: 65 04        	adc	$4                      ; 0x4 <__rc2>
    39f8: 85 04        	sta	$4                      ; 0x4 <__rc2>
    39fa: a9 00        	lda	#$0
    39fc: 65 05        	adc	$5                      ; 0x5 <__rc3>
    39fe: 85 05        	sta	$5                      ; 0x5 <__rc3>
    3a00: b2 04        	lda	($4),z                  ; 0x4 <__rc2>
    3a02: 85 06        	sta	$6                      ; 0x6 <__rc4>
    3a04: a0 01        	ldy	#$1
    3a06: b1 04        	lda	($4),y                  ; 0x4 <__rc2>
    3a08: 85 07        	sta	$7                      ; 0x7 <__rc5>
    3a0a: b2 06        	lda	($6),z                  ; 0x6 <__rc4>
    3a0c: a6 16        	ldx	$16                     ; 0x16 <__rc20>
    3a0e: 20 7c 56     	jsr	$567c <UpdateSectors>
    3a11: a5 16        	lda	$16                     ; 0x16 <__rc20>
    3a13: 20 4d 5c     	jsr	$5c4d <Deselect>
    3a16: 4c fb 22     	jmp	$22fb <main+0x1e5>
    3a19: a5 1c        	lda	$1c                     ; 0x1c <__rc26>
    3a1b: d0 09        	bne	$3a26 <main+0x1910>
    3a1d: a6 16        	ldx	$16                     ; 0x16 <__rc20>
    3a1f: e0 f5        	cpx	#$f5
    3a21: d0 03        	bne	$3a26 <main+0x1910>
    3a23: 4c b2 3c     	jmp	$3cb2 <donehyp1att0+0x4f>
    3a26: 98           	tya
    3a27: d0 03        	bne	$3a2c <main+0x1916>
    3a29: 4c fb 22     	jmp	$22fb <main+0x1e5>
    3a2c: a0 1c        	ldy	#$1c
    3a2e: b1 02        	lda	($2),y                  ; 0x2 <__rc0>
    3a30: f0 03        	beq	$3a35 <main+0x191f>
    3a32: 4c 8b 3c     	jmp	$3c8b <donehyp1att0+0x28>
    3a35: 4c b2 3d     	jmp	$3db2 <donehyp1att0+0x14f>
    3a38: a9 28        	lda	#$28
    3a3a: a0 47        	ldy	#$47
    3a3c: 91 18        	sta	($18),y                 ; 0x18 <__rc22>
    3a3e: b2 18        	lda	($18),z                 ; 0x18 <__rc22>
    3a40: 4c d7 2e     	jmp	$2ed7 <main+0xdc1>
    3a43: a9 27        	lda	#$27
    3a45: 18           	clc
    3a46: 65 19        	adc	$19                     ; 0x19 <__rc23>
    3a48: 85 04        	sta	$4                      ; 0x4 <__rc2>
    3a4a: a9 00        	lda	#$0
    3a4c: 65 18        	adc	$18                     ; 0x18 <__rc22>
    3a4e: 85 05        	sta	$5                      ; 0x5 <__rc3>
    3a50: b2 04        	lda	($4),z                  ; 0x4 <__rc2>
    3a52: aa           	tax
    3a53: b1 04        	lda	($4),y                  ; 0x4 <__rc2>
    3a55: 86 04        	stx	$4                      ; 0x4 <__rc2>
    3a57: 85 05        	sta	$5                      ; 0x5 <__rc3>
    3a59: 38           	sec
    3a5a: a5 20        	lda	$20                     ; 0x20 <__rc30>
    3a5c: e5 1b        	sbc	$1b                     ; 0x1b <__rc25>
    3a5e: 85 06        	sta	$6                      ; 0x6 <__rc4>
    3a60: 5a           	phy
    3a61: a0 1f        	ldy	#$1f
    3a63: b1 02        	lda	($2),y                  ; 0x2 <__rc0>
    3a65: 7a           	ply
    3a66: e5 1a        	sbc	$1a                     ; 0x1a <__zp_bss_size>
    3a68: 85 07        	sta	$7                      ; 0x7 <__rc5>
    3a6a: a9 58        	lda	#$58
    3a6c: 18           	clc
    3a6d: 65 06        	adc	$6                      ; 0x6 <__rc4>
    3a6f: 85 06        	sta	$6                      ; 0x6 <__rc4>
    3a71: a9 71        	lda	#$71
    3a73: 65 07        	adc	$7                      ; 0x7 <__rc5>
    3a75: 85 07        	sta	$7                      ; 0x7 <__rc5>
    3a77: b1 04        	lda	($4),y                  ; 0x4 <__rc2>
    3a79: a8           	tay
    3a7a: a9 01        	lda	#$1
    3a7c: 51 06        	eor	($6),y                  ; 0x6 <__rc4>
    3a7e: 91 06        	sta	($6),y                  ; 0x6 <__rc4>
    3a80: c8           	iny
    3a81: 98           	tya
    3a82: a0 01        	ldy	#$1
    3a84: 91 04        	sta	($4),y                  ; 0x4 <__rc2>
    3a86: 4c fb 22     	jmp	$22fb <main+0x1e5>
    3a89: a9 27        	lda	#$27
    3a8b: 18           	clc
    3a8c: 65 19        	adc	$19                     ; 0x19 <__rc23>
    3a8e: 85 04        	sta	$4                      ; 0x4 <__rc2>
    3a90: a9 00        	lda	#$0
    3a92: 65 18        	adc	$18                     ; 0x18 <__rc22>
    3a94: 85 05        	sta	$5                      ; 0x5 <__rc3>
    3a96: b2 04        	lda	($4),z                  ; 0x4 <__rc2>
    3a98: aa           	tax
    3a99: b1 04        	lda	($4),y                  ; 0x4 <__rc2>
    3a9b: 86 04        	stx	$4                      ; 0x4 <__rc2>
    3a9d: 85 05        	sta	$5                      ; 0x5 <__rc3>
    3a9f: 18           	clc
    3aa0: a9 0a        	lda	#$a
    3aa2: 71 04        	adc	($4),y                  ; 0x4 <__rc2>
    3aa4: 91 04        	sta	($4),y                  ; 0x4 <__rc2>
    3aa6: 4c fb 22     	jmp	$22fb <main+0x1e5>
    3aa9: a9 02        	lda	#$2
    3aab: 25 2d        	and	$2d                     ; 0x2d <option.0>
    3aad: f0 11        	beq	$3ac0 <main+0x19aa>
    3aaf: 86 1c        	stx	$1c                     ; 0x1c <__rc26>
    3ab1: 98           	tya
    3ab2: 20 10 49     	jsr	$4910 <isallocatedBAMtracksector>
    3ab5: a6 1c        	ldx	$1c                     ; 0x1c <__rc26>
    3ab7: a4 17        	ldy	$17                     ; 0x17 <__rc21>
    3ab9: c9 00        	cmp	#$0
    3abb: d0 03        	bne	$3ac0 <main+0x19aa>
    3abd: 4c 2e 3b     	jmp	$3b2e <main+0x1a18>
    3ac0: 86 1c        	stx	$1c                     ; 0x1c <__rc26>
    3ac2: 98           	tya
    3ac3: 20 c9 4b     	jsr	$4bc9 <tracksectorstring>
    3ac6: a6 18        	ldx	$18                     ; 0x18 <__rc22>
    3ac8: 86 04        	stx	$4                      ; 0x4 <__rc2>
    3aca: 06 04        	asl	$4                      ; 0x4 <__rc2>
    3acc: a5 19        	lda	$19                     ; 0x19 <__rc23>
    3ace: 2a           	rol
    3acf: 06 04        	asl	$4                      ; 0x4 <__rc2>
    3ad1: 2a           	rol
    3ad2: 18           	clc
    3ad3: 69 32        	adc	#$32
    3ad5: a2 3a        	ldx	#$3a
    3ad7: 86 04        	stx	$4                      ; 0x4 <__rc2>
    3ad9: a2 6e        	ldx	#$6e
    3adb: 86 05        	stx	$5                      ; 0x5 <__rc3>
    3add: a2 08        	ldx	#$8
    3adf: 86 06        	stx	$6                      ; 0x6 <__rc4>
    3ae1: a2 71        	ldx	#$71
    3ae3: 86 07        	stx	$7                      ; 0x7 <__rc5>
    3ae5: 20 54 51     	jsr	$5154 <progress>
    3ae8: a5 18        	lda	$18                     ; 0x18 <__rc22>
    3aea: 18           	clc
    3aeb: 69 20        	adc	#$20
    3aed: a8           	tay
    3aee: a5 19        	lda	$19                     ; 0x19 <__rc23>
    3af0: 69 00        	adc	#$0
    3af2: 85 04        	sta	$4                      ; 0x4 <__rc2>
    3af4: a9 00        	lda	#$0
    3af6: 69 08        	adc	#$8
    3af8: 85 05        	sta	$5                      ; 0x5 <__rc3>
    3afa: 64 06        	stz	$6                      ; 0x6 <__rc4>
    3afc: a2 18        	ldx	#$18
    3afe: 86 07        	stx	$7                      ; 0x7 <__rc5>
    3b00: 64 08        	stz	$8                      ; 0x8 <__rc6>
    3b02: 64 09        	stz	$9                      ; 0x9 <__rc7>
    3b04: 64 0a        	stz	$a                      ; 0xa <__zp_data_size>
    3b06: a2 01        	ldx	#$1
    3b08: 86 0b        	stx	$b                      ; 0xb <__rc9>
    3b0a: 5a           	phy
    3b0b: fa           	plx
    3b0c: a9 00        	lda	#$0
    3b0e: 20 80 60     	jsr	$6080 <lcopy>
    3b11: a2 00        	ldx	#$0
    3b13: 86 04        	stx	$4                      ; 0x4 <__rc2>
    3b15: a2 18        	ldx	#$18
    3b17: 86 05        	stx	$5                      ; 0x5 <__rc3>
    3b19: a6 1c        	ldx	$1c                     ; 0x1c <__rc26>
    3b1b: 86 06        	stx	$6                      ; 0x6 <__rc4>
    3b1d: a6 17        	ldx	$17                     ; 0x17 <__rc21>
    3b1f: a5 16        	lda	$16                     ; 0x16 <__rc20>
    3b21: 20 19 44     	jsr	$4419 <PutOneSector>
    3b24: a6 1c        	ldx	$1c                     ; 0x1c <__rc26>
    3b26: a4 17        	ldy	$17                     ; 0x17 <__rc21>
    3b28: e6 18        	inc	$18                     ; 0x18 <__rc22>
    3b2a: d0 02        	bne	$3b2e <main+0x1a18>
    3b2c: e6 19        	inc	$19                     ; 0x19 <__rc23>
    3b2e: e8           	inx
    3b2f: e0 28        	cpx	#$28
    3b31: f0 03        	beq	$3b36 <main+0x1a20>
    3b33: 4c a9 3a     	jmp	$3aa9 <main+0x1993>
    3b36: c8           	iny
    3b37: c0 51        	cpy	#$51
    3b39: d0 03        	bne	$3b3e <main+0x1a28>
    3b3b: 4c 1e 40     	jmp	$401e <donehypchdir2+0x163>
    3b3e: a2 00        	ldx	#$0
    3b40: 84 17        	sty	$17                     ; 0x17 <__rc21>
    3b42: 80 eb        	bra	$3b2f <main+0x1a19>
    3b44: 86 09        	stx	$9                      ; 0x9 <__rc7>
    3b46: a5 06        	lda	$6                      ; 0x6 <__rc4>
    3b48: 18           	clc
    3b49: 69 05        	adc	#$5
    3b4b: 85 06        	sta	$6                      ; 0x6 <__rc4>
    3b4d: a5 07        	lda	$7                      ; 0x7 <__rc5>
    3b4f: 69 00        	adc	#$0
    3b51: 85 07        	sta	$7                      ; 0x7 <__rc5>
    3b53: a2 a3        	ldx	#$a3
    3b55: 86 04        	stx	$4                      ; 0x4 <__rc2>
    3b57: a2 70        	ldx	#$70
    3b59: 86 05        	stx	$5                      ; 0x5 <__rc3>
    3b5b: a9 00        	lda	#$0
    3b5d: 20 6d 50     	jsr	$506d <messagebox>
    3b60: aa           	tax
    3b61: d0 03        	bne	$3b66 <main+0x1a50>
    3b63: 4c fb 22     	jmp	$22fb <main+0x1e5>
    3b66: a0 1c        	ldy	#$1c
    3b68: b1 02        	lda	($2),y                  ; 0x2 <__rc0>
    3b6a: 20 93 5c     	jsr	$5c93 <sizeselectcurrentifnone>
    3b6d: 38           	sec
    3b6e: a5 20        	lda	$20                     ; 0x20 <__rc30>
    3b70: e5 1b        	sbc	$1b                     ; 0x1b <__rc25>
    3b72: 85 04        	sta	$4                      ; 0x4 <__rc2>
    3b74: a0 1f        	ldy	#$1f
    3b76: b1 02        	lda	($2),y                  ; 0x2 <__rc0>
    3b78: e5 1a        	sbc	$1a                     ; 0x1a <__zp_bss_size>
    3b7a: 85 05        	sta	$5                      ; 0x5 <__rc3>
    3b7c: a9 58        	lda	#$58
    3b7e: 18           	clc
    3b7f: 65 04        	adc	$4                      ; 0x4 <__rc2>
    3b81: aa           	tax
    3b82: a9 71        	lda	#$71
    3b84: 65 05        	adc	$5                      ; 0x5 <__rc3>
    3b86: a8           	tay
    3b87: 64 04        	stz	$4                      ; 0x4 <__rc2>
    3b89: a5 17        	lda	$17                     ; 0x17 <__rc21>
    3b8b: c9 01        	cmp	#$1
    3b8d: 26 04        	rol	$4                      ; 0x4 <__rc2>
    3b8f: a5 04        	lda	$4                      ; 0x4 <__rc2>
    3b91: 85 07        	sta	$7                      ; 0x7 <__rc5>
    3b93: a5 1e        	lda	$1e                     ; 0x1e <__rc28>
    3b95: c9 01        	cmp	#$1
    3b97: 26 07        	rol	$7                      ; 0x7 <__rc5>
    3b99: a5 21        	lda	$21                     ; 0x21 <__rc31>
    3b9b: c9 01        	cmp	#$1
    3b9d: 26 07        	rol	$7                      ; 0x7 <__rc5>
    3b9f: a5 1d        	lda	$1d                     ; 0x1d <__rc27>
    3ba1: 0a           	asl
    3ba2: 26 1f        	rol	$1f                     ; 0x1f <__rc29>
    3ba4: 26 07        	rol	$7                      ; 0x7 <__rc5>
    3ba6: 38           	sec
    3ba7: e5 19        	sbc	$19                     ; 0x19 <__rc23>
    3ba9: 85 06        	sta	$6                      ; 0x6 <__rc4>
    3bab: a5 1f        	lda	$1f                     ; 0x1f <__rc29>
    3bad: e5 18        	sbc	$18                     ; 0x18 <__rc22>
    3baf: 85 08        	sta	$8                      ; 0x8 <__rc6>
    3bb1: a5 07        	lda	$7                      ; 0x7 <__rc5>
    3bb3: e5 04        	sbc	$4                      ; 0x4 <__rc2>
    3bb5: 86 18        	stx	$18                     ; 0x18 <__rc22>
    3bb7: 84 19        	sty	$19                     ; 0x19 <__rc23>
    3bb9: 48           	pha
    3bba: a5 06        	lda	$6                      ; 0x6 <__rc4>
    3bbc: a0 16        	ldy	#$16
    3bbe: 91 02        	sta	($2),y                  ; 0x2 <__rc0>
    3bc0: a0 0f        	ldy	#$f
    3bc2: 91 02        	sta	($2),y                  ; 0x2 <__rc0>
    3bc4: a5 08        	lda	$8                      ; 0x8 <__rc6>
    3bc6: a0 15        	ldy	#$15
    3bc8: 91 02        	sta	($2),y                  ; 0x2 <__rc0>
    3bca: a0 0e        	ldy	#$e
    3bcc: 91 02        	sta	($2),y                  ; 0x2 <__rc0>
    3bce: 68           	pla
    3bcf: 09 08        	ora	#$8
    3bd1: a0 14        	ldy	#$14
    3bd3: 91 02        	sta	($2),y                  ; 0x2 <__rc0>
    3bd5: a0 0d        	ldy	#$d
    3bd7: 91 02        	sta	($2),y                  ; 0x2 <__rc0>
    3bd9: a0 00        	ldy	#$0
    3bdb: 5a           	phy
    3bdc: a0 1d        	ldy	#$1d
    3bde: b1 02        	lda	($2),y                  ; 0x2 <__rc0>
    3be0: 85 16        	sta	$16                     ; 0x16 <__rc20>
    3be2: c8           	iny
    3be3: b1 02        	lda	($2),y                  ; 0x2 <__rc0>
    3be5: 7a           	ply
    3be6: 85 17        	sta	$17                     ; 0x17 <__rc21>
    3be8: 4c c3 2a     	jmp	$2ac3 <main+0x9ad>
    3beb: e0 5f        	cpx	#$5f
    3bed: f0 03        	beq	$3bf2 <main+0x1adc>
    3bef: 4c a3 2a     	jmp	$2aa3 <main+0x98d>
    3bf2: 4c 43 2f     	jmp	$2f43 <main+0xe2d>
    3bf5: a9 27        	lda	#$27
    3bf7: 18           	clc
    3bf8: 65 19        	adc	$19                     ; 0x19 <__rc23>
    3bfa: 85 04        	sta	$4                      ; 0x4 <__rc2>
    3bfc: a9 00        	lda	#$0
    3bfe: 65 18        	adc	$18                     ; 0x18 <__rc22>
    3c00: 85 05        	sta	$5                      ; 0x5 <__rc3>
    3c02: b2 04        	lda	($4),z                  ; 0x4 <__rc2>
    3c04: 85 18        	sta	$18                     ; 0x18 <__rc22>
    3c06: b1 04        	lda	($4),y                  ; 0x4 <__rc2>
    3c08: 85 19        	sta	$19                     ; 0x19 <__rc23>
    3c0a: b1 18        	lda	($18),y                 ; 0x18 <__rc22>
    3c0c: aa           	tax
    3c0d: a5 1d        	lda	$1d                     ; 0x1d <__rc27>
    3c0f: 20 55 4c     	jsr	$4c55 <getdirententry>
    3c12: a9 01        	lda	#$1
    3c14: a0 46        	ldy	#$46
    3c16: 31 18        	and	($18),y                 ; 0x18 <__rc22>
    3c18: 29 01        	and	#$1
    3c1a: aa           	tax
    3c1b: a0 02        	ldy	#$2
    3c1d: b1 04        	lda	($4),y                  ; 0x4 <__rc2>
    3c1f: e0 00        	cpx	#$0
    3c21: f0 03        	beq	$3c26 <main+0x1b10>
    3c23: 4c 9b 3d     	jmp	$3d9b <donehyp1att0+0x138>
    3c26: 29 10        	and	#$10
    3c28: f0 03        	beq	$3c2d <main+0x1b17>
    3c2a: 4c 8c 3e     	jmp	$3e8c <donehypchdir1+0x2a>
    3c2d: b2 18        	lda	($18),z                 ; 0x18 <__rc22>
    3c2f: 85 1a        	sta	$1a                     ; 0x1a <__zp_bss_size>
    3c31: a5 04        	lda	$4                      ; 0x4 <__rc2>
    3c33: 18           	clc
    3c34: 69 05        	adc	#$5
    3c36: 85 16        	sta	$16                     ; 0x16 <__rc20>
    3c38: a5 05        	lda	$5                      ; 0x5 <__rc3>
    3c3a: 69 00        	adc	#$0
    3c3c: 85 17        	sta	$17                     ; 0x17 <__rc21>
    3c3e: a6 16        	ldx	$16                     ; 0x16 <__rc20>
    3c40: 86 04        	stx	$4                      ; 0x4 <__rc2>
    3c42: 85 05        	sta	$5                      ; 0x5 <__rc3>
    3c44: 20 c3 42     	jsr	$42c3 <hyppo_setname>
    3c47: a5 1a        	lda	$1a                     ; 0x1a <__zp_bss_size>
    3c49: d0 03        	bne	$3c4e <main+0x1b38>
    3c4b: 4c 97 40     	jmp	$4097 <donehypchdir2+0x1dc>
    3c4e: a2 00        	ldx	#$0
    3c50: a9 46        	lda	#$46
    3c52: 8d 40 d6     	sta	$d640                   ; 0xd640 <__heap_start+0x60e8>
    3c55: b8           	clv
    3c56: 90 07        	bcc	$3c5f <errhyp1att0>
    3c58: a9 00        	lda	#$0
    3c5a: 85 04        	sta	$4                      ; 0x4 <__rc2>
    3c5c: 4c 63 3c     	jmp	$3c63 <donehyp1att0>

00003c5f <errhyp1att0>:
    3c5f: a9 ff        	lda	#$ff
    3c61: 85 04        	sta	$4                      ; 0x4 <__rc2>

00003c63 <donehyp1att0>:
    3c63: ea           	nop
    3c64: a5 04        	lda	$4                      ; 0x4 <__rc2>
    3c66: d0 03        	bne	$3c6b <donehyp1att0+0x8>
    3c68: 4c b0 40     	jmp	$40b0 <donehyp0att3+0x4>
    3c6b: a2 fe        	ldx	#$fe
    3c6d: 86 04        	stx	$4                      ; 0x4 <__rc2>
    3c6f: a2 68        	ldx	#$68
    3c71: 86 05        	stx	$5                      ; 0x5 <__rc3>
    3c73: a2 63        	ldx	#$63
    3c75: 86 06        	stx	$6                      ; 0x6 <__rc4>
    3c77: a2 70        	ldx	#$70
    3c79: 4c d0 3e     	jmp	$3ed0 <donehypchdir2+0x15>
    3c7c: c9 91        	cmp	#$91
    3c7e: f0 03        	beq	$3c83 <donehyp1att0+0x20>
    3c80: 4c ac 2a     	jmp	$2aac <main+0x996>
    3c83: 4c 32 3d     	jmp	$3d32 <donehyp1att0+0xcf>
    3c86: b2 16        	lda	($16),z                 ; 0x16 <__rc20>
    3c88: 4c d7 2e     	jmp	$2ed7 <main+0xdc1>
    3c8b: a2 a4        	ldx	#$a4
    3c8d: 86 08        	stx	$8                      ; 0x8 <__rc6>
    3c8f: a2 6c        	ldx	#$6c
    3c91: 4c 44 3b     	jmp	$3b44 <main+0x1a2e>
    3c94: a9 27        	lda	#$27
    3c96: 18           	clc
    3c97: 65 19        	adc	$19                     ; 0x19 <__rc23>
    3c99: 85 04        	sta	$4                      ; 0x4 <__rc2>
    3c9b: a9 00        	lda	#$0
    3c9d: 65 18        	adc	$18                     ; 0x18 <__rc22>
    3c9f: 85 05        	sta	$5                      ; 0x5 <__rc3>
    3ca1: b2 04        	lda	($4),z                  ; 0x4 <__rc2>
    3ca3: aa           	tax
    3ca4: b1 04        	lda	($4),y                  ; 0x4 <__rc2>
    3ca6: 86 04        	stx	$4                      ; 0x4 <__rc2>
    3ca8: 85 05        	sta	$5                      ; 0x5 <__rc3>
    3caa: b1 04        	lda	($4),y                  ; 0x4 <__rc2>
    3cac: 1a           	inc
    3cad: 91 04        	sta	($4),y                  ; 0x4 <__rc2>
    3caf: 4c fb 22     	jmp	$22fb <main+0x1e5>
    3cb2: a6 04        	ldx	$4                      ; 0x4 <__rc2>
    3cb4: 86 1c        	stx	$1c                     ; 0x1c <__rc26>
    3cb6: a6 05        	ldx	$5                      ; 0x5 <__rc3>
    3cb8: 86 1d        	stx	$1d                     ; 0x1d <__rc27>
    3cba: a0 1c        	ldy	#$1c
    3cbc: b1 02        	lda	($2),y                  ; 0x2 <__rc0>
    3cbe: 85 16        	sta	$16                     ; 0x16 <__rc20>
    3cc0: 20 93 5c     	jsr	$5c93 <sizeselectcurrentifnone>
    3cc3: 85 04        	sta	$4                      ; 0x4 <__rc2>
    3cc5: 86 05        	stx	$5                      ; 0x5 <__rc3>
    3cc7: a5 16        	lda	$16                     ; 0x16 <__rc20>
    3cc9: 49 01        	eor	#$1
    3ccb: a0 15        	ldy	#$15
    3ccd: 91 02        	sta	($2),y                  ; 0x2 <__rc0>
    3ccf: 0a           	asl
    3cd0: 85 06        	sta	$6                      ; 0x6 <__rc4>
    3cd2: a9 00        	lda	#$0
    3cd4: 2a           	rol
    3cd5: 85 07        	sta	$7                      ; 0x7 <__rc5>
    3cd7: a9 27        	lda	#$27
    3cd9: 18           	clc
    3cda: 65 06        	adc	$6                      ; 0x6 <__rc4>
    3cdc: 85 06        	sta	$6                      ; 0x6 <__rc4>
    3cde: a9 00        	lda	#$0
    3ce0: 65 07        	adc	$7                      ; 0x7 <__rc5>
    3ce2: 85 07        	sta	$7                      ; 0x7 <__rc5>
    3ce4: b2 06        	lda	($6),z                  ; 0x6 <__rc4>
    3ce6: 85 08        	sta	$8                      ; 0x8 <__rc6>
    3ce8: a0 01        	ldy	#$1
    3cea: b1 06        	lda	($6),y                  ; 0x6 <__rc4>
    3cec: aa           	tax
    3ced: a5 08        	lda	$8                      ; 0x8 <__rc6>
    3cef: 85 18        	sta	$18                     ; 0x18 <__rc22>
    3cf1: 86 19        	stx	$19                     ; 0x19 <__rc23>
    3cf3: 18           	clc
    3cf4: 69 44        	adc	#$44
    3cf6: 85 06        	sta	$6                      ; 0x6 <__rc4>
    3cf8: 8a           	txa
    3cf9: 69 00        	adc	#$0
    3cfb: 85 07        	sta	$7                      ; 0x7 <__rc5>
    3cfd: b1 06        	lda	($6),y                  ; 0x6 <__rc4>
    3cff: c5 05        	cmp	$5                      ; 0x5 <__rc3>
    3d01: f0 03        	beq	$3d06 <donehyp1att0+0xa3>
    3d03: 4c f1 3d     	jmp	$3df1 <donehyp1att0+0x18e>
    3d06: a0 44        	ldy	#$44
    3d08: b1 18        	lda	($18),y                 ; 0x18 <__rc22>
    3d0a: c5 04        	cmp	$4                      ; 0x4 <__rc2>
    3d0c: b0 03        	bcs	$3d11 <donehyp1att0+0xae>
    3d0e: 4c f8 3d     	jmp	$3df8 <donehyp1att0+0x195>
    3d11: a5 16        	lda	$16                     ; 0x16 <__rc20>
    3d13: d0 03        	bne	$3d18 <donehyp1att0+0xb5>
    3d15: 4c 21 3f     	jmp	$3f21 <donehypchdir2+0x66>
    3d18: a2 27        	ldx	#$27
    3d1a: 86 08        	stx	$8                      ; 0x8 <__rc6>
    3d1c: a2 6e        	ldx	#$6e
    3d1e: 4c 27 3f     	jmp	$3f27 <donehypchdir2+0x6c>
    3d21: c9 9d        	cmp	#$9d
    3d23: d0 03        	bne	$3d28 <donehyp1att0+0xc5>
    3d25: 4c 74 3d     	jmp	$3d74 <donehyp1att0+0x111>
    3d28: a6 1c        	ldx	$1c                     ; 0x1c <__rc26>
    3d2a: e0 01        	cpx	#$1
    3d2c: d0 27        	bne	$3d55 <donehyp1att0+0xf2>
    3d2e: c9 91        	cmp	#$91
    3d30: d0 23        	bne	$3d55 <donehyp1att0+0xf2>
    3d32: a9 27        	lda	#$27
    3d34: 18           	clc
    3d35: 65 19        	adc	$19                     ; 0x19 <__rc23>
    3d37: 85 04        	sta	$4                      ; 0x4 <__rc2>
    3d39: a9 00        	lda	#$0
    3d3b: 65 18        	adc	$18                     ; 0x18 <__rc22>
    3d3d: 85 05        	sta	$5                      ; 0x5 <__rc3>
    3d3f: b2 04        	lda	($4),z                  ; 0x4 <__rc2>
    3d41: aa           	tax
    3d42: b1 04        	lda	($4),y                  ; 0x4 <__rc2>
    3d44: 86 04        	stx	$4                      ; 0x4 <__rc2>
    3d46: 85 05        	sta	$5                      ; 0x5 <__rc3>
    3d48: b1 04        	lda	($4),y                  ; 0x4 <__rc2>
    3d4a: d0 03        	bne	$3d4f <donehyp1att0+0xec>
    3d4c: 4c fb 22     	jmp	$22fb <main+0x1e5>
    3d4f: 3a           	dec
    3d50: 91 04        	sta	($4),y                  ; 0x4 <__rc2>
    3d52: 4c fb 22     	jmp	$22fb <main+0x1e5>
    3d55: a6 1c        	ldx	$1c                     ; 0x1c <__rc26>
    3d57: e0 01        	cpx	#$1
    3d59: d0 07        	bne	$3d62 <donehyp1att0+0xff>
    3d5b: c9 94        	cmp	#$94
    3d5d: d0 03        	bne	$3d62 <donehyp1att0+0xff>
    3d5f: 4c 43 3a     	jmp	$3a43 <main+0x192d>
    3d62: a6 1c        	ldx	$1c                     ; 0x1c <__rc26>
    3d64: a5 16        	lda	$16                     ; 0x16 <__rc20>
    3d66: e0 01        	cpx	#$1
    3d68: f0 03        	beq	$3d6d <donehyp1att0+0x10a>
    3d6a: 4c bb 3d     	jmp	$3dbb <donehyp1att0+0x158>
    3d6d: c9 9d        	cmp	#$9d
    3d6f: f0 03        	beq	$3d74 <donehyp1att0+0x111>
    3d71: 4c bb 3d     	jmp	$3dbb <donehyp1att0+0x158>
    3d74: a9 27        	lda	#$27
    3d76: 18           	clc
    3d77: 65 19        	adc	$19                     ; 0x19 <__rc23>
    3d79: 85 04        	sta	$4                      ; 0x4 <__rc2>
    3d7b: a9 00        	lda	#$0
    3d7d: 65 18        	adc	$18                     ; 0x18 <__rc22>
    3d7f: 85 05        	sta	$5                      ; 0x5 <__rc3>
    3d81: b2 04        	lda	($4),z                  ; 0x4 <__rc2>
    3d83: aa           	tax
    3d84: b1 04        	lda	($4),y                  ; 0x4 <__rc2>
    3d86: 86 04        	stx	$4                      ; 0x4 <__rc2>
    3d88: 85 05        	sta	$5                      ; 0x5 <__rc3>
    3d8a: b1 04        	lda	($4),y                  ; 0x4 <__rc2>
    3d8c: c9 0b        	cmp	#$b
    3d8e: b0 03        	bcs	$3d93 <donehyp1att0+0x130>
    3d90: 4c ea 3e     	jmp	$3eea <donehypchdir2+0x2f>
    3d93: 18           	clc
    3d94: 69 f6        	adc	#$f6
    3d96: 91 04        	sta	($4),y                  ; 0x4 <__rc2>
    3d98: 4c fb 22     	jmp	$22fb <main+0x1e5>
    3d9b: 29 0f        	and	#$f
    3d9d: c9 05        	cmp	#$5
    3d9f: d0 31        	bne	$3dd2 <donehyp1att0+0x16f>
    3da1: b1 18        	lda	($18),y                 ; 0x18 <__rc22>
    3da3: c9 ff        	cmp	#$ff
    3da5: f0 2b        	beq	$3dd2 <donehyp1att0+0x16f>
    3da7: a0 03        	ldy	#$3
    3da9: b1 04        	lda	($4),y                  ; 0x4 <__rc2>
    3dab: a0 47        	ldy	#$47
    3dad: 91 18        	sta	($18),y                 ; 0x18 <__rc22>
    3daf: 4c db 3e     	jmp	$3edb <donehypchdir2+0x20>
    3db2: a2 6a        	ldx	#$6a
    3db4: 86 08        	stx	$8                      ; 0x8 <__rc6>
    3db6: a2 68        	ldx	#$68
    3db8: 4c 44 3b     	jmp	$3b44 <main+0x1a2e>
    3dbb: a6 1c        	ldx	$1c                     ; 0x1c <__rc26>
    3dbd: e0 02        	cpx	#$2
    3dbf: f0 03        	beq	$3dc4 <donehyp1att0+0x161>
    3dc1: 4c 09 3e     	jmp	$3e09 <donehyp1att0+0x1a6>
    3dc4: c9 09        	cmp	#$9
    3dc6: f0 03        	beq	$3dcb <donehyp1att0+0x168>
    3dc8: 4c 09 3e     	jmp	$3e09 <donehyp1att0+0x1a6>
    3dcb: a0 21        	ldy	#$21
    3dcd: b1 02        	lda	($2),y                  ; 0x2 <__rc0>
    3dcf: 4c f7 22     	jmp	$22f7 <main+0x1e1>
    3dd2: 20 d3 5d     	jsr	$5dd3 <sidbong>
    3dd5: a0 02        	ldy	#$2
    3dd7: b1 18        	lda	($18),y                 ; 0x18 <__rc22>
    3dd9: c9 ff        	cmp	#$ff
    3ddb: d0 03        	bne	$3de0 <donehyp1att0+0x17d>
    3ddd: 4c fb 22     	jmp	$22fb <main+0x1e5>
    3de0: a2 e1        	ldx	#$e1
    3de2: 86 04        	stx	$4                      ; 0x4 <__rc2>
    3de4: a2 6a        	ldx	#$6a
    3de6: 86 05        	stx	$5                      ; 0x5 <__rc3>
    3de8: a2 4c        	ldx	#$4c
    3dea: 86 06        	stx	$6                      ; 0x6 <__rc4>
    3dec: a2 6f        	ldx	#$6f
    3dee: 4c 91 2e     	jmp	$2e91 <main+0xd7b>
    3df1: c5 05        	cmp	$5                      ; 0x5 <__rc3>
    3df3: 90 03        	bcc	$3df8 <donehyp1att0+0x195>
    3df5: 4c 11 3d     	jmp	$3d11 <donehyp1att0+0xae>
    3df8: a2 18        	ldx	#$18
    3dfa: 86 04        	stx	$4                      ; 0x4 <__rc2>
    3dfc: a2 69        	ldx	#$69
    3dfe: 86 05        	stx	$5                      ; 0x5 <__rc3>
    3e00: a2 d3        	ldx	#$d3
    3e02: 86 06        	stx	$6                      ; 0x6 <__rc4>
    3e04: a2 68        	ldx	#$68
    3e06: 4c 91 2e     	jmp	$2e91 <main+0xd7b>
    3e09: a6 1c        	ldx	$1c                     ; 0x1c <__rc26>
    3e0b: a5 16        	lda	$16                     ; 0x16 <__rc20>
    3e0d: e0 08        	cpx	#$8
    3e0f: d0 07        	bne	$3e18 <donehyp1att0+0x1b5>
    3e11: c9 f6        	cmp	#$f6
    3e13: d0 03        	bne	$3e18 <donehyp1att0+0x1b5>
    3e15: 4c e3 40     	jmp	$40e3 <donehyp0att3+0x37>
    3e18: a6 1c        	ldx	$1c                     ; 0x1c <__rc26>
    3e1a: e0 02        	cpx	#$2
    3e1c: d0 07        	bne	$3e25 <donehyp1att0+0x1c2>
    3e1e: c9 94        	cmp	#$94
    3e20: d0 03        	bne	$3e25 <donehyp1att0+0x1c2>
    3e22: 4c 43 3a     	jmp	$3a43 <main+0x192d>
    3e25: a6 1c        	ldx	$1c                     ; 0x1c <__rc26>
    3e27: a5 16        	lda	$16                     ; 0x16 <__rc20>
    3e29: e0 02        	cpx	#$2
    3e2b: f0 03        	beq	$3e30 <donehyp1att0+0x1cd>
    3e2d: 4c cd 40     	jmp	$40cd <donehyp0att3+0x21>
    3e30: 4c b9 40     	jmp	$40b9 <donehyp0att3+0xd>
    3e33: a5 04        	lda	$4                      ; 0x4 <__rc2>
    3e35: 18           	clc
    3e36: 69 05        	adc	#$5
    3e38: 85 16        	sta	$16                     ; 0x16 <__rc20>
    3e3a: a5 05        	lda	$5                      ; 0x5 <__rc3>
    3e3c: 69 00        	adc	#$0
    3e3e: 85 17        	sta	$17                     ; 0x17 <__rc21>
    3e40: a6 16        	ldx	$16                     ; 0x16 <__rc20>
    3e42: 86 04        	stx	$4                      ; 0x4 <__rc2>
    3e44: 85 05        	sta	$5                      ; 0x5 <__rc3>
    3e46: 20 c3 42     	jsr	$42c3 <hyppo_setname>
    3e49: a2 00        	ldx	#$0
    3e4b: a9 34        	lda	#$34
    3e4d: 8d 40 d6     	sta	$d640                   ; 0xd640 <__heap_start+0x60e8>
    3e50: b8           	clv
    3e51: 90 0b        	bcc	$3e5e <errhypchdir1>
    3e53: a9 0c        	lda	#$c
    3e55: 8d 40 d6     	sta	$d640                   ; 0xd640 <__heap_start+0x60e8>
    3e58: b8           	clv
    3e59: 85 04        	sta	$4                      ; 0x4 <__rc2>
    3e5b: 4c 62 3e     	jmp	$3e62 <donehypchdir1>

00003e5e <errhypchdir1>:
    3e5e: a9 ff        	lda	#$ff
    3e60: 85 04        	sta	$4                      ; 0x4 <__rc2>

00003e62 <donehypchdir1>:
    3e62: ea           	nop
    3e63: a6 04        	ldx	$4                      ; 0x4 <__rc2>
    3e65: e0 10        	cpx	#$10
    3e67: b0 03        	bcs	$3e6c <donehypchdir1+0xa>
    3e69: 4c 06 3f     	jmp	$3f06 <donehypchdir2+0x4b>
    3e6c: a2 86        	ldx	#$86
    3e6e: 86 04        	stx	$4                      ; 0x4 <__rc2>
    3e70: a2 68        	ldx	#$68
    3e72: 86 05        	stx	$5                      ; 0x5 <__rc3>
    3e74: a2 d1        	ldx	#$d1
    3e76: 86 06        	stx	$6                      ; 0x6 <__rc4>
    3e78: a2 6a        	ldx	#$6a
    3e7a: 86 07        	stx	$7                      ; 0x7 <__rc5>
    3e7c: a6 16        	ldx	$16                     ; 0x16 <__rc20>
    3e7e: 86 08        	stx	$8                      ; 0x8 <__rc6>
    3e80: a6 17        	ldx	$17                     ; 0x17 <__rc21>
    3e82: 86 09        	stx	$9                      ; 0x9 <__rc7>
    3e84: a9 00        	lda	#$0
    3e86: 20 6d 50     	jsr	$506d <messagebox>
    3e89: 4c a9 2f     	jmp	$2fa9 <main+0xe93>
    3e8c: a5 04        	lda	$4                      ; 0x4 <__rc2>
    3e8e: 18           	clc
    3e8f: 69 05        	adc	#$5
    3e91: 85 16        	sta	$16                     ; 0x16 <__rc20>
    3e93: a5 05        	lda	$5                      ; 0x5 <__rc3>
    3e95: 69 00        	adc	#$0
    3e97: 85 17        	sta	$17                     ; 0x17 <__rc21>
    3e99: a6 16        	ldx	$16                     ; 0x16 <__rc20>
    3e9b: 86 04        	stx	$4                      ; 0x4 <__rc2>
    3e9d: 85 05        	sta	$5                      ; 0x5 <__rc3>
    3e9f: 20 c3 42     	jsr	$42c3 <hyppo_setname>
    3ea2: a2 00        	ldx	#$0
    3ea4: a9 34        	lda	#$34
    3ea6: 8d 40 d6     	sta	$d640                   ; 0xd640 <__heap_start+0x60e8>
    3ea9: b8           	clv
    3eaa: 90 0b        	bcc	$3eb7 <errhypchdir2>
    3eac: a9 0c        	lda	#$c
    3eae: 8d 40 d6     	sta	$d640                   ; 0xd640 <__heap_start+0x60e8>
    3eb1: b8           	clv
    3eb2: 85 04        	sta	$4                      ; 0x4 <__rc2>
    3eb4: 4c bb 3e     	jmp	$3ebb <donehypchdir2>

00003eb7 <errhypchdir2>:
    3eb7: a9 ff        	lda	#$ff
    3eb9: 85 04        	sta	$4                      ; 0x4 <__rc2>

00003ebb <donehypchdir2>:
    3ebb: ea           	nop
    3ebc: a6 04        	ldx	$4                      ; 0x4 <__rc2>
    3ebe: e0 10        	cpx	#$10
    3ec0: 90 19        	bcc	$3edb <donehypchdir2+0x20>
    3ec2: a2 00        	ldx	#$0
    3ec4: 86 04        	stx	$4                      ; 0x4 <__rc2>
    3ec6: a2 70        	ldx	#$70
    3ec8: 86 05        	stx	$5                      ; 0x5 <__rc3>
    3eca: a2 d1        	ldx	#$d1
    3ecc: 86 06        	stx	$6                      ; 0x6 <__rc4>
    3ece: a2 6a        	ldx	#$6a
    3ed0: 86 07        	stx	$7                      ; 0x7 <__rc5>
    3ed2: a6 16        	ldx	$16                     ; 0x16 <__rc20>
    3ed4: 86 08        	stx	$8                      ; 0x8 <__rc6>
    3ed6: a6 17        	ldx	$17                     ; 0x17 <__rc21>
    3ed8: 4c 2c 2f     	jmp	$2f2c <main+0xe16>
    3edb: b2 18        	lda	($18),z                 ; 0x18 <__rc22>
    3edd: a6 1d        	ldx	$1d                     ; 0x1d <__rc27>
    3edf: 20 7c 56     	jsr	$567c <UpdateSectors>
    3ee2: a5 1d        	lda	$1d                     ; 0x1d <__rc27>
    3ee4: 20 4d 5c     	jsr	$5c4d <Deselect>
    3ee7: 4c fb 22     	jmp	$22fb <main+0x1e5>
    3eea: a9 00        	lda	#$0
    3eec: 91 04        	sta	($4),y                  ; 0x4 <__rc2>
    3eee: 4c fb 22     	jmp	$22fb <main+0x1e5>
    3ef1: b2 18        	lda	($18),z                 ; 0x18 <__rc22>
    3ef3: 48           	pha
    3ef4: a0 15        	ldy	#$15
    3ef6: b1 02        	lda	($2),y                  ; 0x2 <__rc0>
    3ef8: aa           	tax
    3ef9: 68           	pla
    3efa: 20 7c 56     	jsr	$567c <UpdateSectors>
    3efd: a5 16        	lda	$16                     ; 0x16 <__rc20>
    3eff: a0 1c        	ldy	#$1c
    3f01: 91 02        	sta	($2),y                  ; 0x2 <__rc0>
    3f03: 4c 11 3a     	jmp	$3a11 <main+0x18fb>
    3f06: b2 18        	lda	($18),z                 ; 0x18 <__rc22>
    3f08: a6 1c        	ldx	$1c                     ; 0x1c <__rc26>
    3f0a: 20 7c 56     	jsr	$567c <UpdateSectors>
    3f0d: a5 1c        	lda	$1c                     ; 0x1c <__rc26>
    3f0f: 20 4d 5c     	jsr	$5c4d <Deselect>
    3f12: 4c a9 2f     	jmp	$2fa9 <main+0xe93>
    3f15: a6 1c        	ldx	$1c                     ; 0x1c <__rc26>
    3f17: e0 04        	cpx	#$4
    3f19: f0 03        	beq	$3f1e <donehypchdir2+0x63>
    3f1b: 4c 5b 41     	jmp	$415b <donehyp0att3+0xaf>
    3f1e: 4c 32 41     	jmp	$4132 <donehyp0att3+0x86>
    3f21: a2 45        	ldx	#$45
    3f23: 86 08        	stx	$8                      ; 0x8 <__rc6>
    3f25: a2 6b        	ldx	#$6b
    3f27: 86 09        	stx	$9                      ; 0x9 <__rc7>
    3f29: a5 1c        	lda	$1c                     ; 0x1c <__rc26>
    3f2b: 18           	clc
    3f2c: 69 05        	adc	#$5
    3f2e: 85 06        	sta	$6                      ; 0x6 <__rc4>
    3f30: a5 1d        	lda	$1d                     ; 0x1d <__rc27>
    3f32: 69 00        	adc	#$0
    3f34: 85 07        	sta	$7                      ; 0x7 <__rc5>
    3f36: a2 18        	ldx	#$18
    3f38: 86 04        	stx	$4                      ; 0x4 <__rc2>
    3f3a: a2 69        	ldx	#$69
    3f3c: 86 05        	stx	$5                      ; 0x5 <__rc3>
    3f3e: a9 00        	lda	#$0
    3f40: 20 6d 50     	jsr	$506d <messagebox>
    3f43: aa           	tax
    3f44: d0 03        	bne	$3f49 <donehypchdir2+0x8e>
    3f46: 4c fb 22     	jmp	$22fb <main+0x1e5>
    3f49: a0 00        	ldy	#$0
    3f4b: a2 08        	ldx	#$8
    3f4d: 5a           	phy
    3f4e: a0 1c        	ldy	#$1c
    3f50: b1 02        	lda	($2),y                  ; 0x2 <__rc0>
    3f52: 7a           	ply
    3f53: 64 1e        	stz	$1e                     ; 0x1e <__rc28>
    3f55: 85 16        	sta	$16                     ; 0x16 <__rc20>
    3f57: c9 00        	cmp	#$0
    3f59: d0 03        	bne	$3f5e <donehypchdir2+0xa3>
    3f5b: 4c da 40     	jmp	$40da <donehyp0att3+0x2e>
    3f5e: 64 17        	stz	$17                     ; 0x17 <__rc21>
    3f60: 38           	sec
    3f61: a5 20        	lda	$20                     ; 0x20 <__rc30>
    3f63: e5 1b        	sbc	$1b                     ; 0x1b <__rc25>
    3f65: 85 04        	sta	$4                      ; 0x4 <__rc2>
    3f67: 5a           	phy
    3f68: a0 1f        	ldy	#$1f
    3f6a: b1 02        	lda	($2),y                  ; 0x2 <__rc0>
    3f6c: 7a           	ply
    3f6d: e5 1a        	sbc	$1a                     ; 0x1a <__zp_bss_size>
    3f6f: 85 05        	sta	$5                      ; 0x5 <__rc3>
    3f71: a9 58        	lda	#$58
    3f73: 18           	clc
    3f74: 65 04        	adc	$4                      ; 0x4 <__rc2>
    3f76: 85 04        	sta	$4                      ; 0x4 <__rc2>
    3f78: a9 71        	lda	#$71
    3f7a: 65 05        	adc	$5                      ; 0x5 <__rc3>
    3f7c: 85 05        	sta	$5                      ; 0x5 <__rc3>
    3f7e: 86 21        	stx	$21                     ; 0x21 <__rc31>
    3f80: 4c b5 32     	jmp	$32b5 <main+0x119f>
    3f83: c8           	iny
    3f84: c0 51        	cpy	#$51
    3f86: d0 03        	bne	$3f8b <donehypchdir2+0xd0>
    3f88: 4c ba 42     	jmp	$42ba <donehypd81detach4+0x13>
    3f8b: a2 00        	ldx	#$0
    3f8d: 84 1d        	sty	$1d                     ; 0x1d <__rc27>
    3f8f: 80 2f        	bra	$3fc0 <donehypchdir2+0x105>
    3f91: a5 18        	lda	$18                     ; 0x18 <__rc22>
    3f93: 18           	clc
    3f94: 69 20        	adc	#$20
    3f96: 85 07        	sta	$7                      ; 0x7 <__rc5>
    3f98: a5 19        	lda	$19                     ; 0x19 <__rc23>
    3f9a: 69 00        	adc	#$0
    3f9c: 85 08        	sta	$8                      ; 0x8 <__rc6>
    3f9e: a9 00        	lda	#$0
    3fa0: 69 08        	adc	#$8
    3fa2: 64 04        	stz	$4                      ; 0x4 <__rc2>
    3fa4: 64 05        	stz	$5                      ; 0x5 <__rc3>
    3fa6: 64 06        	stz	$6                      ; 0x6 <__rc4>
    3fa8: 85 09        	sta	$9                      ; 0x9 <__rc7>
    3faa: 64 0a        	stz	$a                      ; 0xa <__zp_data_size>
    3fac: 86 0b        	stx	$b                      ; 0xb <__rc9>
    3fae: a2 18        	ldx	#$18
    3fb0: a9 00        	lda	#$0
    3fb2: 20 80 60     	jsr	$6080 <lcopy>
    3fb5: e6 18        	inc	$18                     ; 0x18 <__rc22>
    3fb7: d0 02        	bne	$3fbb <donehypchdir2+0x100>
    3fb9: e6 19        	inc	$19                     ; 0x19 <__rc23>
    3fbb: a4 1d        	ldy	$1d                     ; 0x1d <__rc27>
    3fbd: a6 1e        	ldx	$1e                     ; 0x1e <__rc28>
    3fbf: e8           	inx
    3fc0: e0 28        	cpx	#$28
    3fc2: d0 03        	bne	$3fc7 <donehypchdir2+0x10c>
    3fc4: 4c 83 3f     	jmp	$3f83 <donehypchdir2+0xc8>
    3fc7: a9 02        	lda	#$2
    3fc9: 25 2d        	and	$2d                     ; 0x2d <option.0>
    3fcb: f0 0e        	beq	$3fdb <donehypchdir2+0x120>
    3fcd: 86 1c        	stx	$1c                     ; 0x1c <__rc26>
    3fcf: 98           	tya
    3fd0: 20 10 49     	jsr	$4910 <isallocatedBAMtracksector>
    3fd3: a6 1c        	ldx	$1c                     ; 0x1c <__rc26>
    3fd5: a4 1d        	ldy	$1d                     ; 0x1d <__rc27>
    3fd7: c9 00        	cmp	#$0
    3fd9: f0 e4        	beq	$3fbf <donehypchdir2+0x104>
    3fdb: 86 1e        	stx	$1e                     ; 0x1e <__rc28>
    3fdd: 98           	tya
    3fde: 84 1c        	sty	$1c                     ; 0x1c <__rc26>
    3fe0: 20 c9 4b     	jsr	$4bc9 <tracksectorstring>
    3fe3: a6 18        	ldx	$18                     ; 0x18 <__rc22>
    3fe5: 86 04        	stx	$4                      ; 0x4 <__rc2>
    3fe7: 06 04        	asl	$4                      ; 0x4 <__rc2>
    3fe9: a5 19        	lda	$19                     ; 0x19 <__rc23>
    3feb: 2a           	rol
    3fec: 06 04        	asl	$4                      ; 0x4 <__rc2>
    3fee: 2a           	rol
    3fef: a2 da        	ldx	#$da
    3ff1: 86 04        	stx	$4                      ; 0x4 <__rc2>
    3ff3: a2 6f        	ldx	#$6f
    3ff5: 86 05        	stx	$5                      ; 0x5 <__rc3>
    3ff7: a2 08        	ldx	#$8
    3ff9: 86 06        	stx	$6                      ; 0x6 <__rc4>
    3ffb: a2 71        	ldx	#$71
    3ffd: 86 07        	stx	$7                      ; 0x7 <__rc5>
    3fff: 20 54 51     	jsr	$5154 <progress>
    4002: a2 00        	ldx	#$0
    4004: 86 04        	stx	$4                      ; 0x4 <__rc2>
    4006: a2 18        	ldx	#$18
    4008: 86 05        	stx	$5                      ; 0x5 <__rc3>
    400a: a6 1e        	ldx	$1e                     ; 0x1e <__rc28>
    400c: 86 06        	stx	$6                      ; 0x6 <__rc4>
    400e: a6 1c        	ldx	$1c                     ; 0x1c <__rc26>
    4010: a5 17        	lda	$17                     ; 0x17 <__rc21>
    4012: 20 d6 43     	jsr	$43d6 <GetOneSector>
    4015: c9 02        	cmp	#$2
    4017: a2 01        	ldx	#$1
    4019: b0 03        	bcs	$401e <donehypchdir2+0x163>
    401b: 4c 91 3f     	jmp	$3f91 <donehypchdir2+0xd6>
    401e: b2 1a        	lda	($1a),z                 ; 0x1a <__zp_bss_size>
    4020: 48           	pha
    4021: a0 21        	ldy	#$21
    4023: b1 02        	lda	($2),y                  ; 0x2 <__rc0>
    4025: aa           	tax
    4026: 68           	pla
    4027: 20 7c 56     	jsr	$567c <UpdateSectors>
    402a: 4c fb 22     	jmp	$22fb <main+0x1e5>
    402d: 20 60 4e     	jsr	$4e60 <clrhome>
    4030: a2 23        	ldx	#$23
    4032: 86 04        	stx	$4                      ; 0x4 <__rc2>
    4034: a2 69        	ldx	#$69
    4036: 86 05        	stx	$5                      ; 0x5 <__rc3>
    4038: 20 be 4e     	jsr	$4ebe <msprintf>
    403b: a9 80        	lda	#$80
    403d: a2 84        	ldx	#$84
    403f: a0 1e        	ldy	#$1e
    4041: 84 04        	sty	$4                      ; 0x4 <__rc2>
    4043: 64 05        	stz	$5                      ; 0x5 <__rc3>
    4045: 20 37 61     	jsr	$6137 <usleep>
    4048: a2 00        	ldx	#$0
    404a: a9 7e        	lda	#$7e
    404c: 8d 40 d6     	sta	$d640                   ; 0xd640 <__heap_start+0x60e8>
    404f: b8           	clv
    4050: 8a           	txa
    4051: 85 12        	sta	$12                     ; 0x12 <__rc16>
    4053: a8           	tay
    4054: b1 02        	lda	($2),y                  ; 0x2 <__rc0>
    4056: 85 21        	sta	$21                     ; 0x21 <__rc31>
    4058: c8           	iny
    4059: b1 02        	lda	($2),y                  ; 0x2 <__rc0>
    405b: 85 20        	sta	$20                     ; 0x20 <__rc30>
    405d: c8           	iny
    405e: b1 02        	lda	($2),y                  ; 0x2 <__rc0>
    4060: 85 1f        	sta	$1f                     ; 0x1f <__rc29>
    4062: c8           	iny
    4063: b1 02        	lda	($2),y                  ; 0x2 <__rc0>
    4065: 85 1e        	sta	$1e                     ; 0x1e <__rc28>
    4067: c8           	iny
    4068: b1 02        	lda	($2),y                  ; 0x2 <__rc0>
    406a: 85 1d        	sta	$1d                     ; 0x1d <__rc27>
    406c: c8           	iny
    406d: b1 02        	lda	($2),y                  ; 0x2 <__rc0>
    406f: 85 1c        	sta	$1c                     ; 0x1c <__rc26>
    4071: c8           	iny
    4072: b1 02        	lda	($2),y                  ; 0x2 <__rc0>
    4074: 85 1b        	sta	$1b                     ; 0x1b <__rc25>
    4076: c8           	iny
    4077: b1 02        	lda	($2),y                  ; 0x2 <__rc0>
    4079: 85 1a        	sta	$1a                     ; 0x1a <__zp_bss_size>
    407b: 7a           	ply
    407c: 84 19        	sty	$19                     ; 0x19 <__rc23>
    407e: 7a           	ply
    407f: 84 18        	sty	$18                     ; 0x18 <__rc22>
    4081: 7a           	ply
    4082: 84 17        	sty	$17                     ; 0x17 <__rc21>
    4084: 7a           	ply
    4085: 84 16        	sty	$16                     ; 0x16 <__rc20>
    4087: 18           	clc
    4088: a5 02        	lda	$2                      ; 0x2 <__rc0>
    408a: 69 29        	adc	#$29
    408c: 85 02        	sta	$2                      ; 0x2 <__rc0>
    408e: a5 03        	lda	$3                      ; 0x3 <__rc1>
    4090: 69 00        	adc	#$0
    4092: 85 03        	sta	$3                      ; 0x3 <__rc1>
    4094: a5 12        	lda	$12                     ; 0x12 <__rc16>
    4096: 60           	rts
    4097: a2 00        	ldx	#$0
    4099: a9 40        	lda	#$40
    409b: 8d 40 d6     	sta	$d640                   ; 0xd640 <__heap_start+0x60e8>
    409e: b8           	clv
    409f: 90 07        	bcc	$40a8 <errhyp0att3>
    40a1: a9 00        	lda	#$0
    40a3: 85 04        	sta	$4                      ; 0x4 <__rc2>
    40a5: 4c ac 40     	jmp	$40ac <donehyp0att3>

000040a8 <errhyp0att3>:
    40a8: a9 ff        	lda	#$ff
    40aa: 85 04        	sta	$4                      ; 0x4 <__rc2>

000040ac <donehyp0att3>:
    40ac: ea           	nop
    40ad: 4c 64 3c     	jmp	$3c64 <donehyp1att0+0x1>
    40b0: a9 01        	lda	#$1
    40b2: a0 46        	ldy	#$46
    40b4: 11 18        	ora	($18),y                 ; 0x18 <__rc22>
    40b6: 4c ad 3d     	jmp	$3dad <donehyp1att0+0x14a>
    40b9: 48           	pha
    40ba: 5a           	phy
    40bb: a0 1c        	ldy	#$1c
    40bd: b1 02        	lda	($2),y                  ; 0x2 <__rc0>
    40bf: 7a           	ply
    40c0: 85 17        	sta	$17                     ; 0x17 <__rc21>
    40c2: 68           	pla
    40c3: c9 9d        	cmp	#$9d
    40c5: d0 03        	bne	$40ca <donehyp0att3+0x1e>
    40c7: 4c 74 3d     	jmp	$3d74 <donehyp1att0+0x111>
    40ca: 4c 15 3f     	jmp	$3f15 <donehypchdir2+0x5a>
    40cd: 48           	pha
    40ce: 5a           	phy
    40cf: a0 1c        	ldy	#$1c
    40d1: b1 02        	lda	($2),y                  ; 0x2 <__rc0>
    40d3: 7a           	ply
    40d4: 85 17        	sta	$17                     ; 0x17 <__rc21>
    40d6: 68           	pla
    40d7: 4c 15 3f     	jmp	$3f15 <donehypchdir2+0x5a>
    40da: a0 0e        	ldy	#$e
    40dc: 84 17        	sty	$17                     ; 0x17 <__rc21>
    40de: a0 00        	ldy	#$0
    40e0: 4c 60 3f     	jmp	$3f60 <donehypchdir2+0xa5>
    40e3: a9 27        	lda	#$27
    40e5: 18           	clc
    40e6: 65 19        	adc	$19                     ; 0x19 <__rc23>
    40e8: 85 04        	sta	$4                      ; 0x4 <__rc2>
    40ea: a9 00        	lda	#$0
    40ec: 65 18        	adc	$18                     ; 0x18 <__rc22>
    40ee: 85 05        	sta	$5                      ; 0x5 <__rc3>
    40f0: b2 04        	lda	($4),z                  ; 0x4 <__rc2>
    40f2: 85 18        	sta	$18                     ; 0x18 <__rc22>
    40f4: b1 04        	lda	($4),y                  ; 0x4 <__rc2>
    40f6: 85 19        	sta	$19                     ; 0x19 <__rc23>
    40f8: a9 01        	lda	#$1
    40fa: a0 46        	ldy	#$46
    40fc: 31 18        	and	($18),y                 ; 0x18 <__rc22>
    40fe: 29 01        	and	#$1
    4100: f0 03        	beq	$4105 <donehyp0att3+0x59>
    4102: 4c c2 41     	jmp	$41c2 <donehyp0att3+0x116>
    4105: a2 e5        	ldx	#$e5
    4107: 86 04        	stx	$4                      ; 0x4 <__rc2>
    4109: a2 6f        	ldx	#$6f
    410b: 4c 89 2e     	jmp	$2e89 <main+0xd73>
    410e: ae 00 16     	ldx	$1600                   ; 0x1600 <__heap_default_limit+0x600>
    4111: ac 01 16     	ldy	$1601                   ; 0x1601 <__heap_default_limit+0x601>
    4114: a9 00        	lda	#$0
    4116: 85 04        	sta	$4                      ; 0x4 <__rc2>
    4118: a9 17        	lda	#$17
    411a: 85 05        	sta	$5                      ; 0x5 <__rc3>
    411c: 84 06        	sty	$6                      ; 0x6 <__rc4>
    411e: a8           	tay
    411f: b1 02        	lda	($2),y                  ; 0x2 <__rc0>
    4121: 20 d6 43     	jsr	$43d6 <GetOneSector>
    4124: c9 02        	cmp	#$2
    4126: 90 03        	bcc	$412b <donehyp0att3+0x7f>
    4128: 4c 66 2c     	jmp	$2c66 <main+0xb50>
    412b: a6 1a        	ldx	$1a                     ; 0x1a <__zp_bss_size>
    412d: a4 1b        	ldy	$1b                     ; 0x1b <__rc25>
    412f: 4c d2 2c     	jmp	$2cd2 <main+0xbbc>
    4132: c9 12        	cmp	#$12
    4134: d0 25        	bne	$415b <donehyp0att3+0xaf>
    4136: a9 27        	lda	#$27
    4138: 18           	clc
    4139: 65 19        	adc	$19                     ; 0x19 <__rc23>
    413b: 85 04        	sta	$4                      ; 0x4 <__rc2>
    413d: a9 00        	lda	#$0
    413f: 65 18        	adc	$18                     ; 0x18 <__rc22>
    4141: 85 05        	sta	$5                      ; 0x5 <__rc3>
    4143: b2 04        	lda	($4),z                  ; 0x4 <__rc2>
    4145: aa           	tax
    4146: b1 04        	lda	($4),y                  ; 0x4 <__rc2>
    4148: 86 04        	stx	$4                      ; 0x4 <__rc2>
    414a: 85 05        	sta	$5                      ; 0x5 <__rc3>
    414c: b2 04        	lda	($4),z                  ; 0x4 <__rc2>
    414e: a6 17        	ldx	$17                     ; 0x17 <__rc21>
    4150: 20 7c 56     	jsr	$567c <UpdateSectors>
    4153: a5 17        	lda	$17                     ; 0x17 <__rc21>
    4155: 20 4d 5c     	jsr	$5c4d <Deselect>
    4158: 4c fb 22     	jmp	$22fb <main+0x1e5>
    415b: a6 1c        	ldx	$1c                     ; 0x1c <__rc26>
    415d: e0 04        	cpx	#$4
    415f: d0 07        	bne	$4168 <donehyp0att3+0xbc>
    4161: c9 15        	cmp	#$15
    4163: d0 03        	bne	$4168 <donehyp0att3+0xbc>
    4165: 4c 5b 2e     	jmp	$2e5b <main+0xd45>
    4168: a6 1c        	ldx	$1c                     ; 0x1c <__rc26>
    416a: e0 08        	cpx	#$8
    416c: f0 03        	beq	$4171 <donehyp0att3+0xc5>
    416e: 4c ad 41     	jmp	$41ad <donehyp0att3+0x101>
    4171: a5 16        	lda	$16                     ; 0x16 <__rc20>
    4173: c9 f2        	cmp	#$f2
    4175: f0 03        	beq	$417a <donehyp0att3+0xce>
    4177: 4c ad 41     	jmp	$41ad <donehyp0att3+0x101>
    417a: a9 27        	lda	#$27
    417c: 18           	clc
    417d: 65 19        	adc	$19                     ; 0x19 <__rc23>
    417f: 85 04        	sta	$4                      ; 0x4 <__rc2>
    4181: a9 00        	lda	#$0
    4183: 65 18        	adc	$18                     ; 0x18 <__rc22>
    4185: 85 05        	sta	$5                      ; 0x5 <__rc3>
    4187: b2 04        	lda	($4),z                  ; 0x4 <__rc2>
    4189: 85 06        	sta	$6                      ; 0x6 <__rc4>
    418b: b1 04        	lda	($4),y                  ; 0x4 <__rc2>
    418d: 85 07        	sta	$7                      ; 0x7 <__rc5>
    418f: a9 01        	lda	#$1
    4191: a0 46        	ldy	#$46
    4193: 31 06        	and	($6),y                  ; 0x6 <__rc4>
    4195: 29 01        	and	#$1
    4197: f0 03        	beq	$419c <donehyp0att3+0xf0>
    4199: 4c 52 42     	jmp	$4252 <donehyp0att3+0x1a6>
    419c: a2 cb        	ldx	#$cb
    419e: 86 04        	stx	$4                      ; 0x4 <__rc2>
    41a0: a2 68        	ldx	#$68
    41a2: 86 05        	stx	$5                      ; 0x5 <__rc3>
    41a4: a2 0a        	ldx	#$a
    41a6: 86 06        	stx	$6                      ; 0x6 <__rc4>
    41a8: a2 6e        	ldx	#$6e
    41aa: 4c 91 2e     	jmp	$2e91 <main+0xd7b>
    41ad: a6 1c        	ldx	$1c                     ; 0x1c <__rc26>
    41af: e0 02        	cpx	#$2
    41b1: f0 03        	beq	$41b6 <donehyp0att3+0x10a>
    41b3: 4c 5b 2e     	jmp	$2e5b <main+0xd45>
    41b6: a6 16        	ldx	$16                     ; 0x16 <__rc20>
    41b8: e0 91        	cpx	#$91
    41ba: d0 03        	bne	$41bf <donehyp0att3+0x113>
    41bc: 4c 32 3d     	jmp	$3d32 <donehyp1att0+0xcf>
    41bf: 4c 5b 2e     	jmp	$2e5b <main+0xd45>
    41c2: a2 f3        	ldx	#$f3
    41c4: 86 04        	stx	$4                      ; 0x4 <__rc2>
    41c6: a2 69        	ldx	#$69
    41c8: 86 05        	stx	$5                      ; 0x5 <__rc3>
    41ca: a2 0b        	ldx	#$b
    41cc: 86 06        	stx	$6                      ; 0x6 <__rc4>
    41ce: a2 6c        	ldx	#$6c
    41d0: 86 07        	stx	$7                      ; 0x7 <__rc5>
    41d2: a2 b7        	ldx	#$b7
    41d4: 86 08        	stx	$8                      ; 0x8 <__rc6>
    41d6: a2 67        	ldx	#$67
    41d8: 86 09        	stx	$9                      ; 0x9 <__rc7>
    41da: a9 00        	lda	#$0
    41dc: 20 6d 50     	jsr	$506d <messagebox>
    41df: aa           	tax
    41e0: d0 03        	bne	$41e5 <donehyp0att3+0x139>
    41e2: 4c fb 22     	jmp	$22fb <main+0x1e5>
    41e5: a0 1c        	ldy	#$1c
    41e7: b1 02        	lda	($2),y                  ; 0x2 <__rc0>
    41e9: 20 df 44     	jsr	$44df <GetBAM>
    41ec: a0 01        	ldy	#$1
    41ee: 5a           	phy
    41ef: a0 21        	ldy	#$21
    41f1: b1 02        	lda	($2),y                  ; 0x2 <__rc0>
    41f3: 7a           	ply
    41f4: 0a           	asl
    41f5: 85 04        	sta	$4                      ; 0x4 <__rc2>
    41f7: a9 00        	lda	#$0
    41f9: 2a           	rol
    41fa: 85 05        	sta	$5                      ; 0x5 <__rc3>
    41fc: a9 27        	lda	#$27
    41fe: 18           	clc
    41ff: 65 04        	adc	$4                      ; 0x4 <__rc2>
    4201: 85 04        	sta	$4                      ; 0x4 <__rc2>
    4203: a9 00        	lda	#$0
    4205: 65 05        	adc	$5                      ; 0x5 <__rc3>
    4207: 85 05        	sta	$5                      ; 0x5 <__rc3>
    4209: b2 18        	lda	($18),z                 ; 0x18 <__rc22>
    420b: 85 17        	sta	$17                     ; 0x17 <__rc21>
    420d: b2 04        	lda	($4),z                  ; 0x4 <__rc2>
    420f: 85 1a        	sta	$1a                     ; 0x1a <__zp_bss_size>
    4211: b1 04        	lda	($4),y                  ; 0x4 <__rc2>
    4213: a0 01        	ldy	#$1
    4215: 85 1b        	sta	$1b                     ; 0x1b <__rc25>
    4217: b2 1a        	lda	($1a),z                 ; 0x1a <__zp_bss_size>
    4219: 85 16        	sta	$16                     ; 0x16 <__rc20>
    421b: 64 18        	stz	$18                     ; 0x18 <__rc22>
    421d: 64 19        	stz	$19                     ; 0x19 <__rc23>
    421f: 4c 84 3f     	jmp	$3f84 <donehypchdir2+0xc9>
    4222: a2 00        	ldx	#$0
    4224: 86 04        	stx	$4                      ; 0x4 <__rc2>
    4226: a2 16        	ldx	#$16
    4228: 86 05        	stx	$5                      ; 0x5 <__rc3>
    422a: a2 01        	ldx	#$1
    422c: 86 06        	stx	$6                      ; 0x6 <__rc4>
    422e: 48           	pha
    422f: a0 13        	ldy	#$13
    4231: b1 02        	lda	($2),y                  ; 0x2 <__rc0>
    4233: aa           	tax
    4234: 68           	pla
    4235: 85 16        	sta	$16                     ; 0x16 <__rc20>
    4237: 20 19 44     	jsr	$4419 <PutOneSector>
    423a: ae 00 16     	ldx	$1600                   ; 0x1600 <__heap_default_limit+0x600>
    423d: ac 01 16     	ldy	$1601                   ; 0x1601 <__heap_default_limit+0x601>
    4240: a9 00        	lda	#$0
    4242: 85 04        	sta	$4                      ; 0x4 <__rc2>
    4244: a9 17        	lda	#$17
    4246: 85 05        	sta	$5                      ; 0x5 <__rc3>
    4248: 84 06        	sty	$6                      ; 0x6 <__rc4>
    424a: a5 16        	lda	$16                     ; 0x16 <__rc20>
    424c: 20 19 44     	jsr	$4419 <PutOneSector>
    424f: 4c 66 2c     	jmp	$2c66 <main+0xb50>
    4252: a2 64        	ldx	#$64
    4254: 86 04        	stx	$4                      ; 0x4 <__rc2>
    4256: a2 6f        	ldx	#$6f
    4258: 86 05        	stx	$5                      ; 0x5 <__rc3>
    425a: a2 28        	ldx	#$28
    425c: 86 06        	stx	$6                      ; 0x6 <__rc4>
    425e: a2 6b        	ldx	#$6b
    4260: 86 07        	stx	$7                      ; 0x7 <__rc5>
    4262: a2 b7        	ldx	#$b7
    4264: 86 08        	stx	$8                      ; 0x8 <__rc6>
    4266: a2 67        	ldx	#$67
    4268: 86 09        	stx	$9                      ; 0x9 <__rc7>
    426a: a9 00        	lda	#$0
    426c: 20 6d 50     	jsr	$506d <messagebox>
    426f: a0 01        	ldy	#$1
    4271: aa           	tax
    4272: d0 03        	bne	$4277 <donehyp0att3+0x1cb>
    4274: 4c fb 22     	jmp	$22fb <main+0x1e5>
    4277: 5a           	phy
    4278: a0 21        	ldy	#$21
    427a: b1 02        	lda	($2),y                  ; 0x2 <__rc0>
    427c: 7a           	ply
    427d: 85 20        	sta	$20                     ; 0x20 <__rc30>
    427f: 0a           	asl
    4280: 85 04        	sta	$4                      ; 0x4 <__rc2>
    4282: a9 00        	lda	#$0
    4284: 2a           	rol
    4285: 85 05        	sta	$5                      ; 0x5 <__rc3>
    4287: a9 27        	lda	#$27
    4289: 18           	clc
    428a: 65 04        	adc	$4                      ; 0x4 <__rc2>
    428c: 85 04        	sta	$4                      ; 0x4 <__rc2>
    428e: a9 00        	lda	#$0
    4290: 65 05        	adc	$5                      ; 0x5 <__rc3>
    4292: 85 05        	sta	$5                      ; 0x5 <__rc3>
    4294: a2 00        	ldx	#$0
    4296: a9 42        	lda	#$42
    4298: 8d 40 d6     	sta	$d640                   ; 0xd640 <__heap_start+0x60e8>
    429b: b8           	clv
    429c: 90 05        	bcc	$42a3 <errhypd81detach4>
    429e: 85 06        	sta	$6                      ; 0x6 <__rc4>
    42a0: 4c a7 42     	jmp	$42a7 <donehypd81detach4>

000042a3 <errhypd81detach4>:
    42a3: a9 ff        	lda	#$ff
    42a5: 85 06        	sta	$6                      ; 0x6 <__rc4>

000042a7 <donehypd81detach4>:
    42a7: ea b2 04     	lda	[$4],z                  ; 0x4 <__rc2>
    42aa: 85 06        	sta	$6                      ; 0x6 <__rc4>
    42ac: b1 04        	lda	($4),y                  ; 0x4 <__rc2>
    42ae: 85 07        	sta	$7                      ; 0x7 <__rc5>
    42b0: b2 06        	lda	($6),z                  ; 0x6 <__rc4>
    42b2: a6 20        	ldx	$20                     ; 0x20 <__rc30>
    42b4: 20 7c 56     	jsr	$567c <UpdateSectors>
    42b7: 4c fb 22     	jmp	$22fb <main+0x1e5>
    42ba: a0 01        	ldy	#$1
    42bc: 64 18        	stz	$18                     ; 0x18 <__rc22>
    42be: 64 19        	stz	$19                     ; 0x19 <__rc23>
    42c0: 4c 37 3b     	jmp	$3b37 <main+0x1a21>

000042c3 <hyppo_setname>:
    42c3: a6 04        	ldx	$4                      ; 0x4 <__rc2>
    42c5: 86 06        	stx	$6                      ; 0x6 <__rc4>
    42c7: a6 05        	ldx	$5                      ; 0x5 <__rc3>
    42c9: 86 07        	stx	$7                      ; 0x7 <__rc5>
    42cb: a2 1c        	ldx	#$1c
    42cd: a0 00        	ldy	#$0
    42cf: 84 04        	sty	$4                      ; 0x4 <__rc2>
    42d1: a0 1c        	ldy	#$1c
    42d3: 84 05        	sty	$5                      ; 0x5 <__rc3>
    42d5: 86 2c        	stx	$2c                     ; 0x2c <fnamehi>
    42d7: 20 93 61     	jsr	$6193 <strcpy>
    42da: a4 2c        	ldy	$2c                     ; 0x2c <fnamehi>
    42dc: a2 00        	ldx	#$0
    42de: a9 2e        	lda	#$2e
    42e0: 8d 40 d6     	sta	$d640                   ; 0xd640 <__heap_start+0x60e8>
    42e3: b8           	clv
    42e4: 90 07        	bcc	$42ed <errhypsetnam5>
    42e6: a9 00        	lda	#$0
    42e8: 85 04        	sta	$4                      ; 0x4 <__rc2>
    42ea: 4c f1 42     	jmp	$42f1 <donehypsetnam5>

000042ed <errhypsetnam5>:
    42ed: a9 ff        	lda	#$ff
    42ef: 85 04        	sta	$4                      ; 0x4 <__rc2>

000042f1 <donehypsetnam5>:
    42f1: ea           	nop
    42f2: 60           	rts

000042f3 <getsfn>:
    42f3: a2 00        	ldx	#$0
    42f5: a0 00        	ldy	#$0
    42f7: 80 0e        	bra	$4307 <getsfn+0x14>
    42f9: c9 21        	cmp	#$21
    42fb: 90 09        	bcc	$4306 <getsfn+0x13>
    42fd: 84 04        	sty	$4                      ; 0x4 <__rc2>
    42ff: e6 04        	inc	$4                      ; 0x4 <__rc2>
    4301: 99 41 1c     	sta	$1c41,y                 ; 0x1c41 <__heap_default_limit+0xc41>
    4304: a4 04        	ldy	$4                      ; 0x4 <__rc2>
    4306: e8           	inx
    4307: e0 08        	cpx	#$8
    4309: f0 07        	beq	$4312 <getsfn+0x1f>
    430b: bd 41 1a     	lda	$1a41,x                 ; 0x1a41 <__heap_default_limit+0xa41>
    430e: c9 20        	cmp	#$20
    4310: d0 e7        	bne	$42f9 <getsfn+0x6>
    4312: 64 05        	stz	$5                      ; 0x5 <__rc3>
    4314: a9 2e        	lda	#$2e
    4316: 99 41 1c     	sta	$1c41,y                 ; 0x1c41 <__heap_default_limit+0xc41>
    4319: 98           	tya
    431a: 1a           	inc
    431b: a2 00        	ldx	#$0
    431d: 85 04        	sta	$4                      ; 0x4 <__rc2>
    431f: 80 10        	bra	$4331 <getsfn+0x3e>
    4321: c9 21        	cmp	#$21
    4323: 90 0b        	bcc	$4330 <getsfn+0x3d>
    4325: 84 06        	sty	$6                      ; 0x6 <__rc4>
    4327: a4 04        	ldy	$4                      ; 0x4 <__rc2>
    4329: 99 41 1c     	sta	$1c41,y                 ; 0x1c41 <__heap_default_limit+0xc41>
    432c: a4 06        	ldy	$6                      ; 0x6 <__rc4>
    432e: e6 04        	inc	$4                      ; 0x4 <__rc2>
    4330: e8           	inx
    4331: e0 03        	cpx	#$3
    4333: f0 07        	beq	$433c <getsfn+0x49>
    4335: bd 49 1a     	lda	$1a49,x                 ; 0x1a49 <__heap_default_limit+0xa49>
    4338: c9 20        	cmp	#$20
    433a: d0 e5        	bne	$4321 <getsfn+0x2e>
    433c: 98           	tya
    433d: 1a           	inc
    433e: d0 02        	bne	$4342 <getsfn+0x4f>
    4340: e6 05        	inc	$5                      ; 0x5 <__rc3>
    4342: a6 05        	ldx	$5                      ; 0x5 <__rc3>
    4344: d0 0a        	bne	$4350 <getsfn+0x5d>
    4346: a6 04        	ldx	$4                      ; 0x4 <__rc2>
    4348: c5 04        	cmp	$4                      ; 0x4 <__rc2>
    434a: d0 06        	bne	$4352 <getsfn+0x5f>
    434c: 5a           	phy
    434d: fa           	plx
    434e: 80 02        	bra	$4352 <getsfn+0x5f>
    4350: a6 04        	ldx	$4                      ; 0x4 <__rc2>
    4352: 9e 41 1c     	stz	$1c41,x                 ; 0x1c41 <__heap_default_limit+0xc41>
    4355: 60           	rts

00004356 <ReadSector>:
    4356: da           	phx
    4357: 7a           	ply
    4358: e0 00        	cpx	#$0
    435a: f0 17        	beq	$4373 <ReadSector+0x1d>
    435c: a6 04        	ldx	$4                      ; 0x4 <__rc2>
    435e: 84 04        	sty	$4                      ; 0x4 <__rc2>
    4360: 86 54        	stx	$54                     ; 0x54 <__rc31+0x33>
    4362: e0 14        	cpx	#$14
    4364: a0 01        	ldy	#$1
    4366: b0 02        	bcs	$436a <ReadSector+0x14>
    4368: a0 00        	ldy	#$0
    436a: 84 55        	sty	$55                     ; 0x55 <__rc31+0x34>
    436c: b0 08        	bcs	$4376 <ReadSector+0x20>
    436e: 18           	clc
    436f: 69 28        	adc	#$28
    4371: 80 06        	bra	$4379 <ReadSector+0x23>
    4373: a9 fc        	lda	#$fc
    4375: 60           	rts
    4376: 18           	clc
    4377: 69 20        	adc	#$20
    4379: 8d 80 d0     	sta	$d080                   ; 0xd080 <__heap_start+0x5b28>
    437c: a0 20        	ldy	#$20
    437e: 8c 81 d0     	sty	$d081                   ; 0xd081 <__heap_start+0x5b29>
    4381: ac 82 d0     	ldy	$d082                   ; 0xd082 <__heap_start+0x5b2a>
    4384: 30 fb        	bmi	$4381 <ReadSector+0x2b>
    4386: a6 04        	ldx	$4                      ; 0x4 <__rc2>
    4388: ca           	dex
    4389: 8e 84 d0     	stx	$d084                   ; 0xd084 <__heap_start+0x5b2c>
    438c: a2 14        	ldx	#$14
    438e: a5 54        	lda	$54                     ; 0x54 <__rc31+0x33>
    4390: 20 1e 63     	jsr	$631e <__umodqi3>
    4393: 4a           	lsr
    4394: 1a           	inc
    4395: 8d 85 d0     	sta	$d085                   ; 0xd085 <__heap_start+0x5b2d>
    4398: a6 55        	ldx	$55                     ; 0x55 <__rc31+0x34>
    439a: f0 04        	beq	$43a0 <ReadSector+0x4a>
    439c: a2 01        	ldx	#$1
    439e: 80 02        	bra	$43a2 <ReadSector+0x4c>
    43a0: a2 00        	ldx	#$0
    43a2: 8e 86 d0     	stx	$d086                   ; 0xd086 <__heap_start+0x5b2e>
    43a5: a2 41        	ldx	#$41
    43a7: 8e 81 d0     	stx	$d081                   ; 0xd081 <__heap_start+0x5b29>
    43aa: ae 82 d0     	ldx	$d082                   ; 0xd082 <__heap_start+0x5b2a>
    43ad: 30 fb        	bmi	$43aa <ReadSector+0x54>
    43af: ad 82 d0     	lda	$d082                   ; 0xd082 <__heap_start+0x5b2a>
    43b2: 29 18        	and	#$18
    43b4: f0 10        	beq	$43c6 <ReadSector+0x70>
    43b6: a2 40        	ldx	#$40
    43b8: 8e 80 d0     	stx	$d080                   ; 0xd080 <__heap_start+0x5b28>
    43bb: a2 02        	ldx	#$2
    43bd: 8e 20 d0     	stx	$d020                   ; 0xd020 <__heap_start+0x5ac8>
    43c0: ae 82 d0     	ldx	$d082                   ; 0xd082 <__heap_start+0x5b2a>
    43c3: a9 ff        	lda	#$ff
    43c5: 60           	rts
    43c6: a6 54        	ldx	$54                     ; 0x54 <__rc31+0x33>
    43c8: 8a           	txa
    43c9: 29 01        	and	#$1
    43cb: aa           	tax
    43cc: ad 89 d6     	lda	$d689                   ; 0xd689 <__heap_start+0x6131>
    43cf: 29 7f        	and	#$7f
    43d1: 8d 89 d6     	sta	$d689                   ; 0xd689 <__heap_start+0x6131>
    43d4: 8a           	txa
    43d5: 60           	rts

000043d6 <GetOneSector>:
    43d6: a4 06        	ldy	$6                      ; 0x6 <__rc4>
    43d8: 48           	pha
    43d9: a5 04        	lda	$4                      ; 0x4 <__rc2>
    43db: 85 51        	sta	$51                     ; 0x51 <__rc31+0x30>
    43dd: a5 05        	lda	$5                      ; 0x5 <__rc3>
    43df: 85 52        	sta	$52                     ; 0x52 <__rc31+0x31>
    43e1: 68           	pla
    43e2: 84 04        	sty	$4                      ; 0x4 <__rc2>
    43e4: 20 56 43     	jsr	$4356 <ReadSector>
    43e7: c9 02        	cmp	#$2
    43e9: b0 2d        	bcs	$4418 <GetOneSector+0x42>
    43eb: a0 fd        	ldy	#$fd
    43ed: aa           	tax
    43ee: f0 06        	beq	$43f6 <GetOneSector+0x20>
    43f0: 85 53        	sta	$53                     ; 0x53 <__rc31+0x32>
    43f2: a2 6d        	ldx	#$6d
    43f4: 80 04        	bra	$43fa <GetOneSector+0x24>
    43f6: 85 53        	sta	$53                     ; 0x53 <__rc31+0x32>
    43f8: a2 6c        	ldx	#$6c
    43fa: a9 01        	lda	#$1
    43fc: 84 04        	sty	$4                      ; 0x4 <__rc2>
    43fe: a0 0f        	ldy	#$f
    4400: 84 05        	sty	$5                      ; 0x5 <__rc3>
    4402: a4 51        	ldy	$51                     ; 0x51 <__rc31+0x30>
    4404: 84 06        	sty	$6                      ; 0x6 <__rc4>
    4406: a4 52        	ldy	$52                     ; 0x52 <__rc31+0x31>
    4408: 84 07        	sty	$7                      ; 0x7 <__rc5>
    440a: 64 08        	stz	$8                      ; 0x8 <__rc6>
    440c: 64 09        	stz	$9                      ; 0x9 <__rc7>
    440e: 64 0a        	stz	$a                      ; 0xa <__zp_data_size>
    4410: 85 0b        	sta	$b                      ; 0xb <__rc9>
    4412: 3a           	dec
    4413: 20 80 60     	jsr	$6080 <lcopy>
    4416: a5 53        	lda	$53                     ; 0x53 <__rc31+0x32>
    4418: 60           	rts

00004419 <PutOneSector>:
    4419: a8           	tay
    441a: 86 07        	stx	$7                      ; 0x7 <__rc5>
    441c: a6 06        	ldx	$6                      ; 0x6 <__rc4>
    441e: a5 04        	lda	$4                      ; 0x4 <__rc2>
    4420: 85 48        	sta	$48                     ; 0x48 <__rc31+0x27>
    4422: a5 05        	lda	$5                      ; 0x5 <__rc3>
    4424: 85 49        	sta	$49                     ; 0x49 <__rc31+0x28>
    4426: a5 06        	lda	$6                      ; 0x6 <__rc4>
    4428: 29 01        	and	#$1
    442a: 85 4c        	sta	$4c                     ; 0x4c <__rc31+0x2b>
    442c: 86 4a        	stx	$4a                     ; 0x4a <__rc31+0x29>
    442e: 86 04        	stx	$4                      ; 0x4 <__rc2>
    4430: a6 07        	ldx	$7                      ; 0x7 <__rc5>
    4432: 86 4b        	stx	$4b                     ; 0x4b <__rc31+0x2a>
    4434: a6 07        	ldx	$7                      ; 0x7 <__rc5>
    4436: 84 4d        	sty	$4d                     ; 0x4d <__rc31+0x2c>
    4438: 98           	tya
    4439: 20 56 43     	jsr	$4356 <ReadSector>
    443c: 64 06        	stz	$6                      ; 0x6 <__rc4>
    443e: a9 6c        	lda	#$6c
    4440: a0 fd        	ldy	#$fd
    4442: a6 4c        	ldx	$4c                     ; 0x4c <__rc31+0x2b>
    4444: f0 02        	beq	$4448 <PutOneSector+0x2f>
    4446: a9 6d        	lda	#$6d
    4448: a2 01        	ldx	#$1
    444a: 64 04        	stz	$4                      ; 0x4 <__rc2>
    444c: 64 05        	stz	$5                      ; 0x5 <__rc3>
    444e: 85 07        	sta	$7                      ; 0x7 <__rc5>
    4450: 84 08        	sty	$8                      ; 0x8 <__rc6>
    4452: a0 0f        	ldy	#$f
    4454: 84 09        	sty	$9                      ; 0x9 <__rc7>
    4456: 64 0a        	stz	$a                      ; 0xa <__zp_data_size>
    4458: 86 0b        	stx	$b                      ; 0xb <__rc9>
    445a: a6 49        	ldx	$49                     ; 0x49 <__rc31+0x28>
    445c: a5 48        	lda	$48                     ; 0x48 <__rc31+0x27>
    445e: 20 80 60     	jsr	$6080 <lcopy>
    4461: a5 4b        	lda	$4b                     ; 0x4b <__rc31+0x2a>
    4463: d0 03        	bne	$4468 <PutOneSector+0x4f>
    4465: 4c de 44     	jmp	$44de <PutOneSector+0xc5>
    4468: a4 4b        	ldy	$4b                     ; 0x4b <__rc31+0x2a>
    446a: a5 4a        	lda	$4a                     ; 0x4a <__rc31+0x29>
    446c: 29 fe        	and	#$fe
    446e: 85 04        	sta	$4                      ; 0x4 <__rc2>
    4470: c9 14        	cmp	#$14
    4472: a2 01        	ldx	#$1
    4474: b0 02        	bcs	$4478 <PutOneSector+0x5f>
    4476: a2 00        	ldx	#$0
    4478: 86 48        	stx	$48                     ; 0x48 <__rc31+0x27>
    447a: a5 4d        	lda	$4d                     ; 0x4d <__rc31+0x2c>
    447c: b0 05        	bcs	$4483 <PutOneSector+0x6a>
    447e: 18           	clc
    447f: 69 28        	adc	#$28
    4481: 80 03        	bra	$4486 <PutOneSector+0x6d>
    4483: 18           	clc
    4484: 69 20        	adc	#$20
    4486: 8d 80 d0     	sta	$d080                   ; 0xd080 <__heap_start+0x5b28>
    4489: a2 20        	ldx	#$20
    448b: 8e 81 d0     	stx	$d081                   ; 0xd081 <__heap_start+0x5b29>
    448e: ae 82 d0     	ldx	$d082                   ; 0xd082 <__heap_start+0x5b2a>
    4491: 30 fb        	bmi	$448e <PutOneSector+0x75>
    4493: 88           	dey
    4494: 8c 84 d0     	sty	$d084                   ; 0xd084 <__heap_start+0x5b2c>
    4497: a2 14        	ldx	#$14
    4499: a5 04        	lda	$4                      ; 0x4 <__rc2>
    449b: 20 1e 63     	jsr	$631e <__umodqi3>
    449e: 4a           	lsr
    449f: 1a           	inc
    44a0: 8d 85 d0     	sta	$d085                   ; 0xd085 <__heap_start+0x5b2d>
    44a3: a5 48        	lda	$48                     ; 0x48 <__rc31+0x27>
    44a5: f0 04        	beq	$44ab <PutOneSector+0x92>
    44a7: a2 01        	ldx	#$1
    44a9: 80 02        	bra	$44ad <PutOneSector+0x94>
    44ab: a2 00        	ldx	#$0
    44ad: 8e 86 d0     	stx	$d086                   ; 0xd086 <__heap_start+0x5b2e>
    44b0: a2 84        	ldx	#$84
    44b2: 8e 81 d0     	stx	$d081                   ; 0xd081 <__heap_start+0x5b29>
    44b5: ae 82 d0     	ldx	$d082                   ; 0xd082 <__heap_start+0x5b2a>
    44b8: 30 fb        	bmi	$44b5 <PutOneSector+0x9c>
    44ba: ad 83 d0     	lda	$d083                   ; 0xd083 <__heap_start+0x5b2b>
    44bd: 29 10        	and	#$10
    44bf: d0 f4        	bne	$44b5 <PutOneSector+0x9c>
    44c1: ad 82 d0     	lda	$d082                   ; 0xd082 <__heap_start+0x5b2a>
    44c4: 29 18        	and	#$18
    44c6: f0 0e        	beq	$44d6 <PutOneSector+0xbd>
    44c8: a2 40        	ldx	#$40
    44ca: 8e 80 d0     	stx	$d080                   ; 0xd080 <__heap_start+0x5b28>
    44cd: a2 02        	ldx	#$2
    44cf: 8e 20 d0     	stx	$d020                   ; 0xd020 <__heap_start+0x5ac8>
    44d2: ae 82 d0     	ldx	$d082                   ; 0xd082 <__heap_start+0x5b2a>
    44d5: 60           	rts
    44d6: ad 89 d6     	lda	$d689                   ; 0xd689 <__heap_start+0x6131>
    44d9: 29 7f        	and	#$7f
    44db: 8d 89 d6     	sta	$d689                   ; 0xd689 <__heap_start+0x6131>
    44de: 60           	rts

000044df <GetBAM>:
    44df: 0a           	asl
    44e0: aa           	tax
    44e1: a9 00        	lda	#$0
    44e3: 2a           	rol
    44e4: a8           	tay
    44e5: a9 00        	lda	#$0
    44e7: 2a           	rol
    44e8: 85 04        	sta	$4                      ; 0x4 <__rc2>
    44ea: 8a           	txa
    44eb: 18           	clc
    44ec: 69 1c        	adc	#$1c
    44ee: 85 0c        	sta	$c                      ; 0xc <__rc10>
    44f0: 98           	tya
    44f1: 69 00        	adc	#$0
    44f3: 85 06        	sta	$6                      ; 0x6 <__rc4>
    44f5: a5 04        	lda	$4                      ; 0x4 <__rc2>
    44f7: 69 08        	adc	#$8
    44f9: a2 16        	ldx	#$16
    44fb: a0 02        	ldy	#$2
    44fd: 48           	pha
    44fe: a5 06        	lda	$6                      ; 0x6 <__rc4>
    4500: 85 04        	sta	$4                      ; 0x4 <__rc2>
    4502: 68           	pla
    4503: 85 05        	sta	$5                      ; 0x5 <__rc3>
    4505: 64 06        	stz	$6                      ; 0x6 <__rc4>
    4507: 86 07        	stx	$7                      ; 0x7 <__rc5>
    4509: 64 08        	stz	$8                      ; 0x8 <__rc6>
    450b: 64 09        	stz	$9                      ; 0x9 <__rc7>
    450d: 64 0a        	stz	$a                      ; 0xa <__zp_data_size>
    450f: 84 0b        	sty	$b                      ; 0xb <__rc9>
    4511: a6 0c        	ldx	$c                      ; 0xc <__rc10>
    4513: a9 00        	lda	#$0
    4515: 4c 80 60     	jmp	$6080 <lcopy>

00004518 <PutBAM>:
    4518: 85 47        	sta	$47                     ; 0x47 <__rc31+0x26>
    451a: 86 46        	stx	$46                     ; 0x46 <__rc31+0x25>
    451c: a6 04        	ldx	$4                      ; 0x4 <__rc2>
    451e: a0 00        	ldy	#$0
    4520: 84 04        	sty	$4                      ; 0x4 <__rc2>
    4522: a0 16        	ldy	#$16
    4524: 84 05        	sty	$5                      ; 0x5 <__rc3>
    4526: a0 01        	ldy	#$1
    4528: 84 06        	sty	$6                      ; 0x6 <__rc4>
    452a: 20 19 44     	jsr	$4419 <PutOneSector>
    452d: ae 00 16     	ldx	$1600                   ; 0x1600 <__heap_default_limit+0x600>
    4530: ac 01 16     	ldy	$1601                   ; 0x1601 <__heap_default_limit+0x601>
    4533: a9 00        	lda	#$0
    4535: 85 04        	sta	$4                      ; 0x4 <__rc2>
    4537: a9 17        	lda	#$17
    4539: 85 05        	sta	$5                      ; 0x5 <__rc3>
    453b: 84 06        	sty	$6                      ; 0x6 <__rc4>
    453d: a5 47        	lda	$47                     ; 0x47 <__rc31+0x26>
    453f: 20 19 44     	jsr	$4419 <PutOneSector>
    4542: a6 46        	ldx	$46                     ; 0x46 <__rc31+0x25>
    4544: 86 04        	stx	$4                      ; 0x4 <__rc2>
    4546: 06 04        	asl	$4                      ; 0x4 <__rc2>
    4548: a9 00        	lda	#$0
    454a: 2a           	rol
    454b: aa           	tax
    454c: a9 00        	lda	#$0
    454e: 2a           	rol
    454f: a8           	tay
    4550: a5 04        	lda	$4                      ; 0x4 <__rc2>
    4552: 18           	clc
    4553: 69 1c        	adc	#$1c
    4555: 85 07        	sta	$7                      ; 0x7 <__rc5>
    4557: 8a           	txa
    4558: 69 00        	adc	#$0
    455a: 85 08        	sta	$8                      ; 0x8 <__rc6>
    455c: 98           	tya
    455d: 69 08        	adc	#$8
    455f: a2 02        	ldx	#$2
    4561: 64 04        	stz	$4                      ; 0x4 <__rc2>
    4563: 64 05        	stz	$5                      ; 0x5 <__rc3>
    4565: 64 06        	stz	$6                      ; 0x6 <__rc4>
    4567: 85 09        	sta	$9                      ; 0x9 <__rc7>
    4569: 64 0a        	stz	$a                      ; 0xa <__zp_data_size>
    456b: 86 0b        	stx	$b                      ; 0xb <__rc9>
    456d: a2 16        	ldx	#$16
    456f: a9 00        	lda	#$0
    4571: 4c 80 60     	jmp	$6080 <lcopy>

00004574 <readblockchain>:
    4574: 85 4b        	sta	$4b                     ; 0x4b <__rc31+0x2a>
    4576: 86 4c        	stx	$4c                     ; 0x4c <__rc31+0x2b>
    4578: a6 04        	ldx	$4                      ; 0x4 <__rc2>
    457a: 86 46        	stx	$46                     ; 0x46 <__rc31+0x25>
    457c: a6 05        	ldx	$5                      ; 0x5 <__rc3>
    457e: 86 47        	stx	$47                     ; 0x47 <__rc31+0x26>
    4580: a6 06        	ldx	$6                      ; 0x6 <__rc4>
    4582: 86 48        	stx	$48                     ; 0x48 <__rc31+0x27>
    4584: a6 07        	ldx	$7                      ; 0x7 <__rc5>
    4586: 86 49        	stx	$49                     ; 0x49 <__rc31+0x28>
    4588: a6 08        	ldx	$8                      ; 0x8 <__rc6>
    458a: 86 4a        	stx	$4a                     ; 0x4a <__rc31+0x29>
    458c: a6 09        	ldx	$9                      ; 0x9 <__rc7>
    458e: a4 0a        	ldy	$a                      ; 0xa <__zp_data_size>
    4590: 84 4f        	sty	$4f                     ; 0x4f <__rc31+0x2e>
    4592: 64 4d        	stz	$4d                     ; 0x4d <__rc31+0x2c>
    4594: a9 00        	lda	#$0
    4596: c5 49        	cmp	$49                     ; 0x49 <__rc31+0x28>
    4598: d0 09        	bne	$45a3 <readblockchain+0x2f>
    459a: a4 4d        	ldy	$4d                     ; 0x4d <__rc31+0x2c>
    459c: c4 48        	cpy	$48                     ; 0x48 <__rc31+0x27>
    459e: d0 03        	bne	$45a3 <readblockchain+0x2f>
    45a0: 4c 01 46     	jmp	$4601 <readblockchain+0x8d>
    45a3: 85 4e        	sta	$4e                     ; 0x4e <__rc31+0x2d>
    45a5: a0 00        	ldy	#$0
    45a7: 84 04        	sty	$4                      ; 0x4 <__rc2>
    45a9: a0 18        	ldy	#$18
    45ab: 84 05        	sty	$5                      ; 0x5 <__rc3>
    45ad: a4 4f        	ldy	$4f                     ; 0x4f <__rc31+0x2e>
    45af: 84 06        	sty	$6                      ; 0x6 <__rc4>
    45b1: a5 4a        	lda	$4a                     ; 0x4a <__rc31+0x29>
    45b3: 20 d6 43     	jsr	$43d6 <GetOneSector>
    45b6: c9 02        	cmp	#$2
    45b8: 90 03        	bcc	$45bd <readblockchain+0x49>
    45ba: 4c 0b 46     	jmp	$460b <readblockchain+0x97>
    45bd: ae 00 18     	ldx	$1800                   ; 0x1800 <__heap_default_limit+0x800>
    45c0: 86 50        	stx	$50                     ; 0x50 <__rc31+0x2f>
    45c2: a9 00        	lda	#$0
    45c4: 18           	clc
    45c5: 65 4b        	adc	$4b                     ; 0x4b <__rc31+0x2a>
    45c7: 85 06        	sta	$6                      ; 0x6 <__rc4>
    45c9: a5 4d        	lda	$4d                     ; 0x4d <__rc31+0x2c>
    45cb: 65 4c        	adc	$4c                     ; 0x4c <__rc31+0x2b>
    45cd: 85 07        	sta	$7                      ; 0x7 <__rc5>
    45cf: a5 4e        	lda	$4e                     ; 0x4e <__rc31+0x2d>
    45d1: 65 46        	adc	$46                     ; 0x46 <__rc31+0x25>
    45d3: 85 08        	sta	$8                      ; 0x8 <__rc6>
    45d5: a9 00        	lda	#$0
    45d7: 65 47        	adc	$47                     ; 0x47 <__rc31+0x26>
    45d9: ae 01 18     	ldx	$1801                   ; 0x1801 <__heap_default_limit+0x801>
    45dc: 86 4f        	stx	$4f                     ; 0x4f <__rc31+0x2e>
    45de: 64 04        	stz	$4                      ; 0x4 <__rc2>
    45e0: 64 05        	stz	$5                      ; 0x5 <__rc3>
    45e2: 85 09        	sta	$9                      ; 0x9 <__rc7>
    45e4: 64 0a        	stz	$a                      ; 0xa <__zp_data_size>
    45e6: a2 01        	ldx	#$1
    45e8: 86 0b        	stx	$b                      ; 0xb <__rc9>
    45ea: a2 18        	ldx	#$18
    45ec: a9 00        	lda	#$0
    45ee: 20 80 60     	jsr	$6080 <lcopy>
    45f1: a5 4e        	lda	$4e                     ; 0x4e <__rc31+0x2d>
    45f3: a6 50        	ldx	$50                     ; 0x50 <__rc31+0x2f>
    45f5: e6 4d        	inc	$4d                     ; 0x4d <__rc31+0x2c>
    45f7: d0 01        	bne	$45fa <readblockchain+0x86>
    45f9: 1a           	inc
    45fa: a4 50        	ldy	$50                     ; 0x50 <__rc31+0x2f>
    45fc: f0 0a        	beq	$4608 <readblockchain+0x94>
    45fe: 4c 96 45     	jmp	$4596 <readblockchain+0x22>
    4601: a9 fe        	lda	#$fe
    4603: e0 00        	cpx	#$0
    4605: f0 01        	beq	$4608 <readblockchain+0x94>
    4607: 60           	rts
    4608: a9 00        	lda	#$0
    460a: 60           	rts
    460b: a9 ff        	lda	#$ff
    460d: 60           	rts

0000460e <BAMSectorUpdate>:
    460e: a8           	tay
    460f: c9 29        	cmp	#$29
    4611: 90 0e        	bcc	$4621 <BAMSectorUpdate+0x13>
    4613: a4 06        	ldy	$6                      ; 0x6 <__rc4>
    4615: 84 52        	sty	$52                     ; 0x52 <__rc31+0x31>
    4617: a4 07        	ldy	$7                      ; 0x7 <__rc5>
    4619: 84 53        	sty	$53                     ; 0x53 <__rc31+0x32>
    461b: 18           	clc
    461c: 69 d8        	adc	#$d8
    461e: a8           	tay
    461f: 80 08        	bra	$4629 <BAMSectorUpdate+0x1b>
    4621: a5 04        	lda	$4                      ; 0x4 <__rc2>
    4623: 85 52        	sta	$52                     ; 0x52 <__rc31+0x31>
    4625: a5 05        	lda	$5                      ; 0x5 <__rc3>
    4627: 85 53        	sta	$53                     ; 0x53 <__rc31+0x32>
    4629: 88           	dey
    462a: 84 05        	sty	$5                      ; 0x5 <__rc3>
    462c: a5 08        	lda	$8                      ; 0x8 <__rc6>
    462e: d0 03        	bne	$4633 <BAMSectorUpdate+0x25>
    4630: 4c 77 46     	jmp	$4677 <BAMSectorUpdate+0x69>
    4633: da           	phx
    4634: 7a           	ply
    4635: e0 08        	cpx	#$8
    4637: 90 03        	bcc	$463c <BAMSectorUpdate+0x2e>
    4639: 4c ca 46     	jmp	$46ca <BAMSectorUpdate+0xbc>
    463c: a2 00        	ldx	#$0
    463e: 86 58        	stx	$58                     ; 0x58 <__rc31+0x37>
    4640: a5 05        	lda	$5                      ; 0x5 <__rc3>
    4642: 85 56        	sta	$56                     ; 0x56 <__rc31+0x35>
    4644: 0a           	asl
    4645: 85 04        	sta	$4                      ; 0x4 <__rc2>
    4647: 8a           	txa
    4648: 2a           	rol
    4649: 85 05        	sta	$5                      ; 0x5 <__rc3>
    464b: a5 04        	lda	$4                      ; 0x4 <__rc2>
    464d: 0a           	asl
    464e: aa           	tax
    464f: a5 05        	lda	$5                      ; 0x5 <__rc3>
    4651: 2a           	rol
    4652: 85 06        	sta	$6                      ; 0x6 <__rc4>
    4654: 18           	clc
    4655: 8a           	txa
    4656: 65 04        	adc	$4                      ; 0x4 <__rc2>
    4658: 85 04        	sta	$4                      ; 0x4 <__rc2>
    465a: a5 06        	lda	$6                      ; 0x6 <__rc4>
    465c: 65 05        	adc	$5                      ; 0x5 <__rc3>
    465e: 85 05        	sta	$5                      ; 0x5 <__rc3>
    4660: 18           	clc
    4661: a5 04        	lda	$4                      ; 0x4 <__rc2>
    4663: 65 52        	adc	$52                     ; 0x52 <__rc31+0x31>
    4665: 85 04        	sta	$4                      ; 0x4 <__rc2>
    4667: a5 05        	lda	$5                      ; 0x5 <__rc3>
    4669: 65 53        	adc	$53                     ; 0x53 <__rc31+0x32>
    466b: aa           	tax
    466c: 18           	clc
    466d: a5 04        	lda	$4                      ; 0x4 <__rc2>
    466f: 69 11        	adc	#$11
    4671: 85 54        	sta	$54                     ; 0x54 <__rc31+0x33>
    4673: 8a           	txa
    4674: 4c 7e 48     	jmp	$487e <BAMSectorUpdate+0x270>
    4677: da           	phx
    4678: 7a           	ply
    4679: e0 08        	cpx	#$8
    467b: 90 03        	bcc	$4680 <BAMSectorUpdate+0x72>
    467d: 4c 28 47     	jmp	$4728 <BAMSectorUpdate+0x11a>
    4680: 64 54        	stz	$54                     ; 0x54 <__rc31+0x33>
    4682: a5 05        	lda	$5                      ; 0x5 <__rc3>
    4684: 85 56        	sta	$56                     ; 0x56 <__rc31+0x35>
    4686: 0a           	asl
    4687: 85 04        	sta	$4                      ; 0x4 <__rc2>
    4689: a9 00        	lda	#$0
    468b: 2a           	rol
    468c: 85 05        	sta	$5                      ; 0x5 <__rc3>
    468e: a5 04        	lda	$4                      ; 0x4 <__rc2>
    4690: 0a           	asl
    4691: aa           	tax
    4692: a5 05        	lda	$5                      ; 0x5 <__rc3>
    4694: 2a           	rol
    4695: 85 06        	sta	$6                      ; 0x6 <__rc4>
    4697: 18           	clc
    4698: 8a           	txa
    4699: 65 04        	adc	$4                      ; 0x4 <__rc2>
    469b: 85 04        	sta	$4                      ; 0x4 <__rc2>
    469d: a5 06        	lda	$6                      ; 0x6 <__rc4>
    469f: 65 05        	adc	$5                      ; 0x5 <__rc3>
    46a1: 85 07        	sta	$7                      ; 0x7 <__rc5>
    46a3: 18           	clc
    46a4: a5 04        	lda	$4                      ; 0x4 <__rc2>
    46a6: 65 52        	adc	$52                     ; 0x52 <__rc31+0x31>
    46a8: 85 06        	sta	$6                      ; 0x6 <__rc4>
    46aa: a6 52        	ldx	$52                     ; 0x52 <__rc31+0x31>
    46ac: 86 04        	stx	$4                      ; 0x4 <__rc2>
    46ae: a6 53        	ldx	$53                     ; 0x53 <__rc31+0x32>
    46b0: 86 05        	stx	$5                      ; 0x5 <__rc3>
    46b2: a6 04        	ldx	$4                      ; 0x4 <__rc2>
    46b4: 86 58        	stx	$58                     ; 0x58 <__rc31+0x37>
    46b6: a6 05        	ldx	$5                      ; 0x5 <__rc3>
    46b8: 86 59        	stx	$59                     ; 0x59 <__rc31+0x38>
    46ba: a5 07        	lda	$7                      ; 0x7 <__rc5>
    46bc: 65 53        	adc	$53                     ; 0x53 <__rc31+0x32>
    46be: aa           	tax
    46bf: 18           	clc
    46c0: a5 06        	lda	$6                      ; 0x6 <__rc4>
    46c2: 69 11        	adc	#$11
    46c4: 85 52        	sta	$52                     ; 0x52 <__rc31+0x31>
    46c6: 8a           	txa
    46c7: 4c c2 48     	jmp	$48c2 <BAMSectorUpdate+0x2b4>
    46ca: c0 10        	cpy	#$10
    46cc: a2 01        	ldx	#$1
    46ce: b0 02        	bcs	$46d2 <BAMSectorUpdate+0xc4>
    46d0: a2 00        	ldx	#$0
    46d2: 86 08        	stx	$8                      ; 0x8 <__rc6>
    46d4: a5 52        	lda	$52                     ; 0x52 <__rc31+0x31>
    46d6: 18           	clc
    46d7: 69 10        	adc	#$10
    46d9: 85 07        	sta	$7                      ; 0x7 <__rc5>
    46db: a5 53        	lda	$53                     ; 0x53 <__rc31+0x32>
    46dd: 69 00        	adc	#$0
    46df: 85 06        	sta	$6                      ; 0x6 <__rc4>
    46e1: a6 05        	ldx	$5                      ; 0x5 <__rc3>
    46e3: 86 56        	stx	$56                     ; 0x56 <__rc31+0x35>
    46e5: 06 05        	asl	$5                      ; 0x5 <__rc3>
    46e7: 64 04        	stz	$4                      ; 0x4 <__rc2>
    46e9: 26 04        	rol	$4                      ; 0x4 <__rc2>
    46eb: a5 05        	lda	$5                      ; 0x5 <__rc3>
    46ed: 0a           	asl
    46ee: a6 04        	ldx	$4                      ; 0x4 <__rc2>
    46f0: 86 09        	stx	$9                      ; 0x9 <__rc7>
    46f2: 26 09        	rol	$9                      ; 0x9 <__rc7>
    46f4: a6 09        	ldx	$9                      ; 0x9 <__rc7>
    46f6: 86 0a        	stx	$a                      ; 0xa <__zp_data_size>
    46f8: a6 08        	ldx	$8                      ; 0x8 <__rc6>
    46fa: f0 03        	beq	$46ff <BAMSectorUpdate+0xf1>
    46fc: 4c 8c 47     	jmp	$478c <BAMSectorUpdate+0x17e>
    46ff: a2 00        	ldx	#$0
    4701: 86 58        	stx	$58                     ; 0x58 <__rc31+0x37>
    4703: 18           	clc
    4704: aa           	tax
    4705: 98           	tya
    4706: 69 f8        	adc	#$f8
    4708: a8           	tay
    4709: 18           	clc
    470a: 8a           	txa
    470b: 65 05        	adc	$5                      ; 0x5 <__rc3>
    470d: 85 05        	sta	$5                      ; 0x5 <__rc3>
    470f: a5 09        	lda	$9                      ; 0x9 <__rc7>
    4711: 65 04        	adc	$4                      ; 0x4 <__rc2>
    4713: 85 04        	sta	$4                      ; 0x4 <__rc2>
    4715: a5 07        	lda	$7                      ; 0x7 <__rc5>
    4717: 18           	clc
    4718: 65 05        	adc	$5                      ; 0x5 <__rc3>
    471a: aa           	tax
    471b: a5 06        	lda	$6                      ; 0x6 <__rc4>
    471d: 65 04        	adc	$4                      ; 0x4 <__rc2>
    471f: 85 04        	sta	$4                      ; 0x4 <__rc2>
    4721: 18           	clc
    4722: 8a           	txa
    4723: 69 02        	adc	#$2
    4725: 4c 7a 48     	jmp	$487a <BAMSectorUpdate+0x26c>
    4728: c0 10        	cpy	#$10
    472a: a2 01        	ldx	#$1
    472c: b0 02        	bcs	$4730 <BAMSectorUpdate+0x122>
    472e: a2 00        	ldx	#$0
    4730: 86 08        	stx	$8                      ; 0x8 <__rc6>
    4732: 64 54        	stz	$54                     ; 0x54 <__rc31+0x33>
    4734: a5 52        	lda	$52                     ; 0x52 <__rc31+0x31>
    4736: 18           	clc
    4737: 69 10        	adc	#$10
    4739: 85 07        	sta	$7                      ; 0x7 <__rc5>
    473b: a5 53        	lda	$53                     ; 0x53 <__rc31+0x32>
    473d: 69 00        	adc	#$0
    473f: 85 06        	sta	$6                      ; 0x6 <__rc4>
    4741: a6 05        	ldx	$5                      ; 0x5 <__rc3>
    4743: 86 56        	stx	$56                     ; 0x56 <__rc31+0x35>
    4745: 06 05        	asl	$5                      ; 0x5 <__rc3>
    4747: 64 04        	stz	$4                      ; 0x4 <__rc2>
    4749: 26 04        	rol	$4                      ; 0x4 <__rc2>
    474b: a5 05        	lda	$5                      ; 0x5 <__rc3>
    474d: 0a           	asl
    474e: a6 04        	ldx	$4                      ; 0x4 <__rc2>
    4750: 86 09        	stx	$9                      ; 0x9 <__rc7>
    4752: 26 09        	rol	$9                      ; 0x9 <__rc7>
    4754: a6 09        	ldx	$9                      ; 0x9 <__rc7>
    4756: 86 0a        	stx	$a                      ; 0xa <__zp_data_size>
    4758: a6 08        	ldx	$8                      ; 0x8 <__rc6>
    475a: f0 03        	beq	$475f <BAMSectorUpdate+0x151>
    475c: 4c be 47     	jmp	$47be <BAMSectorUpdate+0x1b0>
    475f: a6 52        	ldx	$52                     ; 0x52 <__rc31+0x31>
    4761: 86 58        	stx	$58                     ; 0x58 <__rc31+0x37>
    4763: a6 53        	ldx	$53                     ; 0x53 <__rc31+0x32>
    4765: 86 59        	stx	$59                     ; 0x59 <__rc31+0x38>
    4767: 18           	clc
    4768: aa           	tax
    4769: 98           	tya
    476a: 69 f8        	adc	#$f8
    476c: a8           	tay
    476d: 18           	clc
    476e: 8a           	txa
    476f: 65 05        	adc	$5                      ; 0x5 <__rc3>
    4771: 85 05        	sta	$5                      ; 0x5 <__rc3>
    4773: a5 09        	lda	$9                      ; 0x9 <__rc7>
    4775: 65 04        	adc	$4                      ; 0x4 <__rc2>
    4777: 85 04        	sta	$4                      ; 0x4 <__rc2>
    4779: a5 07        	lda	$7                      ; 0x7 <__rc5>
    477b: 18           	clc
    477c: 65 05        	adc	$5                      ; 0x5 <__rc3>
    477e: aa           	tax
    477f: a5 06        	lda	$6                      ; 0x6 <__rc4>
    4781: 65 04        	adc	$4                      ; 0x4 <__rc2>
    4783: 85 04        	sta	$4                      ; 0x4 <__rc2>
    4785: 18           	clc
    4786: 8a           	txa
    4787: 69 02        	adc	#$2
    4789: 4c be 48     	jmp	$48be <BAMSectorUpdate+0x2b0>
    478c: 85 09        	sta	$9                      ; 0x9 <__rc7>
    478e: c0 18        	cpy	#$18
    4790: 90 03        	bcc	$4795 <BAMSectorUpdate+0x187>
    4792: 4c f4 47     	jmp	$47f4 <BAMSectorUpdate+0x1e6>
    4795: a2 00        	ldx	#$0
    4797: 86 58        	stx	$58                     ; 0x58 <__rc31+0x37>
    4799: 18           	clc
    479a: 98           	tya
    479b: 69 f0        	adc	#$f0
    479d: a8           	tay
    479e: a5 09        	lda	$9                      ; 0x9 <__rc7>
    47a0: 18           	clc
    47a1: 65 05        	adc	$5                      ; 0x5 <__rc3>
    47a3: 85 05        	sta	$5                      ; 0x5 <__rc3>
    47a5: a5 0a        	lda	$a                      ; 0xa <__zp_data_size>
    47a7: 65 04        	adc	$4                      ; 0x4 <__rc2>
    47a9: 85 04        	sta	$4                      ; 0x4 <__rc2>
    47ab: a5 07        	lda	$7                      ; 0x7 <__rc5>
    47ad: 18           	clc
    47ae: 65 05        	adc	$5                      ; 0x5 <__rc3>
    47b0: aa           	tax
    47b1: a5 06        	lda	$6                      ; 0x6 <__rc4>
    47b3: 65 04        	adc	$4                      ; 0x4 <__rc2>
    47b5: 85 04        	sta	$4                      ; 0x4 <__rc2>
    47b7: 18           	clc
    47b8: 8a           	txa
    47b9: 69 03        	adc	#$3
    47bb: 4c 7a 48     	jmp	$487a <BAMSectorUpdate+0x26c>
    47be: 85 09        	sta	$9                      ; 0x9 <__rc7>
    47c0: c0 18        	cpy	#$18
    47c2: 90 03        	bcc	$47c7 <BAMSectorUpdate+0x1b9>
    47c4: 4c 24 48     	jmp	$4824 <BAMSectorUpdate+0x216>
    47c7: a6 52        	ldx	$52                     ; 0x52 <__rc31+0x31>
    47c9: 86 58        	stx	$58                     ; 0x58 <__rc31+0x37>
    47cb: a6 53        	ldx	$53                     ; 0x53 <__rc31+0x32>
    47cd: 86 59        	stx	$59                     ; 0x59 <__rc31+0x38>
    47cf: 18           	clc
    47d0: 98           	tya
    47d1: 69 f0        	adc	#$f0
    47d3: a8           	tay
    47d4: a5 09        	lda	$9                      ; 0x9 <__rc7>
    47d6: 18           	clc
    47d7: 65 05        	adc	$5                      ; 0x5 <__rc3>
    47d9: 85 05        	sta	$5                      ; 0x5 <__rc3>
    47db: a5 0a        	lda	$a                      ; 0xa <__zp_data_size>
    47dd: 65 04        	adc	$4                      ; 0x4 <__rc2>
    47df: 85 04        	sta	$4                      ; 0x4 <__rc2>
    47e1: a5 07        	lda	$7                      ; 0x7 <__rc5>
    47e3: 18           	clc
    47e4: 65 05        	adc	$5                      ; 0x5 <__rc3>
    47e6: aa           	tax
    47e7: a5 06        	lda	$6                      ; 0x6 <__rc4>
    47e9: 65 04        	adc	$4                      ; 0x4 <__rc2>
    47eb: 85 04        	sta	$4                      ; 0x4 <__rc2>
    47ed: 18           	clc
    47ee: 8a           	txa
    47ef: 69 03        	adc	#$3
    47f1: 4c be 48     	jmp	$48be <BAMSectorUpdate+0x2b0>
    47f4: a2 00        	ldx	#$0
    47f6: 86 58        	stx	$58                     ; 0x58 <__rc31+0x37>
    47f8: c0 20        	cpy	#$20
    47fa: 90 03        	bcc	$47ff <BAMSectorUpdate+0x1f1>
    47fc: 4c 58 48     	jmp	$4858 <BAMSectorUpdate+0x24a>
    47ff: 18           	clc
    4800: 98           	tya
    4801: 69 e8        	adc	#$e8
    4803: a8           	tay
    4804: a5 09        	lda	$9                      ; 0x9 <__rc7>
    4806: 18           	clc
    4807: 65 05        	adc	$5                      ; 0x5 <__rc3>
    4809: 85 05        	sta	$5                      ; 0x5 <__rc3>
    480b: a5 0a        	lda	$a                      ; 0xa <__zp_data_size>
    480d: 65 04        	adc	$4                      ; 0x4 <__rc2>
    480f: 85 04        	sta	$4                      ; 0x4 <__rc2>
    4811: a5 07        	lda	$7                      ; 0x7 <__rc5>
    4813: 18           	clc
    4814: 65 05        	adc	$5                      ; 0x5 <__rc3>
    4816: aa           	tax
    4817: a5 06        	lda	$6                      ; 0x6 <__rc4>
    4819: 65 04        	adc	$4                      ; 0x4 <__rc2>
    481b: 85 04        	sta	$4                      ; 0x4 <__rc2>
    481d: 18           	clc
    481e: 8a           	txa
    481f: 69 04        	adc	#$4
    4821: 4c 7a 48     	jmp	$487a <BAMSectorUpdate+0x26c>
    4824: a6 52        	ldx	$52                     ; 0x52 <__rc31+0x31>
    4826: 86 58        	stx	$58                     ; 0x58 <__rc31+0x37>
    4828: a6 53        	ldx	$53                     ; 0x53 <__rc31+0x32>
    482a: 86 59        	stx	$59                     ; 0x59 <__rc31+0x38>
    482c: c0 20        	cpy	#$20
    482e: 90 03        	bcc	$4833 <BAMSectorUpdate+0x225>
    4830: 4c 9c 48     	jmp	$489c <BAMSectorUpdate+0x28e>
    4833: 18           	clc
    4834: 98           	tya
    4835: 69 e8        	adc	#$e8
    4837: a8           	tay
    4838: a5 09        	lda	$9                      ; 0x9 <__rc7>
    483a: 18           	clc
    483b: 65 05        	adc	$5                      ; 0x5 <__rc3>
    483d: 85 05        	sta	$5                      ; 0x5 <__rc3>
    483f: a5 0a        	lda	$a                      ; 0xa <__zp_data_size>
    4841: 65 04        	adc	$4                      ; 0x4 <__rc2>
    4843: 85 04        	sta	$4                      ; 0x4 <__rc2>
    4845: a5 07        	lda	$7                      ; 0x7 <__rc5>
    4847: 18           	clc
    4848: 65 05        	adc	$5                      ; 0x5 <__rc3>
    484a: aa           	tax
    484b: a5 06        	lda	$6                      ; 0x6 <__rc4>
    484d: 65 04        	adc	$4                      ; 0x4 <__rc2>
    484f: 85 04        	sta	$4                      ; 0x4 <__rc2>
    4851: 18           	clc
    4852: 8a           	txa
    4853: 69 04        	adc	#$4
    4855: 4c be 48     	jmp	$48be <BAMSectorUpdate+0x2b0>
    4858: 18           	clc
    4859: 98           	tya
    485a: 69 e0        	adc	#$e0
    485c: a8           	tay
    485d: a5 09        	lda	$9                      ; 0x9 <__rc7>
    485f: 18           	clc
    4860: 65 05        	adc	$5                      ; 0x5 <__rc3>
    4862: 85 05        	sta	$5                      ; 0x5 <__rc3>
    4864: a5 0a        	lda	$a                      ; 0xa <__zp_data_size>
    4866: 65 04        	adc	$4                      ; 0x4 <__rc2>
    4868: 85 04        	sta	$4                      ; 0x4 <__rc2>
    486a: a5 07        	lda	$7                      ; 0x7 <__rc5>
    486c: 18           	clc
    486d: 65 05        	adc	$5                      ; 0x5 <__rc3>
    486f: aa           	tax
    4870: a5 06        	lda	$6                      ; 0x6 <__rc4>
    4872: 65 04        	adc	$4                      ; 0x4 <__rc2>
    4874: 85 04        	sta	$4                      ; 0x4 <__rc2>
    4876: 18           	clc
    4877: 8a           	txa
    4878: 69 05        	adc	#$5
    487a: 85 54        	sta	$54                     ; 0x54 <__rc31+0x33>
    487c: a5 04        	lda	$4                      ; 0x4 <__rc2>
    487e: 69 00        	adc	#$0
    4880: 85 55        	sta	$55                     ; 0x55 <__rc31+0x34>
    4882: a9 01        	lda	#$1
    4884: a2 00        	ldx	#$0
    4886: 84 04        	sty	$4                      ; 0x4 <__rc2>
    4888: 20 18 62     	jsr	$6218 <__ashlhi3>
    488b: a2 ff        	ldx	#$ff
    488d: 86 57        	stx	$57                     ; 0x57 <__rc31+0x36>
    488f: 49 ff        	eor	#$ff
    4891: 32 54        	and	($54),z                 ; 0x54 <__rc31+0x33>
    4893: 92 54        	sta	($54),z                 ; 0x54 <__rc31+0x33>
    4895: a6 58        	ldx	$58                     ; 0x58 <__rc31+0x37>
    4897: 86 54        	stx	$54                     ; 0x54 <__rc31+0x33>
    4899: 4c de 48     	jmp	$48de <BAMSectorUpdate+0x2d0>
    489c: 18           	clc
    489d: 98           	tya
    489e: 69 e0        	adc	#$e0
    48a0: a8           	tay
    48a1: a5 09        	lda	$9                      ; 0x9 <__rc7>
    48a3: 18           	clc
    48a4: 65 05        	adc	$5                      ; 0x5 <__rc3>
    48a6: 85 05        	sta	$5                      ; 0x5 <__rc3>
    48a8: a5 0a        	lda	$a                      ; 0xa <__zp_data_size>
    48aa: 65 04        	adc	$4                      ; 0x4 <__rc2>
    48ac: 85 04        	sta	$4                      ; 0x4 <__rc2>
    48ae: a5 07        	lda	$7                      ; 0x7 <__rc5>
    48b0: 18           	clc
    48b1: 65 05        	adc	$5                      ; 0x5 <__rc3>
    48b3: aa           	tax
    48b4: a5 06        	lda	$6                      ; 0x6 <__rc4>
    48b6: 65 04        	adc	$4                      ; 0x4 <__rc2>
    48b8: 85 04        	sta	$4                      ; 0x4 <__rc2>
    48ba: 18           	clc
    48bb: 8a           	txa
    48bc: 69 05        	adc	#$5
    48be: 85 52        	sta	$52                     ; 0x52 <__rc31+0x31>
    48c0: a5 04        	lda	$4                      ; 0x4 <__rc2>
    48c2: 69 00        	adc	#$0
    48c4: 85 53        	sta	$53                     ; 0x53 <__rc31+0x32>
    48c6: a9 01        	lda	#$1
    48c8: a2 00        	ldx	#$0
    48ca: 84 04        	sty	$4                      ; 0x4 <__rc2>
    48cc: a8           	tay
    48cd: 84 57        	sty	$57                     ; 0x57 <__rc31+0x36>
    48cf: 20 18 62     	jsr	$6218 <__ashlhi3>
    48d2: 12 52        	ora	($52),z                 ; 0x52 <__rc31+0x31>
    48d4: 92 52        	sta	($52),z                 ; 0x52 <__rc31+0x31>
    48d6: a6 58        	ldx	$58                     ; 0x58 <__rc31+0x37>
    48d8: 86 52        	stx	$52                     ; 0x52 <__rc31+0x31>
    48da: a6 59        	ldx	$59                     ; 0x59 <__rc31+0x38>
    48dc: 86 53        	stx	$53                     ; 0x53 <__rc31+0x32>
    48de: a6 56        	ldx	$56                     ; 0x56 <__rc31+0x35>
    48e0: 86 04        	stx	$4                      ; 0x4 <__rc2>
    48e2: 06 04        	asl	$4                      ; 0x4 <__rc2>
    48e4: 26 54        	rol	$54                     ; 0x54 <__rc31+0x33>
    48e6: a5 04        	lda	$4                      ; 0x4 <__rc2>
    48e8: 0a           	asl
    48e9: a6 54        	ldx	$54                     ; 0x54 <__rc31+0x33>
    48eb: 86 05        	stx	$5                      ; 0x5 <__rc3>
    48ed: 26 05        	rol	$5                      ; 0x5 <__rc3>
    48ef: 18           	clc
    48f0: 65 04        	adc	$4                      ; 0x4 <__rc2>
    48f2: aa           	tax
    48f3: a5 05        	lda	$5                      ; 0x5 <__rc3>
    48f5: 65 54        	adc	$54                     ; 0x54 <__rc31+0x33>
    48f7: 85 04        	sta	$4                      ; 0x4 <__rc2>
    48f9: 18           	clc
    48fa: 8a           	txa
    48fb: 65 52        	adc	$52                     ; 0x52 <__rc31+0x31>
    48fd: aa           	tax
    48fe: a5 53        	lda	$53                     ; 0x53 <__rc31+0x32>
    4900: 65 04        	adc	$4                      ; 0x4 <__rc2>
    4902: 86 04        	stx	$4                      ; 0x4 <__rc2>
    4904: 85 05        	sta	$5                      ; 0x5 <__rc3>
    4906: a0 10        	ldy	#$10
    4908: 18           	clc
    4909: a5 57        	lda	$57                     ; 0x57 <__rc31+0x36>
    490b: 71 04        	adc	($4),y                  ; 0x4 <__rc2>
    490d: 91 04        	sta	($4),y                  ; 0x4 <__rc2>
    490f: 60           	rts

00004910 <isallocatedBAMtracksector>:
    4910: 86 06        	stx	$6                      ; 0x6 <__rc4>
    4912: aa           	tax
    4913: ca           	dex
    4914: 86 09        	stx	$9                      ; 0x9 <__rc7>
    4916: e0 28        	cpx	#$28
    4918: a2 b0        	ldx	#$b0
    491a: 86 04        	stx	$4                      ; 0x4 <__rc2>
    491c: a2 70        	ldx	#$70
    491e: 86 05        	stx	$5                      ; 0x5 <__rc3>
    4920: 90 0d        	bcc	$492f <isallocatedBAMtracksector+0x1f>
    4922: 18           	clc
    4923: 69 d7        	adc	#$d7
    4925: a2 b2        	ldx	#$b2
    4927: 86 04        	stx	$4                      ; 0x4 <__rc2>
    4929: a2 70        	ldx	#$70
    492b: 86 05        	stx	$5                      ; 0x5 <__rc3>
    492d: 85 09        	sta	$9                      ; 0x9 <__rc7>
    492f: b2 04        	lda	($4),z                  ; 0x4 <__rc2>
    4931: 85 08        	sta	$8                      ; 0x8 <__rc6>
    4933: a0 01        	ldy	#$1
    4935: b1 04        	lda	($4),y                  ; 0x4 <__rc2>
    4937: a6 06        	ldx	$6                      ; 0x6 <__rc4>
    4939: e0 08        	cpx	#$8
    493b: 90 03        	bcc	$4940 <isallocatedBAMtracksector+0x30>
    493d: 4c 82 49     	jmp	$4982 <isallocatedBAMtracksector+0x72>
    4940: 64 04        	stz	$4                      ; 0x4 <__rc2>
    4942: a6 09        	ldx	$9                      ; 0x9 <__rc7>
    4944: 86 05        	stx	$5                      ; 0x5 <__rc3>
    4946: 06 05        	asl	$5                      ; 0x5 <__rc3>
    4948: 26 04        	rol	$4                      ; 0x4 <__rc2>
    494a: a6 05        	ldx	$5                      ; 0x5 <__rc3>
    494c: 86 07        	stx	$7                      ; 0x7 <__rc5>
    494e: 06 07        	asl	$7                      ; 0x7 <__rc5>
    4950: aa           	tax
    4951: a4 04        	ldy	$4                      ; 0x4 <__rc2>
    4953: 84 09        	sty	$9                      ; 0x9 <__rc7>
    4955: 26 09        	rol	$9                      ; 0x9 <__rc7>
    4957: 18           	clc
    4958: a5 07        	lda	$7                      ; 0x7 <__rc5>
    495a: 65 05        	adc	$5                      ; 0x5 <__rc3>
    495c: 85 05        	sta	$5                      ; 0x5 <__rc3>
    495e: a5 09        	lda	$9                      ; 0x9 <__rc7>
    4960: 65 04        	adc	$4                      ; 0x4 <__rc2>
    4962: 85 04        	sta	$4                      ; 0x4 <__rc2>
    4964: a5 08        	lda	$8                      ; 0x8 <__rc6>
    4966: 18           	clc
    4967: 65 05        	adc	$5                      ; 0x5 <__rc3>
    4969: a8           	tay
    496a: 8a           	txa
    496b: 65 04        	adc	$4                      ; 0x4 <__rc2>
    496d: 84 04        	sty	$4                      ; 0x4 <__rc2>
    496f: 85 05        	sta	$5                      ; 0x5 <__rc3>
    4971: a0 11        	ldy	#$11
    4973: b1 04        	lda	($4),y                  ; 0x4 <__rc2>
    4975: 85 46        	sta	$46                     ; 0x46 <__rc31+0x25>
    4977: a9 01        	lda	#$1
    4979: a2 00        	ldx	#$0
    497b: a4 06        	ldy	$6                      ; 0x6 <__rc4>
    497d: 84 04        	sty	$4                      ; 0x4 <__rc2>
    497f: 4c 0d 4a     	jmp	$4a0d <isallocatedBAMtracksector+0xfd>
    4982: 85 07        	sta	$7                      ; 0x7 <__rc5>
    4984: a6 06        	ldx	$6                      ; 0x6 <__rc4>
    4986: e0 10        	cpx	#$10
    4988: 90 03        	bcc	$498d <isallocatedBAMtracksector+0x7d>
    498a: 4c c7 49     	jmp	$49c7 <isallocatedBAMtracksector+0xb7>
    498d: 64 04        	stz	$4                      ; 0x4 <__rc2>
    498f: a6 09        	ldx	$9                      ; 0x9 <__rc7>
    4991: 86 05        	stx	$5                      ; 0x5 <__rc3>
    4993: 06 05        	asl	$5                      ; 0x5 <__rc3>
    4995: 26 04        	rol	$4                      ; 0x4 <__rc2>
    4997: a5 05        	lda	$5                      ; 0x5 <__rc3>
    4999: 0a           	asl
    499a: a6 04        	ldx	$4                      ; 0x4 <__rc2>
    499c: 86 09        	stx	$9                      ; 0x9 <__rc7>
    499e: 26 09        	rol	$9                      ; 0x9 <__rc7>
    49a0: 18           	clc
    49a1: 65 05        	adc	$5                      ; 0x5 <__rc3>
    49a3: 85 05        	sta	$5                      ; 0x5 <__rc3>
    49a5: a5 09        	lda	$9                      ; 0x9 <__rc7>
    49a7: 65 04        	adc	$4                      ; 0x4 <__rc2>
    49a9: 85 04        	sta	$4                      ; 0x4 <__rc2>
    49ab: a5 08        	lda	$8                      ; 0x8 <__rc6>
    49ad: 18           	clc
    49ae: 65 05        	adc	$5                      ; 0x5 <__rc3>
    49b0: aa           	tax
    49b1: a5 07        	lda	$7                      ; 0x7 <__rc5>
    49b3: 65 04        	adc	$4                      ; 0x4 <__rc2>
    49b5: 86 04        	stx	$4                      ; 0x4 <__rc2>
    49b7: 85 05        	sta	$5                      ; 0x5 <__rc3>
    49b9: a0 12        	ldy	#$12
    49bb: b1 04        	lda	($4),y                  ; 0x4 <__rc2>
    49bd: 85 46        	sta	$46                     ; 0x46 <__rc31+0x25>
    49bf: a5 06        	lda	$6                      ; 0x6 <__rc4>
    49c1: 18           	clc
    49c2: 69 f8        	adc	#$f8
    49c4: 4c 07 4a     	jmp	$4a07 <isallocatedBAMtracksector+0xf7>
    49c7: a6 06        	ldx	$6                      ; 0x6 <__rc4>
    49c9: e0 18        	cpx	#$18
    49cb: 90 03        	bcc	$49d0 <isallocatedBAMtracksector+0xc0>
    49cd: 4c 1e 4a     	jmp	$4a1e <isallocatedBAMtracksector+0x10e>
    49d0: 64 04        	stz	$4                      ; 0x4 <__rc2>
    49d2: a6 09        	ldx	$9                      ; 0x9 <__rc7>
    49d4: 86 05        	stx	$5                      ; 0x5 <__rc3>
    49d6: 06 05        	asl	$5                      ; 0x5 <__rc3>
    49d8: 26 04        	rol	$4                      ; 0x4 <__rc2>
    49da: a5 05        	lda	$5                      ; 0x5 <__rc3>
    49dc: 0a           	asl
    49dd: a6 04        	ldx	$4                      ; 0x4 <__rc2>
    49df: 86 09        	stx	$9                      ; 0x9 <__rc7>
    49e1: 26 09        	rol	$9                      ; 0x9 <__rc7>
    49e3: 18           	clc
    49e4: 65 05        	adc	$5                      ; 0x5 <__rc3>
    49e6: 85 05        	sta	$5                      ; 0x5 <__rc3>
    49e8: a5 09        	lda	$9                      ; 0x9 <__rc7>
    49ea: 65 04        	adc	$4                      ; 0x4 <__rc2>
    49ec: 85 04        	sta	$4                      ; 0x4 <__rc2>
    49ee: a5 08        	lda	$8                      ; 0x8 <__rc6>
    49f0: 18           	clc
    49f1: 65 05        	adc	$5                      ; 0x5 <__rc3>
    49f3: aa           	tax
    49f4: a5 07        	lda	$7                      ; 0x7 <__rc5>
    49f6: 65 04        	adc	$4                      ; 0x4 <__rc2>
    49f8: 86 04        	stx	$4                      ; 0x4 <__rc2>
    49fa: 85 05        	sta	$5                      ; 0x5 <__rc3>
    49fc: a0 13        	ldy	#$13
    49fe: b1 04        	lda	($4),y                  ; 0x4 <__rc2>
    4a00: 85 46        	sta	$46                     ; 0x46 <__rc31+0x25>
    4a02: a5 06        	lda	$6                      ; 0x6 <__rc4>
    4a04: 18           	clc
    4a05: 69 f0        	adc	#$f0
    4a07: a2 00        	ldx	#$0
    4a09: 85 04        	sta	$4                      ; 0x4 <__rc2>
    4a0b: a9 01        	lda	#$1
    4a0d: 20 18 62     	jsr	$6218 <__ashlhi3>
    4a10: a2 01        	ldx	#$1
    4a12: a4 46        	ldy	$46                     ; 0x46 <__rc31+0x25>
    4a14: 84 04        	sty	$4                      ; 0x4 <__rc2>
    4a16: 25 04        	and	$4                      ; 0x4 <__rc2>
    4a18: f0 02        	beq	$4a1c <isallocatedBAMtracksector+0x10c>
    4a1a: a2 00        	ldx	#$0
    4a1c: 8a           	txa
    4a1d: 60           	rts
    4a1e: a6 06        	ldx	$6                      ; 0x6 <__rc4>
    4a20: e0 20        	cpx	#$20
    4a22: a2 01        	ldx	#$1
    4a24: b0 02        	bcs	$4a28 <isallocatedBAMtracksector+0x118>
    4a26: a2 00        	ldx	#$0
    4a28: 86 0a        	stx	$a                      ; 0xa <__zp_data_size>
    4a2a: 64 04        	stz	$4                      ; 0x4 <__rc2>
    4a2c: 18           	clc
    4a2d: a6 09        	ldx	$9                      ; 0x9 <__rc7>
    4a2f: 86 05        	stx	$5                      ; 0x5 <__rc3>
    4a31: a5 08        	lda	$8                      ; 0x8 <__rc6>
    4a33: 69 10        	adc	#$10
    4a35: aa           	tax
    4a36: a5 07        	lda	$7                      ; 0x7 <__rc5>
    4a38: 69 00        	adc	#$0
    4a3a: a8           	tay
    4a3b: 06 05        	asl	$5                      ; 0x5 <__rc3>
    4a3d: 26 04        	rol	$4                      ; 0x4 <__rc2>
    4a3f: a5 05        	lda	$5                      ; 0x5 <__rc3>
    4a41: 0a           	asl
    4a42: 5a           	phy
    4a43: a4 04        	ldy	$4                      ; 0x4 <__rc2>
    4a45: 84 07        	sty	$7                      ; 0x7 <__rc5>
    4a47: 7a           	ply
    4a48: 26 07        	rol	$7                      ; 0x7 <__rc5>
    4a4a: e6 0a        	inc	$a                      ; 0xa <__zp_data_size>
    4a4c: c6 0a        	dec	$a                      ; 0xa <__zp_data_size>
    4a4e: d0 24        	bne	$4a74 <isallocatedBAMtracksector+0x164>
    4a50: 18           	clc
    4a51: 65 05        	adc	$5                      ; 0x5 <__rc3>
    4a53: 85 05        	sta	$5                      ; 0x5 <__rc3>
    4a55: a5 07        	lda	$7                      ; 0x7 <__rc5>
    4a57: 65 04        	adc	$4                      ; 0x4 <__rc2>
    4a59: 85 04        	sta	$4                      ; 0x4 <__rc2>
    4a5b: 8a           	txa
    4a5c: 18           	clc
    4a5d: 65 05        	adc	$5                      ; 0x5 <__rc3>
    4a5f: aa           	tax
    4a60: 98           	tya
    4a61: 65 04        	adc	$4                      ; 0x4 <__rc2>
    4a63: 86 04        	stx	$4                      ; 0x4 <__rc2>
    4a65: 85 05        	sta	$5                      ; 0x5 <__rc3>
    4a67: a0 04        	ldy	#$4
    4a69: b1 04        	lda	($4),y                  ; 0x4 <__rc2>
    4a6b: 85 46        	sta	$46                     ; 0x46 <__rc31+0x25>
    4a6d: a5 06        	lda	$6                      ; 0x6 <__rc4>
    4a6f: 18           	clc
    4a70: 69 e8        	adc	#$e8
    4a72: 80 22        	bra	$4a96 <isallocatedBAMtracksector+0x186>
    4a74: 18           	clc
    4a75: 65 05        	adc	$5                      ; 0x5 <__rc3>
    4a77: 85 05        	sta	$5                      ; 0x5 <__rc3>
    4a79: a5 07        	lda	$7                      ; 0x7 <__rc5>
    4a7b: 65 04        	adc	$4                      ; 0x4 <__rc2>
    4a7d: 85 04        	sta	$4                      ; 0x4 <__rc2>
    4a7f: 8a           	txa
    4a80: 18           	clc
    4a81: 65 05        	adc	$5                      ; 0x5 <__rc3>
    4a83: aa           	tax
    4a84: 98           	tya
    4a85: 65 04        	adc	$4                      ; 0x4 <__rc2>
    4a87: 86 04        	stx	$4                      ; 0x4 <__rc2>
    4a89: 85 05        	sta	$5                      ; 0x5 <__rc3>
    4a8b: a0 05        	ldy	#$5
    4a8d: b1 04        	lda	($4),y                  ; 0x4 <__rc2>
    4a8f: 85 46        	sta	$46                     ; 0x46 <__rc31+0x25>
    4a91: a5 06        	lda	$6                      ; 0x6 <__rc4>
    4a93: 18           	clc
    4a94: 69 e0        	adc	#$e0
    4a96: a2 00        	ldx	#$0
    4a98: 85 04        	sta	$4                      ; 0x4 <__rc2>
    4a9a: a9 01        	lda	#$1
    4a9c: 20 18 62     	jsr	$6218 <__ashlhi3>
    4a9f: a6 46        	ldx	$46                     ; 0x46 <__rc31+0x25>
    4aa1: 86 04        	stx	$4                      ; 0x4 <__rc2>
    4aa3: 25 04        	and	$4                      ; 0x4 <__rc2>
    4aa5: a2 01        	ldx	#$1
    4aa7: a8           	tay
    4aa8: f0 03        	beq	$4aad <isallocatedBAMtracksector+0x19d>
    4aaa: 4c 1a 4a     	jmp	$4a1a <isallocatedBAMtracksector+0x10a>
    4aad: 4c 1c 4a     	jmp	$4a1c <isallocatedBAMtracksector+0x10c>

00004ab0 <findnextBAMtracksector>:
    4ab0: 85 4a        	sta	$4a                     ; 0x4a <__rc31+0x29>
    4ab2: a6 04        	ldx	$4                      ; 0x4 <__rc2>
    4ab4: 86 46        	stx	$46                     ; 0x46 <__rc31+0x25>
    4ab6: a6 05        	ldx	$5                      ; 0x5 <__rc3>
    4ab8: 86 47        	stx	$47                     ; 0x47 <__rc31+0x26>
    4aba: a6 06        	ldx	$6                      ; 0x6 <__rc4>
    4abc: 86 48        	stx	$48                     ; 0x48 <__rc31+0x27>
    4abe: a6 07        	ldx	$7                      ; 0x7 <__rc5>
    4ac0: 86 49        	stx	$49                     ; 0x49 <__rc31+0x28>
    4ac2: 64 4b        	stz	$4b                     ; 0x4b <__rc31+0x2a>
    4ac4: a0 00        	ldy	#$0
    4ac6: c0 50        	cpy	#$50
    4ac8: d0 03        	bne	$4acd <findnextBAMtracksector+0x1d>
    4aca: 4c c3 4b     	jmp	$4bc3 <findnextBAMtracksector+0x113>
    4acd: b9 b8 70     	lda	$70b8,y                 ; 0x70b8 <BAMsector+0x8>
    4ad0: a6 4a        	ldx	$4a                     ; 0x4a <__rc31+0x29>
    4ad2: f0 01        	beq	$4ad5 <findnextBAMtracksector+0x25>
    4ad4: 1a           	inc
    4ad5: c9 50        	cmp	#$50
    4ad7: a2 b0        	ldx	#$b0
    4ad9: 86 04        	stx	$4                      ; 0x4 <__rc2>
    4adb: a2 70        	ldx	#$70
    4add: 86 05        	stx	$5                      ; 0x5 <__rc3>
    4adf: 84 50        	sty	$50                     ; 0x50 <__rc31+0x2f>
    4ae1: 90 06        	bcc	$4ae9 <findnextBAMtracksector+0x39>
    4ae3: 64 4f        	stz	$4f                     ; 0x4f <__rc31+0x2e>
    4ae5: a9 00        	lda	#$0
    4ae7: 80 15        	bra	$4afe <findnextBAMtracksector+0x4e>
    4ae9: c9 28        	cmp	#$28
    4aeb: b0 04        	bcs	$4af1 <findnextBAMtracksector+0x41>
    4aed: 85 4f        	sta	$4f                     ; 0x4f <__rc31+0x2e>
    4aef: 80 0d        	bra	$4afe <findnextBAMtracksector+0x4e>
    4af1: 18           	clc
    4af2: 85 4f        	sta	$4f                     ; 0x4f <__rc31+0x2e>
    4af4: 69 d8        	adc	#$d8
    4af6: a2 b2        	ldx	#$b2
    4af8: 86 04        	stx	$4                      ; 0x4 <__rc2>
    4afa: a2 70        	ldx	#$70
    4afc: 86 05        	stx	$5                      ; 0x5 <__rc3>
    4afe: 0a           	asl
    4aff: 85 06        	sta	$6                      ; 0x6 <__rc4>
    4b01: a9 00        	lda	#$0
    4b03: 2a           	rol
    4b04: 85 07        	sta	$7                      ; 0x7 <__rc5>
    4b06: a5 06        	lda	$6                      ; 0x6 <__rc4>
    4b08: 0a           	asl
    4b09: aa           	tax
    4b0a: a5 07        	lda	$7                      ; 0x7 <__rc5>
    4b0c: 2a           	rol
    4b0d: a8           	tay
    4b0e: 18           	clc
    4b0f: 8a           	txa
    4b10: 65 06        	adc	$6                      ; 0x6 <__rc4>
    4b12: 85 06        	sta	$6                      ; 0x6 <__rc4>
    4b14: 98           	tya
    4b15: 65 07        	adc	$7                      ; 0x7 <__rc5>
    4b17: aa           	tax
    4b18: 18           	clc
    4b19: a5 06        	lda	$6                      ; 0x6 <__rc4>
    4b1b: 72 04        	adc	($4),z                  ; 0x4 <__rc2>
    4b1d: 85 4c        	sta	$4c                     ; 0x4c <__rc31+0x2b>
    4b1f: a0 01        	ldy	#$1
    4b21: 8a           	txa
    4b22: 71 04        	adc	($4),y                  ; 0x4 <__rc2>
    4b24: 85 4d        	sta	$4d                     ; 0x4d <__rc31+0x2c>
    4b26: a2 00        	ldx	#$0
    4b28: 4c 7c 4b     	jmp	$4b7c <findnextBAMtracksector+0xcc>
    4b2b: e0 10        	cpx	#$10
    4b2d: b0 0f        	bcs	$4b3e <findnextBAMtracksector+0x8e>
    4b2f: a0 12        	ldy	#$12
    4b31: b1 4c        	lda	($4c),y                 ; 0x4c <__rc31+0x2b>
    4b33: 85 4e        	sta	$4e                     ; 0x4e <__rc31+0x2d>
    4b35: 18           	clc
    4b36: 86 51        	stx	$51                     ; 0x51 <__rc31+0x30>
    4b38: 8a           	txa
    4b39: 69 f8        	adc	#$f8
    4b3b: 4c 6c 4b     	jmp	$4b6c <findnextBAMtracksector+0xbc>
    4b3e: e0 18        	cpx	#$18
    4b40: b0 0e        	bcs	$4b50 <findnextBAMtracksector+0xa0>
    4b42: a0 13        	ldy	#$13
    4b44: b1 4c        	lda	($4c),y                 ; 0x4c <__rc31+0x2b>
    4b46: 85 4e        	sta	$4e                     ; 0x4e <__rc31+0x2d>
    4b48: 18           	clc
    4b49: 86 51        	stx	$51                     ; 0x51 <__rc31+0x30>
    4b4b: 8a           	txa
    4b4c: 69 f0        	adc	#$f0
    4b4e: 80 1c        	bra	$4b6c <findnextBAMtracksector+0xbc>
    4b50: e0 20        	cpx	#$20
    4b52: 86 51        	stx	$51                     ; 0x51 <__rc31+0x30>
    4b54: b0 0c        	bcs	$4b62 <findnextBAMtracksector+0xb2>
    4b56: a0 14        	ldy	#$14
    4b58: b1 4c        	lda	($4c),y                 ; 0x4c <__rc31+0x2b>
    4b5a: 85 4e        	sta	$4e                     ; 0x4e <__rc31+0x2d>
    4b5c: 18           	clc
    4b5d: 8a           	txa
    4b5e: 69 e8        	adc	#$e8
    4b60: 80 0a        	bra	$4b6c <findnextBAMtracksector+0xbc>
    4b62: a0 15        	ldy	#$15
    4b64: b1 4c        	lda	($4c),y                 ; 0x4c <__rc31+0x2b>
    4b66: 85 4e        	sta	$4e                     ; 0x4e <__rc31+0x2d>
    4b68: 18           	clc
    4b69: 8a           	txa
    4b6a: 69 e0        	adc	#$e0
    4b6c: 85 04        	sta	$4                      ; 0x4 <__rc2>
    4b6e: a2 00        	ldx	#$0
    4b70: a9 01        	lda	#$1
    4b72: 20 18 62     	jsr	$6218 <__ashlhi3>
    4b75: 25 4e        	and	$4e                     ; 0x4e <__rc31+0x2d>
    4b77: d0 20        	bne	$4b99 <findnextBAMtracksector+0xe9>
    4b79: a6 51        	ldx	$51                     ; 0x51 <__rc31+0x30>
    4b7b: e8           	inx
    4b7c: e0 28        	cpx	#$28
    4b7e: f0 13        	beq	$4b93 <findnextBAMtracksector+0xe3>
    4b80: e0 08        	cpx	#$8
    4b82: 90 03        	bcc	$4b87 <findnextBAMtracksector+0xd7>
    4b84: 4c 2b 4b     	jmp	$4b2b <findnextBAMtracksector+0x7b>
    4b87: a0 11        	ldy	#$11
    4b89: 86 04        	stx	$4                      ; 0x4 <__rc2>
    4b8b: b1 4c        	lda	($4c),y                 ; 0x4c <__rc31+0x2b>
    4b8d: 85 4e        	sta	$4e                     ; 0x4e <__rc31+0x2d>
    4b8f: 86 51        	stx	$51                     ; 0x51 <__rc31+0x30>
    4b91: 80 db        	bra	$4b6e <findnextBAMtracksector+0xbe>
    4b93: a4 50        	ldy	$50                     ; 0x50 <__rc31+0x2f>
    4b95: c8           	iny
    4b96: 4c c6 4a     	jmp	$4ac6 <findnextBAMtracksector+0x16>
    4b99: a2 01        	ldx	#$1
    4b9b: a4 4f        	ldy	$4f                     ; 0x4f <__rc31+0x2e>
    4b9d: 84 4a        	sty	$4a                     ; 0x4a <__rc31+0x29>
    4b9f: e6 4a        	inc	$4a                     ; 0x4a <__rc31+0x29>
    4ba1: a0 00        	ldy	#$0
    4ba3: 84 04        	sty	$4                      ; 0x4 <__rc2>
    4ba5: a0 16        	ldy	#$16
    4ba7: 84 05        	sty	$5                      ; 0x5 <__rc3>
    4ba9: a0 00        	ldy	#$0
    4bab: 84 06        	sty	$6                      ; 0x6 <__rc4>
    4bad: a0 17        	ldy	#$17
    4baf: 84 07        	sty	$7                      ; 0x7 <__rc5>
    4bb1: 86 08        	stx	$8                      ; 0x8 <__rc6>
    4bb3: a6 51        	ldx	$51                     ; 0x51 <__rc31+0x30>
    4bb5: a5 4a        	lda	$4a                     ; 0x4a <__rc31+0x29>
    4bb7: 20 0e 46     	jsr	$460e <BAMSectorUpdate>
    4bba: a5 4a        	lda	$4a                     ; 0x4a <__rc31+0x29>
    4bbc: 92 46        	sta	($46),z                 ; 0x46 <__rc31+0x25>
    4bbe: a5 51        	lda	$51                     ; 0x51 <__rc31+0x30>
    4bc0: 92 48        	sta	($48),z                 ; 0x48 <__rc31+0x27>
    4bc2: 60           	rts
    4bc3: a9 ff        	lda	#$ff
    4bc5: 64 51        	stz	$51                     ; 0x51 <__rc31+0x30>
    4bc7: 80 f3        	bra	$4bbc <findnextBAMtracksector+0x10c>

00004bc9 <tracksectorstring>:
    4bc9: 86 48        	stx	$48                     ; 0x48 <__rc31+0x27>
    4bcb: a2 54        	ldx	#$54
    4bcd: 8e 08 71     	stx	$7108                   ; 0x7108 <s>
    4bd0: a2 72        	ldx	#$72
    4bd2: 8e 09 71     	stx	$7109                   ; 0x7109 <s+0x1>
    4bd5: a2 61        	ldx	#$61
    4bd7: 8e 0a 71     	stx	$710a                   ; 0x710a <s+0x2>
    4bda: a2 63        	ldx	#$63
    4bdc: 8e 0b 71     	stx	$710b                   ; 0x710b <s+0x3>
    4bdf: a2 6b        	ldx	#$6b
    4be1: 8e 0c 71     	stx	$710c                   ; 0x710c <s+0x4>
    4be4: a2 3a        	ldx	#$3a
    4be6: 8e 0d 71     	stx	$710d                   ; 0x710d <s+0x5>
    4be9: a2 20        	ldx	#$20
    4beb: 8e 0e 71     	stx	$710e                   ; 0x710e <s+0x6>
    4bee: a2 47        	ldx	#$47
    4bf0: a0 00        	ldy	#$0
    4bf2: 86 04        	stx	$4                      ; 0x4 <__rc2>
    4bf4: 84 05        	sty	$5                      ; 0x5 <__rc3>
    4bf6: a2 0a        	ldx	#$a
    4bf8: 20 63 63     	jsr	$6363 <__udivmodqi4>
    4bfb: 18           	clc
    4bfc: 69 30        	adc	#$30
    4bfe: aa           	tax
    4bff: a5 47        	lda	$47                     ; 0x47 <__rc31+0x26>
    4c01: 8e 0f 71     	stx	$710f                   ; 0x710f <s+0x7>
    4c04: 09 30        	ora	#$30
    4c06: 8d 10 71     	sta	$7110                   ; 0x7110 <s+0x8>
    4c09: a2 53        	ldx	#$53
    4c0b: 8e 12 71     	stx	$7112                   ; 0x7112 <s+0xa>
    4c0e: a2 65        	ldx	#$65
    4c10: 8e 13 71     	stx	$7113                   ; 0x7113 <s+0xb>
    4c13: a2 63        	ldx	#$63
    4c15: 8e 14 71     	stx	$7114                   ; 0x7114 <s+0xc>
    4c18: a2 74        	ldx	#$74
    4c1a: 8e 15 71     	stx	$7115                   ; 0x7115 <s+0xd>
    4c1d: a2 6f        	ldx	#$6f
    4c1f: 8e 16 71     	stx	$7116                   ; 0x7116 <s+0xe>
    4c22: a2 72        	ldx	#$72
    4c24: 8e 17 71     	stx	$7117                   ; 0x7117 <s+0xf>
    4c27: a2 3a        	ldx	#$3a
    4c29: 8e 18 71     	stx	$7118                   ; 0x7118 <s+0x10>
    4c2c: a2 20        	ldx	#$20
    4c2e: 8e 11 71     	stx	$7111                   ; 0x7111 <s+0x9>
    4c31: 8e 19 71     	stx	$7119                   ; 0x7119 <s+0x11>
    4c34: a2 46        	ldx	#$46
    4c36: a0 00        	ldy	#$0
    4c38: 86 04        	stx	$4                      ; 0x4 <__rc2>
    4c3a: 84 05        	sty	$5                      ; 0x5 <__rc3>
    4c3c: a2 0a        	ldx	#$a
    4c3e: a5 48        	lda	$48                     ; 0x48 <__rc31+0x27>
    4c40: 20 63 63     	jsr	$6363 <__udivmodqi4>
    4c43: a6 46        	ldx	$46                     ; 0x46 <__rc31+0x25>
    4c45: 18           	clc
    4c46: 69 30        	adc	#$30
    4c48: 8d 1a 71     	sta	$711a                   ; 0x711a <s+0x12>
    4c4b: 8a           	txa
    4c4c: 09 30        	ora	#$30
    4c4e: 8d 1b 71     	sta	$711b                   ; 0x711b <s+0x13>
    4c51: 9c 1c 71     	stz	$711c                   ; 0x711c <s+0x14>
    4c54: 60           	rts

00004c55 <getdirententry>:
    4c55: 86 52        	stx	$52                     ; 0x52 <__rc31+0x31>
    4c57: a0 00        	ldy	#$0
    4c59: 0a           	asl
    4c5a: 85 04        	sta	$4                      ; 0x4 <__rc2>
    4c5c: 98           	tya
    4c5d: 2a           	rol
    4c5e: 85 05        	sta	$5                      ; 0x5 <__rc3>
    4c60: 98           	tya
    4c61: 2a           	rol
    4c62: 85 06        	sta	$6                      ; 0x6 <__rc4>
    4c64: a5 04        	lda	$4                      ; 0x4 <__rc2>
    4c66: 0a           	asl
    4c67: aa           	tax
    4c68: a5 05        	lda	$5                      ; 0x5 <__rc3>
    4c6a: 2a           	rol
    4c6b: 85 09        	sta	$9                      ; 0x9 <__rc7>
    4c6d: a5 06        	lda	$6                      ; 0x6 <__rc4>
    4c6f: 85 08        	sta	$8                      ; 0x8 <__rc6>
    4c71: 26 08        	rol	$8                      ; 0x8 <__rc6>
    4c73: 8a           	txa
    4c74: 0a           	asl
    4c75: 26 09        	rol	$9                      ; 0x9 <__rc7>
    4c77: 26 08        	rol	$8                      ; 0x8 <__rc6>
    4c79: 0a           	asl
    4c7a: 26 09        	rol	$9                      ; 0x9 <__rc7>
    4c7c: 26 08        	rol	$8                      ; 0x8 <__rc6>
    4c7e: 38           	sec
    4c7f: e5 04        	sbc	$4                      ; 0x4 <__rc2>
    4c81: 85 53        	sta	$53                     ; 0x53 <__rc31+0x32>
    4c83: a5 09        	lda	$9                      ; 0x9 <__rc7>
    4c85: e5 05        	sbc	$5                      ; 0x5 <__rc3>
    4c87: 85 54        	sta	$54                     ; 0x54 <__rc31+0x33>
    4c89: a5 08        	lda	$8                      ; 0x8 <__rc6>
    4c8b: e5 06        	sbc	$6                      ; 0x6 <__rc4>
    4c8d: a2 08        	ldx	#$8
    4c8f: 86 59        	stx	$59                     ; 0x59 <__rc31+0x38>
    4c91: 09 08        	ora	#$8
    4c93: 85 55        	sta	$55                     ; 0x55 <__rc31+0x34>
    4c95: 98           	tya
    4c96: 64 57        	stz	$57                     ; 0x57 <__rc31+0x36>
    4c98: aa           	tax
    4c99: 86 04        	stx	$4                      ; 0x4 <__rc2>
    4c9b: c4 04        	cpy	$4                      ; 0x4 <__rc2>
    4c9d: d0 0a        	bne	$4ca9 <getdirententry+0x54>
    4c9f: 86 58        	stx	$58                     ; 0x58 <__rc31+0x37>
    4ca1: a6 59        	ldx	$59                     ; 0x59 <__rc31+0x38>
    4ca3: 86 04        	stx	$4                      ; 0x4 <__rc2>
    4ca5: c5 04        	cmp	$4                      ; 0x4 <__rc2>
    4ca7: 80 06        	bra	$4caf <getdirententry+0x5a>
    4ca9: 86 58        	stx	$58                     ; 0x58 <__rc31+0x37>
    4cab: 86 04        	stx	$4                      ; 0x4 <__rc2>
    4cad: c4 04        	cpy	$4                      ; 0x4 <__rc2>
    4caf: a2 00        	ldx	#$0
    4cb1: 86 04        	stx	$4                      ; 0x4 <__rc2>
    4cb3: a2 00        	ldx	#$0
    4cb5: 86 05        	stx	$5                      ; 0x5 <__rc3>
    4cb7: 90 03        	bcc	$4cbc <getdirententry+0x67>
    4cb9: 4c 34 4d     	jmp	$4d34 <getdirententry+0xdf>
    4cbc: 85 56        	sta	$56                     ; 0x56 <__rc31+0x35>
    4cbe: 4a           	lsr
    4cbf: 64 04        	stz	$4                      ; 0x4 <__rc2>
    4cc1: 66 04        	ror	$4                      ; 0x4 <__rc2>
    4cc3: 4a           	lsr
    4cc4: 66 04        	ror	$4                      ; 0x4 <__rc2>
    4cc6: 4a           	lsr
    4cc7: 85 05        	sta	$5                      ; 0x5 <__rc3>
    4cc9: 66 04        	ror	$4                      ; 0x4 <__rc2>
    4ccb: a9 00        	lda	#$0
    4ccd: 18           	clc
    4cce: 65 04        	adc	$4                      ; 0x4 <__rc2>
    4cd0: 85 0c        	sta	$c                      ; 0xc <__rc10>
    4cd2: a5 53        	lda	$53                     ; 0x53 <__rc31+0x32>
    4cd4: 65 05        	adc	$5                      ; 0x5 <__rc3>
    4cd6: 85 0d        	sta	$d                      ; 0xd <__rc11>
    4cd8: a5 54        	lda	$54                     ; 0x54 <__rc31+0x33>
    4cda: 69 00        	adc	#$0
    4cdc: 85 04        	sta	$4                      ; 0x4 <__rc2>
    4cde: a5 55        	lda	$55                     ; 0x55 <__rc31+0x34>
    4ce0: 69 00        	adc	#$0
    4ce2: 85 05        	sta	$5                      ; 0x5 <__rc3>
    4ce4: 64 06        	stz	$6                      ; 0x6 <__rc4>
    4ce6: a2 1a        	ldx	#$1a
    4ce8: 86 07        	stx	$7                      ; 0x7 <__rc5>
    4cea: 64 08        	stz	$8                      ; 0x8 <__rc6>
    4cec: 64 09        	stz	$9                      ; 0x9 <__rc7>
    4cee: a2 20        	ldx	#$20
    4cf0: 86 0a        	stx	$a                      ; 0xa <__zp_data_size>
    4cf2: 64 0b        	stz	$b                      ; 0xb <__rc9>
    4cf4: a6 0d        	ldx	$d                      ; 0xd <__rc11>
    4cf6: a5 0c        	lda	$c                      ; 0xc <__rc10>
    4cf8: 20 80 60     	jsr	$6080 <lcopy>
    4cfb: ae 00 1a     	ldx	$1a00                   ; 0x1a00 <__heap_default_limit+0xa00>
    4cfe: f0 0d        	beq	$4d0d <getdirententry+0xb8>
    4d00: 18           	clc
    4d01: a5 59        	lda	$59                     ; 0x59 <__rc31+0x38>
    4d03: 69 08        	adc	#$8
    4d05: 85 59        	sta	$59                     ; 0x59 <__rc31+0x38>
    4d07: a5 58        	lda	$58                     ; 0x58 <__rc31+0x37>
    4d09: 69 00        	adc	#$0
    4d0b: 85 58        	sta	$58                     ; 0x58 <__rc31+0x37>
    4d0d: ae 02 1a     	ldx	$1a02                   ; 0x1a02 <__heap_default_limit+0xa02>
    4d10: a0 00        	ldy	#$0
    4d12: 8a           	txa
    4d13: d0 06        	bne	$4d1b <getdirententry+0xc6>
    4d15: a9 01        	lda	#$1
    4d17: 25 2d        	and	$2d                     ; 0x2d <option.0>
    4d19: f0 09        	beq	$4d24 <getdirententry+0xcf>
    4d1b: a6 57        	ldx	$57                     ; 0x57 <__rc31+0x36>
    4d1d: e4 52        	cpx	$52                     ; 0x52 <__rc31+0x31>
    4d1f: f0 0b        	beq	$4d2c <getdirententry+0xd7>
    4d21: e8           	inx
    4d22: 86 57        	stx	$57                     ; 0x57 <__rc31+0x36>
    4d24: a5 56        	lda	$56                     ; 0x56 <__rc31+0x35>
    4d26: 1a           	inc
    4d27: a6 58        	ldx	$58                     ; 0x58 <__rc31+0x37>
    4d29: 4c 99 4c     	jmp	$4c99 <getdirententry+0x44>
    4d2c: a2 00        	ldx	#$0
    4d2e: 86 04        	stx	$4                      ; 0x4 <__rc2>
    4d30: a2 1a        	ldx	#$1a
    4d32: 86 05        	stx	$5                      ; 0x5 <__rc3>
    4d34: 60           	rts

00004d35 <strcopy>:
    4d35: a0 00        	ldy	#$0
    4d37: 80 03        	bra	$4d3c <strcopy+0x7>
    4d39: 91 06        	sta	($6),y                  ; 0x6 <__rc4>
    4d3b: c8           	iny
    4d3c: b1 04        	lda	($4),y                  ; 0x4 <__rc2>
    4d3e: f0 04        	beq	$4d44 <strcopy+0xf>
    4d40: c0 10        	cpy	#$10
    4d42: 90 f5        	bcc	$4d39 <strcopy+0x4>
    4d44: a9 00        	lda	#$0
    4d46: 91 06        	sta	($6),y                  ; 0x6 <__rc4>
    4d48: 60           	rts

00004d49 <csputdec>:
    4d49: 86 07        	stx	$7                      ; 0x7 <__rc5>
    4d4b: a6 06        	ldx	$6                      ; 0x6 <__rc4>
    4d4d: 86 4b        	stx	$4b                     ; 0x4b <__rc31+0x2a>
    4d4f: a6 04        	ldx	$4                      ; 0x4 <__rc2>
    4d51: 86 51        	stx	$51                     ; 0x51 <__rc31+0x30>
    4d53: a6 05        	ldx	$5                      ; 0x5 <__rc3>
    4d55: 86 52        	stx	$52                     ; 0x52 <__rc31+0x31>
    4d57: 64 5e        	stz	$5e                     ; 0x5e <__rc31+0x3d>
    4d59: a0 09        	ldy	#$9
    4d5b: a2 5f        	ldx	#$5f
    4d5d: 86 4d        	stx	$4d                     ; 0x4d <__rc31+0x2c>
    4d5f: a2 00        	ldx	#$0
    4d61: 86 4e        	stx	$4e                     ; 0x4e <__rc31+0x2d>
    4d63: a6 07        	ldx	$7                      ; 0x7 <__rc5>
    4d65: 84 53        	sty	$53                     ; 0x53 <__rc31+0x32>
    4d67: 48           	pha
    4d68: a5 4d        	lda	$4d                     ; 0x4d <__rc31+0x2c>
    4d6a: 85 0a        	sta	$a                      ; 0xa <__zp_data_size>
    4d6c: a5 4e        	lda	$4e                     ; 0x4e <__rc31+0x2d>
    4d6e: 85 0b        	sta	$b                      ; 0xb <__rc9>
    4d70: 68           	pla
    4d71: 84 4c        	sty	$4c                     ; 0x4c <__rc31+0x2b>
    4d73: a0 0a        	ldy	#$a
    4d75: 84 06        	sty	$6                      ; 0x6 <__rc4>
    4d77: 64 07        	stz	$7                      ; 0x7 <__rc5>
    4d79: 64 08        	stz	$8                      ; 0x8 <__rc6>
    4d7b: 64 09        	stz	$9                      ; 0x9 <__rc7>
    4d7d: 86 50        	stx	$50                     ; 0x50 <__rc31+0x2f>
    4d7f: 85 4f        	sta	$4f                     ; 0x4f <__rc31+0x2e>
    4d81: 20 fb 64     	jsr	$64fb <__udivmodsi4>
    4d84: 85 07        	sta	$7                      ; 0x7 <__rc5>
    4d86: a9 30        	lda	#$30
    4d88: 05 5f        	ora	$5f                     ; 0x5f <__rc31+0x3e>
    4d8a: c6 4c        	dec	$4c                     ; 0x4c <__rc31+0x2b>
    4d8c: a4 53        	ldy	$53                     ; 0x53 <__rc31+0x32>
    4d8e: 99 54 00     	sta	$54,y                   ; 0x54 <__rc31+0x33>
    4d91: a5 52        	lda	$52                     ; 0x52 <__rc31+0x31>
    4d93: d0 0e        	bne	$4da3 <csputdec+0x5a>
    4d95: a5 51        	lda	$51                     ; 0x51 <__rc31+0x30>
    4d97: d0 0e        	bne	$4da7 <csputdec+0x5e>
    4d99: a5 50        	lda	$50                     ; 0x50 <__rc31+0x2f>
    4d9b: d0 0e        	bne	$4dab <csputdec+0x62>
    4d9d: a4 4f        	ldy	$4f                     ; 0x4f <__rc31+0x2e>
    4d9f: c0 0a        	cpy	#$a
    4da1: 80 0c        	bra	$4daf <csputdec+0x66>
    4da3: a4 52        	ldy	$52                     ; 0x52 <__rc31+0x31>
    4da5: 80 06        	bra	$4dad <csputdec+0x64>
    4da7: a4 51        	ldy	$51                     ; 0x51 <__rc31+0x30>
    4da9: 80 02        	bra	$4dad <csputdec+0x64>
    4dab: a4 50        	ldy	$50                     ; 0x50 <__rc31+0x2f>
    4dad: c0 00        	cpy	#$0
    4daf: a5 07        	lda	$7                      ; 0x7 <__rc5>
    4db1: a4 04        	ldy	$4                      ; 0x4 <__rc2>
    4db3: 84 51        	sty	$51                     ; 0x51 <__rc31+0x30>
    4db5: a4 05        	ldy	$5                      ; 0x5 <__rc3>
    4db7: 84 52        	sty	$52                     ; 0x52 <__rc31+0x31>
    4db9: a4 4c        	ldy	$4c                     ; 0x4c <__rc31+0x2b>
    4dbb: 90 03        	bcc	$4dc0 <csputdec+0x77>
    4dbd: 4c 65 4d     	jmp	$4d65 <csputdec+0x1c>
    4dc0: 38           	sec
    4dc1: a9 0a        	lda	#$a
    4dc3: e5 4b        	sbc	$4b                     ; 0x4b <__rc31+0x2a>
    4dc5: 85 05        	sta	$5                      ; 0x5 <__rc3>
    4dc7: a9 00        	lda	#$0
    4dc9: e9 00        	sbc	#$0
    4dcb: 85 06        	sta	$6                      ; 0x6 <__rc4>
    4dcd: 80 1d        	bra	$4dec <csputdec+0xa3>
    4dcf: c9 00        	cmp	#$0
    4dd1: a9 00        	lda	#$0
    4dd3: b0 02        	bcs	$4dd7 <csputdec+0x8e>
    4dd5: a9 01        	lda	#$1
    4dd7: c0 00        	cpy	#$0
    4dd9: f0 04        	beq	$4ddf <csputdec+0x96>
    4ddb: 29 01        	and	#$1
    4ddd: 80 02        	bra	$4de1 <csputdec+0x98>
    4ddf: a9 00        	lda	#$0
    4de1: aa           	tax
    4de2: f0 13        	beq	$4df7 <csputdec+0xae>
    4de4: a9 20        	lda	#$20
    4de6: 99 54 00     	sta	$54,y                   ; 0x54 <__rc31+0x33>
    4de9: 88           	dey
    4dea: a5 06        	lda	$6                      ; 0x6 <__rc4>
    4dec: aa           	tax
    4ded: d0 e0        	bne	$4dcf <csputdec+0x86>
    4def: 84 04        	sty	$4                      ; 0x4 <__rc2>
    4df1: a6 05        	ldx	$5                      ; 0x5 <__rc3>
    4df3: e4 04        	cpx	$4                      ; 0x4 <__rc2>
    4df5: 80 da        	bra	$4dd1 <csputdec+0x88>
    4df7: a9 54        	lda	#$54
    4df9: 18           	clc
    4dfa: 84 04        	sty	$4                      ; 0x4 <__rc2>
    4dfc: 65 04        	adc	$4                      ; 0x4 <__rc2>
    4dfe: 85 04        	sta	$4                      ; 0x4 <__rc2>
    4e00: a9 00        	lda	#$0
    4e02: 69 00        	adc	#$0
    4e04: 85 05        	sta	$5                      ; 0x5 <__rc3>
    4e06: e6 04        	inc	$4                      ; 0x4 <__rc2>
    4e08: d0 02        	bne	$4e0c <csputdec+0xc3>
    4e0a: e6 05        	inc	$5                      ; 0x5 <__rc3>
    4e0c: 4c c4 5e     	jmp	$5ec4 <cputs>

00004e0f <asciitoscreencode_s>:
    4e0f: a2 34        	ldx	#$34
    4e11: 86 06        	stx	$6                      ; 0x6 <__rc4>
    4e13: a2 03        	ldx	#$3
    4e15: 86 07        	stx	$7                      ; 0x7 <__rc5>
    4e17: b2 04        	lda	($4),z                  ; 0x4 <__rc2>
    4e19: e6 04        	inc	$4                      ; 0x4 <__rc2>
    4e1b: d0 02        	bne	$4e1f <asciitoscreencode_s+0x10>
    4e1d: e6 05        	inc	$5                      ; 0x5 <__rc3>
    4e1f: a0 20        	ldy	#$20
    4e21: c9 a0        	cmp	#$a0
    4e23: f0 11        	beq	$4e36 <asciitoscreencode_s+0x27>
    4e25: aa           	tax
    4e26: e0 c0        	cpx	#$c0
    4e28: 90 04        	bcc	$4e2e <asciitoscreencode_s+0x1f>
    4e2a: 29 7f        	and	#$7f
    4e2c: 80 07        	bra	$4e35 <asciitoscreencode_s+0x26>
    4e2e: c9 60        	cmp	#$60
    4e30: 90 12        	bcc	$4e44 <asciitoscreencode_s+0x35>
    4e32: 18           	clc
    4e33: 69 a0        	adc	#$a0
    4e35: a8           	tay
    4e36: 98           	tya
    4e37: 92 06        	sta	($6),z                  ; 0x6 <__rc4>
    4e39: e6 06        	inc	$6                      ; 0x6 <__rc4>
    4e3b: d0 02        	bne	$4e3f <asciitoscreencode_s+0x30>
    4e3d: e6 07        	inc	$7                      ; 0x7 <__rc5>
    4e3f: 98           	tya
    4e40: d0 d5        	bne	$4e17 <asciitoscreencode_s+0x8>
    4e42: 80 0d        	bra	$4e51 <asciitoscreencode_s+0x42>
    4e44: a8           	tay
    4e45: 18           	clc
    4e46: 69 a5        	adc	#$a5
    4e48: c9 05        	cmp	#$5
    4e4a: b0 ea        	bcs	$4e36 <asciitoscreencode_s+0x27>
    4e4c: aa           	tax
    4e4d: b4 22        	ldy	$22,x                   ; 0x22 <__zp_data_start>
    4e4f: 80 e5        	bra	$4e36 <asciitoscreencode_s+0x27>
    4e51: ae 34 03     	ldx	$334                    ; 0x334 <__basic_zp_end+0x2a4>
    4e54: f0 01        	beq	$4e57 <asciitoscreencode_s+0x48>
    4e56: 60           	rts
    4e57: a2 20        	ldx	#$20
    4e59: 8e 34 03     	stx	$334                    ; 0x334 <__basic_zp_end+0x2a4>
    4e5c: 9c 35 03     	stz	$335                    ; 0x335 <__basic_zp_end+0x2a5>
    4e5f: 60           	rts

00004e60 <clrhome>:
    4e60: a6 2e        	ldx	$2e                     ; 0x2e <g_curScreenW>
    4e62: a5 2f        	lda	$2f                     ; 0x2f <g_curScreenH>
    4e64: 86 04        	stx	$4                      ; 0x4 <__rc2>
    4e66: 64 05        	stz	$5                      ; 0x5 <__rc3>
    4e68: a2 00        	ldx	#$0
    4e6a: 20 2b 62     	jsr	$622b <__mulhi3>
    4e6d: a8           	tay
    4e6e: ad 54 d0     	lda	$d054                   ; 0xd054 <__heap_start+0x5afc>
    4e71: 29 01        	and	#$1
    4e73: 85 04        	sta	$4                      ; 0x4 <__rc2>
    4e75: 98           	tya
    4e76: 20 18 62     	jsr	$6218 <__ashlhi3>
    4e79: 85 07        	sta	$7                      ; 0x7 <__rc5>
    4e7b: 85 46        	sta	$46                     ; 0x46 <__rc31+0x25>
    4e7d: 86 08        	stx	$8                      ; 0x8 <__rc6>
    4e7f: 86 47        	stx	$47                     ; 0x47 <__rc31+0x26>
    4e81: ad 63 d0     	lda	$d063                   ; 0xd063 <__heap_start+0x5b0b>
    4e84: 29 07        	and	#$7
    4e86: ae 62 d0     	ldx	$d062                   ; 0xd062 <__heap_start+0x5b0a>
    4e89: ac 61 d0     	ldy	$d061                   ; 0xd061 <__heap_start+0x5b09>
    4e8c: 84 09        	sty	$9                      ; 0x9 <__rc7>
    4e8e: ac 60 d0     	ldy	$d060                   ; 0xd060 <__heap_start+0x5b08>
    4e91: 86 04        	stx	$4                      ; 0x4 <__rc2>
    4e93: 85 05        	sta	$5                      ; 0x5 <__rc3>
    4e95: a2 20        	ldx	#$20
    4e97: 86 06        	stx	$6                      ; 0x6 <__rc4>
    4e99: a6 09        	ldx	$9                      ; 0x9 <__rc7>
    4e9b: 98           	tya
    4e9c: 20 e7 60     	jsr	$60e7 <lfill>
    4e9f: a6 2b        	ldx	$2b                     ; 0x2b <g_curTextColor>
    4ea1: a0 f8        	ldy	#$f8
    4ea3: a9 0f        	lda	#$f
    4ea5: 84 04        	sty	$4                      ; 0x4 <__rc2>
    4ea7: 85 05        	sta	$5                      ; 0x5 <__rc3>
    4ea9: 86 06        	stx	$6                      ; 0x6 <__rc4>
    4eab: a6 46        	ldx	$46                     ; 0x46 <__rc31+0x25>
    4ead: 86 07        	stx	$7                      ; 0x7 <__rc5>
    4eaf: a6 47        	ldx	$47                     ; 0x47 <__rc31+0x26>
    4eb1: 86 08        	stx	$8                      ; 0x8 <__rc6>
    4eb3: a2 00        	ldx	#$0
    4eb5: 8a           	txa
    4eb6: 20 e7 60     	jsr	$60e7 <lfill>
    4eb9: 64 30        	stz	$30                     ; 0x30 <g_curX>
    4ebb: 64 31        	stz	$31                     ; 0x31 <g_curY>
    4ebd: 60           	rts

00004ebe <msprintf>:
    4ebe: 20 0f 4e     	jsr	$4e0f <asciitoscreencode_s>
    4ec1: a2 34        	ldx	#$34
    4ec3: 86 04        	stx	$4                      ; 0x4 <__rc2>
    4ec5: a2 03        	ldx	#$3
    4ec7: 86 05        	stx	$5                      ; 0x5 <__rc3>
    4ec9: 4c c4 5e     	jmp	$5ec4 <cputs>

00004ecc <mcputsxy>:
    4ecc: 85 59        	sta	$59                     ; 0x59 <__rc31+0x38>
    4ece: 86 5a        	stx	$5a                     ; 0x5a <__rc31+0x39>
    4ed0: 20 0f 4e     	jsr	$4e0f <asciitoscreencode_s>
    4ed3: a2 34        	ldx	#$34
    4ed5: 86 04        	stx	$4                      ; 0x4 <__rc2>
    4ed7: a2 03        	ldx	#$3
    4ed9: 86 05        	stx	$5                      ; 0x5 <__rc3>
    4edb: a6 5a        	ldx	$5a                     ; 0x5a <__rc31+0x39>
    4edd: a5 59        	lda	$59                     ; 0x59 <__rc31+0x38>
    4edf: 4c cb 5e     	jmp	$5ecb <cputsxy>

00004ee2 <mcbox>:
    4ee2: a8           	tay
    4ee3: 86 5b        	stx	$5b                     ; 0x5b <__rc31+0x3a>
    4ee5: a6 06        	ldx	$6                      ; 0x6 <__rc4>
    4ee7: 86 5f        	stx	$5f                     ; 0x5f <__rc31+0x3e>
    4ee9: a6 04        	ldx	$4                      ; 0x4 <__rc2>
    4eeb: 38           	sec
    4eec: 85 04        	sta	$4                      ; 0x4 <__rc2>
    4eee: 8a           	txa
    4eef: e5 04        	sbc	$4                      ; 0x4 <__rc2>
    4ef1: 85 59        	sta	$59                     ; 0x59 <__rc31+0x38>
    4ef3: a9 f0        	lda	#$f0
    4ef5: 25 2b        	and	$2b                     ; 0x2b <g_curTextColor>
    4ef7: 09 03        	ora	#$3
    4ef9: 85 2b        	sta	$2b                     ; 0x2b <g_curTextColor>
    4efb: 84 60        	sty	$60                     ; 0x60 <__rc31+0x3f>
    4efd: 84 5d        	sty	$5d                     ; 0x5d <__rc31+0x3c>
    4eff: a5 5b        	lda	$5b                     ; 0x5b <__rc31+0x3a>
    4f01: 85 61        	sta	$61                     ; 0x61 <__rc31+0x40>
    4f03: 86 62        	stx	$62                     ; 0x62 <__rc31+0x41>
    4f05: 86 5a        	stx	$5a                     ; 0x5a <__rc31+0x39>
    4f07: a6 05        	ldx	$5                      ; 0x5 <__rc3>
    4f09: 86 63        	stx	$63                     ; 0x63 <__rc31+0x42>
    4f0b: 86 5c        	stx	$5c                     ; 0x5c <__rc31+0x3b>
    4f0d: a2 60        	ldx	#$60
    4f0f: a0 00        	ldy	#$0
    4f11: 86 04        	stx	$4                      ; 0x4 <__rc2>
    4f13: 84 05        	sty	$5                      ; 0x5 <__rc3>
    4f15: 20 a6 5f     	jsr	$5fa6 <fillrect>
    4f18: a2 70        	ldx	#$70
    4f1a: 86 04        	stx	$4                      ; 0x4 <__rc2>
    4f1c: a6 5b        	ldx	$5b                     ; 0x5b <__rc31+0x3a>
    4f1e: a5 5d        	lda	$5d                     ; 0x5d <__rc31+0x3c>
    4f20: 20 23 5e     	jsr	$5e23 <cputcxy>
    4f23: a2 6d        	ldx	#$6d
    4f25: 86 04        	stx	$4                      ; 0x4 <__rc2>
    4f27: a6 5c        	ldx	$5c                     ; 0x5c <__rc31+0x3b>
    4f29: a5 5d        	lda	$5d                     ; 0x5d <__rc31+0x3c>
    4f2b: 20 23 5e     	jsr	$5e23 <cputcxy>
    4f2e: a2 6e        	ldx	#$6e
    4f30: 86 04        	stx	$4                      ; 0x4 <__rc2>
    4f32: a6 5b        	ldx	$5b                     ; 0x5b <__rc31+0x3a>
    4f34: a5 5a        	lda	$5a                     ; 0x5a <__rc31+0x39>
    4f36: 20 23 5e     	jsr	$5e23 <cputcxy>
    4f39: a2 7d        	ldx	#$7d
    4f3b: 86 04        	stx	$4                      ; 0x4 <__rc2>
    4f3d: a6 5c        	ldx	$5c                     ; 0x5c <__rc31+0x3b>
    4f3f: 86 5e        	stx	$5e                     ; 0x5e <__rc31+0x3d>
    4f41: a4 5a        	ldy	$5a                     ; 0x5a <__rc31+0x39>
    4f43: 84 5c        	sty	$5c                     ; 0x5c <__rc31+0x3b>
    4f45: a5 5a        	lda	$5a                     ; 0x5a <__rc31+0x39>
    4f47: 20 23 5e     	jsr	$5e23 <cputcxy>
    4f4a: a5 59        	lda	$59                     ; 0x59 <__rc31+0x38>
    4f4c: c9 02        	cmp	#$2
    4f4e: a6 59        	ldx	$59                     ; 0x59 <__rc31+0x38>
    4f50: 86 65        	stx	$65                     ; 0x65 <__rc31+0x44>
    4f52: b0 02        	bcs	$4f56 <mcbox+0x74>
    4f54: a9 01        	lda	#$1
    4f56: a6 5d        	ldx	$5d                     ; 0x5d <__rc31+0x3c>
    4f58: 86 5a        	stx	$5a                     ; 0x5a <__rc31+0x39>
    4f5a: 80 1c        	bra	$4f78 <mcbox+0x96>
    4f5c: e6 5a        	inc	$5a                     ; 0x5a <__rc31+0x39>
    4f5e: a2 40        	ldx	#$40
    4f60: 86 04        	stx	$4                      ; 0x4 <__rc2>
    4f62: a6 5b        	ldx	$5b                     ; 0x5b <__rc31+0x3a>
    4f64: 85 59        	sta	$59                     ; 0x59 <__rc31+0x38>
    4f66: a5 5a        	lda	$5a                     ; 0x5a <__rc31+0x39>
    4f68: 20 23 5e     	jsr	$5e23 <cputcxy>
    4f6b: a2 40        	ldx	#$40
    4f6d: 86 04        	stx	$4                      ; 0x4 <__rc2>
    4f6f: a6 5e        	ldx	$5e                     ; 0x5e <__rc31+0x3d>
    4f71: a5 5a        	lda	$5a                     ; 0x5a <__rc31+0x39>
    4f73: 20 23 5e     	jsr	$5e23 <cputcxy>
    4f76: a5 59        	lda	$59                     ; 0x59 <__rc31+0x38>
    4f78: 3a           	dec
    4f79: d0 e1        	bne	$4f5c <mcbox+0x7a>
    4f7b: a5 5b        	lda	$5b                     ; 0x5b <__rc31+0x3a>
    4f7d: 1a           	inc
    4f7e: a6 5e        	ldx	$5e                     ; 0x5e <__rc31+0x3d>
    4f80: 86 5a        	stx	$5a                     ; 0x5a <__rc31+0x39>
    4f82: 85 64        	sta	$64                     ; 0x64 <__rc31+0x43>
    4f84: 80 1a        	bra	$4fa0 <mcbox+0xbe>
    4f86: a2 5d        	ldx	#$5d
    4f88: 86 04        	stx	$4                      ; 0x4 <__rc2>
    4f8a: 85 59        	sta	$59                     ; 0x59 <__rc31+0x38>
    4f8c: aa           	tax
    4f8d: a5 5d        	lda	$5d                     ; 0x5d <__rc31+0x3c>
    4f8f: 20 23 5e     	jsr	$5e23 <cputcxy>
    4f92: a2 5d        	ldx	#$5d
    4f94: 86 04        	stx	$4                      ; 0x4 <__rc2>
    4f96: a6 59        	ldx	$59                     ; 0x59 <__rc31+0x38>
    4f98: a5 5c        	lda	$5c                     ; 0x5c <__rc31+0x3b>
    4f9a: 20 23 5e     	jsr	$5e23 <cputcxy>
    4f9d: a5 59        	lda	$59                     ; 0x59 <__rc31+0x38>
    4f9f: 1a           	inc
    4fa0: c5 5a        	cmp	$5a                     ; 0x5a <__rc31+0x39>
    4fa2: 90 e2        	bcc	$4f86 <mcbox+0xa4>
    4fa4: a5 5f        	lda	$5f                     ; 0x5f <__rc31+0x3e>
    4fa6: d0 03        	bne	$4fab <mcbox+0xc9>
    4fa8: 4c 6c 50     	jmp	$506c <mcbox+0x18a>
    4fab: a6 5e        	ldx	$5e                     ; 0x5e <__rc31+0x3d>
    4fad: e4 2f        	cpx	$2f                     ; 0x2f <g_curScreenH>
    4faf: 90 03        	bcc	$4fb4 <mcbox+0xd2>
    4fb1: 4c 6c 50     	jmp	$506c <mcbox+0x18a>
    4fb4: a6 2e        	ldx	$2e                     ; 0x2e <g_curScreenW>
    4fb6: 86 04        	stx	$4                      ; 0x4 <__rc2>
    4fb8: a6 5c        	ldx	$5c                     ; 0x5c <__rc31+0x3b>
    4fba: e4 04        	cpx	$4                      ; 0x4 <__rc2>
    4fbc: 90 03        	bcc	$4fc1 <mcbox+0xdf>
    4fbe: 4c 6c 50     	jmp	$506c <mcbox+0x18a>
    4fc1: 64 05        	stz	$5                      ; 0x5 <__rc3>
    4fc3: a6 5e        	ldx	$5e                     ; 0x5e <__rc31+0x3d>
    4fc5: a0 00        	ldy	#$0
    4fc7: e8           	inx
    4fc8: d0 01        	bne	$4fcb <mcbox+0xe9>
    4fca: c8           	iny
    4fcb: 8a           	txa
    4fcc: 84 5e        	sty	$5e                     ; 0x5e <__rc31+0x3d>
    4fce: a6 5e        	ldx	$5e                     ; 0x5e <__rc31+0x3d>
    4fd0: 85 5b        	sta	$5b                     ; 0x5b <__rc31+0x3a>
    4fd2: 20 2b 62     	jsr	$622b <__mulhi3>
    4fd5: 85 04        	sta	$4                      ; 0x4 <__rc2>
    4fd7: 86 05        	stx	$5                      ; 0x5 <__rc3>
    4fd9: 64 08        	stz	$8                      ; 0x8 <__rc6>
    4fdb: 18           	clc
    4fdc: a5 5d        	lda	$5d                     ; 0x5d <__rc31+0x3c>
    4fde: 65 04        	adc	$4                      ; 0x4 <__rc2>
    4fe0: aa           	tax
    4fe1: a9 00        	lda	#$0
    4fe3: 65 05        	adc	$5                      ; 0x5 <__rc3>
    4fe5: 85 04        	sta	$4                      ; 0x4 <__rc2>
    4fe7: a9 00        	lda	#$0
    4fe9: 69 00        	adc	#$0
    4feb: 85 05        	sta	$5                      ; 0x5 <__rc3>
    4fed: a9 00        	lda	#$0
    4fef: 69 00        	adc	#$0
    4ff1: 85 06        	sta	$6                      ; 0x6 <__rc4>
    4ff3: 18           	clc
    4ff4: 8a           	txa
    4ff5: 69 01        	adc	#$1
    4ff7: a8           	tay
    4ff8: a5 04        	lda	$4                      ; 0x4 <__rc2>
    4ffa: 69 00        	adc	#$0
    4ffc: 85 09        	sta	$9                      ; 0x9 <__rc7>
    4ffe: a5 05        	lda	$5                      ; 0x5 <__rc3>
    5000: 69 f8        	adc	#$f8
    5002: 85 04        	sta	$4                      ; 0x4 <__rc2>
    5004: a5 06        	lda	$6                      ; 0x6 <__rc4>
    5006: 69 0f        	adc	#$f
    5008: a2 0b        	ldx	#$b
    500a: 85 05        	sta	$5                      ; 0x5 <__rc3>
    500c: 86 06        	stx	$6                      ; 0x6 <__rc4>
    500e: a6 65        	ldx	$65                     ; 0x65 <__rc31+0x44>
    5010: 86 07        	stx	$7                      ; 0x7 <__rc5>
    5012: a6 09        	ldx	$9                      ; 0x9 <__rc7>
    5014: 98           	tya
    5015: 20 e7 60     	jsr	$60e7 <lfill>
    5018: a6 5c        	ldx	$5c                     ; 0x5c <__rc31+0x3b>
    501a: 86 5a        	stx	$5a                     ; 0x5a <__rc31+0x39>
    501c: e6 5a        	inc	$5a                     ; 0x5a <__rc31+0x39>
    501e: a6 64        	ldx	$64                     ; 0x64 <__rc31+0x43>
    5020: 86 59        	stx	$59                     ; 0x59 <__rc31+0x38>
    5022: 64 5c        	stz	$5c                     ; 0x5c <__rc31+0x3b>
    5024: 4c 5c 50     	jmp	$505c <mcbox+0x17a>
    5027: c0 00        	cpy	#$0
    5029: b0 03        	bcs	$502e <mcbox+0x14c>
    502b: 4c 6c 50     	jmp	$506c <mcbox+0x18a>
    502e: a5 2e        	lda	$2e                     ; 0x2e <g_curScreenW>
    5030: a6 59        	ldx	$59                     ; 0x59 <__rc31+0x38>
    5032: 86 04        	stx	$4                      ; 0x4 <__rc2>
    5034: 64 05        	stz	$5                      ; 0x5 <__rc3>
    5036: a2 00        	ldx	#$0
    5038: 20 2b 62     	jsr	$622b <__mulhi3>
    503b: 18           	clc
    503c: 65 5a        	adc	$5a                     ; 0x5a <__rc31+0x39>
    503e: a8           	tay
    503f: 8a           	txa
    5040: 65 5c        	adc	$5c                     ; 0x5c <__rc31+0x3b>
    5042: 85 07        	sta	$7                      ; 0x7 <__rc5>
    5044: a9 f8        	lda	#$f8
    5046: 69 00        	adc	#$0
    5048: 85 04        	sta	$4                      ; 0x4 <__rc2>
    504a: a9 0f        	lda	#$f
    504c: 69 00        	adc	#$0
    504e: 85 05        	sta	$5                      ; 0x5 <__rc3>
    5050: a2 0b        	ldx	#$b
    5052: 86 06        	stx	$6                      ; 0x6 <__rc4>
    5054: a6 07        	ldx	$7                      ; 0x7 <__rc5>
    5056: 98           	tya
    5057: 20 90 20     	jsr	$2090 <lpoke>
    505a: e6 59        	inc	$59                     ; 0x59 <__rc31+0x38>
    505c: a4 5e        	ldy	$5e                     ; 0x5e <__rc31+0x3d>
    505e: f0 03        	beq	$5063 <mcbox+0x181>
    5060: 4c 27 50     	jmp	$5027 <mcbox+0x145>
    5063: a6 5b        	ldx	$5b                     ; 0x5b <__rc31+0x3a>
    5065: e4 59        	cpx	$59                     ; 0x59 <__rc31+0x38>
    5067: 90 03        	bcc	$506c <mcbox+0x18a>
    5069: 4c 2e 50     	jmp	$502e <mcbox+0x14c>
    506c: 60           	rts

0000506d <messagebox>:
    506d: 85 58        	sta	$58                     ; 0x58 <__rc31+0x37>
    506f: a6 04        	ldx	$4                      ; 0x4 <__rc2>
    5071: 86 56        	stx	$56                     ; 0x56 <__rc31+0x35>
    5073: a6 05        	ldx	$5                      ; 0x5 <__rc3>
    5075: 86 57        	stx	$57                     ; 0x57 <__rc31+0x36>
    5077: a6 06        	ldx	$6                      ; 0x6 <__rc4>
    5079: 86 54        	stx	$54                     ; 0x54 <__rc31+0x33>
    507b: a6 07        	ldx	$7                      ; 0x7 <__rc5>
    507d: 86 55        	stx	$55                     ; 0x55 <__rc31+0x34>
    507f: a6 08        	ldx	$8                      ; 0x8 <__rc6>
    5081: 86 52        	stx	$52                     ; 0x52 <__rc31+0x31>
    5083: a6 09        	ldx	$9                      ; 0x9 <__rc7>
    5085: 86 53        	stx	$53                     ; 0x53 <__rc31+0x32>
    5087: a2 46        	ldx	#$46
    5089: a9 0c        	lda	#$c
    508b: a0 01        	ldy	#$1
    508d: 86 04        	stx	$4                      ; 0x4 <__rc2>
    508f: 85 05        	sta	$5                      ; 0x5 <__rc3>
    5091: 84 06        	sty	$6                      ; 0x6 <__rc4>
    5093: a2 04        	ldx	#$4
    5095: a9 0a        	lda	#$a
    5097: 20 e2 4e     	jsr	$4ee2 <mcbox>
    509a: a9 20        	lda	#$20
    509c: 05 2b        	ora	$2b                     ; 0x2b <g_curTextColor>
    509e: 85 2b        	sta	$2b                     ; 0x2b <g_curTextColor>
    50a0: a9 0e        	lda	#$e
    50a2: a2 08        	ldx	#$8
    50a4: 86 04        	stx	$4                      ; 0x4 <__rc2>
    50a6: a2 68        	ldx	#$68
    50a8: 86 05        	stx	$5                      ; 0x5 <__rc3>
    50aa: a2 04        	ldx	#$4
    50ac: 20 cc 4e     	jsr	$4ecc <mcputsxy>
    50af: a9 28        	lda	#$28
    50b1: a2 65        	ldx	#$65
    50b3: 86 04        	stx	$4                      ; 0x4 <__rc2>
    50b5: a2 6b        	ldx	#$6b
    50b7: 86 05        	stx	$5                      ; 0x5 <__rc3>
    50b9: a2 04        	ldx	#$4
    50bb: 20 cc 4e     	jsr	$4ecc <mcputsxy>
    50be: a9 df        	lda	#$df
    50c0: 25 2b        	and	$2b                     ; 0x2b <g_curTextColor>
    50c2: 85 2b        	sta	$2b                     ; 0x2b <g_curTextColor>
    50c4: a2 06        	ldx	#$6
    50c6: a4 56        	ldy	$56                     ; 0x56 <__rc31+0x35>
    50c8: 84 04        	sty	$4                      ; 0x4 <__rc2>
    50ca: a4 57        	ldy	$57                     ; 0x57 <__rc31+0x36>
    50cc: 84 05        	sty	$5                      ; 0x5 <__rc3>
    50ce: a9 0c        	lda	#$c
    50d0: 20 cc 4e     	jsr	$4ecc <mcputsxy>
    50d3: a2 07        	ldx	#$7
    50d5: a4 54        	ldy	$54                     ; 0x54 <__rc31+0x33>
    50d7: 84 04        	sty	$4                      ; 0x4 <__rc2>
    50d9: a4 55        	ldy	$55                     ; 0x55 <__rc31+0x34>
    50db: 84 05        	sty	$5                      ; 0x5 <__rc3>
    50dd: a9 0c        	lda	#$c
    50df: 20 cc 4e     	jsr	$4ecc <mcputsxy>
    50e2: a2 08        	ldx	#$8
    50e4: a4 52        	ldy	$52                     ; 0x52 <__rc31+0x31>
    50e6: 84 04        	sty	$4                      ; 0x4 <__rc2>
    50e8: a4 53        	ldy	$53                     ; 0x53 <__rc31+0x32>
    50ea: 84 05        	sty	$5                      ; 0x5 <__rc3>
    50ec: a9 0c        	lda	#$c
    50ee: 20 cc 4e     	jsr	$4ecc <mcputsxy>
    50f1: a9 20        	lda	#$20
    50f3: 05 2b        	ora	$2b                     ; 0x2b <g_curTextColor>
    50f5: 85 2b        	sta	$2b                     ; 0x2b <g_curTextColor>
    50f7: a2 0d        	ldx	#$d
    50f9: 86 04        	stx	$4                      ; 0x4 <__rc2>
    50fb: a2 6a        	ldx	#$6a
    50fd: 86 05        	stx	$5                      ; 0x5 <__rc3>
    50ff: a2 0a        	ldx	#$a
    5101: a9 0c        	lda	#$c
    5103: 20 cc 4e     	jsr	$4ecc <mcputsxy>
    5106: a9 3c        	lda	#$3c
    5108: a2 9b        	ldx	#$9b
    510a: 86 04        	stx	$4                      ; 0x4 <__rc2>
    510c: a2 6a        	ldx	#$6a
    510e: 86 05        	stx	$5                      ; 0x5 <__rc3>
    5110: a2 0a        	ldx	#$a
    5112: 20 cc 4e     	jsr	$4ecc <mcputsxy>
    5115: a9 df        	lda	#$df
    5117: 25 2b        	and	$2b                     ; 0x2b <g_curTextColor>
    5119: 85 2b        	sta	$2b                     ; 0x2b <g_curTextColor>
    511b: a6 58        	ldx	$58                     ; 0x58 <__rc31+0x37>
    511d: e0 01        	cpx	#$1
    511f: d0 1e        	bne	$513f <messagebox+0xd2>
    5121: a9 02        	lda	#$2
    5123: a2 d2        	ldx	#$d2
    5125: 86 04        	stx	$4                      ; 0x4 <__rc2>
    5127: a2 69        	ldx	#$69
    5129: 86 05        	stx	$5                      ; 0x5 <__rc3>
    512b: a2 01        	ldx	#$1
    512d: 20 cc 4e     	jsr	$4ecc <mcputsxy>
    5130: a9 3a        	lda	#$3a
    5132: a2 fa        	ldx	#$fa
    5134: 86 04        	stx	$4                      ; 0x4 <__rc2>
    5136: a2 6a        	ldx	#$6a
    5138: 86 05        	stx	$5                      ; 0x5 <__rc3>
    513a: a2 01        	ldx	#$1
    513c: 20 cc 4e     	jsr	$4ecc <mcputsxy>
    513f: 20 50 60     	jsr	$6050 <cgetc>
    5142: c9 03        	cmp	#$3
    5144: f0 0b        	beq	$5151 <messagebox+0xe4>
    5146: c9 1b        	cmp	#$1b
    5148: f0 07        	beq	$5151 <messagebox+0xe4>
    514a: c9 0d        	cmp	#$d
    514c: d0 f1        	bne	$513f <messagebox+0xd2>
    514e: a9 01        	lda	#$1
    5150: 60           	rts
    5151: a9 00        	lda	#$0
    5153: 60           	rts

00005154 <progress>:
    5154: 85 4a        	sta	$4a                     ; 0x4a <__rc31+0x29>
    5156: a6 04        	ldx	$4                      ; 0x4 <__rc2>
    5158: 86 46        	stx	$46                     ; 0x46 <__rc31+0x25>
    515a: a6 05        	ldx	$5                      ; 0x5 <__rc3>
    515c: 86 47        	stx	$47                     ; 0x47 <__rc31+0x26>
    515e: a6 06        	ldx	$6                      ; 0x6 <__rc4>
    5160: 86 48        	stx	$48                     ; 0x48 <__rc31+0x27>
    5162: a6 07        	ldx	$7                      ; 0x7 <__rc5>
    5164: 86 49        	stx	$49                     ; 0x49 <__rc31+0x28>
    5166: a2 b4        	ldx	#$b4
    5168: 86 04        	stx	$4                      ; 0x4 <__rc2>
    516a: a2 70        	ldx	#$70
    516c: 86 05        	stx	$5                      ; 0x5 <__rc3>
    516e: 20 a6 5f     	jsr	$5fa6 <fillrect>
    5171: a2 06        	ldx	#$6
    5173: a4 46        	ldy	$46                     ; 0x46 <__rc31+0x25>
    5175: 84 04        	sty	$4                      ; 0x4 <__rc2>
    5177: a4 47        	ldy	$47                     ; 0x47 <__rc31+0x26>
    5179: 84 05        	sty	$5                      ; 0x5 <__rc3>
    517b: a4 4a        	ldy	$4a                     ; 0x4a <__rc31+0x29>
    517d: 84 46        	sty	$46                     ; 0x46 <__rc31+0x25>
    517f: a9 0c        	lda	#$c
    5181: 20 cc 4e     	jsr	$4ecc <mcputsxy>
    5184: a2 07        	ldx	#$7
    5186: a4 48        	ldy	$48                     ; 0x48 <__rc31+0x27>
    5188: 84 04        	sty	$4                      ; 0x4 <__rc2>
    518a: a4 49        	ldy	$49                     ; 0x49 <__rc31+0x28>
    518c: 84 05        	sty	$5                      ; 0x5 <__rc3>
    518e: a9 0c        	lda	#$c
    5190: 20 cc 4e     	jsr	$4ecc <mcputsxy>
    5193: a2 09        	ldx	#$9
    5195: a0 a0        	ldy	#$a0
    5197: 84 04        	sty	$4                      ; 0x4 <__rc2>
    5199: a9 0c        	lda	#$c
    519b: 20 23 5e     	jsr	$5e23 <cputcxy>
    519e: a5 46        	lda	$46                     ; 0x46 <__rc31+0x25>
    51a0: 4a           	lsr
    51a1: 85 47        	sta	$47                     ; 0x47 <__rc31+0x26>
    51a3: a2 00        	ldx	#$0
    51a5: 80 14        	bra	$51bb <progress+0x67>
    51a7: 86 48        	stx	$48                     ; 0x48 <__rc31+0x27>
    51a9: a9 01        	lda	#$1
    51ab: 29 01        	and	#$1
    51ad: a2 a0        	ldx	#$a0
    51af: a8           	tay
    51b0: d0 02        	bne	$51b4 <progress+0x60>
    51b2: a2 7b        	ldx	#$7b
    51b4: 8a           	txa
    51b5: 20 1a 5e     	jsr	$5e1a <cputc>
    51b8: a6 48        	ldx	$48                     ; 0x48 <__rc31+0x27>
    51ba: e8           	inx
    51bb: e0 32        	cpx	#$32
    51bd: f0 0a        	beq	$51c9 <progress+0x75>
    51bf: e4 47        	cpx	$47                     ; 0x47 <__rc31+0x26>
    51c1: 90 e4        	bcc	$51a7 <progress+0x53>
    51c3: 86 48        	stx	$48                     ; 0x48 <__rc31+0x27>
    51c5: a9 00        	lda	#$0
    51c7: 80 e2        	bra	$51ab <progress+0x57>
    51c9: a9 65        	lda	#$65
    51cb: 20 1a 5e     	jsr	$5e1a <cputc>
    51ce: a2 b7        	ldx	#$b7
    51d0: 86 04        	stx	$4                      ; 0x4 <__rc2>
    51d2: a2 67        	ldx	#$67
    51d4: 86 05        	stx	$5                      ; 0x5 <__rc3>
    51d6: 20 0f 4e     	jsr	$4e0f <asciitoscreencode_s>
    51d9: a2 34        	ldx	#$34
    51db: 86 04        	stx	$4                      ; 0x4 <__rc2>
    51dd: a2 03        	ldx	#$3
    51df: 86 05        	stx	$5                      ; 0x5 <__rc3>
    51e1: 20 c4 5e     	jsr	$5ec4 <cputs>
    51e4: 64 06        	stz	$6                      ; 0x6 <__rc4>
    51e6: 64 04        	stz	$4                      ; 0x4 <__rc2>
    51e8: 64 05        	stz	$5                      ; 0x5 <__rc3>
    51ea: a2 00        	ldx	#$0
    51ec: a5 46        	lda	$46                     ; 0x46 <__rc31+0x25>
    51ee: 20 49 4d     	jsr	$4d49 <csputdec>
    51f1: a9 25        	lda	#$25
    51f3: 20 1a 5e     	jsr	$5e1a <cputc>
    51f6: a9 0c        	lda	#$c
    51f8: a2 eb        	ldx	#$eb
    51fa: 86 04        	stx	$4                      ; 0x4 <__rc2>
    51fc: a2 6d        	ldx	#$6d
    51fe: 86 05        	stx	$5                      ; 0x5 <__rc3>
    5200: a2 0a        	ldx	#$a
    5202: 20 cc 4e     	jsr	$4ecc <mcputsxy>
    5205: a9 3c        	lda	#$3c
    5207: a2 eb        	ldx	#$eb
    5209: 86 04        	stx	$4                      ; 0x4 <__rc2>
    520b: a2 6d        	ldx	#$6d
    520d: 86 05        	stx	$5                      ; 0x5 <__rc3>
    520f: a2 0a        	ldx	#$a
    5211: 4c cc 4e     	jmp	$4ecc <mcputsxy>

00005214 <shortcutprint>:
    5214: 85 47        	sta	$47                     ; 0x47 <__rc31+0x26>
    5216: a6 06        	ldx	$6                      ; 0x6 <__rc4>
    5218: 86 49        	stx	$49                     ; 0x49 <__rc31+0x28>
    521a: a6 07        	ldx	$7                      ; 0x7 <__rc5>
    521c: 86 4a        	stx	$4a                     ; 0x4a <__rc31+0x29>
    521e: a6 2b        	ldx	$2b                     ; 0x2b <g_curTextColor>
    5220: 86 48        	stx	$48                     ; 0x48 <__rc31+0x27>
    5222: a9 f0        	lda	#$f0
    5224: 25 2b        	and	$2b                     ; 0x2b <g_curTextColor>
    5226: 09 01        	ora	#$1
    5228: 85 2b        	sta	$2b                     ; 0x2b <g_curTextColor>
    522a: 20 be 4e     	jsr	$4ebe <msprintf>
    522d: a5 47        	lda	$47                     ; 0x47 <__rc31+0x26>
    522f: f0 04        	beq	$5235 <shortcutprint+0x21>
    5231: a2 03        	ldx	#$3
    5233: 80 02        	bra	$5237 <shortcutprint+0x23>
    5235: a2 0c        	ldx	#$c
    5237: 86 04        	stx	$4                      ; 0x4 <__rc2>
    5239: a5 48        	lda	$48                     ; 0x48 <__rc31+0x27>
    523b: 29 d0        	and	#$d0
    523d: 05 04        	ora	$4                      ; 0x4 <__rc2>
    523f: 85 47        	sta	$47                     ; 0x47 <__rc31+0x26>
    5241: 09 20        	ora	#$20
    5243: 85 2b        	sta	$2b                     ; 0x2b <g_curTextColor>
    5245: a6 49        	ldx	$49                     ; 0x49 <__rc31+0x28>
    5247: 86 04        	stx	$4                      ; 0x4 <__rc2>
    5249: a6 4a        	ldx	$4a                     ; 0x4a <__rc31+0x29>
    524b: 86 05        	stx	$5                      ; 0x5 <__rc3>
    524d: 20 be 4e     	jsr	$4ebe <msprintf>
    5250: a6 47        	ldx	$47                     ; 0x47 <__rc31+0x26>
    5252: 86 2b        	stx	$2b                     ; 0x2b <g_curTextColor>
    5254: 60           	rts

00005255 <shortcuts>:
    5255: 64 30        	stz	$30                     ; 0x30 <g_curX>
    5257: a0 18        	ldy	#$18
    5259: 84 31        	sty	$31                     ; 0x31 <g_curY>
    525b: a8           	tay
    525c: 29 14        	and	#$14
    525e: d0 03        	bne	$5263 <shortcuts+0xe>
    5260: 4c 31 53     	jmp	$5331 <shortcuts+0xdc>
    5263: a2 6c        	ldx	#$6c
    5265: 86 04        	stx	$4                      ; 0x4 <__rc2>
    5267: a2 69        	ldx	#$69
    5269: 86 05        	stx	$5                      ; 0x5 <__rc3>
    526b: a2 98        	ldx	#$98
    526d: 86 06        	stx	$6                      ; 0x6 <__rc4>
    526f: a2 6b        	ldx	#$6b
    5271: 86 07        	stx	$7                      ; 0x7 <__rc5>
    5273: a9 00        	lda	#$0
    5275: 20 14 52     	jsr	$5214 <shortcutprint>
    5278: a2 15        	ldx	#$15
    527a: 86 04        	stx	$4                      ; 0x4 <__rc2>
    527c: a2 69        	ldx	#$69
    527e: 86 05        	stx	$5                      ; 0x5 <__rc3>
    5280: a2 f7        	ldx	#$f7
    5282: 86 06        	stx	$6                      ; 0x6 <__rc4>
    5284: a2 68        	ldx	#$68
    5286: 86 07        	stx	$7                      ; 0x7 <__rc5>
    5288: a9 00        	lda	#$0
    528a: 20 14 52     	jsr	$5214 <shortcutprint>
    528d: a2 9f        	ldx	#$9f
    528f: 86 04        	stx	$4                      ; 0x4 <__rc2>
    5291: a2 6b        	ldx	#$6b
    5293: 86 05        	stx	$5                      ; 0x5 <__rc3>
    5295: a2 6f        	ldx	#$6f
    5297: 86 06        	stx	$6                      ; 0x6 <__rc4>
    5299: a2 69        	ldx	#$69
    529b: 86 07        	stx	$7                      ; 0x7 <__rc5>
    529d: a9 00        	lda	#$0
    529f: 20 14 52     	jsr	$5214 <shortcutprint>
    52a2: a2 0a        	ldx	#$a
    52a4: 86 04        	stx	$4                      ; 0x4 <__rc2>
    52a6: a2 6a        	ldx	#$6a
    52a8: 86 05        	stx	$5                      ; 0x5 <__rc3>
    52aa: a2 0f        	ldx	#$f
    52ac: 86 06        	stx	$6                      ; 0x6 <__rc4>
    52ae: a2 6b        	ldx	#$6b
    52b0: 86 07        	stx	$7                      ; 0x7 <__rc5>
    52b2: a9 00        	lda	#$0
    52b4: 20 14 52     	jsr	$5214 <shortcutprint>
    52b7: a2 b0        	ldx	#$b0
    52b9: 86 04        	stx	$4                      ; 0x4 <__rc2>
    52bb: a2 67        	ldx	#$67
    52bd: 86 05        	stx	$5                      ; 0x5 <__rc3>
    52bf: a2 a5        	ldx	#$a5
    52c1: 86 06        	stx	$6                      ; 0x6 <__rc4>
    52c3: a2 68        	ldx	#$68
    52c5: 86 07        	stx	$7                      ; 0x7 <__rc5>
    52c7: a9 00        	lda	#$0
    52c9: 20 14 52     	jsr	$5214 <shortcutprint>
    52cc: a2 c8        	ldx	#$c8
    52ce: 86 04        	stx	$4                      ; 0x4 <__rc2>
    52d0: a2 69        	ldx	#$69
    52d2: 86 05        	stx	$5                      ; 0x5 <__rc3>
    52d4: a2 f7        	ldx	#$f7
    52d6: 86 06        	stx	$6                      ; 0x6 <__rc4>
    52d8: a2 6d        	ldx	#$6d
    52da: 86 07        	stx	$7                      ; 0x7 <__rc5>
    52dc: a9 00        	lda	#$0
    52de: 20 14 52     	jsr	$5214 <shortcutprint>
    52e1: a2 f4        	ldx	#$f4
    52e3: 86 04        	stx	$4                      ; 0x4 <__rc2>
    52e5: a2 6d        	ldx	#$6d
    52e7: 86 05        	stx	$5                      ; 0x5 <__rc3>
    52e9: a2 e8        	ldx	#$e8
    52eb: 86 06        	stx	$6                      ; 0x6 <__rc4>
    52ed: a2 67        	ldx	#$67
    52ef: 86 07        	stx	$7                      ; 0x7 <__rc5>
    52f1: a9 00        	lda	#$0
    52f3: 20 14 52     	jsr	$5214 <shortcutprint>
    52f6: a2 3b        	ldx	#$3b
    52f8: 86 04        	stx	$4                      ; 0x4 <__rc2>
    52fa: a2 6f        	ldx	#$6f
    52fc: 86 05        	stx	$5                      ; 0x5 <__rc3>
    52fe: a2 81        	ldx	#$81
    5300: 86 06        	stx	$6                      ; 0x6 <__rc4>
    5302: a2 6d        	ldx	#$6d
    5304: 86 07        	stx	$7                      ; 0x7 <__rc5>
    5306: a9 00        	lda	#$0
    5308: 20 14 52     	jsr	$5214 <shortcutprint>
    530b: a2 30        	ldx	#$30
    530d: 86 04        	stx	$4                      ; 0x4 <__rc2>
    530f: a2 6c        	ldx	#$6c
    5311: 86 05        	stx	$5                      ; 0x5 <__rc3>
    5313: a2 45        	ldx	#$45
    5315: 86 06        	stx	$6                      ; 0x6 <__rc4>
    5317: a2 6e        	ldx	#$6e
    5319: 86 07        	stx	$7                      ; 0x7 <__rc5>
    531b: a9 00        	lda	#$0
    531d: 20 14 52     	jsr	$5214 <shortcutprint>
    5320: a2 b3        	ldx	#$b3
    5322: 86 04        	stx	$4                      ; 0x4 <__rc2>
    5324: a2 67        	ldx	#$67
    5326: 86 05        	stx	$5                      ; 0x5 <__rc3>
    5328: a2 33        	ldx	#$33
    532a: 86 06        	stx	$6                      ; 0x6 <__rc4>
    532c: a2 6c        	ldx	#$6c
    532e: 4c fb 54     	jmp	$54fb <shortcuts+0x2a6>
    5331: 98           	tya
    5332: 29 08        	and	#$8
    5334: f0 03        	beq	$5339 <shortcuts+0xe4>
    5336: 4c fe 53     	jmp	$53fe <shortcuts+0x1a9>
    5339: 98           	tya
    533a: 29 03        	and	#$3
    533c: d0 03        	bne	$5341 <shortcuts+0xec>
    533e: 4c 0b 55     	jmp	$550b <shortcuts+0x2b6>
    5341: a2 6c        	ldx	#$6c
    5343: 86 04        	stx	$4                      ; 0x4 <__rc2>
    5345: a2 69        	ldx	#$69
    5347: 86 05        	stx	$5                      ; 0x5 <__rc3>
    5349: a2 f7        	ldx	#$f7
    534b: 86 06        	stx	$6                      ; 0x6 <__rc4>
    534d: a2 68        	ldx	#$68
    534f: 86 07        	stx	$7                      ; 0x7 <__rc5>
    5351: a9 01        	lda	#$1
    5353: 20 14 52     	jsr	$5214 <shortcutprint>
    5356: a2 15        	ldx	#$15
    5358: 86 04        	stx	$4                      ; 0x4 <__rc2>
    535a: a2 69        	ldx	#$69
    535c: 86 05        	stx	$5                      ; 0x5 <__rc3>
    535e: a2 fe        	ldx	#$fe
    5360: 86 06        	stx	$6                      ; 0x6 <__rc4>
    5362: a2 69        	ldx	#$69
    5364: 86 07        	stx	$7                      ; 0x7 <__rc5>
    5366: a9 00        	lda	#$0
    5368: 20 14 52     	jsr	$5214 <shortcutprint>
    536b: a2 9f        	ldx	#$9f
    536d: 86 04        	stx	$4                      ; 0x4 <__rc2>
    536f: a2 6b        	ldx	#$6b
    5371: 86 05        	stx	$5                      ; 0x5 <__rc3>
    5373: a2 0f        	ldx	#$f
    5375: 86 06        	stx	$6                      ; 0x6 <__rc4>
    5377: a2 6b        	ldx	#$6b
    5379: 86 07        	stx	$7                      ; 0x7 <__rc5>
    537b: a9 00        	lda	#$0
    537d: 20 14 52     	jsr	$5214 <shortcutprint>
    5380: a2 0a        	ldx	#$a
    5382: 86 04        	stx	$4                      ; 0x4 <__rc2>
    5384: a2 6a        	ldx	#$6a
    5386: 86 05        	stx	$5                      ; 0x5 <__rc3>
    5388: a2 fe        	ldx	#$fe
    538a: 86 06        	stx	$6                      ; 0x6 <__rc4>
    538c: a2 69        	ldx	#$69
    538e: 86 07        	stx	$7                      ; 0x7 <__rc5>
    5390: a9 00        	lda	#$0
    5392: 20 14 52     	jsr	$5214 <shortcutprint>
    5395: a2 b0        	ldx	#$b0
    5397: 86 04        	stx	$4                      ; 0x4 <__rc2>
    5399: a2 67        	ldx	#$67
    539b: 86 05        	stx	$5                      ; 0x5 <__rc3>
    539d: a2 f7        	ldx	#$f7
    539f: 86 06        	stx	$6                      ; 0x6 <__rc4>
    53a1: a2 6d        	ldx	#$6d
    53a3: 86 07        	stx	$7                      ; 0x7 <__rc5>
    53a5: a9 00        	lda	#$0
    53a7: 20 14 52     	jsr	$5214 <shortcutprint>
    53aa: a2 c8        	ldx	#$c8
    53ac: 86 04        	stx	$4                      ; 0x4 <__rc2>
    53ae: a2 69        	ldx	#$69
    53b0: 86 05        	stx	$5                      ; 0x5 <__rc3>
    53b2: a2 fe        	ldx	#$fe
    53b4: 86 06        	stx	$6                      ; 0x6 <__rc4>
    53b6: a2 69        	ldx	#$69
    53b8: 86 07        	stx	$7                      ; 0x7 <__rc5>
    53ba: a9 00        	lda	#$0
    53bc: 20 14 52     	jsr	$5214 <shortcutprint>
    53bf: a2 f4        	ldx	#$f4
    53c1: 86 04        	stx	$4                      ; 0x4 <__rc2>
    53c3: a2 6d        	ldx	#$6d
    53c5: 86 05        	stx	$5                      ; 0x5 <__rc3>
    53c7: a2 81        	ldx	#$81
    53c9: 86 06        	stx	$6                      ; 0x6 <__rc4>
    53cb: a2 6d        	ldx	#$6d
    53cd: 86 07        	stx	$7                      ; 0x7 <__rc5>
    53cf: a9 01        	lda	#$1
    53d1: 20 14 52     	jsr	$5214 <shortcutprint>
    53d4: a2 3b        	ldx	#$3b
    53d6: 86 04        	stx	$4                      ; 0x4 <__rc2>
    53d8: a2 6f        	ldx	#$6f
    53da: 86 05        	stx	$5                      ; 0x5 <__rc3>
    53dc: a2 fe        	ldx	#$fe
    53de: 86 06        	stx	$6                      ; 0x6 <__rc4>
    53e0: a2 69        	ldx	#$69
    53e2: 86 07        	stx	$7                      ; 0x7 <__rc5>
    53e4: a9 00        	lda	#$0
    53e6: 20 14 52     	jsr	$5214 <shortcutprint>
    53e9: a2 30        	ldx	#$30
    53eb: 86 04        	stx	$4                      ; 0x4 <__rc2>
    53ed: a2 6c        	ldx	#$6c
    53ef: 86 05        	stx	$5                      ; 0x5 <__rc3>
    53f1: a2 45        	ldx	#$45
    53f3: 86 06        	stx	$6                      ; 0x6 <__rc4>
    53f5: a2 6f        	ldx	#$6f
    53f7: 86 07        	stx	$7                      ; 0x7 <__rc5>
    53f9: a9 01        	lda	#$1
    53fb: 4c ea 54     	jmp	$54ea <shortcuts+0x295>
    53fe: a9 01        	lda	#$1
    5400: 86 46        	stx	$46                     ; 0x46 <__rc31+0x25>
    5402: a2 6c        	ldx	#$6c
    5404: 86 04        	stx	$4                      ; 0x4 <__rc2>
    5406: a2 69        	ldx	#$69
    5408: 86 05        	stx	$5                      ; 0x5 <__rc3>
    540a: a2 58        	ldx	#$58
    540c: 86 06        	stx	$6                      ; 0x6 <__rc4>
    540e: a2 6b        	ldx	#$6b
    5410: 86 07        	stx	$7                      ; 0x7 <__rc5>
    5412: 20 14 52     	jsr	$5214 <shortcutprint>
    5415: a2 15        	ldx	#$15
    5417: 86 04        	stx	$4                      ; 0x4 <__rc2>
    5419: a2 69        	ldx	#$69
    541b: 86 05        	stx	$5                      ; 0x5 <__rc3>
    541d: a2 fe        	ldx	#$fe
    541f: 86 06        	stx	$6                      ; 0x6 <__rc4>
    5421: a2 69        	ldx	#$69
    5423: 86 07        	stx	$7                      ; 0x7 <__rc5>
    5425: a9 00        	lda	#$0
    5427: 20 14 52     	jsr	$5214 <shortcutprint>
    542a: a2 9f        	ldx	#$9f
    542c: 86 04        	stx	$4                      ; 0x4 <__rc2>
    542e: a2 6b        	ldx	#$6b
    5430: 86 05        	stx	$5                      ; 0x5 <__rc3>
    5432: a2 fe        	ldx	#$fe
    5434: 86 06        	stx	$6                      ; 0x6 <__rc4>
    5436: a2 69        	ldx	#$69
    5438: 86 07        	stx	$7                      ; 0x7 <__rc5>
    543a: a9 00        	lda	#$0
    543c: 20 14 52     	jsr	$5214 <shortcutprint>
    543f: a2 0a        	ldx	#$a
    5441: 86 04        	stx	$4                      ; 0x4 <__rc2>
    5443: a2 6a        	ldx	#$6a
    5445: 86 05        	stx	$5                      ; 0x5 <__rc3>
    5447: a2 fe        	ldx	#$fe
    5449: 86 06        	stx	$6                      ; 0x6 <__rc4>
    544b: a2 69        	ldx	#$69
    544d: 86 07        	stx	$7                      ; 0x7 <__rc5>
    544f: a9 00        	lda	#$0
    5451: 20 14 52     	jsr	$5214 <shortcutprint>
    5454: a6 46        	ldx	$46                     ; 0x46 <__rc31+0x25>
    5456: 86 04        	stx	$4                      ; 0x4 <__rc2>
    5458: 06 04        	asl	$4                      ; 0x4 <__rc2>
    545a: 64 05        	stz	$5                      ; 0x5 <__rc3>
    545c: 26 05        	rol	$5                      ; 0x5 <__rc3>
    545e: a9 27        	lda	#$27
    5460: 18           	clc
    5461: 65 04        	adc	$4                      ; 0x4 <__rc2>
    5463: 85 04        	sta	$4                      ; 0x4 <__rc2>
    5465: a9 00        	lda	#$0
    5467: 65 05        	adc	$5                      ; 0x5 <__rc3>
    5469: 85 05        	sta	$5                      ; 0x5 <__rc3>
    546b: b2 04        	lda	($4),z                  ; 0x4 <__rc2>
    546d: aa           	tax
    546e: a0 01        	ldy	#$1
    5470: b1 04        	lda	($4),y                  ; 0x4 <__rc2>
    5472: 86 04        	stx	$4                      ; 0x4 <__rc2>
    5474: 85 05        	sta	$5                      ; 0x5 <__rc3>
    5476: a0 47        	ldy	#$47
    5478: b1 04        	lda	($4),y                  ; 0x4 <__rc2>
    547a: 85 04        	sta	$4                      ; 0x4 <__rc2>
    547c: a9 01        	lda	#$1
    547e: a6 04        	ldx	$4                      ; 0x4 <__rc2>
    5480: e0 28        	cpx	#$28
    5482: f0 02        	beq	$5486 <shortcuts+0x231>
    5484: a9 00        	lda	#$0
    5486: a2 b0        	ldx	#$b0
    5488: 86 04        	stx	$4                      ; 0x4 <__rc2>
    548a: a2 67        	ldx	#$67
    548c: 86 05        	stx	$5                      ; 0x5 <__rc3>
    548e: a2 cb        	ldx	#$cb
    5490: 86 06        	stx	$6                      ; 0x6 <__rc4>
    5492: a2 69        	ldx	#$69
    5494: 86 07        	stx	$7                      ; 0x7 <__rc5>
    5496: 20 14 52     	jsr	$5214 <shortcutprint>
    5499: a2 c8        	ldx	#$c8
    549b: 86 04        	stx	$4                      ; 0x4 <__rc2>
    549d: a2 69        	ldx	#$69
    549f: 86 05        	stx	$5                      ; 0x5 <__rc3>
    54a1: a2 fe        	ldx	#$fe
    54a3: 86 06        	stx	$6                      ; 0x6 <__rc4>
    54a5: a2 69        	ldx	#$69
    54a7: 86 07        	stx	$7                      ; 0x7 <__rc5>
    54a9: a9 00        	lda	#$0
    54ab: 20 14 52     	jsr	$5214 <shortcutprint>
    54ae: a2 f4        	ldx	#$f4
    54b0: 86 04        	stx	$4                      ; 0x4 <__rc2>
    54b2: a2 6d        	ldx	#$6d
    54b4: 86 05        	stx	$5                      ; 0x5 <__rc3>
    54b6: a2 fe        	ldx	#$fe
    54b8: 86 06        	stx	$6                      ; 0x6 <__rc4>
    54ba: a2 69        	ldx	#$69
    54bc: 86 07        	stx	$7                      ; 0x7 <__rc5>
    54be: a9 00        	lda	#$0
    54c0: 20 14 52     	jsr	$5214 <shortcutprint>
    54c3: a2 3b        	ldx	#$3b
    54c5: 86 04        	stx	$4                      ; 0x4 <__rc2>
    54c7: a2 6f        	ldx	#$6f
    54c9: 86 05        	stx	$5                      ; 0x5 <__rc3>
    54cb: a2 3e        	ldx	#$3e
    54cd: 86 06        	stx	$6                      ; 0x6 <__rc4>
    54cf: a2 6f        	ldx	#$6f
    54d1: 86 07        	stx	$7                      ; 0x7 <__rc5>
    54d3: a9 00        	lda	#$0
    54d5: 20 14 52     	jsr	$5214 <shortcutprint>
    54d8: a2 30        	ldx	#$30
    54da: 86 04        	stx	$4                      ; 0x4 <__rc2>
    54dc: a2 6c        	ldx	#$6c
    54de: 86 05        	stx	$5                      ; 0x5 <__rc3>
    54e0: a2 fe        	ldx	#$fe
    54e2: 86 06        	stx	$6                      ; 0x6 <__rc4>
    54e4: a2 69        	ldx	#$69
    54e6: 86 07        	stx	$7                      ; 0x7 <__rc5>
    54e8: a9 00        	lda	#$0
    54ea: 20 14 52     	jsr	$5214 <shortcutprint>
    54ed: a2 b3        	ldx	#$b3
    54ef: 86 04        	stx	$4                      ; 0x4 <__rc2>
    54f1: a2 67        	ldx	#$67
    54f3: 86 05        	stx	$5                      ; 0x5 <__rc3>
    54f5: a2 5f        	ldx	#$5f
    54f7: 86 06        	stx	$6                      ; 0x6 <__rc4>
    54f9: a2 6b        	ldx	#$6b
    54fb: 86 07        	stx	$7                      ; 0x7 <__rc5>
    54fd: a9 00        	lda	#$0
    54ff: 20 14 52     	jsr	$5214 <shortcutprint>
    5502: a9 f0        	lda	#$f0
    5504: 25 2b        	and	$2b                     ; 0x2b <g_curTextColor>
    5506: 09 03        	ora	#$3
    5508: 85 2b        	sta	$2b                     ; 0x2b <g_curTextColor>
    550a: 60           	rts
    550b: a2 6c        	ldx	#$6c
    550d: 86 04        	stx	$4                      ; 0x4 <__rc2>
    550f: a2 69        	ldx	#$69
    5511: 86 05        	stx	$5                      ; 0x5 <__rc3>
    5513: a2 98        	ldx	#$98
    5515: 86 06        	stx	$6                      ; 0x6 <__rc4>
    5517: a2 6b        	ldx	#$6b
    5519: 86 07        	stx	$7                      ; 0x7 <__rc5>
    551b: a9 01        	lda	#$1
    551d: 20 14 52     	jsr	$5214 <shortcutprint>
    5520: a2 15        	ldx	#$15
    5522: 86 04        	stx	$4                      ; 0x4 <__rc2>
    5524: a2 69        	ldx	#$69
    5526: 86 05        	stx	$5                      ; 0x5 <__rc3>
    5528: a2 f7        	ldx	#$f7
    552a: 86 06        	stx	$6                      ; 0x6 <__rc4>
    552c: a2 68        	ldx	#$68
    552e: 86 07        	stx	$7                      ; 0x7 <__rc5>
    5530: a9 01        	lda	#$1
    5532: 20 14 52     	jsr	$5214 <shortcutprint>
    5535: a2 9f        	ldx	#$9f
    5537: 86 04        	stx	$4                      ; 0x4 <__rc2>
    5539: a2 6b        	ldx	#$6b
    553b: 86 05        	stx	$5                      ; 0x5 <__rc3>
    553d: a2 6f        	ldx	#$6f
    553f: 86 06        	stx	$6                      ; 0x6 <__rc4>
    5541: a2 69        	ldx	#$69
    5543: 86 07        	stx	$7                      ; 0x7 <__rc5>
    5545: a9 00        	lda	#$0
    5547: 20 14 52     	jsr	$5214 <shortcutprint>
    554a: a2 0a        	ldx	#$a
    554c: 86 04        	stx	$4                      ; 0x4 <__rc2>
    554e: a2 6a        	ldx	#$6a
    5550: 86 05        	stx	$5                      ; 0x5 <__rc3>
    5552: a2 0f        	ldx	#$f
    5554: 86 06        	stx	$6                      ; 0x6 <__rc4>
    5556: a2 6b        	ldx	#$6b
    5558: 86 07        	stx	$7                      ; 0x7 <__rc5>
    555a: a9 00        	lda	#$0
    555c: 20 14 52     	jsr	$5214 <shortcutprint>
    555f: a2 b0        	ldx	#$b0
    5561: 86 04        	stx	$4                      ; 0x4 <__rc2>
    5563: a2 67        	ldx	#$67
    5565: 86 05        	stx	$5                      ; 0x5 <__rc3>
    5567: a2 a5        	ldx	#$a5
    5569: 86 06        	stx	$6                      ; 0x6 <__rc4>
    556b: a2 68        	ldx	#$68
    556d: 86 07        	stx	$7                      ; 0x7 <__rc5>
    556f: a9 01        	lda	#$1
    5571: 20 14 52     	jsr	$5214 <shortcutprint>
    5574: a2 c8        	ldx	#$c8
    5576: 86 04        	stx	$4                      ; 0x4 <__rc2>
    5578: a2 69        	ldx	#$69
    557a: 86 05        	stx	$5                      ; 0x5 <__rc3>
    557c: a2 f7        	ldx	#$f7
    557e: 86 06        	stx	$6                      ; 0x6 <__rc4>
    5580: a2 6d        	ldx	#$6d
    5582: 86 07        	stx	$7                      ; 0x7 <__rc5>
    5584: a9 00        	lda	#$0
    5586: 20 14 52     	jsr	$5214 <shortcutprint>
    5589: a2 f4        	ldx	#$f4
    558b: 86 04        	stx	$4                      ; 0x4 <__rc2>
    558d: a2 6d        	ldx	#$6d
    558f: 86 05        	stx	$5                      ; 0x5 <__rc3>
    5591: a2 e8        	ldx	#$e8
    5593: 86 06        	stx	$6                      ; 0x6 <__rc4>
    5595: a2 67        	ldx	#$67
    5597: 86 07        	stx	$7                      ; 0x7 <__rc5>
    5599: a9 00        	lda	#$0
    559b: 20 14 52     	jsr	$5214 <shortcutprint>
    559e: a2 3b        	ldx	#$3b
    55a0: 86 04        	stx	$4                      ; 0x4 <__rc2>
    55a2: a2 6f        	ldx	#$6f
    55a4: 86 05        	stx	$5                      ; 0x5 <__rc3>
    55a6: a2 81        	ldx	#$81
    55a8: 86 06        	stx	$6                      ; 0x6 <__rc4>
    55aa: a2 6d        	ldx	#$6d
    55ac: 86 07        	stx	$7                      ; 0x7 <__rc5>
    55ae: a9 01        	lda	#$1
    55b0: 20 14 52     	jsr	$5214 <shortcutprint>
    55b3: a2 30        	ldx	#$30
    55b5: 86 04        	stx	$4                      ; 0x4 <__rc2>
    55b7: a2 6c        	ldx	#$6c
    55b9: 86 05        	stx	$5                      ; 0x5 <__rc3>
    55bb: a2 45        	ldx	#$45
    55bd: 86 06        	stx	$6                      ; 0x6 <__rc4>
    55bf: a2 6e        	ldx	#$6e
    55c1: 86 07        	stx	$7                      ; 0x7 <__rc5>
    55c3: a9 01        	lda	#$1
    55c5: 20 14 52     	jsr	$5214 <shortcutprint>
    55c8: a2 b3        	ldx	#$b3
    55ca: 86 04        	stx	$4                      ; 0x4 <__rc2>
    55cc: a2 67        	ldx	#$67
    55ce: 86 05        	stx	$5                      ; 0x5 <__rc3>
    55d0: a2 33        	ldx	#$33
    55d2: 86 06        	stx	$6                      ; 0x6 <__rc4>
    55d4: a2 6c        	ldx	#$6c
    55d6: 86 07        	stx	$7                      ; 0x7 <__rc5>
    55d8: a9 01        	lda	#$1
    55da: 4c ff 54     	jmp	$54ff <shortcuts+0x2aa>

000055dd <optionstring>:
    55dd: 86 08        	stx	$8                      ; 0x8 <__rc6>
    55df: a6 06        	ldx	$6                      ; 0x6 <__rc4>
    55e1: 25 08        	and	$8                      ; 0x8 <__rc6>
    55e3: f0 04        	beq	$55e9 <optionstring+0xc>
    55e5: a0 2a        	ldy	#$2a
    55e7: 80 02        	bra	$55eb <optionstring+0xe>
    55e9: a0 6f        	ldy	#$6f
    55eb: 8c 08 71     	sty	$7108                   ; 0x7108 <s>
    55ee: a0 20        	ldy	#$20
    55f0: 8c 09 71     	sty	$7109                   ; 0x7109 <s+0x1>
    55f3: a9 3e        	lda	#$3e
    55f5: e4 07        	cpx	$7                      ; 0x7 <__rc5>
    55f7: f0 02        	beq	$55fb <optionstring+0x1e>
    55f9: a9 20        	lda	#$20
    55fb: 8d 0a 71     	sta	$710a                   ; 0x710a <s+0x2>
    55fe: 8c 0b 71     	sty	$710b                   ; 0x710b <s+0x3>
    5601: a0 00        	ldy	#$0
    5603: 80 04        	bra	$5609 <optionstring+0x2c>
    5605: 99 0c 71     	sta	$710c,y                 ; 0x710c <s+0x4>
    5608: c8           	iny
    5609: b1 04        	lda	($4),y                  ; 0x4 <__rc2>
    560b: f0 04        	beq	$5611 <optionstring+0x34>
    560d: c0 28        	cpy	#$28
    560f: 90 f4        	bcc	$5605 <optionstring+0x28>
    5611: 38           	sec
    5612: a9 10        	lda	#$10
    5614: 84 04        	sty	$4                      ; 0x4 <__rc2>
    5616: e5 04        	sbc	$4                      ; 0x4 <__rc2>
    5618: 90 04        	bcc	$561e <optionstring+0x41>
    561a: 85 05        	sta	$5                      ; 0x5 <__rc3>
    561c: 80 02        	bra	$5620 <optionstring+0x43>
    561e: 64 05        	stz	$5                      ; 0x5 <__rc3>
    5620: 64 04        	stz	$4                      ; 0x4 <__rc2>
    5622: 80 13        	bra	$5637 <optionstring+0x5a>
    5624: a9 0c        	lda	#$c
    5626: 18           	clc
    5627: 65 04        	adc	$4                      ; 0x4 <__rc2>
    5629: 85 08        	sta	$8                      ; 0x8 <__rc6>
    562b: a9 71        	lda	#$71
    562d: 69 00        	adc	#$0
    562f: 85 09        	sta	$9                      ; 0x9 <__rc7>
    5631: a9 20        	lda	#$20
    5633: 91 08        	sta	($8),y                  ; 0x8 <__rc6>
    5635: e6 04        	inc	$4                      ; 0x4 <__rc2>
    5637: a5 05        	lda	$5                      ; 0x5 <__rc3>
    5639: c5 04        	cmp	$4                      ; 0x4 <__rc2>
    563b: d0 e7        	bne	$5624 <optionstring+0x47>
    563d: c0 11        	cpy	#$11
    563f: b0 02        	bcs	$5643 <optionstring+0x66>
    5641: a0 10        	ldy	#$10
    5643: 84 04        	sty	$4                      ; 0x4 <__rc2>
    5645: 98           	tya
    5646: 18           	clc
    5647: 69 04        	adc	#$4
    5649: a8           	tay
    564a: a9 20        	lda	#$20
    564c: 99 08 71     	sta	$7108,y                 ; 0x7108 <s>
    564f: 18           	clc
    5650: a5 04        	lda	$4                      ; 0x4 <__rc2>
    5652: 69 05        	adc	#$5
    5654: a8           	tay
    5655: a9 3c        	lda	#$3c
    5657: e4 07        	cpx	$7                      ; 0x7 <__rc5>
    5659: f0 02        	beq	$565d <optionstring+0x80>
    565b: a9 20        	lda	#$20
    565d: 99 08 71     	sta	$7108,y                 ; 0x7108 <s>
    5660: 18           	clc
    5661: a5 04        	lda	$4                      ; 0x4 <__rc2>
    5663: 69 06        	adc	#$6
    5665: aa           	tax
    5666: 9e 08 71     	stz	$7108,x                 ; 0x7108 <s>
    5669: a5 07        	lda	$7                      ; 0x7 <__rc5>
    566b: 18           	clc
    566c: 69 06        	adc	#$6
    566e: a2 08        	ldx	#$8
    5670: 86 04        	stx	$4                      ; 0x4 <__rc2>
    5672: a2 71        	ldx	#$71
    5674: 86 05        	stx	$5                      ; 0x5 <__rc3>
    5676: aa           	tax
    5677: a9 0c        	lda	#$c
    5679: 4c cc 4e     	jmp	$4ecc <mcputsxy>

0000567c <UpdateSectors>:
    567c: 48           	pha
    567d: 18           	clc
    567e: a5 02        	lda	$2                      ; 0x2 <__rc0>
    5680: 69 f3        	adc	#$f3
    5682: 85 02        	sta	$2                      ; 0x2 <__rc0>
    5684: a5 03        	lda	$3                      ; 0x3 <__rc1>
    5686: 69 ff        	adc	#$ff
    5688: 85 03        	sta	$3                      ; 0x3 <__rc1>
    568a: 68           	pla
    568b: a4 16        	ldy	$16                     ; 0x16 <__rc20>
    568d: 5a           	phy
    568e: a4 17        	ldy	$17                     ; 0x17 <__rc21>
    5690: 5a           	phy
    5691: a4 18        	ldy	$18                     ; 0x18 <__rc22>
    5693: 5a           	phy
    5694: a4 19        	ldy	$19                     ; 0x19 <__rc23>
    5696: 5a           	phy
    5697: 48           	pha
    5698: a5 1a        	lda	$1a                     ; 0x1a <__zp_bss_size>
    569a: a0 07        	ldy	#$7
    569c: 91 02        	sta	($2),y                  ; 0x2 <__rc0>
    569e: a5 1b        	lda	$1b                     ; 0x1b <__rc25>
    56a0: 88           	dey
    56a1: 91 02        	sta	($2),y                  ; 0x2 <__rc0>
    56a3: a5 1c        	lda	$1c                     ; 0x1c <__rc26>
    56a5: 88           	dey
    56a6: 91 02        	sta	($2),y                  ; 0x2 <__rc0>
    56a8: a5 1d        	lda	$1d                     ; 0x1d <__rc27>
    56aa: 88           	dey
    56ab: 91 02        	sta	($2),y                  ; 0x2 <__rc0>
    56ad: a5 1e        	lda	$1e                     ; 0x1e <__rc28>
    56af: 88           	dey
    56b0: 91 02        	sta	($2),y                  ; 0x2 <__rc0>
    56b2: a5 1f        	lda	$1f                     ; 0x1f <__rc29>
    56b4: 88           	dey
    56b5: 91 02        	sta	($2),y                  ; 0x2 <__rc0>
    56b7: a5 20        	lda	$20                     ; 0x20 <__rc30>
    56b9: 88           	dey
    56ba: 91 02        	sta	($2),y                  ; 0x2 <__rc0>
    56bc: a5 21        	lda	$21                     ; 0x21 <__rc31>
    56be: 88           	dey
    56bf: 91 02        	sta	($2),y                  ; 0x2 <__rc0>
    56c1: 68           	pla
    56c2: 85 16        	sta	$16                     ; 0x16 <__rc20>
    56c4: 86 1e        	stx	$1e                     ; 0x1e <__rc28>
    56c6: 64 1f        	stz	$1f                     ; 0x1f <__rc29>
    56c8: 86 17        	stx	$17                     ; 0x17 <__rc21>
    56ca: 06 17        	asl	$17                     ; 0x17 <__rc21>
    56cc: a9 01        	lda	#$1
    56ce: b0 02        	bcs	$56d2 <UpdateSectors+0x56>
    56d0: a9 00        	lda	#$0
    56d2: a0 09        	ldy	#$9
    56d4: 91 02        	sta	($2),y                  ; 0x2 <__rc0>
    56d6: 26 1f        	rol	$1f                     ; 0x1f <__rc29>
    56d8: a9 27        	lda	#$27
    56da: 18           	clc
    56db: 65 17        	adc	$17                     ; 0x17 <__rc21>
    56dd: aa           	tax
    56de: a9 00        	lda	#$0
    56e0: 65 1f        	adc	$1f                     ; 0x1f <__rc29>
    56e2: a4 17        	ldy	$17                     ; 0x17 <__rc21>
    56e4: 84 06        	sty	$6                      ; 0x6 <__rc4>
    56e6: 06 06        	asl	$6                      ; 0x6 <__rc4>
    56e8: 48           	pha
    56e9: a9 01        	lda	#$1
    56eb: b0 02        	bcs	$56ef <UpdateSectors+0x73>
    56ed: a9 00        	lda	#$0
    56ef: a0 08        	ldy	#$8
    56f1: 91 02        	sta	($2),y                  ; 0x2 <__rc0>
    56f3: 26 1f        	rol	$1f                     ; 0x1f <__rc29>
    56f5: 06 06        	asl	$6                      ; 0x6 <__rc4>
    56f7: a9 01        	lda	#$1
    56f9: b0 02        	bcs	$56fd <UpdateSectors+0x81>
    56fb: a9 00        	lda	#$0
    56fd: a0 0a        	ldy	#$a
    56ff: 91 02        	sta	($2),y                  ; 0x2 <__rc0>
    5701: 26 1f        	rol	$1f                     ; 0x1f <__rc29>
    5703: 06 06        	asl	$6                      ; 0x6 <__rc4>
    5705: a9 01        	lda	#$1
    5707: b0 02        	bcs	$570b <UpdateSectors+0x8f>
    5709: a9 00        	lda	#$0
    570b: a0 0b        	ldy	#$b
    570d: 91 02        	sta	($2),y                  ; 0x2 <__rc0>
    570f: 68           	pla
    5710: 26 1f        	rol	$1f                     ; 0x1f <__rc29>
    5712: 86 04        	stx	$4                      ; 0x4 <__rc2>
    5714: 85 05        	sta	$5                      ; 0x5 <__rc3>
    5716: a0 01        	ldy	#$1
    5718: b1 04        	lda	($4),y                  ; 0x4 <__rc2>
    571a: aa           	tax
    571b: b2 04        	lda	($4),z                  ; 0x4 <__rc2>
    571d: 85 21        	sta	$21                     ; 0x21 <__rc31>
    571f: 85 1c        	sta	$1c                     ; 0x1c <__rc26>
    5721: 86 20        	stx	$20                     ; 0x20 <__rc30>
    5723: 86 1d        	stx	$1d                     ; 0x1d <__rc27>
    5725: a0 46        	ldy	#$46
    5727: a9 01        	lda	#$1
    5729: 31 1c        	and	($1c),y                 ; 0x1c <__rc26>
    572b: 48           	pha
    572c: a5 06        	lda	$6                      ; 0x6 <__rc4>
    572e: a0 0c        	ldy	#$c
    5730: 91 02        	sta	($2),y                  ; 0x2 <__rc0>
    5732: 68           	pla
    5733: d0 03        	bne	$5738 <UpdateSectors+0xbc>
    5735: 4c bf 59     	jmp	$59bf <donegetproc6+0x25b>
    5738: a2 00        	ldx	#$0
    573a: 86 18        	stx	$18                     ; 0x18 <__rc22>
    573c: a2 16        	ldx	#$16
    573e: 86 19        	stx	$19                     ; 0x19 <__rc23>
    5740: a0 1c        	ldy	#$1c
    5742: 84 2c        	sty	$2c                     ; 0x2c <fnamehi>
    5744: 18           	clc
    5745: a5 21        	lda	$21                     ; 0x21 <__rc31>
    5747: 69 03        	adc	#$3
    5749: 85 04        	sta	$4                      ; 0x4 <__rc2>
    574b: a5 20        	lda	$20                     ; 0x20 <__rc30>
    574d: 69 00        	adc	#$0
    574f: 85 05        	sta	$5                      ; 0x5 <__rc3>
    5751: a2 00        	ldx	#$0
    5753: a9 48        	lda	#$48
    5755: 8d 40 d6     	sta	$d640                   ; 0xd640 <__heap_start+0x60e8>
    5758: b8           	clv
    5759: 90 05        	bcc	$5760 <errgetproc6>
    575b: 85 06        	sta	$6                      ; 0x6 <__rc4>
    575d: 4c 64 57     	jmp	$5764 <donegetproc6>

00005760 <errgetproc6>:
    5760: a9 ff        	lda	#$ff
    5762: 85 06        	sta	$6                      ; 0x6 <__rc4>

00005764 <donegetproc6>:
    5764: ea           	nop
    5765: a5 16        	lda	$16                     ; 0x16 <__rc20>
    5767: f0 13        	beq	$577c <donegetproc6+0x18>
    5769: a0 00        	ldy	#$0
    576b: 80 03        	bra	$5770 <donegetproc6+0xc>
    576d: 91 04        	sta	($4),y                  ; 0x4 <__rc2>
    576f: c8           	iny
    5770: b9 35 1c     	lda	$1c35,y                 ; 0x1c35 <__heap_default_limit+0xc35>
    5773: f0 18        	beq	$578d <donegetproc6+0x29>
    5775: cc 14 1c     	cpy	$1c14                   ; 0x1c14 <__heap_default_limit+0xc14>
    5778: 90 f3        	bcc	$576d <donegetproc6+0x9>
    577a: 80 11        	bra	$578d <donegetproc6+0x29>
    577c: a0 00        	ldy	#$0
    577e: 80 03        	bra	$5783 <donegetproc6+0x1f>
    5780: 91 04        	sta	($4),y                  ; 0x4 <__rc2>
    5782: c8           	iny
    5783: b9 15 1c     	lda	$1c15,y                 ; 0x1c15 <__heap_default_limit+0xc15>
    5786: f0 05        	beq	$578d <donegetproc6+0x29>
    5788: cc 13 1c     	cpy	$1c13                   ; 0x1c13 <__heap_default_limit+0xc13>
    578b: 90 f3        	bcc	$5780 <donegetproc6+0x1c>
    578d: 84 04        	sty	$4                      ; 0x4 <__rc2>
    578f: a5 21        	lda	$21                     ; 0x21 <__rc31>
    5791: 18           	clc
    5792: 65 04        	adc	$4                      ; 0x4 <__rc2>
    5794: 85 04        	sta	$4                      ; 0x4 <__rc2>
    5796: a5 20        	lda	$20                     ; 0x20 <__rc30>
    5798: 69 00        	adc	#$0
    579a: 85 05        	sta	$5                      ; 0x5 <__rc3>
    579c: a0 03        	ldy	#$3
    579e: a9 00        	lda	#$0
    57a0: 91 04        	sta	($4),y                  ; 0x4 <__rc2>
    57a2: 64 06        	stz	$6                      ; 0x6 <__rc4>
    57a4: a0 0c        	ldy	#$c
    57a6: b1 02        	lda	($2),y                  ; 0x2 <__rc0>
    57a8: 18           	clc
    57a9: 65 1e        	adc	$1e                     ; 0x1e <__rc28>
    57ab: 85 04        	sta	$4                      ; 0x4 <__rc2>
    57ad: a5 1f        	lda	$1f                     ; 0x1f <__rc29>
    57af: 69 00        	adc	#$0
    57b1: 85 05        	sta	$5                      ; 0x5 <__rc3>
    57b3: a9 38        	lda	#$38
    57b5: 18           	clc
    57b6: 65 04        	adc	$4                      ; 0x4 <__rc2>
    57b8: 85 1a        	sta	$1a                     ; 0x1a <__zp_bss_size>
    57ba: a9 72        	lda	#$72
    57bc: 65 05        	adc	$5                      ; 0x5 <__rc3>
    57be: 85 1b        	sta	$1b                     ; 0x1b <__rc25>
    57c0: a0 47        	ldy	#$47
    57c2: b1 1c        	lda	($1c),y                 ; 0x1c <__rc26>
    57c4: a2 00        	ldx	#$0
    57c6: 86 04        	stx	$4                      ; 0x4 <__rc2>
    57c8: a2 16        	ldx	#$16
    57ca: 86 05        	stx	$5                      ; 0x5 <__rc3>
    57cc: aa           	tax
    57cd: a5 16        	lda	$16                     ; 0x16 <__rc20>
    57cf: 20 d6 43     	jsr	$43d6 <GetOneSector>
    57d2: c9 02        	cmp	#$2
    57d4: b0 18        	bcs	$57ee <donegetproc6+0x8a>
    57d6: a0 00        	ldy	#$0
    57d8: 80 03        	bra	$57dd <donegetproc6+0x79>
    57da: 91 1a        	sta	($1a),y                 ; 0x1a <__zp_bss_size>
    57dc: c8           	iny
    57dd: b9 04 16     	lda	$1604,y                 ; 0x1604 <__heap_default_limit+0x604>
    57e0: c9 a0        	cmp	#$a0
    57e2: f0 04        	beq	$57e8 <donegetproc6+0x84>
    57e4: c0 10        	cpy	#$10
    57e6: 90 f2        	bcc	$57da <donegetproc6+0x76>
    57e8: a9 00        	lda	#$0
    57ea: 91 1a        	sta	($1a),y                 ; 0x1a <__zp_bss_size>
    57ec: 80 13        	bra	$5801 <donegetproc6+0x9d>
    57ee: a2 cb        	ldx	#$cb
    57f0: 86 04        	stx	$4                      ; 0x4 <__rc2>
    57f2: a2 67        	ldx	#$67
    57f4: 86 05        	stx	$5                      ; 0x5 <__rc3>
    57f6: a6 1a        	ldx	$1a                     ; 0x1a <__zp_bss_size>
    57f8: 86 06        	stx	$6                      ; 0x6 <__rc4>
    57fa: a6 1b        	ldx	$1b                     ; 0x1b <__rc25>
    57fc: 86 07        	stx	$7                      ; 0x7 <__rc5>
    57fe: 20 35 4d     	jsr	$4d35 <strcopy>
    5801: a0 47        	ldy	#$47
    5803: b1 1c        	lda	($1c),y                 ; 0x1c <__rc26>
    5805: a6 1e        	ldx	$1e                     ; 0x1e <__rc28>
    5807: f0 04        	beq	$580d <donegetproc6+0xa9>
    5809: a2 1e        	ldx	#$1e
    580b: 80 02        	bra	$580f <donegetproc6+0xab>
    580d: a2 1c        	ldx	#$1c
    580f: 64 07        	stz	$7                      ; 0x7 <__rc5>
    5811: 64 04        	stz	$4                      ; 0x4 <__rc2>
    5813: a0 08        	ldy	#$8
    5815: 84 05        	sty	$5                      ; 0x5 <__rc3>
    5817: a0 02        	ldy	#$2
    5819: 84 06        	sty	$6                      ; 0x6 <__rc4>
    581b: a4 16        	ldy	$16                     ; 0x16 <__rc20>
    581d: 84 08        	sty	$8                      ; 0x8 <__rc6>
    581f: 85 09        	sta	$9                      ; 0x9 <__rc7>
    5821: a0 01        	ldy	#$1
    5823: 84 0a        	sty	$a                      ; 0xa <__zp_data_size>
    5825: a9 00        	lda	#$0
    5827: 20 74 45     	jsr	$4574 <readblockchain>
    582a: c9 02        	cmp	#$2
    582c: 90 10        	bcc	$583e <donegetproc6+0xda>
    582e: a5 16        	lda	$16                     ; 0x16 <__rc20>
    5830: d0 03        	bne	$5835 <donegetproc6+0xd1>
    5832: 4c 81 59     	jmp	$5981 <donegetproc6+0x21d>
    5835: a2 ef        	ldx	#$ef
    5837: 86 06        	stx	$6                      ; 0x6 <__rc4>
    5839: a2 67        	ldx	#$67
    583b: 4c 87 59     	jmp	$5987 <donegetproc6+0x223>
    583e: a5 1e        	lda	$1e                     ; 0x1e <__rc28>
    5840: 20 df 44     	jsr	$44df <GetBAM>
    5843: a0 10        	ldy	#$10
    5845: 64 06        	stz	$6                      ; 0x6 <__rc4>
    5847: 64 08        	stz	$8                      ; 0x8 <__rc6>
    5849: a5 20        	lda	$20                     ; 0x20 <__rc30>
    584b: a2 00        	ldx	#$0
    584d: 4c 9a 58     	jmp	$589a <donegetproc6+0x136>
    5850: 8a           	txa
    5851: 18           	clc
    5852: 69 d8        	adc	#$d8
    5854: 5a           	phy
    5855: a0 00        	ldy	#$0
    5857: 84 18        	sty	$18                     ; 0x18 <__rc22>
    5859: a0 17        	ldy	#$17
    585b: 84 19        	sty	$19                     ; 0x19 <__rc23>
    585d: 7a           	ply
    585e: 0a           	asl
    585f: 85 04        	sta	$4                      ; 0x4 <__rc2>
    5861: a9 00        	lda	#$0
    5863: 2a           	rol
    5864: 85 05        	sta	$5                      ; 0x5 <__rc3>
    5866: a5 04        	lda	$4                      ; 0x4 <__rc2>
    5868: 0a           	asl
    5869: 85 07        	sta	$7                      ; 0x7 <__rc5>
    586b: a5 05        	lda	$5                      ; 0x5 <__rc3>
    586d: 2a           	rol
    586e: 85 09        	sta	$9                      ; 0x9 <__rc7>
    5870: a5 07        	lda	$7                      ; 0x7 <__rc5>
    5872: 18           	clc
    5873: 65 04        	adc	$4                      ; 0x4 <__rc2>
    5875: 85 04        	sta	$4                      ; 0x4 <__rc2>
    5877: a5 09        	lda	$9                      ; 0x9 <__rc7>
    5879: 65 05        	adc	$5                      ; 0x5 <__rc3>
    587b: 85 05        	sta	$5                      ; 0x5 <__rc3>
    587d: a5 04        	lda	$4                      ; 0x4 <__rc2>
    587f: 18           	clc
    5880: 65 18        	adc	$18                     ; 0x18 <__rc22>
    5882: 85 04        	sta	$4                      ; 0x4 <__rc2>
    5884: a5 05        	lda	$5                      ; 0x5 <__rc3>
    5886: 65 19        	adc	$19                     ; 0x19 <__rc23>
    5888: 85 05        	sta	$5                      ; 0x5 <__rc3>
    588a: 18           	clc
    588b: a5 06        	lda	$6                      ; 0x6 <__rc4>
    588d: 71 04        	adc	($4),y                  ; 0x4 <__rc2>
    588f: 85 06        	sta	$6                      ; 0x6 <__rc4>
    5891: a5 08        	lda	$8                      ; 0x8 <__rc6>
    5893: 69 00        	adc	#$0
    5895: 85 08        	sta	$8                      ; 0x8 <__rc6>
    5897: e8           	inx
    5898: a5 20        	lda	$20                     ; 0x20 <__rc30>
    589a: e0 50        	cpx	#$50
    589c: f0 0f        	beq	$58ad <donegetproc6+0x149>
    589e: e0 28        	cpx	#$28
    58a0: 90 03        	bcc	$58a5 <donegetproc6+0x141>
    58a2: 4c 50 58     	jmp	$5850 <donegetproc6+0xec>
    58a5: 8a           	txa
    58a6: e0 27        	cpx	#$27
    58a8: f0 ed        	beq	$5897 <donegetproc6+0x133>
    58aa: 4c 5e 58     	jmp	$585e <donegetproc6+0xfa>
    58ad: 18           	clc
    58ae: aa           	tax
    58af: a5 21        	lda	$21                     ; 0x21 <__rc31>
    58b1: 69 44        	adc	#$44
    58b3: 85 09        	sta	$9                      ; 0x9 <__rc7>
    58b5: 8a           	txa
    58b6: 69 00        	adc	#$0
    58b8: aa           	tax
    58b9: a0 44        	ldy	#$44
    58bb: a5 06        	lda	$6                      ; 0x6 <__rc4>
    58bd: 91 1c        	sta	($1c),y                 ; 0x1c <__rc26>
    58bf: a9 00        	lda	#$0
    58c1: 48           	pha
    58c2: a0 09        	ldy	#$9
    58c4: b1 02        	lda	($2),y                  ; 0x2 <__rc0>
    58c6: c9 01        	cmp	#$1
    58c8: 68           	pla
    58c9: 2a           	rol
    58ca: 64 04        	stz	$4                      ; 0x4 <__rc2>
    58cc: 26 04        	rol	$4                      ; 0x4 <__rc2>
    58ce: 85 05        	sta	$5                      ; 0x5 <__rc3>
    58d0: a4 04        	ldy	$4                      ; 0x4 <__rc2>
    58d2: 84 0b        	sty	$b                      ; 0xb <__rc9>
    58d4: 48           	pha
    58d5: a0 08        	ldy	#$8
    58d7: b1 02        	lda	($2),y                  ; 0x2 <__rc0>
    58d9: c9 01        	cmp	#$1
    58db: 68           	pla
    58dc: 2a           	rol
    58dd: a4 04        	ldy	$4                      ; 0x4 <__rc2>
    58df: 84 0a        	sty	$a                      ; 0xa <__zp_data_size>
    58e1: 26 0a        	rol	$a                      ; 0xa <__zp_data_size>
    58e3: 48           	pha
    58e4: a0 0a        	ldy	#$a
    58e6: b1 02        	lda	($2),y                  ; 0x2 <__rc0>
    58e8: c9 01        	cmp	#$1
    58ea: 68           	pla
    58eb: 2a           	rol
    58ec: 26 0a        	rol	$a                      ; 0xa <__zp_data_size>
    58ee: 48           	pha
    58ef: c8           	iny
    58f0: b1 02        	lda	($2),y                  ; 0x2 <__rc0>
    58f2: c9 01        	cmp	#$1
    58f4: 68           	pla
    58f5: 2a           	rol
    58f6: a8           	tay
    58f7: 26 0a        	rol	$a                      ; 0xa <__zp_data_size>
    58f9: 38           	sec
    58fa: 5a           	phy
    58fb: a0 0c        	ldy	#$c
    58fd: b1 02        	lda	($2),y                  ; 0x2 <__rc0>
    58ff: 7a           	ply
    5900: e5 17        	sbc	$17                     ; 0x17 <__rc21>
    5902: 85 0c        	sta	$c                      ; 0xc <__rc10>
    5904: 98           	tya
    5905: e5 05        	sbc	$5                      ; 0x5 <__rc3>
    5907: 85 04        	sta	$4                      ; 0x4 <__rc2>
    5909: a5 0a        	lda	$a                      ; 0xa <__zp_data_size>
    590b: e5 0b        	sbc	$b                      ; 0xb <__rc9>
    590d: 85 05        	sta	$5                      ; 0x5 <__rc3>
    590f: a4 09        	ldy	$9                      ; 0x9 <__rc7>
    5911: 84 06        	sty	$6                      ; 0x6 <__rc4>
    5913: 86 07        	stx	$7                      ; 0x7 <__rc5>
    5915: a0 01        	ldy	#$1
    5917: a5 08        	lda	$8                      ; 0x8 <__rc6>
    5919: 91 06        	sta	($6),y                  ; 0x6 <__rc4>
    591b: 64 17        	stz	$17                     ; 0x17 <__rc21>
    591d: a0 47        	ldy	#$47
    591f: b1 1c        	lda	($1c),y                 ; 0x1c <__rc26>
    5921: 85 09        	sta	$9                      ; 0x9 <__rc7>
    5923: a5 05        	lda	$5                      ; 0x5 <__rc3>
    5925: 09 08        	ora	#$8
    5927: a2 0e        	ldx	#$e
    5929: a0 03        	ldy	#$3
    592b: 85 05        	sta	$5                      ; 0x5 <__rc3>
    592d: 86 06        	stx	$6                      ; 0x6 <__rc4>
    592f: 64 07        	stz	$7                      ; 0x7 <__rc5>
    5931: a6 16        	ldx	$16                     ; 0x16 <__rc20>
    5933: 86 08        	stx	$8                      ; 0x8 <__rc6>
    5935: 84 0a        	sty	$a                      ; 0xa <__zp_data_size>
    5937: a6 0c        	ldx	$c                      ; 0xc <__rc10>
    5939: a9 00        	lda	#$0
    593b: 20 74 45     	jsr	$4574 <readblockchain>
    593e: c9 02        	cmp	#$2
    5940: 90 03        	bcc	$5945 <donegetproc6+0x1e1>
    5942: 4c e6 5b     	jmp	$5be6 <donehypreaddir9+0xf1>
    5945: a2 70        	ldx	#$70
    5947: a9 71        	lda	#$71
    5949: a0 00        	ldy	#$0
    594b: 84 18        	sty	$18                     ; 0x18 <__rc22>
    594d: a0 00        	ldy	#$0
    594f: 84 19        	sty	$19                     ; 0x19 <__rc23>
    5951: 86 16        	stx	$16                     ; 0x16 <__rc20>
    5953: a6 17        	ldx	$17                     ; 0x17 <__rc21>
    5955: 10 03        	bpl	$595a <donegetproc6+0x1f6>
    5957: 4c e6 5b     	jmp	$5be6 <donehypreaddir9+0xf1>
    595a: 3a           	dec
    595b: 85 1a        	sta	$1a                     ; 0x1a <__zp_bss_size>
    595d: aa           	tax
    595e: a5 1e        	lda	$1e                     ; 0x1e <__rc28>
    5960: 20 55 4c     	jsr	$4c55 <getdirententry>
    5963: a6 05        	ldx	$5                      ; 0x5 <__rc3>
    5965: a0 ff        	ldy	#$ff
    5967: c6 16        	dec	$16                     ; 0x16 <__rc20>
    5969: c4 16        	cpy	$16                     ; 0x16 <__rc20>
    596b: d0 02        	bne	$596f <donegetproc6+0x20b>
    596d: c6 17        	dec	$17                     ; 0x17 <__rc21>
    596f: e4 19        	cpx	$19                     ; 0x19 <__rc23>
    5971: f0 03        	beq	$5976 <donegetproc6+0x212>
    5973: 4c 48 5c     	jmp	$5c48 <donehypclosedir10+0x5>
    5976: a6 04        	ldx	$4                      ; 0x4 <__rc2>
    5978: a5 1a        	lda	$1a                     ; 0x1a <__zp_bss_size>
    597a: e4 18        	cpx	$18                     ; 0x18 <__rc22>
    597c: f0 d5        	beq	$5953 <donegetproc6+0x1ef>
    597e: 4c e8 5b     	jmp	$5be8 <donehypreaddir9+0xf3>
    5981: a2 64        	ldx	#$64
    5983: 86 06        	stx	$6                      ; 0x6 <__rc4>
    5985: a2 69        	ldx	#$69
    5987: 86 07        	stx	$7                      ; 0x7 <__rc5>
    5989: a9 00        	lda	#$0
    598b: a2 b9        	ldx	#$b9
    598d: 86 04        	stx	$4                      ; 0x4 <__rc2>
    598f: a2 67        	ldx	#$67
    5991: 86 05        	stx	$5                      ; 0x5 <__rc3>
    5993: a2 44        	ldx	#$44
    5995: 86 08        	stx	$8                      ; 0x8 <__rc6>
    5997: a2 67        	ldx	#$67
    5999: 86 09        	stx	$9                      ; 0x9 <__rc7>
    599b: 20 6d 50     	jsr	$506d <messagebox>
    599e: a2 cb        	ldx	#$cb
    59a0: 86 04        	stx	$4                      ; 0x4 <__rc2>
    59a2: a2 67        	ldx	#$67
    59a4: 86 05        	stx	$5                      ; 0x5 <__rc3>
    59a6: a2 38        	ldx	#$38
    59a8: 86 06        	stx	$6                      ; 0x6 <__rc4>
    59aa: a2 72        	ldx	#$72
    59ac: 86 07        	stx	$7                      ; 0x7 <__rc5>
    59ae: 20 35 4d     	jsr	$4d35 <strcopy>
    59b1: a0 46        	ldy	#$46
    59b3: a9 fe        	lda	#$fe
    59b5: 31 1c        	and	($1c),y                 ; 0x1c <__rc26>
    59b7: 91 1c        	sta	($1c),y                 ; 0x1c <__rc26>
    59b9: a0 0c        	ldy	#$c
    59bb: b1 02        	lda	($2),y                  ; 0x2 <__rc0>
    59bd: 85 06        	sta	$6                      ; 0x6 <__rc4>
    59bf: a5 06        	lda	$6                      ; 0x6 <__rc4>
    59c1: 18           	clc
    59c2: 65 1e        	adc	$1e                     ; 0x1e <__rc28>
    59c4: 85 04        	sta	$4                      ; 0x4 <__rc2>
    59c6: a5 1f        	lda	$1f                     ; 0x1f <__rc29>
    59c8: 69 00        	adc	#$0
    59ca: 85 05        	sta	$5                      ; 0x5 <__rc3>
    59cc: a9 38        	lda	#$38
    59ce: 18           	clc
    59cf: 65 04        	adc	$4                      ; 0x4 <__rc2>
    59d1: 85 06        	sta	$6                      ; 0x6 <__rc4>
    59d3: a9 72        	lda	#$72
    59d5: 65 05        	adc	$5                      ; 0x5 <__rc3>
    59d7: 85 07        	sta	$7                      ; 0x7 <__rc5>
    59d9: a2 5d        	ldx	#$5d
    59db: 86 04        	stx	$4                      ; 0x4 <__rc2>
    59dd: a2 68        	ldx	#$68
    59df: 86 05        	stx	$5                      ; 0x5 <__rc3>
    59e1: 20 35 4d     	jsr	$4d35 <strcopy>
    59e4: 18           	clc
    59e5: a5 21        	lda	$21                     ; 0x21 <__rc31>
    59e7: 69 03        	adc	#$3
    59e9: 85 06        	sta	$6                      ; 0x6 <__rc4>
    59eb: a5 20        	lda	$20                     ; 0x20 <__rc30>
    59ed: 69 00        	adc	#$0
    59ef: 85 07        	sta	$7                      ; 0x7 <__rc5>
    59f1: a2 5d        	ldx	#$5d
    59f3: 86 04        	stx	$4                      ; 0x4 <__rc2>
    59f5: a2 68        	ldx	#$68
    59f7: 86 05        	stx	$5                      ; 0x5 <__rc3>
    59f9: 20 35 4d     	jsr	$4d35 <strcopy>
    59fc: a0 44        	ldy	#$44
    59fe: 18           	clc
    59ff: a5 21        	lda	$21                     ; 0x21 <__rc31>
    5a01: 69 44        	adc	#$44
    5a03: 85 04        	sta	$4                      ; 0x4 <__rc2>
    5a05: a5 20        	lda	$20                     ; 0x20 <__rc30>
    5a07: 69 00        	adc	#$0
    5a09: 85 05        	sta	$5                      ; 0x5 <__rc3>
    5a0b: a9 ff        	lda	#$ff
    5a0d: 91 1c        	sta	($1c),y                 ; 0x1c <__rc26>
    5a0f: a0 01        	ldy	#$1
    5a11: 91 04        	sta	($4),y                  ; 0x4 <__rc2>
    5a13: a2 00        	ldx	#$0
    5a15: a9 04        	lda	#$4
    5a17: 8d 40 d6     	sta	$d640                   ; 0xd640 <__heap_start+0x60e8>
    5a1a: b8           	clv
    5a1b: 90 05        	bcc	$5a22 <errgetcurdrv7>
    5a1d: 85 04        	sta	$4                      ; 0x4 <__rc2>
    5a1f: 4c 26 5a     	jmp	$5a26 <donegetcurdrv7>

00005a22 <errgetcurdrv7>:
    5a22: a9 ff        	lda	#$ff
    5a24: 85 04        	sta	$4                      ; 0x4 <__rc2>

00005a26 <donegetcurdrv7>:
    5a26: ea           	nop
    5a27: a6 04        	ldx	$4                      ; 0x4 <__rc2>
    5a29: e0 ff        	cpx	#$ff
    5a2b: d0 03        	bne	$5a30 <donegetcurdrv7+0xa>
    5a2d: 4c e6 5b     	jmp	$5be6 <donehypreaddir9+0xf1>
    5a30: a2 00        	ldx	#$0
    5a32: a9 12        	lda	#$12
    5a34: 8d 40 d6     	sta	$d640                   ; 0xd640 <__heap_start+0x60e8>
    5a37: b8           	clv
    5a38: 90 05        	bcc	$5a3f <errhypopendir8>
    5a3a: 85 04        	sta	$4                      ; 0x4 <__rc2>
    5a3c: 4c 43 5a     	jmp	$5a43 <donehypopendir8>

00005a3f <errhypopendir8>:
    5a3f: a9 ff        	lda	#$ff
    5a41: 85 04        	sta	$4                      ; 0x4 <__rc2>

00005a43 <donehypopendir8>:
    5a43: ea           	nop
    5a44: a6 04        	ldx	$4                      ; 0x4 <__rc2>
    5a46: e0 84        	cpx	#$84
    5a48: d0 03        	bne	$5a4d <donehypopendir8+0xa>
    5a4a: 4c e6 5b     	jmp	$5be6 <donehypreaddir9+0xf1>
    5a4d: e0 87        	cpx	#$87
    5a4f: d0 03        	bne	$5a54 <donehypopendir8+0x11>
    5a51: 4c e6 5b     	jmp	$5be6 <donehypreaddir9+0xf1>
    5a54: a9 ff        	lda	#$ff
    5a56: e0 ff        	cpx	#$ff
    5a58: d0 03        	bne	$5a5d <donehypopendir8+0x1a>
    5a5a: 4c e8 5b     	jmp	$5be8 <donehypreaddir9+0xf3>
    5a5d: 86 18        	stx	$18                     ; 0x18 <__rc22>
    5a5f: 64 16        	stz	$16                     ; 0x16 <__rc20>
    5a61: a9 00        	lda	#$0
    5a63: 48           	pha
    5a64: a0 09        	ldy	#$9
    5a66: b1 02        	lda	($2),y                  ; 0x2 <__rc0>
    5a68: c9 01        	cmp	#$1
    5a6a: 68           	pla
    5a6b: 2a           	rol
    5a6c: 85 04        	sta	$4                      ; 0x4 <__rc2>
    5a6e: a9 00        	lda	#$0
    5a70: 2a           	rol
    5a71: 85 05        	sta	$5                      ; 0x5 <__rc3>
    5a73: a5 04        	lda	$4                      ; 0x4 <__rc2>
    5a75: 48           	pha
    5a76: 88           	dey
    5a77: b1 02        	lda	($2),y                  ; 0x2 <__rc0>
    5a79: c9 01        	cmp	#$1
    5a7b: 68           	pla
    5a7c: 2a           	rol
    5a7d: a6 05        	ldx	$5                      ; 0x5 <__rc3>
    5a7f: 86 08        	stx	$8                      ; 0x8 <__rc6>
    5a81: 26 08        	rol	$8                      ; 0x8 <__rc6>
    5a83: 48           	pha
    5a84: a0 0a        	ldy	#$a
    5a86: b1 02        	lda	($2),y                  ; 0x2 <__rc0>
    5a88: c9 01        	cmp	#$1
    5a8a: 68           	pla
    5a8b: 2a           	rol
    5a8c: 26 08        	rol	$8                      ; 0x8 <__rc6>
    5a8e: 48           	pha
    5a8f: c8           	iny
    5a90: b1 02        	lda	($2),y                  ; 0x2 <__rc0>
    5a92: c9 01        	cmp	#$1
    5a94: 68           	pla
    5a95: 2a           	rol
    5a96: aa           	tax
    5a97: 26 08        	rol	$8                      ; 0x8 <__rc6>
    5a99: 38           	sec
    5a9a: c8           	iny
    5a9b: b1 02        	lda	($2),y                  ; 0x2 <__rc0>
    5a9d: e5 17        	sbc	$17                     ; 0x17 <__rc21>
    5a9f: 85 17        	sta	$17                     ; 0x17 <__rc21>
    5aa1: 8a           	txa
    5aa2: e5 04        	sbc	$4                      ; 0x4 <__rc2>
    5aa4: 85 1a        	sta	$1a                     ; 0x1a <__zp_bss_size>
    5aa6: a5 08        	lda	$8                      ; 0x8 <__rc6>
    5aa8: e5 05        	sbc	$5                      ; 0x5 <__rc3>
    5aaa: 09 08        	ora	#$8
    5aac: 85 1b        	sta	$1b                     ; 0x1b <__rc25>
    5aae: a2 ff        	ldx	#$ff
    5ab0: 64 04        	stz	$4                      ; 0x4 <__rc2>
    5ab2: 64 19        	stz	$19                     ; 0x19 <__rc23>
    5ab4: a0 01        	ldy	#$1
    5ab6: 86 1e        	stx	$1e                     ; 0x1e <__rc28>
    5ab8: 8a           	txa
    5ab9: f0 02        	beq	$5abd <donehypopendir8+0x7a>
    5abb: a0 00        	ldy	#$0
    5abd: a5 19        	lda	$19                     ; 0x19 <__rc23>
    5abf: c9 70        	cmp	#$70
    5ac1: a9 01        	lda	#$1
    5ac3: b0 01        	bcs	$5ac6 <donehypopendir8+0x83>
    5ac5: 98           	tya
    5ac6: aa           	tax
    5ac7: f0 03        	beq	$5acc <donehypopendir8+0x89>
    5ac9: 4c 2f 5c     	jmp	$5c2f <donehypreaddir9+0x13a>
    5acc: a6 04        	ldx	$4                      ; 0x4 <__rc2>
    5ace: e0 85        	cpx	#$85
    5ad0: d0 03        	bne	$5ad5 <donehypopendir8+0x92>
    5ad2: 4c 2f 5c     	jmp	$5c2f <donehypreaddir9+0x13a>
    5ad5: a4 18        	ldy	$18                     ; 0x18 <__rc22>
    5ad7: da           	phx
    5ad8: a2 00        	ldx	#$0
    5ada: 8a           	txa

00005adb <hypreaddirloop9>:
    5adb: 9d 00 1a     	sta	$1a00,x                 ; 0x1a00 <__heap_default_limit+0xa00>
    5ade: ca           	dex
    5adf: d0 fa        	bne	$5adb <hypreaddirloop9>
    5ae1: fa           	plx
    5ae2: 98           	tya
    5ae3: aa           	tax
    5ae4: a0 1a        	ldy	#$1a
    5ae6: a9 14        	lda	#$14
    5ae8: 8d 40 d6     	sta	$d640                   ; 0xd640 <__heap_start+0x60e8>
    5aeb: b8           	clv
    5aec: 90 05        	bcc	$5af3 <errhypreaddir9>
    5aee: 86 04        	stx	$4                      ; 0x4 <__rc2>
    5af0: 4c f5 5a     	jmp	$5af5 <donehypreaddir9>

00005af3 <errhypreaddir9>:
    5af3: 85 04        	sta	$4                      ; 0x4 <__rc2>

00005af5 <donehypreaddir9>:
    5af5: ea           	nop
    5af6: a4 04        	ldy	$4                      ; 0x4 <__rc2>
    5af8: ae 40 1a     	ldx	$1a40                   ; 0x1a40 <__heap_default_limit+0xa40>
    5afb: 9e 00 1a     	stz	$1a00,x                 ; 0x1a00 <__heap_default_limit+0xa00>
    5afe: c0 85        	cpy	#$85
    5b00: f0 04        	beq	$5b06 <donehypreaddir9+0x11>
    5b02: c0 ff        	cpy	#$ff
    5b04: d0 10        	bne	$5b16 <donehypreaddir9+0x21>
    5b06: a2 20        	ldx	#$20
    5b08: 8e 05 1a     	stx	$1a05                   ; 0x1a05 <__heap_default_limit+0xa05>
    5b0b: 9c 06 1a     	stz	$1a06                   ; 0x1a06 <__heap_default_limit+0xa06>
    5b0e: 84 04        	sty	$4                      ; 0x4 <__rc2>
    5b10: a6 1e        	ldx	$1e                     ; 0x1e <__rc28>
    5b12: ca           	dex
    5b13: 4c b4 5a     	jmp	$5ab4 <donehypopendir8+0x71>
    5b16: a9 10        	lda	#$10
    5b18: 2d 56 1a     	and	$1a56                   ; 0x1a56 <__heap_default_limit+0xa56>
    5b1b: d0 1b        	bne	$5b38 <donehypreaddir9+0x43>
    5b1d: ae 49 1a     	ldx	$1a49                   ; 0x1a49 <__heap_default_limit+0xa49>
    5b20: e0 64        	cpx	#$64
    5b22: f0 04        	beq	$5b28 <donehypreaddir9+0x33>
    5b24: e0 44        	cpx	#$44
    5b26: d0 de        	bne	$5b06 <donehypreaddir9+0x11>
    5b28: ae 4a 1a     	ldx	$1a4a                   ; 0x1a4a <__heap_default_limit+0xa4a>
    5b2b: e0 38        	cpx	#$38
    5b2d: d0 d7        	bne	$5b06 <donehypreaddir9+0x11>
    5b2f: ae 4b 1a     	ldx	$1a4b                   ; 0x1a4b <__heap_default_limit+0xa4b>
    5b32: e0 31        	cpx	#$31
    5b34: d0 d0        	bne	$5b06 <donehypreaddir9+0x11>
    5b36: 80 0e        	bra	$5b46 <donehypreaddir9+0x51>
    5b38: ae 41 1a     	ldx	$1a41                   ; 0x1a41 <__heap_default_limit+0xa41>
    5b3b: e0 2e        	cpx	#$2e
    5b3d: d0 07        	bne	$5b46 <donehypreaddir9+0x51>
    5b3f: ae 42 1a     	ldx	$1a42                   ; 0x1a42 <__heap_default_limit+0xa42>
    5b42: e0 20        	cpx	#$20
    5b44: f0 d7        	beq	$5b1d <donehypreaddir9+0x28>
    5b46: 84 1f        	sty	$1f                     ; 0x1f <__rc29>
    5b48: 20 f3 42     	jsr	$42f3 <getsfn>
    5b4b: 20 f3 42     	jsr	$42f3 <getsfn>
    5b4e: a2 05        	ldx	#$5
    5b50: 86 04        	stx	$4                      ; 0x4 <__rc2>
    5b52: a2 1a        	ldx	#$1a
    5b54: 86 05        	stx	$5                      ; 0x5 <__rc3>
    5b56: a2 41        	ldx	#$41
    5b58: 86 06        	stx	$6                      ; 0x6 <__rc4>
    5b5a: a2 1c        	ldx	#$1c
    5b5c: 86 07        	stx	$7                      ; 0x7 <__rc5>
    5b5e: 20 93 61     	jsr	$6193 <strcpy>
    5b61: ae 4e 1a     	ldx	$1a4e                   ; 0x1a4e <__heap_default_limit+0xa4e>
    5b64: ac 50 1a     	ldy	$1a50                   ; 0x1a50 <__heap_default_limit+0xa50>
    5b67: a9 80        	lda	#$80
    5b69: 0d 51 1a     	ora	$1a51                   ; 0x1a51 <__heap_default_limit+0xa51>
    5b6c: 8d 00 1a     	sta	$1a00                   ; 0x1a00 <__heap_default_limit+0xa00>
    5b6f: 8c 01 1a     	sty	$1a01                   ; 0x1a01 <__heap_default_limit+0xa01>
    5b72: a9 80        	lda	#$80
    5b74: 0d 4f 1a     	ora	$1a4f                   ; 0x1a4f <__heap_default_limit+0xa4f>
    5b77: 8d 03 1a     	sta	$1a03                   ; 0x1a03 <__heap_default_limit+0xa03>
    5b7a: 8e 04 1a     	stx	$1a04                   ; 0x1a04 <__heap_default_limit+0xa04>
    5b7d: a9 40        	lda	#$40
    5b7f: 0d 56 1a     	ora	$1a56                   ; 0x1a56 <__heap_default_limit+0xa56>
    5b82: 8d 02 1a     	sta	$1a02                   ; 0x1a02 <__heap_default_limit+0xa02>
    5b85: ae 53 1a     	ldx	$1a53                   ; 0x1a53 <__heap_default_limit+0xa53>
    5b88: 86 04        	stx	$4                      ; 0x4 <__rc2>
    5b8a: ae 54 1a     	ldx	$1a54                   ; 0x1a54 <__heap_default_limit+0xa54>
    5b8d: 86 05        	stx	$5                      ; 0x5 <__rc3>
    5b8f: ad 55 1a     	lda	$1a55                   ; 0x1a55 <__heap_default_limit+0xa55>
    5b92: 4a           	lsr
    5b93: 66 05        	ror	$5                      ; 0x5 <__rc3>
    5b95: 66 04        	ror	$4                      ; 0x4 <__rc2>
    5b97: 4a           	lsr
    5b98: a5 05        	lda	$5                      ; 0x5 <__rc3>
    5b9a: 6a           	ror
    5b9b: 66 04        	ror	$4                      ; 0x4 <__rc2>
    5b9d: a6 04        	ldx	$4                      ; 0x4 <__rc2>
    5b9f: 8e 1e 1a     	stx	$1a1e                   ; 0x1a1e <__heap_default_limit+0xa1e>
    5ba2: 8d 1f 1a     	sta	$1a1f                   ; 0x1a1f <__heap_default_limit+0xa1f>
    5ba5: a6 19        	ldx	$19                     ; 0x19 <__rc23>
    5ba7: 86 04        	stx	$4                      ; 0x4 <__rc2>
    5ba9: 46 04        	lsr	$4                      ; 0x4 <__rc2>
    5bab: a9 00        	lda	#$0
    5bad: 6a           	ror
    5bae: 46 04        	lsr	$4                      ; 0x4 <__rc2>
    5bb0: 6a           	ror
    5bb1: 46 04        	lsr	$4                      ; 0x4 <__rc2>
    5bb3: 6a           	ror
    5bb4: 18           	clc
    5bb5: 65 16        	adc	$16                     ; 0x16 <__rc20>
    5bb7: 85 06        	sta	$6                      ; 0x6 <__rc4>
    5bb9: a5 17        	lda	$17                     ; 0x17 <__rc21>
    5bbb: 65 04        	adc	$4                      ; 0x4 <__rc2>
    5bbd: 85 07        	sta	$7                      ; 0x7 <__rc5>
    5bbf: a5 1a        	lda	$1a                     ; 0x1a <__zp_bss_size>
    5bc1: 69 00        	adc	#$0
    5bc3: 85 08        	sta	$8                      ; 0x8 <__rc6>
    5bc5: a5 1b        	lda	$1b                     ; 0x1b <__rc25>
    5bc7: 69 00        	adc	#$0
    5bc9: 9c 20 1a     	stz	$1a20                   ; 0x1a20 <__heap_default_limit+0xa20>
    5bcc: 64 04        	stz	$4                      ; 0x4 <__rc2>
    5bce: 64 05        	stz	$5                      ; 0x5 <__rc3>
    5bd0: 85 09        	sta	$9                      ; 0x9 <__rc7>
    5bd2: a2 20        	ldx	#$20
    5bd4: 86 0a        	stx	$a                      ; 0xa <__zp_data_size>
    5bd6: 64 0b        	stz	$b                      ; 0xb <__rc9>
    5bd8: a2 1a        	ldx	#$1a
    5bda: a9 00        	lda	#$0
    5bdc: 20 80 60     	jsr	$6080 <lcopy>
    5bdf: a4 1f        	ldy	$1f                     ; 0x1f <__rc29>
    5be1: e6 19        	inc	$19                     ; 0x19 <__rc23>
    5be3: 4c 0e 5b     	jmp	$5b0e <donehypreaddir9+0x19>
    5be6: a9 ff        	lda	#$ff
    5be8: a0 02        	ldy	#$2
    5bea: 91 1c        	sta	($1c),y                 ; 0x1c <__rc26>
    5bec: a0 00        	ldy	#$0
    5bee: b1 02        	lda	($2),y                  ; 0x2 <__rc0>
    5bf0: 85 21        	sta	$21                     ; 0x21 <__rc31>
    5bf2: c8           	iny
    5bf3: b1 02        	lda	($2),y                  ; 0x2 <__rc0>
    5bf5: 85 20        	sta	$20                     ; 0x20 <__rc30>
    5bf7: c8           	iny
    5bf8: b1 02        	lda	($2),y                  ; 0x2 <__rc0>
    5bfa: 85 1f        	sta	$1f                     ; 0x1f <__rc29>
    5bfc: c8           	iny
    5bfd: b1 02        	lda	($2),y                  ; 0x2 <__rc0>
    5bff: 85 1e        	sta	$1e                     ; 0x1e <__rc28>
    5c01: c8           	iny
    5c02: b1 02        	lda	($2),y                  ; 0x2 <__rc0>
    5c04: 85 1d        	sta	$1d                     ; 0x1d <__rc27>
    5c06: c8           	iny
    5c07: b1 02        	lda	($2),y                  ; 0x2 <__rc0>
    5c09: 85 1c        	sta	$1c                     ; 0x1c <__rc26>
    5c0b: c8           	iny
    5c0c: b1 02        	lda	($2),y                  ; 0x2 <__rc0>
    5c0e: 85 1b        	sta	$1b                     ; 0x1b <__rc25>
    5c10: c8           	iny
    5c11: b1 02        	lda	($2),y                  ; 0x2 <__rc0>
    5c13: 85 1a        	sta	$1a                     ; 0x1a <__zp_bss_size>
    5c15: fa           	plx
    5c16: 86 19        	stx	$19                     ; 0x19 <__rc23>
    5c18: fa           	plx
    5c19: 86 18        	stx	$18                     ; 0x18 <__rc22>
    5c1b: fa           	plx
    5c1c: 86 17        	stx	$17                     ; 0x17 <__rc21>
    5c1e: fa           	plx
    5c1f: 86 16        	stx	$16                     ; 0x16 <__rc20>
    5c21: 18           	clc
    5c22: a5 02        	lda	$2                      ; 0x2 <__rc0>
    5c24: 69 0d        	adc	#$d
    5c26: 85 02        	sta	$2                      ; 0x2 <__rc0>
    5c28: a5 03        	lda	$3                      ; 0x3 <__rc1>
    5c2a: 69 00        	adc	#$0
    5c2c: 85 03        	sta	$3                      ; 0x3 <__rc1>
    5c2e: 60           	rts
    5c2f: a4 19        	ldy	$19                     ; 0x19 <__rc23>
    5c31: 88           	dey
    5c32: a6 18        	ldx	$18                     ; 0x18 <__rc22>
    5c34: a9 16        	lda	#$16
    5c36: 8d 40 d6     	sta	$d640                   ; 0xd640 <__heap_start+0x60e8>
    5c39: b8           	clv
    5c3a: 90 05        	bcc	$5c41 <errhypclosedir10>
    5c3c: 86 04        	stx	$4                      ; 0x4 <__rc2>
    5c3e: 4c 43 5c     	jmp	$5c43 <donehypclosedir10>

00005c41 <errhypclosedir10>:
    5c41: 85 04        	sta	$4                      ; 0x4 <__rc2>

00005c43 <donehypclosedir10>:
    5c43: ea           	nop
    5c44: 98           	tya
    5c45: 4c e8 5b     	jmp	$5be8 <donehypreaddir9+0xf3>
    5c48: a5 1a        	lda	$1a                     ; 0x1a <__zp_bss_size>
    5c4a: 4c e8 5b     	jmp	$5be8 <donehypreaddir9+0xf3>

00005c4d <Deselect>:
    5c4d: 0a           	asl
    5c4e: a0 00        	ldy	#$0
    5c50: 64 04        	stz	$4                      ; 0x4 <__rc2>
    5c52: 26 04        	rol	$4                      ; 0x4 <__rc2>
    5c54: 0a           	asl
    5c55: 26 04        	rol	$4                      ; 0x4 <__rc2>
    5c57: 0a           	asl
    5c58: 26 04        	rol	$4                      ; 0x4 <__rc2>
    5c5a: 0a           	asl
    5c5b: 85 05        	sta	$5                      ; 0x5 <__rc3>
    5c5d: 26 04        	rol	$4                      ; 0x4 <__rc2>
    5c5f: 0a           	asl
    5c60: a6 04        	ldx	$4                      ; 0x4 <__rc2>
    5c62: 86 07        	stx	$7                      ; 0x7 <__rc5>
    5c64: 26 07        	rol	$7                      ; 0x7 <__rc5>
    5c66: 0a           	asl
    5c67: 26 07        	rol	$7                      ; 0x7 <__rc5>
    5c69: 0a           	asl
    5c6a: 26 07        	rol	$7                      ; 0x7 <__rc5>
    5c6c: 38           	sec
    5c6d: e5 05        	sbc	$5                      ; 0x5 <__rc3>
    5c6f: 85 05        	sta	$5                      ; 0x5 <__rc3>
    5c71: a5 07        	lda	$7                      ; 0x7 <__rc5>
    5c73: e5 04        	sbc	$4                      ; 0x4 <__rc2>
    5c75: 85 04        	sta	$4                      ; 0x4 <__rc2>
    5c77: a9 58        	lda	#$58
    5c79: 18           	clc
    5c7a: 65 05        	adc	$5                      ; 0x5 <__rc3>
    5c7c: aa           	tax
    5c7d: a9 71        	lda	#$71
    5c7f: 65 04        	adc	$4                      ; 0x4 <__rc2>
    5c81: 86 04        	stx	$4                      ; 0x4 <__rc2>
    5c83: 85 05        	sta	$5                      ; 0x5 <__rc3>
    5c85: 80 07        	bra	$5c8e <Deselect+0x41>
    5c87: a9 fe        	lda	#$fe
    5c89: 31 04        	and	($4),y                  ; 0x4 <__rc2>
    5c8b: 91 04        	sta	($4),y                  ; 0x4 <__rc2>
    5c8d: c8           	iny
    5c8e: c0 70        	cpy	#$70
    5c90: d0 f5        	bne	$5c87 <Deselect+0x3a>
    5c92: 60           	rts

00005c93 <sizeselectcurrentifnone>:
    5c93: 85 46        	sta	$46                     ; 0x46 <__rc31+0x25>
    5c95: 0a           	asl
    5c96: aa           	tax
    5c97: a9 00        	lda	#$0
    5c99: 2a           	rol
    5c9a: 85 04        	sta	$4                      ; 0x4 <__rc2>
    5c9c: 8a           	txa
    5c9d: 86 4c        	stx	$4c                     ; 0x4c <__rc31+0x2b>
    5c9f: 0a           	asl
    5ca0: a6 04        	ldx	$4                      ; 0x4 <__rc2>
    5ca2: 86 4d        	stx	$4d                     ; 0x4d <__rc31+0x2c>
    5ca4: 26 04        	rol	$4                      ; 0x4 <__rc2>
    5ca6: 0a           	asl
    5ca7: 26 04        	rol	$4                      ; 0x4 <__rc2>
    5ca9: 0a           	asl
    5caa: 85 05        	sta	$5                      ; 0x5 <__rc3>
    5cac: 26 04        	rol	$4                      ; 0x4 <__rc2>
    5cae: a6 04        	ldx	$4                      ; 0x4 <__rc2>
    5cb0: 86 06        	stx	$6                      ; 0x6 <__rc4>
    5cb2: 0a           	asl
    5cb3: a6 04        	ldx	$4                      ; 0x4 <__rc2>
    5cb5: 86 07        	stx	$7                      ; 0x7 <__rc5>
    5cb7: 26 07        	rol	$7                      ; 0x7 <__rc5>
    5cb9: 0a           	asl
    5cba: 26 07        	rol	$7                      ; 0x7 <__rc5>
    5cbc: 0a           	asl
    5cbd: 26 07        	rol	$7                      ; 0x7 <__rc5>
    5cbf: 38           	sec
    5cc0: 85 51        	sta	$51                     ; 0x51 <__rc31+0x30>
    5cc2: a6 05        	ldx	$5                      ; 0x5 <__rc3>
    5cc4: 86 4e        	stx	$4e                     ; 0x4e <__rc31+0x2d>
    5cc6: e5 05        	sbc	$5                      ; 0x5 <__rc3>
    5cc8: 85 04        	sta	$4                      ; 0x4 <__rc2>
    5cca: a6 07        	ldx	$7                      ; 0x7 <__rc5>
    5ccc: 86 50        	stx	$50                     ; 0x50 <__rc31+0x2f>
    5cce: a5 07        	lda	$7                      ; 0x7 <__rc5>
    5cd0: a6 06        	ldx	$6                      ; 0x6 <__rc4>
    5cd2: 86 4f        	stx	$4f                     ; 0x4f <__rc31+0x2e>
    5cd4: e5 06        	sbc	$6                      ; 0x6 <__rc4>
    5cd6: 85 05        	sta	$5                      ; 0x5 <__rc3>
    5cd8: a9 58        	lda	#$58
    5cda: 18           	clc
    5cdb: 65 04        	adc	$4                      ; 0x4 <__rc2>
    5cdd: 85 48        	sta	$48                     ; 0x48 <__rc31+0x27>
    5cdf: a9 71        	lda	#$71
    5ce1: 65 05        	adc	$5                      ; 0x5 <__rc3>
    5ce3: 85 49        	sta	$49                     ; 0x49 <__rc31+0x28>
    5ce5: a9 00        	lda	#$0
    5ce7: 64 4a        	stz	$4a                     ; 0x4a <__rc31+0x29>
    5ce9: aa           	tax
    5cea: a8           	tay
    5ceb: 80 03        	bra	$5cf0 <sizeselectcurrentifnone+0x5d>
    5ced: c8           	iny
    5cee: a5 47        	lda	$47                     ; 0x47 <__rc31+0x26>
    5cf0: c0 70        	cpy	#$70
    5cf2: d0 03        	bne	$5cf7 <sizeselectcurrentifnone+0x64>
    5cf4: 4c 57 5d     	jmp	$5d57 <sizeselectcurrentifnone+0xc4>
    5cf7: 85 47        	sta	$47                     ; 0x47 <__rc31+0x26>
    5cf9: a9 01        	lda	#$1
    5cfb: 31 48        	and	($48),y                 ; 0x48 <__rc31+0x27>
    5cfd: f0 ee        	beq	$5ced <sizeselectcurrentifnone+0x5a>
    5cff: 5a           	phy
    5d00: fa           	plx
    5d01: a5 46        	lda	$46                     ; 0x46 <__rc31+0x25>
    5d03: 84 4b        	sty	$4b                     ; 0x4b <__rc31+0x2a>
    5d05: 20 55 4c     	jsr	$4c55 <getdirententry>
    5d08: a5 04        	lda	$4                      ; 0x4 <__rc2>
    5d0a: 18           	clc
    5d0b: 69 1e        	adc	#$1e
    5d0d: 85 06        	sta	$6                      ; 0x6 <__rc4>
    5d0f: a5 05        	lda	$5                      ; 0x5 <__rc3>
    5d11: 69 00        	adc	#$0
    5d13: 85 07        	sta	$7                      ; 0x7 <__rc5>
    5d15: 18           	clc
    5d16: a5 47        	lda	$47                     ; 0x47 <__rc31+0x26>
    5d18: a0 1e        	ldy	#$1e
    5d1a: 71 04        	adc	($4),y                  ; 0x4 <__rc2>
    5d1c: 85 47        	sta	$47                     ; 0x47 <__rc31+0x26>
    5d1e: a5 4a        	lda	$4a                     ; 0x4a <__rc31+0x29>
    5d20: a0 01        	ldy	#$1
    5d22: 71 06        	adc	($6),y                  ; 0x6 <__rc4>
    5d24: 85 4a        	sta	$4a                     ; 0x4a <__rc31+0x29>
    5d26: a9 0f        	lda	#$f
    5d28: c8           	iny
    5d29: 31 04        	and	($4),y                  ; 0x4 <__rc2>
    5d2b: a4 4b        	ldy	$4b                     ; 0x4b <__rc31+0x2a>
    5d2d: a2 01        	ldx	#$1
    5d2f: c9 05        	cmp	#$5
    5d31: f0 03        	beq	$5d36 <sizeselectcurrentifnone+0xa3>
    5d33: 4c ed 5c     	jmp	$5ced <sizeselectcurrentifnone+0x5a>
    5d36: a9 00        	lda	#$0
    5d38: a2 81        	ldx	#$81
    5d3a: 86 04        	stx	$4                      ; 0x4 <__rc2>
    5d3c: a2 6b        	ldx	#$6b
    5d3e: 86 05        	stx	$5                      ; 0x5 <__rc3>
    5d40: a2 4c        	ldx	#$4c
    5d42: 86 06        	stx	$6                      ; 0x6 <__rc4>
    5d44: a2 6f        	ldx	#$6f
    5d46: 86 07        	stx	$7                      ; 0x7 <__rc5>
    5d48: a2 b7        	ldx	#$b7
    5d4a: 86 08        	stx	$8                      ; 0x8 <__rc6>
    5d4c: a2 67        	ldx	#$67
    5d4e: 86 09        	stx	$9                      ; 0x9 <__rc7>
    5d50: 20 6d 50     	jsr	$506d <messagebox>
    5d53: a9 ff        	lda	#$ff
    5d55: aa           	tax
    5d56: 60           	rts
    5d57: e0 00        	cpx	#$0
    5d59: f0 03        	beq	$5d5e <sizeselectcurrentifnone+0xcb>
    5d5b: a6 4a        	ldx	$4a                     ; 0x4a <__rc31+0x29>
    5d5d: 60           	rts
    5d5e: 85 49        	sta	$49                     ; 0x49 <__rc31+0x28>
    5d60: a9 27        	lda	#$27
    5d62: a6 4c        	ldx	$4c                     ; 0x4c <__rc31+0x2b>
    5d64: 86 04        	stx	$4                      ; 0x4 <__rc2>
    5d66: 18           	clc
    5d67: 65 04        	adc	$4                      ; 0x4 <__rc2>
    5d69: a8           	tay
    5d6a: a6 4d        	ldx	$4d                     ; 0x4d <__rc31+0x2c>
    5d6c: 86 04        	stx	$4                      ; 0x4 <__rc2>
    5d6e: a9 00        	lda	#$0
    5d70: 65 04        	adc	$4                      ; 0x4 <__rc2>
    5d72: 84 04        	sty	$4                      ; 0x4 <__rc2>
    5d74: 85 05        	sta	$5                      ; 0x5 <__rc3>
    5d76: b2 04        	lda	($4),z                  ; 0x4 <__rc2>
    5d78: aa           	tax
    5d79: a0 01        	ldy	#$1
    5d7b: b1 04        	lda	($4),y                  ; 0x4 <__rc2>
    5d7d: 86 04        	stx	$4                      ; 0x4 <__rc2>
    5d7f: 85 05        	sta	$5                      ; 0x5 <__rc3>
    5d81: 38           	sec
    5d82: a6 4e        	ldx	$4e                     ; 0x4e <__rc31+0x2d>
    5d84: 86 06        	stx	$6                      ; 0x6 <__rc4>
    5d86: a5 51        	lda	$51                     ; 0x51 <__rc31+0x30>
    5d88: e5 06        	sbc	$6                      ; 0x6 <__rc4>
    5d8a: 85 06        	sta	$6                      ; 0x6 <__rc4>
    5d8c: a6 4f        	ldx	$4f                     ; 0x4f <__rc31+0x2e>
    5d8e: 86 07        	stx	$7                      ; 0x7 <__rc5>
    5d90: a5 50        	lda	$50                     ; 0x50 <__rc31+0x2f>
    5d92: e5 07        	sbc	$7                      ; 0x7 <__rc5>
    5d94: 85 07        	sta	$7                      ; 0x7 <__rc5>
    5d96: a9 58        	lda	#$58
    5d98: 18           	clc
    5d99: 65 06        	adc	$6                      ; 0x6 <__rc4>
    5d9b: 85 06        	sta	$6                      ; 0x6 <__rc4>
    5d9d: a9 71        	lda	#$71
    5d9f: 65 07        	adc	$7                      ; 0x7 <__rc5>
    5da1: 85 07        	sta	$7                      ; 0x7 <__rc5>
    5da3: b1 04        	lda	($4),y                  ; 0x4 <__rc2>
    5da5: a8           	tay
    5da6: a9 01        	lda	#$1
    5da8: 11 06        	ora	($6),y                  ; 0x6 <__rc4>
    5daa: 91 06        	sta	($6),y                  ; 0x6 <__rc4>
    5dac: 5a           	phy
    5dad: fa           	plx
    5dae: a5 46        	lda	$46                     ; 0x46 <__rc31+0x25>
    5db0: 20 55 4c     	jsr	$4c55 <getdirententry>
    5db3: a5 04        	lda	$4                      ; 0x4 <__rc2>
    5db5: 18           	clc
    5db6: 69 1e        	adc	#$1e
    5db8: 85 06        	sta	$6                      ; 0x6 <__rc4>
    5dba: a5 05        	lda	$5                      ; 0x5 <__rc3>
    5dbc: 69 00        	adc	#$0
    5dbe: 85 07        	sta	$7                      ; 0x7 <__rc5>
    5dc0: a5 49        	lda	$49                     ; 0x49 <__rc31+0x28>
    5dc2: a0 1e        	ldy	#$1e
    5dc4: 18           	clc
    5dc5: 71 04        	adc	($4),y                  ; 0x4 <__rc2>
    5dc7: 85 04        	sta	$4                      ; 0x4 <__rc2>
    5dc9: a5 4a        	lda	$4a                     ; 0x4a <__rc31+0x29>
    5dcb: a0 01        	ldy	#$1
    5dcd: 71 06        	adc	($6),y                  ; 0x6 <__rc4>
    5dcf: aa           	tax
    5dd0: a5 04        	lda	$4                      ; 0x4 <__rc2>
    5dd2: 60           	rts

00005dd3 <sidbong>:
    5dd3: a2 1f        	ldx	#$1f
    5dd5: 8e 02 d4     	stx	$d402                   ; 0xd402 <__heap_start+0x5eaa>
    5dd8: 64 05        	stz	$5                      ; 0x5 <__rc3>
    5dda: 9c 03 d4     	stz	$d403                   ; 0xd403 <__heap_start+0x5eab>
    5ddd: a9 09        	lda	#$9
    5ddf: 8d 05 d4     	sta	$d405                   ; 0xd405 <__heap_start+0x5ead>
    5de2: a0 25        	ldy	#$25
    5de4: 8c 00 d4     	sty	$d400                   ; 0xd400 <__heap_start+0x5ea8>
    5de7: a0 11        	ldy	#$11
    5de9: 8c 01 d4     	sty	$d401                   ; 0xd401 <__heap_start+0x5ea9>
    5dec: 8c 04 d4     	sty	$d404                   ; 0xd404 <__heap_start+0x5eac>
    5def: 8e 42 d4     	stx	$d442                   ; 0xd442 <__heap_start+0x5eea>
    5df2: 9c 43 d4     	stz	$d443                   ; 0xd443 <__heap_start+0x5eeb>
    5df5: 8d 45 d4     	sta	$d445                   ; 0xd445 <__heap_start+0x5eed>
    5df8: a2 9a        	ldx	#$9a
    5dfa: 8e 40 d4     	stx	$d440                   ; 0xd440 <__heap_start+0x5ee8>
    5dfd: a2 15        	ldx	#$15
    5dff: 8e 41 d4     	stx	$d441                   ; 0xd441 <__heap_start+0x5ee9>
    5e02: 8c 44 d4     	sty	$d444                   ; 0xd444 <__heap_start+0x5eec>
    5e05: a9 40        	lda	#$40
    5e07: a2 0d        	ldx	#$d
    5e09: a0 03        	ldy	#$3
    5e0b: 84 04        	sty	$4                      ; 0x4 <__rc2>
    5e0d: 20 37 61     	jsr	$6137 <usleep>
    5e10: a2 10        	ldx	#$10
    5e12: 8e 04 d4     	stx	$d404                   ; 0xd404 <__heap_start+0x5eac>
    5e15: 8e 44 d4     	stx	$d444                   ; 0xd444 <__heap_start+0x5eec>
    5e18: 60           	rts

00005e19 <escNOP>:
    5e19: 60           	rts

00005e1a <cputc>:
    5e1a: 85 04        	sta	$4                      ; 0x4 <__rc2>
    5e1c: a5 30        	lda	$30                     ; 0x30 <g_curX>
    5e1e: a6 31        	ldx	$31                     ; 0x31 <g_curY>
    5e20: 4c 23 5e     	jmp	$5e23 <cputcxy>

00005e23 <cputcxy>:
    5e23: 85 6a        	sta	$6a                     ; 0x6a <__rc31+0x49>
    5e25: a4 04        	ldy	$4                      ; 0x4 <__rc2>
    5e27: 84 6b        	sty	$6b                     ; 0x6b <__rc31+0x4a>
    5e29: a5 2e        	lda	$2e                     ; 0x2e <g_curScreenW>
    5e2b: 86 69        	stx	$69                     ; 0x69 <__rc31+0x48>
    5e2d: 86 04        	stx	$4                      ; 0x4 <__rc2>
    5e2f: 64 05        	stz	$5                      ; 0x5 <__rc3>
    5e31: a2 00        	ldx	#$0
    5e33: 64 67        	stz	$67                     ; 0x67 <__rc31+0x46>
    5e35: 20 2b 62     	jsr	$622b <__mulhi3>
    5e38: 18           	clc
    5e39: 65 6a        	adc	$6a                     ; 0x6a <__rc31+0x49>
    5e3b: 85 68        	sta	$68                     ; 0x68 <__rc31+0x47>
    5e3d: 8a           	txa
    5e3e: 69 00        	adc	#$0
    5e40: 85 66        	sta	$66                     ; 0x66 <__rc31+0x45>
    5e42: ad 63 d0     	lda	$d063                   ; 0xd063 <__heap_start+0x5b0b>
    5e45: 29 07        	and	#$7
    5e47: a8           	tay
    5e48: ae 62 d0     	ldx	$d062                   ; 0xd062 <__heap_start+0x5b0a>
    5e4b: 86 06        	stx	$6                      ; 0x6 <__rc4>
    5e4d: ae 61 d0     	ldx	$d061                   ; 0xd061 <__heap_start+0x5b09>
    5e50: 86 04        	stx	$4                      ; 0x4 <__rc2>
    5e52: ae 60 d0     	ldx	$d060                   ; 0xd060 <__heap_start+0x5b08>
    5e55: 86 05        	stx	$5                      ; 0x5 <__rc3>
    5e57: a5 68        	lda	$68                     ; 0x68 <__rc31+0x47>
    5e59: 18           	clc
    5e5a: 69 00        	adc	#$0
    5e5c: aa           	tax
    5e5d: a5 66        	lda	$66                     ; 0x66 <__rc31+0x45>
    5e5f: 65 04        	adc	$4                      ; 0x4 <__rc2>
    5e61: 85 07        	sta	$7                      ; 0x7 <__rc5>
    5e63: a5 06        	lda	$6                      ; 0x6 <__rc4>
    5e65: 69 00        	adc	#$0
    5e67: 85 04        	sta	$4                      ; 0x4 <__rc2>
    5e69: 98           	tya
    5e6a: 69 00        	adc	#$0
    5e6c: 85 06        	sta	$6                      ; 0x6 <__rc4>
    5e6e: 8a           	txa
    5e6f: 18           	clc
    5e70: 65 05        	adc	$5                      ; 0x5 <__rc3>
    5e72: a8           	tay
    5e73: a5 07        	lda	$7                      ; 0x7 <__rc5>
    5e75: 69 00        	adc	#$0
    5e77: 85 07        	sta	$7                      ; 0x7 <__rc5>
    5e79: a5 04        	lda	$4                      ; 0x4 <__rc2>
    5e7b: 69 00        	adc	#$0
    5e7d: 85 04        	sta	$4                      ; 0x4 <__rc2>
    5e7f: a5 06        	lda	$6                      ; 0x6 <__rc4>
    5e81: 69 00        	adc	#$0
    5e83: 85 05        	sta	$5                      ; 0x5 <__rc3>
    5e85: a6 6b        	ldx	$6b                     ; 0x6b <__rc31+0x4a>
    5e87: 86 06        	stx	$6                      ; 0x6 <__rc4>
    5e89: a6 07        	ldx	$7                      ; 0x7 <__rc5>
    5e8b: 98           	tya
    5e8c: 20 90 20     	jsr	$2090 <lpoke>
    5e8f: a6 2b        	ldx	$2b                     ; 0x2b <g_curTextColor>
    5e91: a0 f8        	ldy	#$f8
    5e93: a9 0f        	lda	#$f
    5e95: 84 04        	sty	$4                      ; 0x4 <__rc2>
    5e97: 85 05        	sta	$5                      ; 0x5 <__rc3>
    5e99: 86 06        	stx	$6                      ; 0x6 <__rc4>
    5e9b: a6 66        	ldx	$66                     ; 0x66 <__rc31+0x45>
    5e9d: a5 68        	lda	$68                     ; 0x68 <__rc31+0x47>
    5e9f: 20 90 20     	jsr	$2090 <lpoke>
    5ea2: a6 2e        	ldx	$2e                     ; 0x2e <g_curScreenW>
    5ea4: ca           	dex
    5ea5: e0 ff        	cpx	#$ff
    5ea7: d0 02        	bne	$5eab <cputcxy+0x88>
    5ea9: c6 67        	dec	$67                     ; 0x67 <__rc31+0x46>
    5eab: a5 67        	lda	$67                     ; 0x67 <__rc31+0x46>
    5ead: d0 0b        	bne	$5eba <cputcxy+0x97>
    5eaf: e4 6a        	cpx	$6a                     ; 0x6a <__rc31+0x49>
    5eb1: d0 07        	bne	$5eba <cputcxy+0x97>
    5eb3: a4 69        	ldy	$69                     ; 0x69 <__rc31+0x48>
    5eb5: c8           	iny
    5eb6: a2 00        	ldx	#$0
    5eb8: 80 05        	bra	$5ebf <cputcxy+0x9c>
    5eba: a4 69        	ldy	$69                     ; 0x69 <__rc31+0x48>
    5ebc: a6 6a        	ldx	$6a                     ; 0x6a <__rc31+0x49>
    5ebe: e8           	inx
    5ebf: 86 30        	stx	$30                     ; 0x30 <g_curX>
    5ec1: 84 31        	sty	$31                     ; 0x31 <g_curY>
    5ec3: 60           	rts

00005ec4 <cputs>:
    5ec4: a5 30        	lda	$30                     ; 0x30 <g_curX>
    5ec6: a6 31        	ldx	$31                     ; 0x31 <g_curY>
    5ec8: 4c cb 5e     	jmp	$5ecb <cputsxy>

00005ecb <cputsxy>:
    5ecb: 85 69        	sta	$69                     ; 0x69 <__rc31+0x48>
    5ecd: 86 68        	stx	$68                     ; 0x68 <__rc31+0x47>
    5ecf: a6 04        	ldx	$4                      ; 0x4 <__rc2>
    5ed1: 86 06        	stx	$6                      ; 0x6 <__rc4>
    5ed3: a6 05        	ldx	$5                      ; 0x5 <__rc3>
    5ed5: 86 07        	stx	$7                      ; 0x7 <__rc5>
    5ed7: a6 06        	ldx	$6                      ; 0x6 <__rc4>
    5ed9: 86 66        	stx	$66                     ; 0x66 <__rc31+0x45>
    5edb: a6 07        	ldx	$7                      ; 0x7 <__rc5>
    5edd: 86 67        	stx	$67                     ; 0x67 <__rc31+0x46>
    5edf: 20 d1 61     	jsr	$61d1 <strlen>
    5ee2: 85 65        	sta	$65                     ; 0x65 <__rc31+0x44>
    5ee4: a5 2e        	lda	$2e                     ; 0x2e <g_curScreenW>
    5ee6: a6 68        	ldx	$68                     ; 0x68 <__rc31+0x47>
    5ee8: 86 04        	stx	$4                      ; 0x4 <__rc2>
    5eea: 64 05        	stz	$5                      ; 0x5 <__rc3>
    5eec: a2 00        	ldx	#$0
    5eee: 20 2b 62     	jsr	$622b <__mulhi3>
    5ef1: 86 05        	stx	$5                      ; 0x5 <__rc3>
    5ef3: a6 69        	ldx	$69                     ; 0x69 <__rc31+0x48>
    5ef5: 86 04        	stx	$4                      ; 0x4 <__rc2>
    5ef7: 18           	clc
    5ef8: 65 04        	adc	$4                      ; 0x4 <__rc2>
    5efa: a8           	tay
    5efb: 85 6b        	sta	$6b                     ; 0x6b <__rc31+0x4a>
    5efd: a5 05        	lda	$5                      ; 0x5 <__rc3>
    5eff: 69 00        	adc	#$0
    5f01: 85 6a        	sta	$6a                     ; 0x6a <__rc31+0x49>
    5f03: ad 63 d0     	lda	$d063                   ; 0xd063 <__heap_start+0x5b0b>
    5f06: 29 07        	and	#$7
    5f08: 85 08        	sta	$8                      ; 0x8 <__rc6>
    5f0a: ae 62 d0     	ldx	$d062                   ; 0xd062 <__heap_start+0x5b0a>
    5f0d: 86 07        	stx	$7                      ; 0x7 <__rc5>
    5f0f: ae 61 d0     	ldx	$d061                   ; 0xd061 <__heap_start+0x5b09>
    5f12: 86 04        	stx	$4                      ; 0x4 <__rc2>
    5f14: ae 60 d0     	ldx	$d060                   ; 0xd060 <__heap_start+0x5b08>
    5f17: 86 05        	stx	$5                      ; 0x5 <__rc3>
    5f19: 18           	clc
    5f1a: 98           	tya
    5f1b: 69 00        	adc	#$0
    5f1d: a8           	tay
    5f1e: a6 6a        	ldx	$6a                     ; 0x6a <__rc31+0x49>
    5f20: 8a           	txa
    5f21: 65 04        	adc	$4                      ; 0x4 <__rc2>
    5f23: 85 09        	sta	$9                      ; 0x9 <__rc7>
    5f25: a5 07        	lda	$7                      ; 0x7 <__rc5>
    5f27: 69 00        	adc	#$0
    5f29: 85 04        	sta	$4                      ; 0x4 <__rc2>
    5f2b: a5 08        	lda	$8                      ; 0x8 <__rc6>
    5f2d: 69 00        	adc	#$0
    5f2f: aa           	tax
    5f30: 18           	clc
    5f31: 98           	tya
    5f32: 65 05        	adc	$5                      ; 0x5 <__rc3>
    5f34: 85 06        	sta	$6                      ; 0x6 <__rc4>
    5f36: a5 09        	lda	$9                      ; 0x9 <__rc7>
    5f38: 69 00        	adc	#$0
    5f3a: 85 07        	sta	$7                      ; 0x7 <__rc5>
    5f3c: a5 04        	lda	$4                      ; 0x4 <__rc2>
    5f3e: 69 00        	adc	#$0
    5f40: 85 08        	sta	$8                      ; 0x8 <__rc6>
    5f42: 8a           	txa
    5f43: 69 00        	adc	#$0
    5f45: 64 04        	stz	$4                      ; 0x4 <__rc2>
    5f47: 64 05        	stz	$5                      ; 0x5 <__rc3>
    5f49: 85 09        	sta	$9                      ; 0x9 <__rc7>
    5f4b: a6 65        	ldx	$65                     ; 0x65 <__rc31+0x44>
    5f4d: 86 0a        	stx	$a                      ; 0xa <__zp_data_size>
    5f4f: 64 0b        	stz	$b                      ; 0xb <__rc9>
    5f51: a6 66        	ldx	$66                     ; 0x66 <__rc31+0x45>
    5f53: 86 0c        	stx	$c                      ; 0xc <__rc10>
    5f55: a6 67        	ldx	$67                     ; 0x67 <__rc31+0x46>
    5f57: a5 0c        	lda	$c                      ; 0xc <__rc10>
    5f59: 20 80 60     	jsr	$6080 <lcopy>
    5f5c: a6 2b        	ldx	$2b                     ; 0x2b <g_curTextColor>
    5f5e: a0 f8        	ldy	#$f8
    5f60: a9 0f        	lda	#$f
    5f62: 84 04        	sty	$4                      ; 0x4 <__rc2>
    5f64: 85 05        	sta	$5                      ; 0x5 <__rc3>
    5f66: 86 06        	stx	$6                      ; 0x6 <__rc4>
    5f68: a6 65        	ldx	$65                     ; 0x65 <__rc31+0x44>
    5f6a: 86 07        	stx	$7                      ; 0x7 <__rc5>
    5f6c: 64 08        	stz	$8                      ; 0x8 <__rc6>
    5f6e: a6 6a        	ldx	$6a                     ; 0x6a <__rc31+0x49>
    5f70: a5 6b        	lda	$6b                     ; 0x6b <__rc31+0x4a>
    5f72: 20 e7 60     	jsr	$60e7 <lfill>
    5f75: a5 65        	lda	$65                     ; 0x65 <__rc31+0x44>
    5f77: a6 69        	ldx	$69                     ; 0x69 <__rc31+0x48>
    5f79: 86 04        	stx	$4                      ; 0x4 <__rc2>
    5f7b: 18           	clc
    5f7c: 65 04        	adc	$4                      ; 0x4 <__rc2>
    5f7e: 85 08        	sta	$8                      ; 0x8 <__rc6>
    5f80: a9 00        	lda	#$0
    5f82: 69 00        	adc	#$0
    5f84: a6 2e        	ldx	$2e                     ; 0x2e <g_curScreenW>
    5f86: a0 63        	ldy	#$63
    5f88: 84 06        	sty	$6                      ; 0x6 <__rc4>
    5f8a: a0 00        	ldy	#$0
    5f8c: 84 07        	sty	$7                      ; 0x7 <__rc5>
    5f8e: 86 04        	stx	$4                      ; 0x4 <__rc2>
    5f90: 64 05        	stz	$5                      ; 0x5 <__rc3>
    5f92: aa           	tax
    5f93: a5 08        	lda	$8                      ; 0x8 <__rc6>
    5f95: 20 d3 63     	jsr	$63d3 <__udivmodhi4>
    5f98: a6 63        	ldx	$63                     ; 0x63 <__rc31+0x42>
    5f9a: 18           	clc
    5f9b: a4 68        	ldy	$68                     ; 0x68 <__rc31+0x47>
    5f9d: 84 04        	sty	$4                      ; 0x4 <__rc2>
    5f9f: 65 04        	adc	$4                      ; 0x4 <__rc2>
    5fa1: 85 31        	sta	$31                     ; 0x31 <g_curY>
    5fa3: 86 30        	stx	$30                     ; 0x30 <g_curX>
    5fa5: 60           	rts

00005fa6 <fillrect>:
    5fa6: a6 04        	ldx	$4                      ; 0x4 <__rc2>
    5fa8: 86 66        	stx	$66                     ; 0x66 <__rc31+0x45>
    5faa: a6 05        	ldx	$5                      ; 0x5 <__rc3>
    5fac: 86 67        	stx	$67                     ; 0x67 <__rc31+0x46>
    5fae: a0 02        	ldy	#$2
    5fb0: b1 04        	lda	($4),y                  ; 0x4 <__rc2>
    5fb2: 38           	sec
    5fb3: f2 04        	sbc	($4),z                  ; 0x4 <__rc2>
    5fb5: 85 69        	sta	$69                     ; 0x69 <__rc31+0x48>
    5fb7: 88           	dey
    5fb8: b1 04        	lda	($4),y                  ; 0x4 <__rc2>
    5fba: 85 68        	sta	$68                     ; 0x68 <__rc31+0x47>
    5fbc: 4c 44 60     	jmp	$6044 <fillrect+0x9e>
    5fbf: a5 2e        	lda	$2e                     ; 0x2e <g_curScreenW>
    5fc1: a6 68        	ldx	$68                     ; 0x68 <__rc31+0x47>
    5fc3: 86 04        	stx	$4                      ; 0x4 <__rc2>
    5fc5: 64 05        	stz	$5                      ; 0x5 <__rc3>
    5fc7: a2 00        	ldx	#$0
    5fc9: 20 2b 62     	jsr	$622b <__mulhi3>
    5fcc: 18           	clc
    5fcd: 72 66        	adc	($66),z                 ; 0x66 <__rc31+0x45>
    5fcf: 85 6a        	sta	$6a                     ; 0x6a <__rc31+0x49>
    5fd1: 8a           	txa
    5fd2: 69 00        	adc	#$0
    5fd4: 85 6b        	sta	$6b                     ; 0x6b <__rc31+0x4a>
    5fd6: ad 63 d0     	lda	$d063                   ; 0xd063 <__heap_start+0x5b0b>
    5fd9: 29 07        	and	#$7
    5fdb: a8           	tay
    5fdc: ae 62 d0     	ldx	$d062                   ; 0xd062 <__heap_start+0x5b0a>
    5fdf: 86 07        	stx	$7                      ; 0x7 <__rc5>
    5fe1: ae 61 d0     	ldx	$d061                   ; 0xd061 <__heap_start+0x5b09>
    5fe4: 86 04        	stx	$4                      ; 0x4 <__rc2>
    5fe6: ae 60 d0     	ldx	$d060                   ; 0xd060 <__heap_start+0x5b08>
    5fe9: 86 05        	stx	$5                      ; 0x5 <__rc3>
    5feb: a5 6a        	lda	$6a                     ; 0x6a <__rc31+0x49>
    5fed: 18           	clc
    5fee: 69 00        	adc	#$0
    5ff0: 85 06        	sta	$6                      ; 0x6 <__rc4>
    5ff2: a5 6b        	lda	$6b                     ; 0x6b <__rc31+0x4a>
    5ff4: 65 04        	adc	$4                      ; 0x4 <__rc2>
    5ff6: 85 08        	sta	$8                      ; 0x8 <__rc6>
    5ff8: a5 07        	lda	$7                      ; 0x7 <__rc5>
    5ffa: 69 00        	adc	#$0
    5ffc: 85 04        	sta	$4                      ; 0x4 <__rc2>
    5ffe: 98           	tya
    5fff: 69 00        	adc	#$0
    6001: aa           	tax
    6002: 18           	clc
    6003: a5 06        	lda	$6                      ; 0x6 <__rc4>
    6005: 65 05        	adc	$5                      ; 0x5 <__rc3>
    6007: a8           	tay
    6008: a5 08        	lda	$8                      ; 0x8 <__rc6>
    600a: 69 00        	adc	#$0
    600c: 85 09        	sta	$9                      ; 0x9 <__rc7>
    600e: a5 04        	lda	$4                      ; 0x4 <__rc2>
    6010: 69 00        	adc	#$0
    6012: 85 04        	sta	$4                      ; 0x4 <__rc2>
    6014: 8a           	txa
    6015: 69 00        	adc	#$0
    6017: 85 05        	sta	$5                      ; 0x5 <__rc3>
    6019: a2 20        	ldx	#$20
    601b: 86 06        	stx	$6                      ; 0x6 <__rc4>
    601d: a6 69        	ldx	$69                     ; 0x69 <__rc31+0x48>
    601f: 86 07        	stx	$7                      ; 0x7 <__rc5>
    6021: 64 08        	stz	$8                      ; 0x8 <__rc6>
    6023: a6 09        	ldx	$9                      ; 0x9 <__rc7>
    6025: 98           	tya
    6026: 20 e7 60     	jsr	$60e7 <lfill>
    6029: a2 f8        	ldx	#$f8
    602b: 86 04        	stx	$4                      ; 0x4 <__rc2>
    602d: a2 0f        	ldx	#$f
    602f: 86 05        	stx	$5                      ; 0x5 <__rc3>
    6031: a2 03        	ldx	#$3
    6033: 86 06        	stx	$6                      ; 0x6 <__rc4>
    6035: a6 69        	ldx	$69                     ; 0x69 <__rc31+0x48>
    6037: 86 07        	stx	$7                      ; 0x7 <__rc5>
    6039: 64 08        	stz	$8                      ; 0x8 <__rc6>
    603b: a6 6b        	ldx	$6b                     ; 0x6b <__rc31+0x4a>
    603d: a5 6a        	lda	$6a                     ; 0x6a <__rc31+0x49>
    603f: 20 e7 60     	jsr	$60e7 <lfill>
    6042: e6 68        	inc	$68                     ; 0x68 <__rc31+0x47>
    6044: a0 03        	ldy	#$3
    6046: b1 66        	lda	($66),y                 ; 0x66 <__rc31+0x45>
    6048: c5 68        	cmp	$68                     ; 0x68 <__rc31+0x47>
    604a: 90 03        	bcc	$604f <fillrect+0xa9>
    604c: 4c bf 5f     	jmp	$5fbf <fillrect+0x19>
    604f: 60           	rts

00006050 <cgetc>:
    6050: ad 10 d6     	lda	$d610                   ; 0xd610 <__heap_start+0x60b8>
    6053: f0 fb        	beq	$6050 <cgetc>
    6055: 9c 10 d6     	stz	$d610                   ; 0xd610 <__heap_start+0x60b8>
    6058: 60           	rts

00006059 <do_dma>:
    6059: a2 00        	ldx	#$0
    605b: a0 32        	ldy	#$32
    605d: 84 04        	sty	$4                      ; 0x4 <__rc2>
    605f: a0 00        	ldy	#$0
    6061: 84 05        	sty	$5                      ; 0x5 <__rc3>
    6063: a4 04        	ldy	$4                      ; 0x4 <__rc2>
    6065: a9 47        	lda	#$47
    6067: 8d 2f d0     	sta	$d02f                   ; 0xd02f <__heap_start+0x5ad7>
    606a: a9 53        	lda	#$53
    606c: 8d 2f d0     	sta	$d02f                   ; 0xd02f <__heap_start+0x5ad7>
    606f: a9 41        	lda	#$41
    6071: 85 00        	sta	$0                      ; 0x0 <__data_size>
    6073: 9c 02 d7     	stz	$d702                   ; 0xd702 <__heap_start+0x61aa>
    6076: 9c 04 d7     	stz	$d704                   ; 0xd704 <__heap_start+0x61ac>
    6079: 8e 01 d7     	stx	$d701                   ; 0xd701 <__heap_start+0x61a9>
    607c: 8c 05 d7     	sty	$d705                   ; 0xd705 <__heap_start+0x61ad>
    607f: 60           	rts

00006080 <lcopy>:
    6080: 85 0c        	sta	$c                      ; 0xc <__rc10>
    6082: 86 0d        	stx	$d                      ; 0xd <__rc11>
    6084: a6 0a        	ldx	$a                      ; 0xa <__zp_data_size>
    6086: a4 0b        	ldy	$b                      ; 0xb <__rc9>
    6088: a9 0b        	lda	#$b
    608a: 85 32        	sta	$32                     ; 0x32 <dmalist>
    608c: a9 80        	lda	#$80
    608e: 85 33        	sta	$33                     ; 0x33 <dmalist+0x1>
    6090: 46 05        	lsr	$5                      ; 0x5 <__rc3>
    6092: a5 04        	lda	$4                      ; 0x4 <__rc2>
    6094: 6a           	ror
    6095: 46 05        	lsr	$5                      ; 0x5 <__rc3>
    6097: 6a           	ror
    6098: 46 05        	lsr	$5                      ; 0x5 <__rc3>
    609a: 6a           	ror
    609b: 46 05        	lsr	$5                      ; 0x5 <__rc3>
    609d: 6a           	ror
    609e: 85 34        	sta	$34                     ; 0x34 <dmalist+0x2>
    60a0: a9 81        	lda	#$81
    60a2: 85 35        	sta	$35                     ; 0x35 <dmalist+0x3>
    60a4: 46 09        	lsr	$9                      ; 0x9 <__rc7>
    60a6: a5 08        	lda	$8                      ; 0x8 <__rc6>
    60a8: 6a           	ror
    60a9: 46 09        	lsr	$9                      ; 0x9 <__rc7>
    60ab: 6a           	ror
    60ac: 46 09        	lsr	$9                      ; 0x9 <__rc7>
    60ae: 6a           	ror
    60af: 46 09        	lsr	$9                      ; 0x9 <__rc7>
    60b1: 6a           	ror
    60b2: 85 36        	sta	$36                     ; 0x36 <dmalist+0x4>
    60b4: a9 85        	lda	#$85
    60b6: 85 37        	sta	$37                     ; 0x37 <dmalist+0x5>
    60b8: a9 01        	lda	#$1
    60ba: 85 38        	sta	$38                     ; 0x38 <dmalist+0x6>
    60bc: 64 39        	stz	$39                     ; 0x39 <dmalist+0x7>
    60be: 64 43        	stz	$43                     ; 0x43 <dmalist+0x11>
    60c0: 64 3a        	stz	$3a                     ; 0x3a <dmalist+0x8>
    60c2: 86 3b        	stx	$3b                     ; 0x3b <dmalist+0x9>
    60c4: 84 3c        	sty	$3c                     ; 0x3c <dmalist+0xa>
    60c6: 64 43        	stz	$43                     ; 0x43 <dmalist+0x11>
    60c8: a6 0c        	ldx	$c                      ; 0xc <__rc10>
    60ca: 86 3d        	stx	$3d                     ; 0x3d <dmalist+0xb>
    60cc: a6 0d        	ldx	$d                      ; 0xd <__rc11>
    60ce: 86 3e        	stx	$3e                     ; 0x3e <dmalist+0xc>
    60d0: a5 04        	lda	$4                      ; 0x4 <__rc2>
    60d2: 29 0f        	and	#$f
    60d4: 85 3f        	sta	$3f                     ; 0x3f <dmalist+0xd>
    60d6: a6 06        	ldx	$6                      ; 0x6 <__rc4>
    60d8: 86 40        	stx	$40                     ; 0x40 <dmalist+0xe>
    60da: a6 07        	ldx	$7                      ; 0x7 <__rc5>
    60dc: 86 41        	stx	$41                     ; 0x41 <dmalist+0xf>
    60de: a5 08        	lda	$8                      ; 0x8 <__rc6>
    60e0: 29 0f        	and	#$f
    60e2: 85 42        	sta	$42                     ; 0x42 <dmalist+0x10>
    60e4: 4c 59 60     	jmp	$6059 <do_dma>

000060e7 <lfill>:
    60e7: 85 09        	sta	$9                      ; 0x9 <__rc7>
    60e9: 86 0a        	stx	$a                      ; 0xa <__zp_data_size>
    60eb: a6 07        	ldx	$7                      ; 0x7 <__rc5>
    60ed: a4 08        	ldy	$8                      ; 0x8 <__rc6>
    60ef: a9 0b        	lda	#$b
    60f1: 85 32        	sta	$32                     ; 0x32 <dmalist>
    60f3: a9 80        	lda	#$80
    60f5: 85 33        	sta	$33                     ; 0x33 <dmalist+0x1>
    60f7: 64 34        	stz	$34                     ; 0x34 <dmalist+0x2>
    60f9: 1a           	inc
    60fa: 85 35        	sta	$35                     ; 0x35 <dmalist+0x3>
    60fc: 46 05        	lsr	$5                      ; 0x5 <__rc3>
    60fe: a5 04        	lda	$4                      ; 0x4 <__rc2>
    6100: 6a           	ror
    6101: 46 05        	lsr	$5                      ; 0x5 <__rc3>
    6103: 6a           	ror
    6104: 46 05        	lsr	$5                      ; 0x5 <__rc3>
    6106: 6a           	ror
    6107: 46 05        	lsr	$5                      ; 0x5 <__rc3>
    6109: 6a           	ror
    610a: 85 36        	sta	$36                     ; 0x36 <dmalist+0x4>
    610c: a9 85        	lda	#$85
    610e: 85 37        	sta	$37                     ; 0x37 <dmalist+0x5>
    6110: a9 01        	lda	#$1
    6112: 85 38        	sta	$38                     ; 0x38 <dmalist+0x6>
    6114: 64 39        	stz	$39                     ; 0x39 <dmalist+0x7>
    6116: a9 03        	lda	#$3
    6118: 85 3a        	sta	$3a                     ; 0x3a <dmalist+0x8>
    611a: 64 43        	stz	$43                     ; 0x43 <dmalist+0x11>
    611c: 86 3b        	stx	$3b                     ; 0x3b <dmalist+0x9>
    611e: 84 3c        	sty	$3c                     ; 0x3c <dmalist+0xa>
    6120: a6 06        	ldx	$6                      ; 0x6 <__rc4>
    6122: 86 3d        	stx	$3d                     ; 0x3d <dmalist+0xb>
    6124: 64 3e        	stz	$3e                     ; 0x3e <dmalist+0xc>
    6126: a6 09        	ldx	$9                      ; 0x9 <__rc7>
    6128: 86 40        	stx	$40                     ; 0x40 <dmalist+0xe>
    612a: a6 0a        	ldx	$a                      ; 0xa <__zp_data_size>
    612c: 86 41        	stx	$41                     ; 0x41 <dmalist+0xf>
    612e: a5 04        	lda	$4                      ; 0x4 <__rc2>
    6130: 29 0f        	and	#$f
    6132: 85 42        	sta	$42                     ; 0x42 <dmalist+0x10>
    6134: 4c 59 60     	jmp	$6059 <do_dma>

00006137 <usleep>:
    6137: a8           	tay
    6138: 86 06        	stx	$6                      ; 0x6 <__rc4>
    613a: a5 05        	lda	$5                      ; 0x5 <__rc3>
    613c: 4c 73 61     	jmp	$6173 <usleep+0x3c>
    613f: a6 04        	ldx	$4                      ; 0x4 <__rc2>
    6141: 80 02        	bra	$6145 <usleep+0xe>
    6143: a6 06        	ldx	$6                      ; 0x6 <__rc4>
    6145: e0 00        	cpx	#$0
    6147: b0 03        	bcs	$614c <usleep+0x15>
    6149: 4c 92 61     	jmp	$6192 <usleep+0x5b>
    614c: 85 07        	sta	$7                      ; 0x7 <__rc5>
    614e: a6 06        	ldx	$6                      ; 0x6 <__rc4>
    6150: 86 05        	stx	$5                      ; 0x5 <__rc3>
    6152: ae 12 d0     	ldx	$d012                   ; 0xd012 <__heap_start+0x5aba>
    6155: 86 06        	stx	$6                      ; 0x6 <__rc4>
    6157: ae 12 d0     	ldx	$d012                   ; 0xd012 <__heap_start+0x5aba>
    615a: e4 06        	cpx	$6                      ; 0x6 <__rc4>
    615c: f0 f9        	beq	$6157 <usleep+0x20>
    615e: 18           	clc
    615f: 98           	tya
    6160: 69 c0        	adc	#$c0
    6162: a8           	tay
    6163: a5 05        	lda	$5                      ; 0x5 <__rc3>
    6165: 69 ff        	adc	#$ff
    6167: 85 06        	sta	$6                      ; 0x6 <__rc4>
    6169: a5 04        	lda	$4                      ; 0x4 <__rc2>
    616b: 69 ff        	adc	#$ff
    616d: 85 04        	sta	$4                      ; 0x4 <__rc2>
    616f: a5 07        	lda	$7                      ; 0x7 <__rc5>
    6171: 69 ff        	adc	#$ff
    6173: aa           	tax
    6174: d0 15        	bne	$618b <usleep+0x54>
    6176: a6 04        	ldx	$4                      ; 0x4 <__rc2>
    6178: f0 03        	beq	$617d <usleep+0x46>
    617a: 4c 3f 61     	jmp	$613f <usleep+0x8>
    617d: a6 06        	ldx	$6                      ; 0x6 <__rc4>
    617f: f0 03        	beq	$6184 <usleep+0x4d>
    6181: 4c 43 61     	jmp	$6143 <usleep+0xc>
    6184: c0 41        	cpy	#$41
    6186: 90 0a        	bcc	$6192 <usleep+0x5b>
    6188: 4c 4c 61     	jmp	$614c <usleep+0x15>
    618b: c9 00        	cmp	#$0
    618d: 90 03        	bcc	$6192 <usleep+0x5b>
    618f: 4c 4c 61     	jmp	$614c <usleep+0x15>
    6192: 60           	rts

00006193 <strcpy>:
    6193: b2 06        	lda	($6),z                  ; 0x6 <__rc4>
    6195: aa           	tax
    6196: b2 06        	lda	($6),z                  ; 0x6 <__rc4>
    6198: 92 04        	sta	($4),z                  ; 0x4 <__rc2>
    619a: 8a           	txa
    619b: d0 03        	bne	$61a0 <strcpy+0xd>
    619d: 4c d0 61     	jmp	$61d0 <strcpy+0x3d>
    61a0: a0 01        	ldy	#$1
    61a2: a6 04        	ldx	$4                      ; 0x4 <__rc2>
    61a4: 86 08        	stx	$8                      ; 0x8 <__rc6>
    61a6: a6 05        	ldx	$5                      ; 0x5 <__rc3>
    61a8: 86 09        	stx	$9                      ; 0x9 <__rc7>
    61aa: a6 06        	ldx	$6                      ; 0x6 <__rc4>
    61ac: 86 0a        	stx	$a                      ; 0xa <__zp_data_size>
    61ae: a6 07        	ldx	$7                      ; 0x7 <__rc5>
    61b0: 86 0b        	stx	$b                      ; 0xb <__rc9>
    61b2: e6 0a        	inc	$a                      ; 0xa <__zp_data_size>
    61b4: d0 02        	bne	$61b8 <strcpy+0x25>
    61b6: e6 0b        	inc	$b                      ; 0xb <__rc9>
    61b8: b1 06        	lda	($6),y                  ; 0x6 <__rc4>
    61ba: aa           	tax
    61bb: b1 06        	lda	($6),y                  ; 0x6 <__rc4>
    61bd: 91 08        	sta	($8),y                  ; 0x8 <__rc6>
    61bf: e6 08        	inc	$8                      ; 0x8 <__rc6>
    61c1: d0 02        	bne	$61c5 <strcpy+0x32>
    61c3: e6 09        	inc	$9                      ; 0x9 <__rc7>
    61c5: a5 0a        	lda	$a                      ; 0xa <__zp_data_size>
    61c7: 85 06        	sta	$6                      ; 0x6 <__rc4>
    61c9: a5 0b        	lda	$b                      ; 0xb <__rc9>
    61cb: 85 07        	sta	$7                      ; 0x7 <__rc5>
    61cd: 8a           	txa
    61ce: d0 e2        	bne	$61b2 <strcpy+0x1f>
    61d0: 60           	rts

000061d1 <strlen>:
    61d1: b2 04        	lda	($4),z                  ; 0x4 <__rc2>
    61d3: d0 03        	bne	$61d8 <strlen+0x7>
    61d5: 4c 06 62     	jmp	$6206 <strlen+0x35>
    61d8: 64 07        	stz	$7                      ; 0x7 <__rc5>
    61da: a0 01        	ldy	#$1
    61dc: a9 00        	lda	#$0
    61de: 64 06        	stz	$6                      ; 0x6 <__rc4>
    61e0: aa           	tax
    61e1: e6 06        	inc	$6                      ; 0x6 <__rc4>
    61e3: d0 01        	bne	$61e6 <strlen+0x15>
    61e5: e8           	inx
    61e6: 18           	clc
    61e7: 85 09        	sta	$9                      ; 0x9 <__rc7>
    61e9: a5 07        	lda	$7                      ; 0x7 <__rc5>
    61eb: 65 04        	adc	$4                      ; 0x4 <__rc2>
    61ed: 85 08        	sta	$8                      ; 0x8 <__rc6>
    61ef: a5 09        	lda	$9                      ; 0x9 <__rc7>
    61f1: 65 05        	adc	$5                      ; 0x5 <__rc3>
    61f3: 85 09        	sta	$9                      ; 0x9 <__rc7>
    61f5: b1 08        	lda	($8),y                  ; 0x8 <__rc6>
    61f7: 85 08        	sta	$8                      ; 0x8 <__rc6>
    61f9: a5 06        	lda	$6                      ; 0x6 <__rc4>
    61fb: 85 07        	sta	$7                      ; 0x7 <__rc5>
    61fd: 8a           	txa
    61fe: e6 08        	inc	$8                      ; 0x8 <__rc6>
    6200: c6 08        	dec	$8                      ; 0x8 <__rc6>
    6202: d0 dd        	bne	$61e1 <strlen+0x10>
    6204: 80 04        	bra	$620a <strlen+0x39>
    6206: 64 06        	stz	$6                      ; 0x6 <__rc4>
    6208: a2 00        	ldx	#$0
    620a: a5 06        	lda	$6                      ; 0x6 <__rc4>
    620c: 60           	rts

0000620d <__ashlqi3>:
    620d: e0 00        	cpx	#$0
    620f: f0 06        	beq	$6217 <__ashlqi3+0xa>
    6211: ca           	dex
    6212: 0a           	asl
    6213: e0 00        	cpx	#$0
    6215: d0 fa        	bne	$6211 <__ashlqi3+0x4>
    6217: 60           	rts

00006218 <__ashlhi3>:
    6218: 86 05        	stx	$5                      ; 0x5 <__rc3>
    621a: a6 04        	ldx	$4                      ; 0x4 <__rc2>
    621c: f0 0a        	beq	$6228 <__ashlhi3+0x10>
    621e: a6 04        	ldx	$4                      ; 0x4 <__rc2>
    6220: ca           	dex
    6221: 0a           	asl
    6222: 26 05        	rol	$5                      ; 0x5 <__rc3>
    6224: e0 00        	cpx	#$0
    6226: d0 f8        	bne	$6220 <__ashlhi3+0x8>
    6228: a6 05        	ldx	$5                      ; 0x5 <__rc3>
    622a: 60           	rts

0000622b <__mulhi3>:
    622b: a4 05        	ldy	$5                      ; 0x5 <__rc3>
    622d: d0 04        	bne	$6233 <__mulhi3+0x8>
    622f: a4 04        	ldy	$4                      ; 0x4 <__rc2>
    6231: f0 25        	beq	$6258 <__mulhi3+0x2d>
    6233: 85 06        	sta	$6                      ; 0x6 <__rc4>
    6235: 86 07        	stx	$7                      ; 0x7 <__rc5>
    6237: a0 00        	ldy	#$0
    6239: 98           	tya
    623a: 46 05        	lsr	$5                      ; 0x5 <__rc3>
    623c: 66 04        	ror	$4                      ; 0x4 <__rc2>
    623e: 90 09        	bcc	$6249 <__mulhi3+0x1e>
    6240: aa           	tax
    6241: 98           	tya
    6242: 18           	clc
    6243: 65 06        	adc	$6                      ; 0x6 <__rc4>
    6245: a8           	tay
    6246: 8a           	txa
    6247: 65 07        	adc	$7                      ; 0x7 <__rc5>
    6249: 06 06        	asl	$6                      ; 0x6 <__rc4>
    624b: 26 07        	rol	$7                      ; 0x7 <__rc5>
    624d: a6 05        	ldx	$5                      ; 0x5 <__rc3>
    624f: d0 e9        	bne	$623a <__mulhi3+0xf>
    6251: a6 04        	ldx	$4                      ; 0x4 <__rc2>
    6253: d0 e5        	bne	$623a <__mulhi3+0xf>
    6255: aa           	tax
    6256: 98           	tya
    6257: 60           	rts
    6258: a0 00        	ldy	#$0
    625a: 98           	tya
    625b: 80 f8        	bra	$6255 <__mulhi3+0x2a>

0000625d <__udivhi3>:
    625d: 64 06        	stz	$6                      ; 0x6 <__rc4>
    625f: a4 05        	ldy	$5                      ; 0x5 <__rc3>
    6261: d0 04        	bne	$6267 <__udivhi3+0xa>
    6263: a4 04        	ldy	$4                      ; 0x4 <__rc2>
    6265: f0 0e        	beq	$6275 <__udivhi3+0x18>
    6267: 85 09        	sta	$9                      ; 0x9 <__rc7>
    6269: 8a           	txa
    626a: e4 05        	cpx	$5                      ; 0x5 <__rc3>
    626c: d0 0e        	bne	$627c <__udivhi3+0x1f>
    626e: a5 09        	lda	$9                      ; 0x9 <__rc7>
    6270: c5 04        	cmp	$4                      ; 0x4 <__rc2>
    6272: 8a           	txa
    6273: b0 0b        	bcs	$6280 <__udivhi3+0x23>
    6275: a2 00        	ldx	#$0
    6277: 86 46        	stx	$46                     ; 0x46 <__rc31+0x25>
    6279: 4c 19 63     	jmp	$6319 <__udivhi3+0xbc>
    627c: c5 05        	cmp	$5                      ; 0x5 <__rc3>
    627e: 90 f5        	bcc	$6275 <__udivhi3+0x18>
    6280: a2 01        	ldx	#$1
    6282: 86 46        	stx	$46                     ; 0x46 <__rc31+0x25>
    6284: a6 05        	ldx	$5                      ; 0x5 <__rc3>
    6286: 10 03        	bpl	$628b <__udivhi3+0x2e>
    6288: 4c 19 63     	jmp	$6319 <__udivhi3+0xbc>
    628b: a2 00        	ldx	#$0
    628d: a4 04        	ldy	$4                      ; 0x4 <__rc2>
    628f: 84 07        	sty	$7                      ; 0x7 <__rc5>
    6291: a4 05        	ldy	$5                      ; 0x5 <__rc3>
    6293: 84 08        	sty	$8                      ; 0x8 <__rc6>
    6295: 06 07        	asl	$7                      ; 0x7 <__rc5>
    6297: 26 08        	rol	$8                      ; 0x8 <__rc6>
    6299: c5 08        	cmp	$8                      ; 0x8 <__rc6>
    629b: d0 08        	bne	$62a5 <__udivhi3+0x48>
    629d: a4 09        	ldy	$9                      ; 0x9 <__rc7>
    629f: c4 07        	cpy	$7                      ; 0x7 <__rc5>
    62a1: 90 13        	bcc	$62b6 <__udivhi3+0x59>
    62a3: 80 04        	bra	$62a9 <__udivhi3+0x4c>
    62a5: c5 08        	cmp	$8                      ; 0x8 <__rc6>
    62a7: 90 0d        	bcc	$62b6 <__udivhi3+0x59>
    62a9: e8           	inx
    62aa: a4 07        	ldy	$7                      ; 0x7 <__rc5>
    62ac: 84 04        	sty	$4                      ; 0x4 <__rc2>
    62ae: a4 08        	ldy	$8                      ; 0x8 <__rc6>
    62b0: 84 05        	sty	$5                      ; 0x5 <__rc3>
    62b2: 10 e1        	bpl	$6295 <__udivhi3+0x38>
    62b4: 80 08        	bra	$62be <__udivhi3+0x61>
    62b6: a4 04        	ldy	$4                      ; 0x4 <__rc2>
    62b8: 84 07        	sty	$7                      ; 0x7 <__rc5>
    62ba: a4 05        	ldy	$5                      ; 0x5 <__rc3>
    62bc: 84 08        	sty	$8                      ; 0x8 <__rc6>
    62be: e0 00        	cpx	#$0
    62c0: d0 03        	bne	$62c5 <__udivhi3+0x68>
    62c2: 4c 19 63     	jmp	$6319 <__udivhi3+0xbc>
    62c5: 38           	sec
    62c6: a8           	tay
    62c7: a5 09        	lda	$9                      ; 0x9 <__rc7>
    62c9: e5 07        	sbc	$7                      ; 0x7 <__rc5>
    62cb: 85 04        	sta	$4                      ; 0x4 <__rc2>
    62cd: 98           	tya
    62ce: e5 08        	sbc	$8                      ; 0x8 <__rc6>
    62d0: a0 01        	ldy	#$1
    62d2: 84 46        	sty	$46                     ; 0x46 <__rc31+0x25>
    62d4: 64 06        	stz	$6                      ; 0x6 <__rc4>
    62d6: 46 08        	lsr	$8                      ; 0x8 <__rc6>
    62d8: 66 07        	ror	$7                      ; 0x7 <__rc5>
    62da: a4 46        	ldy	$46                     ; 0x46 <__rc31+0x25>
    62dc: 84 05        	sty	$5                      ; 0x5 <__rc3>
    62de: 06 05        	asl	$5                      ; 0x5 <__rc3>
    62e0: a0 01        	ldy	#$1
    62e2: b0 02        	bcs	$62e6 <__udivhi3+0x89>
    62e4: a0 00        	ldy	#$0
    62e6: 84 09        	sty	$9                      ; 0x9 <__rc7>
    62e8: a4 05        	ldy	$5                      ; 0x5 <__rc3>
    62ea: 84 46        	sty	$46                     ; 0x46 <__rc31+0x25>
    62ec: c5 08        	cmp	$8                      ; 0x8 <__rc6>
    62ee: d0 23        	bne	$6313 <__udivhi3+0xb6>
    62f0: a4 04        	ldy	$4                      ; 0x4 <__rc2>
    62f2: c4 07        	cpy	$7                      ; 0x7 <__rc5>
    62f4: 90 11        	bcc	$6307 <__udivhi3+0xaa>
    62f6: a8           	tay
    62f7: a5 46        	lda	$46                     ; 0x46 <__rc31+0x25>
    62f9: 09 01        	ora	#$1
    62fb: 85 46        	sta	$46                     ; 0x46 <__rc31+0x25>
    62fd: 38           	sec
    62fe: a5 04        	lda	$4                      ; 0x4 <__rc2>
    6300: e5 07        	sbc	$7                      ; 0x7 <__rc5>
    6302: 85 04        	sta	$4                      ; 0x4 <__rc2>
    6304: 98           	tya
    6305: e5 08        	sbc	$8                      ; 0x8 <__rc6>
    6307: a4 09        	ldy	$9                      ; 0x9 <__rc7>
    6309: c0 01        	cpy	#$1
    630b: 26 06        	rol	$6                      ; 0x6 <__rc4>
    630d: ca           	dex
    630e: f0 09        	beq	$6319 <__udivhi3+0xbc>
    6310: 4c d6 62     	jmp	$62d6 <__udivhi3+0x79>
    6313: c5 08        	cmp	$8                      ; 0x8 <__rc6>
    6315: b0 df        	bcs	$62f6 <__udivhi3+0x99>
    6317: 80 ee        	bra	$6307 <__udivhi3+0xaa>
    6319: a6 06        	ldx	$6                      ; 0x6 <__rc4>
    631b: a5 46        	lda	$46                     ; 0x46 <__rc31+0x25>
    631d: 60           	rts

0000631e <__umodqi3>:
    631e: e0 00        	cpx	#$0
    6320: d0 03        	bne	$6325 <__umodqi3+0x7>
    6322: 4c 62 63     	jmp	$6362 <__umodqi3+0x44>
    6325: 86 05        	stx	$5                      ; 0x5 <__rc3>
    6327: c5 05        	cmp	$5                      ; 0x5 <__rc3>
    6329: b0 03        	bcs	$632e <__umodqi3+0x10>
    632b: 4c 62 63     	jmp	$6362 <__umodqi3+0x44>
    632e: a6 05        	ldx	$5                      ; 0x5 <__rc3>
    6330: 30 15        	bmi	$6347 <__umodqi3+0x29>
    6332: a2 00        	ldx	#$0
    6334: a4 05        	ldy	$5                      ; 0x5 <__rc3>
    6336: 84 04        	sty	$4                      ; 0x4 <__rc2>
    6338: 06 04        	asl	$4                      ; 0x4 <__rc2>
    633a: c5 04        	cmp	$4                      ; 0x4 <__rc2>
    633c: 90 0d        	bcc	$634b <__umodqi3+0x2d>
    633e: e8           	inx
    633f: a4 04        	ldy	$4                      ; 0x4 <__rc2>
    6341: 84 05        	sty	$5                      ; 0x5 <__rc3>
    6343: 10 f3        	bpl	$6338 <__umodqi3+0x1a>
    6345: 80 08        	bra	$634f <__umodqi3+0x31>
    6347: 38           	sec
    6348: e5 05        	sbc	$5                      ; 0x5 <__rc3>
    634a: 60           	rts
    634b: a4 05        	ldy	$5                      ; 0x5 <__rc3>
    634d: 84 04        	sty	$4                      ; 0x4 <__rc2>
    634f: 38           	sec
    6350: e5 04        	sbc	$4                      ; 0x4 <__rc2>
    6352: e0 00        	cpx	#$0
    6354: f0 0c        	beq	$6362 <__umodqi3+0x44>
    6356: 46 04        	lsr	$4                      ; 0x4 <__rc2>
    6358: c5 04        	cmp	$4                      ; 0x4 <__rc2>
    635a: 90 03        	bcc	$635f <__umodqi3+0x41>
    635c: 38           	sec
    635d: e5 04        	sbc	$4                      ; 0x4 <__rc2>
    635f: ca           	dex
    6360: d0 f4        	bne	$6356 <__umodqi3+0x38>
    6362: 60           	rts

00006363 <__udivmodqi4>:
    6363: a8           	tay
    6364: a9 00        	lda	#$0
    6366: e0 00        	cpx	#$0
    6368: f0 25        	beq	$638f <__udivmodqi4+0x2c>
    636a: 86 07        	stx	$7                      ; 0x7 <__rc5>
    636c: 84 08        	sty	$8                      ; 0x8 <__rc6>
    636e: c4 07        	cpy	$7                      ; 0x7 <__rc5>
    6370: b0 03        	bcs	$6375 <__udivmodqi4+0x12>
    6372: 4c cc 63     	jmp	$63cc <__udivmodqi4+0x69>
    6375: a5 07        	lda	$7                      ; 0x7 <__rc5>
    6377: 30 1b        	bmi	$6394 <__udivmodqi4+0x31>
    6379: a2 00        	ldx	#$0
    637b: a5 07        	lda	$7                      ; 0x7 <__rc5>
    637d: 85 06        	sta	$6                      ; 0x6 <__rc4>
    637f: 98           	tya
    6380: 06 06        	asl	$6                      ; 0x6 <__rc4>
    6382: c5 06        	cmp	$6                      ; 0x6 <__rc4>
    6384: 90 17        	bcc	$639d <__udivmodqi4+0x3a>
    6386: e8           	inx
    6387: a4 06        	ldy	$6                      ; 0x6 <__rc4>
    6389: 84 07        	sty	$7                      ; 0x7 <__rc5>
    638b: 10 f3        	bpl	$6380 <__udivmodqi4+0x1d>
    638d: 80 12        	bra	$63a1 <__udivmodqi4+0x3e>
    638f: 84 08        	sty	$8                      ; 0x8 <__rc6>
    6391: 4c cc 63     	jmp	$63cc <__udivmodqi4+0x69>
    6394: 38           	sec
    6395: 98           	tya
    6396: e5 07        	sbc	$7                      ; 0x7 <__rc5>
    6398: 85 08        	sta	$8                      ; 0x8 <__rc6>
    639a: 4c ca 63     	jmp	$63ca <__udivmodqi4+0x67>
    639d: a4 07        	ldy	$7                      ; 0x7 <__rc5>
    639f: 84 06        	sty	$6                      ; 0x6 <__rc4>
    63a1: 38           	sec
    63a2: e5 06        	sbc	$6                      ; 0x6 <__rc4>
    63a4: 85 08        	sta	$8                      ; 0x8 <__rc6>
    63a6: 8a           	txa
    63a7: f0 21        	beq	$63ca <__udivmodqi4+0x67>
    63a9: a9 01        	lda	#$1
    63ab: 46 06        	lsr	$6                      ; 0x6 <__rc4>
    63ad: 0a           	asl
    63ae: a8           	tay
    63af: a5 08        	lda	$8                      ; 0x8 <__rc6>
    63b1: c5 06        	cmp	$6                      ; 0x6 <__rc4>
    63b3: 90 0d        	bcc	$63c2 <__udivmodqi4+0x5f>
    63b5: 85 07        	sta	$7                      ; 0x7 <__rc5>
    63b7: 98           	tya
    63b8: 09 01        	ora	#$1
    63ba: a8           	tay
    63bb: 38           	sec
    63bc: a5 07        	lda	$7                      ; 0x7 <__rc5>
    63be: e5 06        	sbc	$6                      ; 0x6 <__rc4>
    63c0: 85 08        	sta	$8                      ; 0x8 <__rc6>
    63c2: ca           	dex
    63c3: 98           	tya
    63c4: e0 00        	cpx	#$0
    63c6: d0 e3        	bne	$63ab <__udivmodqi4+0x48>
    63c8: 80 02        	bra	$63cc <__udivmodqi4+0x69>
    63ca: a9 01        	lda	#$1
    63cc: aa           	tax
    63cd: a5 08        	lda	$8                      ; 0x8 <__rc6>
    63cf: 92 04        	sta	($4),z                  ; 0x4 <__rc2>
    63d1: 8a           	txa
    63d2: 60           	rts

000063d3 <__udivmodhi4>:
    63d3: 86 0c        	stx	$c                      ; 0xc <__rc10>
    63d5: 64 08        	stz	$8                      ; 0x8 <__rc6>
    63d7: a4 05        	ldy	$5                      ; 0x5 <__rc3>
    63d9: d0 04        	bne	$63df <__udivmodhi4+0xc>
    63db: a4 04        	ldy	$4                      ; 0x4 <__rc2>
    63dd: f0 08        	beq	$63e7 <__udivmodhi4+0x14>
    63df: e4 05        	cpx	$5                      ; 0x5 <__rc3>
    63e1: d0 0d        	bne	$63f0 <__udivmodhi4+0x1d>
    63e3: c5 04        	cmp	$4                      ; 0x4 <__rc2>
    63e5: b0 0d        	bcs	$63f4 <__udivmodhi4+0x21>
    63e7: a6 0c        	ldx	$c                      ; 0xc <__rc10>
    63e9: 86 04        	stx	$4                      ; 0x4 <__rc2>
    63eb: a2 00        	ldx	#$0
    63ed: 4c 99 64     	jmp	$6499 <__udivmodhi4+0xc6>
    63f0: e4 05        	cpx	$5                      ; 0x5 <__rc3>
    63f2: 90 f3        	bcc	$63e7 <__udivmodhi4+0x14>
    63f4: a6 05        	ldx	$5                      ; 0x5 <__rc3>
    63f6: 10 03        	bpl	$63fb <__udivmodhi4+0x28>
    63f8: 4c 8c 64     	jmp	$648c <__udivmodhi4+0xb9>
    63fb: a2 00        	ldx	#$0
    63fd: a4 04        	ldy	$4                      ; 0x4 <__rc2>
    63ff: 84 09        	sty	$9                      ; 0x9 <__rc7>
    6401: a4 05        	ldy	$5                      ; 0x5 <__rc3>
    6403: 84 0a        	sty	$a                      ; 0xa <__zp_data_size>
    6405: 06 09        	asl	$9                      ; 0x9 <__rc7>
    6407: 26 0a        	rol	$a                      ; 0xa <__zp_data_size>
    6409: a4 0c        	ldy	$c                      ; 0xc <__rc10>
    640b: c4 0a        	cpy	$a                      ; 0xa <__zp_data_size>
    640d: d0 06        	bne	$6415 <__udivmodhi4+0x42>
    640f: c5 09        	cmp	$9                      ; 0x9 <__rc7>
    6411: b0 08        	bcs	$641b <__udivmodhi4+0x48>
    6413: 80 13        	bra	$6428 <__udivmodhi4+0x55>
    6415: a4 0c        	ldy	$c                      ; 0xc <__rc10>
    6417: c4 0a        	cpy	$a                      ; 0xa <__zp_data_size>
    6419: 90 0d        	bcc	$6428 <__udivmodhi4+0x55>
    641b: e8           	inx
    641c: a4 09        	ldy	$9                      ; 0x9 <__rc7>
    641e: 84 04        	sty	$4                      ; 0x4 <__rc2>
    6420: a4 0a        	ldy	$a                      ; 0xa <__zp_data_size>
    6422: 84 05        	sty	$5                      ; 0x5 <__rc3>
    6424: 10 df        	bpl	$6405 <__udivmodhi4+0x32>
    6426: 80 08        	bra	$6430 <__udivmodhi4+0x5d>
    6428: a4 04        	ldy	$4                      ; 0x4 <__rc2>
    642a: 84 09        	sty	$9                      ; 0x9 <__rc7>
    642c: a4 05        	ldy	$5                      ; 0x5 <__rc3>
    642e: 84 0a        	sty	$a                      ; 0xa <__zp_data_size>
    6430: 38           	sec
    6431: e5 09        	sbc	$9                      ; 0x9 <__rc7>
    6433: a8           	tay
    6434: a5 0c        	lda	$c                      ; 0xc <__rc10>
    6436: e5 0a        	sbc	$a                      ; 0xa <__zp_data_size>
    6438: 85 04        	sta	$4                      ; 0x4 <__rc2>
    643a: 8a           	txa
    643b: d0 03        	bne	$6440 <__udivmodhi4+0x6d>
    643d: 4c a8 64     	jmp	$64a8 <__udivmodhi4+0xd5>
    6440: a9 01        	lda	#$1
    6442: 85 6c        	sta	$6c                     ; 0x6c <__rc31+0x4b>
    6444: 64 08        	stz	$8                      ; 0x8 <__rc6>
    6446: 98           	tya
    6447: 46 0a        	lsr	$a                      ; 0xa <__zp_data_size>
    6449: 66 09        	ror	$9                      ; 0x9 <__rc7>
    644b: a4 6c        	ldy	$6c                     ; 0x6c <__rc31+0x4b>
    644d: 84 05        	sty	$5                      ; 0x5 <__rc3>
    644f: 06 05        	asl	$5                      ; 0x5 <__rc3>
    6451: a0 01        	ldy	#$1
    6453: b0 02        	bcs	$6457 <__udivmodhi4+0x84>
    6455: a0 00        	ldy	#$0
    6457: 84 0b        	sty	$b                      ; 0xb <__rc9>
    6459: a4 05        	ldy	$5                      ; 0x5 <__rc3>
    645b: 84 6c        	sty	$6c                     ; 0x6c <__rc31+0x4b>
    645d: a4 04        	ldy	$4                      ; 0x4 <__rc2>
    645f: c4 0a        	cpy	$a                      ; 0xa <__zp_data_size>
    6461: d0 23        	bne	$6486 <__udivmodhi4+0xb3>
    6463: c5 09        	cmp	$9                      ; 0x9 <__rc7>
    6465: 90 13        	bcc	$647a <__udivmodhi4+0xa7>
    6467: a8           	tay
    6468: a5 6c        	lda	$6c                     ; 0x6c <__rc31+0x4b>
    646a: 09 01        	ora	#$1
    646c: 85 6c        	sta	$6c                     ; 0x6c <__rc31+0x4b>
    646e: 38           	sec
    646f: 98           	tya
    6470: e5 09        	sbc	$9                      ; 0x9 <__rc7>
    6472: a8           	tay
    6473: a5 04        	lda	$4                      ; 0x4 <__rc2>
    6475: e5 0a        	sbc	$a                      ; 0xa <__zp_data_size>
    6477: 85 04        	sta	$4                      ; 0x4 <__rc2>
    6479: 98           	tya
    647a: a4 0b        	ldy	$b                      ; 0xb <__rc9>
    647c: c0 01        	cpy	#$1
    647e: 26 08        	rol	$8                      ; 0x8 <__rc6>
    6480: ca           	dex
    6481: f0 18        	beq	$649b <__udivmodhi4+0xc8>
    6483: 4c 47 64     	jmp	$6447 <__udivmodhi4+0x74>
    6486: c4 0a        	cpy	$a                      ; 0xa <__zp_data_size>
    6488: b0 dd        	bcs	$6467 <__udivmodhi4+0x94>
    648a: 80 ee        	bra	$647a <__udivmodhi4+0xa7>
    648c: 38           	sec
    648d: e5 04        	sbc	$4                      ; 0x4 <__rc2>
    648f: aa           	tax
    6490: a5 0c        	lda	$c                      ; 0xc <__rc10>
    6492: e5 05        	sbc	$5                      ; 0x5 <__rc3>
    6494: 85 04        	sta	$4                      ; 0x4 <__rc2>
    6496: 8a           	txa
    6497: a2 01        	ldx	#$1
    6499: 86 6c        	stx	$6c                     ; 0x6c <__rc31+0x4b>
    649b: 92 06        	sta	($6),z                  ; 0x6 <__rc4>
    649d: a0 01        	ldy	#$1
    649f: a5 04        	lda	$4                      ; 0x4 <__rc2>
    64a1: 91 06        	sta	($6),y                  ; 0x6 <__rc4>
    64a3: a6 08        	ldx	$8                      ; 0x8 <__rc6>
    64a5: a5 6c        	lda	$6c                     ; 0x6c <__rc31+0x4b>
    64a7: 60           	rts
    64a8: a2 01        	ldx	#$1
    64aa: 86 6c        	stx	$6c                     ; 0x6c <__rc31+0x4b>
    64ac: 98           	tya
    64ad: 80 ec        	bra	$649b <__udivmodhi4+0xc8>

000064af <memcpy>:
    64af: a8           	tay
    64b0: 8a           	txa
    64b1: d0 03        	bne	$64b6 <memcpy+0x7>
    64b3: 98           	tya
    64b4: f0 24        	beq	$64da <memcpy+0x2b>
    64b6: a5 04        	lda	$4                      ; 0x4 <__rc2>
    64b8: 85 08        	sta	$8                      ; 0x8 <__rc6>
    64ba: a5 05        	lda	$5                      ; 0x5 <__rc3>
    64bc: 85 09        	sta	$9                      ; 0x9 <__rc7>
    64be: b2 06        	lda	($6),z                  ; 0x6 <__rc4>
    64c0: 92 08        	sta	($8),z                  ; 0x8 <__rc6>
    64c2: e6 08        	inc	$8                      ; 0x8 <__rc6>
    64c4: d0 02        	bne	$64c8 <memcpy+0x19>
    64c6: e6 09        	inc	$9                      ; 0x9 <__rc7>
    64c8: e6 06        	inc	$6                      ; 0x6 <__rc4>
    64ca: d0 02        	bne	$64ce <memcpy+0x1f>
    64cc: e6 07        	inc	$7                      ; 0x7 <__rc5>
    64ce: 88           	dey
    64cf: c0 ff        	cpy	#$ff
    64d1: d0 01        	bne	$64d4 <memcpy+0x25>
    64d3: ca           	dex
    64d4: 8a           	txa
    64d5: d0 e7        	bne	$64be <memcpy+0xf>
    64d7: 98           	tya
    64d8: d0 e4        	bne	$64be <memcpy+0xf>
    64da: 60           	rts

000064db <__memset>:
    64db: a4 06        	ldy	$6                      ; 0x6 <__rc4>
    64dd: d0 04        	bne	$64e3 <__memset+0x8>
    64df: e0 00        	cpx	#$0
    64e1: f0 17        	beq	$64fa <__memset+0x1f>
    64e3: 92 04        	sta	($4),z                  ; 0x4 <__rc2>
    64e5: e6 04        	inc	$4                      ; 0x4 <__rc2>
    64e7: d0 02        	bne	$64eb <__memset+0x10>
    64e9: e6 05        	inc	$5                      ; 0x5 <__rc3>
    64eb: ca           	dex
    64ec: e0 ff        	cpx	#$ff
    64ee: d0 02        	bne	$64f2 <__memset+0x17>
    64f0: c6 06        	dec	$6                      ; 0x6 <__rc4>
    64f2: a4 06        	ldy	$6                      ; 0x6 <__rc4>
    64f4: d0 ed        	bne	$64e3 <__memset+0x8>
    64f6: e0 00        	cpx	#$0
    64f8: d0 e9        	bne	$64e3 <__memset+0x8>
    64fa: 60           	rts

000064fb <__udivmodsi4>:
    64fb: da           	phx
    64fc: 7a           	ply
    64fd: a6 04        	ldx	$4                      ; 0x4 <__rc2>
    64ff: 86 11        	stx	$11                     ; 0x11 <__rc15>
    6501: a6 05        	ldx	$5                      ; 0x5 <__rc3>
    6503: 64 0c        	stz	$c                      ; 0xc <__rc10>
    6505: e6 09        	inc	$9                      ; 0x9 <__rc7>
    6507: c6 09        	dec	$9                      ; 0x9 <__rc7>
    6509: d0 15        	bne	$6520 <__udivmodsi4+0x25>
    650b: e6 08        	inc	$8                      ; 0x8 <__rc6>
    650d: c6 08        	dec	$8                      ; 0x8 <__rc6>
    650f: d0 0f        	bne	$6520 <__udivmodsi4+0x25>
    6511: e6 07        	inc	$7                      ; 0x7 <__rc5>
    6513: c6 07        	dec	$7                      ; 0x7 <__rc5>
    6515: d0 09        	bne	$6520 <__udivmodsi4+0x25>
    6517: e6 06        	inc	$6                      ; 0x6 <__rc4>
    6519: c6 06        	dec	$6                      ; 0x6 <__rc4>
    651b: d0 03        	bne	$6520 <__udivmodsi4+0x25>
    651d: 4c b0 66     	jmp	$66b0 <__udivmodsi4+0x1b5>
    6520: 84 05        	sty	$5                      ; 0x5 <__rc3>
    6522: 86 04        	stx	$4                      ; 0x4 <__rc2>
    6524: e4 09        	cpx	$9                      ; 0x9 <__rc7>
    6526: d0 15        	bne	$653d <__udivmodsi4+0x42>
    6528: a6 11        	ldx	$11                     ; 0x11 <__rc15>
    652a: e4 08        	cpx	$8                      ; 0x8 <__rc6>
    652c: d0 1e        	bne	$654c <__udivmodsi4+0x51>
    652e: a6 05        	ldx	$5                      ; 0x5 <__rc3>
    6530: e4 07        	cpx	$7                      ; 0x7 <__rc5>
    6532: f0 03        	beq	$6537 <__udivmodsi4+0x3c>
    6534: 4c 98 66     	jmp	$6698 <__udivmodsi4+0x19d>
    6537: c5 06        	cmp	$6                      ; 0x6 <__rc4>
    6539: 90 06        	bcc	$6541 <__udivmodsi4+0x46>
    653b: 80 13        	bra	$6550 <__udivmodsi4+0x55>
    653d: e4 09        	cpx	$9                      ; 0x9 <__rc7>
    653f: b0 0f        	bcs	$6550 <__udivmodsi4+0x55>
    6541: 84 07        	sty	$7                      ; 0x7 <__rc5>
    6543: a6 04        	ldx	$4                      ; 0x4 <__rc2>
    6545: 86 06        	stx	$6                      ; 0x6 <__rc4>
    6547: a2 00        	ldx	#$0
    6549: 4c 7b 66     	jmp	$667b <__udivmodsi4+0x180>
    654c: e4 08        	cpx	$8                      ; 0x8 <__rc6>
    654e: 90 f1        	bcc	$6541 <__udivmodsi4+0x46>
    6550: a6 09        	ldx	$9                      ; 0x9 <__rc7>
    6552: 10 03        	bpl	$6557 <__udivmodsi4+0x5c>
    6554: 4c 63 66     	jmp	$6663 <__udivmodsi4+0x168>
    6557: a2 00        	ldx	#$0
    6559: a4 06        	ldy	$6                      ; 0x6 <__rc4>
    655b: 84 0d        	sty	$d                      ; 0xd <__rc11>
    655d: a4 07        	ldy	$7                      ; 0x7 <__rc5>
    655f: 84 0e        	sty	$e                      ; 0xe <__rc12>
    6561: a4 08        	ldy	$8                      ; 0x8 <__rc6>
    6563: 84 0f        	sty	$f                      ; 0xf <__rc13>
    6565: a4 09        	ldy	$9                      ; 0x9 <__rc7>
    6567: 84 10        	sty	$10                     ; 0x10 <__rc14>
    6569: 06 0d        	asl	$d                      ; 0xd <__rc11>
    656b: 26 0e        	rol	$e                      ; 0xe <__rc12>
    656d: 26 0f        	rol	$f                      ; 0xf <__rc13>
    656f: 26 10        	rol	$10                     ; 0x10 <__rc14>
    6571: a4 04        	ldy	$4                      ; 0x4 <__rc2>
    6573: c4 10        	cpy	$10                     ; 0x10 <__rc14>
    6575: d0 12        	bne	$6589 <__udivmodsi4+0x8e>
    6577: a4 11        	ldy	$11                     ; 0x11 <__rc15>
    6579: c4 0f        	cpy	$f                      ; 0xf <__rc13>
    657b: d0 12        	bne	$658f <__udivmodsi4+0x94>
    657d: a4 05        	ldy	$5                      ; 0x5 <__rc3>
    657f: c4 0e        	cpy	$e                      ; 0xe <__rc12>
    6581: d0 12        	bne	$6595 <__udivmodsi4+0x9a>
    6583: c5 0d        	cmp	$d                      ; 0xd <__rc11>
    6585: 90 28        	bcc	$65af <__udivmodsi4+0xb4>
    6587: 80 10        	bra	$6599 <__udivmodsi4+0x9e>
    6589: c4 10        	cpy	$10                     ; 0x10 <__rc14>
    658b: b0 0c        	bcs	$6599 <__udivmodsi4+0x9e>
    658d: 80 20        	bra	$65af <__udivmodsi4+0xb4>
    658f: c4 0f        	cpy	$f                      ; 0xf <__rc13>
    6591: 90 1c        	bcc	$65af <__udivmodsi4+0xb4>
    6593: 80 04        	bra	$6599 <__udivmodsi4+0x9e>
    6595: c4 0e        	cpy	$e                      ; 0xe <__rc12>
    6597: 90 16        	bcc	$65af <__udivmodsi4+0xb4>
    6599: e8           	inx
    659a: a4 0d        	ldy	$d                      ; 0xd <__rc11>
    659c: 84 06        	sty	$6                      ; 0x6 <__rc4>
    659e: a4 0e        	ldy	$e                      ; 0xe <__rc12>
    65a0: 84 07        	sty	$7                      ; 0x7 <__rc5>
    65a2: a4 0f        	ldy	$f                      ; 0xf <__rc13>
    65a4: 84 08        	sty	$8                      ; 0x8 <__rc6>
    65a6: a4 10        	ldy	$10                     ; 0x10 <__rc14>
    65a8: 84 09        	sty	$9                      ; 0x9 <__rc7>
    65aa: 30 13        	bmi	$65bf <__udivmodsi4+0xc4>
    65ac: 4c 69 65     	jmp	$6569 <__udivmodsi4+0x6e>
    65af: a4 06        	ldy	$6                      ; 0x6 <__rc4>
    65b1: 84 0d        	sty	$d                      ; 0xd <__rc11>
    65b3: a4 07        	ldy	$7                      ; 0x7 <__rc5>
    65b5: 84 0e        	sty	$e                      ; 0xe <__rc12>
    65b7: a4 08        	ldy	$8                      ; 0x8 <__rc6>
    65b9: 84 0f        	sty	$f                      ; 0xf <__rc13>
    65bb: a4 09        	ldy	$9                      ; 0x9 <__rc7>
    65bd: 84 10        	sty	$10                     ; 0x10 <__rc14>
    65bf: 38           	sec
    65c0: e5 0d        	sbc	$d                      ; 0xd <__rc11>
    65c2: 85 08        	sta	$8                      ; 0x8 <__rc6>
    65c4: a5 05        	lda	$5                      ; 0x5 <__rc3>
    65c6: e5 0e        	sbc	$e                      ; 0xe <__rc12>
    65c8: 85 07        	sta	$7                      ; 0x7 <__rc5>
    65ca: a5 11        	lda	$11                     ; 0x11 <__rc15>
    65cc: e5 0f        	sbc	$f                      ; 0xf <__rc13>
    65ce: a8           	tay
    65cf: a5 04        	lda	$4                      ; 0x4 <__rc2>
    65d1: e5 10        	sbc	$10                     ; 0x10 <__rc14>
    65d3: 85 06        	sta	$6                      ; 0x6 <__rc4>
    65d5: 8a           	txa
    65d6: d0 03        	bne	$65db <__udivmodsi4+0xe0>
    65d8: 4c a2 66     	jmp	$66a2 <__udivmodsi4+0x1a7>
    65db: a9 01        	lda	#$1
    65dd: 85 63        	sta	$63                     ; 0x63 <__rc31+0x42>
    65df: 64 0c        	stz	$c                      ; 0xc <__rc10>
    65e1: 64 04        	stz	$4                      ; 0x4 <__rc2>
    65e3: 64 05        	stz	$5                      ; 0x5 <__rc3>
    65e5: 84 11        	sty	$11                     ; 0x11 <__rc15>
    65e7: a5 08        	lda	$8                      ; 0x8 <__rc6>
    65e9: 46 10        	lsr	$10                     ; 0x10 <__rc14>
    65eb: 66 0f        	ror	$f                      ; 0xf <__rc13>
    65ed: 66 0e        	ror	$e                      ; 0xe <__rc12>
    65ef: 66 0d        	ror	$d                      ; 0xd <__rc11>
    65f1: a4 63        	ldy	$63                     ; 0x63 <__rc31+0x42>
    65f3: 84 08        	sty	$8                      ; 0x8 <__rc6>
    65f5: 06 08        	asl	$8                      ; 0x8 <__rc6>
    65f7: a0 01        	ldy	#$1
    65f9: b0 02        	bcs	$65fd <__udivmodsi4+0x102>
    65fb: a0 00        	ldy	#$0
    65fd: 84 09        	sty	$9                      ; 0x9 <__rc7>
    65ff: a4 08        	ldy	$8                      ; 0x8 <__rc6>
    6601: 84 63        	sty	$63                     ; 0x63 <__rc31+0x42>
    6603: a4 06        	ldy	$6                      ; 0x6 <__rc4>
    6605: c4 10        	cpy	$10                     ; 0x10 <__rc14>
    6607: d0 18        	bne	$6621 <__udivmodsi4+0x126>
    6609: a4 11        	ldy	$11                     ; 0x11 <__rc15>
    660b: c4 0f        	cpy	$f                      ; 0xf <__rc13>
    660d: f0 03        	beq	$6612 <__udivmodsi4+0x117>
    660f: 4c 55 66     	jmp	$6655 <__udivmodsi4+0x15a>
    6612: a4 07        	ldy	$7                      ; 0x7 <__rc5>
    6614: c4 0e        	cpy	$e                      ; 0xe <__rc12>
    6616: f0 03        	beq	$661b <__udivmodsi4+0x120>
    6618: 4c 5c 66     	jmp	$665c <__udivmodsi4+0x161>
    661b: c5 0d        	cmp	$d                      ; 0xd <__rc11>
    661d: b0 06        	bcs	$6625 <__udivmodsi4+0x12a>
    661f: 80 24        	bra	$6645 <__udivmodsi4+0x14a>
    6621: c4 10        	cpy	$10                     ; 0x10 <__rc14>
    6623: 90 20        	bcc	$6645 <__udivmodsi4+0x14a>
    6625: 38           	sec
    6626: e5 0d        	sbc	$d                      ; 0xd <__rc11>
    6628: 85 08        	sta	$8                      ; 0x8 <__rc6>
    662a: a5 07        	lda	$7                      ; 0x7 <__rc5>
    662c: e5 0e        	sbc	$e                      ; 0xe <__rc12>
    662e: 85 07        	sta	$7                      ; 0x7 <__rc5>
    6630: a5 11        	lda	$11                     ; 0x11 <__rc15>
    6632: e5 0f        	sbc	$f                      ; 0xf <__rc13>
    6634: a8           	tay
    6635: a5 06        	lda	$6                      ; 0x6 <__rc4>
    6637: e5 10        	sbc	$10                     ; 0x10 <__rc14>
    6639: 85 06        	sta	$6                      ; 0x6 <__rc4>
    663b: 84 11        	sty	$11                     ; 0x11 <__rc15>
    663d: a5 63        	lda	$63                     ; 0x63 <__rc31+0x42>
    663f: 09 01        	ora	#$1
    6641: 85 63        	sta	$63                     ; 0x63 <__rc31+0x42>
    6643: a5 08        	lda	$8                      ; 0x8 <__rc6>
    6645: a4 09        	ldy	$9                      ; 0x9 <__rc7>
    6647: c0 01        	cpy	#$1
    6649: 26 0c        	rol	$c                      ; 0xc <__rc10>
    664b: 26 04        	rol	$4                      ; 0x4 <__rc2>
    664d: 26 05        	rol	$5                      ; 0x5 <__rc3>
    664f: ca           	dex
    6650: f0 2f        	beq	$6681 <__udivmodsi4+0x186>
    6652: 4c e9 65     	jmp	$65e9 <__udivmodsi4+0xee>
    6655: c4 0f        	cpy	$f                      ; 0xf <__rc13>
    6657: 90 ec        	bcc	$6645 <__udivmodsi4+0x14a>
    6659: 4c 25 66     	jmp	$6625 <__udivmodsi4+0x12a>
    665c: c4 0e        	cpy	$e                      ; 0xe <__rc12>
    665e: 90 e5        	bcc	$6645 <__udivmodsi4+0x14a>
    6660: 4c 25 66     	jmp	$6625 <__udivmodsi4+0x12a>
    6663: 38           	sec
    6664: e5 06        	sbc	$6                      ; 0x6 <__rc4>
    6666: aa           	tax
    6667: 98           	tya
    6668: e5 07        	sbc	$7                      ; 0x7 <__rc5>
    666a: 85 07        	sta	$7                      ; 0x7 <__rc5>
    666c: a5 11        	lda	$11                     ; 0x11 <__rc15>
    666e: e5 08        	sbc	$8                      ; 0x8 <__rc6>
    6670: 85 11        	sta	$11                     ; 0x11 <__rc15>
    6672: a5 04        	lda	$4                      ; 0x4 <__rc2>
    6674: e5 09        	sbc	$9                      ; 0x9 <__rc7>
    6676: 85 06        	sta	$6                      ; 0x6 <__rc4>
    6678: 8a           	txa
    6679: a2 01        	ldx	#$1
    667b: 86 63        	stx	$63                     ; 0x63 <__rc31+0x42>
    667d: 64 04        	stz	$4                      ; 0x4 <__rc2>
    667f: 64 05        	stz	$5                      ; 0x5 <__rc3>
    6681: 92 0a        	sta	($a),z                  ; 0xa <__zp_data_size>
    6683: a0 01        	ldy	#$1
    6685: a5 07        	lda	$7                      ; 0x7 <__rc5>
    6687: 91 0a        	sta	($a),y                  ; 0xa <__zp_data_size>
    6689: c8           	iny
    668a: a5 11        	lda	$11                     ; 0x11 <__rc15>
    668c: 91 0a        	sta	($a),y                  ; 0xa <__zp_data_size>
    668e: c8           	iny
    668f: a5 06        	lda	$6                      ; 0x6 <__rc4>
    6691: 91 0a        	sta	($a),y                  ; 0xa <__zp_data_size>
    6693: a6 0c        	ldx	$c                      ; 0xc <__rc10>
    6695: a5 63        	lda	$63                     ; 0x63 <__rc31+0x42>
    6697: 60           	rts
    6698: e4 07        	cpx	$7                      ; 0x7 <__rc5>
    669a: b0 03        	bcs	$669f <__udivmodsi4+0x1a4>
    669c: 4c 41 65     	jmp	$6541 <__udivmodsi4+0x46>
    669f: 4c 50 65     	jmp	$6550 <__udivmodsi4+0x55>
    66a2: a2 01        	ldx	#$1
    66a4: 86 63        	stx	$63                     ; 0x63 <__rc31+0x42>
    66a6: 64 04        	stz	$4                      ; 0x4 <__rc2>
    66a8: 64 05        	stz	$5                      ; 0x5 <__rc3>
    66aa: 84 11        	sty	$11                     ; 0x11 <__rc15>
    66ac: a5 08        	lda	$8                      ; 0x8 <__rc6>
    66ae: 80 d1        	bra	$6681 <__udivmodsi4+0x186>
    66b0: 84 07        	sty	$7                      ; 0x7 <__rc5>
    66b2: 4c 45 65     	jmp	$6545 <__udivmodsi4+0x4a>
