
midnightmega.prg.elf:	file format elf32-mos

SYMBOL TABLE:
0000205b l       .text	00000000 fourbytes
0000205f l       .text	00000000 lpstore
0000207a l       .text	00000000 lprestore
00000000 l    df *ABS*	00000000 exit-return.c
00002015 l       .basic_header	00000000 next_line
00000000 l    df *ABS*	00000000 divmod-large.cc
00000000 l    df *ABS*	00000000 zero-bss.c
00000000 l    df *ABS*	00000000 zero-zp-bss.c
00000000 l    df *ABS*	00000000 copy-zp-data.c
00000000 l    df *ABS*	00000000 ld-temp.o
0000d640 l       *ABS*	00000000 HTRAP00
00000054 l     O .zp.bss	00000001 g_curScreenW
00000055 l     O .zp.bss	00000001 g_curScreenH
00006aec l     O .bss	000002fd escapeCode
00005e3f l     F .text	00000001 escNOP
00005758 l     F .text	0000004a asciitoscreencode_s
00000056 l     O .zp.bss	00000001 g_curX
00000057 l     O .zp.bss	00000001 g_curY
00005f2e l     F .text	000000dd cputsxy
0000556a l     F .text	00000137 cputln
00000035 l     O .zp.data	00000001 g_curTextColor
000057a2 l     F .text	000000a5 clrhome
00005acf l     F .text	000001e2 messagebox
00000031 l     O .zp.data	00000004 midnight
00005cb1 l     F .text	0000018e UpdateSectors
00006ac4 l     O .bss	00000028 s
000056a1 l     F .text	000000b7 csputdec
00005e40 l     F .text	000000ee cputcxy
00005876 l     F .text	00000259 mcbox
00000037 l     O .zp.bss	00000002 BAMsector.0
00000039 l     O .zp.bss	00000002 BAMsector.1
0000003b l     O .zp.bss	00000002 worksector.0
0000003d l     O .zp.bss	00000002 worksectorasBAM.0
0000003f l     O .zp.bss	00000002 direntryblock.0
00000041 l     O .zp.bss	00000002 direntryblock.1
00004e21 l     F .text	0000004a GetOneSector
00000043 l     O .zp.bss	00000011 dosfilename
000053bc l     F .text	00000117 getdirententry
00004f55 l     F .text	0000012c readblockchain
00004ef2 l     F .text	0000003b GetBAM
000052c5 l     F .text	000000f7 findnextBAMtracksector
0000600b l     F .text	0000008b lcopy
00004e6b l     F .text	00000087 PutOneSector
00006632 l     O .bss	00000492 filelist
0000610a l     F .text	00000038 strcpy
000041c3 l       .text	00000000 hypreaddirloop0
000041db l       .text	00000000 errhypreaddir0
000041dd l       .text	00000000 donehypreaddir0
00005847 l     F .text	0000002f mprintf
0000424f l       .text	00000000 errgetcurdrv1
00004253 l       .text	00000000 donegetcurdrv1
0000426b l       .text	00000000 errhypopendir2
0000426f l       .text	00000000 donehypopendir2
00000036 l     O .zp.bss	00000001 fnamehi
00004339 l       .text	00000000 errhypsetnam3
0000433d l       .text	00000000 donehypsetnam3
00004353 l       .text	00000000 errhyp1att4
00004357 l       .text	00000000 donehyp1att4
00004381 l       .text	00000000 errhyp0att5
00004385 l       .text	00000000 donehyp0att5
000054d3 l     F .text	00000097 getdirent
00005081 l     F .text	00000244 BAMSectorUpdate
00006096 l     F .text	00000074 lfill
00004f2d l     F .text	00000028 PutBAM
00004b2a l       .text	00000000 errhypclosedir6
00004b2c l       .text	00000000 donehypclosedir6
00004dda l     F .text	00000047 ReadSector
00000058 l     O .zp.bss	00000014 dmalist
00006142 l     F .text	00000034 strlen
00003586 g     F .text	00001854 main
00002095 g       .text	00000000 lpoke
000020b6 g       .text	00000000 lpeek
00000007 g       *ABS*	00000000 __rc5
00000008 g       *ABS*	00000000 __rc6
00000009 g       *ABS*	00000000 __rc7
0000000a g       *ABS*	00000000 __rc8
00000004 g       *ABS*	00000000 __rc2
00000005 g       *ABS*	00000000 __rc3
00000006 g       *ABS*	00000000 __rc4
0000204d g       .text	00000000 __after_main
00002039 g       .text	00000000 __do_init_stack
00002047 g       .text	00000000 __do_copy_zp_data
0000356f g     F .text	00000017 __copy_zp_data
00002041 g       .text	00000000 __do_zero_bss
00003549 g     F .text	00000013 __zero_bss
00002044 g       .text	00000000 __do_zero_zp_bss
0000355c g     F .text	00000013 __zero_zp_bss
000020d4 g     F .text	0000000a __exit_return
00002050 g       .text	00000000 _fini
0000d000 g       *ABS*	00000000 __stack
00000002 g       *ABS*	00000000 __rc0
00000003 g       *ABS*	00000000 __rc1
00006246 g     F .text	000000da __udivmodhi4
000020de g     F .text	00000252 __udivmodsi4
00002330 g     F .text	000005af __udivmoddi4
000028df g     F .text	00000399 __divmodsi4
00002c78 g     F .text	000008d1 __divmoddi4
00006189 g     F .text	0000001b __mulqi3
000061a4 g     F .text	00000032 __mulhi3
000061d6 g     F .text	00000070 __mulsi3
00006176 g     F .text	00000013 __ashlhi3
00006320  w    F .text	0000002d memcpy
0000634d  w    F .text	0000001f __memset
0000202b g       .text	00000000 _start
00000002 g       *ABS*	00000000 __basic_zp_start
0000000b g       *ABS*	00000000 __rc9
0000000c g       *ABS*	00000000 __rc10
0000000d g       *ABS*	00000000 __rc11
0000000e g       *ABS*	00000000 __rc12
0000000f g       *ABS*	00000000 __rc13
00000010 g       *ABS*	00000000 __rc14
00000011 g       *ABS*	00000000 __rc15
00000012 g       *ABS*	00000000 __rc16
00000013 g       *ABS*	00000000 __rc17
00000014 g       *ABS*	00000000 __rc18
00000015 g       *ABS*	00000000 __rc19
00000016 g       *ABS*	00000000 __rc20
00000017 g       *ABS*	00000000 __rc21
00000018 g       *ABS*	00000000 __rc22
00000019 g       *ABS*	00000000 __rc23
0000001a g       *ABS*	00000000 __rc24
0000001b g       *ABS*	00000000 __rc25
0000001c g       *ABS*	00000000 __rc26
0000001d g       *ABS*	00000000 __rc27
0000001e g       *ABS*	00000000 __rc28
0000001f g       *ABS*	00000000 __rc29
00000020 g       *ABS*	00000000 __rc30
00000021 g       *ABS*	00000000 __rc31
00000090 g       *ABS*	00000000 __basic_zp_end
00000022 g       .zp.data	00000000 __zp_data_start
00002017 g       *ABS*	00000000 __zp_data_load_start
00000014 g       *ABS*	00000000 __zp_data_size
00000036 g       .zp.bss	00000000 __zp_bss_start
00000036 g       *ABS*	00000000 __zp_bss_size
0000202b g       .text	00000000 _init
0000636c g       .text	00000000 __init_array_start
0000636c g       .text	00000000 __init_array_end
0000636c g       .text	00000000 __fini_array_start
0000636c g       .text	00000000 __fini_array_end
00006632 g       .data	00000000 __data_start
00006632 g       .data	00000000 __data_end
00006632 g       *ABS*	00000000 __data_load_start
00000000 g       *ABS*	00000000 __data_size
00006632 g       .bss	00000000 __bss_start
00006de9 g       .bss	00000000 __bss_end
000007b7 g       *ABS*	00000000 __bss_size
00006dea g       .noinit	00000000 __heap_start

Disassembly of section .text:

0000202b <_start>:
    202b: 78           	sei
    202c: a2 2f        	ldx	#$2f
    202e: 86 00        	stx	$0                      ; 0x0 <__data_size>
    2030: a2 3e        	ldx	#$3e
    2032: 86 01        	stx	$1                      ; 0x1 <__data_size+0x1>
    2034: a2 44        	ldx	#$44
    2036: 8e 30 d0     	stx	$d030                   ; 0xd030 <__heap_start+0x6246>

00002039 <__do_init_stack>:
    2039: a9 00        	lda	#$0
    203b: 85 02        	sta	$2                      ; 0x2 <__rc0>
    203d: a9 d0        	lda	#$d0
    203f: 85 03        	sta	$3                      ; 0x3 <__rc1>

00002041 <__do_zero_bss>:
    2041: 20 49 35     	jsr	$3549 <__zero_bss>

00002044 <__do_zero_zp_bss>:
    2044: 20 5c 35     	jsr	$355c <__zero_zp_bss>

00002047 <__do_copy_zp_data>:
    2047: 20 6f 35     	jsr	$356f <__copy_zp_data>
    204a: 20 86 35     	jsr	$3586 <main>

0000204d <__after_main>:
    204d: 4c d4 20     	jmp	$20d4 <__exit_return>

00002050 <_fini>:
    2050: a2 3f        	ldx	#$3f
    2052: 86 01        	stx	$1                      ; 0x1 <__data_size+0x1>
    2054: a2 64        	ldx	#$64
    2056: 8e 30 d0     	stx	$d030                   ; 0xd030 <__heap_start+0x6246>
    2059: 58           	cli
    205a: 60           	rts

0000205b <fourbytes>:
    205b: 00           	brk
    205c: 00           	brk
    205d: 00           	brk
    205e: 00           	brk

0000205f <lpstore>:
    205f: 48           	pha
    2060: ad 07 00     	lda	$7                      ; 0x7 <__rc5>
    2063: 8d 5b 20     	sta	$205b                   ; 0x205b <fourbytes>
    2066: ad 08 00     	lda	$8                      ; 0x8 <__rc6>
    2069: 8d 5c 20     	sta	$205c                   ; 0x205c <fourbytes+0x1>
    206c: ad 09 00     	lda	$9                      ; 0x9 <__rc7>
    206f: 8d 5d 20     	sta	$205d                   ; 0x205d <fourbytes+0x2>
    2072: ad 0a 00     	lda	$a                      ; 0xa <__rc8>
    2075: 8d 5e 20     	sta	$205e                   ; 0x205e <fourbytes+0x3>
    2078: 68           	pla
    2079: 60           	rts

0000207a <lprestore>:
    207a: 48           	pha
    207b: ad 5b 20     	lda	$205b                   ; 0x205b <fourbytes>
    207e: 8d 07 00     	sta	$7                      ; 0x7 <__rc5>
    2081: ad 5c 20     	lda	$205c                   ; 0x205c <fourbytes+0x1>
    2084: 8d 08 00     	sta	$8                      ; 0x8 <__rc6>
    2087: ad 5d 20     	lda	$205d                   ; 0x205d <fourbytes+0x2>
    208a: 8d 09 00     	sta	$9                      ; 0x9 <__rc7>
    208d: ad 5e 20     	lda	$205e                   ; 0x205e <fourbytes+0x3>
    2090: 8d 0a 00     	sta	$a                      ; 0xa <__rc8>
    2093: 68           	pla
    2094: 60           	rts

00002095 <lpoke>:
    2095: 20 5f 20     	jsr	$205f <lpstore>
    2098: 8d 07 00     	sta	$7                      ; 0x7 <__rc5>
    209b: 8e 08 00     	stx	$8                      ; 0x8 <__rc6>
    209e: ad 04 00     	lda	$4                      ; 0x4 <__rc2>
    20a1: 8d 09 00     	sta	$9                      ; 0x9 <__rc7>
    20a4: ad 05 00     	lda	$5                      ; 0x5 <__rc3>
    20a7: 8d 0a 00     	sta	$a                      ; 0xa <__rc8>
    20aa: ad 06 00     	lda	$6                      ; 0x6 <__rc4>
    20ad: a3 00        	ldz	#$0
    20af: ea 92 07     	sta	[$7],z                  ; 0x7 <__rc5>
    20b2: 20 7a 20     	jsr	$207a <lprestore>
    20b5: 60           	rts

000020b6 <lpeek>:
    20b6: 20 5f 20     	jsr	$205f <lpstore>
    20b9: 8d 06 00     	sta	$6                      ; 0x6 <__rc4>
    20bc: 8e 07 00     	stx	$7                      ; 0x7 <__rc5>
    20bf: ad 04 00     	lda	$4                      ; 0x4 <__rc2>
    20c2: 8d 08 00     	sta	$8                      ; 0x8 <__rc6>
    20c5: ad 05 00     	lda	$5                      ; 0x5 <__rc3>
    20c8: 8d 09 00     	sta	$9                      ; 0x9 <__rc7>
    20cb: a3 00        	ldz	#$0
    20cd: ea b2 06     	lda	[$6],z                  ; 0x6 <__rc4>
    20d0: 20 7a 20     	jsr	$207a <lprestore>
    20d3: 60           	rts

000020d4 <__exit_return>:
    20d4: 8d e9 6d     	sta	$6de9                   ; 0x6de9 <__data_load_start+0x7b7>
    20d7: 20 50 20     	jsr	$2050 <_fini>
    20da: ad e9 6d     	lda	$6de9                   ; 0x6de9 <__data_load_start+0x7b7>
    20dd: 60           	rts

000020de <__udivmodsi4>:
    20de: 48           	pha
    20df: 18           	clc
    20e0: a5 02        	lda	$2                      ; 0x2 <__rc0>
    20e2: 69 fc        	adc	#$fc
    20e4: 85 02        	sta	$2                      ; 0x2 <__rc0>
    20e6: a5 03        	lda	$3                      ; 0x3 <__rc1>
    20e8: 69 ff        	adc	#$ff
    20ea: 85 03        	sta	$3                      ; 0x3 <__rc1>
    20ec: 68           	pla
    20ed: 86 10        	stx	$10                     ; 0x10 <__rc14>
    20ef: a6 04        	ldx	$4                      ; 0x4 <__rc2>
    20f1: 86 0e        	stx	$e                      ; 0xe <__rc12>
    20f3: a6 05        	ldx	$5                      ; 0x5 <__rc3>
    20f5: a0 00        	ldy	#$0
    20f7: e6 09        	inc	$9                      ; 0x9 <__rc7>
    20f9: c6 09        	dec	$9                      ; 0x9 <__rc7>
    20fb: d0 15        	bne	$2112 <__udivmodsi4+0x34>
    20fd: e6 08        	inc	$8                      ; 0x8 <__rc6>
    20ff: c6 08        	dec	$8                      ; 0x8 <__rc6>
    2101: d0 0f        	bne	$2112 <__udivmodsi4+0x34>
    2103: e6 07        	inc	$7                      ; 0x7 <__rc5>
    2105: c6 07        	dec	$7                      ; 0x7 <__rc5>
    2107: d0 09        	bne	$2112 <__udivmodsi4+0x34>
    2109: e6 06        	inc	$6                      ; 0x6 <__rc4>
    210b: c6 06        	dec	$6                      ; 0x6 <__rc4>
    210d: d0 03        	bne	$2112 <__udivmodsi4+0x34>
    210f: 4c 2b 23     	jmp	$232b <__udivmodsi4+0x24d>
    2112: 86 11        	stx	$11                     ; 0x11 <__rc15>
    2114: e4 09        	cpx	$9                      ; 0x9 <__rc7>
    2116: d0 16        	bne	$212e <__udivmodsi4+0x50>
    2118: a6 04        	ldx	$4                      ; 0x4 <__rc2>
    211a: e4 08        	cpx	$8                      ; 0x8 <__rc6>
    211c: d0 1e        	bne	$213c <__udivmodsi4+0x5e>
    211e: a6 10        	ldx	$10                     ; 0x10 <__rc14>
    2120: e4 07        	cpx	$7                      ; 0x7 <__rc5>
    2122: f0 03        	beq	$2127 <__udivmodsi4+0x49>
    2124: 4c 06 23     	jmp	$2306 <__udivmodsi4+0x228>
    2127: c5 06        	cmp	$6                      ; 0x6 <__rc4>
    2129: 90 07        	bcc	$2132 <__udivmodsi4+0x54>
    212b: 4c 40 21     	jmp	$2140 <__udivmodsi4+0x62>
    212e: e4 09        	cpx	$9                      ; 0x9 <__rc7>
    2130: b0 0e        	bcs	$2140 <__udivmodsi4+0x62>
    2132: 85 0f        	sta	$f                      ; 0xf <__rc13>
    2134: a6 11        	ldx	$11                     ; 0x11 <__rc15>
    2136: 86 06        	stx	$6                      ; 0x6 <__rc4>
    2138: 98           	tya
    2139: 4c ac 22     	jmp	$22ac <__udivmodsi4+0x1ce>
    213c: e4 08        	cpx	$8                      ; 0x8 <__rc6>
    213e: 90 f2        	bcc	$2132 <__udivmodsi4+0x54>
    2140: a6 09        	ldx	$9                      ; 0x9 <__rc7>
    2142: 10 03        	bpl	$2147 <__udivmodsi4+0x69>
    2144: 4c 92 22     	jmp	$2292 <__udivmodsi4+0x1b4>
    2147: a2 00        	ldx	#$0
    2149: a4 06        	ldy	$6                      ; 0x6 <__rc4>
    214b: 84 04        	sty	$4                      ; 0x4 <__rc2>
    214d: a4 07        	ldy	$7                      ; 0x7 <__rc5>
    214f: 84 05        	sty	$5                      ; 0x5 <__rc3>
    2151: a4 08        	ldy	$8                      ; 0x8 <__rc6>
    2153: 84 0c        	sty	$c                      ; 0xc <__rc10>
    2155: a4 09        	ldy	$9                      ; 0x9 <__rc7>
    2157: 84 0d        	sty	$d                      ; 0xd <__rc11>
    2159: 06 04        	asl	$4                      ; 0x4 <__rc2>
    215b: 26 05        	rol	$5                      ; 0x5 <__rc3>
    215d: 26 0c        	rol	$c                      ; 0xc <__rc10>
    215f: 26 0d        	rol	$d                      ; 0xd <__rc11>
    2161: a4 11        	ldy	$11                     ; 0x11 <__rc15>
    2163: c4 0d        	cpy	$d                      ; 0xd <__rc11>
    2165: d0 13        	bne	$217a <__udivmodsi4+0x9c>
    2167: a4 0e        	ldy	$e                      ; 0xe <__rc12>
    2169: c4 0c        	cpy	$c                      ; 0xc <__rc10>
    216b: d0 14        	bne	$2181 <__udivmodsi4+0xa3>
    216d: a4 10        	ldy	$10                     ; 0x10 <__rc14>
    216f: c4 05        	cpy	$5                      ; 0x5 <__rc3>
    2171: d0 15        	bne	$2188 <__udivmodsi4+0xaa>
    2173: c5 04        	cmp	$4                      ; 0x4 <__rc2>
    2175: 90 2b        	bcc	$21a2 <__udivmodsi4+0xc4>
    2177: 4c 8c 21     	jmp	$218c <__udivmodsi4+0xae>
    217a: c4 0d        	cpy	$d                      ; 0xd <__rc11>
    217c: b0 0e        	bcs	$218c <__udivmodsi4+0xae>
    217e: 4c a2 21     	jmp	$21a2 <__udivmodsi4+0xc4>
    2181: c4 0c        	cpy	$c                      ; 0xc <__rc10>
    2183: 90 1d        	bcc	$21a2 <__udivmodsi4+0xc4>
    2185: 4c 8c 21     	jmp	$218c <__udivmodsi4+0xae>
    2188: c4 05        	cpy	$5                      ; 0x5 <__rc3>
    218a: 90 16        	bcc	$21a2 <__udivmodsi4+0xc4>
    218c: e8           	inx
    218d: a4 04        	ldy	$4                      ; 0x4 <__rc2>
    218f: 84 06        	sty	$6                      ; 0x6 <__rc4>
    2191: a4 05        	ldy	$5                      ; 0x5 <__rc3>
    2193: 84 07        	sty	$7                      ; 0x7 <__rc5>
    2195: a4 0c        	ldy	$c                      ; 0xc <__rc10>
    2197: 84 08        	sty	$8                      ; 0x8 <__rc6>
    2199: a4 0d        	ldy	$d                      ; 0xd <__rc11>
    219b: 84 09        	sty	$9                      ; 0x9 <__rc7>
    219d: 10 ba        	bpl	$2159 <__udivmodsi4+0x7b>
    219f: 4c b2 21     	jmp	$21b2 <__udivmodsi4+0xd4>
    21a2: a4 06        	ldy	$6                      ; 0x6 <__rc4>
    21a4: 84 04        	sty	$4                      ; 0x4 <__rc2>
    21a6: a4 07        	ldy	$7                      ; 0x7 <__rc5>
    21a8: 84 05        	sty	$5                      ; 0x5 <__rc3>
    21aa: a4 08        	ldy	$8                      ; 0x8 <__rc6>
    21ac: 84 0c        	sty	$c                      ; 0xc <__rc10>
    21ae: a4 09        	ldy	$9                      ; 0x9 <__rc7>
    21b0: 84 0d        	sty	$d                      ; 0xd <__rc11>
    21b2: 38           	sec
    21b3: e5 04        	sbc	$4                      ; 0x4 <__rc2>
    21b5: 85 0f        	sta	$f                      ; 0xf <__rc13>
    21b7: a5 10        	lda	$10                     ; 0x10 <__rc14>
    21b9: e5 05        	sbc	$5                      ; 0x5 <__rc3>
    21bb: 85 10        	sta	$10                     ; 0x10 <__rc14>
    21bd: a5 0e        	lda	$e                      ; 0xe <__rc12>
    21bf: e5 0c        	sbc	$c                      ; 0xc <__rc10>
    21c1: 85 07        	sta	$7                      ; 0x7 <__rc5>
    21c3: a5 11        	lda	$11                     ; 0x11 <__rc15>
    21c5: e5 0d        	sbc	$d                      ; 0xd <__rc11>
    21c7: e0 00        	cpx	#$0
    21c9: d0 03        	bne	$21ce <__udivmodsi4+0xf0>
    21cb: 4c 10 23     	jmp	$2310 <__udivmodsi4+0x232>
    21ce: 85 06        	sta	$6                      ; 0x6 <__rc4>
    21d0: a9 00        	lda	#$0
    21d2: a0 02        	ldy	#$2
    21d4: 91 02        	sta	($2),y                  ; 0x2 <__rc0>
    21d6: 88           	dey
    21d7: 98           	tya
    21d8: a0 03        	ldy	#$3
    21da: 91 02        	sta	($2),y                  ; 0x2 <__rc0>
    21dc: a0 00        	ldy	#$0
    21de: 98           	tya
    21df: c8           	iny
    21e0: 91 02        	sta	($2),y                  ; 0x2 <__rc0>
    21e2: 88           	dey
    21e3: 98           	tya
    21e4: 91 02        	sta	($2),y                  ; 0x2 <__rc0>
    21e6: a4 07        	ldy	$7                      ; 0x7 <__rc5>
    21e8: 84 0e        	sty	$e                      ; 0xe <__rc12>
    21ea: 46 0d        	lsr	$d                      ; 0xd <__rc11>
    21ec: 66 0c        	ror	$c                      ; 0xc <__rc10>
    21ee: 66 05        	ror	$5                      ; 0x5 <__rc3>
    21f0: 66 04        	ror	$4                      ; 0x4 <__rc2>
    21f2: a0 03        	ldy	#$3
    21f4: b1 02        	lda	($2),y                  ; 0x2 <__rc0>
    21f6: 0a           	asl
    21f7: 84 13        	sty	$13                     ; 0x13 <__rc17>
    21f9: a0 01        	ldy	#$1
    21fb: b0 02        	bcs	$21ff <__udivmodsi4+0x121>
    21fd: a0 00        	ldy	#$0
    21ff: 84 11        	sty	$11                     ; 0x11 <__rc15>
    2201: a4 13        	ldy	$13                     ; 0x13 <__rc17>
    2203: 91 02        	sta	($2),y                  ; 0x2 <__rc0>
    2205: a4 06        	ldy	$6                      ; 0x6 <__rc4>
    2207: c4 0d        	cpy	$d                      ; 0xd <__rc11>
    2209: d0 1b        	bne	$2226 <__udivmodsi4+0x148>
    220b: a5 0e        	lda	$e                      ; 0xe <__rc12>
    220d: c5 0c        	cmp	$c                      ; 0xc <__rc10>
    220f: f0 03        	beq	$2214 <__udivmodsi4+0x136>
    2211: 4c 84 22     	jmp	$2284 <__udivmodsi4+0x1a6>
    2214: a4 10        	ldy	$10                     ; 0x10 <__rc14>
    2216: c4 05        	cpy	$5                      ; 0x5 <__rc3>
    2218: f0 03        	beq	$221d <__udivmodsi4+0x13f>
    221a: 4c 8b 22     	jmp	$228b <__udivmodsi4+0x1ad>
    221d: a4 0f        	ldy	$f                      ; 0xf <__rc13>
    221f: c4 04        	cpy	$4                      ; 0x4 <__rc2>
    2221: b0 07        	bcs	$222a <__udivmodsi4+0x14c>
    2223: 4c 52 22     	jmp	$2252 <__udivmodsi4+0x174>
    2226: c4 0d        	cpy	$d                      ; 0xd <__rc11>
    2228: 90 28        	bcc	$2252 <__udivmodsi4+0x174>
    222a: a0 03        	ldy	#$3
    222c: b1 02        	lda	($2),y                  ; 0x2 <__rc0>
    222e: 85 07        	sta	$7                      ; 0x7 <__rc5>
    2230: 38           	sec
    2231: a5 0f        	lda	$f                      ; 0xf <__rc13>
    2233: e5 04        	sbc	$4                      ; 0x4 <__rc2>
    2235: 85 0f        	sta	$f                      ; 0xf <__rc13>
    2237: a5 10        	lda	$10                     ; 0x10 <__rc14>
    2239: e5 05        	sbc	$5                      ; 0x5 <__rc3>
    223b: 85 10        	sta	$10                     ; 0x10 <__rc14>
    223d: a5 0e        	lda	$e                      ; 0xe <__rc12>
    223f: e5 0c        	sbc	$c                      ; 0xc <__rc10>
    2241: a8           	tay
    2242: a5 06        	lda	$6                      ; 0x6 <__rc4>
    2244: e5 0d        	sbc	$d                      ; 0xd <__rc11>
    2246: 85 06        	sta	$6                      ; 0x6 <__rc4>
    2248: 84 0e        	sty	$e                      ; 0xe <__rc12>
    224a: a5 07        	lda	$7                      ; 0x7 <__rc5>
    224c: 09 01        	ora	#$1
    224e: a0 03        	ldy	#$3
    2250: 91 02        	sta	($2),y                  ; 0x2 <__rc0>
    2252: a0 00        	ldy	#$0
    2254: a5 11        	lda	$11                     ; 0x11 <__rc15>
    2256: c9 01        	cmp	#$1
    2258: 84 13        	sty	$13                     ; 0x13 <__rc17>
    225a: a0 02        	ldy	#$2
    225c: b1 02        	lda	($2),y                  ; 0x2 <__rc0>
    225e: 85 07        	sta	$7                      ; 0x7 <__rc5>
    2260: 26 07        	rol	$7                      ; 0x7 <__rc5>
    2262: a5 07        	lda	$7                      ; 0x7 <__rc5>
    2264: 91 02        	sta	($2),y                  ; 0x2 <__rc0>
    2266: 88           	dey
    2267: b1 02        	lda	($2),y                  ; 0x2 <__rc0>
    2269: 85 07        	sta	$7                      ; 0x7 <__rc5>
    226b: 26 07        	rol	$7                      ; 0x7 <__rc5>
    226d: a5 07        	lda	$7                      ; 0x7 <__rc5>
    226f: 91 02        	sta	($2),y                  ; 0x2 <__rc0>
    2271: 88           	dey
    2272: b1 02        	lda	($2),y                  ; 0x2 <__rc0>
    2274: 85 07        	sta	$7                      ; 0x7 <__rc5>
    2276: 26 07        	rol	$7                      ; 0x7 <__rc5>
    2278: a5 07        	lda	$7                      ; 0x7 <__rc5>
    227a: 91 02        	sta	($2),y                  ; 0x2 <__rc0>
    227c: a4 13        	ldy	$13                     ; 0x13 <__rc17>
    227e: ca           	dex
    227f: f0 4e        	beq	$22cf <__udivmodsi4+0x1f1>
    2281: 4c ea 21     	jmp	$21ea <__udivmodsi4+0x10c>
    2284: c5 0c        	cmp	$c                      ; 0xc <__rc10>
    2286: 90 ca        	bcc	$2252 <__udivmodsi4+0x174>
    2288: 4c 2a 22     	jmp	$222a <__udivmodsi4+0x14c>
    228b: c4 05        	cpy	$5                      ; 0x5 <__rc3>
    228d: 90 c3        	bcc	$2252 <__udivmodsi4+0x174>
    228f: 4c 2a 22     	jmp	$222a <__udivmodsi4+0x14c>
    2292: 38           	sec
    2293: e5 06        	sbc	$6                      ; 0x6 <__rc4>
    2295: 85 0f        	sta	$f                      ; 0xf <__rc13>
    2297: a5 10        	lda	$10                     ; 0x10 <__rc14>
    2299: e5 07        	sbc	$7                      ; 0x7 <__rc5>
    229b: 85 10        	sta	$10                     ; 0x10 <__rc14>
    229d: a5 04        	lda	$4                      ; 0x4 <__rc2>
    229f: e5 08        	sbc	$8                      ; 0x8 <__rc6>
    22a1: 85 0e        	sta	$e                      ; 0xe <__rc12>
    22a3: a5 11        	lda	$11                     ; 0x11 <__rc15>
    22a5: e5 09        	sbc	$9                      ; 0x9 <__rc7>
    22a7: 85 06        	sta	$6                      ; 0x6 <__rc4>
    22a9: a2 01        	ldx	#$1
    22ab: 8a           	txa
    22ac: 84 13        	sty	$13                     ; 0x13 <__rc17>
    22ae: a0 03        	ldy	#$3
    22b0: 91 02        	sta	($2),y                  ; 0x2 <__rc0>
    22b2: a4 13        	ldy	$13                     ; 0x13 <__rc17>
    22b4: 98           	tya
    22b5: 84 13        	sty	$13                     ; 0x13 <__rc17>
    22b7: a0 02        	ldy	#$2
    22b9: 91 02        	sta	($2),y                  ; 0x2 <__rc0>
    22bb: a4 13        	ldy	$13                     ; 0x13 <__rc17>
    22bd: 98           	tya
    22be: 84 13        	sty	$13                     ; 0x13 <__rc17>
    22c0: a0 01        	ldy	#$1
    22c2: 91 02        	sta	($2),y                  ; 0x2 <__rc0>
    22c4: a4 13        	ldy	$13                     ; 0x13 <__rc17>
    22c6: 98           	tya
    22c7: 84 13        	sty	$13                     ; 0x13 <__rc17>
    22c9: a0 00        	ldy	#$0
    22cb: 91 02        	sta	($2),y                  ; 0x2 <__rc0>
    22cd: a4 13        	ldy	$13                     ; 0x13 <__rc17>
    22cf: a5 0f        	lda	$f                      ; 0xf <__rc13>
    22d1: 91 0a        	sta	($a),y                  ; 0xa <__rc8>
    22d3: a5 10        	lda	$10                     ; 0x10 <__rc14>
    22d5: a0 01        	ldy	#$1
    22d7: 91 0a        	sta	($a),y                  ; 0xa <__rc8>
    22d9: c8           	iny
    22da: a5 0e        	lda	$e                      ; 0xe <__rc12>
    22dc: 91 0a        	sta	($a),y                  ; 0xa <__rc8>
    22de: c8           	iny
    22df: a5 06        	lda	$6                      ; 0x6 <__rc4>
    22e1: 91 0a        	sta	($a),y                  ; 0xa <__rc8>
    22e3: a0 01        	ldy	#$1
    22e5: b1 02        	lda	($2),y                  ; 0x2 <__rc0>
    22e7: 85 04        	sta	$4                      ; 0x4 <__rc2>
    22e9: 88           	dey
    22ea: b1 02        	lda	($2),y                  ; 0x2 <__rc0>
    22ec: 85 05        	sta	$5                      ; 0x5 <__rc3>
    22ee: a0 02        	ldy	#$2
    22f0: b1 02        	lda	($2),y                  ; 0x2 <__rc0>
    22f2: aa           	tax
    22f3: c8           	iny
    22f4: b1 02        	lda	($2),y                  ; 0x2 <__rc0>
    22f6: 48           	pha
    22f7: 18           	clc
    22f8: a5 02        	lda	$2                      ; 0x2 <__rc0>
    22fa: 69 04        	adc	#$4
    22fc: 85 02        	sta	$2                      ; 0x2 <__rc0>
    22fe: a5 03        	lda	$3                      ; 0x3 <__rc1>
    2300: 69 00        	adc	#$0
    2302: 85 03        	sta	$3                      ; 0x3 <__rc1>
    2304: 68           	pla
    2305: 60           	rts
    2306: e4 07        	cpx	$7                      ; 0x7 <__rc5>
    2308: b0 03        	bcs	$230d <__udivmodsi4+0x22f>
    230a: 4c 32 21     	jmp	$2132 <__udivmodsi4+0x54>
    230d: 4c 40 21     	jmp	$2140 <__udivmodsi4+0x62>
    2310: 85 06        	sta	$6                      ; 0x6 <__rc4>
    2312: a2 01        	ldx	#$1
    2314: 8a           	txa
    2315: a0 03        	ldy	#$3
    2317: 91 02        	sta	($2),y                  ; 0x2 <__rc0>
    2319: ca           	dex
    231a: 8a           	txa
    231b: 88           	dey
    231c: 91 02        	sta	($2),y                  ; 0x2 <__rc0>
    231e: 88           	dey
    231f: 91 02        	sta	($2),y                  ; 0x2 <__rc0>
    2321: 88           	dey
    2322: 91 02        	sta	($2),y                  ; 0x2 <__rc0>
    2324: a6 07        	ldx	$7                      ; 0x7 <__rc5>
    2326: 86 0e        	stx	$e                      ; 0xe <__rc12>
    2328: 4c cf 22     	jmp	$22cf <__udivmodsi4+0x1f1>
    232b: 85 0f        	sta	$f                      ; 0xf <__rc13>
    232d: 4c 36 21     	jmp	$2136 <__udivmodsi4+0x58>

00002330 <__udivmoddi4>:
    2330: 85 12        	sta	$12                     ; 0x12 <__rc16>
    2332: 18           	clc
    2333: a5 02        	lda	$2                      ; 0x2 <__rc0>
    2335: 69 f0        	adc	#$f0
    2337: 85 02        	sta	$2                      ; 0x2 <__rc0>
    2339: a5 03        	lda	$3                      ; 0x3 <__rc1>
    233b: 69 ff        	adc	#$ff
    233d: 85 03        	sta	$3                      ; 0x3 <__rc1>
    233f: a5 16        	lda	$16                     ; 0x16 <__rc20>
    2341: 48           	pha
    2342: a5 17        	lda	$17                     ; 0x17 <__rc21>
    2344: 48           	pha
    2345: a5 18        	lda	$18                     ; 0x18 <__rc22>
    2347: 48           	pha
    2348: a5 19        	lda	$19                     ; 0x19 <__rc23>
    234a: 48           	pha
    234b: a5 12        	lda	$12                     ; 0x12 <__rc16>
    234d: 48           	pha
    234e: a5 1a        	lda	$1a                     ; 0x1a <__rc24>
    2350: a0 07        	ldy	#$7
    2352: 91 02        	sta	($2),y                  ; 0x2 <__rc0>
    2354: a5 1b        	lda	$1b                     ; 0x1b <__rc25>
    2356: 88           	dey
    2357: 91 02        	sta	($2),y                  ; 0x2 <__rc0>
    2359: a5 1c        	lda	$1c                     ; 0x1c <__rc26>
    235b: 88           	dey
    235c: 91 02        	sta	($2),y                  ; 0x2 <__rc0>
    235e: a5 1d        	lda	$1d                     ; 0x1d <__rc27>
    2360: 88           	dey
    2361: 91 02        	sta	($2),y                  ; 0x2 <__rc0>
    2363: a5 1e        	lda	$1e                     ; 0x1e <__rc28>
    2365: 88           	dey
    2366: 91 02        	sta	($2),y                  ; 0x2 <__rc0>
    2368: a5 1f        	lda	$1f                     ; 0x1f <__rc29>
    236a: 88           	dey
    236b: 91 02        	sta	($2),y                  ; 0x2 <__rc0>
    236d: a5 20        	lda	$20                     ; 0x20 <__rc30>
    236f: 88           	dey
    2370: 91 02        	sta	($2),y                  ; 0x2 <__rc0>
    2372: a5 21        	lda	$21                     ; 0x21 <__rc31>
    2374: 88           	dey
    2375: 91 02        	sta	($2),y                  ; 0x2 <__rc0>
    2377: 68           	pla
    2378: a0 08        	ldy	#$8
    237a: 91 02        	sta	($2),y                  ; 0x2 <__rc0>
    237c: 86 1c        	stx	$1c                     ; 0x1c <__rc26>
    237e: a6 08        	ldx	$8                      ; 0x8 <__rc6>
    2380: 86 1d        	stx	$1d                     ; 0x1d <__rc27>
    2382: 18           	clc
    2383: a5 02        	lda	$2                      ; 0x2 <__rc0>
    2385: 69 10        	adc	#$10
    2387: 85 14        	sta	$14                     ; 0x14 <__zp_data_size>
    2389: a5 03        	lda	$3                      ; 0x3 <__rc1>
    238b: 69 00        	adc	#$0
    238d: 85 15        	sta	$15                     ; 0x15 <__rc19>
    238f: a0 00        	ldy	#$0
    2391: b1 14        	lda	($14),y                 ; 0x14 <__zp_data_size>
    2393: 85 1a        	sta	$1a                     ; 0x1a <__rc24>
    2395: c8           	iny
    2396: b1 14        	lda	($14),y                 ; 0x14 <__zp_data_size>
    2398: 85 1b        	sta	$1b                     ; 0x1b <__rc25>
    239a: a5 11        	lda	$11                     ; 0x11 <__rc15>
    239c: d0 1f        	bne	$23bd <__udivmoddi4+0x8d>
    239e: a5 10        	lda	$10                     ; 0x10 <__rc14>
    23a0: d0 1b        	bne	$23bd <__udivmoddi4+0x8d>
    23a2: a5 0f        	lda	$f                      ; 0xf <__rc13>
    23a4: d0 17        	bne	$23bd <__udivmoddi4+0x8d>
    23a6: a5 0e        	lda	$e                      ; 0xe <__rc12>
    23a8: d0 13        	bne	$23bd <__udivmoddi4+0x8d>
    23aa: a5 0d        	lda	$d                      ; 0xd <__rc11>
    23ac: d0 0f        	bne	$23bd <__udivmoddi4+0x8d>
    23ae: a5 0c        	lda	$c                      ; 0xc <__rc10>
    23b0: d0 0b        	bne	$23bd <__udivmoddi4+0x8d>
    23b2: a5 0b        	lda	$b                      ; 0xb <__rc9>
    23b4: d0 07        	bne	$23bd <__udivmoddi4+0x8d>
    23b6: a5 0a        	lda	$a                      ; 0xa <__rc8>
    23b8: d0 03        	bne	$23bd <__udivmoddi4+0x8d>
    23ba: 4c 89 28     	jmp	$2889 <__udivmoddi4+0x559>
    23bd: a6 09        	ldx	$9                      ; 0x9 <__rc7>
    23bf: 86 1e        	stx	$1e                     ; 0x1e <__rc28>
    23c1: e4 11        	cpx	$11                     ; 0x11 <__rc15>
    23c3: d0 46        	bne	$240b <__udivmoddi4+0xdb>
    23c5: a6 08        	ldx	$8                      ; 0x8 <__rc6>
    23c7: e4 10        	cpx	$10                     ; 0x10 <__rc14>
    23c9: d0 45        	bne	$2410 <__udivmoddi4+0xe0>
    23cb: a6 07        	ldx	$7                      ; 0x7 <__rc5>
    23cd: e4 0f        	cpx	$f                      ; 0xf <__rc13>
    23cf: f0 03        	beq	$23d4 <__udivmoddi4+0xa4>
    23d1: 4c 6d 24     	jmp	$246d <__udivmoddi4+0x13d>
    23d4: 86 1f        	stx	$1f                     ; 0x1f <__rc29>
    23d6: a6 06        	ldx	$6                      ; 0x6 <__rc4>
    23d8: a0 00        	ldy	#$0
    23da: e4 0e        	cpx	$e                      ; 0xe <__rc12>
    23dc: f0 03        	beq	$23e1 <__udivmoddi4+0xb1>
    23de: 4c 74 24     	jmp	$2474 <__udivmoddi4+0x144>
    23e1: a6 05        	ldx	$5                      ; 0x5 <__rc3>
    23e3: e4 0d        	cpx	$d                      ; 0xd <__rc11>
    23e5: f0 03        	beq	$23ea <__udivmoddi4+0xba>
    23e7: 4c de 25     	jmp	$25de <__udivmoddi4+0x2ae>
    23ea: a6 04        	ldx	$4                      ; 0x4 <__rc2>
    23ec: e4 0c        	cpx	$c                      ; 0xc <__rc10>
    23ee: f0 03        	beq	$23f3 <__udivmoddi4+0xc3>
    23f0: 4c ef 25     	jmp	$25ef <__udivmoddi4+0x2bf>
    23f3: a6 1c        	ldx	$1c                     ; 0x1c <__rc26>
    23f5: e4 0b        	cpx	$b                      ; 0xb <__rc9>
    23f7: f0 03        	beq	$23fc <__udivmoddi4+0xcc>
    23f9: 4c 00 26     	jmp	$2600 <__udivmoddi4+0x2d0>
    23fc: 84 13        	sty	$13                     ; 0x13 <__rc17>
    23fe: a0 08        	ldy	#$8
    2400: b1 02        	lda	($2),y                  ; 0x2 <__rc0>
    2402: a4 13        	ldy	$13                     ; 0x13 <__rc17>
    2404: c5 0a        	cmp	$a                      ; 0xa <__rc8>
    2406: 90 15        	bcc	$241d <__udivmoddi4+0xed>
    2408: 4c 7b 24     	jmp	$247b <__udivmoddi4+0x14b>
    240b: e4 11        	cpx	$11                     ; 0x11 <__rc15>
    240d: 4c 12 24     	jmp	$2412 <__udivmoddi4+0xe2>
    2410: e4 10        	cpx	$10                     ; 0x10 <__rc14>
    2412: a6 07        	ldx	$7                      ; 0x7 <__rc5>
    2414: 86 1f        	stx	$1f                     ; 0x1f <__rc29>
    2416: a0 00        	ldy	#$0
    2418: 90 03        	bcc	$241d <__udivmoddi4+0xed>
    241a: 4c 7b 24     	jmp	$247b <__udivmoddi4+0x14b>
    241d: a6 1e        	ldx	$1e                     ; 0x1e <__rc28>
    241f: 86 0a        	stx	$a                      ; 0xa <__rc8>
    2421: 98           	tya
    2422: 84 13        	sty	$13                     ; 0x13 <__rc17>
    2424: a0 0f        	ldy	#$f
    2426: 91 02        	sta	($2),y                  ; 0x2 <__rc0>
    2428: a4 13        	ldy	$13                     ; 0x13 <__rc17>
    242a: 98           	tya
    242b: 84 13        	sty	$13                     ; 0x13 <__rc17>
    242d: a0 0e        	ldy	#$e
    242f: 91 02        	sta	($2),y                  ; 0x2 <__rc0>
    2431: a4 13        	ldy	$13                     ; 0x13 <__rc17>
    2433: 98           	tya
    2434: 84 13        	sty	$13                     ; 0x13 <__rc17>
    2436: a0 0d        	ldy	#$d
    2438: 91 02        	sta	($2),y                  ; 0x2 <__rc0>
    243a: a4 13        	ldy	$13                     ; 0x13 <__rc17>
    243c: 98           	tya
    243d: 84 13        	sty	$13                     ; 0x13 <__rc17>
    243f: a0 0c        	ldy	#$c
    2441: 91 02        	sta	($2),y                  ; 0x2 <__rc0>
    2443: a4 13        	ldy	$13                     ; 0x13 <__rc17>
    2445: 98           	tya
    2446: 84 13        	sty	$13                     ; 0x13 <__rc17>
    2448: a0 0b        	ldy	#$b
    244a: 91 02        	sta	($2),y                  ; 0x2 <__rc0>
    244c: a4 13        	ldy	$13                     ; 0x13 <__rc17>
    244e: 98           	tya
    244f: 84 13        	sty	$13                     ; 0x13 <__rc17>
    2451: a0 0a        	ldy	#$a
    2453: 91 02        	sta	($2),y                  ; 0x2 <__rc0>
    2455: a4 13        	ldy	$13                     ; 0x13 <__rc17>
    2457: 98           	tya
    2458: 84 13        	sty	$13                     ; 0x13 <__rc17>
    245a: a0 09        	ldy	#$9
    245c: 91 02        	sta	($2),y                  ; 0x2 <__rc0>
    245e: a6 06        	ldx	$6                      ; 0x6 <__rc4>
    2460: 86 0e        	stx	$e                      ; 0xe <__rc12>
    2462: 88           	dey
    2463: b1 02        	lda	($2),y                  ; 0x2 <__rc0>
    2465: a4 13        	ldy	$13                     ; 0x13 <__rc17>
    2467: 85 0b        	sta	$b                      ; 0xb <__rc9>
    2469: 98           	tya
    246a: 4c f1 27     	jmp	$27f1 <__udivmoddi4+0x4c1>
    246d: 86 1f        	stx	$1f                     ; 0x1f <__rc29>
    246f: e4 0f        	cpx	$f                      ; 0xf <__rc13>
    2471: 4c 16 24     	jmp	$2416 <__udivmoddi4+0xe6>
    2474: e4 0e        	cpx	$e                      ; 0xe <__rc12>
    2476: b0 03        	bcs	$247b <__udivmoddi4+0x14b>
    2478: 4c 1d 24     	jmp	$241d <__udivmoddi4+0xed>
    247b: a5 11        	lda	$11                     ; 0x11 <__rc15>
    247d: 10 03        	bpl	$2482 <__udivmoddi4+0x152>
    247f: 4c 35 25     	jmp	$2535 <__udivmoddi4+0x205>
    2482: a5 05        	lda	$5                      ; 0x5 <__rc3>
    2484: a0 0f        	ldy	#$f
    2486: 91 02        	sta	($2),y                  ; 0x2 <__rc0>
    2488: a2 00        	ldx	#$0
    248a: a4 0a        	ldy	$a                      ; 0xa <__rc8>
    248c: 84 19        	sty	$19                     ; 0x19 <__rc23>
    248e: a4 0b        	ldy	$b                      ; 0xb <__rc9>
    2490: 84 18        	sty	$18                     ; 0x18 <__rc22>
    2492: a4 0c        	ldy	$c                      ; 0xc <__rc10>
    2494: 84 08        	sty	$8                      ; 0x8 <__rc6>
    2496: a4 0d        	ldy	$d                      ; 0xd <__rc11>
    2498: 84 09        	sty	$9                      ; 0x9 <__rc7>
    249a: a4 0e        	ldy	$e                      ; 0xe <__rc12>
    249c: 84 14        	sty	$14                     ; 0x14 <__zp_data_size>
    249e: a4 0f        	ldy	$f                      ; 0xf <__rc13>
    24a0: 84 15        	sty	$15                     ; 0x15 <__rc19>
    24a2: a4 10        	ldy	$10                     ; 0x10 <__rc14>
    24a4: 84 16        	sty	$16                     ; 0x16 <__rc20>
    24a6: a4 11        	ldy	$11                     ; 0x11 <__rc15>
    24a8: 84 17        	sty	$17                     ; 0x17 <__rc21>
    24aa: 06 19        	asl	$19                     ; 0x19 <__rc23>
    24ac: 26 18        	rol	$18                     ; 0x18 <__rc22>
    24ae: 26 08        	rol	$8                      ; 0x8 <__rc6>
    24b0: 26 09        	rol	$9                      ; 0x9 <__rc7>
    24b2: 26 14        	rol	$14                     ; 0x14 <__zp_data_size>
    24b4: 26 15        	rol	$15                     ; 0x15 <__rc19>
    24b6: 26 16        	rol	$16                     ; 0x16 <__rc20>
    24b8: 26 17        	rol	$17                     ; 0x17 <__rc21>
    24ba: a4 1e        	ldy	$1e                     ; 0x1e <__rc28>
    24bc: c4 17        	cpy	$17                     ; 0x17 <__rc21>
    24be: d0 2d        	bne	$24ed <__udivmoddi4+0x1bd>
    24c0: a4 1d        	ldy	$1d                     ; 0x1d <__rc27>
    24c2: c4 16        	cpy	$16                     ; 0x16 <__rc20>
    24c4: d0 2e        	bne	$24f4 <__udivmoddi4+0x1c4>
    24c6: a4 07        	ldy	$7                      ; 0x7 <__rc5>
    24c8: c4 15        	cpy	$15                     ; 0x15 <__rc19>
    24ca: d0 31        	bne	$24fd <__udivmoddi4+0x1cd>
    24cc: 84 1f        	sty	$1f                     ; 0x1f <__rc29>
    24ce: a4 06        	ldy	$6                      ; 0x6 <__rc4>
    24d0: a5 05        	lda	$5                      ; 0x5 <__rc3>
    24d2: 84 13        	sty	$13                     ; 0x13 <__rc17>
    24d4: a0 0f        	ldy	#$f
    24d6: 91 02        	sta	($2),y                  ; 0x2 <__rc0>
    24d8: a4 13        	ldy	$13                     ; 0x13 <__rc17>
    24da: 98           	tya
    24db: 84 13        	sty	$13                     ; 0x13 <__rc17>
    24dd: a0 0e        	ldy	#$e
    24df: 91 02        	sta	($2),y                  ; 0x2 <__rc0>
    24e1: a4 13        	ldy	$13                     ; 0x13 <__rc17>
    24e3: c4 14        	cpy	$14                     ; 0x14 <__zp_data_size>
    24e5: f0 03        	beq	$24ea <__udivmoddi4+0x1ba>
    24e7: 4c d3 25     	jmp	$25d3 <__udivmoddi4+0x2a3>
    24ea: 4c b3 25     	jmp	$25b3 <__udivmoddi4+0x283>
    24ed: c4 17        	cpy	$17                     ; 0x17 <__rc21>
    24ef: b0 1b        	bcs	$250c <__udivmoddi4+0x1dc>
    24f1: 4c 11 26     	jmp	$2611 <__udivmoddi4+0x2e1>
    24f4: c4 16        	cpy	$16                     ; 0x16 <__rc20>
    24f6: a4 07        	ldy	$7                      ; 0x7 <__rc5>
    24f8: 84 1f        	sty	$1f                     ; 0x1f <__rc29>
    24fa: 4c 01 25     	jmp	$2501 <__udivmoddi4+0x1d1>
    24fd: 84 1f        	sty	$1f                     ; 0x1f <__rc29>
    24ff: c4 15        	cpy	$15                     ; 0x15 <__rc19>
    2501: a5 05        	lda	$5                      ; 0x5 <__rc3>
    2503: a0 0f        	ldy	#$f
    2505: 91 02        	sta	($2),y                  ; 0x2 <__rc0>
    2507: b0 03        	bcs	$250c <__udivmoddi4+0x1dc>
    2509: 4c 11 26     	jmp	$2611 <__udivmoddi4+0x2e1>
    250c: e8           	inx
    250d: a4 19        	ldy	$19                     ; 0x19 <__rc23>
    250f: 84 0a        	sty	$a                      ; 0xa <__rc8>
    2511: a4 18        	ldy	$18                     ; 0x18 <__rc22>
    2513: 84 0b        	sty	$b                      ; 0xb <__rc9>
    2515: a4 08        	ldy	$8                      ; 0x8 <__rc6>
    2517: 84 0c        	sty	$c                      ; 0xc <__rc10>
    2519: a4 09        	ldy	$9                      ; 0x9 <__rc7>
    251b: 84 0d        	sty	$d                      ; 0xd <__rc11>
    251d: a4 14        	ldy	$14                     ; 0x14 <__zp_data_size>
    251f: 84 0e        	sty	$e                      ; 0xe <__rc12>
    2521: a4 15        	ldy	$15                     ; 0x15 <__rc19>
    2523: 84 0f        	sty	$f                      ; 0xf <__rc13>
    2525: a4 16        	ldy	$16                     ; 0x16 <__rc20>
    2527: 84 10        	sty	$10                     ; 0x10 <__rc14>
    2529: a4 17        	ldy	$17                     ; 0x17 <__rc21>
    252b: 84 11        	sty	$11                     ; 0x11 <__rc15>
    252d: 30 03        	bmi	$2532 <__udivmoddi4+0x202>
    252f: 4c aa 24     	jmp	$24aa <__udivmoddi4+0x17a>
    2532: 4c 31 26     	jmp	$2631 <__udivmoddi4+0x301>
    2535: 38           	sec
    2536: 84 13        	sty	$13                     ; 0x13 <__rc17>
    2538: a0 08        	ldy	#$8
    253a: b1 02        	lda	($2),y                  ; 0x2 <__rc0>
    253c: a4 13        	ldy	$13                     ; 0x13 <__rc17>
    253e: e5 0a        	sbc	$a                      ; 0xa <__rc8>
    2540: aa           	tax
    2541: a5 1c        	lda	$1c                     ; 0x1c <__rc26>
    2543: e5 0b        	sbc	$b                      ; 0xb <__rc9>
    2545: 85 1c        	sta	$1c                     ; 0x1c <__rc26>
    2547: a5 04        	lda	$4                      ; 0x4 <__rc2>
    2549: e5 0c        	sbc	$c                      ; 0xc <__rc10>
    254b: 85 04        	sta	$4                      ; 0x4 <__rc2>
    254d: a5 05        	lda	$5                      ; 0x5 <__rc3>
    254f: e5 0d        	sbc	$d                      ; 0xd <__rc11>
    2551: 85 05        	sta	$5                      ; 0x5 <__rc3>
    2553: a5 06        	lda	$6                      ; 0x6 <__rc4>
    2555: e5 0e        	sbc	$e                      ; 0xe <__rc12>
    2557: 85 0e        	sta	$e                      ; 0xe <__rc12>
    2559: a5 1f        	lda	$1f                     ; 0x1f <__rc29>
    255b: e5 0f        	sbc	$f                      ; 0xf <__rc13>
    255d: 85 07        	sta	$7                      ; 0x7 <__rc5>
    255f: a5 08        	lda	$8                      ; 0x8 <__rc6>
    2561: e5 10        	sbc	$10                     ; 0x10 <__rc14>
    2563: 85 1d        	sta	$1d                     ; 0x1d <__rc27>
    2565: a5 1e        	lda	$1e                     ; 0x1e <__rc28>
    2567: e5 11        	sbc	$11                     ; 0x11 <__rc15>
    2569: 85 0a        	sta	$a                      ; 0xa <__rc8>
    256b: 86 0b        	stx	$b                      ; 0xb <__rc9>
    256d: a9 01        	lda	#$1
    256f: 48           	pha
    2570: 98           	tya
    2571: 84 13        	sty	$13                     ; 0x13 <__rc17>
    2573: a0 0f        	ldy	#$f
    2575: 91 02        	sta	($2),y                  ; 0x2 <__rc0>
    2577: a4 13        	ldy	$13                     ; 0x13 <__rc17>
    2579: 98           	tya
    257a: 84 13        	sty	$13                     ; 0x13 <__rc17>
    257c: a0 0e        	ldy	#$e
    257e: 91 02        	sta	($2),y                  ; 0x2 <__rc0>
    2580: a4 13        	ldy	$13                     ; 0x13 <__rc17>
    2582: 98           	tya
    2583: 84 13        	sty	$13                     ; 0x13 <__rc17>
    2585: a0 0d        	ldy	#$d
    2587: 91 02        	sta	($2),y                  ; 0x2 <__rc0>
    2589: a4 13        	ldy	$13                     ; 0x13 <__rc17>
    258b: 98           	tya
    258c: 84 13        	sty	$13                     ; 0x13 <__rc17>
    258e: a0 0c        	ldy	#$c
    2590: 91 02        	sta	($2),y                  ; 0x2 <__rc0>
    2592: a4 13        	ldy	$13                     ; 0x13 <__rc17>
    2594: 98           	tya
    2595: 84 13        	sty	$13                     ; 0x13 <__rc17>
    2597: a0 0b        	ldy	#$b
    2599: 91 02        	sta	($2),y                  ; 0x2 <__rc0>
    259b: a4 13        	ldy	$13                     ; 0x13 <__rc17>
    259d: 98           	tya
    259e: 84 13        	sty	$13                     ; 0x13 <__rc17>
    25a0: a0 0a        	ldy	#$a
    25a2: 91 02        	sta	($2),y                  ; 0x2 <__rc0>
    25a4: a4 13        	ldy	$13                     ; 0x13 <__rc17>
    25a6: 98           	tya
    25a7: 84 13        	sty	$13                     ; 0x13 <__rc17>
    25a9: a0 09        	ldy	#$9
    25ab: 91 02        	sta	($2),y                  ; 0x2 <__rc0>
    25ad: a4 13        	ldy	$13                     ; 0x13 <__rc17>
    25af: 68           	pla
    25b0: 4c f1 27     	jmp	$27f1 <__udivmoddi4+0x4c1>
    25b3: a0 0f        	ldy	#$f
    25b5: b1 02        	lda	($2),y                  ; 0x2 <__rc0>
    25b7: a8           	tay
    25b8: c5 09        	cmp	$9                      ; 0x9 <__rc7>
    25ba: d0 2c        	bne	$25e8 <__udivmoddi4+0x2b8>
    25bc: a4 04        	ldy	$4                      ; 0x4 <__rc2>
    25be: c4 08        	cpy	$8                      ; 0x8 <__rc6>
    25c0: d0 37        	bne	$25f9 <__udivmoddi4+0x2c9>
    25c2: a4 1c        	ldy	$1c                     ; 0x1c <__rc26>
    25c4: c4 18        	cpy	$18                     ; 0x18 <__rc22>
    25c6: d0 42        	bne	$260a <__udivmoddi4+0x2da>
    25c8: a0 08        	ldy	#$8
    25ca: b1 02        	lda	($2),y                  ; 0x2 <__rc0>
    25cc: c5 19        	cmp	$19                     ; 0x19 <__rc23>
    25ce: 90 41        	bcc	$2611 <__udivmoddi4+0x2e1>
    25d0: 4c 0c 25     	jmp	$250c <__udivmoddi4+0x1dc>
    25d3: a0 0e        	ldy	#$e
    25d5: b1 02        	lda	($2),y                  ; 0x2 <__rc0>
    25d7: c5 14        	cmp	$14                     ; 0x14 <__zp_data_size>
    25d9: 90 36        	bcc	$2611 <__udivmoddi4+0x2e1>
    25db: 4c 0c 25     	jmp	$250c <__udivmoddi4+0x1dc>
    25de: e4 0d        	cpx	$d                      ; 0xd <__rc11>
    25e0: b0 03        	bcs	$25e5 <__udivmoddi4+0x2b5>
    25e2: 4c 1d 24     	jmp	$241d <__udivmoddi4+0xed>
    25e5: 4c 7b 24     	jmp	$247b <__udivmoddi4+0x14b>
    25e8: c4 09        	cpy	$9                      ; 0x9 <__rc7>
    25ea: 90 25        	bcc	$2611 <__udivmoddi4+0x2e1>
    25ec: 4c 0c 25     	jmp	$250c <__udivmoddi4+0x1dc>
    25ef: e4 0c        	cpx	$c                      ; 0xc <__rc10>
    25f1: b0 03        	bcs	$25f6 <__udivmoddi4+0x2c6>
    25f3: 4c 1d 24     	jmp	$241d <__udivmoddi4+0xed>
    25f6: 4c 7b 24     	jmp	$247b <__udivmoddi4+0x14b>
    25f9: c4 08        	cpy	$8                      ; 0x8 <__rc6>
    25fb: 90 14        	bcc	$2611 <__udivmoddi4+0x2e1>
    25fd: 4c 0c 25     	jmp	$250c <__udivmoddi4+0x1dc>
    2600: e4 0b        	cpx	$b                      ; 0xb <__rc9>
    2602: b0 03        	bcs	$2607 <__udivmoddi4+0x2d7>
    2604: 4c 1d 24     	jmp	$241d <__udivmoddi4+0xed>
    2607: 4c 7b 24     	jmp	$247b <__udivmoddi4+0x14b>
    260a: c4 18        	cpy	$18                     ; 0x18 <__rc22>
    260c: 90 03        	bcc	$2611 <__udivmoddi4+0x2e1>
    260e: 4c 0c 25     	jmp	$250c <__udivmoddi4+0x1dc>
    2611: a4 0a        	ldy	$a                      ; 0xa <__rc8>
    2613: 84 19        	sty	$19                     ; 0x19 <__rc23>
    2615: a4 0b        	ldy	$b                      ; 0xb <__rc9>
    2617: 84 18        	sty	$18                     ; 0x18 <__rc22>
    2619: a4 0c        	ldy	$c                      ; 0xc <__rc10>
    261b: 84 08        	sty	$8                      ; 0x8 <__rc6>
    261d: a4 0d        	ldy	$d                      ; 0xd <__rc11>
    261f: 84 09        	sty	$9                      ; 0x9 <__rc7>
    2621: a4 0e        	ldy	$e                      ; 0xe <__rc12>
    2623: 84 14        	sty	$14                     ; 0x14 <__zp_data_size>
    2625: a4 0f        	ldy	$f                      ; 0xf <__rc13>
    2627: 84 15        	sty	$15                     ; 0x15 <__rc19>
    2629: a4 10        	ldy	$10                     ; 0x10 <__rc14>
    262b: 84 16        	sty	$16                     ; 0x16 <__rc20>
    262d: a4 11        	ldy	$11                     ; 0x11 <__rc15>
    262f: 84 17        	sty	$17                     ; 0x17 <__rc21>
    2631: 38           	sec
    2632: a0 08        	ldy	#$8
    2634: b1 02        	lda	($2),y                  ; 0x2 <__rc0>
    2636: e5 19        	sbc	$19                     ; 0x19 <__rc23>
    2638: 85 0b        	sta	$b                      ; 0xb <__rc9>
    263a: a5 1c        	lda	$1c                     ; 0x1c <__rc26>
    263c: e5 18        	sbc	$18                     ; 0x18 <__rc22>
    263e: 85 1c        	sta	$1c                     ; 0x1c <__rc26>
    2640: a5 04        	lda	$4                      ; 0x4 <__rc2>
    2642: e5 08        	sbc	$8                      ; 0x8 <__rc6>
    2644: 85 04        	sta	$4                      ; 0x4 <__rc2>
    2646: a0 0f        	ldy	#$f
    2648: b1 02        	lda	($2),y                  ; 0x2 <__rc0>
    264a: e5 09        	sbc	$9                      ; 0x9 <__rc7>
    264c: 85 05        	sta	$5                      ; 0x5 <__rc3>
    264e: a5 06        	lda	$6                      ; 0x6 <__rc4>
    2650: e5 14        	sbc	$14                     ; 0x14 <__zp_data_size>
    2652: 85 06        	sta	$6                      ; 0x6 <__rc4>
    2654: a5 1f        	lda	$1f                     ; 0x1f <__rc29>
    2656: e5 15        	sbc	$15                     ; 0x15 <__rc19>
    2658: 85 07        	sta	$7                      ; 0x7 <__rc5>
    265a: a5 1d        	lda	$1d                     ; 0x1d <__rc27>
    265c: e5 16        	sbc	$16                     ; 0x16 <__rc20>
    265e: 85 0e        	sta	$e                      ; 0xe <__rc12>
    2660: a5 1e        	lda	$1e                     ; 0x1e <__rc28>
    2662: e5 17        	sbc	$17                     ; 0x17 <__rc21>
    2664: 85 0a        	sta	$a                      ; 0xa <__rc8>
    2666: 8a           	txa
    2667: d0 03        	bne	$266c <__udivmoddi4+0x33c>
    2669: 4c cb 27     	jmp	$27cb <__udivmoddi4+0x49b>
    266c: a9 00        	lda	#$0
    266e: 91 02        	sta	($2),y                  ; 0x2 <__rc0>
    2670: a9 01        	lda	#$1
    2672: a0 00        	ldy	#$0
    2674: 48           	pha
    2675: 98           	tya
    2676: a0 0e        	ldy	#$e
    2678: 91 02        	sta	($2),y                  ; 0x2 <__rc0>
    267a: a0 00        	ldy	#$0
    267c: 98           	tya
    267d: a0 0d        	ldy	#$d
    267f: 91 02        	sta	($2),y                  ; 0x2 <__rc0>
    2681: a0 00        	ldy	#$0
    2683: 98           	tya
    2684: a0 0c        	ldy	#$c
    2686: 91 02        	sta	($2),y                  ; 0x2 <__rc0>
    2688: a0 00        	ldy	#$0
    268a: 98           	tya
    268b: a0 0b        	ldy	#$b
    268d: 91 02        	sta	($2),y                  ; 0x2 <__rc0>
    268f: a0 00        	ldy	#$0
    2691: 98           	tya
    2692: a0 0a        	ldy	#$a
    2694: 91 02        	sta	($2),y                  ; 0x2 <__rc0>
    2696: a0 00        	ldy	#$0
    2698: 98           	tya
    2699: a0 09        	ldy	#$9
    269b: 91 02        	sta	($2),y                  ; 0x2 <__rc0>
    269d: 68           	pla
    269e: a4 0e        	ldy	$e                      ; 0xe <__rc12>
    26a0: 84 1d        	sty	$1d                     ; 0x1d <__rc27>
    26a2: a4 06        	ldy	$6                      ; 0x6 <__rc4>
    26a4: 84 0e        	sty	$e                      ; 0xe <__rc12>
    26a6: 46 17        	lsr	$17                     ; 0x17 <__rc21>
    26a8: 66 16        	ror	$16                     ; 0x16 <__rc20>
    26aa: 66 15        	ror	$15                     ; 0x15 <__rc19>
    26ac: 66 14        	ror	$14                     ; 0x14 <__zp_data_size>
    26ae: 66 09        	ror	$9                      ; 0x9 <__rc7>
    26b0: 66 08        	ror	$8                      ; 0x8 <__rc6>
    26b2: 66 18        	ror	$18                     ; 0x18 <__rc22>
    26b4: 66 19        	ror	$19                     ; 0x19 <__rc23>
    26b6: 0a           	asl
    26b7: a0 01        	ldy	#$1
    26b9: b0 02        	bcs	$26bd <__udivmoddi4+0x38d>
    26bb: a0 00        	ldy	#$0
    26bd: 84 0d        	sty	$d                      ; 0xd <__rc11>
    26bf: a4 0a        	ldy	$a                      ; 0xa <__rc8>
    26c1: c4 17        	cpy	$17                     ; 0x17 <__rc21>
    26c3: d0 3f        	bne	$2704 <__udivmoddi4+0x3d4>
    26c5: 85 06        	sta	$6                      ; 0x6 <__rc4>
    26c7: a4 1d        	ldy	$1d                     ; 0x1d <__rc27>
    26c9: c4 16        	cpy	$16                     ; 0x16 <__rc20>
    26cb: f0 03        	beq	$26d0 <__udivmoddi4+0x3a0>
    26cd: 4c a6 27     	jmp	$27a6 <__udivmoddi4+0x476>
    26d0: a4 07        	ldy	$7                      ; 0x7 <__rc5>
    26d2: c4 15        	cpy	$15                     ; 0x15 <__rc19>
    26d4: f0 03        	beq	$26d9 <__udivmoddi4+0x3a9>
    26d6: 4c ab 27     	jmp	$27ab <__udivmoddi4+0x47b>
    26d9: a4 0e        	ldy	$e                      ; 0xe <__rc12>
    26db: c4 14        	cpy	$14                     ; 0x14 <__zp_data_size>
    26dd: f0 03        	beq	$26e2 <__udivmoddi4+0x3b2>
    26df: 4c b0 27     	jmp	$27b0 <__udivmoddi4+0x480>
    26e2: a4 05        	ldy	$5                      ; 0x5 <__rc3>
    26e4: c4 09        	cpy	$9                      ; 0x9 <__rc7>
    26e6: f0 03        	beq	$26eb <__udivmoddi4+0x3bb>
    26e8: 4c b5 27     	jmp	$27b5 <__udivmoddi4+0x485>
    26eb: a5 04        	lda	$4                      ; 0x4 <__rc2>
    26ed: c5 08        	cmp	$8                      ; 0x8 <__rc6>
    26ef: f0 03        	beq	$26f4 <__udivmoddi4+0x3c4>
    26f1: 4c ba 27     	jmp	$27ba <__udivmoddi4+0x48a>
    26f4: a4 1c        	ldy	$1c                     ; 0x1c <__rc26>
    26f6: c4 18        	cpy	$18                     ; 0x18 <__rc22>
    26f8: f0 03        	beq	$26fd <__udivmoddi4+0x3cd>
    26fa: 4c bf 27     	jmp	$27bf <__udivmoddi4+0x48f>
    26fd: a4 0b        	ldy	$b                      ; 0xb <__rc9>
    26ff: c4 19        	cpy	$19                     ; 0x19 <__rc23>
    2701: 4c c1 27     	jmp	$27c1 <__udivmoddi4+0x491>
    2704: c4 17        	cpy	$17                     ; 0x17 <__rc21>
    2706: 90 3c        	bcc	$2744 <__udivmoddi4+0x414>
    2708: 85 0c        	sta	$c                      ; 0xc <__rc10>
    270a: 38           	sec
    270b: a5 0b        	lda	$b                      ; 0xb <__rc9>
    270d: e5 19        	sbc	$19                     ; 0x19 <__rc23>
    270f: 85 0b        	sta	$b                      ; 0xb <__rc9>
    2711: a5 1c        	lda	$1c                     ; 0x1c <__rc26>
    2713: e5 18        	sbc	$18                     ; 0x18 <__rc22>
    2715: 85 1c        	sta	$1c                     ; 0x1c <__rc26>
    2717: a5 04        	lda	$4                      ; 0x4 <__rc2>
    2719: e5 08        	sbc	$8                      ; 0x8 <__rc6>
    271b: 85 04        	sta	$4                      ; 0x4 <__rc2>
    271d: a5 05        	lda	$5                      ; 0x5 <__rc3>
    271f: e5 09        	sbc	$9                      ; 0x9 <__rc7>
    2721: 85 05        	sta	$5                      ; 0x5 <__rc3>
    2723: a5 0e        	lda	$e                      ; 0xe <__rc12>
    2725: e5 14        	sbc	$14                     ; 0x14 <__zp_data_size>
    2727: 85 06        	sta	$6                      ; 0x6 <__rc4>
    2729: a5 07        	lda	$7                      ; 0x7 <__rc5>
    272b: e5 15        	sbc	$15                     ; 0x15 <__rc19>
    272d: 85 07        	sta	$7                      ; 0x7 <__rc5>
    272f: a5 1d        	lda	$1d                     ; 0x1d <__rc27>
    2731: e5 16        	sbc	$16                     ; 0x16 <__rc20>
    2733: a8           	tay
    2734: a5 0a        	lda	$a                      ; 0xa <__rc8>
    2736: e5 17        	sbc	$17                     ; 0x17 <__rc21>
    2738: 85 0a        	sta	$a                      ; 0xa <__rc8>
    273a: a5 06        	lda	$6                      ; 0x6 <__rc4>
    273c: 85 0e        	sta	$e                      ; 0xe <__rc12>
    273e: 84 1d        	sty	$1d                     ; 0x1d <__rc27>
    2740: a5 0c        	lda	$c                      ; 0xc <__rc10>
    2742: 09 01        	ora	#$1
    2744: a0 00        	ldy	#$0
    2746: 48           	pha
    2747: a5 0d        	lda	$d                      ; 0xd <__rc11>
    2749: c9 01        	cmp	#$1
    274b: 68           	pla
    274c: 48           	pha
    274d: 84 13        	sty	$13                     ; 0x13 <__rc17>
    274f: a0 0f        	ldy	#$f
    2751: b1 02        	lda	($2),y                  ; 0x2 <__rc0>
    2753: 85 06        	sta	$6                      ; 0x6 <__rc4>
    2755: 26 06        	rol	$6                      ; 0x6 <__rc4>
    2757: a5 06        	lda	$6                      ; 0x6 <__rc4>
    2759: 91 02        	sta	($2),y                  ; 0x2 <__rc0>
    275b: 88           	dey
    275c: b1 02        	lda	($2),y                  ; 0x2 <__rc0>
    275e: 85 06        	sta	$6                      ; 0x6 <__rc4>
    2760: 26 06        	rol	$6                      ; 0x6 <__rc4>
    2762: a5 06        	lda	$6                      ; 0x6 <__rc4>
    2764: 91 02        	sta	($2),y                  ; 0x2 <__rc0>
    2766: 88           	dey
    2767: b1 02        	lda	($2),y                  ; 0x2 <__rc0>
    2769: 85 06        	sta	$6                      ; 0x6 <__rc4>
    276b: 26 06        	rol	$6                      ; 0x6 <__rc4>
    276d: a5 06        	lda	$6                      ; 0x6 <__rc4>
    276f: 91 02        	sta	($2),y                  ; 0x2 <__rc0>
    2771: 88           	dey
    2772: b1 02        	lda	($2),y                  ; 0x2 <__rc0>
    2774: 85 06        	sta	$6                      ; 0x6 <__rc4>
    2776: 26 06        	rol	$6                      ; 0x6 <__rc4>
    2778: a5 06        	lda	$6                      ; 0x6 <__rc4>
    277a: 91 02        	sta	($2),y                  ; 0x2 <__rc0>
    277c: 88           	dey
    277d: b1 02        	lda	($2),y                  ; 0x2 <__rc0>
    277f: 85 06        	sta	$6                      ; 0x6 <__rc4>
    2781: 26 06        	rol	$6                      ; 0x6 <__rc4>
    2783: a5 06        	lda	$6                      ; 0x6 <__rc4>
    2785: 91 02        	sta	($2),y                  ; 0x2 <__rc0>
    2787: 88           	dey
    2788: b1 02        	lda	($2),y                  ; 0x2 <__rc0>
    278a: 85 06        	sta	$6                      ; 0x6 <__rc4>
    278c: 26 06        	rol	$6                      ; 0x6 <__rc4>
    278e: a5 06        	lda	$6                      ; 0x6 <__rc4>
    2790: 91 02        	sta	($2),y                  ; 0x2 <__rc0>
    2792: 88           	dey
    2793: b1 02        	lda	($2),y                  ; 0x2 <__rc0>
    2795: 85 06        	sta	$6                      ; 0x6 <__rc4>
    2797: 26 06        	rol	$6                      ; 0x6 <__rc4>
    2799: a5 06        	lda	$6                      ; 0x6 <__rc4>
    279b: 91 02        	sta	($2),y                  ; 0x2 <__rc0>
    279d: a4 13        	ldy	$13                     ; 0x13 <__rc17>
    279f: 68           	pla
    27a0: ca           	dex
    27a1: f0 4e        	beq	$27f1 <__udivmoddi4+0x4c1>
    27a3: 4c a6 26     	jmp	$26a6 <__udivmoddi4+0x376>
    27a6: c4 16        	cpy	$16                     ; 0x16 <__rc20>
    27a8: 4c c1 27     	jmp	$27c1 <__udivmoddi4+0x491>
    27ab: c4 15        	cpy	$15                     ; 0x15 <__rc19>
    27ad: 4c c1 27     	jmp	$27c1 <__udivmoddi4+0x491>
    27b0: c4 14        	cpy	$14                     ; 0x14 <__zp_data_size>
    27b2: 4c c1 27     	jmp	$27c1 <__udivmoddi4+0x491>
    27b5: c4 09        	cpy	$9                      ; 0x9 <__rc7>
    27b7: 4c c1 27     	jmp	$27c1 <__udivmoddi4+0x491>
    27ba: c5 08        	cmp	$8                      ; 0x8 <__rc6>
    27bc: 4c c1 27     	jmp	$27c1 <__udivmoddi4+0x491>
    27bf: c4 18        	cpy	$18                     ; 0x18 <__rc22>
    27c1: a5 06        	lda	$6                      ; 0x6 <__rc4>
    27c3: 90 03        	bcc	$27c8 <__udivmoddi4+0x498>
    27c5: 4c 08 27     	jmp	$2708 <__udivmoddi4+0x3d8>
    27c8: 4c 44 27     	jmp	$2744 <__udivmoddi4+0x414>
    27cb: a9 01        	lda	#$1
    27cd: a2 00        	ldx	#$0
    27cf: 48           	pha
    27d0: 8a           	txa
    27d1: 91 02        	sta	($2),y                  ; 0x2 <__rc0>
    27d3: a0 0e        	ldy	#$e
    27d5: 91 02        	sta	($2),y                  ; 0x2 <__rc0>
    27d7: 88           	dey
    27d8: 91 02        	sta	($2),y                  ; 0x2 <__rc0>
    27da: 88           	dey
    27db: 91 02        	sta	($2),y                  ; 0x2 <__rc0>
    27dd: 88           	dey
    27de: 91 02        	sta	($2),y                  ; 0x2 <__rc0>
    27e0: 88           	dey
    27e1: 91 02        	sta	($2),y                  ; 0x2 <__rc0>
    27e3: 88           	dey
    27e4: 91 02        	sta	($2),y                  ; 0x2 <__rc0>
    27e6: 68           	pla
    27e7: a6 0e        	ldx	$e                      ; 0xe <__rc12>
    27e9: 86 1d        	stx	$1d                     ; 0x1d <__rc27>
    27eb: a0 00        	ldy	#$0
    27ed: a6 06        	ldx	$6                      ; 0x6 <__rc4>
    27ef: 86 0e        	stx	$e                      ; 0xe <__rc12>
    27f1: aa           	tax
    27f2: a5 0b        	lda	$b                      ; 0xb <__rc9>
    27f4: 91 1a        	sta	($1a),y                 ; 0x1a <__rc24>
    27f6: 86 0b        	stx	$b                      ; 0xb <__rc9>
    27f8: a5 1c        	lda	$1c                     ; 0x1c <__rc26>
    27fa: a0 01        	ldy	#$1
    27fc: 91 1a        	sta	($1a),y                 ; 0x1a <__rc24>
    27fe: c8           	iny
    27ff: a5 04        	lda	$4                      ; 0x4 <__rc2>
    2801: 91 1a        	sta	($1a),y                 ; 0x1a <__rc24>
    2803: c8           	iny
    2804: a5 05        	lda	$5                      ; 0x5 <__rc3>
    2806: 91 1a        	sta	($1a),y                 ; 0x1a <__rc24>
    2808: c8           	iny
    2809: a5 0e        	lda	$e                      ; 0xe <__rc12>
    280b: 91 1a        	sta	($1a),y                 ; 0x1a <__rc24>
    280d: c8           	iny
    280e: a5 07        	lda	$7                      ; 0x7 <__rc5>
    2810: 91 1a        	sta	($1a),y                 ; 0x1a <__rc24>
    2812: c8           	iny
    2813: a5 1d        	lda	$1d                     ; 0x1d <__rc27>
    2815: 91 1a        	sta	($1a),y                 ; 0x1a <__rc24>
    2817: c8           	iny
    2818: a5 0a        	lda	$a                      ; 0xa <__rc8>
    281a: 91 1a        	sta	($1a),y                 ; 0x1a <__rc24>
    281c: a0 0e        	ldy	#$e
    281e: b1 02        	lda	($2),y                  ; 0x2 <__rc0>
    2820: 85 04        	sta	$4                      ; 0x4 <__rc2>
    2822: 88           	dey
    2823: b1 02        	lda	($2),y                  ; 0x2 <__rc0>
    2825: 85 05        	sta	$5                      ; 0x5 <__rc3>
    2827: 88           	dey
    2828: b1 02        	lda	($2),y                  ; 0x2 <__rc0>
    282a: 85 06        	sta	$6                      ; 0x6 <__rc4>
    282c: 88           	dey
    282d: b1 02        	lda	($2),y                  ; 0x2 <__rc0>
    282f: 85 07        	sta	$7                      ; 0x7 <__rc5>
    2831: 88           	dey
    2832: b1 02        	lda	($2),y                  ; 0x2 <__rc0>
    2834: 85 08        	sta	$8                      ; 0x8 <__rc6>
    2836: 88           	dey
    2837: b1 02        	lda	($2),y                  ; 0x2 <__rc0>
    2839: 85 09        	sta	$9                      ; 0x9 <__rc7>
    283b: a0 0f        	ldy	#$f
    283d: b1 02        	lda	($2),y                  ; 0x2 <__rc0>
    283f: aa           	tax
    2840: a5 0b        	lda	$b                      ; 0xb <__rc9>
    2842: 85 12        	sta	$12                     ; 0x12 <__rc16>
    2844: a0 00        	ldy	#$0
    2846: b1 02        	lda	($2),y                  ; 0x2 <__rc0>
    2848: 85 21        	sta	$21                     ; 0x21 <__rc31>
    284a: c8           	iny
    284b: b1 02        	lda	($2),y                  ; 0x2 <__rc0>
    284d: 85 20        	sta	$20                     ; 0x20 <__rc30>
    284f: c8           	iny
    2850: b1 02        	lda	($2),y                  ; 0x2 <__rc0>
    2852: 85 1f        	sta	$1f                     ; 0x1f <__rc29>
    2854: c8           	iny
    2855: b1 02        	lda	($2),y                  ; 0x2 <__rc0>
    2857: 85 1e        	sta	$1e                     ; 0x1e <__rc28>
    2859: c8           	iny
    285a: b1 02        	lda	($2),y                  ; 0x2 <__rc0>
    285c: 85 1d        	sta	$1d                     ; 0x1d <__rc27>
    285e: c8           	iny
    285f: b1 02        	lda	($2),y                  ; 0x2 <__rc0>
    2861: 85 1c        	sta	$1c                     ; 0x1c <__rc26>
    2863: c8           	iny
    2864: b1 02        	lda	($2),y                  ; 0x2 <__rc0>
    2866: 85 1b        	sta	$1b                     ; 0x1b <__rc25>
    2868: c8           	iny
    2869: b1 02        	lda	($2),y                  ; 0x2 <__rc0>
    286b: 85 1a        	sta	$1a                     ; 0x1a <__rc24>
    286d: 68           	pla
    286e: 85 19        	sta	$19                     ; 0x19 <__rc23>
    2870: 68           	pla
    2871: 85 18        	sta	$18                     ; 0x18 <__rc22>
    2873: 68           	pla
    2874: 85 17        	sta	$17                     ; 0x17 <__rc21>
    2876: 68           	pla
    2877: 85 16        	sta	$16                     ; 0x16 <__rc20>
    2879: 18           	clc
    287a: a5 02        	lda	$2                      ; 0x2 <__rc0>
    287c: 69 10        	adc	#$10
    287e: 85 02        	sta	$2                      ; 0x2 <__rc0>
    2880: a5 03        	lda	$3                      ; 0x3 <__rc1>
    2882: 69 00        	adc	#$0
    2884: 85 03        	sta	$3                      ; 0x3 <__rc1>
    2886: a5 12        	lda	$12                     ; 0x12 <__rc16>
    2888: 60           	rts
    2889: a6 09        	ldx	$9                      ; 0x9 <__rc7>
    288b: 86 0a        	stx	$a                      ; 0xa <__rc8>
    288d: a0 00        	ldy	#$0
    288f: a2 00        	ldx	#$0
    2891: 98           	tya
    2892: 84 13        	sty	$13                     ; 0x13 <__rc17>
    2894: a0 0f        	ldy	#$f
    2896: 91 02        	sta	($2),y                  ; 0x2 <__rc0>
    2898: a4 13        	ldy	$13                     ; 0x13 <__rc17>
    289a: 98           	tya
    289b: 84 13        	sty	$13                     ; 0x13 <__rc17>
    289d: a0 0e        	ldy	#$e
    289f: 91 02        	sta	($2),y                  ; 0x2 <__rc0>
    28a1: a4 13        	ldy	$13                     ; 0x13 <__rc17>
    28a3: 98           	tya
    28a4: 84 13        	sty	$13                     ; 0x13 <__rc17>
    28a6: a0 0d        	ldy	#$d
    28a8: 91 02        	sta	($2),y                  ; 0x2 <__rc0>
    28aa: a4 13        	ldy	$13                     ; 0x13 <__rc17>
    28ac: 98           	tya
    28ad: 84 13        	sty	$13                     ; 0x13 <__rc17>
    28af: a0 0c        	ldy	#$c
    28b1: 91 02        	sta	($2),y                  ; 0x2 <__rc0>
    28b3: a4 13        	ldy	$13                     ; 0x13 <__rc17>
    28b5: 98           	tya
    28b6: 84 13        	sty	$13                     ; 0x13 <__rc17>
    28b8: a0 0b        	ldy	#$b
    28ba: 91 02        	sta	($2),y                  ; 0x2 <__rc0>
    28bc: a4 13        	ldy	$13                     ; 0x13 <__rc17>
    28be: 98           	tya
    28bf: 84 13        	sty	$13                     ; 0x13 <__rc17>
    28c1: a0 0a        	ldy	#$a
    28c3: 91 02        	sta	($2),y                  ; 0x2 <__rc0>
    28c5: a4 13        	ldy	$13                     ; 0x13 <__rc17>
    28c7: 98           	tya
    28c8: 84 13        	sty	$13                     ; 0x13 <__rc17>
    28ca: a0 09        	ldy	#$9
    28cc: 91 02        	sta	($2),y                  ; 0x2 <__rc0>
    28ce: a6 06        	ldx	$6                      ; 0x6 <__rc4>
    28d0: 86 0e        	stx	$e                      ; 0xe <__rc12>
    28d2: 88           	dey
    28d3: b1 02        	lda	($2),y                  ; 0x2 <__rc0>
    28d5: a4 13        	ldy	$13                     ; 0x13 <__rc17>
    28d7: 85 0b        	sta	$b                      ; 0xb <__rc9>
    28d9: 98           	tya
    28da: a0 00        	ldy	#$0
    28dc: 4c f1 27     	jmp	$27f1 <__udivmoddi4+0x4c1>

000028df <__divmodsi4>:
    28df: 85 12        	sta	$12                     ; 0x12 <__rc16>
    28e1: 18           	clc
    28e2: a5 02        	lda	$2                      ; 0x2 <__rc0>
    28e4: 69 fb        	adc	#$fb
    28e6: 85 02        	sta	$2                      ; 0x2 <__rc0>
    28e8: a5 03        	lda	$3                      ; 0x3 <__rc1>
    28ea: 69 ff        	adc	#$ff
    28ec: 85 03        	sta	$3                      ; 0x3 <__rc1>
    28ee: a5 16        	lda	$16                     ; 0x16 <__rc20>
    28f0: 48           	pha
    28f1: a5 17        	lda	$17                     ; 0x17 <__rc21>
    28f3: 48           	pha
    28f4: a5 18        	lda	$18                     ; 0x18 <__rc22>
    28f6: 48           	pha
    28f7: a5 19        	lda	$19                     ; 0x19 <__rc23>
    28f9: 48           	pha
    28fa: a5 12        	lda	$12                     ; 0x12 <__rc16>
    28fc: 48           	pha
    28fd: a5 1a        	lda	$1a                     ; 0x1a <__rc24>
    28ff: a0 02        	ldy	#$2
    2901: 91 02        	sta	($2),y                  ; 0x2 <__rc0>
    2903: a5 1b        	lda	$1b                     ; 0x1b <__rc25>
    2905: 88           	dey
    2906: 91 02        	sta	($2),y                  ; 0x2 <__rc0>
    2908: a5 1c        	lda	$1c                     ; 0x1c <__rc26>
    290a: 88           	dey
    290b: 91 02        	sta	($2),y                  ; 0x2 <__rc0>
    290d: 68           	pla
    290e: 85 0d        	sta	$d                      ; 0xd <__rc11>
    2910: 86 0c        	stx	$c                      ; 0xc <__rc10>
    2912: e6 05        	inc	$5                      ; 0x5 <__rc3>
    2914: c6 05        	dec	$5                      ; 0x5 <__rc3>
    2916: 30 14        	bmi	$292c <__divmodsi4+0x4d>
    2918: a8           	tay
    2919: 84 13        	sty	$13                     ; 0x13 <__rc17>
    291b: 8a           	txa
    291c: a0 03        	ldy	#$3
    291e: 91 02        	sta	($2),y                  ; 0x2 <__rc0>
    2920: a5 04        	lda	$4                      ; 0x4 <__rc2>
    2922: c8           	iny
    2923: 91 02        	sta	($2),y                  ; 0x2 <__rc0>
    2925: a4 13        	ldy	$13                     ; 0x13 <__rc17>
    2927: a5 05        	lda	$5                      ; 0x5 <__rc3>
    2929: 4c 70 29     	jmp	$2970 <__divmodsi4+0x91>
    292c: a6 05        	ldx	$5                      ; 0x5 <__rc3>
    292e: e0 80        	cpx	#$80
    2930: d0 21        	bne	$2953 <__divmodsi4+0x74>
    2932: a5 04        	lda	$4                      ; 0x4 <__rc2>
    2934: d0 1d        	bne	$2953 <__divmodsi4+0x74>
    2936: a5 0c        	lda	$c                      ; 0xc <__rc10>
    2938: d0 19        	bne	$2953 <__divmodsi4+0x74>
    293a: a5 0d        	lda	$d                      ; 0xd <__rc11>
    293c: d0 15        	bne	$2953 <__divmodsi4+0x74>
    293e: a9 80        	lda	#$80
    2940: a2 00        	ldx	#$0
    2942: 48           	pha
    2943: 84 13        	sty	$13                     ; 0x13 <__rc17>
    2945: 8a           	txa
    2946: a0 03        	ldy	#$3
    2948: 91 02        	sta	($2),y                  ; 0x2 <__rc0>
    294a: c8           	iny
    294b: 91 02        	sta	($2),y                  ; 0x2 <__rc0>
    294d: a4 13        	ldy	$13                     ; 0x13 <__rc17>
    294f: 68           	pla
    2950: 4c 70 29     	jmp	$2970 <__divmodsi4+0x91>
    2953: 38           	sec
    2954: a9 00        	lda	#$0
    2956: e5 0d        	sbc	$d                      ; 0xd <__rc11>
    2958: a8           	tay
    2959: a9 00        	lda	#$0
    295b: e5 0c        	sbc	$c                      ; 0xc <__rc10>
    295d: 84 13        	sty	$13                     ; 0x13 <__rc17>
    295f: a0 03        	ldy	#$3
    2961: 91 02        	sta	($2),y                  ; 0x2 <__rc0>
    2963: a9 00        	lda	#$0
    2965: e5 04        	sbc	$4                      ; 0x4 <__rc2>
    2967: c8           	iny
    2968: 91 02        	sta	($2),y                  ; 0x2 <__rc0>
    296a: a4 13        	ldy	$13                     ; 0x13 <__rc17>
    296c: a9 00        	lda	#$0
    296e: e5 05        	sbc	$5                      ; 0x5 <__rc3>
    2970: a6 09        	ldx	$9                      ; 0x9 <__rc7>
    2972: 30 3a        	bmi	$29ae <__divmodsi4+0xcf>
    2974: a6 09        	ldx	$9                      ; 0x9 <__rc7>
    2976: 86 04        	stx	$4                      ; 0x4 <__rc2>
    2978: aa           	tax
    2979: 98           	tya
    297a: e6 09        	inc	$9                      ; 0x9 <__rc7>
    297c: c6 09        	dec	$9                      ; 0x9 <__rc7>
    297e: f0 03        	beq	$2983 <__divmodsi4+0xa4>
    2980: 4c f5 29     	jmp	$29f5 <__divmodsi4+0x116>
    2983: e6 08        	inc	$8                      ; 0x8 <__rc6>
    2985: c6 08        	dec	$8                      ; 0x8 <__rc6>
    2987: f0 03        	beq	$298c <__divmodsi4+0xad>
    2989: 4c f5 29     	jmp	$29f5 <__divmodsi4+0x116>
    298c: e6 07        	inc	$7                      ; 0x7 <__rc5>
    298e: c6 07        	dec	$7                      ; 0x7 <__rc5>
    2990: f0 03        	beq	$2995 <__divmodsi4+0xb6>
    2992: 4c f5 29     	jmp	$29f5 <__divmodsi4+0x116>
    2995: e6 06        	inc	$6                      ; 0x6 <__rc4>
    2997: c6 06        	dec	$6                      ; 0x6 <__rc4>
    2999: f0 03        	beq	$299e <__divmodsi4+0xbf>
    299b: 4c f5 29     	jmp	$29f5 <__divmodsi4+0x116>
    299e: 84 10        	sty	$10                     ; 0x10 <__rc14>
    29a0: a0 03        	ldy	#$3
    29a2: b1 02        	lda	($2),y                  ; 0x2 <__rc0>
    29a4: 85 11        	sta	$11                     ; 0x11 <__rc15>
    29a6: c8           	iny
    29a7: b1 02        	lda	($2),y                  ; 0x2 <__rc0>
    29a9: 85 14        	sta	$14                     ; 0x14 <__zp_data_size>
    29ab: 4c 3a 2a     	jmp	$2a3a <__divmodsi4+0x15b>
    29ae: a6 09        	ldx	$9                      ; 0x9 <__rc7>
    29b0: e0 80        	cpx	#$80
    29b2: d0 26        	bne	$29da <__divmodsi4+0xfb>
    29b4: a6 08        	ldx	$8                      ; 0x8 <__rc6>
    29b6: d0 22        	bne	$29da <__divmodsi4+0xfb>
    29b8: a6 07        	ldx	$7                      ; 0x7 <__rc5>
    29ba: d0 1e        	bne	$29da <__divmodsi4+0xfb>
    29bc: a6 06        	ldx	$6                      ; 0x6 <__rc4>
    29be: d0 1a        	bne	$29da <__divmodsi4+0xfb>
    29c0: aa           	tax
    29c1: 10 03        	bpl	$29c6 <__divmodsi4+0xe7>
    29c3: 4c 6b 2c     	jmp	$2c6b <__divmodsi4+0x38c>
    29c6: 84 10        	sty	$10                     ; 0x10 <__rc14>
    29c8: 48           	pha
    29c9: a0 03        	ldy	#$3
    29cb: b1 02        	lda	($2),y                  ; 0x2 <__rc0>
    29cd: 85 11        	sta	$11                     ; 0x11 <__rc15>
    29cf: c8           	iny
    29d0: b1 02        	lda	($2),y                  ; 0x2 <__rc0>
    29d2: 85 14        	sta	$14                     ; 0x14 <__zp_data_size>
    29d4: 68           	pla
    29d5: 85 15        	sta	$15                     ; 0x15 <__rc19>
    29d7: 4c 3c 2a     	jmp	$2a3c <__divmodsi4+0x15d>
    29da: aa           	tax
    29db: 38           	sec
    29dc: a9 00        	lda	#$0
    29de: e5 06        	sbc	$6                      ; 0x6 <__rc4>
    29e0: 85 06        	sta	$6                      ; 0x6 <__rc4>
    29e2: a9 00        	lda	#$0
    29e4: e5 07        	sbc	$7                      ; 0x7 <__rc5>
    29e6: 85 07        	sta	$7                      ; 0x7 <__rc5>
    29e8: a9 00        	lda	#$0
    29ea: e5 08        	sbc	$8                      ; 0x8 <__rc6>
    29ec: 85 08        	sta	$8                      ; 0x8 <__rc6>
    29ee: a9 00        	lda	#$0
    29f0: e5 09        	sbc	$9                      ; 0x9 <__rc7>
    29f2: 85 04        	sta	$4                      ; 0x4 <__rc2>
    29f4: 98           	tya
    29f5: 86 16        	stx	$16                     ; 0x16 <__rc20>
    29f7: e4 04        	cpx	$4                      ; 0x4 <__rc2>
    29f9: d0 19        	bne	$2a14 <__divmodsi4+0x135>
    29fb: aa           	tax
    29fc: a0 04        	ldy	#$4
    29fe: b1 02        	lda	($2),y                  ; 0x2 <__rc0>
    2a00: c5 08        	cmp	$8                      ; 0x8 <__rc6>
    2a02: d0 17        	bne	$2a1b <__divmodsi4+0x13c>
    2a04: a0 03        	ldy	#$3
    2a06: b1 02        	lda	($2),y                  ; 0x2 <__rc0>
    2a08: c5 07        	cmp	$7                      ; 0x7 <__rc5>
    2a0a: d0 1b        	bne	$2a27 <__divmodsi4+0x148>
    2a0c: 8a           	txa
    2a0d: e4 06        	cpx	$6                      ; 0x6 <__rc4>
    2a0f: 90 1b        	bcc	$2a2c <__divmodsi4+0x14d>
    2a11: 4c 43 2a     	jmp	$2a43 <__divmodsi4+0x164>
    2a14: e4 04        	cpx	$4                      ; 0x4 <__rc2>
    2a16: 90 08        	bcc	$2a20 <__divmodsi4+0x141>
    2a18: 4c 43 2a     	jmp	$2a43 <__divmodsi4+0x164>
    2a1b: c5 08        	cmp	$8                      ; 0x8 <__rc6>
    2a1d: 8a           	txa
    2a1e: b0 23        	bcs	$2a43 <__divmodsi4+0x164>
    2a20: 85 10        	sta	$10                     ; 0x10 <__rc14>
    2a22: a0 03        	ldy	#$3
    2a24: 4c 2e 2a     	jmp	$2a2e <__divmodsi4+0x14f>
    2a27: c5 07        	cmp	$7                      ; 0x7 <__rc5>
    2a29: 8a           	txa
    2a2a: b0 17        	bcs	$2a43 <__divmodsi4+0x164>
    2a2c: 86 10        	stx	$10                     ; 0x10 <__rc14>
    2a2e: b1 02        	lda	($2),y                  ; 0x2 <__rc0>
    2a30: 85 11        	sta	$11                     ; 0x11 <__rc15>
    2a32: a0 04        	ldy	#$4
    2a34: b1 02        	lda	($2),y                  ; 0x2 <__rc0>
    2a36: 85 14        	sta	$14                     ; 0x14 <__zp_data_size>
    2a38: a6 16        	ldx	$16                     ; 0x16 <__rc20>
    2a3a: 86 15        	stx	$15                     ; 0x15 <__rc19>
    2a3c: a2 00        	ldx	#$0
    2a3e: 86 08        	stx	$8                      ; 0x8 <__rc6>
    2a40: 4c c4 2b     	jmp	$2bc4 <__divmodsi4+0x2e5>
    2a43: a2 00        	ldx	#$0
    2a45: a4 06        	ldy	$6                      ; 0x6 <__rc4>
    2a47: 84 0c        	sty	$c                      ; 0xc <__rc10>
    2a49: a4 07        	ldy	$7                      ; 0x7 <__rc5>
    2a4b: 84 0d        	sty	$d                      ; 0xd <__rc11>
    2a4d: a4 08        	ldy	$8                      ; 0x8 <__rc6>
    2a4f: 84 0e        	sty	$e                      ; 0xe <__rc12>
    2a51: a4 04        	ldy	$4                      ; 0x4 <__rc2>
    2a53: 84 0f        	sty	$f                      ; 0xf <__rc13>
    2a55: 85 10        	sta	$10                     ; 0x10 <__rc14>
    2a57: 06 0c        	asl	$c                      ; 0xc <__rc10>
    2a59: 26 0d        	rol	$d                      ; 0xd <__rc11>
    2a5b: 26 0e        	rol	$e                      ; 0xe <__rc12>
    2a5d: 26 0f        	rol	$f                      ; 0xf <__rc13>
    2a5f: a5 16        	lda	$16                     ; 0x16 <__rc20>
    2a61: c5 0f        	cmp	$f                      ; 0xf <__rc13>
    2a63: d0 19        	bne	$2a7e <__divmodsi4+0x19f>
    2a65: a0 04        	ldy	#$4
    2a67: b1 02        	lda	($2),y                  ; 0x2 <__rc0>
    2a69: c5 0e        	cmp	$e                      ; 0xe <__rc12>
    2a6b: d0 16        	bne	$2a83 <__divmodsi4+0x1a4>
    2a6d: a0 03        	ldy	#$3
    2a6f: b1 02        	lda	($2),y                  ; 0x2 <__rc0>
    2a71: c5 0d        	cmp	$d                      ; 0xd <__rc11>
    2a73: d0 13        	bne	$2a88 <__divmodsi4+0x1a9>
    2a75: a5 10        	lda	$10                     ; 0x10 <__rc14>
    2a77: c5 0c        	cmp	$c                      ; 0xc <__rc10>
    2a79: b0 13        	bcs	$2a8e <__divmodsi4+0x1af>
    2a7b: 4c a4 2a     	jmp	$2aa4 <__divmodsi4+0x1c5>
    2a7e: c5 0f        	cmp	$f                      ; 0xf <__rc13>
    2a80: 4c 8a 2a     	jmp	$2a8a <__divmodsi4+0x1ab>
    2a83: c5 0e        	cmp	$e                      ; 0xe <__rc12>
    2a85: 4c 8a 2a     	jmp	$2a8a <__divmodsi4+0x1ab>
    2a88: c5 0d        	cmp	$d                      ; 0xd <__rc11>
    2a8a: a5 10        	lda	$10                     ; 0x10 <__rc14>
    2a8c: 90 16        	bcc	$2aa4 <__divmodsi4+0x1c5>
    2a8e: e8           	inx
    2a8f: a4 0c        	ldy	$c                      ; 0xc <__rc10>
    2a91: 84 06        	sty	$6                      ; 0x6 <__rc4>
    2a93: a4 0d        	ldy	$d                      ; 0xd <__rc11>
    2a95: 84 07        	sty	$7                      ; 0x7 <__rc5>
    2a97: a4 0e        	ldy	$e                      ; 0xe <__rc12>
    2a99: 84 08        	sty	$8                      ; 0x8 <__rc6>
    2a9b: a4 0f        	ldy	$f                      ; 0xf <__rc13>
    2a9d: 84 04        	sty	$4                      ; 0x4 <__rc2>
    2a9f: 10 b4        	bpl	$2a55 <__divmodsi4+0x176>
    2aa1: 4c b4 2a     	jmp	$2ab4 <__divmodsi4+0x1d5>
    2aa4: a4 06        	ldy	$6                      ; 0x6 <__rc4>
    2aa6: 84 0c        	sty	$c                      ; 0xc <__rc10>
    2aa8: a4 07        	ldy	$7                      ; 0x7 <__rc5>
    2aaa: 84 0d        	sty	$d                      ; 0xd <__rc11>
    2aac: a4 08        	ldy	$8                      ; 0x8 <__rc6>
    2aae: 84 0e        	sty	$e                      ; 0xe <__rc12>
    2ab0: a4 04        	ldy	$4                      ; 0x4 <__rc2>
    2ab2: 84 0f        	sty	$f                      ; 0xf <__rc13>
    2ab4: 38           	sec
    2ab5: e5 0c        	sbc	$c                      ; 0xc <__rc10>
    2ab7: 85 10        	sta	$10                     ; 0x10 <__rc14>
    2ab9: a0 03        	ldy	#$3
    2abb: b1 02        	lda	($2),y                  ; 0x2 <__rc0>
    2abd: e5 0d        	sbc	$d                      ; 0xd <__rc11>
    2abf: 85 11        	sta	$11                     ; 0x11 <__rc15>
    2ac1: c8           	iny
    2ac2: b1 02        	lda	($2),y                  ; 0x2 <__rc0>
    2ac4: e5 0e        	sbc	$e                      ; 0xe <__rc12>
    2ac6: 85 14        	sta	$14                     ; 0x14 <__zp_data_size>
    2ac8: a5 16        	lda	$16                     ; 0x16 <__rc20>
    2aca: e5 0f        	sbc	$f                      ; 0xf <__rc13>
    2acc: a8           	tay
    2acd: e0 00        	cpx	#$0
    2acf: d0 03        	bne	$2ad4 <__divmodsi4+0x1f5>
    2ad1: 4c bd 2b     	jmp	$2bbd <__divmodsi4+0x2de>
    2ad4: 86 18        	stx	$18                     ; 0x18 <__rc22>
    2ad6: a6 10        	ldx	$10                     ; 0x10 <__rc14>
    2ad8: 86 17        	stx	$17                     ; 0x17 <__rc21>
    2ada: a2 00        	ldx	#$0
    2adc: 8a           	txa
    2add: 84 13        	sty	$13                     ; 0x13 <__rc17>
    2adf: a0 04        	ldy	#$4
    2ae1: 91 02        	sta	($2),y                  ; 0x2 <__rc0>
    2ae3: a4 13        	ldy	$13                     ; 0x13 <__rc17>
    2ae5: a9 01        	lda	#$1
    2ae7: 84 1c        	sty	$1c                     ; 0x1c <__rc26>
    2ae9: a0 00        	ldy	#$0
    2aeb: 48           	pha
    2aec: 98           	tya
    2aed: a0 03        	ldy	#$3
    2aef: 91 02        	sta	($2),y                  ; 0x2 <__rc0>
    2af1: 68           	pla
    2af2: a4 11        	ldy	$11                     ; 0x11 <__rc15>
    2af4: 46 0f        	lsr	$f                      ; 0xf <__rc13>
    2af6: 66 0e        	ror	$e                      ; 0xe <__rc12>
    2af8: 66 0d        	ror	$d                      ; 0xd <__rc11>
    2afa: 66 0c        	ror	$c                      ; 0xc <__rc10>
    2afc: 0a           	asl
    2afd: 84 13        	sty	$13                     ; 0x13 <__rc17>
    2aff: a0 01        	ldy	#$1
    2b01: b0 02        	bcs	$2b05 <__divmodsi4+0x226>
    2b03: a0 00        	ldy	#$0
    2b05: 84 07        	sty	$7                      ; 0x7 <__rc5>
    2b07: a4 13        	ldy	$13                     ; 0x13 <__rc17>
    2b09: 84 04        	sty	$4                      ; 0x4 <__rc2>
    2b0b: a4 1c        	ldy	$1c                     ; 0x1c <__rc26>
    2b0d: c4 0f        	cpy	$f                      ; 0xf <__rc13>
    2b0f: d0 1c        	bne	$2b2d <__divmodsi4+0x24e>
    2b11: 85 06        	sta	$6                      ; 0x6 <__rc4>
    2b13: a4 1c        	ldy	$1c                     ; 0x1c <__rc26>
    2b15: a5 14        	lda	$14                     ; 0x14 <__zp_data_size>
    2b17: c5 0e        	cmp	$e                      ; 0xe <__rc12>
    2b19: d0 25        	bne	$2b40 <__divmodsi4+0x261>
    2b1b: a5 04        	lda	$4                      ; 0x4 <__rc2>
    2b1d: c5 0d        	cmp	$d                      ; 0xd <__rc11>
    2b1f: f0 03        	beq	$2b24 <__divmodsi4+0x245>
    2b21: 4c b3 2b     	jmp	$2bb3 <__divmodsi4+0x2d4>
    2b24: a5 17        	lda	$17                     ; 0x17 <__rc21>
    2b26: c5 0c        	cmp	$c                      ; 0xc <__rc10>
    2b28: 90 0d        	bcc	$2b37 <__divmodsi4+0x258>
    2b2a: 4c 44 2b     	jmp	$2b44 <__divmodsi4+0x265>
    2b2d: 85 06        	sta	$6                      ; 0x6 <__rc4>
    2b2f: a5 1c        	lda	$1c                     ; 0x1c <__rc26>
    2b31: a4 1c        	ldy	$1c                     ; 0x1c <__rc26>
    2b33: c5 0f        	cmp	$f                      ; 0xf <__rc13>
    2b35: b0 0d        	bcs	$2b44 <__divmodsi4+0x265>
    2b37: a4 04        	ldy	$4                      ; 0x4 <__rc2>
    2b39: 84 08        	sty	$8                      ; 0x8 <__rc6>
    2b3b: a5 06        	lda	$6                      ; 0x6 <__rc4>
    2b3d: 4c 60 2b     	jmp	$2b60 <__divmodsi4+0x281>
    2b40: c5 0e        	cmp	$e                      ; 0xe <__rc12>
    2b42: 90 f3        	bcc	$2b37 <__divmodsi4+0x258>
    2b44: 38           	sec
    2b45: a5 17        	lda	$17                     ; 0x17 <__rc21>
    2b47: e5 0c        	sbc	$c                      ; 0xc <__rc10>
    2b49: 85 17        	sta	$17                     ; 0x17 <__rc21>
    2b4b: a5 04        	lda	$4                      ; 0x4 <__rc2>
    2b4d: e5 0d        	sbc	$d                      ; 0xd <__rc11>
    2b4f: 85 08        	sta	$8                      ; 0x8 <__rc6>
    2b51: a5 14        	lda	$14                     ; 0x14 <__zp_data_size>
    2b53: e5 0e        	sbc	$e                      ; 0xe <__rc12>
    2b55: 85 14        	sta	$14                     ; 0x14 <__zp_data_size>
    2b57: 98           	tya
    2b58: e5 0f        	sbc	$f                      ; 0xf <__rc13>
    2b5a: 85 1c        	sta	$1c                     ; 0x1c <__rc26>
    2b5c: a5 06        	lda	$6                      ; 0x6 <__rc4>
    2b5e: 09 01        	ora	#$1
    2b60: a4 07        	ldy	$7                      ; 0x7 <__rc5>
    2b62: c0 01        	cpy	#$1
    2b64: 48           	pha
    2b65: a0 04        	ldy	#$4
    2b67: b1 02        	lda	($2),y                  ; 0x2 <__rc0>
    2b69: 85 07        	sta	$7                      ; 0x7 <__rc5>
    2b6b: 26 07        	rol	$7                      ; 0x7 <__rc5>
    2b6d: 86 04        	stx	$4                      ; 0x4 <__rc2>
    2b6f: 26 04        	rol	$4                      ; 0x4 <__rc2>
    2b71: 88           	dey
    2b72: b1 02        	lda	($2),y                  ; 0x2 <__rc0>
    2b74: 85 06        	sta	$6                      ; 0x6 <__rc4>
    2b76: 68           	pla
    2b77: a6 06        	ldx	$6                      ; 0x6 <__rc4>
    2b79: 86 19        	stx	$19                     ; 0x19 <__rc23>
    2b7b: 26 19        	rol	$19                     ; 0x19 <__rc23>
    2b7d: c6 18        	dec	$18                     ; 0x18 <__rc22>
    2b7f: a6 17        	ldx	$17                     ; 0x17 <__rc21>
    2b81: 86 10        	stx	$10                     ; 0x10 <__rc14>
    2b83: a4 08        	ldy	$8                      ; 0x8 <__rc6>
    2b85: 84 11        	sty	$11                     ; 0x11 <__rc15>
    2b87: a6 14        	ldx	$14                     ; 0x14 <__zp_data_size>
    2b89: 86 16        	stx	$16                     ; 0x16 <__rc20>
    2b8b: a6 1c        	ldx	$1c                     ; 0x1c <__rc26>
    2b8d: 86 15        	stx	$15                     ; 0x15 <__rc19>
    2b8f: 85 08        	sta	$8                      ; 0x8 <__rc6>
    2b91: a6 07        	ldx	$7                      ; 0x7 <__rc5>
    2b93: 48           	pha
    2b94: 84 13        	sty	$13                     ; 0x13 <__rc17>
    2b96: 8a           	txa
    2b97: a0 04        	ldy	#$4
    2b99: 91 02        	sta	($2),y                  ; 0x2 <__rc0>
    2b9b: a6 04        	ldx	$4                      ; 0x4 <__rc2>
    2b9d: a4 19        	ldy	$19                     ; 0x19 <__rc23>
    2b9f: 84 06        	sty	$6                      ; 0x6 <__rc4>
    2ba1: a5 19        	lda	$19                     ; 0x19 <__rc23>
    2ba3: a0 03        	ldy	#$3
    2ba5: 91 02        	sta	($2),y                  ; 0x2 <__rc0>
    2ba7: a4 13        	ldy	$13                     ; 0x13 <__rc17>
    2ba9: 68           	pla
    2baa: e6 18        	inc	$18                     ; 0x18 <__rc22>
    2bac: c6 18        	dec	$18                     ; 0x18 <__rc22>
    2bae: f0 1a        	beq	$2bca <__divmodsi4+0x2eb>
    2bb0: 4c f4 2a     	jmp	$2af4 <__divmodsi4+0x215>
    2bb3: c5 0d        	cmp	$d                      ; 0xd <__rc11>
    2bb5: b0 03        	bcs	$2bba <__divmodsi4+0x2db>
    2bb7: 4c 37 2b     	jmp	$2b37 <__divmodsi4+0x258>
    2bba: 4c 44 2b     	jmp	$2b44 <__divmodsi4+0x265>
    2bbd: 85 15        	sta	$15                     ; 0x15 <__rc19>
    2bbf: a2 01        	ldx	#$1
    2bc1: 86 08        	stx	$8                      ; 0x8 <__rc6>
    2bc3: ca           	dex
    2bc4: 86 07        	stx	$7                      ; 0x7 <__rc5>
    2bc6: 86 04        	stx	$4                      ; 0x4 <__rc2>
    2bc8: 86 06        	stx	$6                      ; 0x6 <__rc4>
    2bca: a5 05        	lda	$5                      ; 0x5 <__rc3>
    2bcc: 10 19        	bpl	$2be7 <__divmodsi4+0x308>
    2bce: 38           	sec
    2bcf: a9 00        	lda	#$0
    2bd1: e5 10        	sbc	$10                     ; 0x10 <__rc14>
    2bd3: 85 10        	sta	$10                     ; 0x10 <__rc14>
    2bd5: a9 00        	lda	#$0
    2bd7: e5 11        	sbc	$11                     ; 0x11 <__rc15>
    2bd9: 85 11        	sta	$11                     ; 0x11 <__rc15>
    2bdb: a9 00        	lda	#$0
    2bdd: e5 14        	sbc	$14                     ; 0x14 <__zp_data_size>
    2bdf: 85 14        	sta	$14                     ; 0x14 <__zp_data_size>
    2be1: a9 00        	lda	#$0
    2be3: e5 15        	sbc	$15                     ; 0x15 <__rc19>
    2be5: 85 15        	sta	$15                     ; 0x15 <__rc19>
    2be7: a0 00        	ldy	#$0
    2be9: a5 10        	lda	$10                     ; 0x10 <__rc14>
    2beb: 91 0a        	sta	($a),y                  ; 0xa <__rc8>
    2bed: c8           	iny
    2bee: a5 11        	lda	$11                     ; 0x11 <__rc15>
    2bf0: 91 0a        	sta	($a),y                  ; 0xa <__rc8>
    2bf2: c8           	iny
    2bf3: a5 14        	lda	$14                     ; 0x14 <__zp_data_size>
    2bf5: 91 0a        	sta	($a),y                  ; 0xa <__rc8>
    2bf7: c8           	iny
    2bf8: a5 15        	lda	$15                     ; 0x15 <__rc19>
    2bfa: 91 0a        	sta	($a),y                  ; 0xa <__rc8>
    2bfc: 06 09        	asl	$9                      ; 0x9 <__rc7>
    2bfe: a9 00        	lda	#$0
    2c00: 2a           	rol
    2c01: 85 09        	sta	$9                      ; 0x9 <__rc7>
    2c03: a9 00        	lda	#$0
    2c05: 2a           	rol
    2c06: 06 05        	asl	$5                      ; 0x5 <__rc3>
    2c08: 85 05        	sta	$5                      ; 0x5 <__rc3>
    2c0a: a9 00        	lda	#$0
    2c0c: 2a           	rol
    2c0d: 85 0a        	sta	$a                      ; 0xa <__rc8>
    2c0f: a9 00        	lda	#$0
    2c11: 2a           	rol
    2c12: c5 05        	cmp	$5                      ; 0x5 <__rc3>
    2c14: d0 06        	bne	$2c1c <__divmodsi4+0x33d>
    2c16: a6 0a        	ldx	$a                      ; 0xa <__rc8>
    2c18: e4 09        	cpx	$9                      ; 0x9 <__rc7>
    2c1a: f0 19        	beq	$2c35 <__divmodsi4+0x356>
    2c1c: 38           	sec
    2c1d: a9 00        	lda	#$0
    2c1f: e5 08        	sbc	$8                      ; 0x8 <__rc6>
    2c21: 85 08        	sta	$8                      ; 0x8 <__rc6>
    2c23: a9 00        	lda	#$0
    2c25: e5 07        	sbc	$7                      ; 0x7 <__rc5>
    2c27: 85 07        	sta	$7                      ; 0x7 <__rc5>
    2c29: a9 00        	lda	#$0
    2c2b: e5 04        	sbc	$4                      ; 0x4 <__rc2>
    2c2d: 85 04        	sta	$4                      ; 0x4 <__rc2>
    2c2f: a9 00        	lda	#$0
    2c31: e5 06        	sbc	$6                      ; 0x6 <__rc4>
    2c33: 85 06        	sta	$6                      ; 0x6 <__rc4>
    2c35: a6 06        	ldx	$6                      ; 0x6 <__rc4>
    2c37: 86 05        	stx	$5                      ; 0x5 <__rc3>
    2c39: a6 07        	ldx	$7                      ; 0x7 <__rc5>
    2c3b: a5 08        	lda	$8                      ; 0x8 <__rc6>
    2c3d: 85 12        	sta	$12                     ; 0x12 <__rc16>
    2c3f: a0 00        	ldy	#$0
    2c41: b1 02        	lda	($2),y                  ; 0x2 <__rc0>
    2c43: 85 1c        	sta	$1c                     ; 0x1c <__rc26>
    2c45: c8           	iny
    2c46: b1 02        	lda	($2),y                  ; 0x2 <__rc0>
    2c48: 85 1b        	sta	$1b                     ; 0x1b <__rc25>
    2c4a: c8           	iny
    2c4b: b1 02        	lda	($2),y                  ; 0x2 <__rc0>
    2c4d: 85 1a        	sta	$1a                     ; 0x1a <__rc24>
    2c4f: 68           	pla
    2c50: 85 19        	sta	$19                     ; 0x19 <__rc23>
    2c52: 68           	pla
    2c53: 85 18        	sta	$18                     ; 0x18 <__rc22>
    2c55: 68           	pla
    2c56: 85 17        	sta	$17                     ; 0x17 <__rc21>
    2c58: 68           	pla
    2c59: 85 16        	sta	$16                     ; 0x16 <__rc20>
    2c5b: 18           	clc
    2c5c: a5 02        	lda	$2                      ; 0x2 <__rc0>
    2c5e: 69 05        	adc	#$5
    2c60: 85 02        	sta	$2                      ; 0x2 <__rc0>
    2c62: a5 03        	lda	$3                      ; 0x3 <__rc1>
    2c64: 69 00        	adc	#$0
    2c66: 85 03        	sta	$3                      ; 0x3 <__rc1>
    2c68: a5 12        	lda	$12                     ; 0x12 <__rc16>
    2c6a: 60           	rts
    2c6b: a2 00        	ldx	#$0
    2c6d: 86 10        	stx	$10                     ; 0x10 <__rc14>
    2c6f: 86 11        	stx	$11                     ; 0x11 <__rc15>
    2c71: 86 14        	stx	$14                     ; 0x14 <__zp_data_size>
    2c73: 86 15        	stx	$15                     ; 0x15 <__rc19>
    2c75: 4c bf 2b     	jmp	$2bbf <__divmodsi4+0x2e0>

00002c78 <__divmoddi4>:
    2c78: 85 12        	sta	$12                     ; 0x12 <__rc16>
    2c7a: 18           	clc
    2c7b: a5 02        	lda	$2                      ; 0x2 <__rc0>
    2c7d: 69 e2        	adc	#$e2
    2c7f: 85 02        	sta	$2                      ; 0x2 <__rc0>
    2c81: a5 03        	lda	$3                      ; 0x3 <__rc1>
    2c83: 69 ff        	adc	#$ff
    2c85: 85 03        	sta	$3                      ; 0x3 <__rc1>
    2c87: a5 16        	lda	$16                     ; 0x16 <__rc20>
    2c89: 48           	pha
    2c8a: a5 17        	lda	$17                     ; 0x17 <__rc21>
    2c8c: 48           	pha
    2c8d: a5 18        	lda	$18                     ; 0x18 <__rc22>
    2c8f: 48           	pha
    2c90: a5 19        	lda	$19                     ; 0x19 <__rc23>
    2c92: 48           	pha
    2c93: a5 12        	lda	$12                     ; 0x12 <__rc16>
    2c95: 48           	pha
    2c96: a5 1a        	lda	$1a                     ; 0x1a <__rc24>
    2c98: a0 07        	ldy	#$7
    2c9a: 91 02        	sta	($2),y                  ; 0x2 <__rc0>
    2c9c: a5 1b        	lda	$1b                     ; 0x1b <__rc25>
    2c9e: 88           	dey
    2c9f: 91 02        	sta	($2),y                  ; 0x2 <__rc0>
    2ca1: a5 1c        	lda	$1c                     ; 0x1c <__rc26>
    2ca3: 88           	dey
    2ca4: 91 02        	sta	($2),y                  ; 0x2 <__rc0>
    2ca6: a5 1d        	lda	$1d                     ; 0x1d <__rc27>
    2ca8: 88           	dey
    2ca9: 91 02        	sta	($2),y                  ; 0x2 <__rc0>
    2cab: a5 1e        	lda	$1e                     ; 0x1e <__rc28>
    2cad: 88           	dey
    2cae: 91 02        	sta	($2),y                  ; 0x2 <__rc0>
    2cb0: a5 1f        	lda	$1f                     ; 0x1f <__rc29>
    2cb2: 88           	dey
    2cb3: 91 02        	sta	($2),y                  ; 0x2 <__rc0>
    2cb5: a5 20        	lda	$20                     ; 0x20 <__rc30>
    2cb7: 88           	dey
    2cb8: 91 02        	sta	($2),y                  ; 0x2 <__rc0>
    2cba: a5 21        	lda	$21                     ; 0x21 <__rc31>
    2cbc: 88           	dey
    2cbd: 91 02        	sta	($2),y                  ; 0x2 <__rc0>
    2cbf: 68           	pla
    2cc0: 85 17        	sta	$17                     ; 0x17 <__rc21>
    2cc2: 86 16        	stx	$16                     ; 0x16 <__rc20>
    2cc4: 18           	clc
    2cc5: a5 02        	lda	$2                      ; 0x2 <__rc0>
    2cc7: 69 1e        	adc	#$1e
    2cc9: 85 14        	sta	$14                     ; 0x14 <__zp_data_size>
    2ccb: a5 03        	lda	$3                      ; 0x3 <__rc1>
    2ccd: 69 00        	adc	#$0
    2ccf: 85 15        	sta	$15                     ; 0x15 <__rc19>
    2cd1: a5 09        	lda	$9                      ; 0x9 <__rc7>
    2cd3: 30 2d        	bmi	$2d02 <__divmoddi4+0x8a>
    2cd5: a5 17        	lda	$17                     ; 0x17 <__rc21>
    2cd7: a0 1c        	ldy	#$1c
    2cd9: 91 02        	sta	($2),y                  ; 0x2 <__rc0>
    2cdb: 8a           	txa
    2cdc: a0 17        	ldy	#$17
    2cde: 91 02        	sta	($2),y                  ; 0x2 <__rc0>
    2ce0: a5 04        	lda	$4                      ; 0x4 <__rc2>
    2ce2: c8           	iny
    2ce3: 91 02        	sta	($2),y                  ; 0x2 <__rc0>
    2ce5: a5 05        	lda	$5                      ; 0x5 <__rc3>
    2ce7: c8           	iny
    2ce8: 91 02        	sta	($2),y                  ; 0x2 <__rc0>
    2cea: a5 06        	lda	$6                      ; 0x6 <__rc4>
    2cec: a0 1b        	ldy	#$1b
    2cee: 91 02        	sta	($2),y                  ; 0x2 <__rc0>
    2cf0: a5 07        	lda	$7                      ; 0x7 <__rc5>
    2cf2: a0 16        	ldy	#$16
    2cf4: 91 02        	sta	($2),y                  ; 0x2 <__rc0>
    2cf6: a5 08        	lda	$8                      ; 0x8 <__rc6>
    2cf8: a0 1d        	ldy	#$1d
    2cfa: 91 02        	sta	($2),y                  ; 0x2 <__rc0>
    2cfc: a6 09        	ldx	$9                      ; 0x9 <__rc7>
    2cfe: 8a           	txa
    2cff: 4c 87 2d     	jmp	$2d87 <__divmoddi4+0x10f>
    2d02: a6 09        	ldx	$9                      ; 0x9 <__rc7>
    2d04: e0 80        	cpx	#$80
    2d06: d0 44        	bne	$2d4c <__divmoddi4+0xd4>
    2d08: a5 08        	lda	$8                      ; 0x8 <__rc6>
    2d0a: d0 40        	bne	$2d4c <__divmoddi4+0xd4>
    2d0c: a5 07        	lda	$7                      ; 0x7 <__rc5>
    2d0e: d0 3c        	bne	$2d4c <__divmoddi4+0xd4>
    2d10: a5 06        	lda	$6                      ; 0x6 <__rc4>
    2d12: d0 38        	bne	$2d4c <__divmoddi4+0xd4>
    2d14: a5 05        	lda	$5                      ; 0x5 <__rc3>
    2d16: d0 34        	bne	$2d4c <__divmoddi4+0xd4>
    2d18: a5 04        	lda	$4                      ; 0x4 <__rc2>
    2d1a: d0 30        	bne	$2d4c <__divmoddi4+0xd4>
    2d1c: a5 16        	lda	$16                     ; 0x16 <__rc20>
    2d1e: d0 2c        	bne	$2d4c <__divmoddi4+0xd4>
    2d20: a5 17        	lda	$17                     ; 0x17 <__rc21>
    2d22: d0 28        	bne	$2d4c <__divmoddi4+0xd4>
    2d24: a2 00        	ldx	#$0
    2d26: 8a           	txa
    2d27: a0 1c        	ldy	#$1c
    2d29: 91 02        	sta	($2),y                  ; 0x2 <__rc0>
    2d2b: a2 80        	ldx	#$80
    2d2d: 8a           	txa
    2d2e: a0 1a        	ldy	#$1a
    2d30: 91 02        	sta	($2),y                  ; 0x2 <__rc0>
    2d32: a2 00        	ldx	#$0
    2d34: 8a           	txa
    2d35: a0 17        	ldy	#$17
    2d37: 91 02        	sta	($2),y                  ; 0x2 <__rc0>
    2d39: c8           	iny
    2d3a: 91 02        	sta	($2),y                  ; 0x2 <__rc0>
    2d3c: c8           	iny
    2d3d: 91 02        	sta	($2),y                  ; 0x2 <__rc0>
    2d3f: a0 1b        	ldy	#$1b
    2d41: 91 02        	sta	($2),y                  ; 0x2 <__rc0>
    2d43: a0 16        	ldy	#$16
    2d45: 91 02        	sta	($2),y                  ; 0x2 <__rc0>
    2d47: a0 1d        	ldy	#$1d
    2d49: 4c 89 2d     	jmp	$2d89 <__divmoddi4+0x111>
    2d4c: 38           	sec
    2d4d: a9 00        	lda	#$0
    2d4f: e5 17        	sbc	$17                     ; 0x17 <__rc21>
    2d51: a0 1c        	ldy	#$1c
    2d53: 91 02        	sta	($2),y                  ; 0x2 <__rc0>
    2d55: a9 00        	lda	#$0
    2d57: e5 16        	sbc	$16                     ; 0x16 <__rc20>
    2d59: a0 17        	ldy	#$17
    2d5b: 91 02        	sta	($2),y                  ; 0x2 <__rc0>
    2d5d: a9 00        	lda	#$0
    2d5f: e5 04        	sbc	$4                      ; 0x4 <__rc2>
    2d61: c8           	iny
    2d62: 91 02        	sta	($2),y                  ; 0x2 <__rc0>
    2d64: a9 00        	lda	#$0
    2d66: e5 05        	sbc	$5                      ; 0x5 <__rc3>
    2d68: c8           	iny
    2d69: 91 02        	sta	($2),y                  ; 0x2 <__rc0>
    2d6b: a9 00        	lda	#$0
    2d6d: e5 06        	sbc	$6                      ; 0x6 <__rc4>
    2d6f: a0 1b        	ldy	#$1b
    2d71: 91 02        	sta	($2),y                  ; 0x2 <__rc0>
    2d73: a9 00        	lda	#$0
    2d75: e5 07        	sbc	$7                      ; 0x7 <__rc5>
    2d77: a0 16        	ldy	#$16
    2d79: 91 02        	sta	($2),y                  ; 0x2 <__rc0>
    2d7b: a9 00        	lda	#$0
    2d7d: e5 08        	sbc	$8                      ; 0x8 <__rc6>
    2d7f: a0 1d        	ldy	#$1d
    2d81: 91 02        	sta	($2),y                  ; 0x2 <__rc0>
    2d83: a9 00        	lda	#$0
    2d85: e5 09        	sbc	$9                      ; 0x9 <__rc7>
    2d87: a0 1a        	ldy	#$1a
    2d89: 91 02        	sta	($2),y                  ; 0x2 <__rc0>
    2d8b: a0 00        	ldy	#$0
    2d8d: b1 14        	lda	($14),y                 ; 0x14 <__zp_data_size>
    2d8f: a0 0b        	ldy	#$b
    2d91: 91 02        	sta	($2),y                  ; 0x2 <__rc0>
    2d93: a0 01        	ldy	#$1
    2d95: b1 14        	lda	($14),y                 ; 0x14 <__zp_data_size>
    2d97: a0 0a        	ldy	#$a
    2d99: 91 02        	sta	($2),y                  ; 0x2 <__rc0>
    2d9b: a5 11        	lda	$11                     ; 0x11 <__rc15>
    2d9d: 10 03        	bpl	$2da2 <__divmoddi4+0x12a>
    2d9f: 4c 18 2e     	jmp	$2e18 <__divmoddi4+0x1a0>
    2da2: a6 11        	ldx	$11                     ; 0x11 <__rc15>
    2da4: 86 04        	stx	$4                      ; 0x4 <__rc2>
    2da6: f0 03        	beq	$2dab <__divmoddi4+0x133>
    2da8: 4c be 2e     	jmp	$2ebe <__divmoddi4+0x246>
    2dab: a5 10        	lda	$10                     ; 0x10 <__rc14>
    2dad: f0 03        	beq	$2db2 <__divmoddi4+0x13a>
    2daf: 4c be 2e     	jmp	$2ebe <__divmoddi4+0x246>
    2db2: a5 0f        	lda	$f                      ; 0xf <__rc13>
    2db4: f0 03        	beq	$2db9 <__divmoddi4+0x141>
    2db6: 4c be 2e     	jmp	$2ebe <__divmoddi4+0x246>
    2db9: a5 0e        	lda	$e                      ; 0xe <__rc12>
    2dbb: f0 03        	beq	$2dc0 <__divmoddi4+0x148>
    2dbd: 4c be 2e     	jmp	$2ebe <__divmoddi4+0x246>
    2dc0: a5 0d        	lda	$d                      ; 0xd <__rc11>
    2dc2: f0 03        	beq	$2dc7 <__divmoddi4+0x14f>
    2dc4: 4c be 2e     	jmp	$2ebe <__divmoddi4+0x246>
    2dc7: a5 0c        	lda	$c                      ; 0xc <__rc10>
    2dc9: f0 03        	beq	$2dce <__divmoddi4+0x156>
    2dcb: 4c be 2e     	jmp	$2ebe <__divmoddi4+0x246>
    2dce: a5 0b        	lda	$b                      ; 0xb <__rc9>
    2dd0: f0 03        	beq	$2dd5 <__divmoddi4+0x15d>
    2dd2: 4c be 2e     	jmp	$2ebe <__divmoddi4+0x246>
    2dd5: a5 0a        	lda	$a                      ; 0xa <__rc8>
    2dd7: f0 03        	beq	$2ddc <__divmoddi4+0x164>
    2dd9: 4c be 2e     	jmp	$2ebe <__divmoddi4+0x246>
    2ddc: a5 09        	lda	$9                      ; 0x9 <__rc7>
    2dde: a0 09        	ldy	#$9
    2de0: 91 02        	sta	($2),y                  ; 0x2 <__rc0>
    2de2: a5 11        	lda	$11                     ; 0x11 <__rc15>
    2de4: 88           	dey
    2de5: 91 02        	sta	($2),y                  ; 0x2 <__rc0>
    2de7: a0 1c        	ldy	#$1c
    2de9: b1 02        	lda	($2),y                  ; 0x2 <__rc0>
    2deb: a0 0c        	ldy	#$c
    2ded: 91 02        	sta	($2),y                  ; 0x2 <__rc0>
    2def: a0 17        	ldy	#$17
    2df1: b1 02        	lda	($2),y                  ; 0x2 <__rc0>
    2df3: 85 16        	sta	$16                     ; 0x16 <__rc20>
    2df5: c8           	iny
    2df6: b1 02        	lda	($2),y                  ; 0x2 <__rc0>
    2df8: 85 0f        	sta	$f                      ; 0xf <__rc13>
    2dfa: c8           	iny
    2dfb: b1 02        	lda	($2),y                  ; 0x2 <__rc0>
    2dfd: 85 10        	sta	$10                     ; 0x10 <__rc14>
    2dff: a0 1b        	ldy	#$1b
    2e01: b1 02        	lda	($2),y                  ; 0x2 <__rc0>
    2e03: 85 1c        	sta	$1c                     ; 0x1c <__rc26>
    2e05: a0 16        	ldy	#$16
    2e07: b1 02        	lda	($2),y                  ; 0x2 <__rc0>
    2e09: 85 1d        	sta	$1d                     ; 0x1d <__rc27>
    2e0b: a0 1d        	ldy	#$1d
    2e0d: b1 02        	lda	($2),y                  ; 0x2 <__rc0>
    2e0f: 85 1e        	sta	$1e                     ; 0x1e <__rc28>
    2e11: a0 1a        	ldy	#$1a
    2e13: b1 02        	lda	($2),y                  ; 0x2 <__rc0>
    2e15: 4c 88 2e     	jmp	$2e88 <__divmoddi4+0x210>
    2e18: a6 11        	ldx	$11                     ; 0x11 <__rc15>
    2e1a: e0 80        	cpx	#$80
    2e1c: f0 03        	beq	$2e21 <__divmoddi4+0x1a9>
    2e1e: 4c 8d 2e     	jmp	$2e8d <__divmoddi4+0x215>
    2e21: a0 1a        	ldy	#$1a
    2e23: b1 02        	lda	($2),y                  ; 0x2 <__rc0>
    2e25: a6 10        	ldx	$10                     ; 0x10 <__rc14>
    2e27: f0 03        	beq	$2e2c <__divmoddi4+0x1b4>
    2e29: 4c 8d 2e     	jmp	$2e8d <__divmoddi4+0x215>
    2e2c: a6 0f        	ldx	$f                      ; 0xf <__rc13>
    2e2e: f0 03        	beq	$2e33 <__divmoddi4+0x1bb>
    2e30: 4c 8d 2e     	jmp	$2e8d <__divmoddi4+0x215>
    2e33: a6 0e        	ldx	$e                      ; 0xe <__rc12>
    2e35: f0 03        	beq	$2e3a <__divmoddi4+0x1c2>
    2e37: 4c 8d 2e     	jmp	$2e8d <__divmoddi4+0x215>
    2e3a: a6 0d        	ldx	$d                      ; 0xd <__rc11>
    2e3c: d0 4f        	bne	$2e8d <__divmoddi4+0x215>
    2e3e: a6 0c        	ldx	$c                      ; 0xc <__rc10>
    2e40: d0 4b        	bne	$2e8d <__divmoddi4+0x215>
    2e42: a6 0b        	ldx	$b                      ; 0xb <__rc9>
    2e44: d0 47        	bne	$2e8d <__divmoddi4+0x215>
    2e46: a6 0a        	ldx	$a                      ; 0xa <__rc8>
    2e48: d0 43        	bne	$2e8d <__divmoddi4+0x215>
    2e4a: 48           	pha
    2e4b: a5 09        	lda	$9                      ; 0x9 <__rc7>
    2e4d: a0 09        	ldy	#$9
    2e4f: 91 02        	sta	($2),y                  ; 0x2 <__rc0>
    2e51: a5 11        	lda	$11                     ; 0x11 <__rc15>
    2e53: 88           	dey
    2e54: 91 02        	sta	($2),y                  ; 0x2 <__rc0>
    2e56: 68           	pla
    2e57: 10 03        	bpl	$2e5c <__divmoddi4+0x1e4>
    2e59: 4c 1f 35     	jmp	$351f <__divmoddi4+0x8a7>
    2e5c: 48           	pha
    2e5d: a0 1c        	ldy	#$1c
    2e5f: b1 02        	lda	($2),y                  ; 0x2 <__rc0>
    2e61: a0 0c        	ldy	#$c
    2e63: 91 02        	sta	($2),y                  ; 0x2 <__rc0>
    2e65: a0 17        	ldy	#$17
    2e67: b1 02        	lda	($2),y                  ; 0x2 <__rc0>
    2e69: 85 16        	sta	$16                     ; 0x16 <__rc20>
    2e6b: c8           	iny
    2e6c: b1 02        	lda	($2),y                  ; 0x2 <__rc0>
    2e6e: 85 0f        	sta	$f                      ; 0xf <__rc13>
    2e70: c8           	iny
    2e71: b1 02        	lda	($2),y                  ; 0x2 <__rc0>
    2e73: 85 10        	sta	$10                     ; 0x10 <__rc14>
    2e75: a0 1b        	ldy	#$1b
    2e77: b1 02        	lda	($2),y                  ; 0x2 <__rc0>
    2e79: 85 1c        	sta	$1c                     ; 0x1c <__rc26>
    2e7b: a0 16        	ldy	#$16
    2e7d: b1 02        	lda	($2),y                  ; 0x2 <__rc0>
    2e7f: 85 1d        	sta	$1d                     ; 0x1d <__rc27>
    2e81: a0 1d        	ldy	#$1d
    2e83: b1 02        	lda	($2),y                  ; 0x2 <__rc0>
    2e85: 85 1e        	sta	$1e                     ; 0x1e <__rc28>
    2e87: 68           	pla
    2e88: 85 1f        	sta	$1f                     ; 0x1f <__rc29>
    2e8a: 4c 6b 2f     	jmp	$2f6b <__divmoddi4+0x2f3>
    2e8d: 38           	sec
    2e8e: a9 00        	lda	#$0
    2e90: e5 0a        	sbc	$a                      ; 0xa <__rc8>
    2e92: 85 0a        	sta	$a                      ; 0xa <__rc8>
    2e94: a9 00        	lda	#$0
    2e96: e5 0b        	sbc	$b                      ; 0xb <__rc9>
    2e98: 85 0b        	sta	$b                      ; 0xb <__rc9>
    2e9a: a9 00        	lda	#$0
    2e9c: e5 0c        	sbc	$c                      ; 0xc <__rc10>
    2e9e: 85 0c        	sta	$c                      ; 0xc <__rc10>
    2ea0: a9 00        	lda	#$0
    2ea2: e5 0d        	sbc	$d                      ; 0xd <__rc11>
    2ea4: 85 0d        	sta	$d                      ; 0xd <__rc11>
    2ea6: a9 00        	lda	#$0
    2ea8: e5 0e        	sbc	$e                      ; 0xe <__rc12>
    2eaa: 85 0e        	sta	$e                      ; 0xe <__rc12>
    2eac: a9 00        	lda	#$0
    2eae: e5 0f        	sbc	$f                      ; 0xf <__rc13>
    2eb0: 85 0f        	sta	$f                      ; 0xf <__rc13>
    2eb2: a9 00        	lda	#$0
    2eb4: e5 10        	sbc	$10                     ; 0x10 <__rc14>
    2eb6: 85 10        	sta	$10                     ; 0x10 <__rc14>
    2eb8: a9 00        	lda	#$0
    2eba: e5 11        	sbc	$11                     ; 0x11 <__rc15>
    2ebc: 85 04        	sta	$4                      ; 0x4 <__rc2>
    2ebe: a0 1a        	ldy	#$1a
    2ec0: b1 02        	lda	($2),y                  ; 0x2 <__rc0>
    2ec2: aa           	tax
    2ec3: a0 16        	ldy	#$16
    2ec5: b1 02        	lda	($2),y                  ; 0x2 <__rc0>
    2ec7: 86 1f        	stx	$1f                     ; 0x1f <__rc29>
    2ec9: e4 04        	cpx	$4                      ; 0x4 <__rc2>
    2ecb: f0 03        	beq	$2ed0 <__divmoddi4+0x258>
    2ecd: 4c 31 2f     	jmp	$2f31 <__divmoddi4+0x2b9>
    2ed0: 48           	pha
    2ed1: a0 1d        	ldy	#$1d
    2ed3: b1 02        	lda	($2),y                  ; 0x2 <__rc0>
    2ed5: aa           	tax
    2ed6: 68           	pla
    2ed7: e4 10        	cpx	$10                     ; 0x10 <__rc14>
    2ed9: f0 03        	beq	$2ede <__divmoddi4+0x266>
    2edb: 4c 72 2f     	jmp	$2f72 <__divmoddi4+0x2fa>
    2ede: c5 0f        	cmp	$f                      ; 0xf <__rc13>
    2ee0: f0 03        	beq	$2ee5 <__divmoddi4+0x26d>
    2ee2: 4c 1c 30     	jmp	$301c <__divmoddi4+0x3a4>
    2ee5: 48           	pha
    2ee6: a0 1b        	ldy	#$1b
    2ee8: b1 02        	lda	($2),y                  ; 0x2 <__rc0>
    2eea: aa           	tax
    2eeb: 68           	pla
    2eec: e4 0e        	cpx	$e                      ; 0xe <__rc12>
    2eee: f0 03        	beq	$2ef3 <__divmoddi4+0x27b>
    2ef0: 4c 2e 30     	jmp	$302e <__divmoddi4+0x3b6>
    2ef3: 48           	pha
    2ef4: a0 19        	ldy	#$19
    2ef6: b1 02        	lda	($2),y                  ; 0x2 <__rc0>
    2ef8: aa           	tax
    2ef9: 68           	pla
    2efa: e4 0d        	cpx	$d                      ; 0xd <__rc11>
    2efc: f0 03        	beq	$2f01 <__divmoddi4+0x289>
    2efe: 4c 76 30     	jmp	$3076 <__divmoddi4+0x3fe>
    2f01: 48           	pha
    2f02: a0 18        	ldy	#$18
    2f04: b1 02        	lda	($2),y                  ; 0x2 <__rc0>
    2f06: aa           	tax
    2f07: 68           	pla
    2f08: e4 0c        	cpx	$c                      ; 0xc <__rc10>
    2f0a: f0 03        	beq	$2f0f <__divmoddi4+0x297>
    2f0c: 4c 8f 30     	jmp	$308f <__divmoddi4+0x417>
    2f0f: 48           	pha
    2f10: a5 09        	lda	$9                      ; 0x9 <__rc7>
    2f12: a0 09        	ldy	#$9
    2f14: 91 02        	sta	($2),y                  ; 0x2 <__rc0>
    2f16: a0 17        	ldy	#$17
    2f18: b1 02        	lda	($2),y                  ; 0x2 <__rc0>
    2f1a: aa           	tax
    2f1b: 68           	pla
    2f1c: e4 0b        	cpx	$b                      ; 0xb <__rc9>
    2f1e: f0 03        	beq	$2f23 <__divmoddi4+0x2ab>
    2f20: 4c a8 30     	jmp	$30a8 <__divmoddi4+0x430>
    2f23: 48           	pha
    2f24: a0 1c        	ldy	#$1c
    2f26: b1 02        	lda	($2),y                  ; 0x2 <__rc0>
    2f28: aa           	tax
    2f29: 68           	pla
    2f2a: e4 0a        	cpx	$a                      ; 0xa <__rc8>
    2f2c: 90 0f        	bcc	$2f3d <__divmoddi4+0x2c5>
    2f2e: 4c 7e 2f     	jmp	$2f7e <__divmoddi4+0x306>
    2f31: 48           	pha
    2f32: a5 09        	lda	$9                      ; 0x9 <__rc7>
    2f34: a0 09        	ldy	#$9
    2f36: 91 02        	sta	($2),y                  ; 0x2 <__rc0>
    2f38: 68           	pla
    2f39: e4 04        	cpx	$4                      ; 0x4 <__rc2>
    2f3b: b0 41        	bcs	$2f7e <__divmoddi4+0x306>
    2f3d: 48           	pha
    2f3e: a5 11        	lda	$11                     ; 0x11 <__rc15>
    2f40: a0 08        	ldy	#$8
    2f42: 91 02        	sta	($2),y                  ; 0x2 <__rc0>
    2f44: a0 1c        	ldy	#$1c
    2f46: b1 02        	lda	($2),y                  ; 0x2 <__rc0>
    2f48: a0 0c        	ldy	#$c
    2f4a: 91 02        	sta	($2),y                  ; 0x2 <__rc0>
    2f4c: a0 17        	ldy	#$17
    2f4e: b1 02        	lda	($2),y                  ; 0x2 <__rc0>
    2f50: 85 16        	sta	$16                     ; 0x16 <__rc20>
    2f52: c8           	iny
    2f53: b1 02        	lda	($2),y                  ; 0x2 <__rc0>
    2f55: 85 0f        	sta	$f                      ; 0xf <__rc13>
    2f57: c8           	iny
    2f58: b1 02        	lda	($2),y                  ; 0x2 <__rc0>
    2f5a: 85 10        	sta	$10                     ; 0x10 <__rc14>
    2f5c: a0 1b        	ldy	#$1b
    2f5e: b1 02        	lda	($2),y                  ; 0x2 <__rc0>
    2f60: 85 1c        	sta	$1c                     ; 0x1c <__rc26>
    2f62: 68           	pla
    2f63: 85 1d        	sta	$1d                     ; 0x1d <__rc27>
    2f65: a0 1d        	ldy	#$1d
    2f67: b1 02        	lda	($2),y                  ; 0x2 <__rc0>
    2f69: 85 1e        	sta	$1e                     ; 0x1e <__rc28>
    2f6b: a2 00        	ldx	#$0
    2f6d: 86 0e        	stx	$e                      ; 0xe <__rc12>
    2f6f: 4c de 33     	jmp	$33de <__divmoddi4+0x766>
    2f72: 48           	pha
    2f73: a5 09        	lda	$9                      ; 0x9 <__rc7>
    2f75: a0 09        	ldy	#$9
    2f77: 91 02        	sta	($2),y                  ; 0x2 <__rc0>
    2f79: 68           	pla
    2f7a: e4 10        	cpx	$10                     ; 0x10 <__rc14>
    2f7c: 90 bf        	bcc	$2f3d <__divmoddi4+0x2c5>
    2f7e: 48           	pha
    2f7f: a5 11        	lda	$11                     ; 0x11 <__rc15>
    2f81: a0 08        	ldy	#$8
    2f83: 91 02        	sta	($2),y                  ; 0x2 <__rc0>
    2f85: 68           	pla
    2f86: a2 00        	ldx	#$0
    2f88: a4 0a        	ldy	$a                      ; 0xa <__rc8>
    2f8a: 84 08        	sty	$8                      ; 0x8 <__rc6>
    2f8c: a4 0b        	ldy	$b                      ; 0xb <__rc9>
    2f8e: 84 09        	sty	$9                      ; 0x9 <__rc7>
    2f90: a4 0c        	ldy	$c                      ; 0xc <__rc10>
    2f92: 84 11        	sty	$11                     ; 0x11 <__rc15>
    2f94: a4 0d        	ldy	$d                      ; 0xd <__rc11>
    2f96: 84 14        	sty	$14                     ; 0x14 <__zp_data_size>
    2f98: a4 0e        	ldy	$e                      ; 0xe <__rc12>
    2f9a: 84 15        	sty	$15                     ; 0x15 <__rc19>
    2f9c: a4 0f        	ldy	$f                      ; 0xf <__rc13>
    2f9e: 84 16        	sty	$16                     ; 0x16 <__rc20>
    2fa0: a4 10        	ldy	$10                     ; 0x10 <__rc14>
    2fa2: 84 17        	sty	$17                     ; 0x17 <__rc21>
    2fa4: a4 04        	ldy	$4                      ; 0x4 <__rc2>
    2fa6: 84 18        	sty	$18                     ; 0x18 <__rc22>
    2fa8: 06 08        	asl	$8                      ; 0x8 <__rc6>
    2faa: 26 09        	rol	$9                      ; 0x9 <__rc7>
    2fac: 26 11        	rol	$11                     ; 0x11 <__rc15>
    2fae: 26 14        	rol	$14                     ; 0x14 <__zp_data_size>
    2fb0: 26 15        	rol	$15                     ; 0x15 <__rc19>
    2fb2: 26 16        	rol	$16                     ; 0x16 <__rc20>
    2fb4: 26 17        	rol	$17                     ; 0x17 <__rc21>
    2fb6: 26 18        	rol	$18                     ; 0x18 <__rc22>
    2fb8: a4 1f        	ldy	$1f                     ; 0x1f <__rc29>
    2fba: c4 18        	cpy	$18                     ; 0x18 <__rc22>
    2fbc: d0 20        	bne	$2fde <__divmoddi4+0x366>
    2fbe: 48           	pha
    2fbf: a0 1d        	ldy	#$1d
    2fc1: b1 02        	lda	($2),y                  ; 0x2 <__rc0>
    2fc3: a8           	tay
    2fc4: 68           	pla
    2fc5: c4 17        	cpy	$17                     ; 0x17 <__rc21>
    2fc7: d0 1c        	bne	$2fe5 <__divmoddi4+0x36d>
    2fc9: c5 16        	cmp	$16                     ; 0x16 <__rc20>
    2fcb: d0 1f        	bne	$2fec <__divmoddi4+0x374>
    2fcd: 48           	pha
    2fce: a0 1b        	ldy	#$1b
    2fd0: b1 02        	lda	($2),y                  ; 0x2 <__rc0>
    2fd2: a8           	tay
    2fd3: 68           	pla
    2fd4: c4 15        	cpy	$15                     ; 0x15 <__rc19>
    2fd6: f0 03        	beq	$2fdb <__divmoddi4+0x363>
    2fd8: 4c 6f 30     	jmp	$306f <__divmoddi4+0x3f7>
    2fdb: 4c 40 30     	jmp	$3040 <__divmoddi4+0x3c8>
    2fde: c4 18        	cpy	$18                     ; 0x18 <__rc22>
    2fe0: b0 11        	bcs	$2ff3 <__divmoddi4+0x37b>
    2fe2: 4c b9 30     	jmp	$30b9 <__divmoddi4+0x441>
    2fe5: c4 17        	cpy	$17                     ; 0x17 <__rc21>
    2fe7: b0 0a        	bcs	$2ff3 <__divmoddi4+0x37b>
    2fe9: 4c b9 30     	jmp	$30b9 <__divmoddi4+0x441>
    2fec: c5 16        	cmp	$16                     ; 0x16 <__rc20>
    2fee: b0 03        	bcs	$2ff3 <__divmoddi4+0x37b>
    2ff0: 4c b9 30     	jmp	$30b9 <__divmoddi4+0x441>
    2ff3: e8           	inx
    2ff4: a4 08        	ldy	$8                      ; 0x8 <__rc6>
    2ff6: 84 0a        	sty	$a                      ; 0xa <__rc8>
    2ff8: a4 09        	ldy	$9                      ; 0x9 <__rc7>
    2ffa: 84 0b        	sty	$b                      ; 0xb <__rc9>
    2ffc: a4 11        	ldy	$11                     ; 0x11 <__rc15>
    2ffe: 84 0c        	sty	$c                      ; 0xc <__rc10>
    3000: a4 14        	ldy	$14                     ; 0x14 <__zp_data_size>
    3002: 84 0d        	sty	$d                      ; 0xd <__rc11>
    3004: a4 15        	ldy	$15                     ; 0x15 <__rc19>
    3006: 84 0e        	sty	$e                      ; 0xe <__rc12>
    3008: a4 16        	ldy	$16                     ; 0x16 <__rc20>
    300a: 84 0f        	sty	$f                      ; 0xf <__rc13>
    300c: a4 17        	ldy	$17                     ; 0x17 <__rc21>
    300e: 84 10        	sty	$10                     ; 0x10 <__rc14>
    3010: a4 18        	ldy	$18                     ; 0x18 <__rc22>
    3012: 84 04        	sty	$4                      ; 0x4 <__rc2>
    3014: 30 03        	bmi	$3019 <__divmoddi4+0x3a1>
    3016: 4c a8 2f     	jmp	$2fa8 <__divmoddi4+0x330>
    3019: 4c d9 30     	jmp	$30d9 <__divmoddi4+0x461>
    301c: 48           	pha
    301d: a5 09        	lda	$9                      ; 0x9 <__rc7>
    301f: a0 09        	ldy	#$9
    3021: 91 02        	sta	($2),y                  ; 0x2 <__rc0>
    3023: 68           	pla
    3024: c5 0f        	cmp	$f                      ; 0xf <__rc13>
    3026: b0 03        	bcs	$302b <__divmoddi4+0x3b3>
    3028: 4c 3d 2f     	jmp	$2f3d <__divmoddi4+0x2c5>
    302b: 4c 7e 2f     	jmp	$2f7e <__divmoddi4+0x306>
    302e: 48           	pha
    302f: a5 09        	lda	$9                      ; 0x9 <__rc7>
    3031: a0 09        	ldy	#$9
    3033: 91 02        	sta	($2),y                  ; 0x2 <__rc0>
    3035: 68           	pla
    3036: e4 0e        	cpx	$e                      ; 0xe <__rc12>
    3038: b0 03        	bcs	$303d <__divmoddi4+0x3c5>
    303a: 4c 3d 2f     	jmp	$2f3d <__divmoddi4+0x2c5>
    303d: 4c 7e 2f     	jmp	$2f7e <__divmoddi4+0x306>
    3040: 48           	pha
    3041: a0 19        	ldy	#$19
    3043: b1 02        	lda	($2),y                  ; 0x2 <__rc0>
    3045: a8           	tay
    3046: 68           	pla
    3047: c4 14        	cpy	$14                     ; 0x14 <__zp_data_size>
    3049: d0 3d        	bne	$3088 <__divmoddi4+0x410>
    304b: 48           	pha
    304c: a0 18        	ldy	#$18
    304e: b1 02        	lda	($2),y                  ; 0x2 <__rc0>
    3050: a8           	tay
    3051: 68           	pla
    3052: c4 11        	cpy	$11                     ; 0x11 <__rc15>
    3054: d0 4b        	bne	$30a1 <__divmoddi4+0x429>
    3056: 48           	pha
    3057: a0 17        	ldy	#$17
    3059: b1 02        	lda	($2),y                  ; 0x2 <__rc0>
    305b: a8           	tay
    305c: 68           	pla
    305d: c4 09        	cpy	$9                      ; 0x9 <__rc7>
    305f: d0 51        	bne	$30b2 <__divmoddi4+0x43a>
    3061: 48           	pha
    3062: a0 1c        	ldy	#$1c
    3064: b1 02        	lda	($2),y                  ; 0x2 <__rc0>
    3066: a8           	tay
    3067: 68           	pla
    3068: c4 08        	cpy	$8                      ; 0x8 <__rc6>
    306a: 90 4d        	bcc	$30b9 <__divmoddi4+0x441>
    306c: 4c f3 2f     	jmp	$2ff3 <__divmoddi4+0x37b>
    306f: c4 15        	cpy	$15                     ; 0x15 <__rc19>
    3071: 90 46        	bcc	$30b9 <__divmoddi4+0x441>
    3073: 4c f3 2f     	jmp	$2ff3 <__divmoddi4+0x37b>
    3076: 48           	pha
    3077: a5 09        	lda	$9                      ; 0x9 <__rc7>
    3079: a0 09        	ldy	#$9
    307b: 91 02        	sta	($2),y                  ; 0x2 <__rc0>
    307d: 68           	pla
    307e: e4 0d        	cpx	$d                      ; 0xd <__rc11>
    3080: b0 03        	bcs	$3085 <__divmoddi4+0x40d>
    3082: 4c 3d 2f     	jmp	$2f3d <__divmoddi4+0x2c5>
    3085: 4c 7e 2f     	jmp	$2f7e <__divmoddi4+0x306>
    3088: c4 14        	cpy	$14                     ; 0x14 <__zp_data_size>
    308a: 90 2d        	bcc	$30b9 <__divmoddi4+0x441>
    308c: 4c f3 2f     	jmp	$2ff3 <__divmoddi4+0x37b>
    308f: 48           	pha
    3090: a5 09        	lda	$9                      ; 0x9 <__rc7>
    3092: a0 09        	ldy	#$9
    3094: 91 02        	sta	($2),y                  ; 0x2 <__rc0>
    3096: 68           	pla
    3097: e4 0c        	cpx	$c                      ; 0xc <__rc10>
    3099: b0 03        	bcs	$309e <__divmoddi4+0x426>
    309b: 4c 3d 2f     	jmp	$2f3d <__divmoddi4+0x2c5>
    309e: 4c 7e 2f     	jmp	$2f7e <__divmoddi4+0x306>
    30a1: c4 11        	cpy	$11                     ; 0x11 <__rc15>
    30a3: 90 14        	bcc	$30b9 <__divmoddi4+0x441>
    30a5: 4c f3 2f     	jmp	$2ff3 <__divmoddi4+0x37b>
    30a8: e4 0b        	cpx	$b                      ; 0xb <__rc9>
    30aa: b0 03        	bcs	$30af <__divmoddi4+0x437>
    30ac: 4c 3d 2f     	jmp	$2f3d <__divmoddi4+0x2c5>
    30af: 4c 7e 2f     	jmp	$2f7e <__divmoddi4+0x306>
    30b2: c4 09        	cpy	$9                      ; 0x9 <__rc7>
    30b4: 90 03        	bcc	$30b9 <__divmoddi4+0x441>
    30b6: 4c f3 2f     	jmp	$2ff3 <__divmoddi4+0x37b>
    30b9: a4 0a        	ldy	$a                      ; 0xa <__rc8>
    30bb: 84 08        	sty	$8                      ; 0x8 <__rc6>
    30bd: a4 0b        	ldy	$b                      ; 0xb <__rc9>
    30bf: 84 09        	sty	$9                      ; 0x9 <__rc7>
    30c1: a4 0c        	ldy	$c                      ; 0xc <__rc10>
    30c3: 84 11        	sty	$11                     ; 0x11 <__rc15>
    30c5: a4 0d        	ldy	$d                      ; 0xd <__rc11>
    30c7: 84 14        	sty	$14                     ; 0x14 <__zp_data_size>
    30c9: a4 0e        	ldy	$e                      ; 0xe <__rc12>
    30cb: 84 15        	sty	$15                     ; 0x15 <__rc19>
    30cd: a4 0f        	ldy	$f                      ; 0xf <__rc13>
    30cf: 84 16        	sty	$16                     ; 0x16 <__rc20>
    30d1: a4 10        	ldy	$10                     ; 0x10 <__rc14>
    30d3: 84 17        	sty	$17                     ; 0x17 <__rc21>
    30d5: a4 04        	ldy	$4                      ; 0x4 <__rc2>
    30d7: 84 18        	sty	$18                     ; 0x18 <__rc22>
    30d9: 38           	sec
    30da: 85 07        	sta	$7                      ; 0x7 <__rc5>
    30dc: a0 1c        	ldy	#$1c
    30de: b1 02        	lda	($2),y                  ; 0x2 <__rc0>
    30e0: e5 08        	sbc	$8                      ; 0x8 <__rc6>
    30e2: 85 06        	sta	$6                      ; 0x6 <__rc4>
    30e4: a0 17        	ldy	#$17
    30e6: b1 02        	lda	($2),y                  ; 0x2 <__rc0>
    30e8: e5 09        	sbc	$9                      ; 0x9 <__rc7>
    30ea: a8           	tay
    30eb: 84 13        	sty	$13                     ; 0x13 <__rc17>
    30ed: a0 18        	ldy	#$18
    30ef: b1 02        	lda	($2),y                  ; 0x2 <__rc0>
    30f1: e5 11        	sbc	$11                     ; 0x11 <__rc15>
    30f3: 85 1a        	sta	$1a                     ; 0x1a <__rc24>
    30f5: c8           	iny
    30f6: b1 02        	lda	($2),y                  ; 0x2 <__rc0>
    30f8: e5 14        	sbc	$14                     ; 0x14 <__zp_data_size>
    30fa: 85 10        	sta	$10                     ; 0x10 <__rc14>
    30fc: a0 1b        	ldy	#$1b
    30fe: b1 02        	lda	($2),y                  ; 0x2 <__rc0>
    3100: e5 15        	sbc	$15                     ; 0x15 <__rc19>
    3102: 85 1c        	sta	$1c                     ; 0x1c <__rc26>
    3104: a5 07        	lda	$7                      ; 0x7 <__rc5>
    3106: e5 16        	sbc	$16                     ; 0x16 <__rc20>
    3108: 85 21        	sta	$21                     ; 0x21 <__rc31>
    310a: a0 1d        	ldy	#$1d
    310c: b1 02        	lda	($2),y                  ; 0x2 <__rc0>
    310e: a4 13        	ldy	$13                     ; 0x13 <__rc17>
    3110: e5 17        	sbc	$17                     ; 0x17 <__rc21>
    3112: 85 20        	sta	$20                     ; 0x20 <__rc30>
    3114: a5 1f        	lda	$1f                     ; 0x1f <__rc29>
    3116: e5 18        	sbc	$18                     ; 0x18 <__rc22>
    3118: 85 1f        	sta	$1f                     ; 0x1f <__rc29>
    311a: 8a           	txa
    311b: d0 03        	bne	$3120 <__divmoddi4+0x4a8>
    311d: 4c c1 33     	jmp	$33c1 <__divmoddi4+0x749>
    3120: 84 13        	sty	$13                     ; 0x13 <__rc17>
    3122: a5 17        	lda	$17                     ; 0x17 <__rc21>
    3124: a0 0e        	ldy	#$e
    3126: 91 02        	sta	($2),y                  ; 0x2 <__rc0>
    3128: a5 16        	lda	$16                     ; 0x16 <__rc20>
    312a: a0 10        	ldy	#$10
    312c: 91 02        	sta	($2),y                  ; 0x2 <__rc0>
    312e: a5 15        	lda	$15                     ; 0x15 <__rc19>
    3130: 88           	dey
    3131: 91 02        	sta	($2),y                  ; 0x2 <__rc0>
    3133: a5 14        	lda	$14                     ; 0x14 <__zp_data_size>
    3135: a0 11        	ldy	#$11
    3137: 91 02        	sta	($2),y                  ; 0x2 <__rc0>
    3139: a5 11        	lda	$11                     ; 0x11 <__rc15>
    313b: c8           	iny
    313c: 91 02        	sta	($2),y                  ; 0x2 <__rc0>
    313e: a5 09        	lda	$9                      ; 0x9 <__rc7>
    3140: c8           	iny
    3141: 91 02        	sta	($2),y                  ; 0x2 <__rc0>
    3143: a5 08        	lda	$8                      ; 0x8 <__rc6>
    3145: c8           	iny
    3146: 91 02        	sta	($2),y                  ; 0x2 <__rc0>
    3148: a5 06        	lda	$6                      ; 0x6 <__rc4>
    314a: a0 1c        	ldy	#$1c
    314c: 91 02        	sta	($2),y                  ; 0x2 <__rc0>
    314e: a4 13        	ldy	$13                     ; 0x13 <__rc17>
    3150: 84 15        	sty	$15                     ; 0x15 <__rc19>
    3152: a4 10        	ldy	$10                     ; 0x10 <__rc14>
    3154: 84 11        	sty	$11                     ; 0x11 <__rc15>
    3156: a4 1c        	ldy	$1c                     ; 0x1c <__rc26>
    3158: 84 14        	sty	$14                     ; 0x14 <__zp_data_size>
    315a: a0 00        	ldy	#$0
    315c: 98           	tya
    315d: a0 1b        	ldy	#$1b
    315f: 91 02        	sta	($2),y                  ; 0x2 <__rc0>
    3161: a0 01        	ldy	#$1
    3163: 98           	tya
    3164: a0 1d        	ldy	#$1d
    3166: 91 02        	sta	($2),y                  ; 0x2 <__rc0>
    3168: a0 00        	ldy	#$0
    316a: 98           	tya
    316b: a0 15        	ldy	#$15
    316d: 91 02        	sta	($2),y                  ; 0x2 <__rc0>
    316f: a9 00        	lda	#$0
    3171: a0 1a        	ldy	#$1a
    3173: 91 02        	sta	($2),y                  ; 0x2 <__rc0>
    3175: 88           	dey
    3176: 91 02        	sta	($2),y                  ; 0x2 <__rc0>
    3178: 88           	dey
    3179: 91 02        	sta	($2),y                  ; 0x2 <__rc0>
    317b: 88           	dey
    317c: 91 02        	sta	($2),y                  ; 0x2 <__rc0>
    317e: a4 1f        	ldy	$1f                     ; 0x1f <__rc29>
    3180: 84 13        	sty	$13                     ; 0x13 <__rc17>
    3182: a0 16        	ldy	#$16
    3184: 91 02        	sta	($2),y                  ; 0x2 <__rc0>
    3186: a4 13        	ldy	$13                     ; 0x13 <__rc17>
    3188: 46 18        	lsr	$18                     ; 0x18 <__rc22>
    318a: 84 13        	sty	$13                     ; 0x13 <__rc17>
    318c: a0 0e        	ldy	#$e
    318e: b1 02        	lda	($2),y                  ; 0x2 <__rc0>
    3190: 85 0d        	sta	$d                      ; 0xd <__rc11>
    3192: 66 0d        	ror	$d                      ; 0xd <__rc11>
    3194: a0 10        	ldy	#$10
    3196: b1 02        	lda	($2),y                  ; 0x2 <__rc0>
    3198: 85 0c        	sta	$c                      ; 0xc <__rc10>
    319a: 66 0c        	ror	$c                      ; 0xc <__rc10>
    319c: 88           	dey
    319d: b1 02        	lda	($2),y                  ; 0x2 <__rc0>
    319f: 85 08        	sta	$8                      ; 0x8 <__rc6>
    31a1: 66 08        	ror	$8                      ; 0x8 <__rc6>
    31a3: a0 11        	ldy	#$11
    31a5: b1 02        	lda	($2),y                  ; 0x2 <__rc0>
    31a7: 85 07        	sta	$7                      ; 0x7 <__rc5>
    31a9: 66 07        	ror	$7                      ; 0x7 <__rc5>
    31ab: c8           	iny
    31ac: b1 02        	lda	($2),y                  ; 0x2 <__rc0>
    31ae: 85 06        	sta	$6                      ; 0x6 <__rc4>
    31b0: 66 06        	ror	$6                      ; 0x6 <__rc4>
    31b2: c8           	iny
    31b3: b1 02        	lda	($2),y                  ; 0x2 <__rc0>
    31b5: 85 05        	sta	$5                      ; 0x5 <__rc3>
    31b7: 66 05        	ror	$5                      ; 0x5 <__rc3>
    31b9: c8           	iny
    31ba: b1 02        	lda	($2),y                  ; 0x2 <__rc0>
    31bc: 85 04        	sta	$4                      ; 0x4 <__rc2>
    31be: 66 04        	ror	$4                      ; 0x4 <__rc2>
    31c0: a0 1d        	ldy	#$1d
    31c2: b1 02        	lda	($2),y                  ; 0x2 <__rc0>
    31c4: a4 13        	ldy	$13                     ; 0x13 <__rc17>
    31c6: 85 0f        	sta	$f                      ; 0xf <__rc13>
    31c8: 06 0f        	asl	$f                      ; 0xf <__rc13>
    31ca: a9 01        	lda	#$1
    31cc: b0 02        	bcs	$31d0 <__divmoddi4+0x558>
    31ce: a9 00        	lda	#$0
    31d0: 85 09        	sta	$9                      ; 0x9 <__rc7>
    31d2: c4 18        	cpy	$18                     ; 0x18 <__rc22>
    31d4: d0 43        	bne	$3219 <__divmoddi4+0x5a1>
    31d6: 84 0e        	sty	$e                      ; 0xe <__rc12>
    31d8: a5 20        	lda	$20                     ; 0x20 <__rc30>
    31da: c5 0d        	cmp	$d                      ; 0xd <__rc11>
    31dc: f0 03        	beq	$31e1 <__divmoddi4+0x569>
    31de: 4c 61 32     	jmp	$3261 <__divmoddi4+0x5e9>
    31e1: a5 21        	lda	$21                     ; 0x21 <__rc31>
    31e3: c5 0c        	cmp	$c                      ; 0xc <__rc10>
    31e5: f0 03        	beq	$31ea <__divmoddi4+0x572>
    31e7: 4c 8f 33     	jmp	$338f <__divmoddi4+0x717>
    31ea: a5 14        	lda	$14                     ; 0x14 <__zp_data_size>
    31ec: c5 08        	cmp	$8                      ; 0x8 <__rc6>
    31ee: f0 03        	beq	$31f3 <__divmoddi4+0x57b>
    31f0: 4c 99 33     	jmp	$3399 <__divmoddi4+0x721>
    31f3: a5 11        	lda	$11                     ; 0x11 <__rc15>
    31f5: c5 07        	cmp	$7                      ; 0x7 <__rc5>
    31f7: f0 03        	beq	$31fc <__divmoddi4+0x584>
    31f9: 4c a3 33     	jmp	$33a3 <__divmoddi4+0x72b>
    31fc: a5 1a        	lda	$1a                     ; 0x1a <__rc24>
    31fe: c5 06        	cmp	$6                      ; 0x6 <__rc4>
    3200: f0 03        	beq	$3205 <__divmoddi4+0x58d>
    3202: 4c ad 33     	jmp	$33ad <__divmoddi4+0x735>
    3205: a5 15        	lda	$15                     ; 0x15 <__rc19>
    3207: c5 05        	cmp	$5                      ; 0x5 <__rc3>
    3209: f0 03        	beq	$320e <__divmoddi4+0x596>
    320b: 4c b7 33     	jmp	$33b7 <__divmoddi4+0x73f>
    320e: a0 1c        	ldy	#$1c
    3210: b1 02        	lda	($2),y                  ; 0x2 <__rc0>
    3212: c5 04        	cmp	$4                      ; 0x4 <__rc2>
    3214: 90 09        	bcc	$321f <__divmoddi4+0x5a7>
    3216: 4c 65 32     	jmp	$3265 <__divmoddi4+0x5ed>
    3219: 84 0e        	sty	$e                      ; 0xe <__rc12>
    321b: c4 18        	cpy	$18                     ; 0x18 <__rc22>
    321d: b0 46        	bcs	$3265 <__divmoddi4+0x5ed>
    321f: a5 18        	lda	$18                     ; 0x18 <__rc22>
    3221: a0 0d        	ldy	#$d
    3223: 91 02        	sta	($2),y                  ; 0x2 <__rc0>
    3225: a5 0d        	lda	$d                      ; 0xd <__rc11>
    3227: c8           	iny
    3228: 91 02        	sta	($2),y                  ; 0x2 <__rc0>
    322a: a5 0c        	lda	$c                      ; 0xc <__rc10>
    322c: a0 10        	ldy	#$10
    322e: 91 02        	sta	($2),y                  ; 0x2 <__rc0>
    3230: a5 08        	lda	$8                      ; 0x8 <__rc6>
    3232: 88           	dey
    3233: 91 02        	sta	($2),y                  ; 0x2 <__rc0>
    3235: a5 07        	lda	$7                      ; 0x7 <__rc5>
    3237: a0 11        	ldy	#$11
    3239: 91 02        	sta	($2),y                  ; 0x2 <__rc0>
    323b: a5 06        	lda	$6                      ; 0x6 <__rc4>
    323d: c8           	iny
    323e: 91 02        	sta	($2),y                  ; 0x2 <__rc0>
    3240: a5 05        	lda	$5                      ; 0x5 <__rc3>
    3242: c8           	iny
    3243: 91 02        	sta	($2),y                  ; 0x2 <__rc0>
    3245: a5 04        	lda	$4                      ; 0x4 <__rc2>
    3247: c8           	iny
    3248: 91 02        	sta	($2),y                  ; 0x2 <__rc0>
    324a: a4 0e        	ldy	$e                      ; 0xe <__rc12>
    324c: a5 20        	lda	$20                     ; 0x20 <__rc30>
    324e: 85 1e        	sta	$1e                     ; 0x1e <__rc28>
    3250: a5 15        	lda	$15                     ; 0x15 <__rc19>
    3252: 85 16        	sta	$16                     ; 0x16 <__rc20>
    3254: 84 13        	sty	$13                     ; 0x13 <__rc17>
    3256: a0 1c        	ldy	#$1c
    3258: b1 02        	lda	($2),y                  ; 0x2 <__rc0>
    325a: 85 10        	sta	$10                     ; 0x10 <__rc14>
    325c: a5 0f        	lda	$f                      ; 0xf <__rc13>
    325e: 4c d6 32     	jmp	$32d6 <__divmoddi4+0x65e>
    3261: c5 0d        	cmp	$d                      ; 0xd <__rc11>
    3263: 90 ba        	bcc	$321f <__divmoddi4+0x5a7>
    3265: 38           	sec
    3266: a0 1c        	ldy	#$1c
    3268: b1 02        	lda	($2),y                  ; 0x2 <__rc0>
    326a: 48           	pha
    326b: a5 04        	lda	$4                      ; 0x4 <__rc2>
    326d: a0 14        	ldy	#$14
    326f: 91 02        	sta	($2),y                  ; 0x2 <__rc0>
    3271: 68           	pla
    3272: e5 04        	sbc	$4                      ; 0x4 <__rc2>
    3274: 85 10        	sta	$10                     ; 0x10 <__rc14>
    3276: a5 15        	lda	$15                     ; 0x15 <__rc19>
    3278: 48           	pha
    3279: a5 05        	lda	$5                      ; 0x5 <__rc3>
    327b: 88           	dey
    327c: 91 02        	sta	($2),y                  ; 0x2 <__rc0>
    327e: 68           	pla
    327f: e5 05        	sbc	$5                      ; 0x5 <__rc3>
    3281: 85 16        	sta	$16                     ; 0x16 <__rc20>
    3283: a5 1a        	lda	$1a                     ; 0x1a <__rc24>
    3285: 48           	pha
    3286: a5 06        	lda	$6                      ; 0x6 <__rc4>
    3288: 88           	dey
    3289: 91 02        	sta	($2),y                  ; 0x2 <__rc0>
    328b: 68           	pla
    328c: e5 06        	sbc	$6                      ; 0x6 <__rc4>
    328e: 85 1a        	sta	$1a                     ; 0x1a <__rc24>
    3290: a5 11        	lda	$11                     ; 0x11 <__rc15>
    3292: 48           	pha
    3293: a5 07        	lda	$7                      ; 0x7 <__rc5>
    3295: 88           	dey
    3296: 91 02        	sta	($2),y                  ; 0x2 <__rc0>
    3298: 68           	pla
    3299: e5 07        	sbc	$7                      ; 0x7 <__rc5>
    329b: 85 11        	sta	$11                     ; 0x11 <__rc15>
    329d: a5 14        	lda	$14                     ; 0x14 <__zp_data_size>
    329f: 48           	pha
    32a0: a5 08        	lda	$8                      ; 0x8 <__rc6>
    32a2: a0 0f        	ldy	#$f
    32a4: 91 02        	sta	($2),y                  ; 0x2 <__rc0>
    32a6: 68           	pla
    32a7: e5 08        	sbc	$8                      ; 0x8 <__rc6>
    32a9: 85 14        	sta	$14                     ; 0x14 <__zp_data_size>
    32ab: a5 21        	lda	$21                     ; 0x21 <__rc31>
    32ad: 48           	pha
    32ae: a5 0c        	lda	$c                      ; 0xc <__rc10>
    32b0: c8           	iny
    32b1: 91 02        	sta	($2),y                  ; 0x2 <__rc0>
    32b3: 68           	pla
    32b4: e5 0c        	sbc	$c                      ; 0xc <__rc10>
    32b6: 85 21        	sta	$21                     ; 0x21 <__rc31>
    32b8: a5 0d        	lda	$d                      ; 0xd <__rc11>
    32ba: a0 0e        	ldy	#$e
    32bc: 91 02        	sta	($2),y                  ; 0x2 <__rc0>
    32be: a5 20        	lda	$20                     ; 0x20 <__rc30>
    32c0: e5 0d        	sbc	$d                      ; 0xd <__rc11>
    32c2: 85 1e        	sta	$1e                     ; 0x1e <__rc28>
    32c4: a5 0e        	lda	$e                      ; 0xe <__rc12>
    32c6: 48           	pha
    32c7: a5 18        	lda	$18                     ; 0x18 <__rc22>
    32c9: 88           	dey
    32ca: 91 02        	sta	($2),y                  ; 0x2 <__rc0>
    32cc: 68           	pla
    32cd: e5 18        	sbc	$18                     ; 0x18 <__rc22>
    32cf: a8           	tay
    32d0: a5 0f        	lda	$f                      ; 0xf <__rc13>
    32d2: 09 01        	ora	#$1
    32d4: 84 13        	sty	$13                     ; 0x13 <__rc17>
    32d6: a0 1d        	ldy	#$1d
    32d8: 91 02        	sta	($2),y                  ; 0x2 <__rc0>
    32da: a4 13        	ldy	$13                     ; 0x13 <__rc17>
    32dc: a5 09        	lda	$9                      ; 0x9 <__rc7>
    32de: c9 01        	cmp	#$1
    32e0: 84 13        	sty	$13                     ; 0x13 <__rc17>
    32e2: a0 1b        	ldy	#$1b
    32e4: b1 02        	lda	($2),y                  ; 0x2 <__rc0>
    32e6: 85 0b        	sta	$b                      ; 0xb <__rc9>
    32e8: 26 0b        	rol	$b                      ; 0xb <__rc9>
    32ea: a0 15        	ldy	#$15
    32ec: b1 02        	lda	($2),y                  ; 0x2 <__rc0>
    32ee: 85 04        	sta	$4                      ; 0x4 <__rc2>
    32f0: 26 04        	rol	$4                      ; 0x4 <__rc2>
    32f2: a0 1a        	ldy	#$1a
    32f4: b1 02        	lda	($2),y                  ; 0x2 <__rc0>
    32f6: 85 08        	sta	$8                      ; 0x8 <__rc6>
    32f8: 26 08        	rol	$8                      ; 0x8 <__rc6>
    32fa: 88           	dey
    32fb: b1 02        	lda	($2),y                  ; 0x2 <__rc0>
    32fd: 85 0a        	sta	$a                      ; 0xa <__rc8>
    32ff: 26 0a        	rol	$a                      ; 0xa <__rc8>
    3301: 88           	dey
    3302: b1 02        	lda	($2),y                  ; 0x2 <__rc0>
    3304: 85 17        	sta	$17                     ; 0x17 <__rc21>
    3306: 26 17        	rol	$17                     ; 0x17 <__rc21>
    3308: 88           	dey
    3309: b1 02        	lda	($2),y                  ; 0x2 <__rc0>
    330b: 85 1b        	sta	$1b                     ; 0x1b <__rc25>
    330d: 26 1b        	rol	$1b                     ; 0x1b <__rc25>
    330f: 88           	dey
    3310: b1 02        	lda	($2),y                  ; 0x2 <__rc0>
    3312: 2a           	rol
    3313: 86 09        	stx	$9                      ; 0x9 <__rc7>
    3315: c6 09        	dec	$9                      ; 0x9 <__rc7>
    3317: 48           	pha
    3318: a5 10        	lda	$10                     ; 0x10 <__rc14>
    331a: a0 1c        	ldy	#$1c
    331c: 91 02        	sta	($2),y                  ; 0x2 <__rc0>
    331e: a0 0c        	ldy	#$c
    3320: 91 02        	sta	($2),y                  ; 0x2 <__rc0>
    3322: a4 13        	ldy	$13                     ; 0x13 <__rc17>
    3324: a6 16        	ldx	$16                     ; 0x16 <__rc20>
    3326: 86 15        	stx	$15                     ; 0x15 <__rc19>
    3328: a6 1a        	ldx	$1a                     ; 0x1a <__rc24>
    332a: 86 0f        	stx	$f                      ; 0xf <__rc13>
    332c: a6 11        	ldx	$11                     ; 0x11 <__rc15>
    332e: 86 10        	stx	$10                     ; 0x10 <__rc14>
    3330: a6 14        	ldx	$14                     ; 0x14 <__zp_data_size>
    3332: 86 1c        	stx	$1c                     ; 0x1c <__rc26>
    3334: a6 21        	ldx	$21                     ; 0x21 <__rc31>
    3336: 86 1d        	stx	$1d                     ; 0x1d <__rc27>
    3338: a6 1e        	ldx	$1e                     ; 0x1e <__rc28>
    333a: 86 20        	stx	$20                     ; 0x20 <__rc30>
    333c: 84 1f        	sty	$1f                     ; 0x1f <__rc29>
    333e: 84 13        	sty	$13                     ; 0x13 <__rc17>
    3340: a0 1d        	ldy	#$1d
    3342: b1 02        	lda	($2),y                  ; 0x2 <__rc0>
    3344: 85 0e        	sta	$e                      ; 0xe <__rc12>
    3346: a6 0b        	ldx	$b                      ; 0xb <__rc9>
    3348: 8a           	txa
    3349: a0 1b        	ldy	#$1b
    334b: 91 02        	sta	($2),y                  ; 0x2 <__rc0>
    334d: a6 04        	ldx	$4                      ; 0x4 <__rc2>
    334f: 8a           	txa
    3350: a0 15        	ldy	#$15
    3352: 91 02        	sta	($2),y                  ; 0x2 <__rc0>
    3354: a6 08        	ldx	$8                      ; 0x8 <__rc6>
    3356: 86 05        	stx	$5                      ; 0x5 <__rc3>
    3358: a5 08        	lda	$8                      ; 0x8 <__rc6>
    335a: a0 1a        	ldy	#$1a
    335c: 91 02        	sta	($2),y                  ; 0x2 <__rc0>
    335e: a6 0a        	ldx	$a                      ; 0xa <__rc8>
    3360: 86 06        	stx	$6                      ; 0x6 <__rc4>
    3362: a5 0a        	lda	$a                      ; 0xa <__rc8>
    3364: 88           	dey
    3365: 91 02        	sta	($2),y                  ; 0x2 <__rc0>
    3367: a6 17        	ldx	$17                     ; 0x17 <__rc21>
    3369: 86 07        	stx	$7                      ; 0x7 <__rc5>
    336b: a5 17        	lda	$17                     ; 0x17 <__rc21>
    336d: 88           	dey
    336e: 91 02        	sta	($2),y                  ; 0x2 <__rc0>
    3370: a5 1b        	lda	$1b                     ; 0x1b <__rc25>
    3372: 88           	dey
    3373: 91 02        	sta	($2),y                  ; 0x2 <__rc0>
    3375: 68           	pla
    3376: 85 0a        	sta	$a                      ; 0xa <__rc8>
    3378: 88           	dey
    3379: 91 02        	sta	($2),y                  ; 0x2 <__rc0>
    337b: a6 09        	ldx	$9                      ; 0x9 <__rc7>
    337d: a0 0d        	ldy	#$d
    337f: b1 02        	lda	($2),y                  ; 0x2 <__rc0>
    3381: a4 13        	ldy	$13                     ; 0x13 <__rc17>
    3383: 85 18        	sta	$18                     ; 0x18 <__rc22>
    3385: a5 09        	lda	$9                      ; 0x9 <__rc7>
    3387: d0 03        	bne	$338c <__divmoddi4+0x714>
    3389: 4c ec 33     	jmp	$33ec <__divmoddi4+0x774>
    338c: 4c 88 31     	jmp	$3188 <__divmoddi4+0x510>
    338f: c5 0c        	cmp	$c                      ; 0xc <__rc10>
    3391: b0 03        	bcs	$3396 <__divmoddi4+0x71e>
    3393: 4c 1f 32     	jmp	$321f <__divmoddi4+0x5a7>
    3396: 4c 65 32     	jmp	$3265 <__divmoddi4+0x5ed>
    3399: c5 08        	cmp	$8                      ; 0x8 <__rc6>
    339b: b0 03        	bcs	$33a0 <__divmoddi4+0x728>
    339d: 4c 1f 32     	jmp	$321f <__divmoddi4+0x5a7>
    33a0: 4c 65 32     	jmp	$3265 <__divmoddi4+0x5ed>
    33a3: c5 07        	cmp	$7                      ; 0x7 <__rc5>
    33a5: b0 03        	bcs	$33aa <__divmoddi4+0x732>
    33a7: 4c 1f 32     	jmp	$321f <__divmoddi4+0x5a7>
    33aa: 4c 65 32     	jmp	$3265 <__divmoddi4+0x5ed>
    33ad: c5 06        	cmp	$6                      ; 0x6 <__rc4>
    33af: b0 03        	bcs	$33b4 <__divmoddi4+0x73c>
    33b1: 4c 1f 32     	jmp	$321f <__divmoddi4+0x5a7>
    33b4: 4c 65 32     	jmp	$3265 <__divmoddi4+0x5ed>
    33b7: c5 05        	cmp	$5                      ; 0x5 <__rc3>
    33b9: b0 03        	bcs	$33be <__divmoddi4+0x746>
    33bb: 4c 1f 32     	jmp	$321f <__divmoddi4+0x5a7>
    33be: 4c 65 32     	jmp	$3265 <__divmoddi4+0x5ed>
    33c1: a5 06        	lda	$6                      ; 0x6 <__rc4>
    33c3: 84 13        	sty	$13                     ; 0x13 <__rc17>
    33c5: a0 0c        	ldy	#$c
    33c7: 91 02        	sta	($2),y                  ; 0x2 <__rc0>
    33c9: a4 13        	ldy	$13                     ; 0x13 <__rc17>
    33cb: 84 16        	sty	$16                     ; 0x16 <__rc20>
    33cd: a6 1a        	ldx	$1a                     ; 0x1a <__rc24>
    33cf: 86 0f        	stx	$f                      ; 0xf <__rc13>
    33d1: a6 21        	ldx	$21                     ; 0x21 <__rc31>
    33d3: 86 1d        	stx	$1d                     ; 0x1d <__rc27>
    33d5: a6 20        	ldx	$20                     ; 0x20 <__rc30>
    33d7: 86 1e        	stx	$1e                     ; 0x1e <__rc28>
    33d9: a2 01        	ldx	#$1
    33db: 86 0e        	stx	$e                      ; 0xe <__rc12>
    33dd: ca           	dex
    33de: 86 0b        	stx	$b                      ; 0xb <__rc9>
    33e0: 86 04        	stx	$4                      ; 0x4 <__rc2>
    33e2: 86 05        	stx	$5                      ; 0x5 <__rc3>
    33e4: 86 06        	stx	$6                      ; 0x6 <__rc4>
    33e6: 86 07        	stx	$7                      ; 0x7 <__rc5>
    33e8: 86 1b        	stx	$1b                     ; 0x1b <__rc25>
    33ea: 86 0a        	stx	$a                      ; 0xa <__rc8>
    33ec: a4 16        	ldy	$16                     ; 0x16 <__rc20>
    33ee: 84 13        	sty	$13                     ; 0x13 <__rc17>
    33f0: a0 0c        	ldy	#$c
    33f2: b1 02        	lda	($2),y                  ; 0x2 <__rc0>
    33f4: 85 0d        	sta	$d                      ; 0xd <__rc11>
    33f6: a6 0e        	ldx	$e                      ; 0xe <__rc12>
    33f8: 86 0c        	stx	$c                      ; 0xc <__rc10>
    33fa: 88           	dey
    33fb: b1 02        	lda	($2),y                  ; 0x2 <__rc0>
    33fd: 85 14        	sta	$14                     ; 0x14 <__zp_data_size>
    33ff: 88           	dey
    3400: b1 02        	lda	($2),y                  ; 0x2 <__rc0>
    3402: 85 15        	sta	$15                     ; 0x15 <__rc19>
    3404: 88           	dey
    3405: b1 02        	lda	($2),y                  ; 0x2 <__rc0>
    3407: a4 13        	ldy	$13                     ; 0x13 <__rc17>
    3409: 85 09        	sta	$9                      ; 0x9 <__rc7>
    340b: aa           	tax
    340c: 30 0b        	bmi	$3419 <__divmoddi4+0x7a1>
    340e: a6 0d        	ldx	$d                      ; 0xd <__rc11>
    3410: 84 11        	sty	$11                     ; 0x11 <__rc15>
    3412: a4 0f        	ldy	$f                      ; 0xf <__rc13>
    3414: 84 16        	sty	$16                     ; 0x16 <__rc20>
    3416: 4c 4b 34     	jmp	$344b <__divmoddi4+0x7d3>
    3419: 38           	sec
    341a: a9 00        	lda	#$0
    341c: e5 0d        	sbc	$d                      ; 0xd <__rc11>
    341e: aa           	tax
    341f: a9 00        	lda	#$0
    3421: 84 0d        	sty	$d                      ; 0xd <__rc11>
    3423: e5 0d        	sbc	$d                      ; 0xd <__rc11>
    3425: 85 11        	sta	$11                     ; 0x11 <__rc15>
    3427: a9 00        	lda	#$0
    3429: e5 0f        	sbc	$f                      ; 0xf <__rc13>
    342b: 85 16        	sta	$16                     ; 0x16 <__rc20>
    342d: a9 00        	lda	#$0
    342f: e5 10        	sbc	$10                     ; 0x10 <__rc14>
    3431: 85 10        	sta	$10                     ; 0x10 <__rc14>
    3433: a9 00        	lda	#$0
    3435: e5 1c        	sbc	$1c                     ; 0x1c <__rc26>
    3437: 85 1c        	sta	$1c                     ; 0x1c <__rc26>
    3439: a9 00        	lda	#$0
    343b: e5 1d        	sbc	$1d                     ; 0x1d <__rc27>
    343d: 85 1d        	sta	$1d                     ; 0x1d <__rc27>
    343f: a9 00        	lda	#$0
    3441: e5 1e        	sbc	$1e                     ; 0x1e <__rc28>
    3443: 85 1e        	sta	$1e                     ; 0x1e <__rc28>
    3445: a9 00        	lda	#$0
    3447: e5 1f        	sbc	$1f                     ; 0x1f <__rc29>
    3449: 85 1f        	sta	$1f                     ; 0x1f <__rc29>
    344b: a0 08        	ldy	#$8
    344d: b1 02        	lda	($2),y                  ; 0x2 <__rc0>
    344f: 85 0d        	sta	$d                      ; 0xd <__rc11>
    3451: a0 00        	ldy	#$0
    3453: 8a           	txa
    3454: 91 14        	sta	($14),y                 ; 0x14 <__zp_data_size>
    3456: c8           	iny
    3457: a5 11        	lda	$11                     ; 0x11 <__rc15>
    3459: 91 14        	sta	($14),y                 ; 0x14 <__zp_data_size>
    345b: c8           	iny
    345c: a5 16        	lda	$16                     ; 0x16 <__rc20>
    345e: 91 14        	sta	($14),y                 ; 0x14 <__zp_data_size>
    3460: c8           	iny
    3461: a5 10        	lda	$10                     ; 0x10 <__rc14>
    3463: 91 14        	sta	($14),y                 ; 0x14 <__zp_data_size>
    3465: c8           	iny
    3466: a5 1c        	lda	$1c                     ; 0x1c <__rc26>
    3468: 91 14        	sta	($14),y                 ; 0x14 <__zp_data_size>
    346a: c8           	iny
    346b: a5 1d        	lda	$1d                     ; 0x1d <__rc27>
    346d: 91 14        	sta	($14),y                 ; 0x14 <__zp_data_size>
    346f: c8           	iny
    3470: a5 1e        	lda	$1e                     ; 0x1e <__rc28>
    3472: 91 14        	sta	($14),y                 ; 0x14 <__zp_data_size>
    3474: c8           	iny
    3475: a5 1f        	lda	$1f                     ; 0x1f <__rc29>
    3477: 91 14        	sta	($14),y                 ; 0x14 <__zp_data_size>
    3479: 06 0d        	asl	$d                      ; 0xd <__rc11>
    347b: a9 00        	lda	#$0
    347d: 2a           	rol
    347e: 85 0d        	sta	$d                      ; 0xd <__rc11>
    3480: a9 00        	lda	#$0
    3482: 2a           	rol
    3483: 06 09        	asl	$9                      ; 0x9 <__rc7>
    3485: 85 09        	sta	$9                      ; 0x9 <__rc7>
    3487: a9 00        	lda	#$0
    3489: 2a           	rol
    348a: 85 0e        	sta	$e                      ; 0xe <__rc12>
    348c: a9 00        	lda	#$0
    348e: 2a           	rol
    348f: c5 09        	cmp	$9                      ; 0x9 <__rc7>
    3491: d0 0d        	bne	$34a0 <__divmoddi4+0x828>
    3493: a6 0e        	ldx	$e                      ; 0xe <__rc12>
    3495: e4 0d        	cpx	$d                      ; 0xd <__rc11>
    3497: d0 07        	bne	$34a0 <__divmoddi4+0x828>
    3499: a4 0c        	ldy	$c                      ; 0xc <__rc10>
    349b: a6 0b        	ldx	$b                      ; 0xb <__rc9>
    349d: 4c cf 34     	jmp	$34cf <__divmoddi4+0x857>
    34a0: 38           	sec
    34a1: a9 00        	lda	#$0
    34a3: e5 0c        	sbc	$c                      ; 0xc <__rc10>
    34a5: a8           	tay
    34a6: a9 00        	lda	#$0
    34a8: e5 0b        	sbc	$b                      ; 0xb <__rc9>
    34aa: aa           	tax
    34ab: a9 00        	lda	#$0
    34ad: e5 04        	sbc	$4                      ; 0x4 <__rc2>
    34af: 85 04        	sta	$4                      ; 0x4 <__rc2>
    34b1: a9 00        	lda	#$0
    34b3: e5 05        	sbc	$5                      ; 0x5 <__rc3>
    34b5: 85 05        	sta	$5                      ; 0x5 <__rc3>
    34b7: a9 00        	lda	#$0
    34b9: e5 06        	sbc	$6                      ; 0x6 <__rc4>
    34bb: 85 06        	sta	$6                      ; 0x6 <__rc4>
    34bd: a9 00        	lda	#$0
    34bf: e5 07        	sbc	$7                      ; 0x7 <__rc5>
    34c1: 85 07        	sta	$7                      ; 0x7 <__rc5>
    34c3: a9 00        	lda	#$0
    34c5: e5 1b        	sbc	$1b                     ; 0x1b <__rc25>
    34c7: 85 1b        	sta	$1b                     ; 0x1b <__rc25>
    34c9: a9 00        	lda	#$0
    34cb: e5 0a        	sbc	$a                      ; 0xa <__rc8>
    34cd: 85 0a        	sta	$a                      ; 0xa <__rc8>
    34cf: a5 1b        	lda	$1b                     ; 0x1b <__rc25>
    34d1: 85 08        	sta	$8                      ; 0x8 <__rc6>
    34d3: a5 0a        	lda	$a                      ; 0xa <__rc8>
    34d5: 85 09        	sta	$9                      ; 0x9 <__rc7>
    34d7: 98           	tya
    34d8: 85 12        	sta	$12                     ; 0x12 <__rc16>
    34da: a0 00        	ldy	#$0
    34dc: b1 02        	lda	($2),y                  ; 0x2 <__rc0>
    34de: 85 21        	sta	$21                     ; 0x21 <__rc31>
    34e0: c8           	iny
    34e1: b1 02        	lda	($2),y                  ; 0x2 <__rc0>
    34e3: 85 20        	sta	$20                     ; 0x20 <__rc30>
    34e5: c8           	iny
    34e6: b1 02        	lda	($2),y                  ; 0x2 <__rc0>
    34e8: 85 1f        	sta	$1f                     ; 0x1f <__rc29>
    34ea: c8           	iny
    34eb: b1 02        	lda	($2),y                  ; 0x2 <__rc0>
    34ed: 85 1e        	sta	$1e                     ; 0x1e <__rc28>
    34ef: c8           	iny
    34f0: b1 02        	lda	($2),y                  ; 0x2 <__rc0>
    34f2: 85 1d        	sta	$1d                     ; 0x1d <__rc27>
    34f4: c8           	iny
    34f5: b1 02        	lda	($2),y                  ; 0x2 <__rc0>
    34f7: 85 1c        	sta	$1c                     ; 0x1c <__rc26>
    34f9: c8           	iny
    34fa: b1 02        	lda	($2),y                  ; 0x2 <__rc0>
    34fc: 85 1b        	sta	$1b                     ; 0x1b <__rc25>
    34fe: c8           	iny
    34ff: b1 02        	lda	($2),y                  ; 0x2 <__rc0>
    3501: 85 1a        	sta	$1a                     ; 0x1a <__rc24>
    3503: 68           	pla
    3504: 85 19        	sta	$19                     ; 0x19 <__rc23>
    3506: 68           	pla
    3507: 85 18        	sta	$18                     ; 0x18 <__rc22>
    3509: 68           	pla
    350a: 85 17        	sta	$17                     ; 0x17 <__rc21>
    350c: 68           	pla
    350d: 85 16        	sta	$16                     ; 0x16 <__rc20>
    350f: 18           	clc
    3510: a5 02        	lda	$2                      ; 0x2 <__rc0>
    3512: 69 1e        	adc	#$1e
    3514: 85 02        	sta	$2                      ; 0x2 <__rc0>
    3516: a5 03        	lda	$3                      ; 0x3 <__rc1>
    3518: 69 00        	adc	#$0
    351a: 85 03        	sta	$3                      ; 0x3 <__rc1>
    351c: a5 12        	lda	$12                     ; 0x12 <__rc16>
    351e: 60           	rts
    351f: a2 01        	ldx	#$1
    3521: 86 0e        	stx	$e                      ; 0xe <__rc12>
    3523: ca           	dex
    3524: 8a           	txa
    3525: a0 0c        	ldy	#$c
    3527: 91 02        	sta	($2),y                  ; 0x2 <__rc0>
    3529: 86 16        	stx	$16                     ; 0x16 <__rc20>
    352b: 86 0f        	stx	$f                      ; 0xf <__rc13>
    352d: 86 10        	stx	$10                     ; 0x10 <__rc14>
    352f: 86 1c        	stx	$1c                     ; 0x1c <__rc26>
    3531: 86 1d        	stx	$1d                     ; 0x1d <__rc27>
    3533: 86 1e        	stx	$1e                     ; 0x1e <__rc28>
    3535: 8a           	txa
    3536: 85 0b        	sta	$b                      ; 0xb <__rc9>
    3538: 85 04        	sta	$4                      ; 0x4 <__rc2>
    353a: 85 05        	sta	$5                      ; 0x5 <__rc3>
    353c: 85 06        	sta	$6                      ; 0x6 <__rc4>
    353e: 85 07        	sta	$7                      ; 0x7 <__rc5>
    3540: 85 1b        	sta	$1b                     ; 0x1b <__rc25>
    3542: 85 0a        	sta	$a                      ; 0xa <__rc8>
    3544: 86 1f        	stx	$1f                     ; 0x1f <__rc29>
    3546: 4c ec 33     	jmp	$33ec <__divmoddi4+0x774>

00003549 <__zero_bss>:
    3549: a2 b7        	ldx	#$b7
    354b: a0 07        	ldy	#$7
    354d: a9 32        	lda	#$32
    354f: 85 04        	sta	$4                      ; 0x4 <__rc2>
    3551: a9 66        	lda	#$66
    3553: 85 05        	sta	$5                      ; 0x5 <__rc3>
    3555: a9 00        	lda	#$0
    3557: 84 06        	sty	$6                      ; 0x6 <__rc4>
    3559: 4c 4d 63     	jmp	$634d <__memset>

0000355c <__zero_zp_bss>:
    355c: a2 36        	ldx	#$36
    355e: a0 00        	ldy	#$0
    3560: a9 36        	lda	#$36
    3562: 85 04        	sta	$4                      ; 0x4 <__rc2>
    3564: a9 00        	lda	#$0
    3566: 85 05        	sta	$5                      ; 0x5 <__rc3>
    3568: a9 00        	lda	#$0
    356a: 84 06        	sty	$6                      ; 0x6 <__rc4>
    356c: 4c 4d 63     	jmp	$634d <__memset>

0000356f <__copy_zp_data>:
    356f: a9 14        	lda	#$14
    3571: a2 00        	ldx	#$0
    3573: a0 22        	ldy	#$22
    3575: 84 04        	sty	$4                      ; 0x4 <__rc2>
    3577: a0 00        	ldy	#$0
    3579: 84 05        	sty	$5                      ; 0x5 <__rc3>
    357b: a0 17        	ldy	#$17
    357d: 84 06        	sty	$6                      ; 0x6 <__rc4>
    357f: a0 20        	ldy	#$20
    3581: 84 07        	sty	$7                      ; 0x7 <__rc5>
    3583: 4c 20 63     	jmp	$6320 <memcpy>

00003586 <main>:
    3586: 18           	clc
    3587: a5 02        	lda	$2                      ; 0x2 <__rc0>
    3589: 69 da        	adc	#$da
    358b: 85 02        	sta	$2                      ; 0x2 <__rc0>
    358d: a5 03        	lda	$3                      ; 0x3 <__rc1>
    358f: 69 ff        	adc	#$ff
    3591: 85 03        	sta	$3                      ; 0x3 <__rc1>
    3593: a6 16        	ldx	$16                     ; 0x16 <__rc20>
    3595: da           	phx
    3596: a6 17        	ldx	$17                     ; 0x17 <__rc21>
    3598: da           	phx
    3599: a6 18        	ldx	$18                     ; 0x18 <__rc22>
    359b: da           	phx
    359c: a6 19        	ldx	$19                     ; 0x19 <__rc23>
    359e: da           	phx
    359f: a5 1a        	lda	$1a                     ; 0x1a <__rc24>
    35a1: a0 07        	ldy	#$7
    35a3: 91 02        	sta	($2),y                  ; 0x2 <__rc0>
    35a5: a5 1b        	lda	$1b                     ; 0x1b <__rc25>
    35a7: 88           	dey
    35a8: 91 02        	sta	($2),y                  ; 0x2 <__rc0>
    35aa: a5 1c        	lda	$1c                     ; 0x1c <__rc26>
    35ac: 88           	dey
    35ad: 91 02        	sta	($2),y                  ; 0x2 <__rc0>
    35af: a5 1d        	lda	$1d                     ; 0x1d <__rc27>
    35b1: 88           	dey
    35b2: 91 02        	sta	($2),y                  ; 0x2 <__rc0>
    35b4: a5 1e        	lda	$1e                     ; 0x1e <__rc28>
    35b6: 88           	dey
    35b7: 91 02        	sta	($2),y                  ; 0x2 <__rc0>
    35b9: a5 1f        	lda	$1f                     ; 0x1f <__rc29>
    35bb: 88           	dey
    35bc: 91 02        	sta	($2),y                  ; 0x2 <__rc0>
    35be: a5 20        	lda	$20                     ; 0x20 <__rc30>
    35c0: 88           	dey
    35c1: 91 02        	sta	($2),y                  ; 0x2 <__rc0>
    35c3: a5 21        	lda	$21                     ; 0x21 <__rc31>
    35c5: 88           	dey
    35c6: 91 02        	sta	($2),y                  ; 0x2 <__rc0>
    35c8: a2 28        	ldx	#$28
    35ca: 08           	php
    35cb: 48           	pha
    35cc: da           	phx
    35cd: 5a           	phy
    35ce: db           	phz
    35cf: a0 47        	ldy	#$47
    35d1: 8c 2f d0     	sty	$d02f                   ; 0xd02f <__heap_start+0x6245>
    35d4: a0 53        	ldy	#$53
    35d6: 8c 2f d0     	sty	$d02f                   ; 0xd02f <__heap_start+0x6245>
    35d9: ad 5d d0     	lda	$d05d                   ; 0xd05d <__heap_start+0x6273>
    35dc: 29 7f        	and	#$7f
    35de: 8d 5d d0     	sta	$d05d                   ; 0xd05d <__heap_start+0x6273>
    35e1: 9c 68 d0     	stz	$d068                   ; 0xd068 <__heap_start+0x627e>
    35e4: a0 d8        	ldy	#$d8
    35e6: 8c 69 d0     	sty	$d069                   ; 0xd069 <__heap_start+0x627f>
    35e9: a0 02        	ldy	#$2
    35eb: 8c 6a d0     	sty	$d06a                   ; 0xd06a <__heap_start+0x6280>
    35ee: ac 31 d0     	ldy	$d031                   ; 0xd031 <__heap_start+0x6247>
    35f1: 10 02        	bpl	$35f5 <main+0x6f>
    35f3: a2 50        	ldx	#$50
    35f5: 86 54        	stx	$54                     ; 0x54 <g_curScreenW>
    35f7: ad 31 d0     	lda	$d031                   ; 0xd031 <__heap_start+0x6247>
    35fa: 29 08        	and	#$8
    35fc: f0 04        	beq	$3602 <main+0x7c>
    35fe: a2 32        	ldx	#$32
    3600: 80 02        	bra	$3604 <main+0x7e>
    3602: a2 19        	ldx	#$19
    3604: 86 55        	stx	$55                     ; 0x55 <g_curScreenH>
    3606: 80 03        	bra	$360b <main+0x85>
    3608: 9c 10 d6     	stz	$d610                   ; 0xd610 <__heap_start+0x6826>
    360b: ae 10 d6     	ldx	$d610                   ; 0xd610 <__heap_start+0x6826>
    360e: d0 f8        	bne	$3608 <main+0x82>
    3610: a2 34        	ldx	#$34
    3612: 86 16        	stx	$16                     ; 0x16 <__rc20>
    3614: a2 03        	ldx	#$3
    3616: 86 17        	stx	$17                     ; 0x17 <__rc21>
    3618: a2 ff        	ldx	#$ff
    361a: a0 ec        	ldy	#$ec
    361c: 84 04        	sty	$4                      ; 0x4 <__rc2>
    361e: a0 6a        	ldy	#$6a
    3620: 84 05        	sty	$5                      ; 0x5 <__rc3>
    3622: a0 01        	ldy	#$1
    3624: a5 04        	lda	$4                      ; 0x4 <__rc2>
    3626: 85 06        	sta	$6                      ; 0x6 <__rc4>
    3628: a5 05        	lda	$5                      ; 0x5 <__rc3>
    362a: 85 07        	sta	$7                      ; 0x7 <__rc5>
    362c: a9 3f        	lda	#$3f
    362e: 91 04        	sta	($4),y                  ; 0x4 <__rc2>
    3630: a9 00        	lda	#$0
    3632: 92 04        	sta	($4),z                  ; 0x4 <__rc2>
    3634: a5 04        	lda	$4                      ; 0x4 <__rc2>
    3636: 18           	clc
    3637: 69 03        	adc	#$3
    3639: 85 04        	sta	$4                      ; 0x4 <__rc2>
    363b: a5 05        	lda	$5                      ; 0x5 <__rc3>
    363d: 69 00        	adc	#$0
    363f: 85 05        	sta	$5                      ; 0x5 <__rc3>
    3641: e6 06        	inc	$6                      ; 0x6 <__rc4>
    3643: d0 02        	bne	$3647 <main+0xc1>
    3645: e6 07        	inc	$7                      ; 0x7 <__rc5>
    3647: a9 5e        	lda	#$5e
    3649: 91 06        	sta	($6),y                  ; 0x6 <__rc4>
    364b: ca           	dex
    364c: d0 d6        	bne	$3624 <main+0x9e>
    364e: 9c 68 d0     	stz	$d068                   ; 0xd068 <__heap_start+0x627e>
    3651: a2 d0        	ldx	#$d0
    3653: 8e 69 d0     	stx	$d069                   ; 0xd069 <__heap_start+0x627f>
    3656: a2 02        	ldx	#$2
    3658: 8e 6a d0     	stx	$d06a                   ; 0xd06a <__heap_start+0x6280>
    365b: ad 18 d0     	lda	$d018                   ; 0xd018 <__heap_start+0x622e>
    365e: 49 02        	eor	#$2
    3660: 8d 18 d0     	sta	$d018                   ; 0xd018 <__heap_start+0x622e>
    3663: 80 03        	bra	$3668 <main+0xe2>
    3665: 9c 10 d6     	stz	$d610                   ; 0xd610 <__heap_start+0x6826>
    3668: ae 10 d6     	ldx	$d610                   ; 0xd610 <__heap_start+0x6826>
    366b: d0 f8        	bne	$3665 <main+0xdf>
    366d: a9 bf        	lda	#$bf
    366f: 2d 31 d0     	and	$d031                   ; 0xd031 <__heap_start+0x6247>
    3672: 8d 31 d0     	sta	$d031                   ; 0xd031 <__heap_start+0x6247>
    3675: a9 bf        	lda	#$bf
    3677: 2d 54 d0     	and	$d054                   ; 0xd054 <__heap_start+0x626a>
    367a: 8d 54 d0     	sta	$d054                   ; 0xd054 <__heap_start+0x626a>
    367d: a2 18        	ldx	#$18
    367f: 86 04        	stx	$4                      ; 0x4 <__rc2>
    3681: a2 66        	ldx	#$66
    3683: 86 05        	stx	$5                      ; 0x5 <__rc3>
    3685: 20 58 57     	jsr	$5758 <asciitoscreencode_s>
    3688: a5 56        	lda	$56                     ; 0x56 <g_curX>
    368a: a6 57        	ldx	$57                     ; 0x57 <g_curY>
    368c: a0 34        	ldy	#$34
    368e: 84 04        	sty	$4                      ; 0x4 <__rc2>
    3690: a0 03        	ldy	#$3
    3692: 84 05        	sty	$5                      ; 0x5 <__rc3>
    3694: 20 2e 5f     	jsr	$5f2e <cputsxy>
    3697: 20 6a 55     	jsr	$556a <cputln>
    369a: a9 f0        	lda	#$f0
    369c: 25 35        	and	$35                     ; 0x35 <g_curTextColor>
    369e: 09 03        	ora	#$3
    36a0: 85 35        	sta	$35                     ; 0x35 <g_curTextColor>
    36a2: 9c 20 d0     	stz	$d020                   ; 0xd020 <__heap_start+0x6236>
    36a5: a2 06        	ldx	#$6
    36a7: 8e 21 d0     	stx	$d021                   ; 0xd021 <__heap_start+0x6237>
    36aa: ad 31 d0     	lda	$d031                   ; 0xd031 <__heap_start+0x6247>
    36ad: 09 80        	ora	#$80
    36af: 8d 31 d0     	sta	$d031                   ; 0xd031 <__heap_start+0x6247>
    36b2: a2 50        	ldx	#$50
    36b4: 8e 4c d0     	stx	$d04c                   ; 0xd04c <__heap_start+0x6262>
    36b7: ad 31 d0     	lda	$d031                   ; 0xd031 <__heap_start+0x6247>
    36ba: 29 f7        	and	#$f7
    36bc: 8d 31 d0     	sta	$d031                   ; 0xd031 <__heap_start+0x6247>
    36bf: 86 54        	stx	$54                     ; 0x54 <g_curScreenW>
    36c1: a2 19        	ldx	#$19
    36c3: 86 55        	stx	$55                     ; 0x55 <g_curScreenH>
    36c5: 20 a2 57     	jsr	$57a2 <clrhome>
    36c8: a9 01        	lda	#$1
    36ca: a2 a8        	ldx	#$a8
    36cc: 86 04        	stx	$4                      ; 0x4 <__rc2>
    36ce: a2 64        	ldx	#$64
    36d0: 86 05        	stx	$5                      ; 0x5 <__rc3>
    36d2: a2 b0        	ldx	#$b0
    36d4: 86 06        	stx	$6                      ; 0x6 <__rc4>
    36d6: a2 63        	ldx	#$63
    36d8: 86 07        	stx	$7                      ; 0x7 <__rc5>
    36da: a2 19        	ldx	#$19
    36dc: 86 08        	stx	$8                      ; 0x8 <__rc6>
    36de: a2 64        	ldx	#$64
    36e0: 86 09        	stx	$9                      ; 0x9 <__rc7>
    36e2: 20 cf 5a     	jsr	$5acf <messagebox>
    36e5: aa           	tax
    36e6: d0 03        	bne	$36eb <main+0x165>
    36e8: 4c 3c 4d     	jmp	$4d3c <donehypclosedir6+0x210>
    36eb: a0 01        	ldy	#$1
    36ed: a9 00        	lda	#$0
    36ef: aa           	tax
    36f0: 84 18        	sty	$18                     ; 0x18 <__rc22>
    36f2: a8           	tay
    36f3: 85 19        	sta	$19                     ; 0x19 <__rc23>
    36f5: b9 31 00     	lda	$31,y                   ; 0x31 <midnight>
    36f8: 85 16        	sta	$16                     ; 0x16 <__rc20>
    36fa: 18           	clc
    36fb: 69 03        	adc	#$3
    36fd: 85 04        	sta	$4                      ; 0x4 <__rc2>
    36ff: b9 32 00     	lda	$32,y                   ; 0x32 <midnight+0x1>
    3702: 85 17        	sta	$17                     ; 0x17 <__rc21>
    3704: 69 00        	adc	#$0
    3706: 85 05        	sta	$5                      ; 0x5 <__rc3>
    3708: 8a           	txa
    3709: 92 16        	sta	($16),z                 ; 0x16 <__rc20>
    370b: 86 1a        	stx	$1a                     ; 0x1a <__rc24>
    370d: a2 ea        	ldx	#$ea
    370f: 86 06        	stx	$6                      ; 0x6 <__rc4>
    3711: a2 64        	ldx	#$64
    3713: 86 07        	stx	$7                      ; 0x7 <__rc5>
    3715: a2 00        	ldx	#$0
    3717: a9 10        	lda	#$10
    3719: 20 20 63     	jsr	$6320 <memcpy>
    371c: a0 01        	ldy	#$1
    371e: a9 00        	lda	#$0
    3720: 91 16        	sta	($16),y                 ; 0x16 <__rc20>
    3722: a6 1a        	ldx	$1a                     ; 0x1a <__rc24>
    3724: a5 1a        	lda	$1a                     ; 0x1a <__rc24>
    3726: 20 b1 5c     	jsr	$5cb1 <UpdateSectors>
    3729: a5 19        	lda	$19                     ; 0x19 <__rc23>
    372b: 18           	clc
    372c: 69 02        	adc	#$2
    372e: a0 00        	ldy	#$0
    3730: a2 01        	ldx	#$1
    3732: e6 18        	inc	$18                     ; 0x18 <__rc22>
    3734: c6 18        	dec	$18                     ; 0x18 <__rc22>
    3736: d0 b8        	bne	$36f0 <main+0x16a>
    3738: 64 04        	stz	$4                      ; 0x4 <__rc2>
    373a: a9 00        	lda	#$0
    373c: a0 19        	ldy	#$19
    373e: 91 02        	sta	($2),y                  ; 0x2 <__rc0>
    3740: 64 04        	stz	$4                      ; 0x4 <__rc2>
    3742: 4c 3b 39     	jmp	$393b <main+0x3b5>
    3745: a9 01        	lda	#$1
    3747: a2 20        	ldx	#$20
    3749: 29 01        	and	#$1
    374b: d0 02        	bne	$374f <main+0x1c9>
    374d: a2 3e        	ldx	#$3e
    374f: 8e c4 6a     	stx	$6ac4                   ; 0x6ac4 <s>
    3752: a2 20        	ldx	#$20
    3754: 8e c5 6a     	stx	$6ac5                   ; 0x6ac5 <s+0x1>
    3757: a0 05        	ldy	#$5
    3759: b1 18        	lda	($18),y                 ; 0x18 <__rc22>
    375b: c9 a0        	cmp	#$a0
    375d: d0 06        	bne	$3765 <main+0x1df>
    375f: 64 1d        	stz	$1d                     ; 0x1d <__rc27>
    3761: a9 02        	lda	#$2
    3763: 80 39        	bra	$379e <main+0x218>
    3765: 64 1d        	stz	$1d                     ; 0x1d <__rc27>
    3767: a4 1d        	ldy	$1d                     ; 0x1d <__rc27>
    3769: a6 1d        	ldx	$1d                     ; 0x1d <__rc27>
    376b: 9d c6 6a     	sta	$6ac6,x                 ; 0x6ac6 <s+0x2>
    376e: a5 1d        	lda	$1d                     ; 0x1d <__rc27>
    3770: 18           	clc
    3771: 65 18        	adc	$18                     ; 0x18 <__rc22>
    3773: 85 04        	sta	$4                      ; 0x4 <__rc2>
    3775: a5 19        	lda	$19                     ; 0x19 <__rc23>
    3777: 69 00        	adc	#$0
    3779: 85 05        	sta	$5                      ; 0x5 <__rc3>
    377b: e6 1d        	inc	$1d                     ; 0x1d <__rc27>
    377d: 84 06        	sty	$6                      ; 0x6 <__rc4>
    377f: c0 0f        	cpy	#$f
    3781: a2 01        	ldx	#$1
    3783: b0 02        	bcs	$3787 <main+0x201>
    3785: a2 00        	ldx	#$0
    3787: 86 07        	stx	$7                      ; 0x7 <__rc5>
    3789: a0 06        	ldy	#$6
    378b: b1 04        	lda	($4),y                  ; 0x4 <__rc2>
    378d: c9 a0        	cmp	#$a0
    378f: f0 04        	beq	$3795 <main+0x20f>
    3791: a6 07        	ldx	$7                      ; 0x7 <__rc5>
    3793: f0 d2        	beq	$3767 <main+0x1e1>
    3795: 18           	clc
    3796: a5 06        	lda	$6                      ; 0x6 <__rc4>
    3798: 69 03        	adc	#$3
    379a: a6 07        	ldx	$7                      ; 0x7 <__rc5>
    379c: d0 2b        	bne	$37c9 <main+0x243>
    379e: 85 04        	sta	$4                      ; 0x4 <__rc2>
    37a0: 85 1e        	sta	$1e                     ; 0x1e <__rc28>
    37a2: a9 c4        	lda	#$c4
    37a4: 18           	clc
    37a5: 65 04        	adc	$4                      ; 0x4 <__rc2>
    37a7: 85 04        	sta	$4                      ; 0x4 <__rc2>
    37a9: a9 6a        	lda	#$6a
    37ab: 69 00        	adc	#$0
    37ad: 85 05        	sta	$5                      ; 0x5 <__rc3>
    37af: a9 0f        	lda	#$f
    37b1: 38           	sec
    37b2: e5 1d        	sbc	$1d                     ; 0x1d <__rc27>
    37b4: 64 06        	stz	$6                      ; 0x6 <__rc4>
    37b6: 1a           	inc
    37b7: d0 02        	bne	$37bb <main+0x235>
    37b9: e6 06        	inc	$6                      ; 0x6 <__rc4>
    37bb: aa           	tax
    37bc: a9 20        	lda	#$20
    37be: 20 4d 63     	jsr	$634d <__memset>
    37c1: a5 1e        	lda	$1e                     ; 0x1e <__rc28>
    37c3: 18           	clc
    37c4: 69 10        	adc	#$10
    37c6: 38           	sec
    37c7: e5 1d        	sbc	$1d                     ; 0x1d <__rc27>
    37c9: aa           	tax
    37ca: e8           	inx
    37cb: a8           	tay
    37cc: 85 04        	sta	$4                      ; 0x4 <__rc2>
    37ce: a9 20        	lda	#$20
    37d0: 99 c4 6a     	sta	$6ac4,y                 ; 0x6ac4 <s>
    37d3: 18           	clc
    37d4: a5 04        	lda	$4                      ; 0x4 <__rc2>
    37d6: 69 02        	adc	#$2
    37d8: a8           	tay
    37d9: a9 5d        	lda	#$5d
    37db: 9d c4 6a     	sta	$6ac4,x                 ; 0x6ac4 <s>
    37de: 18           	clc
    37df: a6 04        	ldx	$4                      ; 0x4 <__rc2>
    37e1: 86 05        	stx	$5                      ; 0x5 <__rc3>
    37e3: a5 04        	lda	$4                      ; 0x4 <__rc2>
    37e5: 69 03        	adc	#$3
    37e7: 85 04        	sta	$4                      ; 0x4 <__rc2>
    37e9: a9 20        	lda	#$20
    37eb: 99 c4 6a     	sta	$6ac4,y                 ; 0x6ac4 <s>
    37ee: a9 0f        	lda	#$f
    37f0: a0 02        	ldy	#$2
    37f2: 31 18        	and	($18),y                 ; 0x18 <__rc22>
    37f4: 85 06        	sta	$6                      ; 0x6 <__rc4>
    37f6: a2 00        	ldx	#$0
    37f8: a8           	tay
    37f9: 3a           	dec
    37fa: c0 00        	cpy	#$0
    37fc: d0 01        	bne	$37ff <main+0x279>
    37fe: ca           	dex
    37ff: e0 00        	cpx	#$0
    3801: d0 04        	bne	$3807 <main+0x281>
    3803: c9 05        	cmp	#$5
    3805: 80 02        	bra	$3809 <main+0x283>
    3807: e0 00        	cpx	#$0
    3809: a9 44        	lda	#$44
    380b: a2 45        	ldx	#$45
    380d: 48           	pha
    380e: 8a           	txa
    380f: a0 1d        	ldy	#$1d
    3811: 91 02        	sta	($2),y                  ; 0x2 <__rc0>
    3813: a2 4c        	ldx	#$4c
    3815: 8a           	txa
    3816: 88           	dey
    3817: 91 02        	sta	($2),y                  ; 0x2 <__rc0>
    3819: 68           	pla
    381a: b0 14        	bcs	$3830 <main+0x2aa>
    381c: a6 06        	ldx	$6                      ; 0x6 <__rc4>
    381e: b5 21        	lda	$21,x                   ; 0x21 <__rc31>
    3820: b4 26        	ldy	$26,x                   ; 0x26 <__zp_data_start+0x4>
    3822: 48           	pha
    3823: 98           	tya
    3824: a0 1d        	ldy	#$1d
    3826: 91 02        	sta	($2),y                  ; 0x2 <__rc0>
    3828: b5 2b        	lda	$2b,x                   ; 0x2b <__zp_data_start+0x9>
    382a: aa           	tax
    382b: 8a           	txa
    382c: 88           	dey
    382d: 91 02        	sta	($2),y                  ; 0x2 <__rc0>
    382f: 68           	pla
    3830: a6 04        	ldx	$4                      ; 0x4 <__rc2>
    3832: 9d c4 6a     	sta	$6ac4,x                 ; 0x6ac4 <s>
    3835: 18           	clc
    3836: a5 05        	lda	$5                      ; 0x5 <__rc3>
    3838: 69 04        	adc	#$4
    383a: aa           	tax
    383b: 18           	clc
    383c: a5 05        	lda	$5                      ; 0x5 <__rc3>
    383e: 69 05        	adc	#$5
    3840: a8           	tay
    3841: 5a           	phy
    3842: a0 1d        	ldy	#$1d
    3844: b1 02        	lda	($2),y                  ; 0x2 <__rc0>
    3846: 9d c4 6a     	sta	$6ac4,x                 ; 0x6ac4 <s>
    3849: 88           	dey
    384a: b1 02        	lda	($2),y                  ; 0x2 <__rc0>
    384c: 7a           	ply
    384d: 99 c4 6a     	sta	$6ac4,y                 ; 0x6ac4 <s>
    3850: 18           	clc
    3851: a5 05        	lda	$5                      ; 0x5 <__rc3>
    3853: 69 06        	adc	#$6
    3855: aa           	tax
    3856: 18           	clc
    3857: a5 05        	lda	$5                      ; 0x5 <__rc3>
    3859: 69 07        	adc	#$7
    385b: a8           	tay
    385c: 18           	clc
    385d: a5 05        	lda	$5                      ; 0x5 <__rc3>
    385f: 69 08        	adc	#$8
    3861: 85 04        	sta	$4                      ; 0x4 <__rc2>
    3863: a9 20        	lda	#$20
    3865: 9d c4 6a     	sta	$6ac4,x                 ; 0x6ac4 <s>
    3868: a9 5d        	lda	#$5d
    386a: 99 c4 6a     	sta	$6ac4,y                 ; 0x6ac4 <s>
    386d: 18           	clc
    386e: a5 05        	lda	$5                      ; 0x5 <__rc3>
    3870: 69 09        	adc	#$9
    3872: aa           	tax
    3873: a4 04        	ldy	$4                      ; 0x4 <__rc2>
    3875: a9 20        	lda	#$20
    3877: 99 c4 6a     	sta	$6ac4,y                 ; 0x6ac4 <s>
    387a: 9e c4 6a     	stz	$6ac4,x                 ; 0x6ac4 <s>
    387d: a5 35        	lda	$35                     ; 0x35 <g_curTextColor>
    387f: a6 21        	ldx	$21                     ; 0x21 <__rc31>
    3881: d0 15        	bne	$3898 <main+0x312>
    3883: a6 20        	ldx	$20                     ; 0x20 <__rc30>
    3885: e4 1a        	cpx	$1a                     ; 0x1a <__rc24>
    3887: d0 0f        	bne	$3898 <main+0x312>
    3889: 48           	pha
    388a: a0 19        	ldy	#$19
    388c: b1 02        	lda	($2),y                  ; 0x2 <__rc0>
    388e: aa           	tax
    388f: 68           	pla
    3890: e4 17        	cpx	$17                     ; 0x17 <__rc21>
    3892: d0 04        	bne	$3898 <main+0x312>
    3894: 09 20        	ora	#$20
    3896: 80 02        	bra	$389a <main+0x314>
    3898: 29 df        	and	#$df
    389a: a6 21        	ldx	$21                     ; 0x21 <__rc31>
    389c: d0 08        	bne	$38a6 <main+0x320>
    389e: a2 01        	ldx	#$1
    38a0: a4 20        	ldy	$20                     ; 0x20 <__rc30>
    38a2: c4 1a        	cpy	$1a                     ; 0x1a <__rc24>
    38a4: f0 02        	beq	$38a8 <main+0x322>
    38a6: a2 00        	ldx	#$0
    38a8: a0 01        	ldy	#$1
    38aa: 64 04        	stz	$4                      ; 0x4 <__rc2>
    38ac: e0 00        	cpx	#$0
    38ae: d0 02        	bne	$38b2 <main+0x32c>
    38b0: 84 04        	sty	$4                      ; 0x4 <__rc2>
    38b2: 85 35        	sta	$35                     ; 0x35 <g_curTextColor>
    38b4: a5 04        	lda	$4                      ; 0x4 <__rc2>
    38b6: 29 01        	and	#$1
    38b8: 85 1d        	sta	$1d                     ; 0x1d <__rc27>
    38ba: a6 1f        	ldx	$1f                     ; 0x1f <__rc29>
    38bc: e8           	inx
    38bd: a0 c4        	ldy	#$c4
    38bf: 84 04        	sty	$4                      ; 0x4 <__rc2>
    38c1: a0 6a        	ldy	#$6a
    38c3: 84 05        	sty	$5                      ; 0x5 <__rc3>
    38c5: a0 1a        	ldy	#$1a
    38c7: b1 02        	lda	($2),y                  ; 0x2 <__rc0>
    38c9: 20 2e 5f     	jsr	$5f2e <cputsxy>
    38cc: a5 18        	lda	$18                     ; 0x18 <__rc22>
    38ce: 18           	clc
    38cf: 69 1e        	adc	#$1e
    38d1: 85 04        	sta	$4                      ; 0x4 <__rc2>
    38d3: a5 19        	lda	$19                     ; 0x19 <__rc23>
    38d5: 69 00        	adc	#$0
    38d7: 85 05        	sta	$5                      ; 0x5 <__rc3>
    38d9: a0 01        	ldy	#$1
    38db: b1 04        	lda	($4),y                  ; 0x4 <__rc2>
    38dd: 85 07        	sta	$7                      ; 0x7 <__rc5>
    38df: a0 1e        	ldy	#$1e
    38e1: b1 18        	lda	($18),y                 ; 0x18 <__rc22>
    38e3: 64 04        	stz	$4                      ; 0x4 <__rc2>
    38e5: 64 05        	stz	$5                      ; 0x5 <__rc3>
    38e7: a2 05        	ldx	#$5
    38e9: 86 06        	stx	$6                      ; 0x6 <__rc4>
    38eb: a6 07        	ldx	$7                      ; 0x7 <__rc5>
    38ed: 20 a1 56     	jsr	$56a1 <csputdec>
    38f0: a5 56        	lda	$56                     ; 0x56 <g_curX>
    38f2: a6 57        	ldx	$57                     ; 0x57 <g_curY>
    38f4: a0 20        	ldy	#$20
    38f6: 84 04        	sty	$4                      ; 0x4 <__rc2>
    38f8: 20 40 5e     	jsr	$5e40 <cputcxy>
    38fb: a0 20        	ldy	#$20
    38fd: a5 56        	lda	$56                     ; 0x56 <g_curX>
    38ff: a6 57        	ldx	$57                     ; 0x57 <g_curY>
    3901: e6 1d        	inc	$1d                     ; 0x1d <__rc27>
    3903: c6 1d        	dec	$1d                     ; 0x1d <__rc27>
    3905: d0 02        	bne	$3909 <main+0x383>
    3907: a0 3c        	ldy	#$3c
    3909: 84 04        	sty	$4                      ; 0x4 <__rc2>
    390b: 20 40 5e     	jsr	$5e40 <cputcxy>
    390e: a6 1f        	ldx	$1f                     ; 0x1f <__rc29>
    3910: e8           	inx
    3911: d0 02        	bne	$3915 <main+0x38f>
    3913: e6 1c        	inc	$1c                     ; 0x1c <__rc26>
    3915: a5 1c        	lda	$1c                     ; 0x1c <__rc26>
    3917: f0 03        	beq	$391c <main+0x396>
    3919: 4c 65 3b     	jmp	$3b65 <main+0x5df>
    391c: e0 16        	cpx	#$16
    391e: f0 03        	beq	$3923 <main+0x39d>
    3920: 4c 65 3b     	jmp	$3b65 <main+0x5df>
    3923: a9 df        	lda	#$df
    3925: 25 35        	and	$35                     ; 0x35 <g_curTextColor>
    3927: a6 35        	ldx	$35                     ; 0x35 <g_curTextColor>
    3929: 86 16        	stx	$16                     ; 0x16 <__rc20>
    392b: 85 35        	sta	$35                     ; 0x35 <g_curTextColor>
    392d: 20 6a 55     	jsr	$556a <cputln>
    3930: a2 01        	ldx	#$1
    3932: 86 04        	stx	$4                      ; 0x4 <__rc2>
    3934: a5 17        	lda	$17                     ; 0x17 <__rc21>
    3936: f0 03        	beq	$393b <main+0x3b5>
    3938: 4c b7 3b     	jmp	$3bb7 <main+0x631>
    393b: a6 04        	ldx	$4                      ; 0x4 <__rc2>
    393d: 86 17        	stx	$17                     ; 0x17 <__rc21>
    393f: a5 04        	lda	$4                      ; 0x4 <__rc2>
    3941: 0a           	asl
    3942: aa           	tax
    3943: b4 31        	ldy	$31,x                   ; 0x31 <midnight>
    3945: 84 1b        	sty	$1b                     ; 0x1b <__rc25>
    3947: 84 18        	sty	$18                     ; 0x18 <__rc22>
    3949: b5 32        	lda	$32,x                   ; 0x32 <midnight+0x1>
    394b: aa           	tax
    394c: 86 1d        	stx	$1d                     ; 0x1d <__rc27>
    394e: 86 19        	stx	$19                     ; 0x19 <__rc23>
    3950: a0 02        	ldy	#$2
    3952: b1 18        	lda	($18),y                 ; 0x18 <__rc22>
    3954: 88           	dey
    3955: d1 18        	cmp	($18),y                 ; 0x18 <__rc22>
    3957: b0 02        	bcs	$395b <main+0x3d5>
    3959: 91 18        	sta	($18),y                 ; 0x18 <__rc22>
    395b: a2 28        	ldx	#$28
    395d: a5 04        	lda	$4                      ; 0x4 <__rc2>
    395f: 20 89 61     	jsr	$6189 <__mulqi3>
    3962: a8           	tay
    3963: 18           	clc
    3964: 69 27        	adc	#$27
    3966: 64 16        	stz	$16                     ; 0x16 <__rc20>
    3968: 85 04        	sta	$4                      ; 0x4 <__rc2>
    396a: a2 17        	ldx	#$17
    396c: 86 05        	stx	$5                      ; 0x5 <__rc3>
    396e: 64 06        	stz	$6                      ; 0x6 <__rc4>
    3970: a2 00        	ldx	#$0
    3972: 84 1c        	sty	$1c                     ; 0x1c <__rc26>
    3974: 98           	tya
    3975: 20 76 58     	jsr	$5876 <mcbox>
    3978: b2 18        	lda	($18),z                 ; 0x18 <__rc22>
    397a: 64 37        	stz	$37                     ; 0x37 <BAMsector.0>
    397c: a2 16        	ldx	#$16
    397e: 86 38        	stx	$38                     ; 0x38 <BAMsector.0+0x1>
    3980: 64 39        	stz	$39                     ; 0x39 <BAMsector.1>
    3982: e8           	inx
    3983: 86 3a        	stx	$3a                     ; 0x3a <BAMsector.1+0x1>
    3985: 64 3b        	stz	$3b                     ; 0x3b <worksector.0>
    3987: e8           	inx
    3988: 86 3c        	stx	$3c                     ; 0x3c <worksector.0+0x1>
    398a: 64 3d        	stz	$3d                     ; 0x3d <worksectorasBAM.0>
    398c: 86 3e        	stx	$3e                     ; 0x3e <worksectorasBAM.0+0x1>
    398e: 64 3f        	stz	$3f                     ; 0x3f <direntryblock.0>
    3990: a2 1a        	ldx	#$1a
    3992: 86 40        	stx	$40                     ; 0x40 <direntryblock.0+0x1>
    3994: 64 41        	stz	$41                     ; 0x41 <direntryblock.1>
    3996: e8           	inx
    3997: 86 42        	stx	$42                     ; 0x42 <direntryblock.1+0x1>
    3999: 9c 80 d0     	stz	$d080                   ; 0xd080 <__heap_start+0x6296>
    399c: a6 37        	ldx	$37                     ; 0x37 <BAMsector.0>
    399e: 86 04        	stx	$4                      ; 0x4 <__rc2>
    39a0: a6 38        	ldx	$38                     ; 0x38 <BAMsector.0+0x1>
    39a2: 86 05        	stx	$5                      ; 0x5 <__rc3>
    39a4: 64 06        	stz	$6                      ; 0x6 <__rc4>
    39a6: a2 28        	ldx	#$28
    39a8: 20 21 4e     	jsr	$4e21 <GetOneSector>
    39ab: ad 04 16     	lda	$1604                   ; 0x1604 <__bss_size+0xe4d>
    39ae: a2 00        	ldx	#$0
    39b0: c9 a0        	cmp	#$a0
    39b2: f0 35        	beq	$39e9 <main+0x463>
    39b4: a0 00        	ldy	#$0
    39b6: a6 37        	ldx	$37                     ; 0x37 <BAMsector.0>
    39b8: 86 06        	stx	$6                      ; 0x6 <__rc4>
    39ba: a2 00        	ldx	#$0
    39bc: 85 04        	sta	$4                      ; 0x4 <__rc2>
    39be: a5 38        	lda	$38                     ; 0x38 <BAMsector.0+0x1>
    39c0: 85 08        	sta	$8                      ; 0x8 <__rc6>
    39c2: a5 04        	lda	$4                      ; 0x4 <__rc2>
    39c4: 99 43 00     	sta	$43,y                   ; 0x43 <dosfilename>
    39c7: e8           	inx
    39c8: 84 04        	sty	$4                      ; 0x4 <__rc2>
    39ca: a5 06        	lda	$6                      ; 0x6 <__rc4>
    39cc: 18           	clc
    39cd: 65 04        	adc	$4                      ; 0x4 <__rc2>
    39cf: 85 04        	sta	$4                      ; 0x4 <__rc2>
    39d1: a5 08        	lda	$8                      ; 0x8 <__rc6>
    39d3: 69 00        	adc	#$0
    39d5: 85 05        	sta	$5                      ; 0x5 <__rc3>
    39d7: 84 07        	sty	$7                      ; 0x7 <__rc5>
    39d9: a0 05        	ldy	#$5
    39db: b1 04        	lda	($4),y                  ; 0x4 <__rc2>
    39dd: c9 a0        	cmp	#$a0
    39df: f0 08        	beq	$39e9 <main+0x463>
    39e1: a4 07        	ldy	$7                      ; 0x7 <__rc5>
    39e3: c0 0f        	cpy	#$f
    39e5: da           	phx
    39e6: 7a           	ply
    39e7: 90 db        	bcc	$39c4 <main+0x43e>
    39e9: 74 43        	stz	$43,x                   ; 0x43 <dosfilename>
    39eb: a9 20        	lda	#$20
    39ed: 05 35        	ora	$35                     ; 0x35 <g_curTextColor>
    39ef: 85 35        	sta	$35                     ; 0x35 <g_curTextColor>
    39f1: a5 1c        	lda	$1c                     ; 0x1c <__rc26>
    39f3: 09 02        	ora	#$2
    39f5: 85 1e        	sta	$1e                     ; 0x1e <__rc28>
    39f7: a2 49        	ldx	#$49
    39f9: 86 04        	stx	$4                      ; 0x4 <__rc2>
    39fb: a2 64        	ldx	#$64
    39fd: 86 05        	stx	$5                      ; 0x5 <__rc3>
    39ff: a5 04        	lda	$4                      ; 0x4 <__rc2>
    3a01: a0 1e        	ldy	#$1e
    3a03: 91 02        	sta	($2),y                  ; 0x2 <__rc0>
    3a05: a5 05        	lda	$5                      ; 0x5 <__rc3>
    3a07: c8           	iny
    3a08: 91 02        	sta	($2),y                  ; 0x2 <__rc0>
    3a0a: 88           	dey
    3a0b: b1 02        	lda	($2),y                  ; 0x2 <__rc0>
    3a0d: 85 04        	sta	$4                      ; 0x4 <__rc2>
    3a0f: c8           	iny
    3a10: b1 02        	lda	($2),y                  ; 0x2 <__rc0>
    3a12: 85 05        	sta	$5                      ; 0x5 <__rc3>
    3a14: 20 58 57     	jsr	$5758 <asciitoscreencode_s>
    3a17: a2 34        	ldx	#$34
    3a19: 86 04        	stx	$4                      ; 0x4 <__rc2>
    3a1b: a2 03        	ldx	#$3
    3a1d: 86 05        	stx	$5                      ; 0x5 <__rc3>
    3a1f: a2 00        	ldx	#$0
    3a21: a5 1e        	lda	$1e                     ; 0x1e <__rc28>
    3a23: 20 2e 5f     	jsr	$5f2e <cputsxy>
    3a26: a2 43        	ldx	#$43
    3a28: 86 04        	stx	$4                      ; 0x4 <__rc2>
    3a2a: a2 00        	ldx	#$0
    3a2c: 86 05        	stx	$5                      ; 0x5 <__rc3>
    3a2e: 20 58 57     	jsr	$5758 <asciitoscreencode_s>
    3a31: a5 56        	lda	$56                     ; 0x56 <g_curX>
    3a33: a6 57        	ldx	$57                     ; 0x57 <g_curY>
    3a35: a0 34        	ldy	#$34
    3a37: 84 04        	sty	$4                      ; 0x4 <__rc2>
    3a39: a0 03        	ldy	#$3
    3a3b: 84 05        	sty	$5                      ; 0x5 <__rc3>
    3a3d: 20 2e 5f     	jsr	$5f2e <cputsxy>
    3a40: a5 56        	lda	$56                     ; 0x56 <g_curX>
    3a42: a6 57        	ldx	$57                     ; 0x57 <g_curY>
    3a44: a0 20        	ldy	#$20
    3a46: 84 04        	sty	$4                      ; 0x4 <__rc2>
    3a48: 20 40 5e     	jsr	$5e40 <cputcxy>
    3a4b: a6 56        	ldx	$56                     ; 0x56 <g_curX>
    3a4d: e8           	inx
    3a4e: 86 1f        	stx	$1f                     ; 0x1f <__rc29>
    3a50: a0 1e        	ldy	#$1e
    3a52: b1 02        	lda	($2),y                  ; 0x2 <__rc0>
    3a54: 85 04        	sta	$4                      ; 0x4 <__rc2>
    3a56: c8           	iny
    3a57: b1 02        	lda	($2),y                  ; 0x2 <__rc0>
    3a59: 85 05        	sta	$5                      ; 0x5 <__rc3>
    3a5b: 20 58 57     	jsr	$5758 <asciitoscreencode_s>
    3a5e: a2 34        	ldx	#$34
    3a60: 86 04        	stx	$4                      ; 0x4 <__rc2>
    3a62: a2 03        	ldx	#$3
    3a64: 86 05        	stx	$5                      ; 0x5 <__rc3>
    3a66: a2 00        	ldx	#$0
    3a68: a5 1f        	lda	$1f                     ; 0x1f <__rc29>
    3a6a: 20 2e 5f     	jsr	$5f2e <cputsxy>
    3a6d: a5 1b        	lda	$1b                     ; 0x1b <__rc25>
    3a6f: 18           	clc
    3a70: 69 03        	adc	#$3
    3a72: 85 04        	sta	$4                      ; 0x4 <__rc2>
    3a74: a5 1d        	lda	$1d                     ; 0x1d <__rc27>
    3a76: 69 00        	adc	#$0
    3a78: 85 05        	sta	$5                      ; 0x5 <__rc3>
    3a7a: 20 58 57     	jsr	$5758 <asciitoscreencode_s>
    3a7d: a5 56        	lda	$56                     ; 0x56 <g_curX>
    3a7f: a6 57        	ldx	$57                     ; 0x57 <g_curY>
    3a81: a0 34        	ldy	#$34
    3a83: 84 04        	sty	$4                      ; 0x4 <__rc2>
    3a85: a0 03        	ldy	#$3
    3a87: 84 05        	sty	$5                      ; 0x5 <__rc3>
    3a89: 20 2e 5f     	jsr	$5f2e <cputsxy>
    3a8c: a5 56        	lda	$56                     ; 0x56 <g_curX>
    3a8e: a6 57        	ldx	$57                     ; 0x57 <g_curY>
    3a90: a0 20        	ldy	#$20
    3a92: 84 04        	sty	$4                      ; 0x4 <__rc2>
    3a94: 20 40 5e     	jsr	$5e40 <cputcxy>
    3a97: a2 5f        	ldx	#$5f
    3a99: 86 04        	stx	$4                      ; 0x4 <__rc2>
    3a9b: a2 65        	ldx	#$65
    3a9d: 86 05        	stx	$5                      ; 0x5 <__rc3>
    3a9f: 20 58 57     	jsr	$5758 <asciitoscreencode_s>
    3aa2: a2 34        	ldx	#$34
    3aa4: 86 04        	stx	$4                      ; 0x4 <__rc2>
    3aa6: a2 03        	ldx	#$3
    3aa8: 86 05        	stx	$5                      ; 0x5 <__rc3>
    3aaa: a2 17        	ldx	#$17
    3aac: a5 1e        	lda	$1e                     ; 0x1e <__rc28>
    3aae: 20 2e 5f     	jsr	$5f2e <cputsxy>
    3ab1: b2 18        	lda	($18),z                 ; 0x18 <__rc22>
    3ab3: 64 04        	stz	$4                      ; 0x4 <__rc2>
    3ab5: 64 05        	stz	$5                      ; 0x5 <__rc3>
    3ab7: 64 06        	stz	$6                      ; 0x6 <__rc4>
    3ab9: a2 00        	ldx	#$0
    3abb: 20 a1 56     	jsr	$56a1 <csputdec>
    3abe: a5 56        	lda	$56                     ; 0x56 <g_curX>
    3ac0: a6 57        	ldx	$57                     ; 0x57 <g_curY>
    3ac2: a0 20        	ldy	#$20
    3ac4: 84 04        	sty	$4                      ; 0x4 <__rc2>
    3ac6: 20 40 5e     	jsr	$5e40 <cputcxy>
    3ac9: a5 1c        	lda	$1c                     ; 0x1c <__rc26>
    3acb: 18           	clc
    3acc: 69 0c        	adc	#$c
    3ace: 85 1a        	sta	$1a                     ; 0x1a <__rc24>
    3ad0: a2 49        	ldx	#$49
    3ad2: 86 04        	stx	$4                      ; 0x4 <__rc2>
    3ad4: a2 64        	ldx	#$64
    3ad6: 86 05        	stx	$5                      ; 0x5 <__rc3>
    3ad8: a5 04        	lda	$4                      ; 0x4 <__rc2>
    3ada: a0 1e        	ldy	#$1e
    3adc: 91 02        	sta	($2),y                  ; 0x2 <__rc0>
    3ade: a5 05        	lda	$5                      ; 0x5 <__rc3>
    3ae0: c8           	iny
    3ae1: 91 02        	sta	($2),y                  ; 0x2 <__rc0>
    3ae3: 88           	dey
    3ae4: b1 02        	lda	($2),y                  ; 0x2 <__rc0>
    3ae6: 85 04        	sta	$4                      ; 0x4 <__rc2>
    3ae8: c8           	iny
    3ae9: b1 02        	lda	($2),y                  ; 0x2 <__rc0>
    3aeb: 85 05        	sta	$5                      ; 0x5 <__rc3>
    3aed: 20 58 57     	jsr	$5758 <asciitoscreencode_s>
    3af0: a2 34        	ldx	#$34
    3af2: 86 04        	stx	$4                      ; 0x4 <__rc2>
    3af4: a2 03        	ldx	#$3
    3af6: 86 05        	stx	$5                      ; 0x5 <__rc3>
    3af8: a2 17        	ldx	#$17
    3afa: a5 1a        	lda	$1a                     ; 0x1a <__rc24>
    3afc: 20 2e 5f     	jsr	$5f2e <cputsxy>
    3aff: 18           	clc
    3b00: a5 1b        	lda	$1b                     ; 0x1b <__rc25>
    3b02: 69 44        	adc	#$44
    3b04: 85 04        	sta	$4                      ; 0x4 <__rc2>
    3b06: a5 1d        	lda	$1d                     ; 0x1d <__rc27>
    3b08: 69 00        	adc	#$0
    3b0a: 85 05        	sta	$5                      ; 0x5 <__rc3>
    3b0c: a0 44        	ldy	#$44
    3b0e: b1 18        	lda	($18),y                 ; 0x18 <__rc22>
    3b10: 85 07        	sta	$7                      ; 0x7 <__rc5>
    3b12: a0 01        	ldy	#$1
    3b14: b1 04        	lda	($4),y                  ; 0x4 <__rc2>
    3b16: 64 04        	stz	$4                      ; 0x4 <__rc2>
    3b18: 64 05        	stz	$5                      ; 0x5 <__rc3>
    3b1a: 64 06        	stz	$6                      ; 0x6 <__rc4>
    3b1c: aa           	tax
    3b1d: a5 07        	lda	$7                      ; 0x7 <__rc5>
    3b1f: 20 a1 56     	jsr	$56a1 <csputdec>
    3b22: a2 76        	ldx	#$76
    3b24: 86 04        	stx	$4                      ; 0x4 <__rc2>
    3b26: a2 65        	ldx	#$65
    3b28: 86 05        	stx	$5                      ; 0x5 <__rc3>
    3b2a: 20 58 57     	jsr	$5758 <asciitoscreencode_s>
    3b2d: a5 56        	lda	$56                     ; 0x56 <g_curX>
    3b2f: a6 57        	ldx	$57                     ; 0x57 <g_curY>
    3b31: a0 34        	ldy	#$34
    3b33: 84 04        	sty	$4                      ; 0x4 <__rc2>
    3b35: a0 03        	ldy	#$3
    3b37: 84 05        	sty	$5                      ; 0x5 <__rc3>
    3b39: 20 2e 5f     	jsr	$5f2e <cputsxy>
    3b3c: a9 df        	lda	#$df
    3b3e: 25 35        	and	$35                     ; 0x35 <g_curTextColor>
    3b40: 85 35        	sta	$35                     ; 0x35 <g_curTextColor>
    3b42: a0 01        	ldy	#$1
    3b44: b1 18        	lda	($18),y                 ; 0x18 <__rc22>
    3b46: 85 1a        	sta	$1a                     ; 0x1a <__rc24>
    3b48: c9 15        	cmp	#$15
    3b4a: 64 1b        	stz	$1b                     ; 0x1b <__rc25>
    3b4c: 90 0b        	bcc	$3b59 <main+0x5d3>
    3b4e: 18           	clc
    3b4f: 69 eb        	adc	#$eb
    3b51: 85 16        	sta	$16                     ; 0x16 <__rc20>
    3b53: a9 00        	lda	#$0
    3b55: 69 ff        	adc	#$ff
    3b57: 85 1b        	sta	$1b                     ; 0x1b <__rc25>
    3b59: a5 1c        	lda	$1c                     ; 0x1c <__rc26>
    3b5b: 09 01        	ora	#$1
    3b5d: a0 1a        	ldy	#$1a
    3b5f: 91 02        	sta	($2),y                  ; 0x2 <__rc0>
    3b61: a2 00        	ldx	#$0
    3b63: 64 1c        	stz	$1c                     ; 0x1c <__rc26>
    3b65: 86 1f        	stx	$1f                     ; 0x1f <__rc29>
    3b67: 8a           	txa
    3b68: 18           	clc
    3b69: 65 16        	adc	$16                     ; 0x16 <__rc20>
    3b6b: a2 01        	ldx	#$1
    3b6d: b0 02        	bcs	$3b71 <main+0x5eb>
    3b6f: a2 00        	ldx	#$0
    3b71: 86 1d        	stx	$1d                     ; 0x1d <__rc27>
    3b73: 85 20        	sta	$20                     ; 0x20 <__rc30>
    3b75: aa           	tax
    3b76: a5 17        	lda	$17                     ; 0x17 <__rc21>
    3b78: 20 bc 53     	jsr	$53bc <getdirententry>
    3b7b: a6 04        	ldx	$4                      ; 0x4 <__rc2>
    3b7d: 86 18        	stx	$18                     ; 0x18 <__rc22>
    3b7f: a6 05        	ldx	$5                      ; 0x5 <__rc3>
    3b81: 86 19        	stx	$19                     ; 0x19 <__rc23>
    3b83: a6 19        	ldx	$19                     ; 0x19 <__rc23>
    3b85: a0 00        	ldy	#$0
    3b87: 84 04        	sty	$4                      ; 0x4 <__rc2>
    3b89: a0 00        	ldy	#$0
    3b8b: 84 05        	sty	$5                      ; 0x5 <__rc3>
    3b8d: e4 05        	cpx	$5                      ; 0x5 <__rc3>
    3b8f: d0 09        	bne	$3b9a <main+0x614>
    3b91: a6 18        	ldx	$18                     ; 0x18 <__rc22>
    3b93: e4 04        	cpx	$4                      ; 0x4 <__rc2>
    3b95: d0 03        	bne	$3b9a <main+0x614>
    3b97: 4c 23 39     	jmp	$3923 <main+0x39d>
    3b9a: a5 1c        	lda	$1c                     ; 0x1c <__rc26>
    3b9c: a6 1d        	ldx	$1d                     ; 0x1d <__rc27>
    3b9e: e0 01        	cpx	#$1
    3ba0: 65 1b        	adc	$1b                     ; 0x1b <__rc25>
    3ba2: 85 21        	sta	$21                     ; 0x21 <__rc31>
    3ba4: f0 03        	beq	$3ba9 <main+0x623>
    3ba6: 4c 45 37     	jmp	$3745 <main+0x1bf>
    3ba9: a6 20        	ldx	$20                     ; 0x20 <__rc30>
    3bab: e4 1a        	cpx	$1a                     ; 0x1a <__rc24>
    3bad: f0 03        	beq	$3bb2 <main+0x62c>
    3baf: 4c 45 37     	jmp	$3745 <main+0x1bf>
    3bb2: a9 00        	lda	#$0
    3bb4: 4c 47 37     	jmp	$3747 <main+0x1c1>
    3bb7: a5 16        	lda	$16                     ; 0x16 <__rc20>
    3bb9: 29 d0        	and	#$d0
    3bbb: 09 01        	ora	#$1
    3bbd: 85 35        	sta	$35                     ; 0x35 <g_curTextColor>
    3bbf: a2 53        	ldx	#$53
    3bc1: 86 04        	stx	$4                      ; 0x4 <__rc2>
    3bc3: a2 65        	ldx	#$65
    3bc5: 86 05        	stx	$5                      ; 0x5 <__rc3>
    3bc7: 20 58 57     	jsr	$5758 <asciitoscreencode_s>
    3bca: a2 34        	ldx	#$34
    3bcc: 86 04        	stx	$4                      ; 0x4 <__rc2>
    3bce: a2 03        	ldx	#$3
    3bd0: 86 05        	stx	$5                      ; 0x5 <__rc3>
    3bd2: a2 18        	ldx	#$18
    3bd4: a9 00        	lda	#$0
    3bd6: 20 2e 5f     	jsr	$5f2e <cputsxy>
    3bd9: a9 d0        	lda	#$d0
    3bdb: 25 35        	and	$35                     ; 0x35 <g_curTextColor>
    3bdd: 09 2c        	ora	#$2c
    3bdf: 85 35        	sta	$35                     ; 0x35 <g_curTextColor>
    3be1: a2 55        	ldx	#$55
    3be3: 86 04        	stx	$4                      ; 0x4 <__rc2>
    3be5: a2 65        	ldx	#$65
    3be7: 86 05        	stx	$5                      ; 0x5 <__rc3>
    3be9: 20 58 57     	jsr	$5758 <asciitoscreencode_s>
    3bec: a5 56        	lda	$56                     ; 0x56 <g_curX>
    3bee: a6 57        	ldx	$57                     ; 0x57 <g_curY>
    3bf0: a0 34        	ldy	#$34
    3bf2: 84 04        	sty	$4                      ; 0x4 <__rc2>
    3bf4: a0 03        	ldy	#$3
    3bf6: 84 05        	sty	$5                      ; 0x5 <__rc3>
    3bf8: 20 2e 5f     	jsr	$5f2e <cputsxy>
    3bfb: a9 d0        	lda	#$d0
    3bfd: 25 35        	and	$35                     ; 0x35 <g_curTextColor>
    3bff: 09 01        	ora	#$1
    3c01: 85 35        	sta	$35                     ; 0x35 <g_curTextColor>
    3c03: a2 9e        	ldx	#$9e
    3c05: 86 04        	stx	$4                      ; 0x4 <__rc2>
    3c07: a2 64        	ldx	#$64
    3c09: 86 05        	stx	$5                      ; 0x5 <__rc3>
    3c0b: 20 58 57     	jsr	$5758 <asciitoscreencode_s>
    3c0e: a5 56        	lda	$56                     ; 0x56 <g_curX>
    3c10: a6 57        	ldx	$57                     ; 0x57 <g_curY>
    3c12: a0 34        	ldy	#$34
    3c14: 84 04        	sty	$4                      ; 0x4 <__rc2>
    3c16: a0 03        	ldy	#$3
    3c18: 84 05        	sty	$5                      ; 0x5 <__rc3>
    3c1a: 20 2e 5f     	jsr	$5f2e <cputsxy>
    3c1d: a9 d0        	lda	#$d0
    3c1f: 25 35        	and	$35                     ; 0x35 <g_curTextColor>
    3c21: 09 23        	ora	#$23
    3c23: 85 35        	sta	$35                     ; 0x35 <g_curTextColor>
    3c25: a2 80        	ldx	#$80
    3c27: 86 04        	stx	$4                      ; 0x4 <__rc2>
    3c29: a2 64        	ldx	#$64
    3c2b: 86 05        	stx	$5                      ; 0x5 <__rc3>
    3c2d: 20 58 57     	jsr	$5758 <asciitoscreencode_s>
    3c30: a5 56        	lda	$56                     ; 0x56 <g_curX>
    3c32: a6 57        	ldx	$57                     ; 0x57 <g_curY>
    3c34: a0 34        	ldy	#$34
    3c36: 84 04        	sty	$4                      ; 0x4 <__rc2>
    3c38: a0 03        	ldy	#$3
    3c3a: 84 05        	sty	$5                      ; 0x5 <__rc3>
    3c3c: 20 2e 5f     	jsr	$5f2e <cputsxy>
    3c3f: a9 d0        	lda	#$d0
    3c41: 25 35        	and	$35                     ; 0x35 <g_curTextColor>
    3c43: 09 01        	ora	#$1
    3c45: 85 35        	sta	$35                     ; 0x35 <g_curTextColor>
    3c47: a2 5c        	ldx	#$5c
    3c49: 86 04        	stx	$4                      ; 0x4 <__rc2>
    3c4b: a2 65        	ldx	#$65
    3c4d: 86 05        	stx	$5                      ; 0x5 <__rc3>
    3c4f: 20 58 57     	jsr	$5758 <asciitoscreencode_s>
    3c52: a5 56        	lda	$56                     ; 0x56 <g_curX>
    3c54: a6 57        	ldx	$57                     ; 0x57 <g_curY>
    3c56: a0 34        	ldy	#$34
    3c58: 84 04        	sty	$4                      ; 0x4 <__rc2>
    3c5a: a0 03        	ldy	#$3
    3c5c: 84 05        	sty	$5                      ; 0x5 <__rc3>
    3c5e: 20 2e 5f     	jsr	$5f2e <cputsxy>
    3c61: a9 d0        	lda	#$d0
    3c63: 25 35        	and	$35                     ; 0x35 <g_curTextColor>
    3c65: 09 2c        	ora	#$2c
    3c67: 85 35        	sta	$35                     ; 0x35 <g_curTextColor>
    3c69: a2 a1        	ldx	#$a1
    3c6b: 86 04        	stx	$4                      ; 0x4 <__rc2>
    3c6d: a2 64        	ldx	#$64
    3c6f: 86 05        	stx	$5                      ; 0x5 <__rc3>
    3c71: 20 58 57     	jsr	$5758 <asciitoscreencode_s>
    3c74: a5 56        	lda	$56                     ; 0x56 <g_curX>
    3c76: a6 57        	ldx	$57                     ; 0x57 <g_curY>
    3c78: a0 34        	ldy	#$34
    3c7a: 84 04        	sty	$4                      ; 0x4 <__rc2>
    3c7c: a0 03        	ldy	#$3
    3c7e: 84 05        	sty	$5                      ; 0x5 <__rc3>
    3c80: 20 2e 5f     	jsr	$5f2e <cputsxy>
    3c83: a9 d0        	lda	#$d0
    3c85: 25 35        	and	$35                     ; 0x35 <g_curTextColor>
    3c87: 09 01        	ora	#$1
    3c89: 85 35        	sta	$35                     ; 0x35 <g_curTextColor>
    3c8b: a2 e7        	ldx	#$e7
    3c8d: 86 04        	stx	$4                      ; 0x4 <__rc2>
    3c8f: a2 64        	ldx	#$64
    3c91: 86 05        	stx	$5                      ; 0x5 <__rc3>
    3c93: 20 58 57     	jsr	$5758 <asciitoscreencode_s>
    3c96: a5 56        	lda	$56                     ; 0x56 <g_curX>
    3c98: a6 57        	ldx	$57                     ; 0x57 <g_curY>
    3c9a: a0 34        	ldy	#$34
    3c9c: 84 04        	sty	$4                      ; 0x4 <__rc2>
    3c9e: a0 03        	ldy	#$3
    3ca0: 84 05        	sty	$5                      ; 0x5 <__rc3>
    3ca2: 20 2e 5f     	jsr	$5f2e <cputsxy>
    3ca5: a9 d0        	lda	#$d0
    3ca7: 25 35        	and	$35                     ; 0x35 <g_curTextColor>
    3ca9: 09 2c        	ora	#$2c
    3cab: 85 35        	sta	$35                     ; 0x35 <g_curTextColor>
    3cad: a2 29        	ldx	#$29
    3caf: 86 04        	stx	$4                      ; 0x4 <__rc2>
    3cb1: a2 65        	ldx	#$65
    3cb3: 86 05        	stx	$5                      ; 0x5 <__rc3>
    3cb5: 20 58 57     	jsr	$5758 <asciitoscreencode_s>
    3cb8: a5 56        	lda	$56                     ; 0x56 <g_curX>
    3cba: a6 57        	ldx	$57                     ; 0x57 <g_curY>
    3cbc: a0 34        	ldy	#$34
    3cbe: 84 04        	sty	$4                      ; 0x4 <__rc2>
    3cc0: a0 03        	ldy	#$3
    3cc2: 84 05        	sty	$5                      ; 0x5 <__rc3>
    3cc4: 20 2e 5f     	jsr	$5f2e <cputsxy>
    3cc7: a9 d0        	lda	#$d0
    3cc9: 25 35        	and	$35                     ; 0x35 <g_curTextColor>
    3ccb: 09 01        	ora	#$1
    3ccd: 85 35        	sta	$35                     ; 0x35 <g_curTextColor>
    3ccf: a2 42        	ldx	#$42
    3cd1: 86 04        	stx	$4                      ; 0x4 <__rc2>
    3cd3: a2 64        	ldx	#$64
    3cd5: 86 05        	stx	$5                      ; 0x5 <__rc3>
    3cd7: 20 58 57     	jsr	$5758 <asciitoscreencode_s>
    3cda: a5 56        	lda	$56                     ; 0x56 <g_curX>
    3cdc: a6 57        	ldx	$57                     ; 0x57 <g_curY>
    3cde: a0 34        	ldy	#$34
    3ce0: 84 04        	sty	$4                      ; 0x4 <__rc2>
    3ce2: a0 03        	ldy	#$3
    3ce4: 84 05        	sty	$5                      ; 0x5 <__rc3>
    3ce6: 20 2e 5f     	jsr	$5f2e <cputsxy>
    3ce9: a9 d0        	lda	#$d0
    3ceb: 25 35        	and	$35                     ; 0x35 <g_curTextColor>
    3ced: 09 23        	ora	#$23
    3cef: 85 35        	sta	$35                     ; 0x35 <g_curTextColor>
    3cf1: a2 79        	ldx	#$79
    3cf3: 86 04        	stx	$4                      ; 0x4 <__rc2>
    3cf5: a2 64        	ldx	#$64
    3cf7: 86 05        	stx	$5                      ; 0x5 <__rc3>
    3cf9: 20 58 57     	jsr	$5758 <asciitoscreencode_s>
    3cfc: a5 56        	lda	$56                     ; 0x56 <g_curX>
    3cfe: a6 57        	ldx	$57                     ; 0x57 <g_curY>
    3d00: a0 34        	ldy	#$34
    3d02: 84 04        	sty	$4                      ; 0x4 <__rc2>
    3d04: a0 03        	ldy	#$3
    3d06: 84 05        	sty	$5                      ; 0x5 <__rc3>
    3d08: 20 2e 5f     	jsr	$5f2e <cputsxy>
    3d0b: a9 d0        	lda	#$d0
    3d0d: 25 35        	and	$35                     ; 0x35 <g_curTextColor>
    3d0f: 09 01        	ora	#$1
    3d11: 85 35        	sta	$35                     ; 0x35 <g_curTextColor>
    3d13: a2 db        	ldx	#$db
    3d15: 86 04        	stx	$4                      ; 0x4 <__rc2>
    3d17: a2 64        	ldx	#$64
    3d19: 86 05        	stx	$5                      ; 0x5 <__rc3>
    3d1b: 20 58 57     	jsr	$5758 <asciitoscreencode_s>
    3d1e: a5 56        	lda	$56                     ; 0x56 <g_curX>
    3d20: a6 57        	ldx	$57                     ; 0x57 <g_curY>
    3d22: a0 34        	ldy	#$34
    3d24: 84 04        	sty	$4                      ; 0x4 <__rc2>
    3d26: a0 03        	ldy	#$3
    3d28: 84 05        	sty	$5                      ; 0x5 <__rc3>
    3d2a: 20 2e 5f     	jsr	$5f2e <cputsxy>
    3d2d: a9 d0        	lda	#$d0
    3d2f: 25 35        	and	$35                     ; 0x35 <g_curTextColor>
    3d31: 09 2c        	ora	#$2c
    3d33: 85 35        	sta	$35                     ; 0x35 <g_curTextColor>
    3d35: a2 8e        	ldx	#$8e
    3d37: 86 04        	stx	$4                      ; 0x4 <__rc2>
    3d39: a2 65        	ldx	#$65
    3d3b: 86 05        	stx	$5                      ; 0x5 <__rc3>
    3d3d: 20 58 57     	jsr	$5758 <asciitoscreencode_s>
    3d40: a5 56        	lda	$56                     ; 0x56 <g_curX>
    3d42: a6 57        	ldx	$57                     ; 0x57 <g_curY>
    3d44: a0 34        	ldy	#$34
    3d46: 84 04        	sty	$4                      ; 0x4 <__rc2>
    3d48: a0 03        	ldy	#$3
    3d4a: 84 05        	sty	$5                      ; 0x5 <__rc3>
    3d4c: 20 2e 5f     	jsr	$5f2e <cputsxy>
    3d4f: a9 d0        	lda	#$d0
    3d51: 25 35        	and	$35                     ; 0x35 <g_curTextColor>
    3d53: 09 01        	ora	#$1
    3d55: 85 35        	sta	$35                     ; 0x35 <g_curTextColor>
    3d57: a2 8b        	ldx	#$8b
    3d59: 86 04        	stx	$4                      ; 0x4 <__rc2>
    3d5b: a2 65        	ldx	#$65
    3d5d: 86 05        	stx	$5                      ; 0x5 <__rc3>
    3d5f: 20 58 57     	jsr	$5758 <asciitoscreencode_s>
    3d62: a5 56        	lda	$56                     ; 0x56 <g_curX>
    3d64: a6 57        	ldx	$57                     ; 0x57 <g_curY>
    3d66: a0 34        	ldy	#$34
    3d68: 84 04        	sty	$4                      ; 0x4 <__rc2>
    3d6a: a0 03        	ldy	#$3
    3d6c: 84 05        	sty	$5                      ; 0x5 <__rc3>
    3d6e: 20 2e 5f     	jsr	$5f2e <cputsxy>
    3d71: a9 d0        	lda	#$d0
    3d73: 25 35        	and	$35                     ; 0x35 <g_curTextColor>
    3d75: 09 2c        	ora	#$2c
    3d77: 85 35        	sta	$35                     ; 0x35 <g_curTextColor>
    3d79: a2 4b        	ldx	#$4b
    3d7b: 86 04        	stx	$4                      ; 0x4 <__rc2>
    3d7d: a2 64        	ldx	#$64
    3d7f: 86 05        	stx	$5                      ; 0x5 <__rc3>
    3d81: 20 58 57     	jsr	$5758 <asciitoscreencode_s>
    3d84: a5 56        	lda	$56                     ; 0x56 <g_curX>
    3d86: a6 57        	ldx	$57                     ; 0x57 <g_curY>
    3d88: a0 34        	ldy	#$34
    3d8a: 84 04        	sty	$4                      ; 0x4 <__rc2>
    3d8c: a0 03        	ldy	#$3
    3d8e: 84 05        	sty	$5                      ; 0x5 <__rc3>
    3d90: 20 2e 5f     	jsr	$5f2e <cputsxy>
    3d93: a9 d0        	lda	#$d0
    3d95: 25 35        	and	$35                     ; 0x35 <g_curTextColor>
    3d97: 09 01        	ora	#$1
    3d99: 85 35        	sta	$35                     ; 0x35 <g_curTextColor>
    3d9b: a2 fa        	ldx	#$fa
    3d9d: 86 04        	stx	$4                      ; 0x4 <__rc2>
    3d9f: a2 65        	ldx	#$65
    3da1: 86 05        	stx	$5                      ; 0x5 <__rc3>
    3da3: 20 58 57     	jsr	$5758 <asciitoscreencode_s>
    3da6: a5 56        	lda	$56                     ; 0x56 <g_curX>
    3da8: a6 57        	ldx	$57                     ; 0x57 <g_curY>
    3daa: a0 34        	ldy	#$34
    3dac: 84 04        	sty	$4                      ; 0x4 <__rc2>
    3dae: a0 03        	ldy	#$3
    3db0: 84 05        	sty	$5                      ; 0x5 <__rc3>
    3db2: 20 2e 5f     	jsr	$5f2e <cputsxy>
    3db5: a9 d0        	lda	#$d0
    3db7: 25 35        	and	$35                     ; 0x35 <g_curTextColor>
    3db9: 09 23        	ora	#$23
    3dbb: 85 35        	sta	$35                     ; 0x35 <g_curTextColor>
    3dbd: a2 84        	ldx	#$84
    3dbf: 86 04        	stx	$4                      ; 0x4 <__rc2>
    3dc1: a2 65        	ldx	#$65
    3dc3: 86 05        	stx	$5                      ; 0x5 <__rc3>
    3dc5: 20 58 57     	jsr	$5758 <asciitoscreencode_s>
    3dc8: a5 56        	lda	$56                     ; 0x56 <g_curX>
    3dca: a6 57        	ldx	$57                     ; 0x57 <g_curY>
    3dcc: a0 34        	ldy	#$34
    3dce: 84 04        	sty	$4                      ; 0x4 <__rc2>
    3dd0: a0 03        	ldy	#$3
    3dd2: 84 05        	sty	$5                      ; 0x5 <__rc3>
    3dd4: 20 2e 5f     	jsr	$5f2e <cputsxy>
    3dd7: a9 d0        	lda	#$d0
    3dd9: 25 35        	and	$35                     ; 0x35 <g_curTextColor>
    3ddb: 09 01        	ora	#$1
    3ddd: 85 35        	sta	$35                     ; 0x35 <g_curTextColor>
    3ddf: a2 73        	ldx	#$73
    3de1: 86 04        	stx	$4                      ; 0x4 <__rc2>
    3de3: a2 65        	ldx	#$65
    3de5: 86 05        	stx	$5                      ; 0x5 <__rc3>
    3de7: 20 58 57     	jsr	$5758 <asciitoscreencode_s>
    3dea: a5 56        	lda	$56                     ; 0x56 <g_curX>
    3dec: a6 57        	ldx	$57                     ; 0x57 <g_curY>
    3dee: a0 34        	ldy	#$34
    3df0: 84 04        	sty	$4                      ; 0x4 <__rc2>
    3df2: a0 03        	ldy	#$3
    3df4: 84 05        	sty	$5                      ; 0x5 <__rc3>
    3df6: 20 2e 5f     	jsr	$5f2e <cputsxy>
    3df9: a9 d0        	lda	#$d0
    3dfb: 25 35        	and	$35                     ; 0x35 <g_curTextColor>
    3dfd: 09 2c        	ora	#$2c
    3dff: 85 35        	sta	$35                     ; 0x35 <g_curTextColor>
    3e01: a2 c4        	ldx	#$c4
    3e03: 86 04        	stx	$4                      ; 0x4 <__rc2>
    3e05: a2 65        	ldx	#$65
    3e07: 86 05        	stx	$5                      ; 0x5 <__rc3>
    3e09: 20 58 57     	jsr	$5758 <asciitoscreencode_s>
    3e0c: a5 56        	lda	$56                     ; 0x56 <g_curX>
    3e0e: a6 57        	ldx	$57                     ; 0x57 <g_curY>
    3e10: a0 34        	ldy	#$34
    3e12: 84 04        	sty	$4                      ; 0x4 <__rc2>
    3e14: a0 03        	ldy	#$3
    3e16: 84 05        	sty	$5                      ; 0x5 <__rc3>
    3e18: 20 2e 5f     	jsr	$5f2e <cputsxy>
    3e1b: a9 d0        	lda	#$d0
    3e1d: 25 35        	and	$35                     ; 0x35 <g_curTextColor>
    3e1f: 09 01        	ora	#$1
    3e21: 85 35        	sta	$35                     ; 0x35 <g_curTextColor>
    3e23: a2 45        	ldx	#$45
    3e25: 86 04        	stx	$4                      ; 0x4 <__rc2>
    3e27: a2 64        	ldx	#$64
    3e29: 86 05        	stx	$5                      ; 0x5 <__rc3>
    3e2b: 20 58 57     	jsr	$5758 <asciitoscreencode_s>
    3e2e: a5 56        	lda	$56                     ; 0x56 <g_curX>
    3e30: a6 57        	ldx	$57                     ; 0x57 <g_curY>
    3e32: a0 34        	ldy	#$34
    3e34: 84 04        	sty	$4                      ; 0x4 <__rc2>
    3e36: a0 03        	ldy	#$3
    3e38: 84 05        	sty	$5                      ; 0x5 <__rc3>
    3e3a: 20 2e 5f     	jsr	$5f2e <cputsxy>
    3e3d: a9 d0        	lda	#$d0
    3e3f: 25 35        	and	$35                     ; 0x35 <g_curTextColor>
    3e41: 09 23        	ora	#$23
    3e43: 85 35        	sta	$35                     ; 0x35 <g_curTextColor>
    3e45: a2 fd        	ldx	#$fd
    3e47: 86 04        	stx	$4                      ; 0x4 <__rc2>
    3e49: a2 65        	ldx	#$65
    3e4b: 86 05        	stx	$5                      ; 0x5 <__rc3>
    3e4d: 20 58 57     	jsr	$5758 <asciitoscreencode_s>
    3e50: a5 56        	lda	$56                     ; 0x56 <g_curX>
    3e52: a6 57        	ldx	$57                     ; 0x57 <g_curY>
    3e54: a0 34        	ldy	#$34
    3e56: 84 16        	sty	$16                     ; 0x16 <__rc20>
    3e58: a0 03        	ldy	#$3
    3e5a: 84 17        	sty	$17                     ; 0x17 <__rc21>
    3e5c: a0 34        	ldy	#$34
    3e5e: 84 04        	sty	$4                      ; 0x4 <__rc2>
    3e60: a0 03        	ldy	#$3
    3e62: 84 05        	sty	$5                      ; 0x5 <__rc3>
    3e64: 20 2e 5f     	jsr	$5f2e <cputsxy>
    3e67: a9 d0        	lda	#$d0
    3e69: 25 35        	and	$35                     ; 0x35 <g_curTextColor>
    3e6b: 09 03        	ora	#$3
    3e6d: 85 35        	sta	$35                     ; 0x35 <g_curTextColor>
    3e6f: 64 56        	stz	$56                     ; 0x56 <g_curX>
    3e71: 64 57        	stz	$57                     ; 0x57 <g_curY>
    3e73: ad 10 d6     	lda	$d610                   ; 0xd610 <__heap_start+0x6826>
    3e76: f0 fb        	beq	$3e73 <main+0x8ed>
    3e78: 85 18        	sta	$18                     ; 0x18 <__rc22>
    3e7a: 38           	sec
    3e7b: e9 f1        	sbc	#$f1
    3e7d: 9c 10 d6     	stz	$d610                   ; 0xd610 <__heap_start+0x6826>
    3e80: c9 22        	cmp	#$22
    3e82: b0 32        	bcs	$3eb6 <main+0x930>
    3e84: aa           	tax
    3e85: bc 6c 63     	ldy	$636c,x                 ; 0x636c <__zp_data_load_start+0x4355>
    3e88: bd 8e 63     	lda	$638e,x                 ; 0x638e <__zp_data_load_start+0x4377>
    3e8b: aa           	tax
    3e8c: 84 04        	sty	$4                      ; 0x4 <__rc2>
    3e8e: 86 05        	stx	$5                      ; 0x5 <__rc3>
    3e90: 6c 04 00     	jmp	($4)                    ; 0x4 <__rc2>
    3e93: a2 fa        	ldx	#$fa
    3e95: 86 04        	stx	$4                      ; 0x4 <__rc2>
    3e97: a2 64        	ldx	#$64
    3e99: 86 05        	stx	$5                      ; 0x5 <__rc3>
    3e9b: a2 95        	ldx	#$95
    3e9d: 86 06        	stx	$6                      ; 0x6 <__rc4>
    3e9f: a2 65        	ldx	#$65
    3ea1: 86 07        	stx	$7                      ; 0x7 <__rc5>
    3ea3: a0 1e        	ldy	#$1e
    3ea5: b1 02        	lda	($2),y                  ; 0x2 <__rc0>
    3ea7: 85 08        	sta	$8                      ; 0x8 <__rc6>
    3ea9: c8           	iny
    3eaa: b1 02        	lda	($2),y                  ; 0x2 <__rc0>
    3eac: 85 09        	sta	$9                      ; 0x9 <__rc7>
    3eae: a9 00        	lda	#$0
    3eb0: 20 cf 5a     	jsr	$5acf <messagebox>
    3eb3: 4c 40 37     	jmp	$3740 <main+0x1ba>
    3eb6: a6 18        	ldx	$18                     ; 0x18 <__rc22>
    3eb8: e0 5f        	cpx	#$5f
    3eba: d0 03        	bne	$3ebf <main+0x939>
    3ebc: 4c 14 41     	jmp	$4114 <main+0xb8e>
    3ebf: e0 9d        	cpx	#$9d
    3ec1: d0 03        	bne	$3ec6 <main+0x940>
    3ec3: 4c 14 41     	jmp	$4114 <main+0xb8e>
    3ec6: e0 1d        	cpx	#$1d
    3ec8: d0 03        	bne	$3ecd <main+0x947>
    3eca: 4c 34 45     	jmp	$4534 <donehyp0att5+0x1af>
    3ecd: e0 1f        	cpx	#$1f
    3ecf: f0 c2        	beq	$3e93 <main+0x90d>
    3ed1: a6 18        	ldx	$18                     ; 0x18 <__rc22>
    3ed3: e0 91        	cpx	#$91
    3ed5: f0 03        	beq	$3eda <main+0x954>
    3ed7: 4c 1f 42     	jmp	$421f <donehypreaddir0+0x42>
    3eda: a0 19        	ldy	#$19
    3edc: b1 02        	lda	($2),y                  ; 0x2 <__rc0>
    3ede: 0a           	asl
    3edf: 85 04        	sta	$4                      ; 0x4 <__rc2>
    3ee1: a9 00        	lda	#$0
    3ee3: 2a           	rol
    3ee4: 85 05        	sta	$5                      ; 0x5 <__rc3>
    3ee6: a9 31        	lda	#$31
    3ee8: 18           	clc
    3ee9: 65 04        	adc	$4                      ; 0x4 <__rc2>
    3eeb: 85 06        	sta	$6                      ; 0x6 <__rc4>
    3eed: a9 00        	lda	#$0
    3eef: 65 05        	adc	$5                      ; 0x5 <__rc3>
    3ef1: 85 07        	sta	$7                      ; 0x7 <__rc5>
    3ef3: b2 06        	lda	($6),z                  ; 0x6 <__rc4>
    3ef5: 85 04        	sta	$4                      ; 0x4 <__rc2>
    3ef7: a0 01        	ldy	#$1
    3ef9: b1 06        	lda	($6),y                  ; 0x6 <__rc4>
    3efb: 85 05        	sta	$5                      ; 0x5 <__rc3>
    3efd: b1 04        	lda	($4),y                  ; 0x4 <__rc2>
    3eff: d0 03        	bne	$3f04 <main+0x97e>
    3f01: 4c 40 37     	jmp	$3740 <main+0x1ba>
    3f04: 3a           	dec
    3f05: 91 04        	sta	($4),y                  ; 0x4 <__rc2>
    3f07: 4c 40 37     	jmp	$3740 <main+0x1ba>
    3f0a: a0 19        	ldy	#$19
    3f0c: b1 02        	lda	($2),y                  ; 0x2 <__rc0>
    3f0e: 85 06        	sta	$6                      ; 0x6 <__rc4>
    3f10: 0a           	asl
    3f11: 85 04        	sta	$4                      ; 0x4 <__rc2>
    3f13: a9 00        	lda	#$0
    3f15: 2a           	rol
    3f16: 85 05        	sta	$5                      ; 0x5 <__rc3>
    3f18: a9 31        	lda	#$31
    3f1a: 18           	clc
    3f1b: 65 04        	adc	$4                      ; 0x4 <__rc2>
    3f1d: 85 04        	sta	$4                      ; 0x4 <__rc2>
    3f1f: a9 00        	lda	#$0
    3f21: 65 05        	adc	$5                      ; 0x5 <__rc3>
    3f23: 85 05        	sta	$5                      ; 0x5 <__rc3>
    3f25: b2 04        	lda	($4),z                  ; 0x4 <__rc2>
    3f27: 85 1e        	sta	$1e                     ; 0x1e <__rc28>
    3f29: a0 01        	ldy	#$1
    3f2b: b1 04        	lda	($4),y                  ; 0x4 <__rc2>
    3f2d: 85 1f        	sta	$1f                     ; 0x1f <__rc29>
    3f2f: b1 1e        	lda	($1e),y                 ; 0x1e <__rc28>
    3f31: aa           	tax
    3f32: a5 06        	lda	$6                      ; 0x6 <__rc4>
    3f34: 20 bc 53     	jsr	$53bc <getdirententry>
    3f37: a0 02        	ldy	#$2
    3f39: b1 04        	lda	($4),y                  ; 0x4 <__rc2>
    3f3b: aa           	tax
    3f3c: 29 0f        	and	#$f
    3f3e: c9 05        	cmp	#$5
    3f40: d0 03        	bne	$3f45 <main+0x9bf>
    3f42: 4c 40 37     	jmp	$3740 <main+0x1ba>
    3f45: 8a           	txa
    3f46: d0 03        	bne	$3f4b <main+0x9c5>
    3f48: 4c 40 37     	jmp	$3740 <main+0x1ba>
    3f4b: a6 18        	ldx	$18                     ; 0x18 <__rc22>
    3f4d: e0 f5        	cpx	#$f5
    3f4f: f0 03        	beq	$3f54 <main+0x9ce>
    3f51: 4c 9c 45     	jmp	$459c <donehyp0att5+0x217>
    3f54: b2 1e        	lda	($1e),z                 ; 0x1e <__rc28>
    3f56: aa           	tax
    3f57: a0 03        	ldy	#$3
    3f59: b1 04        	lda	($4),y                  ; 0x4 <__rc2>
    3f5b: 85 08        	sta	$8                      ; 0x8 <__rc6>
    3f5d: c8           	iny
    3f5e: 5a           	phy
    3f5f: a5 04        	lda	$4                      ; 0x4 <__rc2>
    3f61: a0 1a        	ldy	#$1a
    3f63: 91 02        	sta	($2),y                  ; 0x2 <__rc0>
    3f65: a5 05        	lda	$5                      ; 0x5 <__rc3>
    3f67: c8           	iny
    3f68: 91 02        	sta	($2),y                  ; 0x2 <__rc0>
    3f6a: 7a           	ply
    3f6b: b1 04        	lda	($4),y                  ; 0x4 <__rc2>
    3f6d: 64 18        	stz	$18                     ; 0x18 <__rc22>
    3f6f: 86 07        	stx	$7                      ; 0x7 <__rc5>
    3f71: 64 04        	stz	$4                      ; 0x4 <__rc2>
    3f73: a2 08        	ldx	#$8
    3f75: 86 05        	stx	$5                      ; 0x5 <__rc3>
    3f77: a2 c7        	ldx	#$c7
    3f79: 86 06        	stx	$6                      ; 0x6 <__rc4>
    3f7b: 85 09        	sta	$9                      ; 0x9 <__rc7>
    3f7d: a2 20        	ldx	#$20
    3f7f: a9 00        	lda	#$0
    3f81: 20 55 4f     	jsr	$4f55 <readblockchain>
    3f84: a2 01        	ldx	#$1
    3f86: a0 19        	ldy	#$19
    3f88: b1 02        	lda	($2),y                  ; 0x2 <__rc0>
    3f8a: f0 03        	beq	$3f8f <main+0xa09>
    3f8c: 4c 37 4b     	jmp	$4b37 <donehypclosedir6+0xb>
    3f8f: a5 1e        	lda	$1e                     ; 0x1e <__rc28>
    3f91: a0 14        	ldy	#$14
    3f93: 91 02        	sta	($2),y                  ; 0x2 <__rc0>
    3f95: a5 1f        	lda	$1f                     ; 0x1f <__rc29>
    3f97: c8           	iny
    3f98: 91 02        	sta	($2),y                  ; 0x2 <__rc0>
    3f9a: a0 01        	ldy	#$1
    3f9c: 8a           	txa
    3f9d: d0 03        	bne	$3fa2 <main+0xa1c>
    3f9f: 4c 3c 4b     	jmp	$4b3c <donehypclosedir6+0x10>
    3fa2: a2 00        	ldx	#$0
    3fa4: 84 16        	sty	$16                     ; 0x16 <__rc20>
    3fa6: 98           	tya
    3fa7: 20 f2 4e     	jsr	$4ef2 <GetBAM>
    3faa: 06 16        	asl	$16                     ; 0x16 <__rc20>
    3fac: 26 18        	rol	$18                     ; 0x18 <__rc22>
    3fae: a6 16        	ldx	$16                     ; 0x16 <__rc20>
    3fb0: a9 31        	lda	#$31
    3fb2: 18           	clc
    3fb3: 65 16        	adc	$16                     ; 0x16 <__rc20>
    3fb5: 85 06        	sta	$6                      ; 0x6 <__rc4>
    3fb7: a9 00        	lda	#$0
    3fb9: 65 18        	adc	$18                     ; 0x18 <__rc22>
    3fbb: 18           	clc
    3fbc: 48           	pha
    3fbd: a5 02        	lda	$2                      ; 0x2 <__rc0>
    3fbf: 69 23        	adc	#$23
    3fc1: 85 18        	sta	$18                     ; 0x18 <__rc22>
    3fc3: a5 03        	lda	$3                      ; 0x3 <__rc1>
    3fc5: 69 00        	adc	#$0
    3fc7: 85 19        	sta	$19                     ; 0x19 <__rc23>
    3fc9: 18           	clc
    3fca: a5 02        	lda	$2                      ; 0x2 <__rc0>
    3fcc: 69 22        	adc	#$22
    3fce: 85 1a        	sta	$1a                     ; 0x1a <__rc24>
    3fd0: a5 03        	lda	$3                      ; 0x3 <__rc1>
    3fd2: 69 00        	adc	#$0
    3fd4: 85 1b        	sta	$1b                     ; 0x1b <__rc25>
    3fd6: 68           	pla
    3fd7: 85 07        	sta	$7                      ; 0x7 <__rc5>
    3fd9: a5 06        	lda	$6                      ; 0x6 <__rc4>
    3fdb: a0 0f        	ldy	#$f
    3fdd: 91 02        	sta	($2),y                  ; 0x2 <__rc0>
    3fdf: a5 07        	lda	$7                      ; 0x7 <__rc5>
    3fe1: c8           	iny
    3fe2: 91 02        	sta	($2),y                  ; 0x2 <__rc0>
    3fe4: b4 31        	ldy	$31,x                   ; 0x31 <midnight>
    3fe6: b5 32        	lda	$32,x                   ; 0x32 <midnight+0x1>
    3fe8: aa           	tax
    3fe9: 84 06        	sty	$6                      ; 0x6 <__rc4>
    3feb: 86 07        	stx	$7                      ; 0x7 <__rc5>
    3fed: a9 00        	lda	#$0
    3fef: 64 21        	stz	$21                     ; 0x21 <__rc31>
    3ff1: 92 18        	sta	($18),z                 ; 0x18 <__rc22>
    3ff3: 3a           	dec
    3ff4: aa           	tax
    3ff5: 48           	pha
    3ff6: 8a           	txa
    3ff7: a0 1d        	ldy	#$1d
    3ff9: 91 02        	sta	($2),y                  ; 0x2 <__rc0>
    3ffb: 68           	pla
    3ffc: 92 1a        	sta	($1a),z                 ; 0x1a <__rc24>
    3ffe: 64 37        	stz	$37                     ; 0x37 <BAMsector.0>
    4000: a2 16        	ldx	#$16
    4002: 86 38        	stx	$38                     ; 0x38 <BAMsector.0+0x1>
    4004: 64 39        	stz	$39                     ; 0x39 <BAMsector.1>
    4006: e8           	inx
    4007: 86 3a        	stx	$3a                     ; 0x3a <BAMsector.1+0x1>
    4009: 64 3b        	stz	$3b                     ; 0x3b <worksector.0>
    400b: e8           	inx
    400c: 86 3c        	stx	$3c                     ; 0x3c <worksector.0+0x1>
    400e: 64 3d        	stz	$3d                     ; 0x3d <worksectorasBAM.0>
    4010: 86 3e        	stx	$3e                     ; 0x3e <worksectorasBAM.0+0x1>
    4012: 64 3f        	stz	$3f                     ; 0x3f <direntryblock.0>
    4014: a2 1a        	ldx	#$1a
    4016: 86 40        	stx	$40                     ; 0x40 <direntryblock.0+0x1>
    4018: 64 41        	stz	$41                     ; 0x41 <direntryblock.1>
    401a: e8           	inx
    401b: 86 42        	stx	$42                     ; 0x42 <direntryblock.1+0x1>
    401d: a5 06        	lda	$6                      ; 0x6 <__rc4>
    401f: a0 16        	ldy	#$16
    4021: 91 02        	sta	($2),y                  ; 0x2 <__rc0>
    4023: a5 07        	lda	$7                      ; 0x7 <__rc5>
    4025: c8           	iny
    4026: 91 02        	sta	($2),y                  ; 0x2 <__rc0>
    4028: b2 06        	lda	($6),z                  ; 0x6 <__rc4>
    402a: a0 1c        	ldy	#$1c
    402c: 91 02        	sta	($2),y                  ; 0x2 <__rc0>
    402e: 9c 80 d0     	stz	$d080                   ; 0xd080 <__heap_start+0x6296>
    4031: a6 3b        	ldx	$3b                     ; 0x3b <worksector.0>
    4033: 86 16        	stx	$16                     ; 0x16 <__rc20>
    4035: 86 1c        	stx	$1c                     ; 0x1c <__rc26>
    4037: a6 3c        	ldx	$3c                     ; 0x3c <worksector.0+0x1>
    4039: 86 17        	stx	$17                     ; 0x17 <__rc21>
    403b: 86 1d        	stx	$1d                     ; 0x1d <__rc27>
    403d: 18           	clc
    403e: a5 02        	lda	$2                      ; 0x2 <__rc0>
    4040: 69 21        	adc	#$21
    4042: 85 1e        	sta	$1e                     ; 0x1e <__rc28>
    4044: a5 03        	lda	$3                      ; 0x3 <__rc1>
    4046: 69 00        	adc	#$0
    4048: 85 1f        	sta	$1f                     ; 0x1f <__rc29>
    404a: a6 1e        	ldx	$1e                     ; 0x1e <__rc28>
    404c: 86 04        	stx	$4                      ; 0x4 <__rc2>
    404e: 85 05        	sta	$5                      ; 0x5 <__rc3>
    4050: 18           	clc
    4051: a5 02        	lda	$2                      ; 0x2 <__rc0>
    4053: 69 20        	adc	#$20
    4055: 85 06        	sta	$6                      ; 0x6 <__rc4>
    4057: a5 03        	lda	$3                      ; 0x3 <__rc1>
    4059: 69 00        	adc	#$0
    405b: 85 07        	sta	$7                      ; 0x7 <__rc5>
    405d: a5 06        	lda	$6                      ; 0x6 <__rc4>
    405f: a0 12        	ldy	#$12
    4061: 91 02        	sta	($2),y                  ; 0x2 <__rc0>
    4063: a5 07        	lda	$7                      ; 0x7 <__rc5>
    4065: c8           	iny
    4066: 91 02        	sta	($2),y                  ; 0x2 <__rc0>
    4068: 20 c5 52     	jsr	$52c5 <findnextBAMtracksector>
    406b: b2 1e        	lda	($1e),z                 ; 0x1e <__rc28>
    406d: a2 00        	ldx	#$0
    406f: a0 18        	ldy	#$18
    4071: 91 02        	sta	($2),y                  ; 0x2 <__rc0>
    4073: 85 1e        	sta	$1e                     ; 0x1e <__rc28>
    4075: a0 12        	ldy	#$12
    4077: b1 02        	lda	($2),y                  ; 0x2 <__rc0>
    4079: 85 04        	sta	$4                      ; 0x4 <__rc2>
    407b: c8           	iny
    407c: b1 02        	lda	($2),y                  ; 0x2 <__rc0>
    407e: 85 05        	sta	$5                      ; 0x5 <__rc3>
    4080: b2 04        	lda	($4),z                  ; 0x4 <__rc2>
    4082: 88           	dey
    4083: 91 02        	sta	($2),y                  ; 0x2 <__rc0>
    4085: 85 1f        	sta	$1f                     ; 0x1f <__rc29>
    4087: 18           	clc
    4088: 86 20        	stx	$20                     ; 0x20 <__rc30>
    408a: 8a           	txa
    408b: 69 20        	adc	#$20
    408d: 85 0c        	sta	$c                      ; 0xc <__rc10>
    408f: a9 00        	lda	#$0
    4091: 69 00        	adc	#$0
    4093: 85 04        	sta	$4                      ; 0x4 <__rc2>
    4095: a9 00        	lda	#$0
    4097: 69 08        	adc	#$8
    4099: 85 05        	sta	$5                      ; 0x5 <__rc3>
    409b: a6 16        	ldx	$16                     ; 0x16 <__rc20>
    409d: 86 06        	stx	$6                      ; 0x6 <__rc4>
    409f: a6 17        	ldx	$17                     ; 0x17 <__rc21>
    40a1: 86 07        	stx	$7                      ; 0x7 <__rc5>
    40a3: 64 08        	stz	$8                      ; 0x8 <__rc6>
    40a5: 64 09        	stz	$9                      ; 0x9 <__rc7>
    40a7: 64 0a        	stz	$a                      ; 0xa <__rc8>
    40a9: a2 01        	ldx	#$1
    40ab: 86 0b        	stx	$b                      ; 0xb <__rc9>
    40ad: a6 0c        	ldx	$c                      ; 0xc <__rc10>
    40af: a9 00        	lda	#$0
    40b1: 20 0b 60     	jsr	$600b <lcopy>
    40b4: ae 00 18     	ldx	$1800                   ; 0x1800 <__bss_size+0x1049>
    40b7: f0 27        	beq	$40e0 <main+0xb5a>
    40b9: a6 18        	ldx	$18                     ; 0x18 <__rc22>
    40bb: 86 04        	stx	$4                      ; 0x4 <__rc2>
    40bd: a6 19        	ldx	$19                     ; 0x19 <__rc23>
    40bf: 86 05        	stx	$5                      ; 0x5 <__rc3>
    40c1: a6 1a        	ldx	$1a                     ; 0x1a <__rc24>
    40c3: 86 06        	stx	$6                      ; 0x6 <__rc4>
    40c5: a6 1b        	ldx	$1b                     ; 0x1b <__rc25>
    40c7: 86 07        	stx	$7                      ; 0x7 <__rc5>
    40c9: 20 c5 52     	jsr	$52c5 <findnextBAMtracksector>
    40cc: b2 18        	lda	($18),z                 ; 0x18 <__rc22>
    40ce: 8d 00 18     	sta	$1800                   ; 0x1800 <__bss_size+0x1049>
    40d1: b2 1a        	lda	($1a),z                 ; 0x1a <__rc24>
    40d3: 8d 01 18     	sta	$1801                   ; 0x1801 <__bss_size+0x104a>
    40d6: b2 18        	lda	($18),z                 ; 0x18 <__rc22>
    40d8: 85 21        	sta	$21                     ; 0x21 <__rc31>
    40da: b2 1a        	lda	($1a),z                 ; 0x1a <__rc24>
    40dc: a0 1d        	ldy	#$1d
    40de: 91 02        	sta	($2),y                  ; 0x2 <__rc0>
    40e0: a6 1c        	ldx	$1c                     ; 0x1c <__rc26>
    40e2: 86 04        	stx	$4                      ; 0x4 <__rc2>
    40e4: a6 1d        	ldx	$1d                     ; 0x1d <__rc27>
    40e6: 86 05        	stx	$5                      ; 0x5 <__rc3>
    40e8: a6 1f        	ldx	$1f                     ; 0x1f <__rc29>
    40ea: 86 06        	stx	$6                      ; 0x6 <__rc4>
    40ec: a6 1e        	ldx	$1e                     ; 0x1e <__rc28>
    40ee: a0 1c        	ldy	#$1c
    40f0: b1 02        	lda	($2),y                  ; 0x2 <__rc0>
    40f2: 20 6b 4e     	jsr	$4e6b <PutOneSector>
    40f5: ae 00 18     	ldx	$1800                   ; 0x1800 <__bss_size+0x1049>
    40f8: d0 03        	bne	$40fd <main+0xb77>
    40fa: 4c 1b 47     	jmp	$471b <donehyp0att5+0x396>
    40fd: a6 20        	ldx	$20                     ; 0x20 <__rc30>
    40ff: e8           	inx
    4100: a4 21        	ldy	$21                     ; 0x21 <__rc31>
    4102: 84 1e        	sty	$1e                     ; 0x1e <__rc28>
    4104: a0 1d        	ldy	#$1d
    4106: b1 02        	lda	($2),y                  ; 0x2 <__rc0>
    4108: 85 1f        	sta	$1f                     ; 0x1f <__rc29>
    410a: e0 c7        	cpx	#$c7
    410c: f0 03        	beq	$4111 <main+0xb8b>
    410e: 4c 87 40     	jmp	$4087 <main+0xb01>
    4111: 4c 41 4b     	jmp	$4b41 <donehypclosedir6+0x15>
    4114: a0 19        	ldy	#$19
    4116: b1 02        	lda	($2),y                  ; 0x2 <__rc0>
    4118: 0a           	asl
    4119: 85 04        	sta	$4                      ; 0x4 <__rc2>
    411b: a9 00        	lda	#$0
    411d: 2a           	rol
    411e: 85 05        	sta	$5                      ; 0x5 <__rc3>
    4120: a9 31        	lda	#$31
    4122: 18           	clc
    4123: 65 04        	adc	$4                      ; 0x4 <__rc2>
    4125: 85 06        	sta	$6                      ; 0x6 <__rc4>
    4127: a9 00        	lda	#$0
    4129: 65 05        	adc	$5                      ; 0x5 <__rc3>
    412b: 85 07        	sta	$7                      ; 0x7 <__rc5>
    412d: b2 06        	lda	($6),z                  ; 0x6 <__rc4>
    412f: 85 04        	sta	$4                      ; 0x4 <__rc2>
    4131: a0 01        	ldy	#$1
    4133: b1 06        	lda	($6),y                  ; 0x6 <__rc4>
    4135: 85 05        	sta	$5                      ; 0x5 <__rc3>
    4137: b1 04        	lda	($4),y                  ; 0x4 <__rc2>
    4139: d0 03        	bne	$413e <main+0xbb8>
    413b: 4c 40 37     	jmp	$3740 <main+0x1ba>
    413e: 18           	clc
    413f: 69 f6        	adc	#$f6
    4141: 91 04        	sta	($4),y                  ; 0x4 <__rc2>
    4143: 4c 40 37     	jmp	$3740 <main+0x1ba>
    4146: a0 00        	ldy	#$0
    4148: a2 00        	ldx	#$0
    414a: b9 41 1a     	lda	$1a41,y                 ; 0x1a41 <__bss_size+0x128a>
    414d: c9 20        	cmp	#$20
    414f: f0 0d        	beq	$415e <main+0xbd8>
    4151: c9 21        	cmp	#$21
    4153: 90 04        	bcc	$4159 <main+0xbd3>
    4155: 9d 41 1c     	sta	$1c41,x                 ; 0x1c41 <__bss_size+0x148a>
    4158: e8           	inx
    4159: c8           	iny
    415a: c0 08        	cpy	#$8
    415c: d0 ec        	bne	$414a <main+0xbc4>
    415e: a0 00        	ldy	#$0
    4160: a9 2e        	lda	#$2e
    4162: 9d 41 1c     	sta	$1c41,x                 ; 0x1c41 <__bss_size+0x148a>
    4165: e8           	inx
    4166: b9 49 1a     	lda	$1a49,y                 ; 0x1a49 <__bss_size+0x1292>
    4169: c9 20        	cmp	#$20
    416b: f0 0d        	beq	$417a <main+0xbf4>
    416d: c9 21        	cmp	#$21
    416f: 90 04        	bcc	$4175 <main+0xbef>
    4171: 9d 41 1c     	sta	$1c41,x                 ; 0x1c41 <__bss_size+0x148a>
    4174: e8           	inx
    4175: c8           	iny
    4176: c0 03        	cpy	#$3
    4178: d0 ec        	bne	$4166 <main+0xbe0>
    417a: 9e 41 1c     	stz	$1c41,x                 ; 0x1c41 <__bss_size+0x148a>
    417d: a2 41        	ldx	#$41
    417f: 86 04        	stx	$4                      ; 0x4 <__rc2>
    4181: 64 05        	stz	$5                      ; 0x5 <__rc3>
    4183: a2 00        	ldx	#$0
    4185: a4 06        	ldy	$6                      ; 0x6 <__rc4>
    4187: 84 18        	sty	$18                     ; 0x18 <__rc22>
    4189: a5 06        	lda	$6                      ; 0x6 <__rc4>
    418b: 20 a4 61     	jsr	$61a4 <__mulhi3>
    418e: 85 04        	sta	$4                      ; 0x4 <__rc2>
    4190: 86 05        	stx	$5                      ; 0x5 <__rc3>
    4192: a9 32        	lda	#$32
    4194: 18           	clc
    4195: 65 04        	adc	$4                      ; 0x4 <__rc2>
    4197: 85 04        	sta	$4                      ; 0x4 <__rc2>
    4199: a9 66        	lda	#$66
    419b: 65 05        	adc	$5                      ; 0x5 <__rc3>
    419d: 85 05        	sta	$5                      ; 0x5 <__rc3>
    419f: a2 00        	ldx	#$0
    41a1: 86 06        	stx	$6                      ; 0x6 <__rc4>
    41a3: a2 1a        	ldx	#$1a
    41a5: 86 07        	stx	$7                      ; 0x7 <__rc5>
    41a7: 20 0a 61     	jsr	$610a <strcpy>
    41aa: e6 17        	inc	$17                     ; 0x17 <__rc21>
    41ac: a5 18        	lda	$18                     ; 0x18 <__rc22>
    41ae: a6 18        	ldx	$18                     ; 0x18 <__rc22>
    41b0: e8           	inx
    41b1: c9 11        	cmp	#$11
    41b3: a5 16        	lda	$16                     ; 0x16 <__rc20>
    41b5: 90 03        	bcc	$41ba <main+0xc34>
    41b7: 4c 18 4b     	jmp	$4b18 <donehyp0att5+0x793>
    41ba: 86 06        	stx	$6                      ; 0x6 <__rc4>
    41bc: 85 16        	sta	$16                     ; 0x16 <__rc20>
    41be: a8           	tay
    41bf: da           	phx
    41c0: a2 00        	ldx	#$0
    41c2: 8a           	txa

000041c3 <hypreaddirloop0>:
    41c3: 9d 00 1a     	sta	$1a00,x                 ; 0x1a00 <__bss_size+0x1249>
    41c6: ca           	dex
    41c7: d0 fa        	bne	$41c3 <hypreaddirloop0>
    41c9: fa           	plx
    41ca: 98           	tya
    41cb: aa           	tax
    41cc: a0 1a        	ldy	#$1a
    41ce: a9 14        	lda	#$14
    41d0: 8d 40 d6     	sta	$d640                   ; 0xd640 <__heap_start+0x6856>
    41d3: b8           	clv
    41d4: 90 05        	bcc	$41db <errhypreaddir0>
    41d6: 86 04        	stx	$4                      ; 0x4 <__rc2>
    41d8: 4c dd 41     	jmp	$41dd <donehypreaddir0>

000041db <errhypreaddir0>:
    41db: 85 04        	sta	$4                      ; 0x4 <__rc2>

000041dd <donehypreaddir0>:
    41dd: ea           	nop
    41de: a4 04        	ldy	$4                      ; 0x4 <__rc2>
    41e0: ae 40 1a     	ldx	$1a40                   ; 0x1a40 <__bss_size+0x1289>
    41e3: 9e 00 1a     	stz	$1a00,x                 ; 0x1a00 <__bss_size+0x1249>
    41e6: c0 85        	cpy	#$85
    41e8: f0 07        	beq	$41f1 <donehypreaddir0+0x14>
    41ea: c0 ff        	cpy	#$ff
    41ec: f0 03        	beq	$41f1 <donehypreaddir0+0x14>
    41ee: 4c 46 41     	jmp	$4146 <main+0xbc0>
    41f1: a2 41        	ldx	#$41
    41f3: 86 04        	stx	$4                      ; 0x4 <__rc2>
    41f5: 64 05        	stz	$5                      ; 0x5 <__rc3>
    41f7: a2 00        	ldx	#$0
    41f9: a4 06        	ldy	$6                      ; 0x6 <__rc4>
    41fb: 84 18        	sty	$18                     ; 0x18 <__rc22>
    41fd: a5 06        	lda	$6                      ; 0x6 <__rc4>
    41ff: 20 a4 61     	jsr	$61a4 <__mulhi3>
    4202: 85 04        	sta	$4                      ; 0x4 <__rc2>
    4204: 86 05        	stx	$5                      ; 0x5 <__rc3>
    4206: a9 32        	lda	#$32
    4208: 18           	clc
    4209: 65 04        	adc	$4                      ; 0x4 <__rc2>
    420b: 85 04        	sta	$4                      ; 0x4 <__rc2>
    420d: a9 66        	lda	#$66
    420f: 65 05        	adc	$5                      ; 0x5 <__rc3>
    4211: 85 05        	sta	$5                      ; 0x5 <__rc3>
    4213: a9 20        	lda	#$20
    4215: 92 04        	sta	($4),z                  ; 0x4 <__rc2>
    4217: a0 01        	ldy	#$1
    4219: a9 00        	lda	#$0
    421b: 91 04        	sta	($4),y                  ; 0x4 <__rc2>
    421d: 80 8d        	bra	$41ac <main+0xc26>
    421f: a2 cb        	ldx	#$cb
    4221: 86 04        	stx	$4                      ; 0x4 <__rc2>
    4223: a2 65        	ldx	#$65
    4225: 86 05        	stx	$5                      ; 0x5 <__rc3>
    4227: 64 06        	stz	$6                      ; 0x6 <__rc4>
    4229: 64 07        	stz	$7                      ; 0x7 <__rc5>
    422b: a2 00        	ldx	#$0
    422d: a5 18        	lda	$18                     ; 0x18 <__rc22>
    422f: 20 47 58     	jsr	$5847 <mprintf>
    4232: a5 56        	lda	$56                     ; 0x56 <g_curX>
    4234: a6 57        	ldx	$57                     ; 0x57 <g_curY>
    4236: a0 20        	ldy	#$20
    4238: 84 04        	sty	$4                      ; 0x4 <__rc2>
    423a: 20 40 5e     	jsr	$5e40 <cputcxy>
    423d: 4c 40 37     	jmp	$3740 <main+0x1ba>
    4240: a2 00        	ldx	#$0
    4242: a9 04        	lda	#$4
    4244: 8d 40 d6     	sta	$d640                   ; 0xd640 <__heap_start+0x6856>
    4247: b8           	clv
    4248: 90 05        	bcc	$424f <errgetcurdrv1>
    424a: 85 04        	sta	$4                      ; 0x4 <__rc2>
    424c: 4c 53 42     	jmp	$4253 <donegetcurdrv1>

0000424f <errgetcurdrv1>:
    424f: a9 ff        	lda	#$ff
    4251: 85 04        	sta	$4                      ; 0x4 <__rc2>

00004253 <donegetcurdrv1>:
    4253: ea           	nop
    4254: a6 04        	ldx	$4                      ; 0x4 <__rc2>
    4256: 64 16        	stz	$16                     ; 0x16 <__rc20>
    4258: e0 ff        	cpx	#$ff
    425a: f0 25        	beq	$4281 <donehypopendir2+0x12>
    425c: a2 00        	ldx	#$0
    425e: a9 12        	lda	#$12
    4260: 8d 40 d6     	sta	$d640                   ; 0xd640 <__heap_start+0x6856>
    4263: b8           	clv
    4264: 90 05        	bcc	$426b <errhypopendir2>
    4266: 85 04        	sta	$4                      ; 0x4 <__rc2>
    4268: 4c 6f 42     	jmp	$426f <donehypopendir2>

0000426b <errhypopendir2>:
    426b: a9 ff        	lda	#$ff
    426d: 85 04        	sta	$4                      ; 0x4 <__rc2>

0000426f <donehypopendir2>:
    426f: ea           	nop
    4270: a5 04        	lda	$4                      ; 0x4 <__rc2>
    4272: c9 84        	cmp	#$84
    4274: f0 0b        	beq	$4281 <donehypopendir2+0x12>
    4276: c9 87        	cmp	#$87
    4278: f0 07        	beq	$4281 <donehypopendir2+0x12>
    427a: c9 ff        	cmp	#$ff
    427c: f0 03        	beq	$4281 <donehypopendir2+0x12>
    427e: 4c 30 4b     	jmp	$4b30 <donehypclosedir6+0x4>
    4281: a0 19        	ldy	#$19
    4283: b1 02        	lda	($2),y                  ; 0x2 <__rc0>
    4285: 0a           	asl
    4286: 85 04        	sta	$4                      ; 0x4 <__rc2>
    4288: a9 00        	lda	#$0
    428a: 2a           	rol
    428b: 85 05        	sta	$5                      ; 0x5 <__rc3>
    428d: a9 31        	lda	#$31
    428f: 18           	clc
    4290: 65 04        	adc	$4                      ; 0x4 <__rc2>
    4292: 85 1a        	sta	$1a                     ; 0x1a <__rc24>
    4294: a9 00        	lda	#$0
    4296: 65 05        	adc	$5                      ; 0x5 <__rc3>
    4298: 85 1b        	sta	$1b                     ; 0x1b <__rc25>
    429a: a9 00        	lda	#$0
    429c: 4c b0 43     	jmp	$43b0 <donehyp0att5+0x2b>
    429f: 09 20        	ora	#$20
    42a1: 4c 7a 44     	jmp	$447a <donehyp0att5+0xf5>
    42a4: a5 35        	lda	$35                     ; 0x35 <g_curTextColor>
    42a6: 29 df        	and	#$df
    42a8: 85 35        	sta	$35                     ; 0x35 <g_curTextColor>
    42aa: 20 6a 55     	jsr	$556a <cputln>
    42ad: ad 10 d6     	lda	$d610                   ; 0xd610 <__heap_start+0x6826>
    42b0: f0 fb        	beq	$42ad <donehypopendir2+0x3e>
    42b2: 9c 10 d6     	stz	$d610                   ; 0xd610 <__heap_start+0x6826>
    42b5: c9 91        	cmp	#$91
    42b7: d0 03        	bne	$42bc <donehypopendir2+0x4d>
    42b9: 4c 60 43     	jmp	$4360 <donehyp1att4+0x9>
    42bc: c9 0d        	cmp	#$d
    42be: f0 2f        	beq	$42ef <donehypopendir2+0x80>
    42c0: a6 17        	ldx	$17                     ; 0x17 <__rc21>
    42c2: 86 16        	stx	$16                     ; 0x16 <__rc20>
    42c4: c9 11        	cmp	#$11
    42c6: d0 03        	bne	$42cb <donehypopendir2+0x5c>
    42c8: 4c 5a 43     	jmp	$435a <donehyp1att4+0x3>
    42cb: c9 03        	cmp	#$3
    42cd: d0 03        	bne	$42d2 <donehypopendir2+0x63>
    42cf: 4c 40 37     	jmp	$3740 <main+0x1ba>
    42d2: c9 1b        	cmp	#$1b
    42d4: d0 03        	bne	$42d9 <donehypopendir2+0x6a>
    42d6: 4c 40 37     	jmp	$3740 <main+0x1ba>
    42d9: a2 cb        	ldx	#$cb
    42db: 86 04        	stx	$4                      ; 0x4 <__rc2>
    42dd: a2 65        	ldx	#$65
    42df: 86 05        	stx	$5                      ; 0x5 <__rc3>
    42e1: 64 06        	stz	$6                      ; 0x6 <__rc4>
    42e3: 64 07        	stz	$7                      ; 0x7 <__rc5>
    42e5: a2 00        	ldx	#$0
    42e7: 20 47 58     	jsr	$5847 <mprintf>
    42ea: a5 21        	lda	$21                     ; 0x21 <__rc31>
    42ec: 4c b0 43     	jmp	$43b0 <donehyp0att5+0x2b>
    42ef: b2 1c        	lda	($1c),z                 ; 0x1c <__rc26>
    42f1: 85 1c        	sta	$1c                     ; 0x1c <__rc26>
    42f3: a2 41        	ldx	#$41
    42f5: 86 04        	stx	$4                      ; 0x4 <__rc2>
    42f7: 64 05        	stz	$5                      ; 0x5 <__rc3>
    42f9: a2 00        	ldx	#$0
    42fb: a5 21        	lda	$21                     ; 0x21 <__rc31>
    42fd: 20 a4 61     	jsr	$61a4 <__mulhi3>
    4300: 85 04        	sta	$4                      ; 0x4 <__rc2>
    4302: 86 05        	stx	$5                      ; 0x5 <__rc3>
    4304: a9 32        	lda	#$32
    4306: 18           	clc
    4307: 65 04        	adc	$4                      ; 0x4 <__rc2>
    4309: 85 18        	sta	$18                     ; 0x18 <__rc22>
    430b: a9 66        	lda	#$66
    430d: 65 05        	adc	$5                      ; 0x5 <__rc3>
    430f: 85 19        	sta	$19                     ; 0x19 <__rc23>
    4311: a2 1c        	ldx	#$1c
    4313: 86 36        	stx	$36                     ; 0x36 <fnamehi>
    4315: a2 00        	ldx	#$0
    4317: 86 04        	stx	$4                      ; 0x4 <__rc2>
    4319: a2 1c        	ldx	#$1c
    431b: 86 05        	stx	$5                      ; 0x5 <__rc3>
    431d: a6 18        	ldx	$18                     ; 0x18 <__rc22>
    431f: 86 06        	stx	$6                      ; 0x6 <__rc4>
    4321: 85 07        	sta	$7                      ; 0x7 <__rc5>
    4323: 20 0a 61     	jsr	$610a <strcpy>
    4326: a4 36        	ldy	$36                     ; 0x36 <fnamehi>
    4328: a2 00        	ldx	#$0
    432a: a9 2e        	lda	#$2e
    432c: 8d 40 d6     	sta	$d640                   ; 0xd640 <__heap_start+0x6856>
    432f: b8           	clv
    4330: 90 07        	bcc	$4339 <errhypsetnam3>
    4332: a9 00        	lda	#$0
    4334: 85 04        	sta	$4                      ; 0x4 <__rc2>
    4336: 4c 3d 43     	jmp	$433d <donehypsetnam3>

00004339 <errhypsetnam3>:
    4339: a9 ff        	lda	#$ff
    433b: 85 04        	sta	$4                      ; 0x4 <__rc2>

0000433d <donehypsetnam3>:
    433d: ea           	nop
    433e: a5 1c        	lda	$1c                     ; 0x1c <__rc26>
    4340: f0 2e        	beq	$4370 <donehyp1att4+0x19>
    4342: a2 00        	ldx	#$0
    4344: a9 46        	lda	#$46
    4346: 8d 40 d6     	sta	$d640                   ; 0xd640 <__heap_start+0x6856>
    4349: b8           	clv
    434a: 90 07        	bcc	$4353 <errhyp1att4>
    434c: a9 00        	lda	#$0
    434e: 85 04        	sta	$4                      ; 0x4 <__rc2>
    4350: 4c 57 43     	jmp	$4357 <donehyp1att4>

00004353 <errhyp1att4>:
    4353: a9 ff        	lda	#$ff
    4355: 85 04        	sta	$4                      ; 0x4 <__rc2>

00004357 <donehyp1att4>:
    4357: ea           	nop
    4358: 80 2c        	bra	$4386 <donehyp0att5+0x1>
    435a: e6 21        	inc	$21                     ; 0x21 <__rc31>
    435c: a5 21        	lda	$21                     ; 0x21 <__rc31>
    435e: 80 50        	bra	$43b0 <donehyp0att5+0x2b>
    4360: a9 00        	lda	#$0
    4362: a6 17        	ldx	$17                     ; 0x17 <__rc21>
    4364: 86 16        	stx	$16                     ; 0x16 <__rc20>
    4366: a6 21        	ldx	$21                     ; 0x21 <__rc31>
    4368: f0 46        	beq	$43b0 <donehyp0att5+0x2b>
    436a: c6 21        	dec	$21                     ; 0x21 <__rc31>
    436c: a5 21        	lda	$21                     ; 0x21 <__rc31>
    436e: 80 40        	bra	$43b0 <donehyp0att5+0x2b>
    4370: a2 00        	ldx	#$0
    4372: a9 40        	lda	#$40
    4374: 8d 40 d6     	sta	$d640                   ; 0xd640 <__heap_start+0x6856>
    4377: b8           	clv
    4378: 90 07        	bcc	$4381 <errhyp0att5>
    437a: a9 00        	lda	#$0
    437c: 85 04        	sta	$4                      ; 0x4 <__rc2>
    437e: 4c 85 43     	jmp	$4385 <donehyp0att5>

00004381 <errhyp0att5>:
    4381: a9 ff        	lda	#$ff
    4383: 85 04        	sta	$4                      ; 0x4 <__rc2>

00004385 <donehyp0att5>:
    4385: ea           	nop
    4386: a5 04        	lda	$4                      ; 0x4 <__rc2>
    4388: d0 03        	bne	$438d <donehyp0att5+0x8>
    438a: 4c bf 4d     	jmp	$4dbf <donehypclosedir6+0x293>
    438d: a2 87        	ldx	#$87
    438f: 86 04        	stx	$4                      ; 0x4 <__rc2>
    4391: a2 64        	ldx	#$64
    4393: 86 05        	stx	$5                      ; 0x5 <__rc3>
    4395: a2 07        	ldx	#$7
    4397: 86 06        	stx	$6                      ; 0x6 <__rc4>
    4399: a2 66        	ldx	#$66
    439b: 86 07        	stx	$7                      ; 0x7 <__rc5>
    439d: a6 18        	ldx	$18                     ; 0x18 <__rc22>
    439f: 86 08        	stx	$8                      ; 0x8 <__rc6>
    43a1: a6 19        	ldx	$19                     ; 0x19 <__rc23>
    43a3: 86 09        	stx	$9                      ; 0x9 <__rc7>
    43a5: a9 00        	lda	#$0
    43a7: 20 cf 5a     	jsr	$5acf <messagebox>
    43aa: a5 21        	lda	$21                     ; 0x21 <__rc31>
    43ac: a6 17        	ldx	$17                     ; 0x17 <__rc21>
    43ae: 86 16        	stx	$16                     ; 0x16 <__rc20>
    43b0: a6 16        	ldx	$16                     ; 0x16 <__rc20>
    43b2: 86 17        	stx	$17                     ; 0x17 <__rc21>
    43b4: c5 16        	cmp	$16                     ; 0x16 <__rc20>
    43b6: b0 22        	bcs	$43da <donehyp0att5+0x55>
    43b8: a2 41        	ldx	#$41
    43ba: 86 04        	stx	$4                      ; 0x4 <__rc2>
    43bc: 64 05        	stz	$5                      ; 0x5 <__rc3>
    43be: a2 00        	ldx	#$0
    43c0: 85 21        	sta	$21                     ; 0x21 <__rc31>
    43c2: 20 a4 61     	jsr	$61a4 <__mulhi3>
    43c5: 85 04        	sta	$4                      ; 0x4 <__rc2>
    43c7: 86 05        	stx	$5                      ; 0x5 <__rc3>
    43c9: a9 32        	lda	#$32
    43cb: 18           	clc
    43cc: 65 04        	adc	$4                      ; 0x4 <__rc2>
    43ce: 85 04        	sta	$4                      ; 0x4 <__rc2>
    43d0: a9 66        	lda	#$66
    43d2: 65 05        	adc	$5                      ; 0x5 <__rc3>
    43d4: 85 05        	sta	$5                      ; 0x5 <__rc3>
    43d6: b2 04        	lda	($4),z                  ; 0x4 <__rc2>
    43d8: d0 02        	bne	$43dc <donehyp0att5+0x57>
    43da: 64 21        	stz	$21                     ; 0x21 <__rc31>
    43dc: a2 05        	ldx	#$5
    43de: 8a           	txa
    43df: a0 1e        	ldy	#$1e
    43e1: 91 02        	sta	($2),y                  ; 0x2 <__rc0>
    43e3: a2 32        	ldx	#$32
    43e5: 86 18        	stx	$18                     ; 0x18 <__rc22>
    43e7: a2 66        	ldx	#$66
    43e9: 86 19        	stx	$19                     ; 0x19 <__rc23>
    43eb: a2 49        	ldx	#$49
    43ed: 86 04        	stx	$4                      ; 0x4 <__rc2>
    43ef: a2 17        	ldx	#$17
    43f1: 86 05        	stx	$5                      ; 0x5 <__rc3>
    43f3: a2 01        	ldx	#$1
    43f5: 86 06        	stx	$6                      ; 0x6 <__rc4>
    43f7: a2 03        	ldx	#$3
    43f9: a9 08        	lda	#$8
    43fb: 20 76 58     	jsr	$5876 <mcbox>
    43fe: a9 20        	lda	#$20
    4400: 05 35        	ora	$35                     ; 0x35 <g_curTextColor>
    4402: 85 35        	sta	$35                     ; 0x35 <g_curTextColor>
    4404: a2 30        	ldx	#$30
    4406: 86 04        	stx	$4                      ; 0x4 <__rc2>
    4408: a2 65        	ldx	#$65
    440a: 86 05        	stx	$5                      ; 0x5 <__rc3>
    440c: 20 58 57     	jsr	$5758 <asciitoscreencode_s>
    440f: a2 34        	ldx	#$34
    4411: 86 04        	stx	$4                      ; 0x4 <__rc2>
    4413: a2 03        	ldx	#$3
    4415: 86 05        	stx	$5                      ; 0x5 <__rc3>
    4417: a2 03        	ldx	#$3
    4419: a9 0c        	lda	#$c
    441b: 20 2e 5f     	jsr	$5f2e <cputsxy>
    441e: b2 1a        	lda	($1a),z                 ; 0x1a <__rc24>
    4420: 85 20        	sta	$20                     ; 0x20 <__rc30>
    4422: 85 1c        	sta	$1c                     ; 0x1c <__rc26>
    4424: a0 01        	ldy	#$1
    4426: b1 1a        	lda	($1a),y                 ; 0x1a <__rc24>
    4428: a0 1d        	ldy	#$1d
    442a: 91 02        	sta	($2),y                  ; 0x2 <__rc0>
    442c: 85 1d        	sta	$1d                     ; 0x1d <__rc27>
    442e: b2 1c        	lda	($1c),z                 ; 0x1c <__rc26>
    4430: 64 04        	stz	$4                      ; 0x4 <__rc2>
    4432: 64 05        	stz	$5                      ; 0x5 <__rc3>
    4434: 64 06        	stz	$6                      ; 0x6 <__rc4>
    4436: a2 00        	ldx	#$0
    4438: 20 a1 56     	jsr	$56a1 <csputdec>
    443b: a2 04        	ldx	#$4
    443d: 86 04        	stx	$4                      ; 0x4 <__rc2>
    443f: a2 66        	ldx	#$66
    4441: 86 05        	stx	$5                      ; 0x5 <__rc3>
    4443: 20 58 57     	jsr	$5758 <asciitoscreencode_s>
    4446: a5 56        	lda	$56                     ; 0x56 <g_curX>
    4448: a6 57        	ldx	$57                     ; 0x57 <g_curY>
    444a: a0 34        	ldy	#$34
    444c: 84 04        	sty	$4                      ; 0x4 <__rc2>
    444e: a0 03        	ldy	#$3
    4450: 84 05        	sty	$5                      ; 0x5 <__rc3>
    4452: 20 2e 5f     	jsr	$5f2e <cputsxy>
    4455: a9 df        	lda	#$df
    4457: 25 35        	and	$35                     ; 0x35 <g_curTextColor>
    4459: 85 35        	sta	$35                     ; 0x35 <g_curTextColor>
    445b: a6 21        	ldx	$21                     ; 0x21 <__rc31>
    445d: 86 1e        	stx	$1e                     ; 0x1e <__rc28>
    445f: 64 1f        	stz	$1f                     ; 0x1f <__rc29>
    4461: b2 18        	lda	($18),z                 ; 0x18 <__rc22>
    4463: aa           	tax
    4464: a5 35        	lda	$35                     ; 0x35 <g_curTextColor>
    4466: e0 00        	cpx	#$0
    4468: d0 03        	bne	$446d <donehyp0att5+0xe8>
    446a: 4c a6 42     	jmp	$42a6 <donehypopendir2+0x37>
    446d: a6 1f        	ldx	$1f                     ; 0x1f <__rc29>
    446f: d0 07        	bne	$4478 <donehyp0att5+0xf3>
    4471: a6 1e        	ldx	$1e                     ; 0x1e <__rc28>
    4473: d0 03        	bne	$4478 <donehyp0att5+0xf3>
    4475: 4c 9f 42     	jmp	$429f <donehypopendir2+0x30>
    4478: 29 df        	and	#$df
    447a: 85 35        	sta	$35                     ; 0x35 <g_curTextColor>
    447c: a6 18        	ldx	$18                     ; 0x18 <__rc22>
    447e: 86 04        	stx	$4                      ; 0x4 <__rc2>
    4480: a6 19        	ldx	$19                     ; 0x19 <__rc23>
    4482: 86 05        	stx	$5                      ; 0x5 <__rc3>
    4484: a0 1e        	ldy	#$1e
    4486: b1 02        	lda	($2),y                  ; 0x2 <__rc0>
    4488: 85 16        	sta	$16                     ; 0x16 <__rc20>
    448a: aa           	tax
    448b: a9 0a        	lda	#$a
    448d: 20 2e 5f     	jsr	$5f2e <cputsxy>
    4490: a5 18        	lda	$18                     ; 0x18 <__rc22>
    4492: 18           	clc
    4493: 69 41        	adc	#$41
    4495: 85 18        	sta	$18                     ; 0x18 <__rc22>
    4497: a5 19        	lda	$19                     ; 0x19 <__rc23>
    4499: 69 00        	adc	#$0
    449b: 85 19        	sta	$19                     ; 0x19 <__rc23>
    449d: e6 16        	inc	$16                     ; 0x16 <__rc20>
    449f: a6 1e        	ldx	$1e                     ; 0x1e <__rc28>
    44a1: c6 1e        	dec	$1e                     ; 0x1e <__rc28>
    44a3: e0 00        	cpx	#$0
    44a5: d0 02        	bne	$44a9 <donehyp0att5+0x124>
    44a7: c6 1f        	dec	$1f                     ; 0x1f <__rc29>
    44a9: a5 16        	lda	$16                     ; 0x16 <__rc20>
    44ab: a0 1e        	ldy	#$1e
    44ad: 91 02        	sta	($2),y                  ; 0x2 <__rc0>
    44af: a6 16        	ldx	$16                     ; 0x16 <__rc20>
    44b1: e0 17        	cpx	#$17
    44b3: d0 ac        	bne	$4461 <donehyp0att5+0xdc>
    44b5: 4c a4 42     	jmp	$42a4 <donehypopendir2+0x35>
    44b8: ae 11 d6     	ldx	$d611                   ; 0xd611 <__heap_start+0x6827>
    44bb: e0 01        	cpx	#$1
    44bd: d0 03        	bne	$44c2 <donehyp0att5+0x13d>
    44bf: 4c 3c 4d     	jmp	$4d3c <donehypclosedir6+0x210>
    44c2: ae 11 d6     	ldx	$d611                   ; 0xd611 <__heap_start+0x6827>
    44c5: e0 02        	cpx	#$2
    44c7: f0 03        	beq	$44cc <donehyp0att5+0x147>
    44c9: 4c 40 37     	jmp	$3740 <main+0x1ba>
    44cc: 4c 3c 4d     	jmp	$4d3c <donehypclosedir6+0x210>
    44cf: a0 19        	ldy	#$19
    44d1: b1 02        	lda	($2),y                  ; 0x2 <__rc0>
    44d3: 85 18        	sta	$18                     ; 0x18 <__rc22>
    44d5: 0a           	asl
    44d6: 85 04        	sta	$4                      ; 0x4 <__rc2>
    44d8: a9 00        	lda	#$0
    44da: 2a           	rol
    44db: 85 05        	sta	$5                      ; 0x5 <__rc3>
    44dd: a9 31        	lda	#$31
    44df: 18           	clc
    44e0: 65 04        	adc	$4                      ; 0x4 <__rc2>
    44e2: 85 04        	sta	$4                      ; 0x4 <__rc2>
    44e4: a9 00        	lda	#$0
    44e6: 65 05        	adc	$5                      ; 0x5 <__rc3>
    44e8: 85 05        	sta	$5                      ; 0x5 <__rc3>
    44ea: b2 04        	lda	($4),z                  ; 0x4 <__rc2>
    44ec: 85 16        	sta	$16                     ; 0x16 <__rc20>
    44ee: a0 01        	ldy	#$1
    44f0: b1 04        	lda	($4),y                  ; 0x4 <__rc2>
    44f2: 85 17        	sta	$17                     ; 0x17 <__rc21>
    44f4: b2 16        	lda	($16),z                 ; 0x16 <__rc20>
    44f6: a6 18        	ldx	$18                     ; 0x18 <__rc22>
    44f8: 20 b1 5c     	jsr	$5cb1 <UpdateSectors>
    44fb: b2 16        	lda	($16),z                 ; 0x16 <__rc20>
    44fd: a6 18        	ldx	$18                     ; 0x18 <__rc22>
    44ff: 20 d3 54     	jsr	$54d3 <getdirent>
    4502: a0 02        	ldy	#$2
    4504: 91 16        	sta	($16),y                 ; 0x16 <__rc20>
    4506: 4c 40 37     	jmp	$3740 <main+0x1ba>
    4509: a0 19        	ldy	#$19
    450b: b1 02        	lda	($2),y                  ; 0x2 <__rc0>
    450d: 0a           	asl
    450e: 85 04        	sta	$4                      ; 0x4 <__rc2>
    4510: a9 00        	lda	#$0
    4512: 2a           	rol
    4513: 85 05        	sta	$5                      ; 0x5 <__rc3>
    4515: a9 31        	lda	#$31
    4517: 18           	clc
    4518: 65 04        	adc	$4                      ; 0x4 <__rc2>
    451a: 85 04        	sta	$4                      ; 0x4 <__rc2>
    451c: a9 00        	lda	#$0
    451e: 65 05        	adc	$5                      ; 0x5 <__rc3>
    4520: 85 05        	sta	$5                      ; 0x5 <__rc3>
    4522: b2 04        	lda	($4),z                  ; 0x4 <__rc2>
    4524: 85 06        	sta	$6                      ; 0x6 <__rc4>
    4526: a0 01        	ldy	#$1
    4528: b1 04        	lda	($4),y                  ; 0x4 <__rc2>
    452a: 85 07        	sta	$7                      ; 0x7 <__rc5>
    452c: b1 06        	lda	($6),y                  ; 0x6 <__rc4>
    452e: 1a           	inc
    452f: 91 06        	sta	($6),y                  ; 0x6 <__rc4>
    4531: 4c 40 37     	jmp	$3740 <main+0x1ba>
    4534: a0 19        	ldy	#$19
    4536: b1 02        	lda	($2),y                  ; 0x2 <__rc0>
    4538: 0a           	asl
    4539: 85 04        	sta	$4                      ; 0x4 <__rc2>
    453b: a9 00        	lda	#$0
    453d: 2a           	rol
    453e: 85 05        	sta	$5                      ; 0x5 <__rc3>
    4540: a9 31        	lda	#$31
    4542: 18           	clc
    4543: 65 04        	adc	$4                      ; 0x4 <__rc2>
    4545: 85 04        	sta	$4                      ; 0x4 <__rc2>
    4547: a9 00        	lda	#$0
    4549: 65 05        	adc	$5                      ; 0x5 <__rc3>
    454b: 85 05        	sta	$5                      ; 0x5 <__rc3>
    454d: b2 04        	lda	($4),z                  ; 0x4 <__rc2>
    454f: 85 06        	sta	$6                      ; 0x6 <__rc4>
    4551: a0 01        	ldy	#$1
    4553: b1 04        	lda	($4),y                  ; 0x4 <__rc2>
    4555: 85 07        	sta	$7                      ; 0x7 <__rc5>
    4557: 18           	clc
    4558: a9 0a        	lda	#$a
    455a: 71 06        	adc	($6),y                  ; 0x6 <__rc4>
    455c: 91 06        	sta	($6),y                  ; 0x6 <__rc4>
    455e: 4c 40 37     	jmp	$3740 <main+0x1ba>
    4561: a6 3d        	ldx	$3d                     ; 0x3d <worksectorasBAM.0>
    4563: a4 3e        	ldy	$3e                     ; 0x3e <worksectorasBAM.0+0x1>
    4565: 86 04        	stx	$4                      ; 0x4 <__rc2>
    4567: 84 05        	sty	$5                      ; 0x5 <__rc3>
    4569: a6 18        	ldx	$18                     ; 0x18 <__rc22>
    456b: 86 06        	stx	$6                      ; 0x6 <__rc4>
    456d: aa           	tax
    456e: 85 17        	sta	$17                     ; 0x17 <__rc21>
    4570: a5 16        	lda	$16                     ; 0x16 <__rc20>
    4572: 20 21 4e     	jsr	$4e21 <GetOneSector>
    4575: a6 37        	ldx	$37                     ; 0x37 <BAMsector.0>
    4577: a4 38        	ldy	$38                     ; 0x38 <BAMsector.0+0x1>
    4579: 86 04        	stx	$4                      ; 0x4 <__rc2>
    457b: 84 05        	sty	$5                      ; 0x5 <__rc3>
    457d: a6 39        	ldx	$39                     ; 0x39 <BAMsector.1>
    457f: a4 3a        	ldy	$3a                     ; 0x3a <BAMsector.1+0x1>
    4581: 86 06        	stx	$6                      ; 0x6 <__rc4>
    4583: 84 07        	sty	$7                      ; 0x7 <__rc5>
    4585: 64 08        	stz	$8                      ; 0x8 <__rc6>
    4587: a6 18        	ldx	$18                     ; 0x18 <__rc22>
    4589: a5 17        	lda	$17                     ; 0x17 <__rc21>
    458b: 20 81 50     	jsr	$5081 <BAMSectorUpdate>
    458e: ad 00 18     	lda	$1800                   ; 0x1800 <__bss_size+0x1049>
    4591: ae 01 18     	ldx	$1801                   ; 0x1801 <__bss_size+0x104a>
    4594: 86 18        	stx	$18                     ; 0x18 <__rc22>
    4596: aa           	tax
    4597: d0 c8        	bne	$4561 <donehyp0att5+0x1dc>
    4599: 4c 11 4d     	jmp	$4d11 <donehypclosedir6+0x1e5>
    459c: a9 00        	lda	#$0
    459e: 91 04        	sta	($4),y                  ; 0x4 <__rc2>
    45a0: 64 37        	stz	$37                     ; 0x37 <BAMsector.0>
    45a2: a2 16        	ldx	#$16
    45a4: 86 38        	stx	$38                     ; 0x38 <BAMsector.0+0x1>
    45a6: 64 39        	stz	$39                     ; 0x39 <BAMsector.1>
    45a8: e8           	inx
    45a9: 86 3a        	stx	$3a                     ; 0x3a <BAMsector.1+0x1>
    45ab: 64 3b        	stz	$3b                     ; 0x3b <worksector.0>
    45ad: e8           	inx
    45ae: 86 3c        	stx	$3c                     ; 0x3c <worksector.0+0x1>
    45b0: 64 3d        	stz	$3d                     ; 0x3d <worksectorasBAM.0>
    45b2: 86 3e        	stx	$3e                     ; 0x3e <worksectorasBAM.0+0x1>
    45b4: 64 3f        	stz	$3f                     ; 0x3f <direntryblock.0>
    45b6: a2 1a        	ldx	#$1a
    45b8: 86 40        	stx	$40                     ; 0x40 <direntryblock.0+0x1>
    45ba: 64 41        	stz	$41                     ; 0x41 <direntryblock.1>
    45bc: e8           	inx
    45bd: 86 42        	stx	$42                     ; 0x42 <direntryblock.1+0x1>
    45bf: b2 1e        	lda	($1e),z                 ; 0x1e <__rc28>
    45c1: a0 0f        	ldy	#$f
    45c3: 91 02        	sta	($2),y                  ; 0x2 <__rc0>
    45c5: a0 01        	ldy	#$1
    45c7: b1 1e        	lda	($1e),y                 ; 0x1e <__rc28>
    45c9: a0 1d        	ldy	#$1d
    45cb: 91 02        	sta	($2),y                  ; 0x2 <__rc0>
    45cd: 9c 80 d0     	stz	$d080                   ; 0xd080 <__heap_start+0x6296>
    45d0: a2 03        	ldx	#$3
    45d2: 8a           	txa
    45d3: a0 11        	ldy	#$11
    45d5: 91 02        	sta	($2),y                  ; 0x2 <__rc0>
    45d7: a2 28        	ldx	#$28
    45d9: 8a           	txa
    45da: c8           	iny
    45db: 91 02        	sta	($2),y                  ; 0x2 <__rc0>
    45dd: a6 3f        	ldx	$3f                     ; 0x3f <direntryblock.0>
    45df: 8a           	txa
    45e0: a0 1c        	ldy	#$1c
    45e2: 91 02        	sta	($2),y                  ; 0x2 <__rc0>
    45e4: a6 40        	ldx	$40                     ; 0x40 <direntryblock.0+0x1>
    45e6: 8a           	txa
    45e7: a0 18        	ldy	#$18
    45e9: 91 02        	sta	($2),y                  ; 0x2 <__rc0>
    45eb: 64 04        	stz	$4                      ; 0x4 <__rc2>
    45ed: 64 05        	stz	$5                      ; 0x5 <__rc3>
    45ef: 64 06        	stz	$6                      ; 0x6 <__rc4>
    45f1: a2 0e        	ldx	#$e
    45f3: 86 07        	stx	$7                      ; 0x7 <__rc5>
    45f5: 64 08        	stz	$8                      ; 0x8 <__rc6>
    45f7: 64 09        	stz	$9                      ; 0x9 <__rc7>
    45f9: a2 00        	ldx	#$0
    45fb: c8           	iny
    45fc: b1 02        	lda	($2),y                  ; 0x2 <__rc0>
    45fe: 20 d6 61     	jsr	$61d6 <__mulsi3>
    4601: a0 14        	ldy	#$14
    4603: 91 02        	sta	($2),y                  ; 0x2 <__rc0>
    4605: 8a           	txa
    4606: a0 16        	ldy	#$16
    4608: 91 02        	sta	($2),y                  ; 0x2 <__rc0>
    460a: a5 04        	lda	$4                      ; 0x4 <__rc2>
    460c: a0 1a        	ldy	#$1a
    460e: 91 02        	sta	($2),y                  ; 0x2 <__rc0>
    4610: a5 05        	lda	$5                      ; 0x5 <__rc3>
    4612: a2 08        	ldx	#$8
    4614: 48           	pha
    4615: 8a           	txa
    4616: a0 1e        	ldy	#$1e
    4618: 91 02        	sta	($2),y                  ; 0x2 <__rc0>
    461a: 68           	pla
    461b: 09 08        	ora	#$8
    461d: 85 1c        	sta	$1c                     ; 0x1c <__rc26>
    461f: a0 0e        	ldy	#$e
    4621: 91 02        	sta	($2),y                  ; 0x2 <__rc0>
    4623: a0 00        	ldy	#$0
    4625: 64 1a        	stz	$1a                     ; 0x1a <__rc24>
    4627: 64 1d        	stz	$1d                     ; 0x1d <__rc27>
    4629: 64 1b        	stz	$1b                     ; 0x1b <__rc25>
    462b: 64 20        	stz	$20                     ; 0x20 <__rc30>
    462d: 84 19        	sty	$19                     ; 0x19 <__rc23>
    462f: 98           	tya
    4630: 4a           	lsr
    4631: a6 1a        	ldx	$1a                     ; 0x1a <__rc24>
    4633: 86 04        	stx	$4                      ; 0x4 <__rc2>
    4635: 66 04        	ror	$4                      ; 0x4 <__rc2>
    4637: 64 05        	stz	$5                      ; 0x5 <__rc3>
    4639: 66 05        	ror	$5                      ; 0x5 <__rc3>
    463b: 4a           	lsr
    463c: 66 04        	ror	$4                      ; 0x4 <__rc2>
    463e: 66 05        	ror	$5                      ; 0x5 <__rc3>
    4640: 4a           	lsr
    4641: a6 04        	ldx	$4                      ; 0x4 <__rc2>
    4643: 86 08        	stx	$8                      ; 0x8 <__rc6>
    4645: 66 08        	ror	$8                      ; 0x8 <__rc6>
    4647: a5 05        	lda	$5                      ; 0x5 <__rc3>
    4649: 6a           	ror
    464a: 18           	clc
    464b: 48           	pha
    464c: a0 14        	ldy	#$14
    464e: b1 02        	lda	($2),y                  ; 0x2 <__rc0>
    4650: 85 04        	sta	$4                      ; 0x4 <__rc2>
    4652: 68           	pla
    4653: 65 04        	adc	$4                      ; 0x4 <__rc2>
    4655: a8           	tay
    4656: 5a           	phy
    4657: a0 16        	ldy	#$16
    4659: b1 02        	lda	($2),y                  ; 0x2 <__rc0>
    465b: 85 04        	sta	$4                      ; 0x4 <__rc2>
    465d: a5 08        	lda	$8                      ; 0x8 <__rc6>
    465f: 65 04        	adc	$4                      ; 0x4 <__rc2>
    4661: 85 0c        	sta	$c                      ; 0xc <__rc10>
    4663: a0 1a        	ldy	#$1a
    4665: b1 02        	lda	($2),y                  ; 0x2 <__rc0>
    4667: 69 00        	adc	#$0
    4669: 85 04        	sta	$4                      ; 0x4 <__rc2>
    466b: a5 1c        	lda	$1c                     ; 0x1c <__rc26>
    466d: 69 00        	adc	#$0
    466f: a6 04        	ldx	$4                      ; 0x4 <__rc2>
    4671: 86 16        	stx	$16                     ; 0x16 <__rc20>
    4673: 85 18        	sta	$18                     ; 0x18 <__rc22>
    4675: 85 05        	sta	$5                      ; 0x5 <__rc3>
    4677: a0 1c        	ldy	#$1c
    4679: b1 02        	lda	($2),y                  ; 0x2 <__rc0>
    467b: 85 06        	sta	$6                      ; 0x6 <__rc4>
    467d: a0 18        	ldy	#$18
    467f: b1 02        	lda	($2),y                  ; 0x2 <__rc0>
    4681: 7a           	ply
    4682: 85 07        	sta	$7                      ; 0x7 <__rc5>
    4684: 64 08        	stz	$8                      ; 0x8 <__rc6>
    4686: 64 09        	stz	$9                      ; 0x9 <__rc7>
    4688: a2 20        	ldx	#$20
    468a: 86 0a        	stx	$a                      ; 0xa <__rc8>
    468c: 64 0b        	stz	$b                      ; 0xb <__rc9>
    468e: a6 0c        	ldx	$c                      ; 0xc <__rc10>
    4690: 86 17        	stx	$17                     ; 0x17 <__rc21>
    4692: 98           	tya
    4693: 84 21        	sty	$21                     ; 0x21 <__rc31>
    4695: 20 0b 60     	jsr	$600b <lcopy>
    4698: a5 1a        	lda	$1a                     ; 0x1a <__rc24>
    469a: f0 18        	beq	$46b4 <donehyp0att5+0x32f>
    469c: a5 1a        	lda	$1a                     ; 0x1a <__rc24>
    469e: 29 07        	and	#$7
    46a0: a6 19        	ldx	$19                     ; 0x19 <__rc23>
    46a2: d0 10        	bne	$46b4 <donehyp0att5+0x32f>
    46a4: aa           	tax
    46a5: d0 0d        	bne	$46b4 <donehyp0att5+0x32f>
    46a7: a6 1b        	ldx	$1b                     ; 0x1b <__rc25>
    46a9: 8a           	txa
    46aa: a0 12        	ldy	#$12
    46ac: 91 02        	sta	($2),y                  ; 0x2 <__rc0>
    46ae: a6 1d        	ldx	$1d                     ; 0x1d <__rc27>
    46b0: 8a           	txa
    46b1: 88           	dey
    46b2: 91 02        	sta	($2),y                  ; 0x2 <__rc0>
    46b4: ae 00 1a     	ldx	$1a00                   ; 0x1a00 <__bss_size+0x1249>
    46b7: f0 18        	beq	$46d1 <donehyp0att5+0x34c>
    46b9: 18           	clc
    46ba: a0 1e        	ldy	#$1e
    46bc: b1 02        	lda	($2),y                  ; 0x2 <__rc0>
    46be: 69 08        	adc	#$8
    46c0: 85 04        	sta	$4                      ; 0x4 <__rc2>
    46c2: a5 20        	lda	$20                     ; 0x20 <__rc30>
    46c4: 69 00        	adc	#$0
    46c6: 85 05        	sta	$5                      ; 0x5 <__rc3>
    46c8: 86 1b        	stx	$1b                     ; 0x1b <__rc25>
    46ca: ae 01 1a     	ldx	$1a01                   ; 0x1a01 <__bss_size+0x124a>
    46cd: 86 1d        	stx	$1d                     ; 0x1d <__rc27>
    46cf: 80 0a        	bra	$46db <donehyp0att5+0x356>
    46d1: a0 1e        	ldy	#$1e
    46d3: b1 02        	lda	($2),y                  ; 0x2 <__rc0>
    46d5: 85 04        	sta	$4                      ; 0x4 <__rc2>
    46d7: a6 20        	ldx	$20                     ; 0x20 <__rc30>
    46d9: 86 05        	stx	$5                      ; 0x5 <__rc3>
    46db: a2 00        	ldx	#$0
    46dd: a0 20        	ldy	#$20
    46df: 5a           	phy
    46e0: a0 1d        	ldy	#$1d
    46e2: b1 02        	lda	($2),y                  ; 0x2 <__rc0>
    46e4: 7a           	ply
    46e5: c5 1a        	cmp	$1a                     ; 0x1a <__rc24>
    46e7: d0 03        	bne	$46ec <donehyp0att5+0x367>
    46e9: 4c 85 4b     	jmp	$4b85 <donehypclosedir6+0x59>
    46ec: a6 1a        	ldx	$1a                     ; 0x1a <__rc24>
    46ee: e8           	inx
    46ef: a0 00        	ldy	#$0
    46f1: c4 05        	cpy	$5                      ; 0x5 <__rc3>
    46f3: d0 04        	bne	$46f9 <donehyp0att5+0x374>
    46f5: e4 04        	cpx	$4                      ; 0x4 <__rc2>
    46f7: 80 02        	bra	$46fb <donehyp0att5+0x376>
    46f9: c4 05        	cpy	$5                      ; 0x5 <__rc3>
    46fb: 86 1a        	stx	$1a                     ; 0x1a <__rc24>
    46fd: a5 04        	lda	$4                      ; 0x4 <__rc2>
    46ff: 5a           	phy
    4700: a0 1e        	ldy	#$1e
    4702: 91 02        	sta	($2),y                  ; 0x2 <__rc0>
    4704: 7a           	ply
    4705: a6 05        	ldx	$5                      ; 0x5 <__rc3>
    4707: 86 20        	stx	$20                     ; 0x20 <__rc30>
    4709: b0 03        	bcs	$470e <donehyp0att5+0x389>
    470b: 4c 2d 46     	jmp	$462d <donehyp0att5+0x2a8>
    470e: a2 35        	ldx	#$35
    4710: 86 06        	stx	$6                      ; 0x6 <__rc4>
    4712: a2 00        	ldx	#$0
    4714: 86 07        	stx	$7                      ; 0x7 <__rc5>
    4716: a2 02        	ldx	#$2
    4718: 4c ed 4a     	jmp	$4aed <donehyp0att5+0x768>
    471b: a0 03        	ldy	#$3
    471d: 5a           	phy
    471e: a0 1a        	ldy	#$1a
    4720: b1 02        	lda	($2),y                  ; 0x2 <__rc0>
    4722: 85 06        	sta	$6                      ; 0x6 <__rc4>
    4724: c8           	iny
    4725: b1 02        	lda	($2),y                  ; 0x2 <__rc0>
    4727: 85 07        	sta	$7                      ; 0x7 <__rc5>
    4729: a0 18        	ldy	#$18
    472b: b1 02        	lda	($2),y                  ; 0x2 <__rc0>
    472d: 7a           	ply
    472e: 91 06        	sta	($6),y                  ; 0x6 <__rc4>
    4730: a0 04        	ldy	#$4
    4732: 5a           	phy
    4733: a5 06        	lda	$6                      ; 0x6 <__rc4>
    4735: a0 1a        	ldy	#$1a
    4737: 91 02        	sta	($2),y                  ; 0x2 <__rc0>
    4739: a5 07        	lda	$7                      ; 0x7 <__rc5>
    473b: c8           	iny
    473c: 91 02        	sta	($2),y                  ; 0x2 <__rc0>
    473e: a0 12        	ldy	#$12
    4740: b1 02        	lda	($2),y                  ; 0x2 <__rc0>
    4742: 7a           	ply
    4743: 91 06        	sta	($6),y                  ; 0x6 <__rc4>
    4745: a0 16        	ldy	#$16
    4747: b1 02        	lda	($2),y                  ; 0x2 <__rc0>
    4749: 85 04        	sta	$4                      ; 0x4 <__rc2>
    474b: c8           	iny
    474c: b1 02        	lda	($2),y                  ; 0x2 <__rc0>
    474e: 85 05        	sta	$5                      ; 0x5 <__rc3>
    4750: b2 04        	lda	($4),z                  ; 0x4 <__rc2>
    4752: a0 11        	ldy	#$11
    4754: 91 02        	sta	($2),y                  ; 0x2 <__rc0>
    4756: 64 37        	stz	$37                     ; 0x37 <BAMsector.0>
    4758: a2 16        	ldx	#$16
    475a: 86 38        	stx	$38                     ; 0x38 <BAMsector.0+0x1>
    475c: 64 39        	stz	$39                     ; 0x39 <BAMsector.1>
    475e: e8           	inx
    475f: 86 3a        	stx	$3a                     ; 0x3a <BAMsector.1+0x1>
    4761: 64 3b        	stz	$3b                     ; 0x3b <worksector.0>
    4763: e8           	inx
    4764: 86 3c        	stx	$3c                     ; 0x3c <worksector.0+0x1>
    4766: 64 3d        	stz	$3d                     ; 0x3d <worksectorasBAM.0>
    4768: 86 3e        	stx	$3e                     ; 0x3e <worksectorasBAM.0+0x1>
    476a: 64 3f        	stz	$3f                     ; 0x3f <direntryblock.0>
    476c: a2 1a        	ldx	#$1a
    476e: 86 40        	stx	$40                     ; 0x40 <direntryblock.0+0x1>
    4770: 64 41        	stz	$41                     ; 0x41 <direntryblock.1>
    4772: e8           	inx
    4773: 86 42        	stx	$42                     ; 0x42 <direntryblock.1+0x1>
    4775: 9c 80 d0     	stz	$d080                   ; 0xd080 <__heap_start+0x6296>
    4778: a6 41        	ldx	$41                     ; 0x41 <direntryblock.1>
    477a: 8a           	txa
    477b: a0 18        	ldy	#$18
    477d: 91 02        	sta	($2),y                  ; 0x2 <__rc0>
    477f: a6 42        	ldx	$42                     ; 0x42 <direntryblock.1+0x1>
    4781: 8a           	txa
    4782: a0 1c        	ldy	#$1c
    4784: 91 02        	sta	($2),y                  ; 0x2 <__rc0>
    4786: a0 19        	ldy	#$19
    4788: b1 02        	lda	($2),y                  ; 0x2 <__rc0>
    478a: d0 03        	bne	$478f <donehyp0att5+0x40a>
    478c: 4c 75 4b     	jmp	$4b75 <donehypclosedir6+0x49>
    478f: 64 17        	stz	$17                     ; 0x17 <__rc21>
    4791: a2 08        	ldx	#$8
    4793: 8a           	txa
    4794: a0 1d        	ldy	#$1d
    4796: 91 02        	sta	($2),y                  ; 0x2 <__rc0>
    4798: a0 14        	ldy	#$14
    479a: b1 02        	lda	($2),y                  ; 0x2 <__rc0>
    479c: 85 1e        	sta	$1e                     ; 0x1e <__rc28>
    479e: c8           	iny
    479f: b1 02        	lda	($2),y                  ; 0x2 <__rc0>
    47a1: 85 1f        	sta	$1f                     ; 0x1f <__rc29>
    47a3: a0 19        	ldy	#$19
    47a5: b1 02        	lda	($2),y                  ; 0x2 <__rc0>
    47a7: 49 01        	eor	#$1
    47a9: a0 0e        	ldy	#$e
    47ab: 91 02        	sta	($2),y                  ; 0x2 <__rc0>
    47ad: a2 03        	ldx	#$3
    47af: 8a           	txa
    47b0: a0 12        	ldy	#$12
    47b2: 91 02        	sta	($2),y                  ; 0x2 <__rc0>
    47b4: a2 28        	ldx	#$28
    47b6: 8a           	txa
    47b7: a0 14        	ldy	#$14
    47b9: 91 02        	sta	($2),y                  ; 0x2 <__rc0>
    47bb: a9 00        	lda	#$0
    47bd: aa           	tax
    47be: a0 08        	ldy	#$8
    47c0: 64 18        	stz	$18                     ; 0x18 <__rc22>
    47c2: 64 04        	stz	$4                      ; 0x4 <__rc2>
    47c4: 48           	pha
    47c5: 8a           	txa
    47c6: 5a           	phy
    47c7: a0 1e        	ldy	#$1e
    47c9: 91 02        	sta	($2),y                  ; 0x2 <__rc0>
    47cb: 7a           	ply
    47cc: 68           	pla
    47cd: 64 21        	stz	$21                     ; 0x21 <__rc31>
    47cf: 64 20        	stz	$20                     ; 0x20 <__rc30>
    47d1: 84 16        	sty	$16                     ; 0x16 <__rc20>
    47d3: 86 1a        	stx	$1a                     ; 0x1a <__rc24>
    47d5: 85 1b        	sta	$1b                     ; 0x1b <__rc25>
    47d7: 4a           	lsr
    47d8: 86 05        	stx	$5                      ; 0x5 <__rc3>
    47da: 66 05        	ror	$5                      ; 0x5 <__rc3>
    47dc: 64 04        	stz	$4                      ; 0x4 <__rc2>
    47de: 66 04        	ror	$4                      ; 0x4 <__rc2>
    47e0: 4a           	lsr
    47e1: 66 05        	ror	$5                      ; 0x5 <__rc3>
    47e3: 66 04        	ror	$4                      ; 0x4 <__rc2>
    47e5: 4a           	lsr
    47e6: a6 05        	ldx	$5                      ; 0x5 <__rc3>
    47e8: 86 06        	stx	$6                      ; 0x6 <__rc4>
    47ea: 66 06        	ror	$6                      ; 0x6 <__rc4>
    47ec: 66 04        	ror	$4                      ; 0x4 <__rc2>
    47ee: a2 00        	ldx	#$0
    47f0: 8a           	txa
    47f1: 18           	clc
    47f2: 65 04        	adc	$4                      ; 0x4 <__rc2>
    47f4: a8           	tay
    47f5: a5 17        	lda	$17                     ; 0x17 <__rc21>
    47f7: 85 1c        	sta	$1c                     ; 0x1c <__rc26>
    47f9: a5 06        	lda	$6                      ; 0x6 <__rc4>
    47fb: 65 17        	adc	$17                     ; 0x17 <__rc21>
    47fd: 85 0c        	sta	$c                      ; 0xc <__rc10>
    47ff: 8a           	txa
    4800: 69 00        	adc	#$0
    4802: aa           	tax
    4803: 5a           	phy
    4804: a0 1d        	ldy	#$1d
    4806: b1 02        	lda	($2),y                  ; 0x2 <__rc0>
    4808: 69 00        	adc	#$0
    480a: 48           	pha
    480b: 8a           	txa
    480c: a0 0d        	ldy	#$d
    480e: 91 02        	sta	($2),y                  ; 0x2 <__rc0>
    4810: 68           	pla
    4811: 86 04        	stx	$4                      ; 0x4 <__rc2>
    4813: 85 17        	sta	$17                     ; 0x17 <__rc21>
    4815: 85 05        	sta	$5                      ; 0x5 <__rc3>
    4817: a0 18        	ldy	#$18
    4819: b1 02        	lda	($2),y                  ; 0x2 <__rc0>
    481b: 85 06        	sta	$6                      ; 0x6 <__rc4>
    481d: a0 1c        	ldy	#$1c
    481f: b1 02        	lda	($2),y                  ; 0x2 <__rc0>
    4821: 7a           	ply
    4822: 85 07        	sta	$7                      ; 0x7 <__rc5>
    4824: 64 08        	stz	$8                      ; 0x8 <__rc6>
    4826: 64 09        	stz	$9                      ; 0x9 <__rc7>
    4828: a2 20        	ldx	#$20
    482a: 86 0a        	stx	$a                      ; 0xa <__rc8>
    482c: 64 0b        	stz	$b                      ; 0xb <__rc9>
    482e: a6 0c        	ldx	$c                      ; 0xc <__rc10>
    4830: 86 19        	stx	$19                     ; 0x19 <__rc23>
    4832: 98           	tya
    4833: 84 1d        	sty	$1d                     ; 0x1d <__rc27>
    4835: 20 0b 60     	jsr	$600b <lcopy>
    4838: a5 1a        	lda	$1a                     ; 0x1a <__rc24>
    483a: 29 07        	and	#$7
    483c: a6 1b        	ldx	$1b                     ; 0x1b <__rc25>
    483e: d0 1e        	bne	$485e <donehyp0att5+0x4d9>
    4840: aa           	tax
    4841: d0 1b        	bne	$485e <donehyp0att5+0x4d9>
    4843: a5 1a        	lda	$1a                     ; 0x1a <__rc24>
    4845: d0 03        	bne	$484a <donehyp0att5+0x4c5>
    4847: 4c 7c 4b     	jmp	$4b7c <donehypclosedir6+0x50>
    484a: a5 1a        	lda	$1a                     ; 0x1a <__rc24>
    484c: a0 1e        	ldy	#$1e
    484e: 91 02        	sta	($2),y                  ; 0x2 <__rc0>
    4850: a6 21        	ldx	$21                     ; 0x21 <__rc31>
    4852: 8a           	txa
    4853: a0 14        	ldy	#$14
    4855: 91 02        	sta	($2),y                  ; 0x2 <__rc0>
    4857: a6 20        	ldx	$20                     ; 0x20 <__rc30>
    4859: 8a           	txa
    485a: a0 12        	ldy	#$12
    485c: 91 02        	sta	($2),y                  ; 0x2 <__rc0>
    485e: a5 16        	lda	$16                     ; 0x16 <__rc20>
    4860: ae 00 1b     	ldx	$1b00                   ; 0x1b00 <__bss_size+0x1349>
    4863: f0 16        	beq	$487b <donehyp0att5+0x4f6>
    4865: 18           	clc
    4866: 69 08        	adc	#$8
    4868: 86 21        	stx	$21                     ; 0x21 <__rc31>
    486a: 85 04        	sta	$4                      ; 0x4 <__rc2>
    486c: a5 18        	lda	$18                     ; 0x18 <__rc22>
    486e: 69 00        	adc	#$0
    4870: 85 05        	sta	$5                      ; 0x5 <__rc3>
    4872: ae 01 1b     	ldx	$1b01                   ; 0x1b01 <__bss_size+0x134a>
    4875: 86 20        	stx	$20                     ; 0x20 <__rc30>
    4877: a6 21        	ldx	$21                     ; 0x21 <__rc31>
    4879: 80 06        	bra	$4881 <donehyp0att5+0x4fc>
    487b: 85 04        	sta	$4                      ; 0x4 <__rc2>
    487d: a4 18        	ldy	$18                     ; 0x18 <__rc22>
    487f: 84 05        	sty	$5                      ; 0x5 <__rc3>
    4881: a9 0f        	lda	#$f
    4883: 2d 02 1b     	and	$1b02                   ; 0x1b02 <__bss_size+0x134b>
    4886: d0 03        	bne	$488b <donehyp0att5+0x506>
    4888: 4c 7d 4c     	jmp	$4c7d <donehypclosedir6+0x151>
    488b: a6 1a        	ldx	$1a                     ; 0x1a <__rc24>
    488d: e8           	inx
    488e: a9 00        	lda	#$0
    4890: c5 05        	cmp	$5                      ; 0x5 <__rc3>
    4892: d0 04        	bne	$4898 <donehyp0att5+0x513>
    4894: e4 04        	cpx	$4                      ; 0x4 <__rc2>
    4896: 80 02        	bra	$489a <donehyp0att5+0x515>
    4898: c5 05        	cmp	$5                      ; 0x5 <__rc3>
    489a: a4 04        	ldy	$4                      ; 0x4 <__rc2>
    489c: 48           	pha
    489d: a5 05        	lda	$5                      ; 0x5 <__rc3>
    489f: 85 18        	sta	$18                     ; 0x18 <__rc22>
    48a1: a5 1c        	lda	$1c                     ; 0x1c <__rc26>
    48a3: 85 17        	sta	$17                     ; 0x17 <__rc21>
    48a5: 68           	pla
    48a6: b0 03        	bcs	$48ab <donehyp0att5+0x526>
    48a8: 4c d1 47     	jmp	$47d1 <donehyp0att5+0x44c>
    48ab: 8a           	txa
    48ac: a0 0d        	ldy	#$d
    48ae: 91 02        	sta	($2),y                  ; 0x2 <__rc0>
    48b0: a0 1e        	ldy	#$1e
    48b2: b1 02        	lda	($2),y                  ; 0x2 <__rc0>
    48b4: 4a           	lsr
    48b5: 5a           	phy
    48b6: a2 01        	ldx	#$1
    48b8: b0 03        	bcs	$48bd <donehyp0att5+0x538>
    48ba: 4c 6b 4b     	jmp	$4b6b <donehypclosedir6+0x3f>
    48bd: 86 04        	stx	$4                      ; 0x4 <__rc2>
    48bf: aa           	tax
    48c0: 18           	clc
    48c1: a5 02        	lda	$2                      ; 0x2 <__rc0>
    48c3: 69 25        	adc	#$25
    48c5: 85 18        	sta	$18                     ; 0x18 <__rc22>
    48c7: a5 03        	lda	$3                      ; 0x3 <__rc1>
    48c9: 69 00        	adc	#$0
    48cb: 85 19        	sta	$19                     ; 0x19 <__rc23>
    48cd: 18           	clc
    48ce: a5 02        	lda	$2                      ; 0x2 <__rc0>
    48d0: 69 24        	adc	#$24
    48d2: 85 1a        	sta	$1a                     ; 0x1a <__rc24>
    48d4: a5 03        	lda	$3                      ; 0x3 <__rc1>
    48d6: 69 00        	adc	#$0
    48d8: 85 1b        	sta	$1b                     ; 0x1b <__rc25>
    48da: a5 21        	lda	$21                     ; 0x21 <__rc31>
    48dc: 92 18        	sta	($18),z                 ; 0x18 <__rc22>
    48de: a5 20        	lda	$20                     ; 0x20 <__rc30>
    48e0: 92 1a        	sta	($1a),z                 ; 0x1a <__rc24>
    48e2: a9 00        	lda	#$0
    48e4: a4 04        	ldy	$4                      ; 0x4 <__rc2>
    48e6: c0 01        	cpy	#$1
    48e8: 7a           	ply
    48e9: 6a           	ror
    48ea: 86 04        	stx	$4                      ; 0x4 <__rc2>
    48ec: 46 04        	lsr	$4                      ; 0x4 <__rc2>
    48ee: 48           	pha
    48ef: a5 04        	lda	$4                      ; 0x4 <__rc2>
    48f1: 91 02        	sta	($2),y                  ; 0x2 <__rc0>
    48f3: 68           	pla
    48f4: 6a           	ror
    48f5: 48           	pha
    48f6: b1 02        	lda	($2),y                  ; 0x2 <__rc0>
    48f8: 85 04        	sta	$4                      ; 0x4 <__rc2>
    48fa: 68           	pla
    48fb: 46 04        	lsr	$4                      ; 0x4 <__rc2>
    48fd: 6a           	ror
    48fe: 85 05        	sta	$5                      ; 0x5 <__rc3>
    4900: 64 21        	stz	$21                     ; 0x21 <__rc31>
    4902: a9 00        	lda	#$0
    4904: a0 0a        	ldy	#$a
    4906: 91 02        	sta	($2),y                  ; 0x2 <__rc0>
    4908: 18           	clc
    4909: 65 05        	adc	$5                      ; 0x5 <__rc3>
    490b: 85 20        	sta	$20                     ; 0x20 <__rc30>
    490d: a5 1c        	lda	$1c                     ; 0x1c <__rc26>
    490f: 65 04        	adc	$4                      ; 0x4 <__rc2>
    4911: 85 1c        	sta	$1c                     ; 0x1c <__rc26>
    4913: a9 00        	lda	#$0
    4915: 69 00        	adc	#$0
    4917: a8           	tay
    4918: 5a           	phy
    4919: a0 1d        	ldy	#$1d
    491b: b1 02        	lda	($2),y                  ; 0x2 <__rc0>
    491d: a0 0c        	ldy	#$c
    491f: 91 02        	sta	($2),y                  ; 0x2 <__rc0>
    4921: 7a           	ply
    4922: 69 00        	adc	#$0
    4924: 85 21        	sta	$21                     ; 0x21 <__rc31>
    4926: 84 04        	sty	$4                      ; 0x4 <__rc2>
    4928: 48           	pha
    4929: 98           	tya
    492a: a0 08        	ldy	#$8
    492c: 91 02        	sta	($2),y                  ; 0x2 <__rc0>
    492e: 68           	pla
    492f: 85 05        	sta	$5                      ; 0x5 <__rc3>
    4931: a0 18        	ldy	#$18
    4933: b1 02        	lda	($2),y                  ; 0x2 <__rc0>
    4935: 85 1d        	sta	$1d                     ; 0x1d <__rc27>
    4937: 85 06        	sta	$6                      ; 0x6 <__rc4>
    4939: a0 1c        	ldy	#$1c
    493b: b1 02        	lda	($2),y                  ; 0x2 <__rc0>
    493d: 85 16        	sta	$16                     ; 0x16 <__rc20>
    493f: 85 07        	sta	$7                      ; 0x7 <__rc5>
    4941: 64 08        	stz	$8                      ; 0x8 <__rc6>
    4943: 64 09        	stz	$9                      ; 0x9 <__rc7>
    4945: a2 20        	ldx	#$20
    4947: 86 0a        	stx	$a                      ; 0xa <__rc8>
    4949: 64 0b        	stz	$b                      ; 0xb <__rc9>
    494b: a6 1c        	ldx	$1c                     ; 0x1c <__rc26>
    494d: a5 20        	lda	$20                     ; 0x20 <__rc30>
    494f: 20 0b 60     	jsr	$600b <lcopy>
    4952: a6 18        	ldx	$18                     ; 0x18 <__rc22>
    4954: 86 04        	stx	$4                      ; 0x4 <__rc2>
    4956: a6 19        	ldx	$19                     ; 0x19 <__rc23>
    4958: 86 05        	stx	$5                      ; 0x5 <__rc3>
    495a: a6 1a        	ldx	$1a                     ; 0x1a <__rc24>
    495c: 86 06        	stx	$6                      ; 0x6 <__rc4>
    495e: a6 1b        	ldx	$1b                     ; 0x1b <__rc25>
    4960: 86 07        	stx	$7                      ; 0x7 <__rc5>
    4962: 20 c5 52     	jsr	$52c5 <findnextBAMtracksector>
    4965: b2 18        	lda	($18),z                 ; 0x18 <__rc22>
    4967: 8d 00 1b     	sta	$1b00                   ; 0x1b00 <__bss_size+0x1349>
    496a: b2 1a        	lda	($1a),z                 ; 0x1a <__rc24>
    496c: 8d 01 1b     	sta	$1b01                   ; 0x1b01 <__bss_size+0x134a>
    496f: b2 18        	lda	($18),z                 ; 0x18 <__rc22>
    4971: a0 0b        	ldy	#$b
    4973: 91 02        	sta	($2),y                  ; 0x2 <__rc0>
    4975: b2 1a        	lda	($1a),z                 ; 0x1a <__rc24>
    4977: a0 09        	ldy	#$9
    4979: 91 02        	sta	($2),y                  ; 0x2 <__rc0>
    497b: a6 20        	ldx	$20                     ; 0x20 <__rc30>
    497d: 86 06        	stx	$6                      ; 0x6 <__rc4>
    497f: a6 1c        	ldx	$1c                     ; 0x1c <__rc26>
    4981: 86 07        	stx	$7                      ; 0x7 <__rc5>
    4983: 88           	dey
    4984: b1 02        	lda	($2),y                  ; 0x2 <__rc0>
    4986: 85 08        	sta	$8                      ; 0x8 <__rc6>
    4988: a6 21        	ldx	$21                     ; 0x21 <__rc31>
    498a: 86 09        	stx	$9                      ; 0x9 <__rc7>
    498c: 64 04        	stz	$4                      ; 0x4 <__rc2>
    498e: 64 05        	stz	$5                      ; 0x5 <__rc3>
    4990: a2 20        	ldx	#$20
    4992: 86 0a        	stx	$a                      ; 0xa <__rc8>
    4994: 64 0b        	stz	$b                      ; 0xb <__rc9>
    4996: a6 16        	ldx	$16                     ; 0x16 <__rc20>
    4998: a5 1d        	lda	$1d                     ; 0x1d <__rc27>
    499a: 20 0b 60     	jsr	$600b <lcopy>
    499d: a0 1e        	ldy	#$1e
    499f: b1 02        	lda	($2),y                  ; 0x2 <__rc0>
    49a1: 4a           	lsr
    49a2: 85 05        	sta	$5                      ; 0x5 <__rc3>
    49a4: a9 00        	lda	#$0
    49a6: 64 04        	stz	$4                      ; 0x4 <__rc2>
    49a8: 18           	clc
    49a9: 65 04        	adc	$4                      ; 0x4 <__rc2>
    49ab: a2 01        	ldx	#$1
    49ad: b0 03        	bcs	$49b2 <donehyp0att5+0x62d>
    49af: 4c 70 4b     	jmp	$4b70 <donehypclosedir6+0x44>
    49b2: 86 1a        	stx	$1a                     ; 0x1a <__rc24>
    49b4: 85 1c        	sta	$1c                     ; 0x1c <__rc26>
    49b6: a5 05        	lda	$5                      ; 0x5 <__rc3>
    49b8: 65 17        	adc	$17                     ; 0x17 <__rc21>
    49ba: aa           	tax
    49bb: a9 00        	lda	#$0
    49bd: 65 04        	adc	$4                      ; 0x4 <__rc2>
    49bf: a8           	tay
    49c0: a9 00        	lda	#$0
    49c2: 48           	pha
    49c3: 5a           	phy
    49c4: a0 1d        	ldy	#$1d
    49c6: b1 02        	lda	($2),y                  ; 0x2 <__rc0>
    49c8: 7a           	ply
    49c9: 85 20        	sta	$20                     ; 0x20 <__rc30>
    49cb: 68           	pla
    49cc: 65 20        	adc	$20                     ; 0x20 <__rc30>
    49ce: 84 04        	sty	$4                      ; 0x4 <__rc2>
    49d0: 85 05        	sta	$5                      ; 0x5 <__rc3>
    49d2: 64 06        	stz	$6                      ; 0x6 <__rc4>
    49d4: a0 18        	ldy	#$18
    49d6: 84 07        	sty	$7                      ; 0x7 <__rc5>
    49d8: 64 08        	stz	$8                      ; 0x8 <__rc6>
    49da: 64 09        	stz	$9                      ; 0x9 <__rc7>
    49dc: 64 0a        	stz	$a                      ; 0xa <__rc8>
    49de: a0 01        	ldy	#$1
    49e0: 84 0b        	sty	$b                      ; 0xb <__rc9>
    49e2: a5 1c        	lda	$1c                     ; 0x1c <__rc26>
    49e4: 20 0b 60     	jsr	$600b <lcopy>
    49e7: a6 3d        	ldx	$3d                     ; 0x3d <worksectorasBAM.0>
    49e9: a4 3e        	ldy	$3e                     ; 0x3e <worksectorasBAM.0+0x1>
    49eb: 86 04        	stx	$4                      ; 0x4 <__rc2>
    49ed: 84 05        	sty	$5                      ; 0x5 <__rc3>
    49ef: a0 12        	ldy	#$12
    49f1: b1 02        	lda	($2),y                  ; 0x2 <__rc0>
    49f3: 85 06        	sta	$6                      ; 0x6 <__rc4>
    49f5: a0 14        	ldy	#$14
    49f7: b1 02        	lda	($2),y                  ; 0x2 <__rc0>
    49f9: aa           	tax
    49fa: a0 11        	ldy	#$11
    49fc: b1 02        	lda	($2),y                  ; 0x2 <__rc0>
    49fe: 85 1d        	sta	$1d                     ; 0x1d <__rc27>
    4a00: 20 6b 4e     	jsr	$4e6b <PutOneSector>
    4a03: a0 0d        	ldy	#$d
    4a05: b1 02        	lda	($2),y                  ; 0x2 <__rc0>
    4a07: 85 18        	sta	$18                     ; 0x18 <__rc22>
    4a09: 46 18        	lsr	$18                     ; 0x18 <__rc22>
    4a0b: a9 00        	lda	#$0
    4a0d: 6a           	ror
    4a0e: 46 18        	lsr	$18                     ; 0x18 <__rc22>
    4a10: 6a           	ror
    4a11: a6 18        	ldx	$18                     ; 0x18 <__rc22>
    4a13: 86 05        	stx	$5                      ; 0x5 <__rc3>
    4a15: 46 05        	lsr	$5                      ; 0x5 <__rc3>
    4a17: 6a           	ror
    4a18: 85 04        	sta	$4                      ; 0x4 <__rc2>
    4a1a: a0 0a        	ldy	#$a
    4a1c: b1 02        	lda	($2),y                  ; 0x2 <__rc0>
    4a1e: aa           	tax
    4a1f: 18           	clc
    4a20: 65 04        	adc	$4                      ; 0x4 <__rc2>
    4a22: 85 19        	sta	$19                     ; 0x19 <__rc23>
    4a24: a5 05        	lda	$5                      ; 0x5 <__rc3>
    4a26: 65 17        	adc	$17                     ; 0x17 <__rc21>
    4a28: 85 21        	sta	$21                     ; 0x21 <__rc31>
    4a2a: 8a           	txa
    4a2b: 69 00        	adc	#$0
    4a2d: 85 16        	sta	$16                     ; 0x16 <__rc20>
    4a2f: a0 0c        	ldy	#$c
    4a31: b1 02        	lda	($2),y                  ; 0x2 <__rc0>
    4a33: 69 00        	adc	#$0
    4a35: 85 1b        	sta	$1b                     ; 0x1b <__rc25>
    4a37: a6 16        	ldx	$16                     ; 0x16 <__rc20>
    4a39: 86 04        	stx	$4                      ; 0x4 <__rc2>
    4a3b: 85 05        	sta	$5                      ; 0x5 <__rc3>
    4a3d: 64 06        	stz	$6                      ; 0x6 <__rc4>
    4a3f: 64 07        	stz	$7                      ; 0x7 <__rc5>
    4a41: a2 01        	ldx	#$1
    4a43: 86 08        	stx	$8                      ; 0x8 <__rc6>
    4a45: a6 21        	ldx	$21                     ; 0x21 <__rc31>
    4a47: a5 19        	lda	$19                     ; 0x19 <__rc23>
    4a49: 20 96 60     	jsr	$6096 <lfill>
    4a4c: a0 1a        	ldy	#$1a
    4a4e: b1 02        	lda	($2),y                  ; 0x2 <__rc0>
    4a50: 85 0c        	sta	$c                      ; 0xc <__rc10>
    4a52: c8           	iny
    4a53: b1 02        	lda	($2),y                  ; 0x2 <__rc0>
    4a55: 85 0d        	sta	$d                      ; 0xd <__rc11>
    4a57: a9 00        	lda	#$0
    4a59: 92 0c        	sta	($c),z                  ; 0xc <__rc10>
    4a5b: 3a           	dec
    4a5c: a0 01        	ldy	#$1
    4a5e: 91 0c        	sta	($c),y                  ; 0xc <__rc10>
    4a60: a6 19        	ldx	$19                     ; 0x19 <__rc23>
    4a62: 86 06        	stx	$6                      ; 0x6 <__rc4>
    4a64: a6 21        	ldx	$21                     ; 0x21 <__rc31>
    4a66: 86 07        	stx	$7                      ; 0x7 <__rc5>
    4a68: a6 16        	ldx	$16                     ; 0x16 <__rc20>
    4a6a: 86 08        	stx	$8                      ; 0x8 <__rc6>
    4a6c: 64 04        	stz	$4                      ; 0x4 <__rc2>
    4a6e: 64 05        	stz	$5                      ; 0x5 <__rc3>
    4a70: 64 0b        	stz	$b                      ; 0xb <__rc9>
    4a72: a6 1b        	ldx	$1b                     ; 0x1b <__rc25>
    4a74: 86 09        	stx	$9                      ; 0x9 <__rc7>
    4a76: a2 20        	ldx	#$20
    4a78: 86 0a        	stx	$a                      ; 0xa <__rc8>
    4a7a: a6 0d        	ldx	$d                      ; 0xd <__rc11>
    4a7c: a5 0c        	lda	$c                      ; 0xc <__rc10>
    4a7e: 20 0b 60     	jsr	$600b <lcopy>
    4a81: a5 18        	lda	$18                     ; 0x18 <__rc22>
    4a83: 4a           	lsr
    4a84: a6 1a        	ldx	$1a                     ; 0x1a <__rc24>
    4a86: e0 01        	cpx	#$1
    4a88: 65 17        	adc	$17                     ; 0x17 <__rc21>
    4a8a: 85 0c        	sta	$c                      ; 0xc <__rc10>
    4a8c: a9 00        	lda	#$0
    4a8e: 64 04        	stz	$4                      ; 0x4 <__rc2>
    4a90: 65 04        	adc	$4                      ; 0x4 <__rc2>
    4a92: 85 04        	sta	$4                      ; 0x4 <__rc2>
    4a94: a9 00        	lda	#$0
    4a96: 65 20        	adc	$20                     ; 0x20 <__rc30>
    4a98: 85 05        	sta	$5                      ; 0x5 <__rc3>
    4a9a: 64 06        	stz	$6                      ; 0x6 <__rc4>
    4a9c: a2 18        	ldx	#$18
    4a9e: 86 07        	stx	$7                      ; 0x7 <__rc5>
    4aa0: 64 08        	stz	$8                      ; 0x8 <__rc6>
    4aa2: 64 09        	stz	$9                      ; 0x9 <__rc7>
    4aa4: 64 16        	stz	$16                     ; 0x16 <__rc20>
    4aa6: 64 0a        	stz	$a                      ; 0xa <__rc8>
    4aa8: a2 01        	ldx	#$1
    4aaa: 86 0b        	stx	$b                      ; 0xb <__rc9>
    4aac: a6 0c        	ldx	$c                      ; 0xc <__rc10>
    4aae: a5 1c        	lda	$1c                     ; 0x1c <__rc26>
    4ab0: 20 0b 60     	jsr	$600b <lcopy>
    4ab3: a6 3d        	ldx	$3d                     ; 0x3d <worksectorasBAM.0>
    4ab5: a4 3e        	ldy	$3e                     ; 0x3e <worksectorasBAM.0+0x1>
    4ab7: 86 04        	stx	$4                      ; 0x4 <__rc2>
    4ab9: 84 05        	sty	$5                      ; 0x5 <__rc3>
    4abb: a0 09        	ldy	#$9
    4abd: b1 02        	lda	($2),y                  ; 0x2 <__rc0>
    4abf: 85 06        	sta	$6                      ; 0x6 <__rc4>
    4ac1: a0 0b        	ldy	#$b
    4ac3: b1 02        	lda	($2),y                  ; 0x2 <__rc0>
    4ac5: aa           	tax
    4ac6: a5 1d        	lda	$1d                     ; 0x1d <__rc27>
    4ac8: 20 6b 4e     	jsr	$4e6b <PutOneSector>
    4acb: a0 16        	ldy	#$16
    4acd: b1 02        	lda	($2),y                  ; 0x2 <__rc0>
    4acf: 85 04        	sta	$4                      ; 0x4 <__rc2>
    4ad1: c8           	iny
    4ad2: b1 02        	lda	($2),y                  ; 0x2 <__rc0>
    4ad4: 85 05        	sta	$5                      ; 0x5 <__rc3>
    4ad6: b2 04        	lda	($4),z                  ; 0x4 <__rc2>
    4ad8: a2 00        	ldx	#$0
    4ada: 20 2d 4f     	jsr	$4f2d <PutBAM>
    4add: a0 0f        	ldy	#$f
    4adf: b1 02        	lda	($2),y                  ; 0x2 <__rc0>
    4ae1: 85 06        	sta	$6                      ; 0x6 <__rc4>
    4ae3: c8           	iny
    4ae4: b1 02        	lda	($2),y                  ; 0x2 <__rc0>
    4ae6: 85 07        	sta	$7                      ; 0x7 <__rc5>
    4ae8: a0 0e        	ldy	#$e
    4aea: b1 02        	lda	($2),y                  ; 0x2 <__rc0>
    4aec: aa           	tax
    4aed: b2 06        	lda	($6),z                  ; 0x6 <__rc4>
    4aef: 85 04        	sta	$4                      ; 0x4 <__rc2>
    4af1: a0 01        	ldy	#$1
    4af3: b1 06        	lda	($6),y                  ; 0x6 <__rc4>
    4af5: 85 05        	sta	$5                      ; 0x5 <__rc3>
    4af7: b2 04        	lda	($4),z                  ; 0x4 <__rc2>
    4af9: 20 b1 5c     	jsr	$5cb1 <UpdateSectors>
    4afc: b2 1e        	lda	($1e),z                 ; 0x1e <__rc28>
    4afe: 48           	pha
    4aff: a0 19        	ldy	#$19
    4b01: b1 02        	lda	($2),y                  ; 0x2 <__rc0>
    4b03: aa           	tax
    4b04: 68           	pla
    4b05: 20 d3 54     	jsr	$54d3 <getdirent>
    4b08: a0 02        	ldy	#$2
    4b0a: 91 1e        	sta	($1e),y                 ; 0x1e <__rc28>
    4b0c: 4c 40 37     	jmp	$3740 <main+0x1ba>
    4b0f: a0 19        	ldy	#$19
    4b11: b1 02        	lda	($2),y                  ; 0x2 <__rc0>
    4b13: 49 01        	eor	#$1
    4b15: 4c 3e 37     	jmp	$373e <main+0x1b8>
    4b18: a6 17        	ldx	$17                     ; 0x17 <__rc21>
    4b1a: 86 16        	stx	$16                     ; 0x16 <__rc20>
    4b1c: aa           	tax
    4b1d: a9 16        	lda	#$16
    4b1f: 8d 40 d6     	sta	$d640                   ; 0xd640 <__heap_start+0x6856>
    4b22: b8           	clv
    4b23: 90 05        	bcc	$4b2a <errhypclosedir6>
    4b25: 86 04        	stx	$4                      ; 0x4 <__rc2>
    4b27: 4c 2c 4b     	jmp	$4b2c <donehypclosedir6>

00004b2a <errhypclosedir6>:
    4b2a: 85 04        	sta	$4                      ; 0x4 <__rc2>

00004b2c <donehypclosedir6>:
    4b2c: ea           	nop
    4b2d: 4c 81 42     	jmp	$4281 <donehypopendir2+0x12>
    4b30: a2 00        	ldx	#$0
    4b32: 64 17        	stz	$17                     ; 0x17 <__rc21>
    4b34: 4c ba 41     	jmp	$41ba <main+0xc34>
    4b37: a2 00        	ldx	#$0
    4b39: 4c 8f 3f     	jmp	$3f8f <main+0xa09>
    4b3c: a0 00        	ldy	#$0
    4b3e: 4c a2 3f     	jmp	$3fa2 <main+0xa1c>
    4b41: a5 21        	lda	$21                     ; 0x21 <__rc31>
    4b43: d0 03        	bne	$4b48 <donehypclosedir6+0x1c>
    4b45: 4c 1b 47     	jmp	$471b <donehyp0att5+0x396>
    4b48: a2 ec        	ldx	#$ec
    4b4a: 86 04        	stx	$4                      ; 0x4 <__rc2>
    4b4c: a2 65        	ldx	#$65
    4b4e: 86 05        	stx	$5                      ; 0x5 <__rc3>
    4b50: a2 ff        	ldx	#$ff
    4b52: 86 06        	stx	$6                      ; 0x6 <__rc4>
    4b54: a2 63        	ldx	#$63
    4b56: 86 07        	stx	$7                      ; 0x7 <__rc5>
    4b58: a0 1e        	ldy	#$1e
    4b5a: b1 02        	lda	($2),y                  ; 0x2 <__rc0>
    4b5c: 85 08        	sta	$8                      ; 0x8 <__rc6>
    4b5e: c8           	iny
    4b5f: b1 02        	lda	($2),y                  ; 0x2 <__rc0>
    4b61: 85 09        	sta	$9                      ; 0x9 <__rc7>
    4b63: a9 00        	lda	#$0
    4b65: 20 cf 5a     	jsr	$5acf <messagebox>
    4b68: 4c 1b 47     	jmp	$471b <donehyp0att5+0x396>
    4b6b: a2 00        	ldx	#$0
    4b6d: 4c bd 48     	jmp	$48bd <donehyp0att5+0x538>
    4b70: a2 00        	ldx	#$0
    4b72: 4c b2 49     	jmp	$49b2 <donehyp0att5+0x62d>
    4b75: a2 0e        	ldx	#$e
    4b77: 86 17        	stx	$17                     ; 0x17 <__rc21>
    4b79: 4c 91 47     	jmp	$4791 <donehyp0att5+0x40c>
    4b7c: 64 04        	stz	$4                      ; 0x4 <__rc2>
    4b7e: a9 00        	lda	#$0
    4b80: a0 1e        	ldy	#$1e
    4b82: 4c 5c 48     	jmp	$485c <donehyp0att5+0x4d7>
    4b85: 9c 02 1a     	stz	$1a02                   ; 0x1a02 <__bss_size+0x124b>
    4b88: a6 21        	ldx	$21                     ; 0x21 <__rc31>
    4b8a: 86 06        	stx	$6                      ; 0x6 <__rc4>
    4b8c: a6 17        	ldx	$17                     ; 0x17 <__rc21>
    4b8e: 86 07        	stx	$7                      ; 0x7 <__rc5>
    4b90: a6 16        	ldx	$16                     ; 0x16 <__rc20>
    4b92: 86 08        	stx	$8                      ; 0x8 <__rc6>
    4b94: a6 18        	ldx	$18                     ; 0x18 <__rc22>
    4b96: 86 09        	stx	$9                      ; 0x9 <__rc7>
    4b98: 64 04        	stz	$4                      ; 0x4 <__rc2>
    4b9a: 64 05        	stz	$5                      ; 0x5 <__rc3>
    4b9c: 84 0a        	sty	$a                      ; 0xa <__rc8>
    4b9e: 64 0b        	stz	$b                      ; 0xb <__rc9>
    4ba0: a0 18        	ldy	#$18
    4ba2: b1 02        	lda	($2),y                  ; 0x2 <__rc0>
    4ba4: aa           	tax
    4ba5: a0 1c        	ldy	#$1c
    4ba7: b1 02        	lda	($2),y                  ; 0x2 <__rc0>
    4ba9: 20 0b 60     	jsr	$600b <lcopy>
    4bac: a0 1d        	ldy	#$1d
    4bae: b1 02        	lda	($2),y                  ; 0x2 <__rc0>
    4bb0: 4a           	lsr
    4bb1: 4a           	lsr
    4bb2: 4a           	lsr
    4bb3: aa           	tax
    4bb4: 18           	clc
    4bb5: a0 14        	ldy	#$14
    4bb7: b1 02        	lda	($2),y                  ; 0x2 <__rc0>
    4bb9: 85 04        	sta	$4                      ; 0x4 <__rc2>
    4bbb: a9 00        	lda	#$0
    4bbd: 65 04        	adc	$4                      ; 0x4 <__rc2>
    4bbf: a8           	tay
    4bc0: 84 13        	sty	$13                     ; 0x13 <__rc17>
    4bc2: a0 16        	ldy	#$16
    4bc4: b1 02        	lda	($2),y                  ; 0x2 <__rc0>
    4bc6: 85 04        	sta	$4                      ; 0x4 <__rc2>
    4bc8: 8a           	txa
    4bc9: 65 04        	adc	$4                      ; 0x4 <__rc2>
    4bcb: 85 0c        	sta	$c                      ; 0xc <__rc10>
    4bcd: a9 00        	lda	#$0
    4bcf: 48           	pha
    4bd0: a0 1a        	ldy	#$1a
    4bd2: b1 02        	lda	($2),y                  ; 0x2 <__rc0>
    4bd4: 85 04        	sta	$4                      ; 0x4 <__rc2>
    4bd6: 68           	pla
    4bd7: 65 04        	adc	$4                      ; 0x4 <__rc2>
    4bd9: aa           	tax
    4bda: a9 00        	lda	#$0
    4bdc: 48           	pha
    4bdd: a0 0e        	ldy	#$e
    4bdf: b1 02        	lda	($2),y                  ; 0x2 <__rc0>
    4be1: a4 13        	ldy	$13                     ; 0x13 <__rc17>
    4be3: 85 04        	sta	$4                      ; 0x4 <__rc2>
    4be5: 68           	pla
    4be6: 65 04        	adc	$4                      ; 0x4 <__rc2>
    4be8: 86 04        	stx	$4                      ; 0x4 <__rc2>
    4bea: 85 05        	sta	$5                      ; 0x5 <__rc3>
    4bec: 64 06        	stz	$6                      ; 0x6 <__rc4>
    4bee: a2 18        	ldx	#$18
    4bf0: 86 07        	stx	$7                      ; 0x7 <__rc5>
    4bf2: 64 08        	stz	$8                      ; 0x8 <__rc6>
    4bf4: 64 09        	stz	$9                      ; 0x9 <__rc7>
    4bf6: 64 0a        	stz	$a                      ; 0xa <__rc8>
    4bf8: a2 01        	ldx	#$1
    4bfa: 86 0b        	stx	$b                      ; 0xb <__rc9>
    4bfc: a6 0c        	ldx	$c                      ; 0xc <__rc10>
    4bfe: 98           	tya
    4bff: 20 0b 60     	jsr	$600b <lcopy>
    4c02: a6 3d        	ldx	$3d                     ; 0x3d <worksectorasBAM.0>
    4c04: a4 3e        	ldy	$3e                     ; 0x3e <worksectorasBAM.0+0x1>
    4c06: 86 04        	stx	$4                      ; 0x4 <__rc2>
    4c08: 84 05        	sty	$5                      ; 0x5 <__rc3>
    4c0a: a0 11        	ldy	#$11
    4c0c: b1 02        	lda	($2),y                  ; 0x2 <__rc0>
    4c0e: 85 06        	sta	$6                      ; 0x6 <__rc4>
    4c10: c8           	iny
    4c11: b1 02        	lda	($2),y                  ; 0x2 <__rc0>
    4c13: aa           	tax
    4c14: a0 0f        	ldy	#$f
    4c16: b1 02        	lda	($2),y                  ; 0x2 <__rc0>
    4c18: 85 16        	sta	$16                     ; 0x16 <__rc20>
    4c1a: 20 6b 4e     	jsr	$4e6b <PutOneSector>
    4c1d: ae 03 1a     	ldx	$1a03                   ; 0x1a03 <__bss_size+0x124c>
    4c20: 86 17        	stx	$17                     ; 0x17 <__rc21>
    4c22: ae 04 1a     	ldx	$1a04                   ; 0x1a04 <__bss_size+0x124d>
    4c25: 86 18        	stx	$18                     ; 0x18 <__rc22>
    4c27: 64 37        	stz	$37                     ; 0x37 <BAMsector.0>
    4c29: a2 16        	ldx	#$16
    4c2b: 86 38        	stx	$38                     ; 0x38 <BAMsector.0+0x1>
    4c2d: 64 39        	stz	$39                     ; 0x39 <BAMsector.1>
    4c2f: e8           	inx
    4c30: 86 3a        	stx	$3a                     ; 0x3a <BAMsector.1+0x1>
    4c32: 64 3b        	stz	$3b                     ; 0x3b <worksector.0>
    4c34: e8           	inx
    4c35: 86 3c        	stx	$3c                     ; 0x3c <worksector.0+0x1>
    4c37: 64 3d        	stz	$3d                     ; 0x3d <worksectorasBAM.0>
    4c39: 86 3e        	stx	$3e                     ; 0x3e <worksectorasBAM.0+0x1>
    4c3b: 64 3f        	stz	$3f                     ; 0x3f <direntryblock.0>
    4c3d: a2 1a        	ldx	#$1a
    4c3f: 86 40        	stx	$40                     ; 0x40 <direntryblock.0+0x1>
    4c41: 64 41        	stz	$41                     ; 0x41 <direntryblock.1>
    4c43: e8           	inx
    4c44: 86 42        	stx	$42                     ; 0x42 <direntryblock.1+0x1>
    4c46: 9c 80 d0     	stz	$d080                   ; 0xd080 <__heap_start+0x6296>
    4c49: a6 37        	ldx	$37                     ; 0x37 <BAMsector.0>
    4c4b: 86 04        	stx	$4                      ; 0x4 <__rc2>
    4c4d: a6 38        	ldx	$38                     ; 0x38 <BAMsector.0+0x1>
    4c4f: 86 05        	stx	$5                      ; 0x5 <__rc3>
    4c51: a2 01        	ldx	#$1
    4c53: 86 06        	stx	$6                      ; 0x6 <__rc4>
    4c55: a2 28        	ldx	#$28
    4c57: a5 16        	lda	$16                     ; 0x16 <__rc20>
    4c59: 20 21 4e     	jsr	$4e21 <GetOneSector>
    4c5c: a6 39        	ldx	$39                     ; 0x39 <BAMsector.1>
    4c5e: a4 3a        	ldy	$3a                     ; 0x3a <BAMsector.1+0x1>
    4c60: 86 04        	stx	$4                      ; 0x4 <__rc2>
    4c62: 84 05        	sty	$5                      ; 0x5 <__rc3>
    4c64: ae 00 16     	ldx	$1600                   ; 0x1600 <__bss_size+0xe49>
    4c67: ac 01 16     	ldy	$1601                   ; 0x1601 <__bss_size+0xe4a>
    4c6a: 84 06        	sty	$6                      ; 0x6 <__rc4>
    4c6c: a5 16        	lda	$16                     ; 0x16 <__rc20>
    4c6e: 20 21 4e     	jsr	$4e21 <GetOneSector>
    4c71: a5 17        	lda	$17                     ; 0x17 <__rc21>
    4c73: d0 03        	bne	$4c78 <donehypclosedir6+0x14c>
    4c75: 4c 11 4d     	jmp	$4d11 <donehypclosedir6+0x1e5>
    4c78: a5 17        	lda	$17                     ; 0x17 <__rc21>
    4c7a: 4c 61 45     	jmp	$4561 <donehyp0att5+0x1dc>
    4c7d: a0 1a        	ldy	#$1a
    4c7f: b1 02        	lda	($2),y                  ; 0x2 <__rc0>
    4c81: 85 0c        	sta	$c                      ; 0xc <__rc10>
    4c83: c8           	iny
    4c84: b1 02        	lda	($2),y                  ; 0x2 <__rc0>
    4c86: 85 0d        	sta	$d                      ; 0xd <__rc11>
    4c88: 8a           	txa
    4c89: 92 0c        	sta	($c),z                  ; 0xc <__rc10>
    4c8b: ad 01 1b     	lda	$1b01                   ; 0x1b01 <__bss_size+0x134a>
    4c8e: a0 01        	ldy	#$1
    4c90: 91 0c        	sta	($c),y                  ; 0xc <__rc10>
    4c92: a6 1d        	ldx	$1d                     ; 0x1d <__rc27>
    4c94: 86 06        	stx	$6                      ; 0x6 <__rc4>
    4c96: a6 19        	ldx	$19                     ; 0x19 <__rc23>
    4c98: 86 07        	stx	$7                      ; 0x7 <__rc5>
    4c9a: a0 0d        	ldy	#$d
    4c9c: b1 02        	lda	($2),y                  ; 0x2 <__rc0>
    4c9e: 85 08        	sta	$8                      ; 0x8 <__rc6>
    4ca0: 64 04        	stz	$4                      ; 0x4 <__rc2>
    4ca2: 64 05        	stz	$5                      ; 0x5 <__rc3>
    4ca4: a6 17        	ldx	$17                     ; 0x17 <__rc21>
    4ca6: 86 09        	stx	$9                      ; 0x9 <__rc7>
    4ca8: a2 20        	ldx	#$20
    4caa: 86 0a        	stx	$a                      ; 0xa <__rc8>
    4cac: 64 0b        	stz	$b                      ; 0xb <__rc9>
    4cae: a6 0d        	ldx	$d                      ; 0xd <__rc11>
    4cb0: a5 0c        	lda	$c                      ; 0xc <__rc10>
    4cb2: 20 0b 60     	jsr	$600b <lcopy>
    4cb5: a5 1a        	lda	$1a                     ; 0x1a <__rc24>
    4cb7: 4a           	lsr
    4cb8: 4a           	lsr
    4cb9: 4a           	lsr
    4cba: aa           	tax
    4cbb: 64 04        	stz	$4                      ; 0x4 <__rc2>
    4cbd: 18           	clc
    4cbe: a9 00        	lda	#$0
    4cc0: 65 04        	adc	$4                      ; 0x4 <__rc2>
    4cc2: a8           	tay
    4cc3: 8a           	txa
    4cc4: 65 1c        	adc	$1c                     ; 0x1c <__rc26>
    4cc6: 85 0c        	sta	$c                      ; 0xc <__rc10>
    4cc8: a9 00        	lda	#$0
    4cca: 65 04        	adc	$4                      ; 0x4 <__rc2>
    4ccc: aa           	tax
    4ccd: a9 00        	lda	#$0
    4ccf: 48           	pha
    4cd0: 5a           	phy
    4cd1: a0 1d        	ldy	#$1d
    4cd3: b1 02        	lda	($2),y                  ; 0x2 <__rc0>
    4cd5: 7a           	ply
    4cd6: 85 04        	sta	$4                      ; 0x4 <__rc2>
    4cd8: 68           	pla
    4cd9: 65 04        	adc	$4                      ; 0x4 <__rc2>
    4cdb: 86 04        	stx	$4                      ; 0x4 <__rc2>
    4cdd: 85 05        	sta	$5                      ; 0x5 <__rc3>
    4cdf: 64 06        	stz	$6                      ; 0x6 <__rc4>
    4ce1: a2 18        	ldx	#$18
    4ce3: 86 07        	stx	$7                      ; 0x7 <__rc5>
    4ce5: 64 08        	stz	$8                      ; 0x8 <__rc6>
    4ce7: 64 09        	stz	$9                      ; 0x9 <__rc7>
    4ce9: 64 16        	stz	$16                     ; 0x16 <__rc20>
    4ceb: 64 0a        	stz	$a                      ; 0xa <__rc8>
    4ced: a2 01        	ldx	#$1
    4cef: 86 0b        	stx	$b                      ; 0xb <__rc9>
    4cf1: a6 0c        	ldx	$c                      ; 0xc <__rc10>
    4cf3: 98           	tya
    4cf4: 20 0b 60     	jsr	$600b <lcopy>
    4cf7: a6 3d        	ldx	$3d                     ; 0x3d <worksectorasBAM.0>
    4cf9: a4 3e        	ldy	$3e                     ; 0x3e <worksectorasBAM.0+0x1>
    4cfb: 86 04        	stx	$4                      ; 0x4 <__rc2>
    4cfd: 84 05        	sty	$5                      ; 0x5 <__rc3>
    4cff: a0 12        	ldy	#$12
    4d01: b1 02        	lda	($2),y                  ; 0x2 <__rc0>
    4d03: 85 06        	sta	$6                      ; 0x6 <__rc4>
    4d05: a0 14        	ldy	#$14
    4d07: b1 02        	lda	($2),y                  ; 0x2 <__rc0>
    4d09: aa           	tax
    4d0a: a0 11        	ldy	#$11
    4d0c: b1 02        	lda	($2),y                  ; 0x2 <__rc0>
    4d0e: 4c c8 4a     	jmp	$4ac8 <donehyp0att5+0x743>
    4d11: a6 37        	ldx	$37                     ; 0x37 <BAMsector.0>
    4d13: a4 38        	ldy	$38                     ; 0x38 <BAMsector.0+0x1>
    4d15: 86 04        	stx	$4                      ; 0x4 <__rc2>
    4d17: 84 05        	sty	$5                      ; 0x5 <__rc3>
    4d19: a2 01        	ldx	#$1
    4d1b: 86 06        	stx	$6                      ; 0x6 <__rc4>
    4d1d: a2 28        	ldx	#$28
    4d1f: a5 16        	lda	$16                     ; 0x16 <__rc20>
    4d21: 20 6b 4e     	jsr	$4e6b <PutOneSector>
    4d24: a6 39        	ldx	$39                     ; 0x39 <BAMsector.1>
    4d26: a4 3a        	ldy	$3a                     ; 0x3a <BAMsector.1+0x1>
    4d28: 86 04        	stx	$4                      ; 0x4 <__rc2>
    4d2a: 84 05        	sty	$5                      ; 0x5 <__rc3>
    4d2c: ae 00 16     	ldx	$1600                   ; 0x1600 <__bss_size+0xe49>
    4d2f: ac 01 16     	ldy	$1601                   ; 0x1601 <__bss_size+0xe4a>
    4d32: 84 06        	sty	$6                      ; 0x6 <__rc4>
    4d34: a5 16        	lda	$16                     ; 0x16 <__rc20>
    4d36: 20 6b 4e     	jsr	$4e6b <PutOneSector>
    4d39: 4c 0e 47     	jmp	$470e <donehyp0att5+0x389>
    4d3c: 20 a2 57     	jsr	$57a2 <clrhome>
    4d3f: a2 a9        	ldx	#$a9
    4d41: 86 04        	stx	$4                      ; 0x4 <__rc2>
    4d43: a2 65        	ldx	#$65
    4d45: 86 05        	stx	$5                      ; 0x5 <__rc3>
    4d47: 20 58 57     	jsr	$5758 <asciitoscreencode_s>
    4d4a: a5 56        	lda	$56                     ; 0x56 <g_curX>
    4d4c: a6 57        	ldx	$57                     ; 0x57 <g_curY>
    4d4e: a4 16        	ldy	$16                     ; 0x16 <__rc20>
    4d50: 84 04        	sty	$4                      ; 0x4 <__rc2>
    4d52: a4 17        	ldy	$17                     ; 0x17 <__rc21>
    4d54: 84 05        	sty	$5                      ; 0x5 <__rc3>
    4d56: 20 2e 5f     	jsr	$5f2e <cputsxy>
    4d59: 20 6a 55     	jsr	$556a <cputln>
    4d5c: ae 10 d6     	ldx	$d610                   ; 0xd610 <__heap_start+0x6826>
    4d5f: f0 fb        	beq	$4d5c <donehypclosedir6+0x230>
    4d61: 9c 10 d6     	stz	$d610                   ; 0xd610 <__heap_start+0x6826>
    4d64: ae 10 d6     	ldx	$d610                   ; 0xd610 <__heap_start+0x6826>
    4d67: d0 f8        	bne	$4d61 <donehypclosedir6+0x235>
    4d69: fb           	plz
    4d6a: 7a           	ply
    4d6b: fa           	plx
    4d6c: 68           	pla
    4d6d: 28           	plp
    4d6e: 58           	cli
    4d6f: a9 37        	lda	#$37
    4d71: 85 01        	sta	$1                      ; 0x1 <__data_size+0x1>
    4d73: 6c f6 ff     	jmp	($fff6)                 ; 0xfff6 <__heap_start+0x920c>
    4d76: a2 00        	ldx	#$0
    4d78: 8a           	txa
    4d79: 85 12        	sta	$12                     ; 0x12 <__rc16>
    4d7b: a8           	tay
    4d7c: b1 02        	lda	($2),y                  ; 0x2 <__rc0>
    4d7e: 85 21        	sta	$21                     ; 0x21 <__rc31>
    4d80: c8           	iny
    4d81: b1 02        	lda	($2),y                  ; 0x2 <__rc0>
    4d83: 85 20        	sta	$20                     ; 0x20 <__rc30>
    4d85: c8           	iny
    4d86: b1 02        	lda	($2),y                  ; 0x2 <__rc0>
    4d88: 85 1f        	sta	$1f                     ; 0x1f <__rc29>
    4d8a: c8           	iny
    4d8b: b1 02        	lda	($2),y                  ; 0x2 <__rc0>
    4d8d: 85 1e        	sta	$1e                     ; 0x1e <__rc28>
    4d8f: c8           	iny
    4d90: b1 02        	lda	($2),y                  ; 0x2 <__rc0>
    4d92: 85 1d        	sta	$1d                     ; 0x1d <__rc27>
    4d94: c8           	iny
    4d95: b1 02        	lda	($2),y                  ; 0x2 <__rc0>
    4d97: 85 1c        	sta	$1c                     ; 0x1c <__rc26>
    4d99: c8           	iny
    4d9a: b1 02        	lda	($2),y                  ; 0x2 <__rc0>
    4d9c: 85 1b        	sta	$1b                     ; 0x1b <__rc25>
    4d9e: c8           	iny
    4d9f: b1 02        	lda	($2),y                  ; 0x2 <__rc0>
    4da1: 85 1a        	sta	$1a                     ; 0x1a <__rc24>
    4da3: 7a           	ply
    4da4: 84 19        	sty	$19                     ; 0x19 <__rc23>
    4da6: 7a           	ply
    4da7: 84 18        	sty	$18                     ; 0x18 <__rc22>
    4da9: 7a           	ply
    4daa: 84 17        	sty	$17                     ; 0x17 <__rc21>
    4dac: 7a           	ply
    4dad: 84 16        	sty	$16                     ; 0x16 <__rc20>
    4daf: 18           	clc
    4db0: a5 02        	lda	$2                      ; 0x2 <__rc0>
    4db2: 69 26        	adc	#$26
    4db4: 85 02        	sta	$2                      ; 0x2 <__rc0>
    4db6: a5 03        	lda	$3                      ; 0x3 <__rc1>
    4db8: 69 00        	adc	#$0
    4dba: 85 03        	sta	$3                      ; 0x3 <__rc1>
    4dbc: a5 12        	lda	$12                     ; 0x12 <__rc16>
    4dbe: 60           	rts
    4dbf: 18           	clc
    4dc0: a5 20        	lda	$20                     ; 0x20 <__rc30>
    4dc2: 69 03        	adc	#$3
    4dc4: aa           	tax
    4dc5: a0 1d        	ldy	#$1d
    4dc7: b1 02        	lda	($2),y                  ; 0x2 <__rc0>
    4dc9: 69 00        	adc	#$0
    4dcb: 86 04        	stx	$4                      ; 0x4 <__rc2>
    4dcd: 85 05        	sta	$5                      ; 0x5 <__rc3>
    4dcf: a6 18        	ldx	$18                     ; 0x18 <__rc22>
    4dd1: 86 06        	stx	$6                      ; 0x6 <__rc4>
    4dd3: a6 19        	ldx	$19                     ; 0x19 <__rc23>
    4dd5: 86 07        	stx	$7                      ; 0x7 <__rc5>
    4dd7: 20 0a 61     	jsr	$610a <strcpy>

00004dda <ReadSector>:
    4dda: e0 00        	cpx	#$0
    4ddc: f0 34        	beq	$4e12 <ReadSector+0x38>
    4dde: 18           	clc
    4ddf: 69 60        	adc	#$60
    4de1: 8d 80 d0     	sta	$d080                   ; 0xd080 <__heap_start+0x6296>
    4de4: a0 20        	ldy	#$20
    4de6: 8c 81 d0     	sty	$d081                   ; 0xd081 <__heap_start+0x6297>
    4de9: ca           	dex
    4dea: 8e 84 d0     	stx	$d084                   ; 0xd084 <__heap_start+0x629a>
    4ded: a4 04        	ldy	$4                      ; 0x4 <__rc2>
    4def: a5 04        	lda	$4                      ; 0x4 <__rc2>
    4df1: 4a           	lsr
    4df2: 1a           	inc
    4df3: 8d 85 d0     	sta	$d085                   ; 0xd085 <__heap_start+0x629b>
    4df6: 9c 86 d0     	stz	$d086                   ; 0xd086 <__heap_start+0x629c>
    4df9: a2 41        	ldx	#$41
    4dfb: 8e 81 d0     	stx	$d081                   ; 0xd081 <__heap_start+0x6297>
    4dfe: ae 82 d0     	ldx	$d082                   ; 0xd082 <__heap_start+0x6298>
    4e01: 30 fb        	bmi	$4dfe <ReadSector+0x24>
    4e03: ad 82 d0     	lda	$d082                   ; 0xd082 <__heap_start+0x6298>
    4e06: 29 18        	and	#$18
    4e08: f0 0b        	beq	$4e15 <ReadSector+0x3b>
    4e0a: a9 ff        	lda	#$ff
    4e0c: a2 40        	ldx	#$40
    4e0e: 8e 80 d0     	stx	$d080                   ; 0xd080 <__heap_start+0x6296>
    4e11: 60           	rts
    4e12: a9 fc        	lda	#$fc
    4e14: 60           	rts
    4e15: ad 89 d6     	lda	$d689                   ; 0xd689 <__heap_start+0x689f>
    4e18: 29 7f        	and	#$7f
    4e1a: 8d 89 d6     	sta	$d689                   ; 0xd689 <__heap_start+0x689f>
    4e1d: 98           	tya
    4e1e: 29 01        	and	#$1
    4e20: 60           	rts

00004e21 <GetOneSector>:
    4e21: a4 16        	ldy	$16                     ; 0x16 <__rc20>
    4e23: 5a           	phy
    4e24: a4 17        	ldy	$17                     ; 0x17 <__rc21>
    4e26: 5a           	phy
    4e27: a4 06        	ldy	$6                      ; 0x6 <__rc4>
    4e29: 48           	pha
    4e2a: a5 04        	lda	$4                      ; 0x4 <__rc2>
    4e2c: 85 16        	sta	$16                     ; 0x16 <__rc20>
    4e2e: a5 05        	lda	$5                      ; 0x5 <__rc3>
    4e30: 85 17        	sta	$17                     ; 0x17 <__rc21>
    4e32: 68           	pla
    4e33: 84 04        	sty	$4                      ; 0x4 <__rc2>
    4e35: 20 da 4d     	jsr	$4dda <ReadSector>
    4e38: c9 02        	cmp	#$2
    4e3a: b0 28        	bcs	$4e64 <GetOneSector+0x43>
    4e3c: aa           	tax
    4e3d: f0 04        	beq	$4e43 <GetOneSector+0x22>
    4e3f: a2 6d        	ldx	#$6d
    4e41: 80 02        	bra	$4e45 <GetOneSector+0x24>
    4e43: a2 6c        	ldx	#$6c
    4e45: a0 01        	ldy	#$1
    4e47: a9 fd        	lda	#$fd
    4e49: 85 04        	sta	$4                      ; 0x4 <__rc2>
    4e4b: a9 0f        	lda	#$f
    4e4d: 85 05        	sta	$5                      ; 0x5 <__rc3>
    4e4f: a5 16        	lda	$16                     ; 0x16 <__rc20>
    4e51: 85 06        	sta	$6                      ; 0x6 <__rc4>
    4e53: a5 17        	lda	$17                     ; 0x17 <__rc21>
    4e55: 85 07        	sta	$7                      ; 0x7 <__rc5>
    4e57: 64 08        	stz	$8                      ; 0x8 <__rc6>
    4e59: 64 09        	stz	$9                      ; 0x9 <__rc7>
    4e5b: 64 0a        	stz	$a                      ; 0xa <__rc8>
    4e5d: 84 0b        	sty	$b                      ; 0xb <__rc9>
    4e5f: a9 00        	lda	#$0
    4e61: 20 0b 60     	jsr	$600b <lcopy>
    4e64: fa           	plx
    4e65: 86 17        	stx	$17                     ; 0x17 <__rc21>
    4e67: fa           	plx
    4e68: 86 16        	stx	$16                     ; 0x16 <__rc20>
    4e6a: 60           	rts

00004e6b <PutOneSector>:
    4e6b: a4 06        	ldy	$6                      ; 0x6 <__rc4>
    4e6d: 84 71        	sty	$71                     ; 0x71 <__zp_bss_size+0x3b>
    4e6f: a4 04        	ldy	$4                      ; 0x4 <__rc2>
    4e71: 84 6d        	sty	$6d                     ; 0x6d <__zp_bss_size+0x37>
    4e73: a4 05        	ldy	$5                      ; 0x5 <__rc3>
    4e75: 84 6e        	sty	$6e                     ; 0x6e <__zp_bss_size+0x38>
    4e77: a4 06        	ldy	$6                      ; 0x6 <__rc4>
    4e79: 84 04        	sty	$4                      ; 0x4 <__rc2>
    4e7b: 86 6f        	stx	$6f                     ; 0x6f <__zp_bss_size+0x39>
    4e7d: 85 70        	sta	$70                     ; 0x70 <__zp_bss_size+0x3a>
    4e7f: 20 da 4d     	jsr	$4dda <ReadSector>
    4e82: a0 6c        	ldy	#$6c
    4e84: a6 71        	ldx	$71                     ; 0x71 <__zp_bss_size+0x3b>
    4e86: 86 72        	stx	$72                     ; 0x72 <__zp_bss_size+0x3c>
    4e88: 46 71        	lsr	$71                     ; 0x71 <__zp_bss_size+0x3b>
    4e8a: 90 02        	bcc	$4e8e <PutOneSector+0x23>
    4e8c: a0 6d        	ldy	#$6d
    4e8e: a2 01        	ldx	#$1
    4e90: 84 07        	sty	$7                      ; 0x7 <__rc5>
    4e92: a0 fd        	ldy	#$fd
    4e94: 84 08        	sty	$8                      ; 0x8 <__rc6>
    4e96: 64 04        	stz	$4                      ; 0x4 <__rc2>
    4e98: 64 05        	stz	$5                      ; 0x5 <__rc3>
    4e9a: 64 06        	stz	$6                      ; 0x6 <__rc4>
    4e9c: a0 0f        	ldy	#$f
    4e9e: 84 09        	sty	$9                      ; 0x9 <__rc7>
    4ea0: 64 0a        	stz	$a                      ; 0xa <__rc8>
    4ea2: 86 0b        	stx	$b                      ; 0xb <__rc9>
    4ea4: a6 6e        	ldx	$6e                     ; 0x6e <__zp_bss_size+0x38>
    4ea6: a5 6d        	lda	$6d                     ; 0x6d <__zp_bss_size+0x37>
    4ea8: 20 0b 60     	jsr	$600b <lcopy>
    4eab: a6 72        	ldx	$72                     ; 0x72 <__zp_bss_size+0x3c>
    4ead: a5 70        	lda	$70                     ; 0x70 <__zp_bss_size+0x3a>
    4eaf: e0 14        	cpx	#$14
    4eb1: 90 05        	bcc	$4eb8 <PutOneSector+0x4d>
    4eb3: 18           	clc
    4eb4: 69 68        	adc	#$68
    4eb6: 80 03        	bra	$4ebb <PutOneSector+0x50>
    4eb8: 18           	clc
    4eb9: 69 60        	adc	#$60
    4ebb: a4 6f        	ldy	$6f                     ; 0x6f <__zp_bss_size+0x39>
    4ebd: 8d 80 d0     	sta	$d080                   ; 0xd080 <__heap_start+0x6296>
    4ec0: a2 20        	ldx	#$20
    4ec2: 8e 81 d0     	stx	$d081                   ; 0xd081 <__heap_start+0x6297>
    4ec5: 88           	dey
    4ec6: 8c 84 d0     	sty	$d084                   ; 0xd084 <__heap_start+0x629a>
    4ec9: a6 71        	ldx	$71                     ; 0x71 <__zp_bss_size+0x3b>
    4ecb: e8           	inx
    4ecc: 8e 85 d0     	stx	$d085                   ; 0xd085 <__heap_start+0x629b>
    4ecf: 9c 86 d0     	stz	$d086                   ; 0xd086 <__heap_start+0x629c>
    4ed2: a2 84        	ldx	#$84
    4ed4: 8e 81 d0     	stx	$d081                   ; 0xd081 <__heap_start+0x6297>
    4ed7: ae 82 d0     	ldx	$d082                   ; 0xd082 <__heap_start+0x6298>
    4eda: 30 fb        	bmi	$4ed7 <PutOneSector+0x6c>
    4edc: ad 82 d0     	lda	$d082                   ; 0xd082 <__heap_start+0x6298>
    4edf: 29 18        	and	#$18
    4ee1: f0 06        	beq	$4ee9 <PutOneSector+0x7e>
    4ee3: a2 40        	ldx	#$40
    4ee5: 8e 80 d0     	stx	$d080                   ; 0xd080 <__heap_start+0x6296>
    4ee8: 60           	rts
    4ee9: ad 89 d6     	lda	$d689                   ; 0xd689 <__heap_start+0x689f>
    4eec: 29 7f        	and	#$7f
    4eee: 8d 89 d6     	sta	$d689                   ; 0xd689 <__heap_start+0x689f>
    4ef1: 60           	rts

00004ef2 <GetBAM>:
    4ef2: 0a           	asl
    4ef3: aa           	tax
    4ef4: a9 00        	lda	#$0
    4ef6: 2a           	rol
    4ef7: a8           	tay
    4ef8: a9 00        	lda	#$0
    4efa: 2a           	rol
    4efb: 85 04        	sta	$4                      ; 0x4 <__rc2>
    4efd: 18           	clc
    4efe: 8a           	txa
    4eff: 69 1c        	adc	#$1c
    4f01: 85 0c        	sta	$c                      ; 0xc <__rc10>
    4f03: 98           	tya
    4f04: 69 00        	adc	#$0
    4f06: 85 06        	sta	$6                      ; 0x6 <__rc4>
    4f08: a5 04        	lda	$4                      ; 0x4 <__rc2>
    4f0a: 69 08        	adc	#$8
    4f0c: 85 05        	sta	$5                      ; 0x5 <__rc3>
    4f0e: a6 37        	ldx	$37                     ; 0x37 <BAMsector.0>
    4f10: a4 38        	ldy	$38                     ; 0x38 <BAMsector.0+0x1>
    4f12: a9 02        	lda	#$2
    4f14: 5a           	phy
    4f15: a4 06        	ldy	$6                      ; 0x6 <__rc4>
    4f17: 84 04        	sty	$4                      ; 0x4 <__rc2>
    4f19: 7a           	ply
    4f1a: 86 06        	stx	$6                      ; 0x6 <__rc4>
    4f1c: 84 07        	sty	$7                      ; 0x7 <__rc5>
    4f1e: 64 08        	stz	$8                      ; 0x8 <__rc6>
    4f20: 64 09        	stz	$9                      ; 0x9 <__rc7>
    4f22: 64 0a        	stz	$a                      ; 0xa <__rc8>
    4f24: 85 0b        	sta	$b                      ; 0xb <__rc9>
    4f26: a6 0c        	ldx	$c                      ; 0xc <__rc10>
    4f28: a9 00        	lda	#$0
    4f2a: 4c 0b 60     	jmp	$600b <lcopy>

00004f2d <PutBAM>:
    4f2d: 85 6c        	sta	$6c                     ; 0x6c <__zp_bss_size+0x36>
    4f2f: a6 37        	ldx	$37                     ; 0x37 <BAMsector.0>
    4f31: a4 38        	ldy	$38                     ; 0x38 <BAMsector.0+0x1>
    4f33: 86 04        	stx	$4                      ; 0x4 <__rc2>
    4f35: 84 05        	sty	$5                      ; 0x5 <__rc3>
    4f37: a2 28        	ldx	#$28
    4f39: a0 01        	ldy	#$1
    4f3b: 84 06        	sty	$6                      ; 0x6 <__rc4>
    4f3d: 20 6b 4e     	jsr	$4e6b <PutOneSector>
    4f40: a6 39        	ldx	$39                     ; 0x39 <BAMsector.1>
    4f42: a4 3a        	ldy	$3a                     ; 0x3a <BAMsector.1+0x1>
    4f44: 86 04        	stx	$4                      ; 0x4 <__rc2>
    4f46: 84 05        	sty	$5                      ; 0x5 <__rc3>
    4f48: ae 00 16     	ldx	$1600                   ; 0x1600 <__bss_size+0xe49>
    4f4b: ac 01 16     	ldy	$1601                   ; 0x1601 <__bss_size+0xe4a>
    4f4e: 84 06        	sty	$6                      ; 0x6 <__rc4>
    4f50: a5 6c        	lda	$6c                     ; 0x6c <__zp_bss_size+0x36>
    4f52: 4c 6b 4e     	jmp	$4e6b <PutOneSector>

00004f55 <readblockchain>:
    4f55: 48           	pha
    4f56: 18           	clc
    4f57: a5 02        	lda	$2                      ; 0x2 <__rc0>
    4f59: 69 fb        	adc	#$fb
    4f5b: 85 02        	sta	$2                      ; 0x2 <__rc0>
    4f5d: a5 03        	lda	$3                      ; 0x3 <__rc1>
    4f5f: 69 ff        	adc	#$ff
    4f61: 85 03        	sta	$3                      ; 0x3 <__rc1>
    4f63: 68           	pla
    4f64: a4 16        	ldy	$16                     ; 0x16 <__rc20>
    4f66: 5a           	phy
    4f67: a4 17        	ldy	$17                     ; 0x17 <__rc21>
    4f69: 5a           	phy
    4f6a: a4 18        	ldy	$18                     ; 0x18 <__rc22>
    4f6c: 5a           	phy
    4f6d: a4 19        	ldy	$19                     ; 0x19 <__rc23>
    4f6f: 5a           	phy
    4f70: 48           	pha
    4f71: a5 1a        	lda	$1a                     ; 0x1a <__rc24>
    4f73: a0 04        	ldy	#$4
    4f75: 91 02        	sta	($2),y                  ; 0x2 <__rc0>
    4f77: a5 1b        	lda	$1b                     ; 0x1b <__rc25>
    4f79: 88           	dey
    4f7a: 91 02        	sta	($2),y                  ; 0x2 <__rc0>
    4f7c: a5 1c        	lda	$1c                     ; 0x1c <__rc26>
    4f7e: 88           	dey
    4f7f: 91 02        	sta	($2),y                  ; 0x2 <__rc0>
    4f81: a5 1d        	lda	$1d                     ; 0x1d <__rc27>
    4f83: 88           	dey
    4f84: 91 02        	sta	($2),y                  ; 0x2 <__rc0>
    4f86: a5 1e        	lda	$1e                     ; 0x1e <__rc28>
    4f88: 88           	dey
    4f89: 91 02        	sta	($2),y                  ; 0x2 <__rc0>
    4f8b: 68           	pla
    4f8c: 85 1a        	sta	$1a                     ; 0x1a <__rc24>
    4f8e: 86 1b        	stx	$1b                     ; 0x1b <__rc25>
    4f90: a5 08        	lda	$8                      ; 0x8 <__rc6>
    4f92: 64 37        	stz	$37                     ; 0x37 <BAMsector.0>
    4f94: a2 16        	ldx	#$16
    4f96: 86 38        	stx	$38                     ; 0x38 <BAMsector.0+0x1>
    4f98: 64 39        	stz	$39                     ; 0x39 <BAMsector.1>
    4f9a: e8           	inx
    4f9b: 86 3a        	stx	$3a                     ; 0x3a <BAMsector.1+0x1>
    4f9d: 64 3b        	stz	$3b                     ; 0x3b <worksector.0>
    4f9f: e8           	inx
    4fa0: 86 3c        	stx	$3c                     ; 0x3c <worksector.0+0x1>
    4fa2: 64 3d        	stz	$3d                     ; 0x3d <worksectorasBAM.0>
    4fa4: 86 3e        	stx	$3e                     ; 0x3e <worksectorasBAM.0+0x1>
    4fa6: 64 3f        	stz	$3f                     ; 0x3f <direntryblock.0>
    4fa8: a2 1a        	ldx	#$1a
    4faa: 86 40        	stx	$40                     ; 0x40 <direntryblock.0+0x1>
    4fac: 64 41        	stz	$41                     ; 0x41 <direntryblock.1>
    4fae: e8           	inx
    4faf: 86 42        	stx	$42                     ; 0x42 <direntryblock.1+0x1>
    4fb1: 9c 80 d0     	stz	$d080                   ; 0xd080 <__heap_start+0x6296>
    4fb4: a6 06        	ldx	$6                      ; 0x6 <__rc4>
    4fb6: d0 03        	bne	$4fbb <readblockchain+0x66>
    4fb8: 4c 2d 50     	jmp	$502d <readblockchain+0xd8>
    4fbb: a6 04        	ldx	$4                      ; 0x4 <__rc2>
    4fbd: 86 16        	stx	$16                     ; 0x16 <__rc20>
    4fbf: a6 05        	ldx	$5                      ; 0x5 <__rc3>
    4fc1: 86 17        	stx	$17                     ; 0x17 <__rc21>
    4fc3: a6 06        	ldx	$6                      ; 0x6 <__rc4>
    4fc5: 86 18        	stx	$18                     ; 0x18 <__rc22>
    4fc7: a6 07        	ldx	$7                      ; 0x7 <__rc5>
    4fc9: 86 19        	stx	$19                     ; 0x19 <__rc23>
    4fcb: a6 09        	ldx	$9                      ; 0x9 <__rc7>
    4fcd: 86 1c        	stx	$1c                     ; 0x1c <__rc26>
    4fcf: 64 1d        	stz	$1d                     ; 0x1d <__rc27>
    4fd1: a6 3d        	ldx	$3d                     ; 0x3d <worksectorasBAM.0>
    4fd3: a4 3e        	ldy	$3e                     ; 0x3e <worksectorasBAM.0+0x1>
    4fd5: 86 04        	stx	$4                      ; 0x4 <__rc2>
    4fd7: 84 05        	sty	$5                      ; 0x5 <__rc3>
    4fd9: a6 1c        	ldx	$1c                     ; 0x1c <__rc26>
    4fdb: 86 06        	stx	$6                      ; 0x6 <__rc4>
    4fdd: aa           	tax
    4fde: a5 19        	lda	$19                     ; 0x19 <__rc23>
    4fe0: 20 21 4e     	jsr	$4e21 <GetOneSector>
    4fe3: a9 00        	lda	#$0
    4fe5: 18           	clc
    4fe6: 65 1a        	adc	$1a                     ; 0x1a <__rc24>
    4fe8: 85 06        	sta	$6                      ; 0x6 <__rc4>
    4fea: a5 1d        	lda	$1d                     ; 0x1d <__rc27>
    4fec: 65 1b        	adc	$1b                     ; 0x1b <__rc25>
    4fee: 85 07        	sta	$7                      ; 0x7 <__rc5>
    4ff0: a9 00        	lda	#$0
    4ff2: 65 16        	adc	$16                     ; 0x16 <__rc20>
    4ff4: 85 08        	sta	$8                      ; 0x8 <__rc6>
    4ff6: a9 00        	lda	#$0
    4ff8: 65 17        	adc	$17                     ; 0x17 <__rc21>
    4ffa: a6 3b        	ldx	$3b                     ; 0x3b <worksector.0>
    4ffc: 86 0c        	stx	$c                      ; 0xc <__rc10>
    4ffe: a6 3c        	ldx	$3c                     ; 0x3c <worksector.0+0x1>
    5000: ac 00 18     	ldy	$1800                   ; 0x1800 <__bss_size+0x1049>
    5003: 84 1e        	sty	$1e                     ; 0x1e <__rc28>
    5005: ac 01 18     	ldy	$1801                   ; 0x1801 <__bss_size+0x104a>
    5008: 84 1c        	sty	$1c                     ; 0x1c <__rc26>
    500a: 85 09        	sta	$9                      ; 0x9 <__rc7>
    500c: 64 04        	stz	$4                      ; 0x4 <__rc2>
    500e: 64 05        	stz	$5                      ; 0x5 <__rc3>
    5010: 64 0a        	stz	$a                      ; 0xa <__rc8>
    5012: a0 01        	ldy	#$1
    5014: 84 0b        	sty	$b                      ; 0xb <__rc9>
    5016: a5 0c        	lda	$c                      ; 0xc <__rc10>
    5018: 20 0b 60     	jsr	$600b <lcopy>
    501b: a5 1e        	lda	$1e                     ; 0x1e <__rc28>
    501d: f0 2e        	beq	$504d <readblockchain+0xf8>
    501f: a5 1e        	lda	$1e                     ; 0x1e <__rc28>
    5021: a6 1d        	ldx	$1d                     ; 0x1d <__rc27>
    5023: e8           	inx
    5024: 86 1d        	stx	$1d                     ; 0x1d <__rc27>
    5026: e4 18        	cpx	$18                     ; 0x18 <__rc22>
    5028: f0 06        	beq	$5030 <readblockchain+0xdb>
    502a: 4c d1 4f     	jmp	$4fd1 <readblockchain+0x7c>
    502d: aa           	tax
    502e: f0 1d        	beq	$504d <readblockchain+0xf8>
    5030: a9 00        	lda	#$0
    5032: a2 65        	ldx	#$65
    5034: 86 04        	stx	$4                      ; 0x4 <__rc2>
    5036: a2 65        	ldx	#$65
    5038: 86 05        	stx	$5                      ; 0x5 <__rc3>
    503a: a2 e4        	ldx	#$e4
    503c: 86 06        	stx	$6                      ; 0x6 <__rc4>
    503e: a2 63        	ldx	#$63
    5040: 86 07        	stx	$7                      ; 0x7 <__rc5>
    5042: a2 49        	ldx	#$49
    5044: 86 08        	stx	$8                      ; 0x8 <__rc6>
    5046: a2 64        	ldx	#$64
    5048: 86 09        	stx	$9                      ; 0x9 <__rc7>
    504a: 20 cf 5a     	jsr	$5acf <messagebox>
    504d: a0 00        	ldy	#$0
    504f: b1 02        	lda	($2),y                  ; 0x2 <__rc0>
    5051: 85 1e        	sta	$1e                     ; 0x1e <__rc28>
    5053: c8           	iny
    5054: b1 02        	lda	($2),y                  ; 0x2 <__rc0>
    5056: 85 1d        	sta	$1d                     ; 0x1d <__rc27>
    5058: c8           	iny
    5059: b1 02        	lda	($2),y                  ; 0x2 <__rc0>
    505b: 85 1c        	sta	$1c                     ; 0x1c <__rc26>
    505d: c8           	iny
    505e: b1 02        	lda	($2),y                  ; 0x2 <__rc0>
    5060: 85 1b        	sta	$1b                     ; 0x1b <__rc25>
    5062: c8           	iny
    5063: b1 02        	lda	($2),y                  ; 0x2 <__rc0>
    5065: 85 1a        	sta	$1a                     ; 0x1a <__rc24>
    5067: fa           	plx
    5068: 86 19        	stx	$19                     ; 0x19 <__rc23>
    506a: fa           	plx
    506b: 86 18        	stx	$18                     ; 0x18 <__rc22>
    506d: fa           	plx
    506e: 86 17        	stx	$17                     ; 0x17 <__rc21>
    5070: fa           	plx
    5071: 86 16        	stx	$16                     ; 0x16 <__rc20>
    5073: 18           	clc
    5074: a5 02        	lda	$2                      ; 0x2 <__rc0>
    5076: 69 05        	adc	#$5
    5078: 85 02        	sta	$2                      ; 0x2 <__rc0>
    507a: a5 03        	lda	$3                      ; 0x3 <__rc1>
    507c: 69 00        	adc	#$0
    507e: 85 03        	sta	$3                      ; 0x3 <__rc1>
    5080: 60           	rts

00005081 <BAMSectorUpdate>:
    5081: a4 18        	ldy	$18                     ; 0x18 <__rc22>
    5083: 5a           	phy
    5084: a4 19        	ldy	$19                     ; 0x19 <__rc23>
    5086: 5a           	phy
    5087: a8           	tay
    5088: c9 29        	cmp	#$29
    508a: 90 0e        	bcc	$509a <BAMSectorUpdate+0x19>
    508c: a4 06        	ldy	$6                      ; 0x6 <__rc4>
    508e: 84 79        	sty	$79                     ; 0x79 <__zp_bss_size+0x43>
    5090: a4 07        	ldy	$7                      ; 0x7 <__rc5>
    5092: 84 7a        	sty	$7a                     ; 0x7a <__zp_bss_size+0x44>
    5094: 18           	clc
    5095: 69 d8        	adc	#$d8
    5097: a8           	tay
    5098: 80 08        	bra	$50a2 <BAMSectorUpdate+0x21>
    509a: a5 04        	lda	$4                      ; 0x4 <__rc2>
    509c: 85 79        	sta	$79                     ; 0x79 <__zp_bss_size+0x43>
    509e: a5 05        	lda	$5                      ; 0x5 <__rc3>
    50a0: 85 7a        	sta	$7a                     ; 0x7a <__zp_bss_size+0x44>
    50a2: 88           	dey
    50a3: 84 07        	sty	$7                      ; 0x7 <__rc5>
    50a5: a5 08        	lda	$8                      ; 0x8 <__rc6>
    50a7: f0 26        	beq	$50cf <BAMSectorUpdate+0x4e>
    50a9: 86 7b        	stx	$7b                     ; 0x7b <__zp_bss_size+0x45>
    50ab: e0 08        	cpx	#$8
    50ad: b0 49        	bcs	$50f8 <BAMSectorUpdate+0x77>
    50af: a2 06        	ldx	#$6
    50b1: 86 04        	stx	$4                      ; 0x4 <__rc2>
    50b3: 64 05        	stz	$5                      ; 0x5 <__rc3>
    50b5: a2 00        	ldx	#$0
    50b7: 86 7d        	stx	$7d                     ; 0x7d <__zp_bss_size+0x47>
    50b9: 98           	tya
    50ba: 84 7e        	sty	$7e                     ; 0x7e <__zp_bss_size+0x48>
    50bc: 20 a4 61     	jsr	$61a4 <__mulhi3>
    50bf: 18           	clc
    50c0: 65 79        	adc	$79                     ; 0x79 <__zp_bss_size+0x43>
    50c2: a8           	tay
    50c3: 8a           	txa
    50c4: 65 7a        	adc	$7a                     ; 0x7a <__zp_bss_size+0x44>
    50c6: 85 04        	sta	$4                      ; 0x4 <__rc2>
    50c8: 18           	clc
    50c9: 98           	tya
    50ca: 69 11        	adc	#$11
    50cc: 4c 3f 52     	jmp	$523f <BAMSectorUpdate+0x1be>
    50cf: 86 7b        	stx	$7b                     ; 0x7b <__zp_bss_size+0x45>
    50d1: e0 08        	cpx	#$8
    50d3: 90 03        	bcc	$50d8 <BAMSectorUpdate+0x57>
    50d5: 4c 2b 51     	jmp	$512b <BAMSectorUpdate+0xaa>
    50d8: a2 06        	ldx	#$6
    50da: 86 04        	stx	$4                      ; 0x4 <__rc2>
    50dc: 64 05        	stz	$5                      ; 0x5 <__rc3>
    50de: a2 00        	ldx	#$0
    50e0: 86 7d        	stx	$7d                     ; 0x7d <__zp_bss_size+0x47>
    50e2: 98           	tya
    50e3: 84 7e        	sty	$7e                     ; 0x7e <__zp_bss_size+0x48>
    50e5: 20 a4 61     	jsr	$61a4 <__mulhi3>
    50e8: 18           	clc
    50e9: 65 79        	adc	$79                     ; 0x79 <__zp_bss_size+0x43>
    50eb: a8           	tay
    50ec: 8a           	txa
    50ed: 65 7a        	adc	$7a                     ; 0x7a <__zp_bss_size+0x44>
    50ef: 85 04        	sta	$4                      ; 0x4 <__rc2>
    50f1: 18           	clc
    50f2: 98           	tya
    50f3: 69 11        	adc	#$11
    50f5: 4c 81 52     	jmp	$5281 <BAMSectorUpdate+0x200>
    50f8: e0 10        	cpx	#$10
    50fa: a2 00        	ldx	#$0
    50fc: 90 03        	bcc	$5101 <BAMSectorUpdate+0x80>
    50fe: 4c 58 51     	jmp	$5158 <BAMSectorUpdate+0xd7>
    5101: 18           	clc
    5102: a5 7b        	lda	$7b                     ; 0x7b <__zp_bss_size+0x45>
    5104: 69 f8        	adc	#$f8
    5106: 85 7b        	sta	$7b                     ; 0x7b <__zp_bss_size+0x45>
    5108: a0 06        	ldy	#$6
    510a: 64 05        	stz	$5                      ; 0x5 <__rc3>
    510c: 84 04        	sty	$4                      ; 0x4 <__rc2>
    510e: a0 00        	ldy	#$0
    5110: 84 7d        	sty	$7d                     ; 0x7d <__zp_bss_size+0x47>
    5112: a4 07        	ldy	$7                      ; 0x7 <__rc5>
    5114: 84 7e        	sty	$7e                     ; 0x7e <__zp_bss_size+0x48>
    5116: a5 07        	lda	$7                      ; 0x7 <__rc5>
    5118: 20 a4 61     	jsr	$61a4 <__mulhi3>
    511b: 18           	clc
    511c: 65 79        	adc	$79                     ; 0x79 <__zp_bss_size+0x43>
    511e: a8           	tay
    511f: 8a           	txa
    5120: 65 7a        	adc	$7a                     ; 0x7a <__zp_bss_size+0x44>
    5122: 85 04        	sta	$4                      ; 0x4 <__rc2>
    5124: 18           	clc
    5125: 98           	tya
    5126: 69 12        	adc	#$12
    5128: 4c 3f 52     	jmp	$523f <BAMSectorUpdate+0x1be>
    512b: e0 10        	cpx	#$10
    512d: 90 03        	bcc	$5132 <BAMSectorUpdate+0xb1>
    512f: 4c 8b 51     	jmp	$518b <BAMSectorUpdate+0x10a>
    5132: 18           	clc
    5133: 8a           	txa
    5134: 69 f8        	adc	#$f8
    5136: 85 7b        	sta	$7b                     ; 0x7b <__zp_bss_size+0x45>
    5138: a2 06        	ldx	#$6
    513a: 64 05        	stz	$5                      ; 0x5 <__rc3>
    513c: 86 04        	stx	$4                      ; 0x4 <__rc2>
    513e: a2 00        	ldx	#$0
    5140: 86 7d        	stx	$7d                     ; 0x7d <__zp_bss_size+0x47>
    5142: 84 7e        	sty	$7e                     ; 0x7e <__zp_bss_size+0x48>
    5144: 98           	tya
    5145: 20 a4 61     	jsr	$61a4 <__mulhi3>
    5148: 18           	clc
    5149: 65 79        	adc	$79                     ; 0x79 <__zp_bss_size+0x43>
    514b: a8           	tay
    514c: 8a           	txa
    514d: 65 7a        	adc	$7a                     ; 0x7a <__zp_bss_size+0x44>
    514f: 85 04        	sta	$4                      ; 0x4 <__rc2>
    5151: 18           	clc
    5152: 98           	tya
    5153: 69 12        	adc	#$12
    5155: 4c 81 52     	jmp	$5281 <BAMSectorUpdate+0x200>
    5158: a4 7b        	ldy	$7b                     ; 0x7b <__zp_bss_size+0x45>
    515a: c0 18        	cpy	#$18
    515c: 90 03        	bcc	$5161 <BAMSectorUpdate+0xe0>
    515e: 4c b8 51     	jmp	$51b8 <BAMSectorUpdate+0x137>
    5161: 18           	clc
    5162: a5 7b        	lda	$7b                     ; 0x7b <__zp_bss_size+0x45>
    5164: 69 f0        	adc	#$f0
    5166: 85 7b        	sta	$7b                     ; 0x7b <__zp_bss_size+0x45>
    5168: a0 06        	ldy	#$6
    516a: 64 05        	stz	$5                      ; 0x5 <__rc3>
    516c: 84 04        	sty	$4                      ; 0x4 <__rc2>
    516e: a0 00        	ldy	#$0
    5170: 84 7d        	sty	$7d                     ; 0x7d <__zp_bss_size+0x47>
    5172: a4 07        	ldy	$7                      ; 0x7 <__rc5>
    5174: 84 7e        	sty	$7e                     ; 0x7e <__zp_bss_size+0x48>
    5176: a5 07        	lda	$7                      ; 0x7 <__rc5>
    5178: 20 a4 61     	jsr	$61a4 <__mulhi3>
    517b: 18           	clc
    517c: 65 79        	adc	$79                     ; 0x79 <__zp_bss_size+0x43>
    517e: a8           	tay
    517f: 8a           	txa
    5180: 65 7a        	adc	$7a                     ; 0x7a <__zp_bss_size+0x44>
    5182: 85 04        	sta	$4                      ; 0x4 <__rc2>
    5184: 18           	clc
    5185: 98           	tya
    5186: 69 13        	adc	#$13
    5188: 4c 3f 52     	jmp	$523f <BAMSectorUpdate+0x1be>
    518b: e0 18        	cpx	#$18
    518d: 90 03        	bcc	$5192 <BAMSectorUpdate+0x111>
    518f: 4c eb 51     	jmp	$51eb <BAMSectorUpdate+0x16a>
    5192: 18           	clc
    5193: 8a           	txa
    5194: 69 f0        	adc	#$f0
    5196: 85 7b        	sta	$7b                     ; 0x7b <__zp_bss_size+0x45>
    5198: a2 06        	ldx	#$6
    519a: 64 05        	stz	$5                      ; 0x5 <__rc3>
    519c: 86 04        	stx	$4                      ; 0x4 <__rc2>
    519e: a2 00        	ldx	#$0
    51a0: 86 7d        	stx	$7d                     ; 0x7d <__zp_bss_size+0x47>
    51a2: 98           	tya
    51a3: 84 7e        	sty	$7e                     ; 0x7e <__zp_bss_size+0x48>
    51a5: 20 a4 61     	jsr	$61a4 <__mulhi3>
    51a8: 18           	clc
    51a9: 65 79        	adc	$79                     ; 0x79 <__zp_bss_size+0x43>
    51ab: a8           	tay
    51ac: 8a           	txa
    51ad: 65 7a        	adc	$7a                     ; 0x7a <__zp_bss_size+0x44>
    51af: 85 04        	sta	$4                      ; 0x4 <__rc2>
    51b1: 18           	clc
    51b2: 98           	tya
    51b3: 69 13        	adc	#$13
    51b5: 4c 81 52     	jmp	$5281 <BAMSectorUpdate+0x200>
    51b8: a4 7b        	ldy	$7b                     ; 0x7b <__zp_bss_size+0x45>
    51ba: c0 20        	cpy	#$20
    51bc: 90 03        	bcc	$51c1 <BAMSectorUpdate+0x140>
    51be: 4c 18 52     	jmp	$5218 <BAMSectorUpdate+0x197>
    51c1: 18           	clc
    51c2: a5 7b        	lda	$7b                     ; 0x7b <__zp_bss_size+0x45>
    51c4: 69 e8        	adc	#$e8
    51c6: 85 7b        	sta	$7b                     ; 0x7b <__zp_bss_size+0x45>
    51c8: a0 06        	ldy	#$6
    51ca: 64 05        	stz	$5                      ; 0x5 <__rc3>
    51cc: 84 04        	sty	$4                      ; 0x4 <__rc2>
    51ce: a0 00        	ldy	#$0
    51d0: 84 7d        	sty	$7d                     ; 0x7d <__zp_bss_size+0x47>
    51d2: a5 07        	lda	$7                      ; 0x7 <__rc5>
    51d4: a4 07        	ldy	$7                      ; 0x7 <__rc5>
    51d6: 84 7e        	sty	$7e                     ; 0x7e <__zp_bss_size+0x48>
    51d8: 20 a4 61     	jsr	$61a4 <__mulhi3>
    51db: 18           	clc
    51dc: 65 79        	adc	$79                     ; 0x79 <__zp_bss_size+0x43>
    51de: a8           	tay
    51df: 8a           	txa
    51e0: 65 7a        	adc	$7a                     ; 0x7a <__zp_bss_size+0x44>
    51e2: 85 04        	sta	$4                      ; 0x4 <__rc2>
    51e4: 18           	clc
    51e5: 98           	tya
    51e6: 69 14        	adc	#$14
    51e8: 4c 3f 52     	jmp	$523f <BAMSectorUpdate+0x1be>
    51eb: e0 20        	cpx	#$20
    51ed: 90 03        	bcc	$51f2 <BAMSectorUpdate+0x171>
    51ef: 4c 5e 52     	jmp	$525e <BAMSectorUpdate+0x1dd>
    51f2: 18           	clc
    51f3: 8a           	txa
    51f4: 69 e8        	adc	#$e8
    51f6: 85 7b        	sta	$7b                     ; 0x7b <__zp_bss_size+0x45>
    51f8: a2 06        	ldx	#$6
    51fa: 64 05        	stz	$5                      ; 0x5 <__rc3>
    51fc: 86 04        	stx	$4                      ; 0x4 <__rc2>
    51fe: a2 00        	ldx	#$0
    5200: 86 7d        	stx	$7d                     ; 0x7d <__zp_bss_size+0x47>
    5202: 98           	tya
    5203: 84 7e        	sty	$7e                     ; 0x7e <__zp_bss_size+0x48>
    5205: 20 a4 61     	jsr	$61a4 <__mulhi3>
    5208: 18           	clc
    5209: 65 79        	adc	$79                     ; 0x79 <__zp_bss_size+0x43>
    520b: a8           	tay
    520c: 8a           	txa
    520d: 65 7a        	adc	$7a                     ; 0x7a <__zp_bss_size+0x44>
    520f: 85 04        	sta	$4                      ; 0x4 <__rc2>
    5211: 18           	clc
    5212: 98           	tya
    5213: 69 14        	adc	#$14
    5215: 4c 81 52     	jmp	$5281 <BAMSectorUpdate+0x200>
    5218: 18           	clc
    5219: a5 7b        	lda	$7b                     ; 0x7b <__zp_bss_size+0x45>
    521b: 69 e0        	adc	#$e0
    521d: 85 7b        	sta	$7b                     ; 0x7b <__zp_bss_size+0x45>
    521f: a0 06        	ldy	#$6
    5221: 64 05        	stz	$5                      ; 0x5 <__rc3>
    5223: 84 04        	sty	$4                      ; 0x4 <__rc2>
    5225: a0 00        	ldy	#$0
    5227: 84 7d        	sty	$7d                     ; 0x7d <__zp_bss_size+0x47>
    5229: a5 07        	lda	$7                      ; 0x7 <__rc5>
    522b: a4 07        	ldy	$7                      ; 0x7 <__rc5>
    522d: 84 7e        	sty	$7e                     ; 0x7e <__zp_bss_size+0x48>
    522f: 20 a4 61     	jsr	$61a4 <__mulhi3>
    5232: 18           	clc
    5233: 65 79        	adc	$79                     ; 0x79 <__zp_bss_size+0x43>
    5235: a8           	tay
    5236: 8a           	txa
    5237: 65 7a        	adc	$7a                     ; 0x7a <__zp_bss_size+0x44>
    5239: 85 04        	sta	$4                      ; 0x4 <__rc2>
    523b: 18           	clc
    523c: 98           	tya
    523d: 69 15        	adc	#$15
    523f: 85 18        	sta	$18                     ; 0x18 <__rc22>
    5241: a5 04        	lda	$4                      ; 0x4 <__rc2>
    5243: 69 00        	adc	#$0
    5245: 85 19        	sta	$19                     ; 0x19 <__rc23>
    5247: a9 01        	lda	#$1
    5249: a2 00        	ldx	#$0
    524b: a4 7b        	ldy	$7b                     ; 0x7b <__zp_bss_size+0x45>
    524d: 84 04        	sty	$4                      ; 0x4 <__rc2>
    524f: 20 76 61     	jsr	$6176 <__ashlhi3>
    5252: 49 ff        	eor	#$ff
    5254: 32 18        	and	($18),z                 ; 0x18 <__rc22>
    5256: 92 18        	sta	($18),z                 ; 0x18 <__rc22>
    5258: a2 ff        	ldx	#$ff
    525a: 86 7c        	stx	$7c                     ; 0x7c <__zp_bss_size+0x46>
    525c: 80 3d        	bra	$529b <BAMSectorUpdate+0x21a>
    525e: 18           	clc
    525f: 8a           	txa
    5260: 69 e0        	adc	#$e0
    5262: 85 7b        	sta	$7b                     ; 0x7b <__zp_bss_size+0x45>
    5264: a2 06        	ldx	#$6
    5266: 64 05        	stz	$5                      ; 0x5 <__rc3>
    5268: 86 04        	stx	$4                      ; 0x4 <__rc2>
    526a: a2 00        	ldx	#$0
    526c: 86 7d        	stx	$7d                     ; 0x7d <__zp_bss_size+0x47>
    526e: 98           	tya
    526f: 84 7e        	sty	$7e                     ; 0x7e <__zp_bss_size+0x48>
    5271: 20 a4 61     	jsr	$61a4 <__mulhi3>
    5274: 18           	clc
    5275: 65 79        	adc	$79                     ; 0x79 <__zp_bss_size+0x43>
    5277: a8           	tay
    5278: 8a           	txa
    5279: 65 7a        	adc	$7a                     ; 0x7a <__zp_bss_size+0x44>
    527b: 85 04        	sta	$4                      ; 0x4 <__rc2>
    527d: 18           	clc
    527e: 98           	tya
    527f: 69 15        	adc	#$15
    5281: 85 18        	sta	$18                     ; 0x18 <__rc22>
    5283: a5 04        	lda	$4                      ; 0x4 <__rc2>
    5285: 69 00        	adc	#$0
    5287: 85 19        	sta	$19                     ; 0x19 <__rc23>
    5289: a6 7b        	ldx	$7b                     ; 0x7b <__zp_bss_size+0x45>
    528b: 86 04        	stx	$4                      ; 0x4 <__rc2>
    528d: a2 00        	ldx	#$0
    528f: a9 01        	lda	#$1
    5291: a8           	tay
    5292: 84 7c        	sty	$7c                     ; 0x7c <__zp_bss_size+0x46>
    5294: 20 76 61     	jsr	$6176 <__ashlhi3>
    5297: 12 18        	ora	($18),z                 ; 0x18 <__rc22>
    5299: 92 18        	sta	($18),z                 ; 0x18 <__rc22>
    529b: a6 7d        	ldx	$7d                     ; 0x7d <__zp_bss_size+0x47>
    529d: a5 7e        	lda	$7e                     ; 0x7e <__zp_bss_size+0x48>
    529f: a0 06        	ldy	#$6
    52a1: 64 05        	stz	$5                      ; 0x5 <__rc3>
    52a3: 84 04        	sty	$4                      ; 0x4 <__rc2>
    52a5: 20 a4 61     	jsr	$61a4 <__mulhi3>
    52a8: 86 04        	stx	$4                      ; 0x4 <__rc2>
    52aa: 18           	clc
    52ab: 65 79        	adc	$79                     ; 0x79 <__zp_bss_size+0x43>
    52ad: 85 06        	sta	$6                      ; 0x6 <__rc4>
    52af: a5 7a        	lda	$7a                     ; 0x7a <__zp_bss_size+0x44>
    52b1: 65 04        	adc	$4                      ; 0x4 <__rc2>
    52b3: 85 07        	sta	$7                      ; 0x7 <__rc5>
    52b5: a0 10        	ldy	#$10
    52b7: 18           	clc
    52b8: a5 7c        	lda	$7c                     ; 0x7c <__zp_bss_size+0x46>
    52ba: 71 06        	adc	($6),y                  ; 0x6 <__rc4>
    52bc: 91 06        	sta	($6),y                  ; 0x6 <__rc4>
    52be: fa           	plx
    52bf: 86 19        	stx	$19                     ; 0x19 <__rc23>
    52c1: fa           	plx
    52c2: 86 18        	stx	$18                     ; 0x18 <__rc22>
    52c4: 60           	rts

000052c5 <findnextBAMtracksector>:
    52c5: a6 04        	ldx	$4                      ; 0x4 <__rc2>
    52c7: 86 77        	stx	$77                     ; 0x77 <__zp_bss_size+0x41>
    52c9: a6 05        	ldx	$5                      ; 0x5 <__rc3>
    52cb: 86 78        	stx	$78                     ; 0x78 <__zp_bss_size+0x42>
    52cd: a6 06        	ldx	$6                      ; 0x6 <__rc4>
    52cf: 86 6d        	stx	$6d                     ; 0x6d <__zp_bss_size+0x37>
    52d1: a6 07        	ldx	$7                      ; 0x7 <__rc5>
    52d3: 86 6e        	stx	$6e                     ; 0x6e <__zp_bss_size+0x38>
    52d5: 64 05        	stz	$5                      ; 0x5 <__rc3>
    52d7: a6 37        	ldx	$37                     ; 0x37 <BAMsector.0>
    52d9: 86 75        	stx	$75                     ; 0x75 <__zp_bss_size+0x3f>
    52db: 86 6f        	stx	$6f                     ; 0x6f <__zp_bss_size+0x39>
    52dd: a6 38        	ldx	$38                     ; 0x38 <BAMsector.0+0x1>
    52df: 86 76        	stx	$76                     ; 0x76 <__zp_bss_size+0x40>
    52e1: 86 70        	stx	$70                     ; 0x70 <__zp_bss_size+0x3a>
    52e3: a9 06        	lda	#$6
    52e5: a2 00        	ldx	#$0
    52e7: a0 00        	ldy	#$0
    52e9: 85 04        	sta	$4                      ; 0x4 <__rc2>
    52eb: 84 74        	sty	$74                     ; 0x74 <__zp_bss_size+0x3e>
    52ed: 98           	tya
    52ee: 20 a4 61     	jsr	$61a4 <__mulhi3>
    52f1: 85 04        	sta	$4                      ; 0x4 <__rc2>
    52f3: 86 05        	stx	$5                      ; 0x5 <__rc3>
    52f5: a5 75        	lda	$75                     ; 0x75 <__zp_bss_size+0x3f>
    52f7: 18           	clc
    52f8: 65 04        	adc	$4                      ; 0x4 <__rc2>
    52fa: 85 71        	sta	$71                     ; 0x71 <__zp_bss_size+0x3b>
    52fc: a5 76        	lda	$76                     ; 0x76 <__zp_bss_size+0x40>
    52fe: 65 05        	adc	$5                      ; 0x5 <__rc3>
    5300: 85 72        	sta	$72                     ; 0x72 <__zp_bss_size+0x3c>
    5302: a2 00        	ldx	#$0
    5304: 4c 5f 53     	jmp	$535f <findnextBAMtracksector+0x9a>
    5307: e0 10        	cpx	#$10
    5309: b0 0e        	bcs	$5319 <findnextBAMtracksector+0x54>
    530b: a0 12        	ldy	#$12
    530d: b1 71        	lda	($71),y                 ; 0x71 <__zp_bss_size+0x3b>
    530f: 85 73        	sta	$73                     ; 0x73 <__zp_bss_size+0x3d>
    5311: 86 6c        	stx	$6c                     ; 0x6c <__zp_bss_size+0x36>
    5313: 8a           	txa
    5314: 18           	clc
    5315: 69 f8        	adc	#$f8
    5317: 80 30        	bra	$5349 <findnextBAMtracksector+0x84>
    5319: e0 18        	cpx	#$18
    531b: b0 0e        	bcs	$532b <findnextBAMtracksector+0x66>
    531d: a0 13        	ldy	#$13
    531f: b1 71        	lda	($71),y                 ; 0x71 <__zp_bss_size+0x3b>
    5321: 85 73        	sta	$73                     ; 0x73 <__zp_bss_size+0x3d>
    5323: 86 6c        	stx	$6c                     ; 0x6c <__zp_bss_size+0x36>
    5325: 8a           	txa
    5326: 18           	clc
    5327: 69 f0        	adc	#$f0
    5329: 80 1e        	bra	$5349 <findnextBAMtracksector+0x84>
    532b: e0 20        	cpx	#$20
    532d: b0 0e        	bcs	$533d <findnextBAMtracksector+0x78>
    532f: a0 14        	ldy	#$14
    5331: b1 71        	lda	($71),y                 ; 0x71 <__zp_bss_size+0x3b>
    5333: 85 73        	sta	$73                     ; 0x73 <__zp_bss_size+0x3d>
    5335: 86 6c        	stx	$6c                     ; 0x6c <__zp_bss_size+0x36>
    5337: 8a           	txa
    5338: 18           	clc
    5339: 69 e8        	adc	#$e8
    533b: 80 0c        	bra	$5349 <findnextBAMtracksector+0x84>
    533d: a0 15        	ldy	#$15
    533f: b1 71        	lda	($71),y                 ; 0x71 <__zp_bss_size+0x3b>
    5341: 85 73        	sta	$73                     ; 0x73 <__zp_bss_size+0x3d>
    5343: 86 6c        	stx	$6c                     ; 0x6c <__zp_bss_size+0x36>
    5345: 8a           	txa
    5346: 18           	clc
    5347: 69 e0        	adc	#$e0
    5349: 85 04        	sta	$4                      ; 0x4 <__rc2>
    534b: a2 00        	ldx	#$0
    534d: a9 01        	lda	#$1
    534f: 20 76 61     	jsr	$6176 <__ashlhi3>
    5352: 25 73        	and	$73                     ; 0x73 <__zp_bss_size+0x3d>
    5354: d0 34        	bne	$538a <findnextBAMtracksector+0xc5>
    5356: a5 6c        	lda	$6c                     ; 0x6c <__zp_bss_size+0x36>
    5358: a6 6c        	ldx	$6c                     ; 0x6c <__zp_bss_size+0x36>
    535a: e8           	inx
    535b: c9 27        	cmp	#$27
    535d: b0 13        	bcs	$5372 <findnextBAMtracksector+0xad>
    535f: e0 08        	cpx	#$8
    5361: 90 03        	bcc	$5366 <findnextBAMtracksector+0xa1>
    5363: 4c 07 53     	jmp	$5307 <findnextBAMtracksector+0x42>
    5366: a0 11        	ldy	#$11
    5368: 86 04        	stx	$4                      ; 0x4 <__rc2>
    536a: b1 71        	lda	($71),y                 ; 0x71 <__zp_bss_size+0x3b>
    536c: 85 73        	sta	$73                     ; 0x73 <__zp_bss_size+0x3d>
    536e: 86 6c        	stx	$6c                     ; 0x6c <__zp_bss_size+0x36>
    5370: 80 d9        	bra	$534b <findnextBAMtracksector+0x86>
    5372: a5 74        	lda	$74                     ; 0x74 <__zp_bss_size+0x3e>
    5374: a4 74        	ldy	$74                     ; 0x74 <__zp_bss_size+0x3e>
    5376: c8           	iny
    5377: a2 00        	ldx	#$0
    5379: c9 4f        	cmp	#$4f
    537b: 64 05        	stz	$5                      ; 0x5 <__rc3>
    537d: a9 06        	lda	#$6
    537f: b0 03        	bcs	$5384 <findnextBAMtracksector+0xbf>
    5381: 4c e9 52     	jmp	$52e9 <findnextBAMtracksector+0x24>
    5384: a9 ff        	lda	#$ff
    5386: 64 6c        	stz	$6c                     ; 0x6c <__zp_bss_size+0x36>
    5388: 80 23        	bra	$53ad <findnextBAMtracksector+0xe8>
    538a: a6 39        	ldx	$39                     ; 0x39 <BAMsector.1>
    538c: 86 06        	stx	$6                      ; 0x6 <__rc4>
    538e: a6 3a        	ldx	$3a                     ; 0x3a <BAMsector.1+0x1>
    5390: 86 07        	stx	$7                      ; 0x7 <__rc5>
    5392: a2 01        	ldx	#$1
    5394: a4 74        	ldy	$74                     ; 0x74 <__zp_bss_size+0x3e>
    5396: 84 71        	sty	$71                     ; 0x71 <__zp_bss_size+0x3b>
    5398: e6 71        	inc	$71                     ; 0x71 <__zp_bss_size+0x3b>
    539a: a4 6f        	ldy	$6f                     ; 0x6f <__zp_bss_size+0x39>
    539c: 84 04        	sty	$4                      ; 0x4 <__rc2>
    539e: a4 70        	ldy	$70                     ; 0x70 <__zp_bss_size+0x3a>
    53a0: 84 05        	sty	$5                      ; 0x5 <__rc3>
    53a2: 86 08        	stx	$8                      ; 0x8 <__rc6>
    53a4: a6 6c        	ldx	$6c                     ; 0x6c <__zp_bss_size+0x36>
    53a6: a5 71        	lda	$71                     ; 0x71 <__zp_bss_size+0x3b>
    53a8: 20 81 50     	jsr	$5081 <BAMSectorUpdate>
    53ab: a5 71        	lda	$71                     ; 0x71 <__zp_bss_size+0x3b>
    53ad: a6 77        	ldx	$77                     ; 0x77 <__zp_bss_size+0x41>
    53af: 86 04        	stx	$4                      ; 0x4 <__rc2>
    53b1: a6 78        	ldx	$78                     ; 0x78 <__zp_bss_size+0x42>
    53b3: 86 05        	stx	$5                      ; 0x5 <__rc3>
    53b5: 92 04        	sta	($4),z                  ; 0x4 <__rc2>
    53b7: a5 6c        	lda	$6c                     ; 0x6c <__zp_bss_size+0x36>
    53b9: 92 6d        	sta	($6d),z                 ; 0x6d <__zp_bss_size+0x37>
    53bb: 60           	rts

000053bc <getdirententry>:
    53bc: 86 6e        	stx	$6e                     ; 0x6e <__zp_bss_size+0x38>
    53be: 64 73        	stz	$73                     ; 0x73 <__zp_bss_size+0x3d>
    53c0: 64 37        	stz	$37                     ; 0x37 <BAMsector.0>
    53c2: a2 16        	ldx	#$16
    53c4: 86 38        	stx	$38                     ; 0x38 <BAMsector.0+0x1>
    53c6: 64 39        	stz	$39                     ; 0x39 <BAMsector.1>
    53c8: e8           	inx
    53c9: 86 3a        	stx	$3a                     ; 0x3a <BAMsector.1+0x1>
    53cb: 64 3b        	stz	$3b                     ; 0x3b <worksector.0>
    53cd: e8           	inx
    53ce: 86 3c        	stx	$3c                     ; 0x3c <worksector.0+0x1>
    53d0: 64 3d        	stz	$3d                     ; 0x3d <worksectorasBAM.0>
    53d2: 86 3e        	stx	$3e                     ; 0x3e <worksectorasBAM.0+0x1>
    53d4: 64 3f        	stz	$3f                     ; 0x3f <direntryblock.0>
    53d6: a2 1a        	ldx	#$1a
    53d8: 86 40        	stx	$40                     ; 0x40 <direntryblock.0+0x1>
    53da: 64 41        	stz	$41                     ; 0x41 <direntryblock.1>
    53dc: e8           	inx
    53dd: 86 42        	stx	$42                     ; 0x42 <direntryblock.1+0x1>
    53df: 9c 80 d0     	stz	$d080                   ; 0xd080 <__heap_start+0x6296>
    53e2: a6 3f        	ldx	$3f                     ; 0x3f <direntryblock.0>
    53e4: a4 40        	ldy	$40                     ; 0x40 <direntryblock.0+0x1>
    53e6: 86 6c        	stx	$6c                     ; 0x6c <__zp_bss_size+0x36>
    53e8: 86 70        	stx	$70                     ; 0x70 <__zp_bss_size+0x3a>
    53ea: 84 6d        	sty	$6d                     ; 0x6d <__zp_bss_size+0x37>
    53ec: 84 71        	sty	$71                     ; 0x71 <__zp_bss_size+0x3b>
    53ee: a2 0e        	ldx	#$e
    53f0: 64 04        	stz	$4                      ; 0x4 <__rc2>
    53f2: 64 05        	stz	$5                      ; 0x5 <__rc3>
    53f4: 64 06        	stz	$6                      ; 0x6 <__rc4>
    53f6: 86 07        	stx	$7                      ; 0x7 <__rc5>
    53f8: 64 08        	stz	$8                      ; 0x8 <__rc6>
    53fa: 64 09        	stz	$9                      ; 0x9 <__rc7>
    53fc: a2 00        	ldx	#$0
    53fe: 20 d6 61     	jsr	$61d6 <__mulsi3>
    5401: 85 6f        	sta	$6f                     ; 0x6f <__zp_bss_size+0x39>
    5403: 86 72        	stx	$72                     ; 0x72 <__zp_bss_size+0x3c>
    5405: a6 71        	ldx	$71                     ; 0x71 <__zp_bss_size+0x3b>
    5407: 86 07        	stx	$7                      ; 0x7 <__rc5>
    5409: a6 70        	ldx	$70                     ; 0x70 <__zp_bss_size+0x3a>
    540b: 86 06        	stx	$6                      ; 0x6 <__rc4>
    540d: a5 05        	lda	$5                      ; 0x5 <__rc3>
    540f: a2 08        	ldx	#$8
    5411: 86 78        	stx	$78                     ; 0x78 <__zp_bss_size+0x42>
    5413: 09 08        	ora	#$8
    5415: 85 77        	sta	$77                     ; 0x77 <__zp_bss_size+0x41>
    5417: a2 20        	ldx	#$20
    5419: a0 00        	ldy	#$0
    541b: 98           	tya
    541c: 64 71        	stz	$71                     ; 0x71 <__zp_bss_size+0x3b>
    541e: 4a           	lsr
    541f: 84 70        	sty	$70                     ; 0x70 <__zp_bss_size+0x3a>
    5421: 85 05        	sta	$5                      ; 0x5 <__rc3>
    5423: 98           	tya
    5424: 6a           	ror
    5425: a8           	tay
    5426: a9 00        	lda	#$0
    5428: 6a           	ror
    5429: 46 05        	lsr	$5                      ; 0x5 <__rc3>
    542b: 84 08        	sty	$8                      ; 0x8 <__rc6>
    542d: 66 08        	ror	$8                      ; 0x8 <__rc6>
    542f: 6a           	ror
    5430: 46 05        	lsr	$5                      ; 0x5 <__rc3>
    5432: a4 08        	ldy	$8                      ; 0x8 <__rc6>
    5434: 84 05        	sty	$5                      ; 0x5 <__rc3>
    5436: 66 05        	ror	$5                      ; 0x5 <__rc3>
    5438: 6a           	ror
    5439: 18           	clc
    543a: 65 6f        	adc	$6f                     ; 0x6f <__zp_bss_size+0x39>
    543c: 85 0d        	sta	$d                      ; 0xd <__rc11>
    543e: a5 05        	lda	$5                      ; 0x5 <__rc3>
    5440: 65 72        	adc	$72                     ; 0x72 <__zp_bss_size+0x3c>
    5442: 85 0c        	sta	$c                      ; 0xc <__rc10>
    5444: a4 04        	ldy	$4                      ; 0x4 <__rc2>
    5446: 84 76        	sty	$76                     ; 0x76 <__zp_bss_size+0x40>
    5448: a5 04        	lda	$4                      ; 0x4 <__rc2>
    544a: 69 00        	adc	#$0
    544c: 85 04        	sta	$4                      ; 0x4 <__rc2>
    544e: a5 77        	lda	$77                     ; 0x77 <__zp_bss_size+0x41>
    5450: 69 00        	adc	#$0
    5452: 85 05        	sta	$5                      ; 0x5 <__rc3>
    5454: a4 06        	ldy	$6                      ; 0x6 <__rc4>
    5456: 84 74        	sty	$74                     ; 0x74 <__zp_bss_size+0x3e>
    5458: a4 07        	ldy	$7                      ; 0x7 <__rc5>
    545a: 84 75        	sty	$75                     ; 0x75 <__zp_bss_size+0x3f>
    545c: 64 08        	stz	$8                      ; 0x8 <__rc6>
    545e: 64 09        	stz	$9                      ; 0x9 <__rc7>
    5460: 86 0a        	stx	$a                      ; 0xa <__rc8>
    5462: 64 0b        	stz	$b                      ; 0xb <__rc9>
    5464: a6 0c        	ldx	$c                      ; 0xc <__rc10>
    5466: a5 0d        	lda	$d                      ; 0xd <__rc11>
    5468: 20 0b 60     	jsr	$600b <lcopy>
    546b: ae 03 1a     	ldx	$1a03                   ; 0x1a03 <__bss_size+0x124c>
    546e: f0 52        	beq	$54c2 <getdirententry+0x106>
    5470: ae 00 1a     	ldx	$1a00                   ; 0x1a00 <__bss_size+0x1249>
    5473: f0 0f        	beq	$5484 <getdirententry+0xc8>
    5475: 18           	clc
    5476: a5 78        	lda	$78                     ; 0x78 <__zp_bss_size+0x42>
    5478: 69 08        	adc	#$8
    547a: 85 04        	sta	$4                      ; 0x4 <__rc2>
    547c: a5 71        	lda	$71                     ; 0x71 <__zp_bss_size+0x3b>
    547e: 69 00        	adc	#$0
    5480: 85 05        	sta	$5                      ; 0x5 <__rc3>
    5482: 80 08        	bra	$548c <getdirententry+0xd0>
    5484: a6 78        	ldx	$78                     ; 0x78 <__zp_bss_size+0x42>
    5486: 86 04        	stx	$4                      ; 0x4 <__rc2>
    5488: a6 71        	ldx	$71                     ; 0x71 <__zp_bss_size+0x3b>
    548a: 86 05        	stx	$5                      ; 0x5 <__rc3>
    548c: a6 74        	ldx	$74                     ; 0x74 <__zp_bss_size+0x3e>
    548e: 86 06        	stx	$6                      ; 0x6 <__rc4>
    5490: a6 75        	ldx	$75                     ; 0x75 <__zp_bss_size+0x3f>
    5492: 86 07        	stx	$7                      ; 0x7 <__rc5>
    5494: a2 20        	ldx	#$20
    5496: a4 70        	ldy	$70                     ; 0x70 <__zp_bss_size+0x3a>
    5498: c4 6e        	cpy	$6e                     ; 0x6e <__zp_bss_size+0x38>
    549a: f0 2f        	beq	$54cb <getdirententry+0x10f>
    549c: c8           	iny
    549d: a9 00        	lda	#$0
    549f: c5 05        	cmp	$5                      ; 0x5 <__rc3>
    54a1: d0 06        	bne	$54a9 <getdirententry+0xed>
    54a3: c4 04        	cpy	$4                      ; 0x4 <__rc2>
    54a5: 90 06        	bcc	$54ad <getdirententry+0xf1>
    54a7: 80 19        	bra	$54c2 <getdirententry+0x106>
    54a9: c5 05        	cmp	$5                      ; 0x5 <__rc3>
    54ab: b0 15        	bcs	$54c2 <getdirententry+0x106>
    54ad: a5 04        	lda	$4                      ; 0x4 <__rc2>
    54af: 85 78        	sta	$78                     ; 0x78 <__zp_bss_size+0x42>
    54b1: a9 00        	lda	#$0
    54b3: 5a           	phy
    54b4: a4 05        	ldy	$5                      ; 0x5 <__rc3>
    54b6: 84 71        	sty	$71                     ; 0x71 <__zp_bss_size+0x3b>
    54b8: 64 73        	stz	$73                     ; 0x73 <__zp_bss_size+0x3d>
    54ba: a4 76        	ldy	$76                     ; 0x76 <__zp_bss_size+0x40>
    54bc: 84 04        	sty	$4                      ; 0x4 <__rc2>
    54be: 7a           	ply
    54bf: 4c 1e 54     	jmp	$541e <getdirententry+0x62>
    54c2: a2 00        	ldx	#$0
    54c4: 86 04        	stx	$4                      ; 0x4 <__rc2>
    54c6: a2 00        	ldx	#$0
    54c8: 86 05        	stx	$5                      ; 0x5 <__rc3>
    54ca: 60           	rts
    54cb: a6 6c        	ldx	$6c                     ; 0x6c <__zp_bss_size+0x36>
    54cd: 86 04        	stx	$4                      ; 0x4 <__rc2>
    54cf: a6 6d        	ldx	$6d                     ; 0x6d <__zp_bss_size+0x37>
    54d1: 80 f5        	bra	$54c8 <getdirententry+0x10c>

000054d3 <getdirent>:
    54d3: a4 16        	ldy	$16                     ; 0x16 <__rc20>
    54d5: 5a           	phy
    54d6: a4 17        	ldy	$17                     ; 0x17 <__rc21>
    54d8: 5a           	phy
    54d9: a4 18        	ldy	$18                     ; 0x18 <__rc22>
    54db: 5a           	phy
    54dc: a4 19        	ldy	$19                     ; 0x19 <__rc23>
    54de: 5a           	phy
    54df: 85 17        	sta	$17                     ; 0x17 <__rc21>
    54e1: 86 16        	stx	$16                     ; 0x16 <__rc20>
    54e3: 64 37        	stz	$37                     ; 0x37 <BAMsector.0>
    54e5: a2 16        	ldx	#$16
    54e7: 86 38        	stx	$38                     ; 0x38 <BAMsector.0+0x1>
    54e9: 64 39        	stz	$39                     ; 0x39 <BAMsector.1>
    54eb: e8           	inx
    54ec: 86 3a        	stx	$3a                     ; 0x3a <BAMsector.1+0x1>
    54ee: 64 3b        	stz	$3b                     ; 0x3b <worksector.0>
    54f0: e8           	inx
    54f1: 86 3c        	stx	$3c                     ; 0x3c <worksector.0+0x1>
    54f3: 64 3d        	stz	$3d                     ; 0x3d <worksectorasBAM.0>
    54f5: 86 3e        	stx	$3e                     ; 0x3e <worksectorasBAM.0+0x1>
    54f7: 64 3f        	stz	$3f                     ; 0x3f <direntryblock.0>
    54f9: a2 1a        	ldx	#$1a
    54fb: 86 40        	stx	$40                     ; 0x40 <direntryblock.0+0x1>
    54fd: 64 41        	stz	$41                     ; 0x41 <direntryblock.1>
    54ff: e8           	inx
    5500: 86 42        	stx	$42                     ; 0x42 <direntryblock.1+0x1>
    5502: 9c 80 d0     	stz	$d080                   ; 0xd080 <__heap_start+0x6296>
    5505: a2 0e        	ldx	#$e
    5507: 64 04        	stz	$4                      ; 0x4 <__rc2>
    5509: 64 05        	stz	$5                      ; 0x5 <__rc3>
    550b: 64 06        	stz	$6                      ; 0x6 <__rc4>
    550d: 86 07        	stx	$7                      ; 0x7 <__rc5>
    550f: 64 08        	stz	$8                      ; 0x8 <__rc6>
    5511: 64 09        	stz	$9                      ; 0x9 <__rc7>
    5513: a2 00        	ldx	#$0
    5515: a5 16        	lda	$16                     ; 0x16 <__rc20>
    5517: 20 d6 61     	jsr	$61d6 <__mulsi3>
    551a: a8           	tay
    551b: a5 05        	lda	$5                      ; 0x5 <__rc3>
    551d: 09 08        	ora	#$8
    551f: 85 05        	sta	$5                      ; 0x5 <__rc3>
    5521: a9 0e        	lda	#$e
    5523: 85 06        	sta	$6                      ; 0x6 <__rc4>
    5525: a5 17        	lda	$17                     ; 0x17 <__rc21>
    5527: 85 07        	sta	$7                      ; 0x7 <__rc5>
    5529: a9 28        	lda	#$28
    552b: 85 08        	sta	$8                      ; 0x8 <__rc6>
    552d: a9 03        	lda	#$3
    552f: 85 09        	sta	$9                      ; 0x9 <__rc7>
    5531: 98           	tya
    5532: 20 55 4f     	jsr	$4f55 <readblockchain>
    5535: a2 00        	ldx	#$0
    5537: 86 18        	stx	$18                     ; 0x18 <__rc22>
    5539: a2 00        	ldx	#$0
    553b: 86 19        	stx	$19                     ; 0x19 <__rc23>
    553d: a2 70        	ldx	#$70
    553f: 86 17        	stx	$17                     ; 0x17 <__rc21>
    5541: a5 16        	lda	$16                     ; 0x16 <__rc20>
    5543: 20 bc 53     	jsr	$53bc <getdirententry>
    5546: a6 05        	ldx	$5                      ; 0x5 <__rc3>
    5548: e4 19        	cpx	$19                     ; 0x19 <__rc23>
    554a: d0 0f        	bne	$555b <getdirent+0x88>
    554c: a6 04        	ldx	$4                      ; 0x4 <__rc2>
    554e: e4 18        	cpx	$18                     ; 0x18 <__rc22>
    5550: d0 09        	bne	$555b <getdirent+0x88>
    5552: a6 17        	ldx	$17                     ; 0x17 <__rc21>
    5554: ca           	dex
    5555: d0 e8        	bne	$553f <getdirent+0x6c>
    5557: a9 00        	lda	#$0
    5559: 80 02        	bra	$555d <getdirent+0x8a>
    555b: a5 17        	lda	$17                     ; 0x17 <__rc21>
    555d: fa           	plx
    555e: 86 19        	stx	$19                     ; 0x19 <__rc23>
    5560: fa           	plx
    5561: 86 18        	stx	$18                     ; 0x18 <__rc22>
    5563: fa           	plx
    5564: 86 17        	stx	$17                     ; 0x17 <__rc21>
    5566: fa           	plx
    5567: 86 16        	stx	$16                     ; 0x16 <__rc20>
    5569: 60           	rts

0000556a <cputln>:
    556a: a6 55        	ldx	$55                     ; 0x55 <g_curScreenH>
    556c: 86 06        	stx	$6                      ; 0x6 <__rc4>
    556e: a6 57        	ldx	$57                     ; 0x57 <g_curY>
    5570: a9 00        	lda	#$0
    5572: da           	phx
    5573: 7a           	ply
    5574: c8           	iny
    5575: d0 01        	bne	$5578 <cputln+0xe>
    5577: 1a           	inc
    5578: c9 00        	cmp	#$0
    557a: d0 08        	bne	$5584 <cputln+0x1a>
    557c: c4 06        	cpy	$6                      ; 0x6 <__rc4>
    557e: b0 08        	bcs	$5588 <cputln+0x1e>
    5580: e8           	inx
    5581: 4c 9c 56     	jmp	$569c <cputln+0x132>
    5584: c9 00        	cmp	#$0
    5586: 90 f8        	bcc	$5580 <cputln+0x16>
    5588: a6 54        	ldx	$54                     ; 0x54 <g_curScreenW>
    558a: 86 04        	stx	$4                      ; 0x4 <__rc2>
    558c: 86 6c        	stx	$6c                     ; 0x6c <__zp_bss_size+0x36>
    558e: a2 00        	ldx	#$0
    5590: 64 05        	stz	$5                      ; 0x5 <__rc3>
    5592: a5 06        	lda	$6                      ; 0x6 <__rc4>
    5594: 20 a4 61     	jsr	$61a4 <__mulhi3>
    5597: 85 70        	sta	$70                     ; 0x70 <__zp_bss_size+0x3a>
    5599: 86 6f        	stx	$6f                     ; 0x6f <__zp_bss_size+0x39>
    559b: ad 63 d0     	lda	$d063                   ; 0xd063 <__heap_start+0x6279>
    559e: 29 07        	and	#$7
    55a0: a8           	tay
    55a1: ae 62 d0     	ldx	$d062                   ; 0xd062 <__heap_start+0x6278>
    55a4: 86 04        	stx	$4                      ; 0x4 <__rc2>
    55a6: ae 61 d0     	ldx	$d061                   ; 0xd061 <__heap_start+0x6277>
    55a9: 86 05        	stx	$5                      ; 0x5 <__rc3>
    55ab: ad 60 d0     	lda	$d060                   ; 0xd060 <__heap_start+0x6276>
    55ae: a6 6c        	ldx	$6c                     ; 0x6c <__zp_bss_size+0x36>
    55b0: 86 06        	stx	$6                      ; 0x6 <__rc4>
    55b2: 86 6c        	stx	$6c                     ; 0x6c <__zp_bss_size+0x36>
    55b4: 18           	clc
    55b5: 65 06        	adc	$6                      ; 0x6 <__rc4>
    55b7: 85 0c        	sta	$c                      ; 0xc <__rc10>
    55b9: a5 05        	lda	$5                      ; 0x5 <__rc3>
    55bb: 69 00        	adc	#$0
    55bd: 85 0d        	sta	$d                      ; 0xd <__rc11>
    55bf: a5 04        	lda	$4                      ; 0x4 <__rc2>
    55c1: 69 00        	adc	#$0
    55c3: 85 04        	sta	$4                      ; 0x4 <__rc2>
    55c5: 98           	tya
    55c6: 69 00        	adc	#$0
    55c8: 85 05        	sta	$5                      ; 0x5 <__rc3>
    55ca: ad 63 d0     	lda	$d063                   ; 0xd063 <__heap_start+0x6279>
    55cd: 29 07        	and	#$7
    55cf: 85 09        	sta	$9                      ; 0x9 <__rc7>
    55d1: a5 70        	lda	$70                     ; 0x70 <__zp_bss_size+0x3a>
    55d3: 38           	sec
    55d4: e5 06        	sbc	$6                      ; 0x6 <__rc4>
    55d6: 85 0a        	sta	$a                      ; 0xa <__rc8>
    55d8: 85 6d        	sta	$6d                     ; 0x6d <__zp_bss_size+0x37>
    55da: a5 6f        	lda	$6f                     ; 0x6f <__zp_bss_size+0x39>
    55dc: e9 00        	sbc	#$0
    55de: a2 01        	ldx	#$1
    55e0: b0 02        	bcs	$55e4 <cputln+0x7a>
    55e2: a2 00        	ldx	#$0
    55e4: 86 71        	stx	$71                     ; 0x71 <__zp_bss_size+0x3b>
    55e6: 85 0b        	sta	$b                      ; 0xb <__rc9>
    55e8: 85 6e        	sta	$6e                     ; 0x6e <__zp_bss_size+0x38>
    55ea: ad 62 d0     	lda	$d062                   ; 0xd062 <__heap_start+0x6278>
    55ed: ac 61 d0     	ldy	$d061                   ; 0xd061 <__heap_start+0x6277>
    55f0: ae 60 d0     	ldx	$d060                   ; 0xd060 <__heap_start+0x6276>
    55f3: 86 06        	stx	$6                      ; 0x6 <__rc4>
    55f5: 84 07        	sty	$7                      ; 0x7 <__rc5>
    55f7: 85 08        	sta	$8                      ; 0x8 <__rc6>
    55f9: a6 0d        	ldx	$d                      ; 0xd <__rc11>
    55fb: a5 0c        	lda	$c                      ; 0xc <__rc10>
    55fd: 20 0b 60     	jsr	$600b <lcopy>
    5600: a2 f8        	ldx	#$f8
    5602: a0 0f        	ldy	#$f
    5604: 86 04        	stx	$4                      ; 0x4 <__rc2>
    5606: 84 05        	sty	$5                      ; 0x5 <__rc3>
    5608: 64 06        	stz	$6                      ; 0x6 <__rc4>
    560a: 64 07        	stz	$7                      ; 0x7 <__rc5>
    560c: 86 08        	stx	$8                      ; 0x8 <__rc6>
    560e: 84 09        	sty	$9                      ; 0x9 <__rc7>
    5610: a6 6d        	ldx	$6d                     ; 0x6d <__zp_bss_size+0x37>
    5612: 86 0a        	stx	$a                      ; 0xa <__rc8>
    5614: 86 6d        	stx	$6d                     ; 0x6d <__zp_bss_size+0x37>
    5616: a6 6e        	ldx	$6e                     ; 0x6e <__zp_bss_size+0x38>
    5618: 86 0b        	stx	$b                      ; 0xb <__rc9>
    561a: a2 00        	ldx	#$0
    561c: a5 6c        	lda	$6c                     ; 0x6c <__zp_bss_size+0x36>
    561e: 20 0b 60     	jsr	$600b <lcopy>
    5621: a6 70        	ldx	$70                     ; 0x70 <__zp_bss_size+0x3a>
    5623: 86 04        	stx	$4                      ; 0x4 <__rc2>
    5625: a6 6f        	ldx	$6f                     ; 0x6f <__zp_bss_size+0x39>
    5627: 86 05        	stx	$5                      ; 0x5 <__rc3>
    5629: ad 63 d0     	lda	$d063                   ; 0xd063 <__heap_start+0x6279>
    562c: 29 07        	and	#$7
    562e: 85 07        	sta	$7                      ; 0x7 <__rc5>
    5630: ae 62 d0     	ldx	$d062                   ; 0xd062 <__heap_start+0x6278>
    5633: 86 08        	stx	$8                      ; 0x8 <__rc6>
    5635: ae 61 d0     	ldx	$d061                   ; 0xd061 <__heap_start+0x6277>
    5638: ad 60 d0     	lda	$d060                   ; 0xd060 <__heap_start+0x6276>
    563b: 18           	clc
    563c: 65 04        	adc	$4                      ; 0x4 <__rc2>
    563e: a8           	tay
    563f: 8a           	txa
    5640: 65 05        	adc	$5                      ; 0x5 <__rc3>
    5642: 85 04        	sta	$4                      ; 0x4 <__rc2>
    5644: a5 08        	lda	$8                      ; 0x8 <__rc6>
    5646: 69 00        	adc	#$0
    5648: 85 06        	sta	$6                      ; 0x6 <__rc4>
    564a: a5 07        	lda	$7                      ; 0x7 <__rc5>
    564c: 69 00        	adc	#$0
    564e: 85 05        	sta	$5                      ; 0x5 <__rc3>
    5650: a6 6c        	ldx	$6c                     ; 0x6c <__zp_bss_size+0x36>
    5652: 86 07        	stx	$7                      ; 0x7 <__rc5>
    5654: 86 6c        	stx	$6c                     ; 0x6c <__zp_bss_size+0x36>
    5656: 38           	sec
    5657: 98           	tya
    5658: e5 07        	sbc	$7                      ; 0x7 <__rc5>
    565a: a8           	tay
    565b: a5 04        	lda	$4                      ; 0x4 <__rc2>
    565d: e9 00        	sbc	#$0
    565f: 85 09        	sta	$9                      ; 0x9 <__rc7>
    5661: a5 06        	lda	$6                      ; 0x6 <__rc4>
    5663: e9 00        	sbc	#$0
    5665: 85 04        	sta	$4                      ; 0x4 <__rc2>
    5667: a5 05        	lda	$5                      ; 0x5 <__rc3>
    5669: e9 00        	sbc	#$0
    566b: a2 20        	ldx	#$20
    566d: 85 05        	sta	$5                      ; 0x5 <__rc3>
    566f: 86 06        	stx	$6                      ; 0x6 <__rc4>
    5671: 64 08        	stz	$8                      ; 0x8 <__rc6>
    5673: a6 09        	ldx	$9                      ; 0x9 <__rc7>
    5675: 98           	tya
    5676: 20 96 60     	jsr	$6096 <lfill>
    5679: a6 71        	ldx	$71                     ; 0x71 <__zp_bss_size+0x3b>
    567b: e0 01        	cpx	#$1
    567d: a9 f8        	lda	#$f8
    567f: e9 00        	sbc	#$0
    5681: 85 04        	sta	$4                      ; 0x4 <__rc2>
    5683: a9 0f        	lda	#$f
    5685: e9 00        	sbc	#$0
    5687: a2 01        	ldx	#$1
    5689: 85 05        	sta	$5                      ; 0x5 <__rc3>
    568b: 86 06        	stx	$6                      ; 0x6 <__rc4>
    568d: a6 6c        	ldx	$6c                     ; 0x6c <__zp_bss_size+0x36>
    568f: 86 07        	stx	$7                      ; 0x7 <__rc5>
    5691: 64 08        	stz	$8                      ; 0x8 <__rc6>
    5693: a6 6e        	ldx	$6e                     ; 0x6e <__zp_bss_size+0x38>
    5695: a5 6d        	lda	$6d                     ; 0x6d <__zp_bss_size+0x37>
    5697: 20 96 60     	jsr	$6096 <lfill>
    569a: a6 57        	ldx	$57                     ; 0x57 <g_curY>
    569c: 64 56        	stz	$56                     ; 0x56 <g_curX>
    569e: 86 57        	stx	$57                     ; 0x57 <g_curY>
    56a0: 60           	rts

000056a1 <csputdec>:
    56a1: a8           	tay
    56a2: 8a           	txa
    56a3: a6 06        	ldx	$6                      ; 0x6 <__rc4>
    56a5: 86 70        	stx	$70                     ; 0x70 <__zp_bss_size+0x3a>
    56a7: a6 04        	ldx	$4                      ; 0x4 <__rc2>
    56a9: 86 74        	stx	$74                     ; 0x74 <__zp_bss_size+0x3e>
    56ab: a6 05        	ldx	$5                      ; 0x5 <__rc3>
    56ad: 86 75        	stx	$75                     ; 0x75 <__zp_bss_size+0x3f>
    56af: 64 81        	stz	$81                     ; 0x81 <__zp_bss_size+0x4b>
    56b1: a2 09        	ldx	#$9
    56b3: 86 76        	stx	$76                     ; 0x76 <__zp_bss_size+0x40>
    56b5: 85 73        	sta	$73                     ; 0x73 <__zp_bss_size+0x3d>
    56b7: a9 82        	lda	#$82
    56b9: 85 0a        	sta	$a                      ; 0xa <__rc8>
    56bb: a9 00        	lda	#$0
    56bd: 85 0b        	sta	$b                      ; 0xb <__rc9>
    56bf: a9 0a        	lda	#$a
    56c1: 85 06        	sta	$6                      ; 0x6 <__rc4>
    56c3: 64 07        	stz	$7                      ; 0x7 <__rc5>
    56c5: 64 08        	stz	$8                      ; 0x8 <__rc6>
    56c7: 64 09        	stz	$9                      ; 0x9 <__rc7>
    56c9: 86 71        	stx	$71                     ; 0x71 <__zp_bss_size+0x3b>
    56cb: a6 73        	ldx	$73                     ; 0x73 <__zp_bss_size+0x3d>
    56cd: 98           	tya
    56ce: 84 72        	sty	$72                     ; 0x72 <__zp_bss_size+0x3c>
    56d0: 20 de 20     	jsr	$20de <__udivmodsi4>
    56d3: 85 06        	sta	$6                      ; 0x6 <__rc4>
    56d5: a9 30        	lda	#$30
    56d7: 05 82        	ora	$82                     ; 0x82 <__zp_bss_size+0x4c>
    56d9: a4 76        	ldy	$76                     ; 0x76 <__zp_bss_size+0x40>
    56db: 99 77 00     	sta	$77,y                   ; 0x77 <__zp_bss_size+0x41>
    56de: c6 71        	dec	$71                     ; 0x71 <__zp_bss_size+0x3b>
    56e0: a5 75        	lda	$75                     ; 0x75 <__zp_bss_size+0x3f>
    56e2: d0 0e        	bne	$56f2 <csputdec+0x51>
    56e4: a5 74        	lda	$74                     ; 0x74 <__zp_bss_size+0x3e>
    56e6: d0 0e        	bne	$56f6 <csputdec+0x55>
    56e8: a5 73        	lda	$73                     ; 0x73 <__zp_bss_size+0x3d>
    56ea: d0 0c        	bne	$56f8 <csputdec+0x57>
    56ec: a5 72        	lda	$72                     ; 0x72 <__zp_bss_size+0x3c>
    56ee: c9 0a        	cmp	#$a
    56f0: 80 08        	bra	$56fa <csputdec+0x59>
    56f2: a5 75        	lda	$75                     ; 0x75 <__zp_bss_size+0x3f>
    56f4: 80 02        	bra	$56f8 <csputdec+0x57>
    56f6: a5 74        	lda	$74                     ; 0x74 <__zp_bss_size+0x3e>
    56f8: c9 00        	cmp	#$0
    56fa: a4 06        	ldy	$6                      ; 0x6 <__rc4>
    56fc: 8a           	txa
    56fd: a6 04        	ldx	$4                      ; 0x4 <__rc2>
    56ff: 86 74        	stx	$74                     ; 0x74 <__zp_bss_size+0x3e>
    5701: a6 05        	ldx	$5                      ; 0x5 <__rc3>
    5703: 86 75        	stx	$75                     ; 0x75 <__zp_bss_size+0x3f>
    5705: a6 71        	ldx	$71                     ; 0x71 <__zp_bss_size+0x3b>
    5707: b0 aa        	bcs	$56b3 <csputdec+0x12>
    5709: 64 05        	stz	$5                      ; 0x5 <__rc3>
    570b: 8a           	txa
    570c: f0 32        	beq	$5740 <csputdec+0x9f>
    570e: 38           	sec
    570f: a9 0a        	lda	#$a
    5711: e5 70        	sbc	$70                     ; 0x70 <__zp_bss_size+0x3a>
    5713: 85 05        	sta	$5                      ; 0x5 <__rc3>
    5715: a9 00        	lda	#$0
    5717: e9 00        	sbc	#$0
    5719: 86 04        	stx	$4                      ; 0x4 <__rc2>
    571b: a4 05        	ldy	$5                      ; 0x5 <__rc3>
    571d: c4 04        	cpy	$4                      ; 0x4 <__rc2>
    571f: a8           	tay
    5720: e9 00        	sbc	#$0
    5722: 50 02        	bvc	$5726 <csputdec+0x85>
    5724: 49 80        	eor	#$80
    5726: c9 00        	cmp	#$0
    5728: 10 0d        	bpl	$5737 <csputdec+0x96>
    572a: a9 20        	lda	#$20
    572c: 9d 77 00     	sta	$77,x                   ; 0x77 <__zp_bss_size+0x41>
    572f: ca           	dex
    5730: 98           	tya
    5731: e0 00        	cpx	#$0
    5733: d0 e4        	bne	$5719 <csputdec+0x78>
    5735: a2 00        	ldx	#$0
    5737: 64 05        	stz	$5                      ; 0x5 <__rc3>
    5739: e8           	inx
    573a: d0 06        	bne	$5742 <csputdec+0xa1>
    573c: e6 05        	inc	$5                      ; 0x5 <__rc3>
    573e: 80 02        	bra	$5742 <csputdec+0xa1>
    5740: a2 01        	ldx	#$1
    5742: 86 04        	stx	$4                      ; 0x4 <__rc2>
    5744: a9 77        	lda	#$77
    5746: 18           	clc
    5747: 65 04        	adc	$4                      ; 0x4 <__rc2>
    5749: 85 04        	sta	$4                      ; 0x4 <__rc2>
    574b: a9 00        	lda	#$0
    574d: 65 05        	adc	$5                      ; 0x5 <__rc3>
    574f: 85 05        	sta	$5                      ; 0x5 <__rc3>
    5751: a5 56        	lda	$56                     ; 0x56 <g_curX>
    5753: a6 57        	ldx	$57                     ; 0x57 <g_curY>
    5755: 4c 2e 5f     	jmp	$5f2e <cputsxy>

00005758 <asciitoscreencode_s>:
    5758: a2 34        	ldx	#$34
    575a: 86 06        	stx	$6                      ; 0x6 <__rc4>
    575c: a2 03        	ldx	#$3
    575e: 86 07        	stx	$7                      ; 0x7 <__rc5>
    5760: 80 21        	bra	$5783 <asciitoscreencode_s+0x2b>
    5762: c9 60        	cmp	#$60
    5764: 90 05        	bcc	$576b <asciitoscreencode_s+0x13>
    5766: 18           	clc
    5767: 69 a0        	adc	#$a0
    5769: 80 0d        	bra	$5778 <asciitoscreencode_s+0x20>
    576b: 18           	clc
    576c: a8           	tay
    576d: 69 a5        	adc	#$a5
    576f: aa           	tax
    5770: 98           	tya
    5771: e0 05        	cpx	#$5
    5773: b0 03        	bcs	$5778 <asciitoscreencode_s+0x20>
    5775: bd 2d 66     	lda	$662d,x                 ; 0x662d <__zp_data_load_start+0x4616>
    5778: 92 06        	sta	($6),z                  ; 0x6 <__rc4>
    577a: e6 06        	inc	$6                      ; 0x6 <__rc4>
    577c: d0 02        	bne	$5780 <asciitoscreencode_s+0x28>
    577e: e6 07        	inc	$7                      ; 0x7 <__rc5>
    5780: aa           	tax
    5781: f0 10        	beq	$5793 <asciitoscreencode_s+0x3b>
    5783: b2 04        	lda	($4),z                  ; 0x4 <__rc2>
    5785: e6 04        	inc	$4                      ; 0x4 <__rc2>
    5787: d0 02        	bne	$578b <asciitoscreencode_s+0x33>
    5789: e6 05        	inc	$5                      ; 0x5 <__rc3>
    578b: c9 c0        	cmp	#$c0
    578d: 90 d3        	bcc	$5762 <asciitoscreencode_s+0xa>
    578f: 49 80        	eor	#$80
    5791: 80 e5        	bra	$5778 <asciitoscreencode_s+0x20>
    5793: ae 34 03     	ldx	$334                    ; 0x334 <__basic_zp_end+0x2a4>
    5796: f0 01        	beq	$5799 <asciitoscreencode_s+0x41>
    5798: 60           	rts
    5799: a2 20        	ldx	#$20
    579b: 8e 34 03     	stx	$334                    ; 0x334 <__basic_zp_end+0x2a4>
    579e: 9c 35 03     	stz	$335                    ; 0x335 <__basic_zp_end+0x2a5>
    57a1: 60           	rts

000057a2 <clrhome>:
    57a2: a2 58        	ldx	#$58
    57a4: 86 04        	stx	$4                      ; 0x4 <__rc2>
    57a6: a2 00        	ldx	#$0
    57a8: 86 05        	stx	$5                      ; 0x5 <__rc3>
    57aa: a6 04        	ldx	$4                      ; 0x4 <__rc2>
    57ac: 86 6c        	stx	$6c                     ; 0x6c <__zp_bss_size+0x36>
    57ae: a6 54        	ldx	$54                     ; 0x54 <g_curScreenW>
    57b0: a5 55        	lda	$55                     ; 0x55 <g_curScreenH>
    57b2: 86 04        	stx	$4                      ; 0x4 <__rc2>
    57b4: 64 05        	stz	$5                      ; 0x5 <__rc3>
    57b6: a2 00        	ldx	#$0
    57b8: 20 a4 61     	jsr	$61a4 <__mulhi3>
    57bb: a8           	tay
    57bc: ad 54 d0     	lda	$d054                   ; 0xd054 <__heap_start+0x626a>
    57bf: 29 01        	and	#$1
    57c1: 85 04        	sta	$4                      ; 0x4 <__rc2>
    57c3: 98           	tya
    57c4: 20 76 61     	jsr	$6176 <__ashlhi3>
    57c7: 85 07        	sta	$7                      ; 0x7 <__rc5>
    57c9: 85 6d        	sta	$6d                     ; 0x6d <__zp_bss_size+0x37>
    57cb: 86 08        	stx	$8                      ; 0x8 <__rc6>
    57cd: 86 6e        	stx	$6e                     ; 0x6e <__zp_bss_size+0x38>
    57cf: ad 63 d0     	lda	$d063                   ; 0xd063 <__heap_start+0x6279>
    57d2: 29 07        	and	#$7
    57d4: ae 62 d0     	ldx	$d062                   ; 0xd062 <__heap_start+0x6278>
    57d7: ac 61 d0     	ldy	$d061                   ; 0xd061 <__heap_start+0x6277>
    57da: 84 09        	sty	$9                      ; 0x9 <__rc7>
    57dc: ac 60 d0     	ldy	$d060                   ; 0xd060 <__heap_start+0x6276>
    57df: 86 04        	stx	$4                      ; 0x4 <__rc2>
    57e1: 85 05        	sta	$5                      ; 0x5 <__rc3>
    57e3: a2 20        	ldx	#$20
    57e5: 86 06        	stx	$6                      ; 0x6 <__rc4>
    57e7: a6 09        	ldx	$9                      ; 0x9 <__rc7>
    57e9: 98           	tya
    57ea: 20 96 60     	jsr	$6096 <lfill>
    57ed: a6 35        	ldx	$35                     ; 0x35 <g_curTextColor>
    57ef: a0 0b        	ldy	#$b
    57f1: 84 58        	sty	$58                     ; 0x58 <dmalist>
    57f3: a0 80        	ldy	#$80
    57f5: 84 59        	sty	$59                     ; 0x59 <dmalist+0x1>
    57f7: 64 5a        	stz	$5a                     ; 0x5a <dmalist+0x2>
    57f9: c8           	iny
    57fa: 84 5b        	sty	$5b                     ; 0x5b <dmalist+0x3>
    57fc: a0 ff        	ldy	#$ff
    57fe: 84 5c        	sty	$5c                     ; 0x5c <dmalist+0x4>
    5800: a0 85        	ldy	#$85
    5802: 84 5d        	sty	$5d                     ; 0x5d <dmalist+0x5>
    5804: a0 01        	ldy	#$1
    5806: 84 5e        	sty	$5e                     ; 0x5e <dmalist+0x6>
    5808: 64 5f        	stz	$5f                     ; 0x5f <dmalist+0x7>
    580a: a0 03        	ldy	#$3
    580c: 84 60        	sty	$60                     ; 0x60 <dmalist+0x8>
    580e: 64 69        	stz	$69                     ; 0x69 <dmalist+0x11>
    5810: a4 6d        	ldy	$6d                     ; 0x6d <__zp_bss_size+0x37>
    5812: 84 61        	sty	$61                     ; 0x61 <dmalist+0x9>
    5814: a4 6e        	ldy	$6e                     ; 0x6e <__zp_bss_size+0x38>
    5816: 84 62        	sty	$62                     ; 0x62 <dmalist+0xa>
    5818: 86 63        	stx	$63                     ; 0x63 <dmalist+0xb>
    581a: 64 64        	stz	$64                     ; 0x64 <dmalist+0xc>
    581c: 64 66        	stz	$66                     ; 0x66 <dmalist+0xe>
    581e: 64 67        	stz	$67                     ; 0x67 <dmalist+0xf>
    5820: a2 08        	ldx	#$8
    5822: 86 68        	stx	$68                     ; 0x68 <dmalist+0x10>
    5824: a2 47        	ldx	#$47
    5826: 8e 2f d0     	stx	$d02f                   ; 0xd02f <__heap_start+0x6245>
    5829: a2 53        	ldx	#$53
    582b: 8e 2f d0     	stx	$d02f                   ; 0xd02f <__heap_start+0x6245>
    582e: a2 41        	ldx	#$41
    5830: 86 00        	stx	$0                      ; 0x0 <__data_size>
    5832: 9c 02 d7     	stz	$d702                   ; 0xd702 <__heap_start+0x6918>
    5835: 9c 04 d7     	stz	$d704                   ; 0xd704 <__heap_start+0x691a>
    5838: a2 00        	ldx	#$0
    583a: 8e 01 d7     	stx	$d701                   ; 0xd701 <__heap_start+0x6917>
    583d: a6 6c        	ldx	$6c                     ; 0x6c <__zp_bss_size+0x36>
    583f: 8e 05 d7     	stx	$d705                   ; 0xd705 <__heap_start+0x691b>
    5842: 64 56        	stz	$56                     ; 0x56 <g_curX>
    5844: 64 57        	stz	$57                     ; 0x57 <g_curY>
    5846: 60           	rts

00005847 <mprintf>:
    5847: 85 6c        	sta	$6c                     ; 0x6c <__zp_bss_size+0x36>
    5849: 86 6d        	stx	$6d                     ; 0x6d <__zp_bss_size+0x37>
    584b: a6 06        	ldx	$6                      ; 0x6 <__rc4>
    584d: 86 6e        	stx	$6e                     ; 0x6e <__zp_bss_size+0x38>
    584f: a6 07        	ldx	$7                      ; 0x7 <__rc5>
    5851: 86 6f        	stx	$6f                     ; 0x6f <__zp_bss_size+0x39>
    5853: 20 58 57     	jsr	$5758 <asciitoscreencode_s>
    5856: a5 56        	lda	$56                     ; 0x56 <g_curX>
    5858: a6 57        	ldx	$57                     ; 0x57 <g_curY>
    585a: a0 34        	ldy	#$34
    585c: 84 04        	sty	$4                      ; 0x4 <__rc2>
    585e: a0 03        	ldy	#$3
    5860: 84 05        	sty	$5                      ; 0x5 <__rc3>
    5862: 20 2e 5f     	jsr	$5f2e <cputsxy>
    5865: 64 06        	stz	$6                      ; 0x6 <__rc4>
    5867: a6 6e        	ldx	$6e                     ; 0x6e <__zp_bss_size+0x38>
    5869: 86 04        	stx	$4                      ; 0x4 <__rc2>
    586b: a6 6f        	ldx	$6f                     ; 0x6f <__zp_bss_size+0x39>
    586d: 86 05        	stx	$5                      ; 0x5 <__rc3>
    586f: a6 6d        	ldx	$6d                     ; 0x6d <__zp_bss_size+0x37>
    5871: a5 6c        	lda	$6c                     ; 0x6c <__zp_bss_size+0x36>
    5873: 4c a1 56     	jmp	$56a1 <csputdec>

00005876 <mcbox>:
    5876: 48           	pha
    5877: 18           	clc
    5878: a5 02        	lda	$2                      ; 0x2 <__rc0>
    587a: 69 fa        	adc	#$fa
    587c: 85 02        	sta	$2                      ; 0x2 <__rc0>
    587e: a5 03        	lda	$3                      ; 0x3 <__rc1>
    5880: 69 ff        	adc	#$ff
    5882: 85 03        	sta	$3                      ; 0x3 <__rc1>
    5884: 68           	pla
    5885: a4 16        	ldy	$16                     ; 0x16 <__rc20>
    5887: 5a           	phy
    5888: a4 17        	ldy	$17                     ; 0x17 <__rc21>
    588a: 5a           	phy
    588b: a4 18        	ldy	$18                     ; 0x18 <__rc22>
    588d: 5a           	phy
    588e: a4 19        	ldy	$19                     ; 0x19 <__rc23>
    5890: 5a           	phy
    5891: 48           	pha
    5892: a5 1a        	lda	$1a                     ; 0x1a <__rc24>
    5894: a0 05        	ldy	#$5
    5896: 91 02        	sta	($2),y                  ; 0x2 <__rc0>
    5898: a5 1b        	lda	$1b                     ; 0x1b <__rc25>
    589a: 88           	dey
    589b: 91 02        	sta	($2),y                  ; 0x2 <__rc0>
    589d: a5 1c        	lda	$1c                     ; 0x1c <__rc26>
    589f: 88           	dey
    58a0: 91 02        	sta	($2),y                  ; 0x2 <__rc0>
    58a2: a5 1d        	lda	$1d                     ; 0x1d <__rc27>
    58a4: 88           	dey
    58a5: 91 02        	sta	($2),y                  ; 0x2 <__rc0>
    58a7: a5 1e        	lda	$1e                     ; 0x1e <__rc28>
    58a9: 88           	dey
    58aa: 91 02        	sta	($2),y                  ; 0x2 <__rc0>
    58ac: a5 1f        	lda	$1f                     ; 0x1f <__rc29>
    58ae: 88           	dey
    58af: 91 02        	sta	($2),y                  ; 0x2 <__rc0>
    58b1: 68           	pla
    58b2: 85 18        	sta	$18                     ; 0x18 <__rc22>
    58b4: 86 19        	stx	$19                     ; 0x19 <__rc23>
    58b6: a6 05        	ldx	$5                      ; 0x5 <__rc3>
    58b8: a4 06        	ldy	$6                      ; 0x6 <__rc4>
    58ba: 84 16        	sty	$16                     ; 0x16 <__rc20>
    58bc: 38           	sec
    58bd: a9 f0        	lda	#$f0
    58bf: 25 35        	and	$35                     ; 0x35 <g_curTextColor>
    58c1: 09 03        	ora	#$3
    58c3: 85 35        	sta	$35                     ; 0x35 <g_curTextColor>
    58c5: a4 04        	ldy	$4                      ; 0x4 <__rc2>
    58c7: 84 1b        	sty	$1b                     ; 0x1b <__rc25>
    58c9: a5 04        	lda	$4                      ; 0x4 <__rc2>
    58cb: e5 18        	sbc	$18                     ; 0x18 <__rc22>
    58cd: 85 1c        	sta	$1c                     ; 0x1c <__rc26>
    58cf: 86 1d        	stx	$1d                     ; 0x1d <__rc27>
    58d1: e4 19        	cpx	$19                     ; 0x19 <__rc23>
    58d3: b0 03        	bcs	$58d8 <mcbox+0x62>
    58d5: 4c 6a 59     	jmp	$596a <mcbox+0xf4>
    58d8: a6 19        	ldx	$19                     ; 0x19 <__rc23>
    58da: 86 17        	stx	$17                     ; 0x17 <__rc21>
    58dc: a5 54        	lda	$54                     ; 0x54 <g_curScreenW>
    58de: a6 17        	ldx	$17                     ; 0x17 <__rc21>
    58e0: 86 04        	stx	$4                      ; 0x4 <__rc2>
    58e2: 64 05        	stz	$5                      ; 0x5 <__rc3>
    58e4: a2 00        	ldx	#$0
    58e6: 20 a4 61     	jsr	$61a4 <__mulhi3>
    58e9: 18           	clc
    58ea: 65 18        	adc	$18                     ; 0x18 <__rc22>
    58ec: 85 1e        	sta	$1e                     ; 0x1e <__rc28>
    58ee: 8a           	txa
    58ef: 69 00        	adc	#$0
    58f1: 85 1f        	sta	$1f                     ; 0x1f <__rc29>
    58f3: ad 63 d0     	lda	$d063                   ; 0xd063 <__heap_start+0x6279>
    58f6: 29 07        	and	#$7
    58f8: a8           	tay
    58f9: ae 62 d0     	ldx	$d062                   ; 0xd062 <__heap_start+0x6278>
    58fc: 86 06        	stx	$6                      ; 0x6 <__rc4>
    58fe: ae 61 d0     	ldx	$d061                   ; 0xd061 <__heap_start+0x6277>
    5901: 86 04        	stx	$4                      ; 0x4 <__rc2>
    5903: ae 60 d0     	ldx	$d060                   ; 0xd060 <__heap_start+0x6276>
    5906: 86 05        	stx	$5                      ; 0x5 <__rc3>
    5908: 18           	clc
    5909: a5 1e        	lda	$1e                     ; 0x1e <__rc28>
    590b: 69 00        	adc	#$0
    590d: aa           	tax
    590e: a5 1f        	lda	$1f                     ; 0x1f <__rc29>
    5910: 65 04        	adc	$4                      ; 0x4 <__rc2>
    5912: 85 07        	sta	$7                      ; 0x7 <__rc5>
    5914: a5 06        	lda	$6                      ; 0x6 <__rc4>
    5916: 69 00        	adc	#$0
    5918: 85 04        	sta	$4                      ; 0x4 <__rc2>
    591a: 98           	tya
    591b: 69 00        	adc	#$0
    591d: 85 06        	sta	$6                      ; 0x6 <__rc4>
    591f: 8a           	txa
    5920: 18           	clc
    5921: 65 05        	adc	$5                      ; 0x5 <__rc3>
    5923: a8           	tay
    5924: a5 07        	lda	$7                      ; 0x7 <__rc5>
    5926: 69 00        	adc	#$0
    5928: 85 09        	sta	$9                      ; 0x9 <__rc7>
    592a: a5 04        	lda	$4                      ; 0x4 <__rc2>
    592c: 69 00        	adc	#$0
    592e: 85 04        	sta	$4                      ; 0x4 <__rc2>
    5930: a5 06        	lda	$6                      ; 0x6 <__rc4>
    5932: 69 00        	adc	#$0
    5934: 85 05        	sta	$5                      ; 0x5 <__rc3>
    5936: a2 20        	ldx	#$20
    5938: 86 06        	stx	$6                      ; 0x6 <__rc4>
    593a: a6 1c        	ldx	$1c                     ; 0x1c <__rc26>
    593c: 86 07        	stx	$7                      ; 0x7 <__rc5>
    593e: 64 08        	stz	$8                      ; 0x8 <__rc6>
    5940: a6 09        	ldx	$9                      ; 0x9 <__rc7>
    5942: 98           	tya
    5943: 20 96 60     	jsr	$6096 <lfill>
    5946: a2 f8        	ldx	#$f8
    5948: 86 04        	stx	$4                      ; 0x4 <__rc2>
    594a: a2 0f        	ldx	#$f
    594c: 86 05        	stx	$5                      ; 0x5 <__rc3>
    594e: a2 03        	ldx	#$3
    5950: 86 06        	stx	$6                      ; 0x6 <__rc4>
    5952: a6 1c        	ldx	$1c                     ; 0x1c <__rc26>
    5954: 86 07        	stx	$7                      ; 0x7 <__rc5>
    5956: 64 08        	stz	$8                      ; 0x8 <__rc6>
    5958: a6 1f        	ldx	$1f                     ; 0x1f <__rc29>
    595a: a5 1e        	lda	$1e                     ; 0x1e <__rc28>
    595c: 20 96 60     	jsr	$6096 <lfill>
    595f: e6 17        	inc	$17                     ; 0x17 <__rc21>
    5961: a6 1d        	ldx	$1d                     ; 0x1d <__rc27>
    5963: e4 17        	cpx	$17                     ; 0x17 <__rc21>
    5965: 90 03        	bcc	$596a <mcbox+0xf4>
    5967: 4c dc 58     	jmp	$58dc <mcbox+0x66>
    596a: a2 70        	ldx	#$70
    596c: 86 04        	stx	$4                      ; 0x4 <__rc2>
    596e: a6 19        	ldx	$19                     ; 0x19 <__rc23>
    5970: a5 18        	lda	$18                     ; 0x18 <__rc22>
    5972: 20 40 5e     	jsr	$5e40 <cputcxy>
    5975: a2 6d        	ldx	#$6d
    5977: 86 04        	stx	$4                      ; 0x4 <__rc2>
    5979: a6 1d        	ldx	$1d                     ; 0x1d <__rc27>
    597b: a5 18        	lda	$18                     ; 0x18 <__rc22>
    597d: 20 40 5e     	jsr	$5e40 <cputcxy>
    5980: a2 6e        	ldx	#$6e
    5982: 86 04        	stx	$4                      ; 0x4 <__rc2>
    5984: a6 19        	ldx	$19                     ; 0x19 <__rc23>
    5986: a4 1b        	ldy	$1b                     ; 0x1b <__rc25>
    5988: 84 1a        	sty	$1a                     ; 0x1a <__rc24>
    598a: a5 1b        	lda	$1b                     ; 0x1b <__rc25>
    598c: 20 40 5e     	jsr	$5e40 <cputcxy>
    598f: a2 7d        	ldx	#$7d
    5991: 86 04        	stx	$4                      ; 0x4 <__rc2>
    5993: a6 1d        	ldx	$1d                     ; 0x1d <__rc27>
    5995: a5 1b        	lda	$1b                     ; 0x1b <__rc25>
    5997: 20 40 5e     	jsr	$5e40 <cputcxy>
    599a: a6 1c        	ldx	$1c                     ; 0x1c <__rc26>
    599c: e0 02        	cpx	#$2
    599e: 90 21        	bcc	$59c1 <mcbox+0x14b>
    59a0: a4 18        	ldy	$18                     ; 0x18 <__rc22>
    59a2: c8           	iny
    59a3: a2 40        	ldx	#$40
    59a5: 86 04        	stx	$4                      ; 0x4 <__rc2>
    59a7: a6 19        	ldx	$19                     ; 0x19 <__rc23>
    59a9: 84 17        	sty	$17                     ; 0x17 <__rc21>
    59ab: 98           	tya
    59ac: 20 40 5e     	jsr	$5e40 <cputcxy>
    59af: a2 40        	ldx	#$40
    59b1: 86 04        	stx	$4                      ; 0x4 <__rc2>
    59b3: a6 1d        	ldx	$1d                     ; 0x1d <__rc27>
    59b5: a5 17        	lda	$17                     ; 0x17 <__rc21>
    59b7: 20 40 5e     	jsr	$5e40 <cputcxy>
    59ba: a4 17        	ldy	$17                     ; 0x17 <__rc21>
    59bc: c8           	iny
    59bd: c4 1a        	cpy	$1a                     ; 0x1a <__rc24>
    59bf: d0 e2        	bne	$59a3 <mcbox+0x12d>
    59c1: a6 19        	ldx	$19                     ; 0x19 <__rc23>
    59c3: 86 17        	stx	$17                     ; 0x17 <__rc21>
    59c5: e6 17        	inc	$17                     ; 0x17 <__rc21>
    59c7: a6 17        	ldx	$17                     ; 0x17 <__rc21>
    59c9: a0 5d        	ldy	#$5d
    59cb: 84 04        	sty	$4                      ; 0x4 <__rc2>
    59cd: 86 19        	stx	$19                     ; 0x19 <__rc23>
    59cf: a5 18        	lda	$18                     ; 0x18 <__rc22>
    59d1: 20 40 5e     	jsr	$5e40 <cputcxy>
    59d4: a2 5d        	ldx	#$5d
    59d6: 86 04        	stx	$4                      ; 0x4 <__rc2>
    59d8: a6 19        	ldx	$19                     ; 0x19 <__rc23>
    59da: a5 1b        	lda	$1b                     ; 0x1b <__rc25>
    59dc: 20 40 5e     	jsr	$5e40 <cputcxy>
    59df: a6 19        	ldx	$19                     ; 0x19 <__rc23>
    59e1: e8           	inx
    59e2: e4 1d        	cpx	$1d                     ; 0x1d <__rc27>
    59e4: d0 e3        	bne	$59c9 <mcbox+0x153>
    59e6: a5 16        	lda	$16                     ; 0x16 <__rc20>
    59e8: d0 03        	bne	$59ed <mcbox+0x177>
    59ea: 4c 96 5a     	jmp	$5a96 <mcbox+0x220>
    59ed: a4 1d        	ldy	$1d                     ; 0x1d <__rc27>
    59ef: c4 55        	cpy	$55                     ; 0x55 <g_curScreenH>
    59f1: 90 03        	bcc	$59f6 <mcbox+0x180>
    59f3: 4c 96 5a     	jmp	$5a96 <mcbox+0x220>
    59f6: a6 54        	ldx	$54                     ; 0x54 <g_curScreenW>
    59f8: 86 04        	stx	$4                      ; 0x4 <__rc2>
    59fa: a6 1b        	ldx	$1b                     ; 0x1b <__rc25>
    59fc: e4 04        	cpx	$4                      ; 0x4 <__rc2>
    59fe: 90 03        	bcc	$5a03 <mcbox+0x18d>
    5a00: 4c 96 5a     	jmp	$5a96 <mcbox+0x220>
    5a03: 64 05        	stz	$5                      ; 0x5 <__rc3>
    5a05: a2 00        	ldx	#$0
    5a07: c8           	iny
    5a08: d0 01        	bne	$5a0b <mcbox+0x195>
    5a0a: e8           	inx
    5a0b: 86 1a        	stx	$1a                     ; 0x1a <__rc24>
    5a0d: 84 19        	sty	$19                     ; 0x19 <__rc23>
    5a0f: 98           	tya
    5a10: 20 a4 61     	jsr	$61a4 <__mulhi3>
    5a13: 86 04        	stx	$4                      ; 0x4 <__rc2>
    5a15: 64 16        	stz	$16                     ; 0x16 <__rc20>
    5a17: 18           	clc
    5a18: 65 18        	adc	$18                     ; 0x18 <__rc22>
    5a1a: a8           	tay
    5a1b: a9 00        	lda	#$0
    5a1d: 65 04        	adc	$4                      ; 0x4 <__rc2>
    5a1f: 85 04        	sta	$4                      ; 0x4 <__rc2>
    5a21: a9 00        	lda	#$0
    5a23: 69 00        	adc	#$0
    5a25: aa           	tax
    5a26: a9 00        	lda	#$0
    5a28: 69 00        	adc	#$0
    5a2a: 85 05        	sta	$5                      ; 0x5 <__rc3>
    5a2c: 18           	clc
    5a2d: 98           	tya
    5a2e: 69 01        	adc	#$1
    5a30: a8           	tay
    5a31: a5 04        	lda	$4                      ; 0x4 <__rc2>
    5a33: 69 00        	adc	#$0
    5a35: 85 09        	sta	$9                      ; 0x9 <__rc7>
    5a37: 8a           	txa
    5a38: 69 f8        	adc	#$f8
    5a3a: 85 04        	sta	$4                      ; 0x4 <__rc2>
    5a3c: a5 05        	lda	$5                      ; 0x5 <__rc3>
    5a3e: 69 0f        	adc	#$f
    5a40: a2 0b        	ldx	#$b
    5a42: 85 05        	sta	$5                      ; 0x5 <__rc3>
    5a44: a5 1c        	lda	$1c                     ; 0x1c <__rc26>
    5a46: 85 07        	sta	$7                      ; 0x7 <__rc5>
    5a48: 86 06        	stx	$6                      ; 0x6 <__rc4>
    5a4a: 64 08        	stz	$8                      ; 0x8 <__rc6>
    5a4c: a6 09        	ldx	$9                      ; 0x9 <__rc7>
    5a4e: 98           	tya
    5a4f: 20 96 60     	jsr	$6096 <lfill>
    5a52: a6 1b        	ldx	$1b                     ; 0x1b <__rc25>
    5a54: 86 18        	stx	$18                     ; 0x18 <__rc22>
    5a56: e6 18        	inc	$18                     ; 0x18 <__rc22>
    5a58: a5 54        	lda	$54                     ; 0x54 <g_curScreenW>
    5a5a: a6 17        	ldx	$17                     ; 0x17 <__rc21>
    5a5c: 86 04        	stx	$4                      ; 0x4 <__rc2>
    5a5e: 64 05        	stz	$5                      ; 0x5 <__rc3>
    5a60: a2 00        	ldx	#$0
    5a62: 20 a4 61     	jsr	$61a4 <__mulhi3>
    5a65: 18           	clc
    5a66: 65 18        	adc	$18                     ; 0x18 <__rc22>
    5a68: a8           	tay
    5a69: 8a           	txa
    5a6a: 65 16        	adc	$16                     ; 0x16 <__rc20>
    5a6c: 85 07        	sta	$7                      ; 0x7 <__rc5>
    5a6e: a9 f8        	lda	#$f8
    5a70: 69 00        	adc	#$0
    5a72: 85 04        	sta	$4                      ; 0x4 <__rc2>
    5a74: a9 0f        	lda	#$f
    5a76: 69 00        	adc	#$0
    5a78: 85 05        	sta	$5                      ; 0x5 <__rc3>
    5a7a: a2 0b        	ldx	#$b
    5a7c: 86 06        	stx	$6                      ; 0x6 <__rc4>
    5a7e: a6 07        	ldx	$7                      ; 0x7 <__rc5>
    5a80: 98           	tya
    5a81: 20 95 20     	jsr	$2095 <lpoke>
    5a84: e6 17        	inc	$17                     ; 0x17 <__rc21>
    5a86: a6 1a        	ldx	$1a                     ; 0x1a <__rc24>
    5a88: d0 08        	bne	$5a92 <mcbox+0x21c>
    5a8a: a6 19        	ldx	$19                     ; 0x19 <__rc23>
    5a8c: e4 17        	cpx	$17                     ; 0x17 <__rc21>
    5a8e: b0 c8        	bcs	$5a58 <mcbox+0x1e2>
    5a90: 80 04        	bra	$5a96 <mcbox+0x220>
    5a92: e0 00        	cpx	#$0
    5a94: b0 c2        	bcs	$5a58 <mcbox+0x1e2>
    5a96: a0 00        	ldy	#$0
    5a98: b1 02        	lda	($2),y                  ; 0x2 <__rc0>
    5a9a: 85 1f        	sta	$1f                     ; 0x1f <__rc29>
    5a9c: c8           	iny
    5a9d: b1 02        	lda	($2),y                  ; 0x2 <__rc0>
    5a9f: 85 1e        	sta	$1e                     ; 0x1e <__rc28>
    5aa1: c8           	iny
    5aa2: b1 02        	lda	($2),y                  ; 0x2 <__rc0>
    5aa4: 85 1d        	sta	$1d                     ; 0x1d <__rc27>
    5aa6: c8           	iny
    5aa7: b1 02        	lda	($2),y                  ; 0x2 <__rc0>
    5aa9: 85 1c        	sta	$1c                     ; 0x1c <__rc26>
    5aab: c8           	iny
    5aac: b1 02        	lda	($2),y                  ; 0x2 <__rc0>
    5aae: 85 1b        	sta	$1b                     ; 0x1b <__rc25>
    5ab0: c8           	iny
    5ab1: b1 02        	lda	($2),y                  ; 0x2 <__rc0>
    5ab3: 85 1a        	sta	$1a                     ; 0x1a <__rc24>
    5ab5: fa           	plx
    5ab6: 86 19        	stx	$19                     ; 0x19 <__rc23>
    5ab8: fa           	plx
    5ab9: 86 18        	stx	$18                     ; 0x18 <__rc22>
    5abb: fa           	plx
    5abc: 86 17        	stx	$17                     ; 0x17 <__rc21>
    5abe: fa           	plx
    5abf: 86 16        	stx	$16                     ; 0x16 <__rc20>
    5ac1: 18           	clc
    5ac2: a5 02        	lda	$2                      ; 0x2 <__rc0>
    5ac4: 69 06        	adc	#$6
    5ac6: 85 02        	sta	$2                      ; 0x2 <__rc0>
    5ac8: a5 03        	lda	$3                      ; 0x3 <__rc1>
    5aca: 69 00        	adc	#$0
    5acc: 85 03        	sta	$3                      ; 0x3 <__rc1>
    5ace: 60           	rts

00005acf <messagebox>:
    5acf: 48           	pha
    5ad0: 18           	clc
    5ad1: a5 02        	lda	$2                      ; 0x2 <__rc0>
    5ad3: 69 fb        	adc	#$fb
    5ad5: 85 02        	sta	$2                      ; 0x2 <__rc0>
    5ad7: a5 03        	lda	$3                      ; 0x3 <__rc1>
    5ad9: 69 ff        	adc	#$ff
    5adb: 85 03        	sta	$3                      ; 0x3 <__rc1>
    5add: 68           	pla
    5ade: a6 16        	ldx	$16                     ; 0x16 <__rc20>
    5ae0: da           	phx
    5ae1: a6 18        	ldx	$18                     ; 0x18 <__rc22>
    5ae3: da           	phx
    5ae4: a6 19        	ldx	$19                     ; 0x19 <__rc23>
    5ae6: da           	phx
    5ae7: a6 1a        	ldx	$1a                     ; 0x1a <__rc24>
    5ae9: da           	phx
    5aea: 48           	pha
    5aeb: a5 1b        	lda	$1b                     ; 0x1b <__rc25>
    5aed: a0 02        	ldy	#$2
    5aef: 91 02        	sta	($2),y                  ; 0x2 <__rc0>
    5af1: a5 1c        	lda	$1c                     ; 0x1c <__rc26>
    5af3: 88           	dey
    5af4: 91 02        	sta	($2),y                  ; 0x2 <__rc0>
    5af6: a5 1d        	lda	$1d                     ; 0x1d <__rc27>
    5af8: 88           	dey
    5af9: 91 02        	sta	($2),y                  ; 0x2 <__rc0>
    5afb: 68           	pla
    5afc: 85 16        	sta	$16                     ; 0x16 <__rc20>
    5afe: a6 04        	ldx	$4                      ; 0x4 <__rc2>
    5b00: 86 1c        	stx	$1c                     ; 0x1c <__rc26>
    5b02: a6 05        	ldx	$5                      ; 0x5 <__rc3>
    5b04: 86 1d        	stx	$1d                     ; 0x1d <__rc27>
    5b06: a6 06        	ldx	$6                      ; 0x6 <__rc4>
    5b08: 86 1a        	stx	$1a                     ; 0x1a <__rc24>
    5b0a: a6 07        	ldx	$7                      ; 0x7 <__rc5>
    5b0c: 86 1b        	stx	$1b                     ; 0x1b <__rc25>
    5b0e: a6 08        	ldx	$8                      ; 0x8 <__rc6>
    5b10: 86 18        	stx	$18                     ; 0x18 <__rc22>
    5b12: a6 09        	ldx	$9                      ; 0x9 <__rc7>
    5b14: 86 19        	stx	$19                     ; 0x19 <__rc23>
    5b16: a2 46        	ldx	#$46
    5b18: a9 0c        	lda	#$c
    5b1a: c8           	iny
    5b1b: 86 04        	stx	$4                      ; 0x4 <__rc2>
    5b1d: 84 06        	sty	$6                      ; 0x6 <__rc4>
    5b1f: 85 05        	sta	$5                      ; 0x5 <__rc3>
    5b21: a2 04        	ldx	#$4
    5b23: a9 0a        	lda	#$a
    5b25: 20 76 58     	jsr	$5876 <mcbox>
    5b28: a9 20        	lda	#$20
    5b2a: 05 35        	ora	$35                     ; 0x35 <g_curTextColor>
    5b2c: 85 35        	sta	$35                     ; 0x35 <g_curTextColor>
    5b2e: a2 52        	ldx	#$52
    5b30: 86 04        	stx	$4                      ; 0x4 <__rc2>
    5b32: a2 64        	ldx	#$64
    5b34: 86 05        	stx	$5                      ; 0x5 <__rc3>
    5b36: 20 58 57     	jsr	$5758 <asciitoscreencode_s>
    5b39: a9 0e        	lda	#$e
    5b3b: a2 34        	ldx	#$34
    5b3d: 86 04        	stx	$4                      ; 0x4 <__rc2>
    5b3f: a2 03        	ldx	#$3
    5b41: 86 05        	stx	$5                      ; 0x5 <__rc3>
    5b43: e8           	inx
    5b44: 20 2e 5f     	jsr	$5f2e <cputsxy>
    5b47: a2 d0        	ldx	#$d0
    5b49: 86 04        	stx	$4                      ; 0x4 <__rc2>
    5b4b: a2 65        	ldx	#$65
    5b4d: 86 05        	stx	$5                      ; 0x5 <__rc3>
    5b4f: 20 58 57     	jsr	$5758 <asciitoscreencode_s>
    5b52: a9 28        	lda	#$28
    5b54: a2 34        	ldx	#$34
    5b56: 86 04        	stx	$4                      ; 0x4 <__rc2>
    5b58: a2 03        	ldx	#$3
    5b5a: 86 05        	stx	$5                      ; 0x5 <__rc3>
    5b5c: e8           	inx
    5b5d: 20 2e 5f     	jsr	$5f2e <cputsxy>
    5b60: a9 df        	lda	#$df
    5b62: 25 35        	and	$35                     ; 0x35 <g_curTextColor>
    5b64: 85 35        	sta	$35                     ; 0x35 <g_curTextColor>
    5b66: a6 1c        	ldx	$1c                     ; 0x1c <__rc26>
    5b68: 86 04        	stx	$4                      ; 0x4 <__rc2>
    5b6a: a6 1d        	ldx	$1d                     ; 0x1d <__rc27>
    5b6c: 86 05        	stx	$5                      ; 0x5 <__rc3>
    5b6e: 20 58 57     	jsr	$5758 <asciitoscreencode_s>
    5b71: a2 06        	ldx	#$6
    5b73: a0 34        	ldy	#$34
    5b75: 84 04        	sty	$4                      ; 0x4 <__rc2>
    5b77: a0 03        	ldy	#$3
    5b79: 84 05        	sty	$5                      ; 0x5 <__rc3>
    5b7b: a9 0c        	lda	#$c
    5b7d: 20 2e 5f     	jsr	$5f2e <cputsxy>
    5b80: a6 1a        	ldx	$1a                     ; 0x1a <__rc24>
    5b82: 86 04        	stx	$4                      ; 0x4 <__rc2>
    5b84: a6 1b        	ldx	$1b                     ; 0x1b <__rc25>
    5b86: 86 05        	stx	$5                      ; 0x5 <__rc3>
    5b88: 20 58 57     	jsr	$5758 <asciitoscreencode_s>
    5b8b: a2 07        	ldx	#$7
    5b8d: a0 34        	ldy	#$34
    5b8f: 84 04        	sty	$4                      ; 0x4 <__rc2>
    5b91: a0 03        	ldy	#$3
    5b93: 84 05        	sty	$5                      ; 0x5 <__rc3>
    5b95: a9 0c        	lda	#$c
    5b97: 20 2e 5f     	jsr	$5f2e <cputsxy>
    5b9a: a6 18        	ldx	$18                     ; 0x18 <__rc22>
    5b9c: 86 04        	stx	$4                      ; 0x4 <__rc2>
    5b9e: a6 19        	ldx	$19                     ; 0x19 <__rc23>
    5ba0: 86 05        	stx	$5                      ; 0x5 <__rc3>
    5ba2: 20 58 57     	jsr	$5758 <asciitoscreencode_s>
    5ba5: a2 08        	ldx	#$8
    5ba7: a0 34        	ldy	#$34
    5ba9: 84 04        	sty	$4                      ; 0x4 <__rc2>
    5bab: a0 03        	ldy	#$3
    5bad: 84 05        	sty	$5                      ; 0x5 <__rc3>
    5baf: a9 0c        	lda	#$c
    5bb1: 20 2e 5f     	jsr	$5f2e <cputsxy>
    5bb4: a9 20        	lda	#$20
    5bb6: 05 35        	ora	$35                     ; 0x35 <g_curTextColor>
    5bb8: 85 35        	sta	$35                     ; 0x35 <g_curTextColor>
    5bba: a2 de        	ldx	#$de
    5bbc: 86 04        	stx	$4                      ; 0x4 <__rc2>
    5bbe: a2 64        	ldx	#$64
    5bc0: 86 05        	stx	$5                      ; 0x5 <__rc3>
    5bc2: 20 58 57     	jsr	$5758 <asciitoscreencode_s>
    5bc5: a2 34        	ldx	#$34
    5bc7: 86 04        	stx	$4                      ; 0x4 <__rc2>
    5bc9: a2 03        	ldx	#$3
    5bcb: 86 05        	stx	$5                      ; 0x5 <__rc3>
    5bcd: a2 0a        	ldx	#$a
    5bcf: a9 0c        	lda	#$c
    5bd1: 20 2e 5f     	jsr	$5f2e <cputsxy>
    5bd4: a2 0b        	ldx	#$b
    5bd6: 86 04        	stx	$4                      ; 0x4 <__rc2>
    5bd8: a2 65        	ldx	#$65
    5bda: 86 05        	stx	$5                      ; 0x5 <__rc3>
    5bdc: 20 58 57     	jsr	$5758 <asciitoscreencode_s>
    5bdf: a9 3c        	lda	#$3c
    5be1: a2 34        	ldx	#$34
    5be3: 86 04        	stx	$4                      ; 0x4 <__rc2>
    5be5: a2 03        	ldx	#$3
    5be7: 86 05        	stx	$5                      ; 0x5 <__rc3>
    5be9: a2 0a        	ldx	#$a
    5beb: 20 2e 5f     	jsr	$5f2e <cputsxy>
    5bee: a9 df        	lda	#$df
    5bf0: 25 35        	and	$35                     ; 0x35 <g_curTextColor>
    5bf2: 85 35        	sta	$35                     ; 0x35 <g_curTextColor>
    5bf4: a5 16        	lda	$16                     ; 0x16 <__rc20>
    5bf6: d0 03        	bne	$5bfb <messagebox+0x12c>
    5bf8: 4c 69 5c     	jmp	$5c69 <messagebox+0x19a>
    5bfb: a2 62        	ldx	#$62
    5bfd: 86 04        	stx	$4                      ; 0x4 <__rc2>
    5bff: a2 64        	ldx	#$64
    5c01: 86 05        	stx	$5                      ; 0x5 <__rc3>
    5c03: 20 58 57     	jsr	$5758 <asciitoscreencode_s>
    5c06: a9 02        	lda	#$2
    5c08: a2 34        	ldx	#$34
    5c0a: 86 04        	stx	$4                      ; 0x4 <__rc2>
    5c0c: a2 03        	ldx	#$3
    5c0e: 86 05        	stx	$5                      ; 0x5 <__rc3>
    5c10: 48           	pha
    5c11: a5 04        	lda	$4                      ; 0x4 <__rc2>
    5c13: a0 03        	ldy	#$3
    5c15: 91 02        	sta	($2),y                  ; 0x2 <__rc0>
    5c17: a5 05        	lda	$5                      ; 0x5 <__rc3>
    5c19: c8           	iny
    5c1a: 91 02        	sta	($2),y                  ; 0x2 <__rc0>
    5c1c: 88           	dey
    5c1d: b1 02        	lda	($2),y                  ; 0x2 <__rc0>
    5c1f: 85 04        	sta	$4                      ; 0x4 <__rc2>
    5c21: c8           	iny
    5c22: b1 02        	lda	($2),y                  ; 0x2 <__rc0>
    5c24: 85 05        	sta	$5                      ; 0x5 <__rc3>
    5c26: 68           	pla
    5c27: a2 17        	ldx	#$17
    5c29: 20 2e 5f     	jsr	$5f2e <cputsxy>
    5c2c: a2 14        	ldx	#$14
    5c2e: 86 04        	stx	$4                      ; 0x4 <__rc2>
    5c30: a2 65        	ldx	#$65
    5c32: 86 05        	stx	$5                      ; 0x5 <__rc3>
    5c34: 20 58 57     	jsr	$5758 <asciitoscreencode_s>
    5c37: a9 3a        	lda	#$3a
    5c39: 48           	pha
    5c3a: a0 03        	ldy	#$3
    5c3c: b1 02        	lda	($2),y                  ; 0x2 <__rc0>
    5c3e: 85 04        	sta	$4                      ; 0x4 <__rc2>
    5c40: c8           	iny
    5c41: b1 02        	lda	($2),y                  ; 0x2 <__rc0>
    5c43: 85 05        	sta	$5                      ; 0x5 <__rc3>
    5c45: 68           	pla
    5c46: a2 17        	ldx	#$17
    5c48: 20 2e 5f     	jsr	$5f2e <cputsxy>
    5c4b: 80 1c        	bra	$5c69 <messagebox+0x19a>
    5c4d: a2 cb        	ldx	#$cb
    5c4f: 86 04        	stx	$4                      ; 0x4 <__rc2>
    5c51: a2 65        	ldx	#$65
    5c53: 86 05        	stx	$5                      ; 0x5 <__rc3>
    5c55: 64 06        	stz	$6                      ; 0x6 <__rc4>
    5c57: 64 07        	stz	$7                      ; 0x7 <__rc5>
    5c59: a2 00        	ldx	#$0
    5c5b: 20 47 58     	jsr	$5847 <mprintf>
    5c5e: a5 56        	lda	$56                     ; 0x56 <g_curX>
    5c60: a6 57        	ldx	$57                     ; 0x57 <g_curY>
    5c62: a0 20        	ldy	#$20
    5c64: 84 04        	sty	$4                      ; 0x4 <__rc2>
    5c66: 20 40 5e     	jsr	$5e40 <cputcxy>
    5c69: ad 10 d6     	lda	$d610                   ; 0xd610 <__heap_start+0x6826>
    5c6c: f0 fb        	beq	$5c69 <messagebox+0x19a>
    5c6e: 9c 10 d6     	stz	$d610                   ; 0xd610 <__heap_start+0x6826>
    5c71: c9 03        	cmp	#$3
    5c73: f0 08        	beq	$5c7d <messagebox+0x1ae>
    5c75: c9 0d        	cmp	#$d
    5c77: f0 08        	beq	$5c81 <messagebox+0x1b2>
    5c79: c9 1b        	cmp	#$1b
    5c7b: d0 d0        	bne	$5c4d <messagebox+0x17e>
    5c7d: a9 00        	lda	#$0
    5c7f: 80 02        	bra	$5c83 <messagebox+0x1b4>
    5c81: a9 01        	lda	#$1
    5c83: 85 12        	sta	$12                     ; 0x12 <__rc16>
    5c85: a0 00        	ldy	#$0
    5c87: b1 02        	lda	($2),y                  ; 0x2 <__rc0>
    5c89: 85 1d        	sta	$1d                     ; 0x1d <__rc27>
    5c8b: c8           	iny
    5c8c: b1 02        	lda	($2),y                  ; 0x2 <__rc0>
    5c8e: 85 1c        	sta	$1c                     ; 0x1c <__rc26>
    5c90: c8           	iny
    5c91: b1 02        	lda	($2),y                  ; 0x2 <__rc0>
    5c93: 85 1b        	sta	$1b                     ; 0x1b <__rc25>
    5c95: fa           	plx
    5c96: 86 1a        	stx	$1a                     ; 0x1a <__rc24>
    5c98: fa           	plx
    5c99: 86 19        	stx	$19                     ; 0x19 <__rc23>
    5c9b: fa           	plx
    5c9c: 86 18        	stx	$18                     ; 0x18 <__rc22>
    5c9e: fa           	plx
    5c9f: 86 16        	stx	$16                     ; 0x16 <__rc20>
    5ca1: 18           	clc
    5ca2: a5 02        	lda	$2                      ; 0x2 <__rc0>
    5ca4: 69 05        	adc	#$5
    5ca6: 85 02        	sta	$2                      ; 0x2 <__rc0>
    5ca8: a5 03        	lda	$3                      ; 0x3 <__rc1>
    5caa: 69 00        	adc	#$0
    5cac: 85 03        	sta	$3                      ; 0x3 <__rc1>
    5cae: a5 12        	lda	$12                     ; 0x12 <__rc16>
    5cb0: 60           	rts

00005cb1 <UpdateSectors>:
    5cb1: 48           	pha
    5cb2: 18           	clc
    5cb3: a5 02        	lda	$2                      ; 0x2 <__rc0>
    5cb5: 69 fb        	adc	#$fb
    5cb7: 85 02        	sta	$2                      ; 0x2 <__rc0>
    5cb9: a5 03        	lda	$3                      ; 0x3 <__rc1>
    5cbb: 69 ff        	adc	#$ff
    5cbd: 85 03        	sta	$3                      ; 0x3 <__rc1>
    5cbf: 68           	pla
    5cc0: a4 16        	ldy	$16                     ; 0x16 <__rc20>
    5cc2: 5a           	phy
    5cc3: a4 17        	ldy	$17                     ; 0x17 <__rc21>
    5cc5: 5a           	phy
    5cc6: a4 18        	ldy	$18                     ; 0x18 <__rc22>
    5cc8: 5a           	phy
    5cc9: a4 19        	ldy	$19                     ; 0x19 <__rc23>
    5ccb: 5a           	phy
    5ccc: 48           	pha
    5ccd: a5 1a        	lda	$1a                     ; 0x1a <__rc24>
    5ccf: a0 04        	ldy	#$4
    5cd1: 91 02        	sta	($2),y                  ; 0x2 <__rc0>
    5cd3: a5 1b        	lda	$1b                     ; 0x1b <__rc25>
    5cd5: 88           	dey
    5cd6: 91 02        	sta	($2),y                  ; 0x2 <__rc0>
    5cd8: a5 1c        	lda	$1c                     ; 0x1c <__rc26>
    5cda: 88           	dey
    5cdb: 91 02        	sta	($2),y                  ; 0x2 <__rc0>
    5cdd: a5 1d        	lda	$1d                     ; 0x1d <__rc27>
    5cdf: 88           	dey
    5ce0: 91 02        	sta	($2),y                  ; 0x2 <__rc0>
    5ce2: a5 1e        	lda	$1e                     ; 0x1e <__rc28>
    5ce4: 88           	dey
    5ce5: 91 02        	sta	($2),y                  ; 0x2 <__rc0>
    5ce7: 68           	pla
    5ce8: 85 16        	sta	$16                     ; 0x16 <__rc20>
    5cea: 86 17        	stx	$17                     ; 0x17 <__rc21>
    5cec: 64 37        	stz	$37                     ; 0x37 <BAMsector.0>
    5cee: a2 16        	ldx	#$16
    5cf0: 86 38        	stx	$38                     ; 0x38 <BAMsector.0+0x1>
    5cf2: 64 39        	stz	$39                     ; 0x39 <BAMsector.1>
    5cf4: e8           	inx
    5cf5: 86 3a        	stx	$3a                     ; 0x3a <BAMsector.1+0x1>
    5cf7: 64 3b        	stz	$3b                     ; 0x3b <worksector.0>
    5cf9: e8           	inx
    5cfa: 86 3c        	stx	$3c                     ; 0x3c <worksector.0+0x1>
    5cfc: 64 3d        	stz	$3d                     ; 0x3d <worksectorasBAM.0>
    5cfe: 86 3e        	stx	$3e                     ; 0x3e <worksectorasBAM.0+0x1>
    5d00: 64 3f        	stz	$3f                     ; 0x3f <direntryblock.0>
    5d02: a2 1a        	ldx	#$1a
    5d04: 86 40        	stx	$40                     ; 0x40 <direntryblock.0+0x1>
    5d06: 64 41        	stz	$41                     ; 0x41 <direntryblock.1>
    5d08: e8           	inx
    5d09: 86 42        	stx	$42                     ; 0x42 <direntryblock.1+0x1>
    5d0b: 9c 80 d0     	stz	$d080                   ; 0xd080 <__heap_start+0x6296>
    5d0e: a5 17        	lda	$17                     ; 0x17 <__rc21>
    5d10: f0 04        	beq	$5d16 <UpdateSectors+0x65>
    5d12: a2 1e        	ldx	#$1e
    5d14: 80 02        	bra	$5d18 <UpdateSectors+0x67>
    5d16: a2 1c        	ldx	#$1c
    5d18: a0 01        	ldy	#$1
    5d1a: a9 08        	lda	#$8
    5d1c: 85 05        	sta	$5                      ; 0x5 <__rc3>
    5d1e: a9 02        	lda	#$2
    5d20: 85 06        	sta	$6                      ; 0x6 <__rc4>
    5d22: 64 04        	stz	$4                      ; 0x4 <__rc2>
    5d24: a5 16        	lda	$16                     ; 0x16 <__rc20>
    5d26: 85 07        	sta	$7                      ; 0x7 <__rc5>
    5d28: a9 28        	lda	#$28
    5d2a: 85 08        	sta	$8                      ; 0x8 <__rc6>
    5d2c: 84 09        	sty	$9                      ; 0x9 <__rc7>
    5d2e: a9 00        	lda	#$0
    5d30: 20 55 4f     	jsr	$4f55 <readblockchain>
    5d33: a5 17        	lda	$17                     ; 0x17 <__rc21>
    5d35: 0a           	asl
    5d36: aa           	tax
    5d37: a9 00        	lda	#$0
    5d39: 2a           	rol
    5d3a: a8           	tay
    5d3b: a9 00        	lda	#$0
    5d3d: 2a           	rol
    5d3e: 85 05        	sta	$5                      ; 0x5 <__rc3>
    5d40: 18           	clc
    5d41: 8a           	txa
    5d42: 69 1c        	adc	#$1c
    5d44: 85 0c        	sta	$c                      ; 0xc <__rc10>
    5d46: 98           	tya
    5d47: 69 00        	adc	#$0
    5d49: 85 04        	sta	$4                      ; 0x4 <__rc2>
    5d4b: a5 05        	lda	$5                      ; 0x5 <__rc3>
    5d4d: 69 08        	adc	#$8
    5d4f: 85 05        	sta	$5                      ; 0x5 <__rc3>
    5d51: a4 37        	ldy	$37                     ; 0x37 <BAMsector.0>
    5d53: a6 38        	ldx	$38                     ; 0x38 <BAMsector.0+0x1>
    5d55: a9 02        	lda	#$2
    5d57: 84 06        	sty	$6                      ; 0x6 <__rc4>
    5d59: 86 07        	stx	$7                      ; 0x7 <__rc5>
    5d5b: 64 08        	stz	$8                      ; 0x8 <__rc6>
    5d5d: 64 09        	stz	$9                      ; 0x9 <__rc7>
    5d5f: 64 0a        	stz	$a                      ; 0xa <__rc8>
    5d61: 85 0b        	sta	$b                      ; 0xb <__rc9>
    5d63: a6 0c        	ldx	$c                      ; 0xc <__rc10>
    5d65: a9 00        	lda	#$0
    5d67: 20 0b 60     	jsr	$600b <lcopy>
    5d6a: a6 37        	ldx	$37                     ; 0x37 <BAMsector.0>
    5d6c: a4 38        	ldy	$38                     ; 0x38 <BAMsector.0+0x1>
    5d6e: 86 1a        	stx	$1a                     ; 0x1a <__rc24>
    5d70: 84 1b        	sty	$1b                     ; 0x1b <__rc25>
    5d72: a6 39        	ldx	$39                     ; 0x39 <BAMsector.1>
    5d74: a4 3a        	ldy	$3a                     ; 0x3a <BAMsector.1+0x1>
    5d76: 86 18        	stx	$18                     ; 0x18 <__rc22>
    5d78: 84 19        	sty	$19                     ; 0x19 <__rc23>
    5d7a: 64 1c        	stz	$1c                     ; 0x1c <__rc26>
    5d7c: a2 00        	ldx	#$0
    5d7e: 64 1d        	stz	$1d                     ; 0x1d <__rc27>
    5d80: 80 3c        	bra	$5dbe <UpdateSectors+0x10d>
    5d82: 18           	clc
    5d83: 69 d8        	adc	#$d8
    5d85: a4 18        	ldy	$18                     ; 0x18 <__rc22>
    5d87: 84 1a        	sty	$1a                     ; 0x1a <__rc24>
    5d89: a4 19        	ldy	$19                     ; 0x19 <__rc23>
    5d8b: 84 1b        	sty	$1b                     ; 0x1b <__rc25>
    5d8d: 86 1e        	stx	$1e                     ; 0x1e <__rc28>
    5d8f: a2 06        	ldx	#$6
    5d91: 86 04        	stx	$4                      ; 0x4 <__rc2>
    5d93: 64 05        	stz	$5                      ; 0x5 <__rc3>
    5d95: a2 00        	ldx	#$0
    5d97: 20 a4 61     	jsr	$61a4 <__mulhi3>
    5d9a: 86 04        	stx	$4                      ; 0x4 <__rc2>
    5d9c: a6 1e        	ldx	$1e                     ; 0x1e <__rc28>
    5d9e: 18           	clc
    5d9f: 65 1a        	adc	$1a                     ; 0x1a <__rc24>
    5da1: a8           	tay
    5da2: a5 04        	lda	$4                      ; 0x4 <__rc2>
    5da4: 65 1b        	adc	$1b                     ; 0x1b <__rc25>
    5da6: 84 04        	sty	$4                      ; 0x4 <__rc2>
    5da8: 85 05        	sta	$5                      ; 0x5 <__rc3>
    5daa: 18           	clc
    5dab: a5 1c        	lda	$1c                     ; 0x1c <__rc26>
    5dad: a0 10        	ldy	#$10
    5daf: 71 04        	adc	($4),y                  ; 0x4 <__rc2>
    5db1: 85 1c        	sta	$1c                     ; 0x1c <__rc26>
    5db3: a5 1d        	lda	$1d                     ; 0x1d <__rc27>
    5db5: 69 00        	adc	#$0
    5db7: 85 1d        	sta	$1d                     ; 0x1d <__rc27>
    5db9: e8           	inx
    5dba: e0 50        	cpx	#$50
    5dbc: f0 0b        	beq	$5dc9 <UpdateSectors+0x118>
    5dbe: 8a           	txa
    5dbf: e0 28        	cpx	#$28
    5dc1: b0 bf        	bcs	$5d82 <UpdateSectors+0xd1>
    5dc3: e0 27        	cpx	#$27
    5dc5: d0 c6        	bne	$5d8d <UpdateSectors+0xdc>
    5dc7: 80 f0        	bra	$5db9 <UpdateSectors+0x108>
    5dc9: a9 00        	lda	#$0
    5dcb: a6 17        	ldx	$17                     ; 0x17 <__rc21>
    5dcd: 86 04        	stx	$4                      ; 0x4 <__rc2>
    5dcf: 06 04        	asl	$4                      ; 0x4 <__rc2>
    5dd1: 2a           	rol
    5dd2: 18           	clc
    5dd3: 85 05        	sta	$5                      ; 0x5 <__rc3>
    5dd5: a9 31        	lda	#$31
    5dd7: 65 04        	adc	$4                      ; 0x4 <__rc2>
    5dd9: 85 04        	sta	$4                      ; 0x4 <__rc2>
    5ddb: a9 00        	lda	#$0
    5ddd: 65 05        	adc	$5                      ; 0x5 <__rc3>
    5ddf: 85 05        	sta	$5                      ; 0x5 <__rc3>
    5de1: b2 04        	lda	($4),z                  ; 0x4 <__rc2>
    5de3: 85 18        	sta	$18                     ; 0x18 <__rc22>
    5de5: 18           	clc
    5de6: 69 44        	adc	#$44
    5de8: 85 06        	sta	$6                      ; 0x6 <__rc4>
    5dea: a0 01        	ldy	#$1
    5dec: b1 04        	lda	($4),y                  ; 0x4 <__rc2>
    5dee: 85 19        	sta	$19                     ; 0x19 <__rc23>
    5df0: 69 00        	adc	#$0
    5df2: 85 07        	sta	$7                      ; 0x7 <__rc5>
    5df4: a0 44        	ldy	#$44
    5df6: a5 1c        	lda	$1c                     ; 0x1c <__rc26>
    5df8: 91 18        	sta	($18),y                 ; 0x18 <__rc22>
    5dfa: a5 1d        	lda	$1d                     ; 0x1d <__rc27>
    5dfc: a0 01        	ldy	#$1
    5dfe: 91 06        	sta	($6),y                  ; 0x6 <__rc4>
    5e00: a6 17        	ldx	$17                     ; 0x17 <__rc21>
    5e02: a5 16        	lda	$16                     ; 0x16 <__rc20>
    5e04: 20 d3 54     	jsr	$54d3 <getdirent>
    5e07: a0 02        	ldy	#$2
    5e09: 91 18        	sta	($18),y                 ; 0x18 <__rc22>
    5e0b: a0 00        	ldy	#$0
    5e0d: b1 02        	lda	($2),y                  ; 0x2 <__rc0>
    5e0f: 85 1e        	sta	$1e                     ; 0x1e <__rc28>
    5e11: c8           	iny
    5e12: b1 02        	lda	($2),y                  ; 0x2 <__rc0>
    5e14: 85 1d        	sta	$1d                     ; 0x1d <__rc27>
    5e16: c8           	iny
    5e17: b1 02        	lda	($2),y                  ; 0x2 <__rc0>
    5e19: 85 1c        	sta	$1c                     ; 0x1c <__rc26>
    5e1b: c8           	iny
    5e1c: b1 02        	lda	($2),y                  ; 0x2 <__rc0>
    5e1e: 85 1b        	sta	$1b                     ; 0x1b <__rc25>
    5e20: c8           	iny
    5e21: b1 02        	lda	($2),y                  ; 0x2 <__rc0>
    5e23: 85 1a        	sta	$1a                     ; 0x1a <__rc24>
    5e25: fa           	plx
    5e26: 86 19        	stx	$19                     ; 0x19 <__rc23>
    5e28: fa           	plx
    5e29: 86 18        	stx	$18                     ; 0x18 <__rc22>
    5e2b: fa           	plx
    5e2c: 86 17        	stx	$17                     ; 0x17 <__rc21>
    5e2e: fa           	plx
    5e2f: 86 16        	stx	$16                     ; 0x16 <__rc20>
    5e31: 18           	clc
    5e32: a5 02        	lda	$2                      ; 0x2 <__rc0>
    5e34: 69 05        	adc	#$5
    5e36: 85 02        	sta	$2                      ; 0x2 <__rc0>
    5e38: a5 03        	lda	$3                      ; 0x3 <__rc1>
    5e3a: 69 00        	adc	#$0
    5e3c: 85 03        	sta	$3                      ; 0x3 <__rc1>
    5e3e: 60           	rts

00005e3f <escNOP>:
    5e3f: 60           	rts

00005e40 <cputcxy>:
    5e40: 48           	pha
    5e41: 18           	clc
    5e42: a5 02        	lda	$2                      ; 0x2 <__rc0>
    5e44: 69 fe        	adc	#$fe
    5e46: 85 02        	sta	$2                      ; 0x2 <__rc0>
    5e48: a5 03        	lda	$3                      ; 0x3 <__rc1>
    5e4a: 69 ff        	adc	#$ff
    5e4c: 85 03        	sta	$3                      ; 0x3 <__rc1>
    5e4e: 68           	pla
    5e4f: a4 16        	ldy	$16                     ; 0x16 <__rc20>
    5e51: 5a           	phy
    5e52: a4 17        	ldy	$17                     ; 0x17 <__rc21>
    5e54: 5a           	phy
    5e55: a4 18        	ldy	$18                     ; 0x18 <__rc22>
    5e57: 5a           	phy
    5e58: a4 19        	ldy	$19                     ; 0x19 <__rc23>
    5e5a: 5a           	phy
    5e5b: 48           	pha
    5e5c: a5 1a        	lda	$1a                     ; 0x1a <__rc24>
    5e5e: a0 01        	ldy	#$1
    5e60: 91 02        	sta	($2),y                  ; 0x2 <__rc0>
    5e62: a5 1b        	lda	$1b                     ; 0x1b <__rc25>
    5e64: 88           	dey
    5e65: 91 02        	sta	($2),y                  ; 0x2 <__rc0>
    5e67: 68           	pla
    5e68: 85 18        	sta	$18                     ; 0x18 <__rc22>
    5e6a: a4 04        	ldy	$4                      ; 0x4 <__rc2>
    5e6c: 84 17        	sty	$17                     ; 0x17 <__rc21>
    5e6e: a5 54        	lda	$54                     ; 0x54 <g_curScreenW>
    5e70: 64 16        	stz	$16                     ; 0x16 <__rc20>
    5e72: 86 19        	stx	$19                     ; 0x19 <__rc23>
    5e74: 86 04        	stx	$4                      ; 0x4 <__rc2>
    5e76: 64 05        	stz	$5                      ; 0x5 <__rc3>
    5e78: a2 00        	ldx	#$0
    5e7a: 20 a4 61     	jsr	$61a4 <__mulhi3>
    5e7d: 18           	clc
    5e7e: 65 18        	adc	$18                     ; 0x18 <__rc22>
    5e80: 85 1a        	sta	$1a                     ; 0x1a <__rc24>
    5e82: 8a           	txa
    5e83: 69 00        	adc	#$0
    5e85: 85 1b        	sta	$1b                     ; 0x1b <__rc25>
    5e87: ad 63 d0     	lda	$d063                   ; 0xd063 <__heap_start+0x6279>
    5e8a: 29 07        	and	#$7
    5e8c: a8           	tay
    5e8d: ae 62 d0     	ldx	$d062                   ; 0xd062 <__heap_start+0x6278>
    5e90: 86 05        	stx	$5                      ; 0x5 <__rc3>
    5e92: ae 61 d0     	ldx	$d061                   ; 0xd061 <__heap_start+0x6277>
    5e95: 86 04        	stx	$4                      ; 0x4 <__rc2>
    5e97: a5 1a        	lda	$1a                     ; 0x1a <__rc24>
    5e99: 18           	clc
    5e9a: 69 00        	adc	#$0
    5e9c: 85 06        	sta	$6                      ; 0x6 <__rc4>
    5e9e: a5 1b        	lda	$1b                     ; 0x1b <__rc25>
    5ea0: 65 04        	adc	$4                      ; 0x4 <__rc2>
    5ea2: 85 08        	sta	$8                      ; 0x8 <__rc6>
    5ea4: a5 05        	lda	$5                      ; 0x5 <__rc3>
    5ea6: 69 00        	adc	#$0
    5ea8: 85 05        	sta	$5                      ; 0x5 <__rc3>
    5eaa: 98           	tya
    5eab: 69 00        	adc	#$0
    5ead: a8           	tay
    5eae: ae 60 d0     	ldx	$d060                   ; 0xd060 <__heap_start+0x6276>
    5eb1: 86 04        	stx	$4                      ; 0x4 <__rc2>
    5eb3: 18           	clc
    5eb4: a5 06        	lda	$6                      ; 0x6 <__rc4>
    5eb6: 65 04        	adc	$4                      ; 0x4 <__rc2>
    5eb8: 85 07        	sta	$7                      ; 0x7 <__rc5>
    5eba: a5 08        	lda	$8                      ; 0x8 <__rc6>
    5ebc: 69 00        	adc	#$0
    5ebe: aa           	tax
    5ebf: a5 05        	lda	$5                      ; 0x5 <__rc3>
    5ec1: 69 00        	adc	#$0
    5ec3: 85 04        	sta	$4                      ; 0x4 <__rc2>
    5ec5: 98           	tya
    5ec6: 69 00        	adc	#$0
    5ec8: 85 05        	sta	$5                      ; 0x5 <__rc3>
    5eca: a4 17        	ldy	$17                     ; 0x17 <__rc21>
    5ecc: 84 06        	sty	$6                      ; 0x6 <__rc4>
    5ece: a5 07        	lda	$7                      ; 0x7 <__rc5>
    5ed0: 20 95 20     	jsr	$2095 <lpoke>
    5ed3: a6 35        	ldx	$35                     ; 0x35 <g_curTextColor>
    5ed5: a0 f8        	ldy	#$f8
    5ed7: a9 0f        	lda	#$f
    5ed9: 84 04        	sty	$4                      ; 0x4 <__rc2>
    5edb: 85 05        	sta	$5                      ; 0x5 <__rc3>
    5edd: 86 06        	stx	$6                      ; 0x6 <__rc4>
    5edf: a6 1b        	ldx	$1b                     ; 0x1b <__rc25>
    5ee1: a5 1a        	lda	$1a                     ; 0x1a <__rc24>
    5ee3: 20 95 20     	jsr	$2095 <lpoke>
    5ee6: a6 54        	ldx	$54                     ; 0x54 <g_curScreenW>
    5ee8: da           	phx
    5ee9: 7a           	ply
    5eea: ca           	dex
    5eeb: c0 00        	cpy	#$0
    5eed: d0 02        	bne	$5ef1 <cputcxy+0xb1>
    5eef: c6 16        	dec	$16                     ; 0x16 <__rc20>
    5ef1: a5 16        	lda	$16                     ; 0x16 <__rc20>
    5ef3: d0 0b        	bne	$5f00 <cputcxy+0xc0>
    5ef5: a4 19        	ldy	$19                     ; 0x19 <__rc23>
    5ef7: e4 18        	cpx	$18                     ; 0x18 <__rc22>
    5ef9: d0 07        	bne	$5f02 <cputcxy+0xc2>
    5efb: a2 00        	ldx	#$0
    5efd: c8           	iny
    5efe: 80 05        	bra	$5f05 <cputcxy+0xc5>
    5f00: a4 19        	ldy	$19                     ; 0x19 <__rc23>
    5f02: a6 18        	ldx	$18                     ; 0x18 <__rc22>
    5f04: e8           	inx
    5f05: 86 56        	stx	$56                     ; 0x56 <g_curX>
    5f07: 84 57        	sty	$57                     ; 0x57 <g_curY>
    5f09: a0 00        	ldy	#$0
    5f0b: b1 02        	lda	($2),y                  ; 0x2 <__rc0>
    5f0d: 85 1b        	sta	$1b                     ; 0x1b <__rc25>
    5f0f: c8           	iny
    5f10: b1 02        	lda	($2),y                  ; 0x2 <__rc0>
    5f12: 85 1a        	sta	$1a                     ; 0x1a <__rc24>
    5f14: fa           	plx
    5f15: 86 19        	stx	$19                     ; 0x19 <__rc23>
    5f17: fa           	plx
    5f18: 86 18        	stx	$18                     ; 0x18 <__rc22>
    5f1a: fa           	plx
    5f1b: 86 17        	stx	$17                     ; 0x17 <__rc21>
    5f1d: fa           	plx
    5f1e: 86 16        	stx	$16                     ; 0x16 <__rc20>
    5f20: 18           	clc
    5f21: a5 02        	lda	$2                      ; 0x2 <__rc0>
    5f23: 69 02        	adc	#$2
    5f25: 85 02        	sta	$2                      ; 0x2 <__rc0>
    5f27: a5 03        	lda	$3                      ; 0x3 <__rc1>
    5f29: 69 00        	adc	#$0
    5f2b: 85 03        	sta	$3                      ; 0x3 <__rc1>
    5f2d: 60           	rts

00005f2e <cputsxy>:
    5f2e: 85 8c        	sta	$8c                     ; 0x8c <__zp_bss_size+0x56>
    5f30: 86 8b        	stx	$8b                     ; 0x8b <__zp_bss_size+0x55>
    5f32: a6 04        	ldx	$4                      ; 0x4 <__rc2>
    5f34: 86 06        	stx	$6                      ; 0x6 <__rc4>
    5f36: a6 05        	ldx	$5                      ; 0x5 <__rc3>
    5f38: 86 07        	stx	$7                      ; 0x7 <__rc5>
    5f3a: a6 06        	ldx	$6                      ; 0x6 <__rc4>
    5f3c: 86 89        	stx	$89                     ; 0x89 <__zp_bss_size+0x53>
    5f3e: a6 07        	ldx	$7                      ; 0x7 <__rc5>
    5f40: 86 8a        	stx	$8a                     ; 0x8a <__zp_bss_size+0x54>
    5f42: 20 42 61     	jsr	$6142 <strlen>
    5f45: 85 88        	sta	$88                     ; 0x88 <__zp_bss_size+0x52>
    5f47: a5 54        	lda	$54                     ; 0x54 <g_curScreenW>
    5f49: a6 8b        	ldx	$8b                     ; 0x8b <__zp_bss_size+0x55>
    5f4b: 86 04        	stx	$4                      ; 0x4 <__rc2>
    5f4d: 64 05        	stz	$5                      ; 0x5 <__rc3>
    5f4f: a2 00        	ldx	#$0
    5f51: 20 a4 61     	jsr	$61a4 <__mulhi3>
    5f54: 86 05        	stx	$5                      ; 0x5 <__rc3>
    5f56: a6 8c        	ldx	$8c                     ; 0x8c <__zp_bss_size+0x56>
    5f58: 86 04        	stx	$4                      ; 0x4 <__rc2>
    5f5a: 18           	clc
    5f5b: 65 04        	adc	$4                      ; 0x4 <__rc2>
    5f5d: a8           	tay
    5f5e: 85 8e        	sta	$8e                     ; 0x8e <__zp_bss_size+0x58>
    5f60: a5 05        	lda	$5                      ; 0x5 <__rc3>
    5f62: 69 00        	adc	#$0
    5f64: 85 8d        	sta	$8d                     ; 0x8d <__zp_bss_size+0x57>
    5f66: ad 63 d0     	lda	$d063                   ; 0xd063 <__heap_start+0x6279>
    5f69: 29 07        	and	#$7
    5f6b: 85 07        	sta	$7                      ; 0x7 <__rc5>
    5f6d: ae 62 d0     	ldx	$d062                   ; 0xd062 <__heap_start+0x6278>
    5f70: 86 06        	stx	$6                      ; 0x6 <__rc4>
    5f72: ae 61 d0     	ldx	$d061                   ; 0xd061 <__heap_start+0x6277>
    5f75: 86 04        	stx	$4                      ; 0x4 <__rc2>
    5f77: 98           	tya
    5f78: 18           	clc
    5f79: 69 00        	adc	#$0
    5f7b: 85 08        	sta	$8                      ; 0x8 <__rc6>
    5f7d: a6 8d        	ldx	$8d                     ; 0x8d <__zp_bss_size+0x57>
    5f7f: 8a           	txa
    5f80: 65 04        	adc	$4                      ; 0x4 <__rc2>
    5f82: 85 09        	sta	$9                      ; 0x9 <__rc7>
    5f84: a5 06        	lda	$6                      ; 0x6 <__rc4>
    5f86: 69 00        	adc	#$0
    5f88: 85 05        	sta	$5                      ; 0x5 <__rc3>
    5f8a: a5 07        	lda	$7                      ; 0x7 <__rc5>
    5f8c: 69 00        	adc	#$0
    5f8e: a8           	tay
    5f8f: ae 60 d0     	ldx	$d060                   ; 0xd060 <__heap_start+0x6276>
    5f92: 86 04        	stx	$4                      ; 0x4 <__rc2>
    5f94: 18           	clc
    5f95: a5 08        	lda	$8                      ; 0x8 <__rc6>
    5f97: 65 04        	adc	$4                      ; 0x4 <__rc2>
    5f99: 85 06        	sta	$6                      ; 0x6 <__rc4>
    5f9b: a5 09        	lda	$9                      ; 0x9 <__rc7>
    5f9d: 69 00        	adc	#$0
    5f9f: 85 07        	sta	$7                      ; 0x7 <__rc5>
    5fa1: a5 05        	lda	$5                      ; 0x5 <__rc3>
    5fa3: 69 00        	adc	#$0
    5fa5: 85 08        	sta	$8                      ; 0x8 <__rc6>
    5fa7: 98           	tya
    5fa8: 69 00        	adc	#$0
    5faa: 64 04        	stz	$4                      ; 0x4 <__rc2>
    5fac: 64 05        	stz	$5                      ; 0x5 <__rc3>
    5fae: 85 09        	sta	$9                      ; 0x9 <__rc7>
    5fb0: a6 88        	ldx	$88                     ; 0x88 <__zp_bss_size+0x52>
    5fb2: 86 0a        	stx	$a                      ; 0xa <__rc8>
    5fb4: 64 0b        	stz	$b                      ; 0xb <__rc9>
    5fb6: a6 89        	ldx	$89                     ; 0x89 <__zp_bss_size+0x53>
    5fb8: 86 0c        	stx	$c                      ; 0xc <__rc10>
    5fba: a6 8a        	ldx	$8a                     ; 0x8a <__zp_bss_size+0x54>
    5fbc: a5 0c        	lda	$c                      ; 0xc <__rc10>
    5fbe: 20 0b 60     	jsr	$600b <lcopy>
    5fc1: a6 35        	ldx	$35                     ; 0x35 <g_curTextColor>
    5fc3: a0 f8        	ldy	#$f8
    5fc5: a9 0f        	lda	#$f
    5fc7: 84 04        	sty	$4                      ; 0x4 <__rc2>
    5fc9: 85 05        	sta	$5                      ; 0x5 <__rc3>
    5fcb: 86 06        	stx	$6                      ; 0x6 <__rc4>
    5fcd: a6 88        	ldx	$88                     ; 0x88 <__zp_bss_size+0x52>
    5fcf: 86 07        	stx	$7                      ; 0x7 <__rc5>
    5fd1: 64 08        	stz	$8                      ; 0x8 <__rc6>
    5fd3: a6 8d        	ldx	$8d                     ; 0x8d <__zp_bss_size+0x57>
    5fd5: a5 8e        	lda	$8e                     ; 0x8e <__zp_bss_size+0x58>
    5fd7: 20 96 60     	jsr	$6096 <lfill>
    5fda: a5 88        	lda	$88                     ; 0x88 <__zp_bss_size+0x52>
    5fdc: a6 8c        	ldx	$8c                     ; 0x8c <__zp_bss_size+0x56>
    5fde: 86 04        	stx	$4                      ; 0x4 <__rc2>
    5fe0: 18           	clc
    5fe1: 65 04        	adc	$4                      ; 0x4 <__rc2>
    5fe3: 85 08        	sta	$8                      ; 0x8 <__rc6>
    5fe5: a9 00        	lda	#$0
    5fe7: 69 00        	adc	#$0
    5fe9: a6 54        	ldx	$54                     ; 0x54 <g_curScreenW>
    5feb: a0 86        	ldy	#$86
    5fed: 84 06        	sty	$6                      ; 0x6 <__rc4>
    5fef: a0 00        	ldy	#$0
    5ff1: 84 07        	sty	$7                      ; 0x7 <__rc5>
    5ff3: 64 05        	stz	$5                      ; 0x5 <__rc3>
    5ff5: 86 04        	stx	$4                      ; 0x4 <__rc2>
    5ff7: aa           	tax
    5ff8: a5 08        	lda	$8                      ; 0x8 <__rc6>
    5ffa: 20 46 62     	jsr	$6246 <__udivmodhi4>
    5ffd: a6 86        	ldx	$86                     ; 0x86 <__zp_bss_size+0x50>
    5fff: 18           	clc
    6000: a4 8b        	ldy	$8b                     ; 0x8b <__zp_bss_size+0x55>
    6002: 84 04        	sty	$4                      ; 0x4 <__rc2>
    6004: 65 04        	adc	$4                      ; 0x4 <__rc2>
    6006: 85 57        	sta	$57                     ; 0x57 <g_curY>
    6008: 86 56        	stx	$56                     ; 0x56 <g_curX>
    600a: 60           	rts

0000600b <lcopy>:
    600b: 85 0c        	sta	$c                      ; 0xc <__rc10>
    600d: 86 0d        	stx	$d                      ; 0xd <__rc11>
    600f: a6 0a        	ldx	$a                      ; 0xa <__rc8>
    6011: a4 0b        	ldy	$b                      ; 0xb <__rc9>
    6013: a9 0b        	lda	#$b
    6015: 85 58        	sta	$58                     ; 0x58 <dmalist>
    6017: a9 80        	lda	#$80
    6019: 85 59        	sta	$59                     ; 0x59 <dmalist+0x1>
    601b: 46 05        	lsr	$5                      ; 0x5 <__rc3>
    601d: a5 04        	lda	$4                      ; 0x4 <__rc2>
    601f: 6a           	ror
    6020: 46 05        	lsr	$5                      ; 0x5 <__rc3>
    6022: 6a           	ror
    6023: 46 05        	lsr	$5                      ; 0x5 <__rc3>
    6025: 6a           	ror
    6026: 46 05        	lsr	$5                      ; 0x5 <__rc3>
    6028: 6a           	ror
    6029: 85 5a        	sta	$5a                     ; 0x5a <dmalist+0x2>
    602b: a9 81        	lda	#$81
    602d: 85 5b        	sta	$5b                     ; 0x5b <dmalist+0x3>
    602f: 46 09        	lsr	$9                      ; 0x9 <__rc7>
    6031: a5 08        	lda	$8                      ; 0x8 <__rc6>
    6033: 6a           	ror
    6034: 46 09        	lsr	$9                      ; 0x9 <__rc7>
    6036: 6a           	ror
    6037: 46 09        	lsr	$9                      ; 0x9 <__rc7>
    6039: 6a           	ror
    603a: 46 09        	lsr	$9                      ; 0x9 <__rc7>
    603c: 6a           	ror
    603d: 85 5c        	sta	$5c                     ; 0x5c <dmalist+0x4>
    603f: a9 85        	lda	#$85
    6041: 85 5d        	sta	$5d                     ; 0x5d <dmalist+0x5>
    6043: a9 01        	lda	#$1
    6045: 85 5e        	sta	$5e                     ; 0x5e <dmalist+0x6>
    6047: 64 5f        	stz	$5f                     ; 0x5f <dmalist+0x7>
    6049: 64 69        	stz	$69                     ; 0x69 <dmalist+0x11>
    604b: 64 60        	stz	$60                     ; 0x60 <dmalist+0x8>
    604d: 86 61        	stx	$61                     ; 0x61 <dmalist+0x9>
    604f: 84 62        	sty	$62                     ; 0x62 <dmalist+0xa>
    6051: 64 69        	stz	$69                     ; 0x69 <dmalist+0x11>
    6053: a6 0c        	ldx	$c                      ; 0xc <__rc10>
    6055: 86 63        	stx	$63                     ; 0x63 <dmalist+0xb>
    6057: a6 0d        	ldx	$d                      ; 0xd <__rc11>
    6059: 86 64        	stx	$64                     ; 0x64 <dmalist+0xc>
    605b: a5 04        	lda	$4                      ; 0x4 <__rc2>
    605d: 29 0f        	and	#$f
    605f: 85 65        	sta	$65                     ; 0x65 <dmalist+0xd>
    6061: a6 06        	ldx	$6                      ; 0x6 <__rc4>
    6063: 86 66        	stx	$66                     ; 0x66 <dmalist+0xe>
    6065: a2 00        	ldx	#$0
    6067: a0 58        	ldy	#$58
    6069: 84 04        	sty	$4                      ; 0x4 <__rc2>
    606b: a0 00        	ldy	#$0
    606d: 84 05        	sty	$5                      ; 0x5 <__rc3>
    606f: a4 07        	ldy	$7                      ; 0x7 <__rc5>
    6071: 84 67        	sty	$67                     ; 0x67 <dmalist+0xf>
    6073: a4 04        	ldy	$4                      ; 0x4 <__rc2>
    6075: a5 08        	lda	$8                      ; 0x8 <__rc6>
    6077: 29 0f        	and	#$f
    6079: 85 68        	sta	$68                     ; 0x68 <dmalist+0x10>
    607b: a9 47        	lda	#$47
    607d: 8d 2f d0     	sta	$d02f                   ; 0xd02f <__heap_start+0x6245>
    6080: a9 53        	lda	#$53
    6082: 8d 2f d0     	sta	$d02f                   ; 0xd02f <__heap_start+0x6245>
    6085: a9 41        	lda	#$41
    6087: 85 00        	sta	$0                      ; 0x0 <__data_size>
    6089: 9c 02 d7     	stz	$d702                   ; 0xd702 <__heap_start+0x6918>
    608c: 9c 04 d7     	stz	$d704                   ; 0xd704 <__heap_start+0x691a>
    608f: 8e 01 d7     	stx	$d701                   ; 0xd701 <__heap_start+0x6917>
    6092: 8c 05 d7     	sty	$d705                   ; 0xd705 <__heap_start+0x691b>
    6095: 60           	rts

00006096 <lfill>:
    6096: 85 09        	sta	$9                      ; 0x9 <__rc7>
    6098: 86 0a        	stx	$a                      ; 0xa <__rc8>
    609a: a6 07        	ldx	$7                      ; 0x7 <__rc5>
    609c: a4 08        	ldy	$8                      ; 0x8 <__rc6>
    609e: a9 0b        	lda	#$b
    60a0: 85 58        	sta	$58                     ; 0x58 <dmalist>
    60a2: a9 80        	lda	#$80
    60a4: 85 59        	sta	$59                     ; 0x59 <dmalist+0x1>
    60a6: 64 5a        	stz	$5a                     ; 0x5a <dmalist+0x2>
    60a8: 1a           	inc
    60a9: 85 5b        	sta	$5b                     ; 0x5b <dmalist+0x3>
    60ab: 46 05        	lsr	$5                      ; 0x5 <__rc3>
    60ad: a5 04        	lda	$4                      ; 0x4 <__rc2>
    60af: 6a           	ror
    60b0: 46 05        	lsr	$5                      ; 0x5 <__rc3>
    60b2: 6a           	ror
    60b3: 46 05        	lsr	$5                      ; 0x5 <__rc3>
    60b5: 6a           	ror
    60b6: 46 05        	lsr	$5                      ; 0x5 <__rc3>
    60b8: 6a           	ror
    60b9: 85 5c        	sta	$5c                     ; 0x5c <dmalist+0x4>
    60bb: a9 85        	lda	#$85
    60bd: 85 5d        	sta	$5d                     ; 0x5d <dmalist+0x5>
    60bf: a9 01        	lda	#$1
    60c1: 85 5e        	sta	$5e                     ; 0x5e <dmalist+0x6>
    60c3: 64 5f        	stz	$5f                     ; 0x5f <dmalist+0x7>
    60c5: a9 03        	lda	#$3
    60c7: 85 60        	sta	$60                     ; 0x60 <dmalist+0x8>
    60c9: 64 69        	stz	$69                     ; 0x69 <dmalist+0x11>
    60cb: 86 61        	stx	$61                     ; 0x61 <dmalist+0x9>
    60cd: 84 62        	sty	$62                     ; 0x62 <dmalist+0xa>
    60cf: a6 06        	ldx	$6                      ; 0x6 <__rc4>
    60d1: 86 63        	stx	$63                     ; 0x63 <dmalist+0xb>
    60d3: 64 64        	stz	$64                     ; 0x64 <dmalist+0xc>
    60d5: a6 09        	ldx	$9                      ; 0x9 <__rc7>
    60d7: 86 66        	stx	$66                     ; 0x66 <dmalist+0xe>
    60d9: a2 00        	ldx	#$0
    60db: a0 58        	ldy	#$58
    60dd: 84 06        	sty	$6                      ; 0x6 <__rc4>
    60df: a0 00        	ldy	#$0
    60e1: 84 07        	sty	$7                      ; 0x7 <__rc5>
    60e3: a4 0a        	ldy	$a                      ; 0xa <__rc8>
    60e5: 84 67        	sty	$67                     ; 0x67 <dmalist+0xf>
    60e7: a4 06        	ldy	$6                      ; 0x6 <__rc4>
    60e9: a5 04        	lda	$4                      ; 0x4 <__rc2>
    60eb: 29 0f        	and	#$f
    60ed: 85 68        	sta	$68                     ; 0x68 <dmalist+0x10>
    60ef: a9 47        	lda	#$47
    60f1: 8d 2f d0     	sta	$d02f                   ; 0xd02f <__heap_start+0x6245>
    60f4: a9 53        	lda	#$53
    60f6: 8d 2f d0     	sta	$d02f                   ; 0xd02f <__heap_start+0x6245>
    60f9: a9 41        	lda	#$41
    60fb: 85 00        	sta	$0                      ; 0x0 <__data_size>
    60fd: 9c 02 d7     	stz	$d702                   ; 0xd702 <__heap_start+0x6918>
    6100: 9c 04 d7     	stz	$d704                   ; 0xd704 <__heap_start+0x691a>
    6103: 8e 01 d7     	stx	$d701                   ; 0xd701 <__heap_start+0x6917>
    6106: 8c 05 d7     	sty	$d705                   ; 0xd705 <__heap_start+0x691b>
    6109: 60           	rts

0000610a <strcpy>:
    610a: b2 06        	lda	($6),z                  ; 0x6 <__rc4>
    610c: 92 04        	sta	($4),z                  ; 0x4 <__rc2>
    610e: b2 06        	lda	($6),z                  ; 0x6 <__rc4>
    6110: f0 2f        	beq	$6141 <strcpy+0x37>
    6112: a0 01        	ldy	#$1
    6114: a6 04        	ldx	$4                      ; 0x4 <__rc2>
    6116: 86 08        	stx	$8                      ; 0x8 <__rc6>
    6118: a6 05        	ldx	$5                      ; 0x5 <__rc3>
    611a: 86 09        	stx	$9                      ; 0x9 <__rc7>
    611c: a6 06        	ldx	$6                      ; 0x6 <__rc4>
    611e: 86 0a        	stx	$a                      ; 0xa <__rc8>
    6120: a6 07        	ldx	$7                      ; 0x7 <__rc5>
    6122: 86 0b        	stx	$b                      ; 0xb <__rc9>
    6124: e6 0a        	inc	$a                      ; 0xa <__rc8>
    6126: d0 02        	bne	$612a <strcpy+0x20>
    6128: e6 0b        	inc	$b                      ; 0xb <__rc9>
    612a: b1 06        	lda	($6),y                  ; 0x6 <__rc4>
    612c: 91 08        	sta	($8),y                  ; 0x8 <__rc6>
    612e: b1 06        	lda	($6),y                  ; 0x6 <__rc4>
    6130: e6 08        	inc	$8                      ; 0x8 <__rc6>
    6132: d0 02        	bne	$6136 <strcpy+0x2c>
    6134: e6 09        	inc	$9                      ; 0x9 <__rc7>
    6136: a6 0a        	ldx	$a                      ; 0xa <__rc8>
    6138: 86 06        	stx	$6                      ; 0x6 <__rc4>
    613a: a6 0b        	ldx	$b                      ; 0xb <__rc9>
    613c: 86 07        	stx	$7                      ; 0x7 <__rc5>
    613e: aa           	tax
    613f: d0 e3        	bne	$6124 <strcpy+0x1a>
    6141: 60           	rts

00006142 <strlen>:
    6142: b2 04        	lda	($4),z                  ; 0x4 <__rc2>
    6144: f0 29        	beq	$616f <strlen+0x2d>
    6146: a9 00        	lda	#$0
    6148: a0 01        	ldy	#$1
    614a: 64 06        	stz	$6                      ; 0x6 <__rc4>
    614c: aa           	tax
    614d: 64 07        	stz	$7                      ; 0x7 <__rc5>
    614f: 18           	clc
    6150: 65 04        	adc	$4                      ; 0x4 <__rc2>
    6152: 85 08        	sta	$8                      ; 0x8 <__rc6>
    6154: a5 07        	lda	$7                      ; 0x7 <__rc5>
    6156: 65 05        	adc	$5                      ; 0x5 <__rc3>
    6158: e6 06        	inc	$6                      ; 0x6 <__rc4>
    615a: d0 01        	bne	$615d <strlen+0x1b>
    615c: e8           	inx
    615d: 85 09        	sta	$9                      ; 0x9 <__rc7>
    615f: b1 08        	lda	($8),y                  ; 0x8 <__rc6>
    6161: 85 08        	sta	$8                      ; 0x8 <__rc6>
    6163: a5 06        	lda	$6                      ; 0x6 <__rc4>
    6165: 86 07        	stx	$7                      ; 0x7 <__rc5>
    6167: e6 08        	inc	$8                      ; 0x8 <__rc6>
    6169: c6 08        	dec	$8                      ; 0x8 <__rc6>
    616b: d0 e2        	bne	$614f <strlen+0xd>
    616d: 80 04        	bra	$6173 <strlen+0x31>
    616f: 64 06        	stz	$6                      ; 0x6 <__rc4>
    6171: a2 00        	ldx	#$0
    6173: a5 06        	lda	$6                      ; 0x6 <__rc4>
    6175: 60           	rts

00006176 <__ashlhi3>:
    6176: 86 05        	stx	$5                      ; 0x5 <__rc3>
    6178: a6 04        	ldx	$4                      ; 0x4 <__rc2>
    617a: f0 0a        	beq	$6186 <__ashlhi3+0x10>
    617c: a6 04        	ldx	$4                      ; 0x4 <__rc2>
    617e: ca           	dex
    617f: 0a           	asl
    6180: 26 05        	rol	$5                      ; 0x5 <__rc3>
    6182: e0 00        	cpx	#$0
    6184: d0 f8        	bne	$617e <__ashlhi3+0x8>
    6186: a6 05        	ldx	$5                      ; 0x5 <__rc3>
    6188: 60           	rts

00006189 <__mulqi3>:
    6189: e0 00        	cpx	#$0
    618b: f0 14        	beq	$61a1 <__mulqi3+0x18>
    618d: 85 04        	sta	$4                      ; 0x4 <__rc2>
    618f: 86 05        	stx	$5                      ; 0x5 <__rc3>
    6191: a9 00        	lda	#$0
    6193: 46 05        	lsr	$5                      ; 0x5 <__rc3>
    6195: 90 03        	bcc	$619a <__mulqi3+0x11>
    6197: 18           	clc
    6198: 65 04        	adc	$4                      ; 0x4 <__rc2>
    619a: 06 04        	asl	$4                      ; 0x4 <__rc2>
    619c: a6 05        	ldx	$5                      ; 0x5 <__rc3>
    619e: d0 f3        	bne	$6193 <__mulqi3+0xa>
    61a0: 60           	rts
    61a1: a9 00        	lda	#$0
    61a3: 60           	rts

000061a4 <__mulhi3>:
    61a4: a4 05        	ldy	$5                      ; 0x5 <__rc3>
    61a6: d0 04        	bne	$61ac <__mulhi3+0x8>
    61a8: a4 04        	ldy	$4                      ; 0x4 <__rc2>
    61aa: f0 24        	beq	$61d0 <__mulhi3+0x2c>
    61ac: 85 06        	sta	$6                      ; 0x6 <__rc4>
    61ae: 86 07        	stx	$7                      ; 0x7 <__rc5>
    61b0: a0 00        	ldy	#$0
    61b2: 98           	tya
    61b3: 46 05        	lsr	$5                      ; 0x5 <__rc3>
    61b5: 66 04        	ror	$4                      ; 0x4 <__rc2>
    61b7: 90 09        	bcc	$61c2 <__mulhi3+0x1e>
    61b9: aa           	tax
    61ba: 98           	tya
    61bb: 18           	clc
    61bc: 65 06        	adc	$6                      ; 0x6 <__rc4>
    61be: a8           	tay
    61bf: 8a           	txa
    61c0: 65 07        	adc	$7                      ; 0x7 <__rc5>
    61c2: 06 06        	asl	$6                      ; 0x6 <__rc4>
    61c4: 26 07        	rol	$7                      ; 0x7 <__rc5>
    61c6: a6 05        	ldx	$5                      ; 0x5 <__rc3>
    61c8: d0 e9        	bne	$61b3 <__mulhi3+0xf>
    61ca: a6 04        	ldx	$4                      ; 0x4 <__rc2>
    61cc: d0 e5        	bne	$61b3 <__mulhi3+0xf>
    61ce: 80 03        	bra	$61d3 <__mulhi3+0x2f>
    61d0: a0 00        	ldy	#$0
    61d2: 98           	tya
    61d3: aa           	tax
    61d4: 98           	tya
    61d5: 60           	rts

000061d6 <__mulsi3>:
    61d6: a4 09        	ldy	$9                      ; 0x9 <__rc7>
    61d8: d0 0f        	bne	$61e9 <__mulsi3+0x13>
    61da: a4 08        	ldy	$8                      ; 0x8 <__rc6>
    61dc: d0 0b        	bne	$61e9 <__mulsi3+0x13>
    61de: a4 07        	ldy	$7                      ; 0x7 <__rc5>
    61e0: d0 07        	bne	$61e9 <__mulsi3+0x13>
    61e2: a4 06        	ldy	$6                      ; 0x6 <__rc4>
    61e4: d0 03        	bne	$61e9 <__mulsi3+0x13>
    61e6: 4c 3d 62     	jmp	$623d <__mulsi3+0x67>
    61e9: 85 0a        	sta	$a                      ; 0xa <__rc8>
    61eb: 86 0b        	stx	$b                      ; 0xb <__rc9>
    61ed: a0 00        	ldy	#$0
    61ef: a2 00        	ldx	#$0
    61f1: 64 0c        	stz	$c                      ; 0xc <__rc10>
    61f3: 98           	tya
    61f4: 46 09        	lsr	$9                      ; 0x9 <__rc7>
    61f6: 66 08        	ror	$8                      ; 0x8 <__rc6>
    61f8: 66 07        	ror	$7                      ; 0x7 <__rc5>
    61fa: 66 06        	ror	$6                      ; 0x6 <__rc4>
    61fc: 90 15        	bcc	$6213 <__mulsi3+0x3d>
    61fe: 85 0d        	sta	$d                      ; 0xd <__rc11>
    6200: 98           	tya
    6201: 18           	clc
    6202: 65 0a        	adc	$a                      ; 0xa <__rc8>
    6204: a8           	tay
    6205: 8a           	txa
    6206: 65 0b        	adc	$b                      ; 0xb <__rc9>
    6208: aa           	tax
    6209: a5 0c        	lda	$c                      ; 0xc <__rc10>
    620b: 65 04        	adc	$4                      ; 0x4 <__rc2>
    620d: 85 0c        	sta	$c                      ; 0xc <__rc10>
    620f: a5 0d        	lda	$d                      ; 0xd <__rc11>
    6211: 65 05        	adc	$5                      ; 0x5 <__rc3>
    6213: 06 0a        	asl	$a                      ; 0xa <__rc8>
    6215: 26 0b        	rol	$b                      ; 0xb <__rc9>
    6217: 26 04        	rol	$4                      ; 0x4 <__rc2>
    6219: 26 05        	rol	$5                      ; 0x5 <__rc3>
    621b: e6 09        	inc	$9                      ; 0x9 <__rc7>
    621d: c6 09        	dec	$9                      ; 0x9 <__rc7>
    621f: d0 d3        	bne	$61f4 <__mulsi3+0x1e>
    6221: e6 08        	inc	$8                      ; 0x8 <__rc6>
    6223: c6 08        	dec	$8                      ; 0x8 <__rc6>
    6225: d0 cd        	bne	$61f4 <__mulsi3+0x1e>
    6227: e6 07        	inc	$7                      ; 0x7 <__rc5>
    6229: c6 07        	dec	$7                      ; 0x7 <__rc5>
    622b: d0 c7        	bne	$61f4 <__mulsi3+0x1e>
    622d: e6 06        	inc	$6                      ; 0x6 <__rc4>
    622f: c6 06        	dec	$6                      ; 0x6 <__rc4>
    6231: d0 c1        	bne	$61f4 <__mulsi3+0x1e>
    6233: 5a           	phy
    6234: a4 0c        	ldy	$c                      ; 0xc <__rc10>
    6236: 84 04        	sty	$4                      ; 0x4 <__rc2>
    6238: 7a           	ply
    6239: 85 05        	sta	$5                      ; 0x5 <__rc3>
    623b: 98           	tya
    623c: 60           	rts
    623d: a0 00        	ldy	#$0
    623f: a2 00        	ldx	#$0
    6241: 64 0c        	stz	$c                      ; 0xc <__rc10>
    6243: 98           	tya
    6244: 80 ed        	bra	$6233 <__mulsi3+0x5d>

00006246 <__udivmodhi4>:
    6246: 85 0b        	sta	$b                      ; 0xb <__rc9>
    6248: 8a           	txa
    6249: 64 08        	stz	$8                      ; 0x8 <__rc6>
    624b: a6 05        	ldx	$5                      ; 0x5 <__rc3>
    624d: d0 04        	bne	$6253 <__udivmodhi4+0xd>
    624f: a6 04        	ldx	$4                      ; 0x4 <__rc2>
    6251: f0 0a        	beq	$625d <__udivmodhi4+0x17>
    6253: c5 05        	cmp	$5                      ; 0x5 <__rc3>
    6255: d0 0b        	bne	$6262 <__udivmodhi4+0x1c>
    6257: a6 0b        	ldx	$b                      ; 0xb <__rc9>
    6259: e4 04        	cpx	$4                      ; 0x4 <__rc2>
    625b: b0 09        	bcs	$6266 <__udivmodhi4+0x20>
    625d: a2 00        	ldx	#$0
    625f: 4c 0f 63     	jmp	$630f <__udivmodhi4+0xc9>
    6262: c5 05        	cmp	$5                      ; 0x5 <__rc3>
    6264: 90 f7        	bcc	$625d <__udivmodhi4+0x17>
    6266: a8           	tay
    6267: a6 05        	ldx	$5                      ; 0x5 <__rc3>
    6269: 10 03        	bpl	$626e <__udivmodhi4+0x28>
    626b: 4c 03 63     	jmp	$6303 <__udivmodhi4+0xbd>
    626e: a2 00        	ldx	#$0
    6270: 5a           	phy
    6271: a4 04        	ldy	$4                      ; 0x4 <__rc2>
    6273: 84 09        	sty	$9                      ; 0x9 <__rc7>
    6275: a4 05        	ldy	$5                      ; 0x5 <__rc3>
    6277: 84 0a        	sty	$a                      ; 0xa <__rc8>
    6279: 7a           	ply
    627a: 06 09        	asl	$9                      ; 0x9 <__rc7>
    627c: 26 0a        	rol	$a                      ; 0xa <__rc8>
    627e: c5 0a        	cmp	$a                      ; 0xa <__rc8>
    6280: d0 09        	bne	$628b <__udivmodhi4+0x45>
    6282: a5 0b        	lda	$b                      ; 0xb <__rc9>
    6284: c5 09        	cmp	$9                      ; 0x9 <__rc7>
    6286: 98           	tya
    6287: b0 06        	bcs	$628f <__udivmodhi4+0x49>
    6289: 80 17        	bra	$62a2 <__udivmodhi4+0x5c>
    628b: c5 0a        	cmp	$a                      ; 0xa <__rc8>
    628d: 90 13        	bcc	$62a2 <__udivmodhi4+0x5c>
    628f: e8           	inx
    6290: 5a           	phy
    6291: a4 09        	ldy	$9                      ; 0x9 <__rc7>
    6293: 84 04        	sty	$4                      ; 0x4 <__rc2>
    6295: a4 0a        	ldy	$a                      ; 0xa <__rc8>
    6297: 84 05        	sty	$5                      ; 0x5 <__rc3>
    6299: 7a           	ply
    629a: e6 0a        	inc	$a                      ; 0xa <__rc8>
    629c: c6 0a        	dec	$a                      ; 0xa <__rc8>
    629e: 10 da        	bpl	$627a <__udivmodhi4+0x34>
    62a0: 80 08        	bra	$62aa <__udivmodhi4+0x64>
    62a2: a5 04        	lda	$4                      ; 0x4 <__rc2>
    62a4: 85 09        	sta	$9                      ; 0x9 <__rc7>
    62a6: a5 05        	lda	$5                      ; 0x5 <__rc3>
    62a8: 85 0a        	sta	$a                      ; 0xa <__rc8>
    62aa: 38           	sec
    62ab: a5 0b        	lda	$b                      ; 0xb <__rc9>
    62ad: e5 09        	sbc	$9                      ; 0x9 <__rc7>
    62af: 85 0b        	sta	$b                      ; 0xb <__rc9>
    62b1: 98           	tya
    62b2: e5 0a        	sbc	$a                      ; 0xa <__rc8>
    62b4: e0 00        	cpx	#$0
    62b6: d0 03        	bne	$62bb <__udivmodhi4+0x75>
    62b8: 4c 0d 63     	jmp	$630d <__udivmodhi4+0xc7>
    62bb: 64 08        	stz	$8                      ; 0x8 <__rc6>
    62bd: a0 01        	ldy	#$1
    62bf: 84 8f        	sty	$8f                     ; 0x8f <__zp_bss_size+0x59>
    62c1: 46 0a        	lsr	$a                      ; 0xa <__rc8>
    62c3: 66 09        	ror	$9                      ; 0x9 <__rc7>
    62c5: a4 8f        	ldy	$8f                     ; 0x8f <__zp_bss_size+0x59>
    62c7: 84 04        	sty	$4                      ; 0x4 <__rc2>
    62c9: 06 04        	asl	$4                      ; 0x4 <__rc2>
    62cb: a0 01        	ldy	#$1
    62cd: b0 02        	bcs	$62d1 <__udivmodhi4+0x8b>
    62cf: a0 00        	ldy	#$0
    62d1: 84 05        	sty	$5                      ; 0x5 <__rc3>
    62d3: a4 04        	ldy	$4                      ; 0x4 <__rc2>
    62d5: 84 8f        	sty	$8f                     ; 0x8f <__zp_bss_size+0x59>
    62d7: c5 0a        	cmp	$a                      ; 0xa <__rc8>
    62d9: d0 22        	bne	$62fd <__udivmodhi4+0xb7>
    62db: a4 0b        	ldy	$b                      ; 0xb <__rc9>
    62dd: c4 09        	cpy	$9                      ; 0x9 <__rc7>
    62df: 90 11        	bcc	$62f2 <__udivmodhi4+0xac>
    62e1: a8           	tay
    62e2: a5 8f        	lda	$8f                     ; 0x8f <__zp_bss_size+0x59>
    62e4: 09 01        	ora	#$1
    62e6: 85 8f        	sta	$8f                     ; 0x8f <__zp_bss_size+0x59>
    62e8: 38           	sec
    62e9: a5 0b        	lda	$b                      ; 0xb <__rc9>
    62eb: e5 09        	sbc	$9                      ; 0x9 <__rc7>
    62ed: 85 0b        	sta	$b                      ; 0xb <__rc9>
    62ef: 98           	tya
    62f0: e5 0a        	sbc	$a                      ; 0xa <__rc8>
    62f2: a4 05        	ldy	$5                      ; 0x5 <__rc3>
    62f4: c0 01        	cpy	#$1
    62f6: 26 08        	rol	$8                      ; 0x8 <__rc6>
    62f8: ca           	dex
    62f9: d0 c6        	bne	$62c1 <__udivmodhi4+0x7b>
    62fb: 80 14        	bra	$6311 <__udivmodhi4+0xcb>
    62fd: c5 0a        	cmp	$a                      ; 0xa <__rc8>
    62ff: b0 e0        	bcs	$62e1 <__udivmodhi4+0x9b>
    6301: 80 ef        	bra	$62f2 <__udivmodhi4+0xac>
    6303: 38           	sec
    6304: a5 0b        	lda	$b                      ; 0xb <__rc9>
    6306: e5 04        	sbc	$4                      ; 0x4 <__rc2>
    6308: 85 0b        	sta	$b                      ; 0xb <__rc9>
    630a: 98           	tya
    630b: e5 05        	sbc	$5                      ; 0x5 <__rc3>
    630d: a2 01        	ldx	#$1
    630f: 86 8f        	stx	$8f                     ; 0x8f <__zp_bss_size+0x59>
    6311: aa           	tax
    6312: a5 0b        	lda	$b                      ; 0xb <__rc9>
    6314: 92 06        	sta	($6),z                  ; 0x6 <__rc4>
    6316: a0 01        	ldy	#$1
    6318: 8a           	txa
    6319: 91 06        	sta	($6),y                  ; 0x6 <__rc4>
    631b: a6 08        	ldx	$8                      ; 0x8 <__rc6>
    631d: a5 8f        	lda	$8f                     ; 0x8f <__zp_bss_size+0x59>
    631f: 60           	rts

00006320 <memcpy>:
    6320: a8           	tay
    6321: 8a           	txa
    6322: d0 03        	bne	$6327 <memcpy+0x7>
    6324: 98           	tya
    6325: f0 25        	beq	$634c <memcpy+0x2c>
    6327: a5 04        	lda	$4                      ; 0x4 <__rc2>
    6329: 85 08        	sta	$8                      ; 0x8 <__rc6>
    632b: a5 05        	lda	$5                      ; 0x5 <__rc3>
    632d: 85 09        	sta	$9                      ; 0x9 <__rc7>
    632f: b2 06        	lda	($6),z                  ; 0x6 <__rc4>
    6331: 92 08        	sta	($8),z                  ; 0x8 <__rc6>
    6333: e6 08        	inc	$8                      ; 0x8 <__rc6>
    6335: d0 02        	bne	$6339 <memcpy+0x19>
    6337: e6 09        	inc	$9                      ; 0x9 <__rc7>
    6339: e6 06        	inc	$6                      ; 0x6 <__rc4>
    633b: d0 02        	bne	$633f <memcpy+0x1f>
    633d: e6 07        	inc	$7                      ; 0x7 <__rc5>
    633f: 98           	tya
    6340: 88           	dey
    6341: c9 00        	cmp	#$0
    6343: d0 01        	bne	$6346 <memcpy+0x26>
    6345: ca           	dex
    6346: 8a           	txa
    6347: d0 e6        	bne	$632f <memcpy+0xf>
    6349: 98           	tya
    634a: d0 e3        	bne	$632f <memcpy+0xf>
    634c: 60           	rts

0000634d <__memset>:
    634d: 80 0f        	bra	$635e <__memset+0x11>
    634f: 92 04        	sta	($4),z                  ; 0x4 <__rc2>
    6351: e6 04        	inc	$4                      ; 0x4 <__rc2>
    6353: d0 02        	bne	$6357 <__memset+0xa>
    6355: e6 05        	inc	$5                      ; 0x5 <__rc3>
    6357: da           	phx
    6358: 7a           	ply
    6359: ca           	dex
    635a: c0 00        	cpy	#$0
    635c: f0 09        	beq	$6367 <__memset+0x1a>
    635e: a4 06        	ldy	$6                      ; 0x6 <__rc4>
    6360: d0 ed        	bne	$634f <__memset+0x2>
    6362: e0 00        	cpx	#$0
    6364: d0 e9        	bne	$634f <__memset+0x2>
    6366: 60           	rts
    6367: c6 06        	dec	$6                      ; 0x6 <__rc4>
    6369: 4c 5e 63     	jmp	$635e <__memset+0x11>
