
midnightmega.prg.elf:	file format elf32-mos

SYMBOL TABLE:
00002052 l       .text	00000000 fourbytes
00002056 l       .text	00000000 lpstore
00002071 l       .text	00000000 lprestore
00000000 l    df *ABS*	00000000 exit-return.c
00002015 l       .basic_header	00000000 next_line
0000fff0 l       *ABS*	00000000 PLOT
00000000 l    df *ABS*	00000000 exit.c
00000000 l    df *ABS*	00000000 zero-bss.c
00000000 l    df *ABS*	00000000 zero-zp-bss.c
00000000 l    df *ABS*	00000000 copy-zp-data.c
00000000 l    df *ABS*	00000000 ld-temp.o
0000d640 l       *ABS*	00000000 HTRAP00
0000203c l       .text	00000000 shift
00000051 l     O .zp.bss	00000001 g_curScreenW
00000052 l     O .zp.bss	00000001 g_curScreenH
000072d9 l     O .bss	000002fd escapeCode
00005f36 l     F .text	00000001 escNOP
00000027 l     O .zp.data	00000001 g_curTextColor
00004f5c l     F .text	0000005e clrhome
00004fc8 l     F .text	00000016 mcputsxy
00004fba l     F .text	0000000e msprintf
0000535b l     F .text	0000038a shortcuts
00005169 l     F .text	000000f1 messagebox
0000717e l     O .rodata	00000004 midnight
0000525a l     F .text	000000c0 progress
0000577f l     F .text	000005af UpdateSectors
00005d2e l     F .text	00000046 Deselect
000071d7 l     O .bss	000000e0 direntflags
00004fde l     F .text	0000018b mcbox
000072b7 l     O .bss	00000022 diskname
00005f37 l     F .text	00000009 cputc
00000053 l     O .zp.bss	00000001 g_curX
00004e45 l     F .text	000000c6 csputdec
00004d4e l     F .text	000000e3 getdirententry
00000028 l     O .zp.bss	00000028 s
00005fe8 l     F .text	000000db cputsxy
00000054 l     O .zp.bss	00000001 g_curY
00005ef0 l     F .text	00000046 sidbong
0000632a l     F .text	0000000b __ashlqi3
00000050 l     O .zp.bss	00000001 option.0
000056e5 l     F .text	0000009a optionstring
0000616d l     F .text	00000009 cgetc
0000478a l     F .text	00000039 GetBAM
0000619d l     F .text	00000067 lcopy
000047c3 l     F .text	0000005c PutBAM
00004687 l     F .text	00000043 GetOneSector
000048bc l     F .text	00000302 BAMSectorUpdate
000046ca l     F .text	000000c0 PutOneSector
0000637a l     F .text	000000c1 __udivhi3
00005fe1 l     F .text	00000007 cputs
0000481f l     F .text	0000009d readblockchain
00004bbe l     F .text	00000119 findnextBAMtracksector
00006204 l     F .text	00000050 lfill
00005d74 l     F .text	0000017c sizeselectcurrentifnone
00004577 l     F .text	00000032 hyppo_setname
00003af1 l       .text	00000000 errhyp1att0
00003af5 l       .text	00000000 donehyp1att0
00004cd7 l     F .text	00000077 tracksectorstring
00006335 l     F .text	00000013 __ashlhi3
0000717a l     O .rodata	00000004 BAMsector
00004166 l       .text	00000000 errhypchdir1
0000416a l       .text	00000000 donehypchdir1
000041c3 l       .text	00000000 errhypchdir2
000041c7 l       .text	00000000 donehypchdir2
00006254 l     F .text	0000005c usleep
000043e4 l       .text	00000000 errhyp0att3
000043e8 l       .text	00000000 donehyp0att3
000071d6 l     O .bss	00000001 fnamehi
000062b0 l     F .text	0000003e strcpy
000045a3 l       .text	00000000 errhypsetnam4
000045a7 l       .text	00000000 donehypsetnam4
000045a9 l     F .text	00000063 getsfn
0000460c l     F .text	0000007b ReadSector
0000643b l     F .text	00000045 __umodqi3
00006480 l     F .text	00000070 __udivmodqi4
00004e31 l     F .text	00000014 strcopy
00006618 l     F .text	000001ba __udivmodsi4
00004f0b l     F .text	00000051 asciitoscreencode_s
00006348 l     F .text	00000032 __mulhi3
000060c3 l     F .text	000000aa fillrect
00005f40 l     F .text	000000a1 cputcxy
0000531a l     F .text	00000041 shortcutprint
000058a0 l       .text	00000000 errgetcurdrv5
000058a4 l       .text	00000000 donegetcurdrv5
000058bd l       .text	00000000 errhypopendir6
000058c1 l       .text	00000000 donehypopendir6
0000595b l       .text	00000000 hypreaddirloop7
00005973 l       .text	00000000 errhypreaddir7
00005975 l       .text	00000000 donehypreaddir7
00005a95 l       .text	00000000 errgetproc8
00005a99 l       .text	00000000 donegetproc8
00005ce3 l       .text	00000000 errhypclosedir9
00005ce5 l       .text	00000000 donehypclosedir9
000062ee l     F .text	0000003c strlen
000064f0 l     F .text	000000dc __udivmodhi4
00006176 l     F .text	00000027 do_dma
00000055 l     O .zp.bss	00000014 dmalist
00002112 g     F .text	00002465 main
0000208c g       .text	00000000 lpoke
000020ad g       .text	00000000 lpeek
00000007 g       *ABS*	00000000 __rc5
00000008 g       *ABS*	00000000 __rc6
00000009 g       *ABS*	00000000 __rc7
0000000a g       *ABS*	00000000 __rc8
00000004 g       *ABS*	00000000 __rc2
00000005 g       *ABS*	00000000 __rc3
00000006 g       *ABS*	00000000 __rc4
00002044 g       .text	00000000 __after_main
00002039 g       .text	00000000 __do_copy_zp_data
000020fb g     F .text	00000017 __copy_zp_data
00002033 g       .text	00000000 __do_zero_bss
000020d5 g     F .text	00000013 __zero_bss
00002036 g       .text	00000000 __do_zero_zp_bss
000020e8 g     F .text	00000013 __zero_zp_bss
000020cb g     F .text	0000000a __exit_return
00002047 g       .text	00000000 _fini
0000202b g       .text	00000000 __do_init_stack
0000d000 g       *ABS*	00000000 __stack
00000002 g       *ABS*	00000000 __rc0
00000003 g       *ABS*	00000000 __rc1
0000ff81  w      *ABS*	00000000 CINT
0000ff84  w      *ABS*	00000000 IOINIT
0000ff87  w      *ABS*	00000000 RAMTAS
0000ff8a  w      *ABS*	00000000 RESTOR
0000ff8d  w      *ABS*	00000000 VECTOR
0000ff90  w      *ABS*	00000000 SETMSG
0000ff93  w      *ABS*	00000000 SECOND
0000ff96  w      *ABS*	00000000 TKSA
0000ff99  w      *ABS*	00000000 MEMTOP
0000ff9c  w      *ABS*	00000000 MEMBOT
0000ff9f  w      *ABS*	00000000 SCNKEY
0000ffa2  w      *ABS*	00000000 SETTMO
0000ffa5  w      *ABS*	00000000 ACPTR
0000ffa8  w      *ABS*	00000000 CIOUT
0000ffab  w      *ABS*	00000000 UNTLK
0000ffae  w      *ABS*	00000000 UNLSN
0000ffb1  w      *ABS*	00000000 LISTEN
0000ffb4  w      *ABS*	00000000 TALK
0000ffb7  w      *ABS*	00000000 READST
0000ffba  w      *ABS*	00000000 SETLFS
0000ffbd  w      *ABS*	00000000 SETNAM
0000ffc0  w      *ABS*	00000000 OPEN
0000ffc3  w      *ABS*	00000000 CLOSE
0000ffc6  w      *ABS*	00000000 CHKIN
0000ffc9  w      *ABS*	00000000 CKOUT
0000ffc9  w      *ABS*	00000000 CHKOUT
0000ffcc  w      *ABS*	00000000 CLRCH
0000ffcc  w      *ABS*	00000000 CLRCHN
0000ffcf  w      *ABS*	00000000 BASIN
0000ffcf  w      *ABS*	00000000 CHRIN
0000ffd2  w      *ABS*	00000000 BSOUT
0000ffd2  w      *ABS*	00000000 CHROUT
0000ffd5  w      *ABS*	00000000 LOAD
0000ffd8  w      *ABS*	00000000 SAVE
0000ffdb  w      *ABS*	00000000 SETTIM
0000ffde  w      *ABS*	00000000 RDTIM
0000ffe1  w      *ABS*	00000000 STOP
0000ffe4  w      *ABS*	00000000 GETIN
0000ffe7  w      *ABS*	00000000 CLALL
0000ffea  w      *ABS*	00000000 UDTIM
0000ffed  w      *ABS*	00000000 SCREEN
0000fff3  w      *ABS*	00000000 IOBASE
0000ffc6 g       *ABS*	00000000 __CHKIN
0000ffc9 g       *ABS*	00000000 __CKOUT
0000ffc9 g       *ABS*	00000000 __CHKOUT
0000ffcc g       *ABS*	00000000 __CLRCH
0000ffcc g       *ABS*	00000000 __CLRCHN
0000ffcf g       *ABS*	00000000 __BASIN
0000ffcf g       *ABS*	00000000 __CHRIN
0000ffd2 g       *ABS*	00000000 __BSOUT
0000ffd2 g       *ABS*	00000000 __CHROUT
0000ffe1 g       *ABS*	00000000 __STOP
0000ffe4 g       *ABS*	00000000 __GETIN
0000ffe7 g       *ABS*	00000000 __CLALL
0000ffea g       *ABS*	00000000 __UDTIM
0000ff81 g       *ABS*	00000000 __CINT
0000ff84 g       *ABS*	00000000 __IOINIT
0000ff87 g       *ABS*	00000000 __RAMTAS
0000ff8a g       *ABS*	00000000 __RESTOR
0000ff8d g       *ABS*	00000000 __VECTOR
0000ff90 g       *ABS*	00000000 __SETMSG
0000ff93 g       *ABS*	00000000 __SECOND
0000ff96 g       *ABS*	00000000 __TKSA
0000ff99 g       *ABS*	00000000 __MEMTOP
0000ff9c g       *ABS*	00000000 __MEMBOT
0000ff9f g       *ABS*	00000000 __SCNKEY
0000ffa2 g       *ABS*	00000000 __SETTMO
0000ffa5 g       *ABS*	00000000 __ACPTR
0000ffa8 g       *ABS*	00000000 __CIOUT
0000ffab g       *ABS*	00000000 __UNTLK
0000ffae g       *ABS*	00000000 __UNLSN
0000ffb1 g       *ABS*	00000000 __LISTEN
0000ffb4 g       *ABS*	00000000 __TALK
0000ffb7 g       *ABS*	00000000 __READST
0000ffba g       *ABS*	00000000 __SETLFS
0000ffbd g       *ABS*	00000000 __SETNAM
0000ffc0 g       *ABS*	00000000 __OPEN
0000ffc3 g       *ABS*	00000000 __CLOSE
0000ffd5 g       *ABS*	00000000 __LOAD
0000ffd8 g       *ABS*	00000000 __SAVE
0000ffdb g       *ABS*	00000000 __SETTIM
0000ffde g       *ABS*	00000000 __RDTIM
0000ffed g       *ABS*	00000000 __SCREEN
0000fff3 g       *ABS*	00000000 __IOBASE
00001000  w      *ABS*	00000000 __heap_default_limit
000065cc  w    F .text	0000002c memcpy
000065f8  w    F .text	00000020 __memset
0000201d g       .text	00000000 _start
00000002 g       *ABS*	00000000 __basic_zp_start
0000000c g       *ABS*	00000000 __rc10
0000000e g       *ABS*	00000000 __rc12
00000010 g       *ABS*	00000000 __rc14
00000012 g       *ABS*	00000000 __rc16
00000014 g       *ABS*	00000000 __rc18
00000016 g       *ABS*	00000000 __rc20
00000018 g       *ABS*	00000000 __rc22
0000001a g       *ABS*	00000000 __rc24
0000001c g       *ABS*	00000000 __rc26
0000001e g       *ABS*	00000000 __rc28
00000020 g       *ABS*	00000000 __rc30
00000021 g       *ABS*	00000000 __rc31
00000090 g       *ABS*	00000000 __basic_zp_end
0000001f g       *ABS*	00000000 __rc29
0000001d g       *ABS*	00000000 __rc27
0000001b g       *ABS*	00000000 __rc25
00000019 g       *ABS*	00000000 __rc23
00000017 g       *ABS*	00000000 __rc21
00000015 g       *ABS*	00000000 __rc19
00000013 g       *ABS*	00000000 __rc17
00000011 g       *ABS*	00000000 __rc15
0000000f g       *ABS*	00000000 __rc13
0000000d g       *ABS*	00000000 __rc11
0000000b g       *ABS*	00000000 __rc9
000075e6 g       .noinit	00000000 __heap_start
00000022 g       .zp.data	00000000 __zp_data_start
00002017 g       *ABS*	00000000 __zp_data_load_start
00000006 g       *ABS*	00000000 __zp_data_size
00000028 g       .zp.bss	00000000 __zp_bss_start
00000041 g       *ABS*	00000000 __zp_bss_size
0000201d g       .text	00000000 _init
000067d2 g       .text	00000000 __init_array_start
000067d2 g       .text	00000000 __init_array_end
000067d2 g       .text	00000000 __fini_array_start
000067d2 g       .text	00000000 __fini_array_end
000071d6 g       .data	00000000 __data_start
000071d6 g       .data	00000000 __data_end
000071d6 g       *ABS*	00000000 __data_load_start
00000000 g       *ABS*	00000000 __data_size
000071d6 g       .bss	00000000 __bss_start
000075d6 g       .bss	00000000 __bss_end
00000400 g       *ABS*	00000000 __bss_size

Disassembly of section .text:

0000201d <_start>:
    201d: 78           	sei
    201e: a2 2f        	ldx	#$2f
    2020: 86 00        	stx	$0                      ; 0x0 <__data_size>
    2022: a2 3e        	ldx	#$3e
    2024: 86 01        	stx	$1                      ; 0x1 <__data_size+0x1>
    2026: a2 44        	ldx	#$44
    2028: 8e 30 d0     	stx	$d030                   ; 0xd030 <__heap_start+0x5a4a>

0000202b <__do_init_stack>:
    202b: a9 00        	lda	#$0
    202d: 85 02        	sta	$2                      ; 0x2 <__rc0>
    202f: a9 d0        	lda	#$d0
    2031: 85 03        	sta	$3                      ; 0x3 <__rc1>

00002033 <__do_zero_bss>:
    2033: 20 d5 20     	jsr	$20d5 <__zero_bss>

00002036 <__do_zero_zp_bss>:
    2036: 20 e8 20     	jsr	$20e8 <__zero_zp_bss>

00002039 <__do_copy_zp_data>:
    2039: 20 fb 20     	jsr	$20fb <__copy_zp_data>

0000203c <shift>:
    203c: a9 0e        	lda	#$e
    203e: 20 d2 ff     	jsr	$ffd2 <__heap_start+0x89ec>
    2041: 20 12 21     	jsr	$2112 <main>

00002044 <__after_main>:
    2044: 4c cb 20     	jmp	$20cb <__exit_return>

00002047 <_fini>:
    2047: a2 3f        	ldx	#$3f
    2049: 86 01        	stx	$1                      ; 0x1 <__data_size+0x1>
    204b: a2 64        	ldx	#$64
    204d: 8e 30 d0     	stx	$d030                   ; 0xd030 <__heap_start+0x5a4a>
    2050: 58           	cli
    2051: 60           	rts

00002052 <fourbytes>:
    2052: 00           	brk
    2053: 00           	brk
    2054: 00           	brk
    2055: 00           	brk

00002056 <lpstore>:
    2056: 48           	pha
    2057: ad 07 00     	lda	$7                      ; 0x7 <__rc5>
    205a: 8d 52 20     	sta	$2052                   ; 0x2052 <fourbytes>
    205d: ad 08 00     	lda	$8                      ; 0x8 <__rc6>
    2060: 8d 53 20     	sta	$2053                   ; 0x2053 <fourbytes+0x1>
    2063: ad 09 00     	lda	$9                      ; 0x9 <__rc7>
    2066: 8d 54 20     	sta	$2054                   ; 0x2054 <fourbytes+0x2>
    2069: ad 0a 00     	lda	$a                      ; 0xa <__rc8>
    206c: 8d 55 20     	sta	$2055                   ; 0x2055 <fourbytes+0x3>
    206f: 68           	pla
    2070: 60           	rts

00002071 <lprestore>:
    2071: 48           	pha
    2072: ad 52 20     	lda	$2052                   ; 0x2052 <fourbytes>
    2075: 8d 07 00     	sta	$7                      ; 0x7 <__rc5>
    2078: ad 53 20     	lda	$2053                   ; 0x2053 <fourbytes+0x1>
    207b: 8d 08 00     	sta	$8                      ; 0x8 <__rc6>
    207e: ad 54 20     	lda	$2054                   ; 0x2054 <fourbytes+0x2>
    2081: 8d 09 00     	sta	$9                      ; 0x9 <__rc7>
    2084: ad 55 20     	lda	$2055                   ; 0x2055 <fourbytes+0x3>
    2087: 8d 0a 00     	sta	$a                      ; 0xa <__rc8>
    208a: 68           	pla
    208b: 60           	rts

0000208c <lpoke>:
    208c: 20 56 20     	jsr	$2056 <lpstore>
    208f: 8d 07 00     	sta	$7                      ; 0x7 <__rc5>
    2092: 8e 08 00     	stx	$8                      ; 0x8 <__rc6>
    2095: ad 04 00     	lda	$4                      ; 0x4 <__rc2>
    2098: 8d 09 00     	sta	$9                      ; 0x9 <__rc7>
    209b: ad 05 00     	lda	$5                      ; 0x5 <__rc3>
    209e: 8d 0a 00     	sta	$a                      ; 0xa <__rc8>
    20a1: ad 06 00     	lda	$6                      ; 0x6 <__zp_data_size>
    20a4: a3 00        	ldz	#$0
    20a6: ea 92 07     	sta	[$7],z                  ; 0x7 <__rc5>
    20a9: 20 71 20     	jsr	$2071 <lprestore>
    20ac: 60           	rts

000020ad <lpeek>:
    20ad: 20 56 20     	jsr	$2056 <lpstore>
    20b0: 8d 06 00     	sta	$6                      ; 0x6 <__zp_data_size>
    20b3: 8e 07 00     	stx	$7                      ; 0x7 <__rc5>
    20b6: ad 04 00     	lda	$4                      ; 0x4 <__rc2>
    20b9: 8d 08 00     	sta	$8                      ; 0x8 <__rc6>
    20bc: ad 05 00     	lda	$5                      ; 0x5 <__rc3>
    20bf: 8d 09 00     	sta	$9                      ; 0x9 <__rc7>
    20c2: a3 00        	ldz	#$0
    20c4: ea b2 06     	lda	[$6],z                  ; 0x6 <__zp_data_size>
    20c7: 20 71 20     	jsr	$2071 <lprestore>
    20ca: 60           	rts

000020cb <__exit_return>:
    20cb: 8d d6 75     	sta	$75d6                   ; 0x75d6 <__data_load_start+0x400>
    20ce: 20 47 20     	jsr	$2047 <_fini>
    20d1: ad d6 75     	lda	$75d6                   ; 0x75d6 <__data_load_start+0x400>
    20d4: 60           	rts

000020d5 <__zero_bss>:
    20d5: a2 00        	ldx	#$0
    20d7: a0 04        	ldy	#$4
    20d9: a9 d6        	lda	#$d6
    20db: 85 04        	sta	$4                      ; 0x4 <__rc2>
    20dd: a9 71        	lda	#$71
    20df: 85 05        	sta	$5                      ; 0x5 <__rc3>
    20e1: a9 00        	lda	#$0
    20e3: 84 06        	sty	$6                      ; 0x6 <__zp_data_size>
    20e5: 4c f8 65     	jmp	$65f8 <__memset>

000020e8 <__zero_zp_bss>:
    20e8: a2 41        	ldx	#$41
    20ea: a0 00        	ldy	#$0
    20ec: a9 28        	lda	#$28
    20ee: 85 04        	sta	$4                      ; 0x4 <__rc2>
    20f0: a9 00        	lda	#$0
    20f2: 85 05        	sta	$5                      ; 0x5 <__rc3>
    20f4: a9 00        	lda	#$0
    20f6: 84 06        	sty	$6                      ; 0x6 <__zp_data_size>
    20f8: 4c f8 65     	jmp	$65f8 <__memset>

000020fb <__copy_zp_data>:
    20fb: a9 06        	lda	#$6
    20fd: a2 00        	ldx	#$0
    20ff: a0 22        	ldy	#$22
    2101: 84 04        	sty	$4                      ; 0x4 <__rc2>
    2103: a0 00        	ldy	#$0
    2105: 84 05        	sty	$5                      ; 0x5 <__rc3>
    2107: a0 17        	ldy	#$17
    2109: 84 06        	sty	$6                      ; 0x6 <__zp_data_size>
    210b: a0 20        	ldy	#$20
    210d: 84 07        	sty	$7                      ; 0x7 <__rc5>
    210f: 4c cc 65     	jmp	$65cc <memcpy>

00002112 <main>:
    2112: a2 47        	ldx	#$47
    2114: 8e 2f d0     	stx	$d02f                   ; 0xd02f <__heap_start+0x5a49>
    2117: a2 53        	ldx	#$53
    2119: 8e 2f d0     	stx	$d02f                   ; 0xd02f <__heap_start+0x5a49>
    211c: ad 5d d0     	lda	$d05d                   ; 0xd05d <__heap_start+0x5a77>
    211f: 29 7f        	and	#$7f
    2121: 8d 5d d0     	sta	$d05d                   ; 0xd05d <__heap_start+0x5a77>
    2124: 9c 68 d0     	stz	$d068                   ; 0xd068 <__heap_start+0x5a82>
    2127: a2 d8        	ldx	#$d8
    2129: 8e 69 d0     	stx	$d069                   ; 0xd069 <__heap_start+0x5a83>
    212c: a2 02        	ldx	#$2
    212e: 8e 6a d0     	stx	$d06a                   ; 0xd06a <__heap_start+0x5a84>
    2131: ac 31 d0     	ldy	$d031                   ; 0xd031 <__heap_start+0x5a4b>
    2134: a2 28        	ldx	#$28
    2136: 98           	tya
    2137: 10 02        	bpl	$213b <main+0x29>
    2139: a2 50        	ldx	#$50
    213b: 86 51        	stx	$51                     ; 0x51 <g_curScreenW>
    213d: ad 31 d0     	lda	$d031                   ; 0xd031 <__heap_start+0x5a4b>
    2140: 29 08        	and	#$8
    2142: f0 04        	beq	$2148 <main+0x36>
    2144: a2 32        	ldx	#$32
    2146: 80 02        	bra	$214a <main+0x38>
    2148: a2 19        	ldx	#$19
    214a: 18           	clc
    214b: a5 02        	lda	$2                      ; 0x2 <__rc0>
    214d: 69 d4        	adc	#$d4
    214f: 85 02        	sta	$2                      ; 0x2 <__rc0>
    2151: a5 03        	lda	$3                      ; 0x3 <__rc1>
    2153: 69 ff        	adc	#$ff
    2155: 85 03        	sta	$3                      ; 0x3 <__rc1>
    2157: a4 16        	ldy	$16                     ; 0x16 <__rc20>
    2159: 5a           	phy
    215a: a4 17        	ldy	$17                     ; 0x17 <__rc21>
    215c: 5a           	phy
    215d: a4 18        	ldy	$18                     ; 0x18 <__rc22>
    215f: 5a           	phy
    2160: a4 19        	ldy	$19                     ; 0x19 <__rc23>
    2162: 5a           	phy
    2163: a5 1a        	lda	$1a                     ; 0x1a <__rc24>
    2165: a0 07        	ldy	#$7
    2167: 91 02        	sta	($2),y                  ; 0x2 <__rc0>
    2169: a5 1b        	lda	$1b                     ; 0x1b <__rc25>
    216b: 88           	dey
    216c: 91 02        	sta	($2),y                  ; 0x2 <__rc0>
    216e: a5 1c        	lda	$1c                     ; 0x1c <__rc26>
    2170: 88           	dey
    2171: 91 02        	sta	($2),y                  ; 0x2 <__rc0>
    2173: a5 1d        	lda	$1d                     ; 0x1d <__rc27>
    2175: 88           	dey
    2176: 91 02        	sta	($2),y                  ; 0x2 <__rc0>
    2178: a5 1e        	lda	$1e                     ; 0x1e <__rc28>
    217a: 88           	dey
    217b: 91 02        	sta	($2),y                  ; 0x2 <__rc0>
    217d: a5 1f        	lda	$1f                     ; 0x1f <__rc29>
    217f: 88           	dey
    2180: 91 02        	sta	($2),y                  ; 0x2 <__rc0>
    2182: a5 20        	lda	$20                     ; 0x20 <__rc30>
    2184: 88           	dey
    2185: 91 02        	sta	($2),y                  ; 0x2 <__rc0>
    2187: a5 21        	lda	$21                     ; 0x21 <__rc31>
    2189: 88           	dey
    218a: 91 02        	sta	($2),y                  ; 0x2 <__rc0>
    218c: 86 52        	stx	$52                     ; 0x52 <g_curScreenH>
    218e: 80 03        	bra	$2193 <main+0x81>
    2190: 9c 10 d6     	stz	$d610                   ; 0xd610 <__heap_start+0x602a>
    2193: ae 10 d6     	ldx	$d610                   ; 0xd610 <__heap_start+0x602a>
    2196: d0 f8        	bne	$2190 <main+0x7e>
    2198: a2 00        	ldx	#$0
    219a: 86 04        	stx	$4                      ; 0x4 <__rc2>
    219c: a2 18        	ldx	#$18
    219e: 86 05        	stx	$5                      ; 0x5 <__rc3>
    21a0: a5 04        	lda	$4                      ; 0x4 <__rc2>
    21a2: a0 19        	ldy	#$19
    21a4: 91 02        	sta	($2),y                  ; 0x2 <__rc0>
    21a6: a5 05        	lda	$5                      ; 0x5 <__rc3>
    21a8: c8           	iny
    21a9: 91 02        	sta	($2),y                  ; 0x2 <__rc0>
    21ab: a2 d9        	ldx	#$d9
    21ad: 86 04        	stx	$4                      ; 0x4 <__rc2>
    21af: a2 72        	ldx	#$72
    21b1: 86 05        	stx	$5                      ; 0x5 <__rc3>
    21b3: a2 ff        	ldx	#$ff
    21b5: a0 01        	ldy	#$1
    21b7: 4c ea 21     	jmp	$21ea <main+0xd8>
    21ba: a5 04        	lda	$4                      ; 0x4 <__rc2>
    21bc: 18           	clc
    21bd: 69 03        	adc	#$3
    21bf: 85 08        	sta	$8                      ; 0x8 <__rc6>
    21c1: a5 05        	lda	$5                      ; 0x5 <__rc3>
    21c3: 69 00        	adc	#$0
    21c5: 85 09        	sta	$9                      ; 0x9 <__rc7>
    21c7: a5 04        	lda	$4                      ; 0x4 <__rc2>
    21c9: 85 06        	sta	$6                      ; 0x6 <__zp_data_size>
    21cb: a5 05        	lda	$5                      ; 0x5 <__rc3>
    21cd: 85 07        	sta	$7                      ; 0x7 <__rc5>
    21cf: a9 36        	lda	#$36
    21d1: 91 04        	sta	($4),y                  ; 0x4 <__rc2>
    21d3: a9 00        	lda	#$0
    21d5: 92 04        	sta	($4),z                  ; 0x4 <__rc2>
    21d7: a5 08        	lda	$8                      ; 0x8 <__rc6>
    21d9: 85 04        	sta	$4                      ; 0x4 <__rc2>
    21db: a5 09        	lda	$9                      ; 0x9 <__rc7>
    21dd: 85 05        	sta	$5                      ; 0x5 <__rc3>
    21df: e6 06        	inc	$6                      ; 0x6 <__zp_data_size>
    21e1: d0 02        	bne	$21e5 <main+0xd3>
    21e3: e6 07        	inc	$7                      ; 0x7 <__rc5>
    21e5: a9 5f        	lda	#$5f
    21e7: 91 06        	sta	($6),y                  ; 0x6 <__zp_data_size>
    21e9: ca           	dex
    21ea: 8a           	txa
    21eb: f0 03        	beq	$21f0 <main+0xde>
    21ed: 4c ba 21     	jmp	$21ba <main+0xa8>
    21f0: a9 f0        	lda	#$f0
    21f2: 25 27        	and	$27                     ; 0x27 <g_curTextColor>
    21f4: 09 03        	ora	#$3
    21f6: 85 27        	sta	$27                     ; 0x27 <g_curTextColor>
    21f8: 9c 20 d0     	stz	$d020                   ; 0xd020 <__heap_start+0x5a3a>
    21fb: a2 06        	ldx	#$6
    21fd: 8e 21 d0     	stx	$d021                   ; 0xd021 <__heap_start+0x5a3b>
    2200: ad 31 d0     	lda	$d031                   ; 0xd031 <__heap_start+0x5a4b>
    2203: 09 80        	ora	#$80
    2205: 8d 31 d0     	sta	$d031                   ; 0xd031 <__heap_start+0x5a4b>
    2208: a2 50        	ldx	#$50
    220a: 8e 4c d0     	stx	$d04c                   ; 0xd04c <__heap_start+0x5a66>
    220d: ad 31 d0     	lda	$d031                   ; 0xd031 <__heap_start+0x5a4b>
    2210: 29 f7        	and	#$f7
    2212: 8d 31 d0     	sta	$d031                   ; 0xd031 <__heap_start+0x5a4b>
    2215: 86 51        	stx	$51                     ; 0x51 <g_curScreenW>
    2217: a2 19        	ldx	#$19
    2219: 86 52        	stx	$52                     ; 0x52 <g_curScreenH>
    221b: 20 5c 4f     	jsr	$4f5c <clrhome>
    221e: a2 16        	ldx	#$16
    2220: a0 9d        	ldy	#$9d
    2222: 84 04        	sty	$4                      ; 0x4 <__rc2>
    2224: a0 68        	ldy	#$68
    2226: 84 05        	sty	$5                      ; 0x5 <__rc3>
    2228: a9 00        	lda	#$0
    222a: 20 c8 4f     	jsr	$4fc8 <mcputsxy>
    222d: a2 b6        	ldx	#$b6
    222f: 86 04        	stx	$4                      ; 0x4 <__rc2>
    2231: a2 6f        	ldx	#$6f
    2233: 86 05        	stx	$5                      ; 0x5 <__rc3>
    2235: 20 ba 4f     	jsr	$4fba <msprintf>
    2238: a2 17        	ldx	#$17
    223a: a0 b9        	ldy	#$b9
    223c: 84 04        	sty	$4                      ; 0x4 <__rc2>
    223e: a0 6d        	ldy	#$6d
    2240: 84 05        	sty	$5                      ; 0x5 <__rc3>
    2242: a9 00        	lda	#$0
    2244: 20 c8 4f     	jsr	$4fc8 <mcputsxy>
    2247: a9 14        	lda	#$14
    2249: a2 00        	ldx	#$0
    224b: 20 5b 53     	jsr	$535b <shortcuts>
    224e: a9 01        	lda	#$1
    2250: a2 e9        	ldx	#$e9
    2252: 86 04        	stx	$4                      ; 0x4 <__rc2>
    2254: a2 70        	ldx	#$70
    2256: 86 05        	stx	$5                      ; 0x5 <__rc3>
    2258: a2 37        	ldx	#$37
    225a: 86 06        	stx	$6                      ; 0x6 <__zp_data_size>
    225c: a2 70        	ldx	#$70
    225e: 86 07        	stx	$7                      ; 0x7 <__rc5>
    2260: a2 87        	ldx	#$87
    2262: 86 08        	stx	$8                      ; 0x8 <__rc6>
    2264: a2 6b        	ldx	#$6b
    2266: 86 09        	stx	$9                      ; 0x9 <__rc7>
    2268: 20 69 51     	jsr	$5169 <messagebox>
    226b: aa           	tax
    226c: d0 03        	bne	$2271 <main+0x15f>
    226e: 4c 69 43     	jmp	$4369 <donehypchdir2+0x1a2>
    2271: a2 28        	ldx	#$28
    2273: 8a           	txa
    2274: a0 24        	ldy	#$24
    2276: 91 02        	sta	($2),y                  ; 0x2 <__rc0>
    2278: a0 00        	ldy	#$0
    227a: 64 19        	stz	$19                     ; 0x19 <__rc23>
    227c: 4c f9 22     	jmp	$22f9 <main+0x1e7>
    227f: a6 19        	ldx	$19                     ; 0x19 <__rc23>
    2281: 84 18        	sty	$18                     ; 0x18 <__rc22>
    2283: bc 7e 71     	ldy	$717e,x                 ; 0x717e <midnight>
    2286: bd 7f 71     	lda	$717f,x                 ; 0x717f <midnight+0x1>
    2289: aa           	tax
    228a: 84 16        	sty	$16                     ; 0x16 <__rc20>
    228c: 86 17        	stx	$17                     ; 0x17 <__rc21>
    228e: a5 18        	lda	$18                     ; 0x18 <__rc22>
    2290: 92 16        	sta	($16),z                 ; 0x16 <__rc20>
    2292: 18           	clc
    2293: 98           	tya
    2294: 69 03        	adc	#$3
    2296: 85 04        	sta	$4                      ; 0x4 <__rc2>
    2298: 8a           	txa
    2299: 69 00        	adc	#$0
    229b: 85 05        	sta	$5                      ; 0x5 <__rc3>
    229d: a2 6b        	ldx	#$6b
    229f: 86 06        	stx	$6                      ; 0x6 <__zp_data_size>
    22a1: a2 6b        	ldx	#$6b
    22a3: 86 07        	stx	$7                      ; 0x7 <__rc5>
    22a5: a2 00        	ldx	#$0
    22a7: a9 10        	lda	#$10
    22a9: 20 cc 65     	jsr	$65cc <memcpy>
    22ac: a9 28        	lda	#$28
    22ae: a0 47        	ldy	#$47
    22b0: 91 16        	sta	($16),y                 ; 0x16 <__rc20>
    22b2: a0 01        	ldy	#$1
    22b4: a9 00        	lda	#$0
    22b6: 91 16        	sta	($16),y                 ; 0x16 <__rc20>
    22b8: 98           	tya
    22b9: a0 46        	ldy	#$46
    22bb: 11 16        	ora	($16),y                 ; 0x16 <__rc20>
    22bd: 91 16        	sta	($16),y                 ; 0x16 <__rc20>
    22bf: a2 f3        	ldx	#$f3
    22c1: 86 04        	stx	$4                      ; 0x4 <__rc2>
    22c3: a2 6a        	ldx	#$6a
    22c5: 86 05        	stx	$5                      ; 0x5 <__rc3>
    22c7: a2 d4        	ldx	#$d4
    22c9: 86 06        	stx	$6                      ; 0x6 <__zp_data_size>
    22cb: a2 69        	ldx	#$69
    22cd: 86 07        	stx	$7                      ; 0x7 <__rc5>
    22cf: a0 24        	ldy	#$24
    22d1: b1 02        	lda	($2),y                  ; 0x2 <__rc0>
    22d3: 85 1a        	sta	$1a                     ; 0x1a <__rc24>
    22d5: 20 5a 52     	jsr	$525a <progress>
    22d8: b2 16        	lda	($16),z                 ; 0x16 <__rc20>
    22da: a6 18        	ldx	$18                     ; 0x18 <__rc22>
    22dc: 20 7f 57     	jsr	$577f <UpdateSectors>
    22df: a5 18        	lda	$18                     ; 0x18 <__rc22>
    22e1: 20 2e 5d     	jsr	$5d2e <Deselect>
    22e4: a5 19        	lda	$19                     ; 0x19 <__rc23>
    22e6: a4 18        	ldy	$18                     ; 0x18 <__rc22>
    22e8: 18           	clc
    22e9: 69 02        	adc	#$2
    22eb: 85 19        	sta	$19                     ; 0x19 <__rc23>
    22ed: c8           	iny
    22ee: 18           	clc
    22ef: a5 1a        	lda	$1a                     ; 0x1a <__rc24>
    22f1: 69 28        	adc	#$28
    22f3: 5a           	phy
    22f4: a0 24        	ldy	#$24
    22f6: 91 02        	sta	($2),y                  ; 0x2 <__rc0>
    22f8: 7a           	ply
    22f9: c0 02        	cpy	#$2
    22fb: f0 03        	beq	$2300 <main+0x1ee>
    22fd: 4c 7f 22     	jmp	$227f <main+0x16d>
    2300: 64 04        	stz	$4                      ; 0x4 <__rc2>
    2302: a9 00        	lda	#$0
    2304: a0 1f        	ldy	#$1f
    2306: 91 02        	sta	($2),y                  ; 0x2 <__rc0>
    2308: a2 d7        	ldx	#$d7
    230a: 86 16        	stx	$16                     ; 0x16 <__rc20>
    230c: a2 71        	ldx	#$71
    230e: 86 17        	stx	$17                     ; 0x17 <__rc21>
    2310: a9 00        	lda	#$0
    2312: 64 04        	stz	$4                      ; 0x4 <__rc2>
    2314: 48           	pha
    2315: a9 00        	lda	#$0
    2317: a0 24        	ldy	#$24
    2319: 91 02        	sta	($2),y                  ; 0x2 <__rc0>
    231b: 68           	pla
    231c: 64 21        	stz	$21                     ; 0x21 <__rc31>
    231e: 64 20        	stz	$20                     ; 0x20 <__rc30>
    2320: 64 18        	stz	$18                     ; 0x18 <__rc22>
    2322: a6 18        	ldx	$18                     ; 0x18 <__rc22>
    2324: d0 09        	bne	$232f <main+0x21d>
    2326: a6 20        	ldx	$20                     ; 0x20 <__rc30>
    2328: e0 02        	cpx	#$2
    232a: d0 03        	bne	$232f <main+0x21d>
    232c: 4c bc 27     	jmp	$27bc <main+0x6aa>
    232f: 85 1f        	sta	$1f                     ; 0x1f <__rc29>
    2331: a6 21        	ldx	$21                     ; 0x21 <__rc31>
    2333: bc 7e 71     	ldy	$717e,x                 ; 0x717e <midnight>
    2336: bd 7f 71     	lda	$717f,x                 ; 0x717f <midnight+0x1>
    2339: aa           	tax
    233a: 84 1c        	sty	$1c                     ; 0x1c <__rc26>
    233c: 84 1a        	sty	$1a                     ; 0x1a <__rc24>
    233e: 86 1d        	stx	$1d                     ; 0x1d <__rc27>
    2340: 86 1b        	stx	$1b                     ; 0x1b <__rc25>
    2342: a0 02        	ldy	#$2
    2344: b1 1a        	lda	($1a),y                 ; 0x1a <__rc24>
    2346: 88           	dey
    2347: d1 1a        	cmp	($1a),y                 ; 0x1a <__rc24>
    2349: b0 02        	bcs	$234d <main+0x23b>
    234b: 91 1a        	sta	($1a),y                 ; 0x1a <__rc24>
    234d: a5 20        	lda	$20                     ; 0x20 <__rc30>
    234f: 0a           	asl
    2350: 0a           	asl
    2351: 0a           	asl
    2352: 85 04        	sta	$4                      ; 0x4 <__rc2>
    2354: 0a           	asl
    2355: 0a           	asl
    2356: 18           	clc
    2357: 65 04        	adc	$4                      ; 0x4 <__rc2>
    2359: 85 1e        	sta	$1e                     ; 0x1e <__rc28>
    235b: 18           	clc
    235c: 69 27        	adc	#$27
    235e: 85 04        	sta	$4                      ; 0x4 <__rc2>
    2360: a2 17        	ldx	#$17
    2362: 86 05        	stx	$5                      ; 0x5 <__rc3>
    2364: 64 06        	stz	$6                      ; 0x6 <__zp_data_size>
    2366: a2 00        	ldx	#$0
    2368: a5 1e        	lda	$1e                     ; 0x1e <__rc28>
    236a: 20 de 4f     	jsr	$4fde <mcbox>
    236d: a9 20        	lda	#$20
    236f: 05 27        	ora	$27                     ; 0x27 <g_curTextColor>
    2371: 85 27        	sta	$27                     ; 0x27 <g_curTextColor>
    2373: a6 1e        	ldx	$1e                     ; 0x1e <__rc28>
    2375: 86 19        	stx	$19                     ; 0x19 <__rc23>
    2377: a5 1e        	lda	$1e                     ; 0x1e <__rc28>
    2379: 09 02        	ora	#$2
    237b: a2 df        	ldx	#$df
    237d: 86 04        	stx	$4                      ; 0x4 <__rc2>
    237f: a2 68        	ldx	#$68
    2381: 86 05        	stx	$5                      ; 0x5 <__rc3>
    2383: a2 00        	ldx	#$0
    2385: 85 1e        	sta	$1e                     ; 0x1e <__rc28>
    2387: 20 c8 4f     	jsr	$4fc8 <mcputsxy>
    238a: a0 24        	ldy	#$24
    238c: b1 02        	lda	($2),y                  ; 0x2 <__rc0>
    238e: 85 04        	sta	$4                      ; 0x4 <__rc2>
    2390: a9 b7        	lda	#$b7
    2392: 18           	clc
    2393: 65 04        	adc	$4                      ; 0x4 <__rc2>
    2395: 85 04        	sta	$4                      ; 0x4 <__rc2>
    2397: a9 72        	lda	#$72
    2399: 69 00        	adc	#$0
    239b: 85 05        	sta	$5                      ; 0x5 <__rc3>
    239d: 20 ba 4f     	jsr	$4fba <msprintf>
    23a0: a9 20        	lda	#$20
    23a2: 20 37 5f     	jsr	$5f37 <cputc>
    23a5: a9 01        	lda	#$1
    23a7: a0 46        	ldy	#$46
    23a9: 31 1a        	and	($1a),y                 ; 0x1a <__rc24>
    23ab: f0 25        	beq	$23d2 <main+0x2c0>
    23ad: a5 53        	lda	$53                     ; 0x53 <g_curX>
    23af: 1a           	inc
    23b0: a2 df        	ldx	#$df
    23b2: 86 04        	stx	$4                      ; 0x4 <__rc2>
    23b4: a2 68        	ldx	#$68
    23b6: 86 05        	stx	$5                      ; 0x5 <__rc3>
    23b8: a2 00        	ldx	#$0
    23ba: 20 c8 4f     	jsr	$4fc8 <mcputsxy>
    23bd: a5 1c        	lda	$1c                     ; 0x1c <__rc26>
    23bf: 18           	clc
    23c0: 69 03        	adc	#$3
    23c2: 85 04        	sta	$4                      ; 0x4 <__rc2>
    23c4: a5 1d        	lda	$1d                     ; 0x1d <__rc27>
    23c6: 69 00        	adc	#$0
    23c8: 85 05        	sta	$5                      ; 0x5 <__rc3>
    23ca: 20 ba 4f     	jsr	$4fba <msprintf>
    23cd: a9 20        	lda	#$20
    23cf: 20 37 5f     	jsr	$5f37 <cputc>
    23d2: a2 f5        	ldx	#$f5
    23d4: 86 04        	stx	$4                      ; 0x4 <__rc2>
    23d6: a2 6c        	ldx	#$6c
    23d8: 86 05        	stx	$5                      ; 0x5 <__rc3>
    23da: a2 17        	ldx	#$17
    23dc: a5 1e        	lda	$1e                     ; 0x1e <__rc28>
    23de: 20 c8 4f     	jsr	$4fc8 <mcputsxy>
    23e1: b2 1a        	lda	($1a),z                 ; 0x1a <__rc24>
    23e3: 64 04        	stz	$4                      ; 0x4 <__rc2>
    23e5: 64 05        	stz	$5                      ; 0x5 <__rc3>
    23e7: 64 06        	stz	$6                      ; 0x6 <__zp_data_size>
    23e9: a2 00        	ldx	#$0
    23eb: 20 45 4e     	jsr	$4e45 <csputdec>
    23ee: a0 02        	ldy	#$2
    23f0: b1 1a        	lda	($1a),y                 ; 0x1a <__rc24>
    23f2: c9 ff        	cmp	#$ff
    23f4: d0 03        	bne	$23f9 <main+0x2e7>
    23f6: 4c ff 26     	jmp	$26ff <main+0x5ed>
    23f9: a9 20        	lda	#$20
    23fb: 20 37 5f     	jsr	$5f37 <cputc>
    23fe: 18           	clc
    23ff: a5 1c        	lda	$1c                     ; 0x1c <__rc26>
    2401: 69 44        	adc	#$44
    2403: aa           	tax
    2404: a5 1d        	lda	$1d                     ; 0x1d <__rc27>
    2406: 69 00        	adc	#$0
    2408: 86 1c        	stx	$1c                     ; 0x1c <__rc26>
    240a: 86 04        	stx	$4                      ; 0x4 <__rc2>
    240c: 85 1d        	sta	$1d                     ; 0x1d <__rc27>
    240e: 85 05        	sta	$5                      ; 0x5 <__rc3>
    2410: a0 01        	ldy	#$1
    2412: b1 04        	lda	($4),y                  ; 0x4 <__rc2>
    2414: c9 ff        	cmp	#$ff
    2416: d0 0d        	bne	$2425 <main+0x313>
    2418: a0 44        	ldy	#$44
    241a: b1 1a        	lda	($1a),y                 ; 0x1a <__rc24>
    241c: a0 01        	ldy	#$1
    241e: c9 ff        	cmp	#$ff
    2420: d0 03        	bne	$2425 <main+0x313>
    2422: 4c 62 24     	jmp	$2462 <main+0x350>
    2425: 18           	clc
    2426: a5 19        	lda	$19                     ; 0x19 <__rc23>
    2428: 69 0c        	adc	#$c
    242a: a2 df        	ldx	#$df
    242c: 86 04        	stx	$4                      ; 0x4 <__rc2>
    242e: a2 68        	ldx	#$68
    2430: 86 05        	stx	$5                      ; 0x5 <__rc3>
    2432: a2 17        	ldx	#$17
    2434: 20 c8 4f     	jsr	$4fc8 <mcputsxy>
    2437: a6 1c        	ldx	$1c                     ; 0x1c <__rc26>
    2439: 86 04        	stx	$4                      ; 0x4 <__rc2>
    243b: a6 1d        	ldx	$1d                     ; 0x1d <__rc27>
    243d: 86 05        	stx	$5                      ; 0x5 <__rc3>
    243f: a0 44        	ldy	#$44
    2441: b1 1a        	lda	($1a),y                 ; 0x1a <__rc24>
    2443: 85 07        	sta	$7                      ; 0x7 <__rc5>
    2445: a0 01        	ldy	#$1
    2447: b1 04        	lda	($4),y                  ; 0x4 <__rc2>
    2449: 64 04        	stz	$4                      ; 0x4 <__rc2>
    244b: 64 05        	stz	$5                      ; 0x5 <__rc3>
    244d: 64 06        	stz	$6                      ; 0x6 <__zp_data_size>
    244f: aa           	tax
    2450: a5 07        	lda	$7                      ; 0x7 <__rc5>
    2452: 20 45 4e     	jsr	$4e45 <csputdec>
    2455: a2 86        	ldx	#$86
    2457: 86 04        	stx	$4                      ; 0x4 <__rc2>
    2459: a2 6d        	ldx	#$6d
    245b: 86 05        	stx	$5                      ; 0x5 <__rc3>
    245d: 20 ba 4f     	jsr	$4fba <msprintf>
    2460: a0 01        	ldy	#$1
    2462: a9 df        	lda	#$df
    2464: 25 27        	and	$27                     ; 0x27 <g_curTextColor>
    2466: 85 06        	sta	$6                      ; 0x6 <__zp_data_size>
    2468: 85 27        	sta	$27                     ; 0x27 <g_curTextColor>
    246a: b1 1a        	lda	($1a),y                 ; 0x1a <__rc24>
    246c: a0 20        	ldy	#$20
    246e: 91 02        	sta	($2),y                  ; 0x2 <__rc0>
    2470: aa           	tax
    2471: a0 02        	ldy	#$2
    2473: b1 1a        	lda	($1a),y                 ; 0x1a <__rc24>
    2475: a0 1b        	ldy	#$1b
    2477: 91 02        	sta	($2),y                  ; 0x2 <__rc0>
    2479: e0 15        	cpx	#$15
    247b: 64 1e        	stz	$1e                     ; 0x1e <__rc28>
    247d: 64 1a        	stz	$1a                     ; 0x1a <__rc24>
    247f: a9 00        	lda	#$0
    2481: 90 0a        	bcc	$248d <main+0x37b>
    2483: 18           	clc
    2484: 8a           	txa
    2485: 69 eb        	adc	#$eb
    2487: 85 1a        	sta	$1a                     ; 0x1a <__rc24>
    2489: a9 00        	lda	#$0
    248b: 69 ff        	adc	#$ff
    248d: aa           	tax
    248e: a5 1a        	lda	$1a                     ; 0x1a <__rc24>
    2490: 18           	clc
    2491: 65 16        	adc	$16                     ; 0x16 <__rc20>
    2493: 85 1c        	sta	$1c                     ; 0x1c <__rc26>
    2495: 8a           	txa
    2496: a0 22        	ldy	#$22
    2498: 91 02        	sta	($2),y                  ; 0x2 <__rc0>
    249a: 65 17        	adc	$17                     ; 0x17 <__rc21>
    249c: 85 1d        	sta	$1d                     ; 0x1d <__rc27>
    249e: a5 19        	lda	$19                     ; 0x19 <__rc23>
    24a0: 09 01        	ora	#$1
    24a2: a0 1d        	ldy	#$1d
    24a4: 91 02        	sta	($2),y                  ; 0x2 <__rc0>
    24a6: a5 06        	lda	$6                      ; 0x6 <__zp_data_size>
    24a8: a4 1f        	ldy	$1f                     ; 0x1f <__rc29>
    24aa: a6 1e        	ldx	$1e                     ; 0x1e <__rc28>
    24ac: e0 16        	cpx	#$16
    24ae: d0 03        	bne	$24b3 <main+0x3a1>
    24b0: 4c f8 26     	jmp	$26f8 <main+0x5e6>
    24b3: 86 04        	stx	$4                      ; 0x4 <__rc2>
    24b5: a5 1a        	lda	$1a                     ; 0x1a <__rc24>
    24b7: 18           	clc
    24b8: 65 04        	adc	$4                      ; 0x4 <__rc2>
    24ba: a2 01        	ldx	#$1
    24bc: b0 02        	bcs	$24c0 <main+0x3ae>
    24be: a2 00        	ldx	#$0
    24c0: 86 1b        	stx	$1b                     ; 0x1b <__rc25>
    24c2: 85 19        	sta	$19                     ; 0x19 <__rc23>
    24c4: aa           	tax
    24c5: a5 20        	lda	$20                     ; 0x20 <__rc30>
    24c7: 20 4e 4d     	jsr	$4d4e <getdirententry>
    24ca: a6 04        	ldx	$4                      ; 0x4 <__rc2>
    24cc: 86 16        	stx	$16                     ; 0x16 <__rc20>
    24ce: a6 05        	ldx	$5                      ; 0x5 <__rc3>
    24d0: 86 17        	stx	$17                     ; 0x17 <__rc21>
    24d2: a6 17        	ldx	$17                     ; 0x17 <__rc21>
    24d4: a0 00        	ldy	#$0
    24d6: 84 04        	sty	$4                      ; 0x4 <__rc2>
    24d8: a0 00        	ldy	#$0
    24da: 84 05        	sty	$5                      ; 0x5 <__rc3>
    24dc: e4 05        	cpx	$5                      ; 0x5 <__rc3>
    24de: d0 11        	bne	$24f1 <main+0x3df>
    24e0: a6 16        	ldx	$16                     ; 0x16 <__rc20>
    24e2: a4 1f        	ldy	$1f                     ; 0x1f <__rc29>
    24e4: 5a           	phy
    24e5: a0 22        	ldy	#$22
    24e7: b1 02        	lda	($2),y                  ; 0x2 <__rc0>
    24e9: 7a           	ply
    24ea: e4 04        	cpx	$4                      ; 0x4 <__rc2>
    24ec: d0 07        	bne	$24f5 <main+0x3e3>
    24ee: 4c f6 26     	jmp	$26f6 <main+0x5e4>
    24f1: a0 22        	ldy	#$22
    24f3: b1 02        	lda	($2),y                  ; 0x2 <__rc0>
    24f5: a6 1b        	ldx	$1b                     ; 0x1b <__rc25>
    24f7: e0 01        	cpx	#$1
    24f9: 69 00        	adc	#$0
    24fb: 85 1b        	sta	$1b                     ; 0x1b <__rc25>
    24fd: a2 00        	ldx	#$0
    24ff: e4 1b        	cpx	$1b                     ; 0x1b <__rc25>
    2501: d0 08        	bne	$250b <main+0x3f9>
    2503: a0 1b        	ldy	#$1b
    2505: b1 02        	lda	($2),y                  ; 0x2 <__rc0>
    2507: c5 19        	cmp	$19                     ; 0x19 <__rc23>
    2509: 80 02        	bra	$250d <main+0x3fb>
    250b: e4 1b        	cpx	$1b                     ; 0x1b <__rc25>
    250d: a4 1f        	ldy	$1f                     ; 0x1f <__rc29>
    250f: b0 03        	bcs	$2514 <main+0x402>
    2511: 4c f6 26     	jmp	$26f6 <main+0x5e4>
    2514: a5 1b        	lda	$1b                     ; 0x1b <__rc25>
    2516: d0 0f        	bne	$2527 <main+0x415>
    2518: a0 20        	ldy	#$20
    251a: b1 02        	lda	($2),y                  ; 0x2 <__rc0>
    251c: 85 04        	sta	$4                      ; 0x4 <__rc2>
    251e: a6 19        	ldx	$19                     ; 0x19 <__rc23>
    2520: e4 04        	cpx	$4                      ; 0x4 <__rc2>
    2522: d0 03        	bne	$2527 <main+0x415>
    2524: 4c 6b 27     	jmp	$276b <main+0x659>
    2527: a9 01        	lda	#$1
    2529: 29 01        	and	#$1
    252b: a2 20        	ldx	#$20
    252d: a8           	tay
    252e: d0 02        	bne	$2532 <main+0x420>
    2530: a2 3e        	ldx	#$3e
    2532: 86 28        	stx	$28                     ; 0x28 <s>
    2534: a2 20        	ldx	#$20
    2536: 86 29        	stx	$29                     ; 0x29 <s+0x1>
    2538: a0 00        	ldy	#$0
    253a: 80 04        	bra	$2540 <main+0x42e>
    253c: 99 2a 00     	sta	$2a,y                   ; 0x2a <s+0x2>
    253f: c8           	iny
    2540: 84 06        	sty	$6                      ; 0x6 <__zp_data_size>
    2542: 98           	tya
    2543: 18           	clc
    2544: 65 16        	adc	$16                     ; 0x16 <__rc20>
    2546: 85 04        	sta	$4                      ; 0x4 <__rc2>
    2548: a5 17        	lda	$17                     ; 0x17 <__rc21>
    254a: 69 00        	adc	#$0
    254c: 85 05        	sta	$5                      ; 0x5 <__rc3>
    254e: a0 05        	ldy	#$5
    2550: b1 04        	lda	($4),y                  ; 0x4 <__rc2>
    2552: c9 a0        	cmp	#$a0
    2554: f0 0f        	beq	$2565 <main+0x453>
    2556: aa           	tax
    2557: f0 0c        	beq	$2565 <main+0x453>
    2559: a4 06        	ldy	$6                      ; 0x6 <__zp_data_size>
    255b: c0 10        	cpy	#$10
    255d: d0 dd        	bne	$253c <main+0x42a>
    255f: a2 10        	ldx	#$10
    2561: a9 12        	lda	#$12
    2563: 80 07        	bra	$256c <main+0x45a>
    2565: a6 06        	ldx	$6                      ; 0x6 <__zp_data_size>
    2567: a5 06        	lda	$6                      ; 0x6 <__zp_data_size>
    2569: 18           	clc
    256a: 69 02        	adc	#$2
    256c: 18           	clc
    256d: a8           	tay
    256e: 69 10        	adc	#$10
    2570: 86 04        	stx	$4                      ; 0x4 <__rc2>
    2572: 38           	sec
    2573: e5 04        	sbc	$4                      ; 0x4 <__rc2>
    2575: 85 05        	sta	$5                      ; 0x5 <__rc3>
    2577: 18           	clc
    2578: 8a           	txa
    2579: 69 f0        	adc	#$f0
    257b: 85 04        	sta	$4                      ; 0x4 <__rc2>
    257d: 5a           	phy
    257e: fa           	plx
    257f: a5 05        	lda	$5                      ; 0x5 <__rc3>
    2581: 80 0c        	bra	$258f <main+0x47d>
    2583: c8           	iny
    2584: a9 20        	lda	#$20
    2586: 9d 28 00     	sta	$28,x                   ; 0x28 <s>
    2589: a5 05        	lda	$5                      ; 0x5 <__rc3>
    258b: e6 04        	inc	$4                      ; 0x4 <__rc2>
    258d: 5a           	phy
    258e: fa           	plx
    258f: e6 04        	inc	$4                      ; 0x4 <__rc2>
    2591: c6 04        	dec	$4                      ; 0x4 <__rc2>
    2593: d0 ee        	bne	$2583 <main+0x471>
    2595: aa           	tax
    2596: e8           	inx
    2597: a8           	tay
    2598: 85 04        	sta	$4                      ; 0x4 <__rc2>
    259a: a9 20        	lda	#$20
    259c: 99 28 00     	sta	$28,y                   ; 0x28 <s>
    259f: 18           	clc
    25a0: a5 04        	lda	$4                      ; 0x4 <__rc2>
    25a2: 69 02        	adc	#$2
    25a4: a8           	tay
    25a5: a9 5d        	lda	#$5d
    25a7: 9d 28 00     	sta	$28,x                   ; 0x28 <s>
    25aa: 18           	clc
    25ab: a5 04        	lda	$4                      ; 0x4 <__rc2>
    25ad: 69 03        	adc	#$3
    25af: 85 06        	sta	$6                      ; 0x6 <__zp_data_size>
    25b1: a9 20        	lda	#$20
    25b3: 99 28 00     	sta	$28,y                   ; 0x28 <s>
    25b6: a0 02        	ldy	#$2
    25b8: b1 16        	lda	($16),y                 ; 0x16 <__rc20>
    25ba: aa           	tax
    25bb: 29 40        	and	#$40
    25bd: d0 2b        	bne	$25ea <main+0x4d8>
    25bf: 8a           	txa
    25c0: 29 0f        	and	#$f
    25c2: 85 07        	sta	$7                      ; 0x7 <__rc5>
    25c4: 18           	clc
    25c5: a5 04        	lda	$4                      ; 0x4 <__rc2>
    25c7: 69 04        	adc	#$4
    25c9: a8           	tay
    25ca: 18           	clc
    25cb: a5 04        	lda	$4                      ; 0x4 <__rc2>
    25cd: 69 05        	adc	#$5
    25cf: 85 04        	sta	$4                      ; 0x4 <__rc2>
    25d1: a2 00        	ldx	#$0
    25d3: a9 ff        	lda	#$ff
    25d5: c6 07        	dec	$7                      ; 0x7 <__rc5>
    25d7: c5 07        	cmp	$7                      ; 0x7 <__rc5>
    25d9: d0 03        	bne	$25de <main+0x4cc>
    25db: 4c 70 27     	jmp	$2770 <main+0x65e>
    25de: a5 07        	lda	$7                      ; 0x7 <__rc5>
    25e0: e0 00        	cpx	#$0
    25e2: f0 03        	beq	$25e7 <main+0x4d5>
    25e4: 4c 7d 27     	jmp	$277d <main+0x66b>
    25e7: 4c 74 27     	jmp	$2774 <main+0x662>
    25ea: 8a           	txa
    25eb: 29 bf        	and	#$bf
    25ed: a8           	tay
    25ee: 18           	clc
    25ef: a5 04        	lda	$4                      ; 0x4 <__rc2>
    25f1: 69 04        	adc	#$4
    25f3: 85 07        	sta	$7                      ; 0x7 <__rc5>
    25f5: 18           	clc
    25f6: a5 04        	lda	$4                      ; 0x4 <__rc2>
    25f8: 69 05        	adc	#$5
    25fa: aa           	tax
    25fb: c0 10        	cpy	#$10
    25fd: f0 03        	beq	$2602 <main+0x4f0>
    25ff: 4c 99 27     	jmp	$2799 <main+0x687>
    2602: 4c 86 27     	jmp	$2786 <main+0x674>
    2605: a6 06        	ldx	$6                      ; 0x6 <__zp_data_size>
    2607: 9d 28 00     	sta	$28,x                   ; 0x28 <s>
    260a: a9 45        	lda	#$45
    260c: 99 28 00     	sta	$28,y                   ; 0x28 <s>
    260f: a9 4c        	lda	#$4c
    2611: a6 04        	ldx	$4                      ; 0x4 <__rc2>
    2613: 9d 28 00     	sta	$28,x                   ; 0x28 <s>
    2616: 18           	clc
    2617: a5 05        	lda	$5                      ; 0x5 <__rc3>
    2619: 69 06        	adc	#$6
    261b: aa           	tax
    261c: 18           	clc
    261d: a5 05        	lda	$5                      ; 0x5 <__rc3>
    261f: 69 07        	adc	#$7
    2621: a8           	tay
    2622: a9 20        	lda	#$20
    2624: 9d 28 00     	sta	$28,x                   ; 0x28 <s>
    2627: 18           	clc
    2628: a5 05        	lda	$5                      ; 0x5 <__rc3>
    262a: 69 08        	adc	#$8
    262c: aa           	tax
    262d: a9 5d        	lda	#$5d
    262f: 99 28 00     	sta	$28,y                   ; 0x28 <s>
    2632: 18           	clc
    2633: a5 05        	lda	$5                      ; 0x5 <__rc3>
    2635: 69 09        	adc	#$9
    2637: a8           	tay
    2638: a9 20        	lda	#$20
    263a: 9d 28 00     	sta	$28,x                   ; 0x28 <s>
    263d: 5a           	phy
    263e: fa           	plx
    263f: 74 28        	stz	$28,x                   ; 0x28 <s>
    2641: a2 07        	ldx	#$7
    2643: 86 04        	stx	$4                      ; 0x4 <__rc2>
    2645: a9 01        	lda	#$1
    2647: a4 1e        	ldy	$1e                     ; 0x1e <__rc28>
    2649: 31 1c        	and	($1c),y                 ; 0x1c <__rc26>
    264b: 29 01        	and	#$1
    264d: d0 0f        	bne	$265e <main+0x54c>
    264f: a0 02        	ldy	#$2
    2651: b1 16        	lda	($16),y                 ; 0x16 <__rc20>
    2653: d0 03        	bne	$2658 <main+0x546>
    2655: 4c b7 27     	jmp	$27b7 <main+0x6a5>
    2658: a2 03        	ldx	#$3
    265a: 86 04        	stx	$4                      ; 0x4 <__rc2>
    265c: a4 1e        	ldy	$1e                     ; 0x1e <__rc28>
    265e: a9 f0        	lda	#$f0
    2660: 25 27        	and	$27                     ; 0x27 <g_curTextColor>
    2662: 05 04        	ora	$4                      ; 0x4 <__rc2>
    2664: a6 1b        	ldx	$1b                     ; 0x1b <__rc25>
    2666: d0 13        	bne	$267b <main+0x569>
    2668: 48           	pha
    2669: 5a           	phy
    266a: a0 20        	ldy	#$20
    266c: b1 02        	lda	($2),y                  ; 0x2 <__rc0>
    266e: 7a           	ply
    266f: 85 04        	sta	$4                      ; 0x4 <__rc2>
    2671: 68           	pla
    2672: a6 19        	ldx	$19                     ; 0x19 <__rc23>
    2674: e4 04        	cpx	$4                      ; 0x4 <__rc2>
    2676: d0 03        	bne	$267b <main+0x569>
    2678: 4c a8 27     	jmp	$27a8 <main+0x696>
    267b: 29 df        	and	#$df
    267d: 85 27        	sta	$27                     ; 0x27 <g_curTextColor>
    267f: c8           	iny
    2680: a2 28        	ldx	#$28
    2682: 86 04        	stx	$4                      ; 0x4 <__rc2>
    2684: a2 00        	ldx	#$0
    2686: 86 05        	stx	$5                      ; 0x5 <__rc3>
    2688: 84 1e        	sty	$1e                     ; 0x1e <__rc28>
    268a: 5a           	phy
    268b: fa           	plx
    268c: a0 1d        	ldy	#$1d
    268e: b1 02        	lda	($2),y                  ; 0x2 <__rc0>
    2690: 20 e8 5f     	jsr	$5fe8 <cputsxy>
    2693: a5 16        	lda	$16                     ; 0x16 <__rc20>
    2695: 18           	clc
    2696: 69 1e        	adc	#$1e
    2698: 85 04        	sta	$4                      ; 0x4 <__rc2>
    269a: a5 17        	lda	$17                     ; 0x17 <__rc21>
    269c: 69 00        	adc	#$0
    269e: 85 05        	sta	$5                      ; 0x5 <__rc3>
    26a0: a0 1e        	ldy	#$1e
    26a2: b1 16        	lda	($16),y                 ; 0x16 <__rc20>
    26a4: 85 06        	sta	$6                      ; 0x6 <__zp_data_size>
    26a6: a0 01        	ldy	#$1
    26a8: b1 04        	lda	($4),y                  ; 0x4 <__rc2>
    26aa: d0 07        	bne	$26b3 <main+0x5a1>
    26ac: a6 06        	ldx	$6                      ; 0x6 <__zp_data_size>
    26ae: d0 03        	bne	$26b3 <main+0x5a1>
    26b0: 4c db 2d     	jmp	$2ddb <main+0xcc9>
    26b3: a4 06        	ldy	$6                      ; 0x6 <__zp_data_size>
    26b5: 64 04        	stz	$4                      ; 0x4 <__rc2>
    26b7: 64 05        	stz	$5                      ; 0x5 <__rc3>
    26b9: a2 05        	ldx	#$5
    26bb: 86 06        	stx	$6                      ; 0x6 <__zp_data_size>
    26bd: aa           	tax
    26be: 98           	tya
    26bf: 20 45 4e     	jsr	$4e45 <csputdec>
    26c2: a5 1b        	lda	$1b                     ; 0x1b <__rc25>
    26c4: d0 0f        	bne	$26d5 <main+0x5c3>
    26c6: a0 20        	ldy	#$20
    26c8: b1 02        	lda	($2),y                  ; 0x2 <__rc0>
    26ca: 85 04        	sta	$4                      ; 0x4 <__rc2>
    26cc: a6 19        	ldx	$19                     ; 0x19 <__rc23>
    26ce: e4 04        	cpx	$4                      ; 0x4 <__rc2>
    26d0: d0 03        	bne	$26d5 <main+0x5c3>
    26d2: 4c b2 27     	jmp	$27b2 <main+0x6a0>
    26d5: a9 01        	lda	#$1
    26d7: 29 01        	and	#$1
    26d9: 85 16        	sta	$16                     ; 0x16 <__rc20>
    26db: a9 20        	lda	#$20
    26dd: 20 37 5f     	jsr	$5f37 <cputc>
    26e0: a9 20        	lda	#$20
    26e2: a6 16        	ldx	$16                     ; 0x16 <__rc20>
    26e4: d0 02        	bne	$26e8 <main+0x5d6>
    26e6: a9 3c        	lda	#$3c
    26e8: 20 37 5f     	jsr	$5f37 <cputc>
    26eb: a9 f0        	lda	#$f0
    26ed: 25 27        	and	$27                     ; 0x27 <g_curTextColor>
    26ef: 09 03        	ora	#$3
    26f1: 85 27        	sta	$27                     ; 0x27 <g_curTextColor>
    26f3: 4c a8 24     	jmp	$24a8 <main+0x396>
    26f6: a5 27        	lda	$27                     ; 0x27 <g_curTextColor>
    26f8: 29 df        	and	#$df
    26fa: 85 27        	sta	$27                     ; 0x27 <g_curTextColor>
    26fc: 4c 39 27     	jmp	$2739 <main+0x627>
    26ff: 18           	clc
    2700: a5 19        	lda	$19                     ; 0x19 <__rc23>
    2702: 69 11        	adc	#$11
    2704: a2 95        	ldx	#$95
    2706: 86 04        	stx	$4                      ; 0x4 <__rc2>
    2708: a2 68        	ldx	#$68
    270a: 86 05        	stx	$5                      ; 0x5 <__rc3>
    270c: a2 03        	ldx	#$3
    270e: 20 c8 4f     	jsr	$4fc8 <mcputsxy>
    2711: a4 1f        	ldy	$1f                     ; 0x1f <__rc29>
    2713: a5 18        	lda	$18                     ; 0x18 <__rc22>
    2715: d0 22        	bne	$2739 <main+0x627>
    2717: a6 20        	ldx	$20                     ; 0x20 <__rc30>
    2719: 5a           	phy
    271a: a0 1f        	ldy	#$1f
    271c: b1 02        	lda	($2),y                  ; 0x2 <__rc0>
    271e: 7a           	ply
    271f: 85 04        	sta	$4                      ; 0x4 <__rc2>
    2721: e4 04        	cpx	$4                      ; 0x4 <__rc2>
    2723: d0 14        	bne	$2739 <main+0x627>
    2725: 18           	clc
    2726: a5 19        	lda	$19                     ; 0x19 <__rc23>
    2728: 69 0c        	adc	#$c
    272a: a2 2a        	ldx	#$2a
    272c: 86 04        	stx	$4                      ; 0x4 <__rc2>
    272e: a2 6c        	ldx	#$6c
    2730: 86 05        	stx	$5                      ; 0x5 <__rc3>
    2732: a2 05        	ldx	#$5
    2734: 20 c8 4f     	jsr	$4fc8 <mcputsxy>
    2737: a4 1f        	ldy	$1f                     ; 0x1f <__rc29>
    2739: 18           	clc
    273a: a5 21        	lda	$21                     ; 0x21 <__rc31>
    273c: 69 02        	adc	#$2
    273e: 85 21        	sta	$21                     ; 0x21 <__rc31>
    2740: 18           	clc
    2741: 5a           	phy
    2742: a0 24        	ldy	#$24
    2744: b1 02        	lda	($2),y                  ; 0x2 <__rc0>
    2746: 69 11        	adc	#$11
    2748: 91 02        	sta	($2),y                  ; 0x2 <__rc0>
    274a: 7a           	ply
    274b: 84 04        	sty	$4                      ; 0x4 <__rc2>
    274d: a9 47        	lda	#$47
    274f: 18           	clc
    2750: 65 04        	adc	$4                      ; 0x4 <__rc2>
    2752: 85 16        	sta	$16                     ; 0x16 <__rc20>
    2754: a9 72        	lda	#$72
    2756: 69 00        	adc	#$0
    2758: 85 17        	sta	$17                     ; 0x17 <__rc21>
    275a: a5 1f        	lda	$1f                     ; 0x1f <__rc29>
    275c: 18           	clc
    275d: 69 70        	adc	#$70
    275f: e6 20        	inc	$20                     ; 0x20 <__rc30>
    2761: f0 03        	beq	$2766 <main+0x654>
    2763: 4c 22 23     	jmp	$2322 <main+0x210>
    2766: e6 18        	inc	$18                     ; 0x18 <__rc22>
    2768: 4c 22 23     	jmp	$2322 <main+0x210>
    276b: a9 00        	lda	#$0
    276d: 4c 29 25     	jmp	$2529 <main+0x417>
    2770: ca           	dex
    2771: 4c de 25     	jmp	$25de <main+0x4cc>
    2774: c9 05        	cmp	#$5
    2776: 90 09        	bcc	$2781 <main+0x66f>
    2778: a9 44        	lda	#$44
    277a: 4c 05 26     	jmp	$2605 <main+0x4f3>
    277d: e0 00        	cpx	#$0
    277f: b0 f7        	bcs	$2778 <main+0x666>
    2781: 0a           	asl
    2782: aa           	tax
    2783: 7c d2 67     	jmp	($67d2,x)               ; 0x67d2 <__zp_data_load_start+0x47bb>
    2786: a9 44        	lda	#$44
    2788: a4 06        	ldy	$6                      ; 0x6 <__zp_data_size>
    278a: 99 28 00     	sta	$28,y                   ; 0x28 <s>
    278d: a9 49        	lda	#$49
    278f: a4 07        	ldy	$7                      ; 0x7 <__rc5>
    2791: 99 28 00     	sta	$28,y                   ; 0x28 <s>
    2794: a9 52        	lda	#$52
    2796: 4c 13 26     	jmp	$2613 <main+0x501>
    2799: a9 20        	lda	#$20
    279b: a4 06        	ldy	$6                      ; 0x6 <__zp_data_size>
    279d: 99 28 00     	sta	$28,y                   ; 0x28 <s>
    27a0: a4 07        	ldy	$7                      ; 0x7 <__rc5>
    27a2: 99 28 00     	sta	$28,y                   ; 0x28 <s>
    27a5: 4c 13 26     	jmp	$2613 <main+0x501>
    27a8: a6 18        	ldx	$18                     ; 0x18 <__rc22>
    27aa: f0 03        	beq	$27af <main+0x69d>
    27ac: 4c 7b 26     	jmp	$267b <main+0x569>
    27af: 4c e9 2d     	jmp	$2de9 <main+0xcd7>
    27b2: a9 00        	lda	#$0
    27b4: 4c d7 26     	jmp	$26d7 <main+0x5c5>
    27b7: a2 0c        	ldx	#$c
    27b9: 4c 5a 26     	jmp	$265a <main+0x548>
    27bc: a9 00        	lda	#$0
    27be: 48           	pha
    27bf: a0 1f        	ldy	#$1f
    27c1: b1 02        	lda	($2),y                  ; 0x2 <__rc0>
    27c3: 85 17        	sta	$17                     ; 0x17 <__rc21>
    27c5: 68           	pla
    27c6: a6 04        	ldx	$4                      ; 0x4 <__rc2>
    27c8: 86 1c        	stx	$1c                     ; 0x1c <__rc26>
    27ca: a6 17        	ldx	$17                     ; 0x17 <__rc21>
    27cc: 20 5b 53     	jsr	$535b <shortcuts>
    27cf: a0 01        	ldy	#$1
    27d1: ae 10 d6     	ldx	$d610                   ; 0xd610 <__heap_start+0x602a>
    27d4: d0 0b        	bne	$27e1 <main+0x6cf>
    27d6: ad 11 d6     	lda	$d611                   ; 0xd611 <__heap_start+0x602b>
    27d9: 85 04        	sta	$4                      ; 0x4 <__rc2>
    27db: c5 1c        	cmp	$1c                     ; 0x1c <__rc26>
    27dd: f0 f2        	beq	$27d1 <main+0x6bf>
    27df: 80 e5        	bra	$27c6 <main+0x6b4>
    27e1: 38           	sec
    27e2: 86 1e        	stx	$1e                     ; 0x1e <__rc28>
    27e4: 8a           	txa
    27e5: e9 f1        	sbc	#$f1
    27e7: aa           	tax
    27e8: a5 1c        	lda	$1c                     ; 0x1c <__rc26>
    27ea: 5a           	phy
    27eb: a0 01        	ldy	#$1
    27ed: b0 02        	bcs	$27f1 <main+0x6df>
    27ef: a0 00        	ldy	#$0
    27f1: 84 08        	sty	$8                      ; 0x8 <__rc6>
    27f3: e9 00        	sbc	#$0
    27f5: 85 09        	sta	$9                      ; 0x9 <__rc7>
    27f7: a4 17        	ldy	$17                     ; 0x17 <__rc21>
    27f9: 84 19        	sty	$19                     ; 0x19 <__rc23>
    27fb: 06 19        	asl	$19                     ; 0x19 <__rc23>
    27fd: 64 18        	stz	$18                     ; 0x18 <__rc22>
    27ff: 26 18        	rol	$18                     ; 0x18 <__rc22>
    2801: a0 01        	ldy	#$1
    2803: b0 02        	bcs	$2807 <main+0x6f5>
    2805: a0 00        	ldy	#$0
    2807: 84 16        	sty	$16                     ; 0x16 <__rc20>
    2809: a5 19        	lda	$19                     ; 0x19 <__rc23>
    280b: 0a           	asl
    280c: a4 18        	ldy	$18                     ; 0x18 <__rc22>
    280e: 84 1a        	sty	$1a                     ; 0x1a <__rc24>
    2810: 26 1a        	rol	$1a                     ; 0x1a <__rc24>
    2812: a0 01        	ldy	#$1
    2814: b0 02        	bcs	$2818 <main+0x706>
    2816: a0 00        	ldy	#$0
    2818: 84 1d        	sty	$1d                     ; 0x1d <__rc27>
    281a: 0a           	asl
    281b: 26 1a        	rol	$1a                     ; 0x1a <__rc24>
    281d: a0 01        	ldy	#$1
    281f: b0 02        	bcs	$2823 <main+0x711>
    2821: a0 00        	ldy	#$0
    2823: 84 21        	sty	$21                     ; 0x21 <__rc31>
    2825: 7a           	ply
    2826: 85 1f        	sta	$1f                     ; 0x1f <__rc29>
    2828: 85 1b        	sta	$1b                     ; 0x1b <__rc25>
    282a: a5 1a        	lda	$1a                     ; 0x1a <__rc24>
    282c: 85 20        	sta	$20                     ; 0x20 <__rc30>
    282e: 06 1b        	asl	$1b                     ; 0x1b <__rc25>
    2830: 26 1a        	rol	$1a                     ; 0x1a <__rc24>
    2832: a5 1b        	lda	$1b                     ; 0x1b <__rc25>
    2834: 85 04        	sta	$4                      ; 0x4 <__rc2>
    2836: a5 1a        	lda	$1a                     ; 0x1a <__rc24>
    2838: 06 04        	asl	$4                      ; 0x4 <__rc2>
    283a: 2a           	rol
    283b: 06 04        	asl	$4                      ; 0x4 <__rc2>
    283d: 2a           	rol
    283e: 06 04        	asl	$4                      ; 0x4 <__rc2>
    2840: 5a           	phy
    2841: 48           	pha
    2842: a5 04        	lda	$4                      ; 0x4 <__rc2>
    2844: a0 20        	ldy	#$20
    2846: 91 02        	sta	($2),y                  ; 0x2 <__rc0>
    2848: 68           	pla
    2849: 2a           	rol
    284a: a0 22        	ldy	#$22
    284c: 91 02        	sta	($2),y                  ; 0x2 <__rc0>
    284e: 9c 10 d6     	stz	$d610                   ; 0xd610 <__heap_start+0x602a>
    2851: 64 53        	stz	$53                     ; 0x53 <g_curX>
    2853: 64 54        	stz	$54                     ; 0x54 <g_curY>
    2855: 9c 20 d0     	stz	$d020                   ; 0xd020 <__heap_start+0x5a3a>
    2858: a5 17        	lda	$17                     ; 0x17 <__rc21>
    285a: 49 01        	eor	#$1
    285c: a0 24        	ldy	#$24
    285e: 91 02        	sta	($2),y                  ; 0x2 <__rc0>
    2860: 7a           	ply
    2861: a5 09        	lda	$9                      ; 0x9 <__rc7>
    2863: f0 03        	beq	$2868 <main+0x756>
    2865: 4c 14 2a     	jmp	$2a14 <main+0x902>
    2868: 8a           	txa
    2869: e0 19        	cpx	#$19
    286b: 90 03        	bcc	$2870 <main+0x75e>
    286d: 4c 1e 2a     	jmp	$2a1e <main+0x90c>
    2870: 0a           	asl
    2871: aa           	tax
    2872: 7c e8 67     	jmp	($67e8,x)               ; 0x67e8 <__zp_data_load_start+0x47d1>
    2875: a2 00        	ldx	#$0
    2877: a9 14        	lda	#$14
    2879: 20 5b 53     	jsr	$535b <shortcuts>
    287c: 64 16        	stz	$16                     ; 0x16 <__rc20>
    287e: 4c c0 28     	jmp	$28c0 <main+0x7ae>
    2881: e6 16        	inc	$16                     ; 0x16 <__rc20>
    2883: 4c c0 28     	jmp	$28c0 <main+0x7ae>
    2886: 20 f0 5e     	jsr	$5ef0 <sidbong>
    2889: a2 92        	ldx	#$92
    288b: 86 04        	stx	$4                      ; 0x4 <__rc2>
    288d: a2 6c        	ldx	#$6c
    288f: 86 05        	stx	$5                      ; 0x5 <__rc3>
    2891: a2 78        	ldx	#$78
    2893: 86 06        	stx	$6                      ; 0x6 <__zp_data_size>
    2895: a2 6e        	ldx	#$6e
    2897: 86 07        	stx	$7                      ; 0x7 <__rc5>
    2899: a2 71        	ldx	#$71
    289b: 86 08        	stx	$8                      ; 0x8 <__rc6>
    289d: a2 6a        	ldx	#$6a
    289f: 86 09        	stx	$9                      ; 0x9 <__rc7>
    28a1: a9 00        	lda	#$0
    28a3: 20 69 51     	jsr	$5169 <messagebox>
    28a6: 80 18        	bra	$28c0 <main+0x7ae>
    28a8: 64 16        	stz	$16                     ; 0x16 <__rc20>
    28aa: a5 1a        	lda	$1a                     ; 0x1a <__rc24>
    28ac: f0 12        	beq	$28c0 <main+0x7ae>
    28ae: a6 1a        	ldx	$1a                     ; 0x1a <__rc24>
    28b0: ca           	dex
    28b1: 86 16        	stx	$16                     ; 0x16 <__rc20>
    28b3: 80 0b        	bra	$28c0 <main+0x7ae>
    28b5: a6 16        	ldx	$16                     ; 0x16 <__rc20>
    28b7: a9 01        	lda	#$1
    28b9: 20 2a 63     	jsr	$632a <__ashlqi3>
    28bc: 45 50        	eor	$50                     ; 0x50 <option.0>
    28be: 85 50        	sta	$50                     ; 0x50 <option.0>
    28c0: a2 46        	ldx	#$46
    28c2: 86 04        	stx	$4                      ; 0x4 <__rc2>
    28c4: a2 14        	ldx	#$14
    28c6: 86 05        	stx	$5                      ; 0x5 <__rc3>
    28c8: a2 01        	ldx	#$1
    28ca: 86 06        	stx	$6                      ; 0x6 <__zp_data_size>
    28cc: a2 04        	ldx	#$4
    28ce: a9 0a        	lda	#$a
    28d0: 20 de 4f     	jsr	$4fde <mcbox>
    28d3: a9 20        	lda	#$20
    28d5: 05 27        	ora	$27                     ; 0x27 <g_curTextColor>
    28d7: 85 27        	sta	$27                     ; 0x27 <g_curTextColor>
    28d9: a2 25        	ldx	#$25
    28db: 86 04        	stx	$4                      ; 0x4 <__rc2>
    28dd: a2 69        	ldx	#$69
    28df: 86 05        	stx	$5                      ; 0x5 <__rc3>
    28e1: a2 04        	ldx	#$4
    28e3: a9 0e        	lda	#$e
    28e5: 20 c8 4f     	jsr	$4fc8 <mcputsxy>
    28e8: a2 b8        	ldx	#$b8
    28ea: 86 04        	stx	$4                      ; 0x4 <__rc2>
    28ec: a2 6b        	ldx	#$6b
    28ee: 86 05        	stx	$5                      ; 0x5 <__rc3>
    28f0: a2 04        	ldx	#$4
    28f2: a9 1f        	lda	#$1f
    28f4: 20 c8 4f     	jsr	$4fc8 <mcputsxy>
    28f7: a2 55        	ldx	#$55
    28f9: 86 04        	stx	$4                      ; 0x4 <__rc2>
    28fb: a2 6c        	ldx	#$6c
    28fd: 86 05        	stx	$5                      ; 0x5 <__rc3>
    28ff: a2 04        	ldx	#$4
    2901: a9 28        	lda	#$28
    2903: 20 c8 4f     	jsr	$4fc8 <mcputsxy>
    2906: a9 df        	lda	#$df
    2908: 25 27        	and	$27                     ; 0x27 <g_curTextColor>
    290a: 85 27        	sta	$27                     ; 0x27 <g_curTextColor>
    290c: a2 c0        	ldx	#$c0
    290e: 86 04        	stx	$4                      ; 0x4 <__rc2>
    2910: a2 6b        	ldx	#$6b
    2912: 86 05        	stx	$5                      ; 0x5 <__rc3>
    2914: a2 10        	ldx	#$10
    2916: a9 17        	lda	#$17
    2918: 20 c8 4f     	jsr	$4fc8 <mcputsxy>
    291b: a9 20        	lda	#$20
    291d: 05 27        	ora	$27                     ; 0x27 <g_curTextColor>
    291f: 85 27        	sta	$27                     ; 0x27 <g_curTextColor>
    2921: a2 21        	ldx	#$21
    2923: 86 04        	stx	$4                      ; 0x4 <__rc2>
    2925: a2 6b        	ldx	#$6b
    2927: 86 05        	stx	$5                      ; 0x5 <__rc3>
    2929: a2 12        	ldx	#$12
    292b: a9 24        	lda	#$24
    292d: 20 c8 4f     	jsr	$4fc8 <mcputsxy>
    2930: a9 df        	lda	#$df
    2932: 25 27        	and	$27                     ; 0x27 <g_curTextColor>
    2934: 85 27        	sta	$27                     ; 0x27 <g_curTextColor>
    2936: a6 16        	ldx	$16                     ; 0x16 <__rc20>
    2938: e0 05        	cpx	#$5
    293a: 90 02        	bcc	$293e <main+0x82c>
    293c: a2 04        	ldx	#$4
    293e: a5 50        	lda	$50                     ; 0x50 <option.0>
    2940: a0 a1        	ldy	#$a1
    2942: 84 04        	sty	$4                      ; 0x4 <__rc2>
    2944: a0 6a        	ldy	#$6a
    2946: 84 05        	sty	$5                      ; 0x5 <__rc3>
    2948: 86 06        	stx	$6                      ; 0x6 <__zp_data_size>
    294a: 64 07        	stz	$7                      ; 0x7 <__rc5>
    294c: 86 16        	stx	$16                     ; 0x16 <__rc20>
    294e: a2 01        	ldx	#$1
    2950: 20 e5 56     	jsr	$56e5 <optionstring>
    2953: a5 50        	lda	$50                     ; 0x50 <option.0>
    2955: a2 1f        	ldx	#$1f
    2957: 86 04        	stx	$4                      ; 0x4 <__rc2>
    2959: a2 6f        	ldx	#$6f
    295b: 86 05        	stx	$5                      ; 0x5 <__rc3>
    295d: a6 16        	ldx	$16                     ; 0x16 <__rc20>
    295f: 86 06        	stx	$6                      ; 0x6 <__zp_data_size>
    2961: a2 01        	ldx	#$1
    2963: 86 07        	stx	$7                      ; 0x7 <__rc5>
    2965: e8           	inx
    2966: 20 e5 56     	jsr	$56e5 <optionstring>
    2969: a5 50        	lda	$50                     ; 0x50 <option.0>
    296b: a2 53        	ldx	#$53
    296d: 86 04        	stx	$4                      ; 0x4 <__rc2>
    296f: a2 6a        	ldx	#$6a
    2971: 86 05        	stx	$5                      ; 0x5 <__rc3>
    2973: 48           	pha
    2974: a5 04        	lda	$4                      ; 0x4 <__rc2>
    2976: a0 24        	ldy	#$24
    2978: 91 02        	sta	($2),y                  ; 0x2 <__rc0>
    297a: a5 05        	lda	$5                      ; 0x5 <__rc3>
    297c: c8           	iny
    297d: 91 02        	sta	($2),y                  ; 0x2 <__rc0>
    297f: 88           	dey
    2980: b1 02        	lda	($2),y                  ; 0x2 <__rc0>
    2982: 85 04        	sta	$4                      ; 0x4 <__rc2>
    2984: c8           	iny
    2985: b1 02        	lda	($2),y                  ; 0x2 <__rc0>
    2987: 85 05        	sta	$5                      ; 0x5 <__rc3>
    2989: 68           	pla
    298a: a6 16        	ldx	$16                     ; 0x16 <__rc20>
    298c: 86 06        	stx	$6                      ; 0x6 <__zp_data_size>
    298e: a2 02        	ldx	#$2
    2990: 86 07        	stx	$7                      ; 0x7 <__rc5>
    2992: a2 04        	ldx	#$4
    2994: 20 e5 56     	jsr	$56e5 <optionstring>
    2997: a5 50        	lda	$50                     ; 0x50 <option.0>
    2999: 48           	pha
    299a: a0 24        	ldy	#$24
    299c: b1 02        	lda	($2),y                  ; 0x2 <__rc0>
    299e: 85 04        	sta	$4                      ; 0x4 <__rc2>
    29a0: c8           	iny
    29a1: b1 02        	lda	($2),y                  ; 0x2 <__rc0>
    29a3: 85 05        	sta	$5                      ; 0x5 <__rc3>
    29a5: 68           	pla
    29a6: a6 16        	ldx	$16                     ; 0x16 <__rc20>
    29a8: 86 06        	stx	$6                      ; 0x6 <__zp_data_size>
    29aa: a2 03        	ldx	#$3
    29ac: 86 07        	stx	$7                      ; 0x7 <__rc5>
    29ae: a2 08        	ldx	#$8
    29b0: 20 e5 56     	jsr	$56e5 <optionstring>
    29b3: a5 50        	lda	$50                     ; 0x50 <option.0>
    29b5: 48           	pha
    29b6: a0 24        	ldy	#$24
    29b8: b1 02        	lda	($2),y                  ; 0x2 <__rc0>
    29ba: 85 04        	sta	$4                      ; 0x4 <__rc2>
    29bc: c8           	iny
    29bd: b1 02        	lda	($2),y                  ; 0x2 <__rc0>
    29bf: 85 05        	sta	$5                      ; 0x5 <__rc3>
    29c1: 68           	pla
    29c2: a6 16        	ldx	$16                     ; 0x16 <__rc20>
    29c4: 86 1a        	stx	$1a                     ; 0x1a <__rc24>
    29c6: a6 16        	ldx	$16                     ; 0x16 <__rc20>
    29c8: 86 06        	stx	$6                      ; 0x6 <__zp_data_size>
    29ca: a2 04        	ldx	#$4
    29cc: 86 07        	stx	$7                      ; 0x7 <__rc5>
    29ce: a2 10        	ldx	#$10
    29d0: 20 e5 56     	jsr	$56e5 <optionstring>
    29d3: 20 6d 61     	jsr	$616d <cgetc>
    29d6: c9 91        	cmp	#$91
    29d8: d0 03        	bne	$29dd <main+0x8cb>
    29da: 4c a8 28     	jmp	$28a8 <main+0x796>
    29dd: c9 9d        	cmp	#$9d
    29df: d0 03        	bne	$29e4 <main+0x8d2>
    29e1: 4c a8 28     	jmp	$28a8 <main+0x796>
    29e4: c9 03        	cmp	#$3
    29e6: d0 03        	bne	$29eb <main+0x8d9>
    29e8: 4c 86 28     	jmp	$2886 <main+0x774>
    29eb: c9 11        	cmp	#$11
    29ed: d0 03        	bne	$29f2 <main+0x8e0>
    29ef: 4c 81 28     	jmp	$2881 <main+0x76f>
    29f2: c9 1b        	cmp	#$1b
    29f4: d0 03        	bne	$29f9 <main+0x8e7>
    29f6: 4c 86 28     	jmp	$2886 <main+0x774>
    29f9: c9 1d        	cmp	#$1d
    29fb: d0 03        	bne	$2a00 <main+0x8ee>
    29fd: 4c 81 28     	jmp	$2881 <main+0x76f>
    2a00: c9 20        	cmp	#$20
    2a02: d0 03        	bne	$2a07 <main+0x8f5>
    2a04: 4c b5 28     	jmp	$28b5 <main+0x7a3>
    2a07: c9 0d        	cmp	#$d
    2a09: d0 03        	bne	$2a0e <main+0x8fc>
    2a0b: 4c 1c 36     	jmp	$361c <main+0x150a>
    2a0e: 20 f0 5e     	jsr	$5ef0 <sidbong>
    2a11: 4c c0 28     	jmp	$28c0 <main+0x7ae>
    2a14: a5 09        	lda	$9                      ; 0x9 <__rc7>
    2a16: c9 00        	cmp	#$0
    2a18: 8a           	txa
    2a19: b0 03        	bcs	$2a1e <main+0x90c>
    2a1b: 4c 70 28     	jmp	$2870 <main+0x75e>
    2a1e: a5 1c        	lda	$1c                     ; 0x1c <__rc26>
    2a20: 5a           	phy
    2a21: a4 08        	ldy	$8                      ; 0x8 <__rc6>
    2a23: c0 01        	cpy	#$1
    2a25: 7a           	ply
    2a26: e9 01        	sbc	#$1
    2a28: f0 03        	beq	$2a2d <main+0x91b>
    2a2a: 4c 7c 2a     	jmp	$2a7c <main+0x96a>
    2a2d: e0 0a        	cpx	#$a
    2a2f: b0 03        	bcs	$2a34 <main+0x922>
    2a31: 4c 83 2a     	jmp	$2a83 <main+0x971>
    2a34: a5 1c        	lda	$1c                     ; 0x1c <__rc26>
    2a36: 5a           	phy
    2a37: a4 08        	ldy	$8                      ; 0x8 <__rc6>
    2a39: c0 01        	cpy	#$1
    2a3b: 7a           	ply
    2a3c: e9 02        	sbc	#$2
    2a3e: f0 03        	beq	$2a43 <main+0x931>
    2a40: 4c 01 2e     	jmp	$2e01 <main+0xcef>
    2a43: 8a           	txa
    2a44: e0 0a        	cpx	#$a
    2a46: b0 03        	bcs	$2a4b <main+0x939>
    2a48: 4c 09 2e     	jmp	$2e09 <main+0xcf7>
    2a4b: 38           	sec
    2a4c: a5 1e        	lda	$1e                     ; 0x1e <__rc28>
    2a4e: e9 1b        	sbc	#$1b
    2a50: aa           	tax
    2a51: a5 1c        	lda	$1c                     ; 0x1c <__rc26>
    2a53: e9 00        	sbc	#$0
    2a55: f0 03        	beq	$2a5a <main+0x948>
    2a57: 4c 03 2f     	jmp	$2f03 <main+0xdf1>
    2a5a: 8a           	txa
    2a5b: e0 06        	cpx	#$6
    2a5d: b0 03        	bcs	$2a62 <main+0x950>
    2a5f: 4c 0b 2f     	jmp	$2f0b <main+0xdf9>
    2a62: a5 1c        	lda	$1c                     ; 0x1c <__rc26>
    2a64: d0 03        	bne	$2a69 <main+0x957>
    2a66: 4c 86 39     	jmp	$3986 <main+0x1874>
    2a69: a5 1c        	lda	$1c                     ; 0x1c <__rc26>
    2a6b: d0 03        	bne	$2a70 <main+0x95e>
    2a6d: 4c 92 39     	jmp	$3992 <main+0x1880>
    2a70: a6 1e        	ldx	$1e                     ; 0x1e <__rc28>
    2a72: a5 1c        	lda	$1c                     ; 0x1c <__rc26>
    2a74: f0 03        	beq	$2a79 <main+0x967>
    2a76: 4c 0e 3b     	jmp	$3b0e <donehyp1att0+0x19>
    2a79: 4c 78 3a     	jmp	$3a78 <main+0x1966>
    2a7c: c9 00        	cmp	#$0
    2a7e: 90 03        	bcc	$2a83 <main+0x971>
    2a80: 4c 34 2a     	jmp	$2a34 <main+0x922>
    2a83: 8a           	txa
    2a84: 0a           	asl
    2a85: aa           	tax
    2a86: 7c 1a 68     	jmp	($681a,x)               ; 0x681a <__zp_data_load_start+0x4803>
    2a89: c0 70        	cpy	#$70
    2a8b: d0 03        	bne	$2a90 <main+0x97e>
    2a8d: 4c d1 3b     	jmp	$3bd1 <donehyp1att0+0xdc>
    2a90: a9 01        	lda	#$1
    2a92: 31 18        	and	($18),y                 ; 0x18 <__rc22>
    2a94: d0 03        	bne	$2a99 <main+0x987>
    2a96: 4c 52 2c     	jmp	$2c52 <main+0xb40>
    2a99: 98           	tya
    2a9a: 5a           	phy
    2a9b: a0 24        	ldy	#$24
    2a9d: 91 02        	sta	($2),y                  ; 0x2 <__rc0>
    2a9f: 7a           	ply
    2aa0: 5a           	phy
    2aa1: fa           	plx
    2aa2: a0 1f        	ldy	#$1f
    2aa4: b1 02        	lda	($2),y                  ; 0x2 <__rc0>
    2aa6: 85 1d        	sta	$1d                     ; 0x1d <__rc27>
    2aa8: 20 4e 4d     	jsr	$4d4e <getdirententry>
    2aab: a6 04        	ldx	$4                      ; 0x4 <__rc2>
    2aad: 86 1a        	stx	$1a                     ; 0x1a <__rc24>
    2aaf: a6 05        	ldx	$5                      ; 0x5 <__rc3>
    2ab1: 86 1b        	stx	$1b                     ; 0x1b <__rc25>
    2ab3: a2 a4        	ldx	#$a4
    2ab5: 86 04        	stx	$4                      ; 0x4 <__rc2>
    2ab7: a2 70        	ldx	#$70
    2ab9: 86 05        	stx	$5                      ; 0x5 <__rc3>
    2abb: a2 03        	ldx	#$3
    2abd: 86 06        	stx	$6                      ; 0x6 <__zp_data_size>
    2abf: a2 6b        	ldx	#$6b
    2ac1: 86 07        	stx	$7                      ; 0x7 <__rc5>
    2ac3: a9 14        	lda	#$14
    2ac5: 20 5a 52     	jsr	$525a <progress>
    2ac8: a9 00        	lda	#$0
    2aca: a0 02        	ldy	#$2
    2acc: 64 1e        	stz	$1e                     ; 0x1e <__rc28>
    2ace: 91 1a        	sta	($1a),y                 ; 0x1a <__rc24>
    2ad0: a5 1d        	lda	$1d                     ; 0x1d <__rc27>
    2ad2: 20 8a 47     	jsr	$478a <GetBAM>
    2ad5: a2 0d        	ldx	#$d
    2ad7: 86 04        	stx	$4                      ; 0x4 <__rc2>
    2ad9: a2 6f        	ldx	#$6f
    2adb: 86 05        	stx	$5                      ; 0x5 <__rc3>
    2add: a2 a4        	ldx	#$a4
    2adf: 86 06        	stx	$6                      ; 0x6 <__zp_data_size>
    2ae1: a2 6d        	ldx	#$6d
    2ae3: 86 07        	stx	$7                      ; 0x7 <__rc5>
    2ae5: a9 28        	lda	#$28
    2ae7: 20 5a 52     	jsr	$525a <progress>
    2aea: b2 16        	lda	($16),z                 ; 0x16 <__rc20>
    2aec: a0 18        	ldy	#$18
    2aee: 91 02        	sta	($2),y                  ; 0x2 <__rc0>
    2af0: a0 47        	ldy	#$47
    2af2: b1 16        	lda	($16),y                 ; 0x16 <__rc20>
    2af4: 85 06        	sta	$6                      ; 0x6 <__zp_data_size>
    2af6: a0 01        	ldy	#$1
    2af8: b1 16        	lda	($16),y                 ; 0x16 <__rc20>
    2afa: 85 17        	sta	$17                     ; 0x17 <__rc21>
    2afc: 9c 80 d0     	stz	$d080                   ; 0xd080 <__heap_start+0x5a9a>
    2aff: a2 03        	ldx	#$3
    2b01: 8a           	txa
    2b02: a0 20        	ldy	#$20
    2b04: 91 02        	sta	($2),y                  ; 0x2 <__rc0>
    2b06: a0 08        	ldy	#$8
    2b08: a9 00        	lda	#$0
    2b0a: 64 05        	stz	$5                      ; 0x5 <__rc3>
    2b0c: 48           	pha
    2b0d: 5a           	phy
    2b0e: a5 06        	lda	$6                      ; 0x6 <__zp_data_size>
    2b10: a0 13        	ldy	#$13
    2b12: 91 02        	sta	($2),y                  ; 0x2 <__rc0>
    2b14: a0 1b        	ldy	#$1b
    2b16: 91 02        	sta	($2),y                  ; 0x2 <__rc0>
    2b18: 7a           	ply
    2b19: 68           	pla
    2b1a: 64 1d        	stz	$1d                     ; 0x1d <__rc27>
    2b1c: 64 1b        	stz	$1b                     ; 0x1b <__rc25>
    2b1e: a2 00        	ldx	#$0
    2b20: 4c 05 2c     	jmp	$2c05 <main+0xaf3>
    2b23: 5a           	phy
    2b24: a4 05        	ldy	$5                      ; 0x5 <__rc3>
    2b26: 84 1f        	sty	$1f                     ; 0x1f <__rc29>
    2b28: 7a           	ply
    2b29: e4 05        	cpx	$5                      ; 0x5 <__rc3>
    2b2b: 90 03        	bcc	$2b30 <main+0xa1e>
    2b2d: 4c 19 2c     	jmp	$2c19 <main+0xb07>
    2b30: 48           	pha
    2b31: 5a           	phy
    2b32: a5 18        	lda	$18                     ; 0x18 <__rc22>
    2b34: a0 22        	ldy	#$22
    2b36: 91 02        	sta	($2),y                  ; 0x2 <__rc0>
    2b38: a5 19        	lda	$19                     ; 0x19 <__rc23>
    2b3a: c8           	iny
    2b3b: 91 02        	sta	($2),y                  ; 0x2 <__rc0>
    2b3d: 7a           	ply
    2b3e: 68           	pla
    2b3f: 84 20        	sty	$20                     ; 0x20 <__rc30>
    2b41: 85 04        	sta	$4                      ; 0x4 <__rc2>
    2b43: 46 04        	lsr	$4                      ; 0x4 <__rc2>
    2b45: 85 21        	sta	$21                     ; 0x21 <__rc31>
    2b47: a9 00        	lda	#$0
    2b49: 6a           	ror
    2b4a: 46 04        	lsr	$4                      ; 0x4 <__rc2>
    2b4c: 6a           	ror
    2b4d: 48           	pha
    2b4e: a5 04        	lda	$4                      ; 0x4 <__rc2>
    2b50: a0 12        	ldy	#$12
    2b52: 91 02        	sta	($2),y                  ; 0x2 <__rc0>
    2b54: 68           	pla
    2b55: 46 04        	lsr	$4                      ; 0x4 <__rc2>
    2b57: a6 04        	ldx	$4                      ; 0x4 <__rc2>
    2b59: 86 05        	stx	$5                      ; 0x5 <__rc3>
    2b5b: 6a           	ror
    2b5c: 85 04        	sta	$4                      ; 0x4 <__rc2>
    2b5e: a9 00        	lda	#$0
    2b60: 18           	clc
    2b61: 65 04        	adc	$4                      ; 0x4 <__rc2>
    2b63: a8           	tay
    2b64: 5a           	phy
    2b65: a0 17        	ldy	#$17
    2b67: b1 02        	lda	($2),y                  ; 0x2 <__rc0>
    2b69: 85 04        	sta	$4                      ; 0x4 <__rc2>
    2b6b: a5 05        	lda	$5                      ; 0x5 <__rc3>
    2b6d: 65 04        	adc	$4                      ; 0x4 <__rc2>
    2b6f: 85 0c        	sta	$c                      ; 0xc <__rc10>
    2b71: a0 15        	ldy	#$15
    2b73: b1 02        	lda	($2),y                  ; 0x2 <__rc0>
    2b75: 69 00        	adc	#$0
    2b77: aa           	tax
    2b78: 88           	dey
    2b79: b1 02        	lda	($2),y                  ; 0x2 <__rc0>
    2b7b: 7a           	ply
    2b7c: 69 00        	adc	#$0
    2b7e: 86 19        	stx	$19                     ; 0x19 <__rc23>
    2b80: 86 04        	stx	$4                      ; 0x4 <__rc2>
    2b82: 85 16        	sta	$16                     ; 0x16 <__rc20>
    2b84: 85 05        	sta	$5                      ; 0x5 <__rc3>
    2b86: 64 06        	stz	$6                      ; 0x6 <__zp_data_size>
    2b88: a2 1a        	ldx	#$1a
    2b8a: 86 07        	stx	$7                      ; 0x7 <__rc5>
    2b8c: 64 08        	stz	$8                      ; 0x8 <__rc6>
    2b8e: 64 09        	stz	$9                      ; 0x9 <__rc7>
    2b90: a2 20        	ldx	#$20
    2b92: 86 0a        	stx	$a                      ; 0xa <__rc8>
    2b94: 64 0b        	stz	$b                      ; 0xb <__rc9>
    2b96: a6 0c        	ldx	$c                      ; 0xc <__rc10>
    2b98: 86 1c        	stx	$1c                     ; 0x1c <__rc26>
    2b9a: 98           	tya
    2b9b: 84 18        	sty	$18                     ; 0x18 <__rc22>
    2b9d: 20 9d 61     	jsr	$619d <lcopy>
    2ba0: a5 21        	lda	$21                     ; 0x21 <__rc31>
    2ba2: f0 13        	beq	$2bb7 <main+0xaa5>
    2ba4: a5 21        	lda	$21                     ; 0x21 <__rc31>
    2ba6: 29 07        	and	#$7
    2ba8: d0 0d        	bne	$2bb7 <main+0xaa5>
    2baa: a5 1d        	lda	$1d                     ; 0x1d <__rc27>
    2bac: a0 1b        	ldy	#$1b
    2bae: 91 02        	sta	($2),y                  ; 0x2 <__rc0>
    2bb0: a6 1b        	ldx	$1b                     ; 0x1b <__rc25>
    2bb2: 8a           	txa
    2bb3: a0 20        	ldy	#$20
    2bb5: 91 02        	sta	($2),y                  ; 0x2 <__rc0>
    2bb7: ae 00 1a     	ldx	$1a00                   ; 0x1a00 <__heap_default_limit+0xa00>
    2bba: f0 14        	beq	$2bd0 <main+0xabe>
    2bbc: 18           	clc
    2bbd: a5 20        	lda	$20                     ; 0x20 <__rc30>
    2bbf: 69 08        	adc	#$8
    2bc1: 85 20        	sta	$20                     ; 0x20 <__rc30>
    2bc3: a5 1f        	lda	$1f                     ; 0x1f <__rc29>
    2bc5: 69 00        	adc	#$0
    2bc7: 85 1f        	sta	$1f                     ; 0x1f <__rc29>
    2bc9: ac 01 1a     	ldy	$1a01                   ; 0x1a01 <__heap_default_limit+0xa01>
    2bcc: 84 1b        	sty	$1b                     ; 0x1b <__rc25>
    2bce: 86 1d        	stx	$1d                     ; 0x1d <__rc27>
    2bd0: ae 02 1a     	ldx	$1a02                   ; 0x1a02 <__heap_default_limit+0xa02>
    2bd3: 86 1a        	stx	$1a                     ; 0x1a <__rc24>
    2bd5: d0 06        	bne	$2bdd <main+0xacb>
    2bd7: a9 01        	lda	#$1
    2bd9: 25 50        	and	$50                     ; 0x50 <option.0>
    2bdb: f0 0c        	beq	$2be9 <main+0xad7>
    2bdd: a6 1e        	ldx	$1e                     ; 0x1e <__rc28>
    2bdf: e4 17        	cpx	$17                     ; 0x17 <__rc21>
    2be1: d0 03        	bne	$2be6 <main+0xad4>
    2be3: 4c 98 2c     	jmp	$2c98 <main+0xb86>
    2be6: e8           	inx
    2be7: 86 1e        	stx	$1e                     ; 0x1e <__rc28>
    2be9: a2 00        	ldx	#$0
    2beb: a5 21        	lda	$21                     ; 0x21 <__rc31>
    2bed: 1a           	inc
    2bee: a4 20        	ldy	$20                     ; 0x20 <__rc30>
    2bf0: 48           	pha
    2bf1: a5 1f        	lda	$1f                     ; 0x1f <__rc29>
    2bf3: 85 05        	sta	$5                      ; 0x5 <__rc3>
    2bf5: 68           	pla
    2bf6: 48           	pha
    2bf7: 5a           	phy
    2bf8: a0 22        	ldy	#$22
    2bfa: b1 02        	lda	($2),y                  ; 0x2 <__rc0>
    2bfc: 85 18        	sta	$18                     ; 0x18 <__rc22>
    2bfe: c8           	iny
    2bff: b1 02        	lda	($2),y                  ; 0x2 <__rc0>
    2c01: 7a           	ply
    2c02: 85 19        	sta	$19                     ; 0x19 <__rc23>
    2c04: 68           	pla
    2c05: e4 05        	cpx	$5                      ; 0x5 <__rc3>
    2c07: f0 03        	beq	$2c0c <main+0xafa>
    2c09: 4c 23 2b     	jmp	$2b23 <main+0xa11>
    2c0c: a6 05        	ldx	$5                      ; 0x5 <__rc3>
    2c0e: 86 1f        	stx	$1f                     ; 0x1f <__rc29>
    2c10: 84 04        	sty	$4                      ; 0x4 <__rc2>
    2c12: c5 04        	cmp	$4                      ; 0x4 <__rc2>
    2c14: b0 03        	bcs	$2c19 <main+0xb07>
    2c16: 4c 30 2b     	jmp	$2b30 <main+0xa1e>
    2c19: a2 0d        	ldx	#$d
    2c1b: 86 04        	stx	$4                      ; 0x4 <__rc2>
    2c1d: a2 6f        	ldx	#$6f
    2c1f: 86 05        	stx	$5                      ; 0x5 <__rc3>
    2c21: a2 96        	ldx	#$96
    2c23: 86 06        	stx	$6                      ; 0x6 <__zp_data_size>
    2c25: a2 69        	ldx	#$69
    2c27: 86 07        	stx	$7                      ; 0x7 <__rc5>
    2c29: a9 50        	lda	#$50
    2c2b: 20 5a 52     	jsr	$525a <progress>
    2c2e: a0 1d        	ldy	#$1d
    2c30: b1 02        	lda	($2),y                  ; 0x2 <__rc0>
    2c32: 85 16        	sta	$16                     ; 0x16 <__rc20>
    2c34: c8           	iny
    2c35: b1 02        	lda	($2),y                  ; 0x2 <__rc0>
    2c37: 85 17        	sta	$17                     ; 0x17 <__rc21>
    2c39: b2 16        	lda	($16),z                 ; 0x16 <__rc20>
    2c3b: 85 05        	sta	$5                      ; 0x5 <__rc3>
    2c3d: a0 47        	ldy	#$47
    2c3f: b1 16        	lda	($16),y                 ; 0x16 <__rc20>
    2c41: 85 04        	sta	$4                      ; 0x4 <__rc2>
    2c43: a0 1f        	ldy	#$1f
    2c45: b1 02        	lda	($2),y                  ; 0x2 <__rc0>
    2c47: aa           	tax
    2c48: a5 05        	lda	$5                      ; 0x5 <__rc3>
    2c4a: 20 c3 47     	jsr	$47c3 <PutBAM>
    2c4d: a0 24        	ldy	#$24
    2c4f: b1 02        	lda	($2),y                  ; 0x2 <__rc0>
    2c51: a8           	tay
    2c52: c8           	iny
    2c53: 4c 89 2a     	jmp	$2a89 <main+0x977>
    2c56: 5a           	phy
    2c57: a0 00        	ldy	#$0
    2c59: 84 04        	sty	$4                      ; 0x4 <__rc2>
    2c5b: a0 18        	ldy	#$18
    2c5d: 84 05        	sty	$5                      ; 0x5 <__rc3>
    2c5f: 7a           	ply
    2c60: 84 06        	sty	$6                      ; 0x6 <__zp_data_size>
    2c62: 86 16        	stx	$16                     ; 0x16 <__rc20>
    2c64: 84 17        	sty	$17                     ; 0x17 <__rc21>
    2c66: 20 87 46     	jsr	$4687 <GetOneSector>
    2c69: a2 00        	ldx	#$0
    2c6b: 86 04        	stx	$4                      ; 0x4 <__rc2>
    2c6d: a2 16        	ldx	#$16
    2c6f: 86 05        	stx	$5                      ; 0x5 <__rc3>
    2c71: a2 00        	ldx	#$0
    2c73: 86 06        	stx	$6                      ; 0x6 <__zp_data_size>
    2c75: a2 17        	ldx	#$17
    2c77: 86 07        	stx	$7                      ; 0x7 <__rc5>
    2c79: 64 08        	stz	$8                      ; 0x8 <__rc6>
    2c7b: a6 17        	ldx	$17                     ; 0x17 <__rc21>
    2c7d: a5 16        	lda	$16                     ; 0x16 <__rc20>
    2c7f: 20 bc 48     	jsr	$48bc <BAMSectorUpdate>
    2c82: ae 00 18     	ldx	$1800                   ; 0x1800 <__heap_default_limit+0x800>
    2c85: ac 01 18     	ldy	$1801                   ; 0x1801 <__heap_default_limit+0x801>
    2c88: 5a           	phy
    2c89: a0 18        	ldy	#$18
    2c8b: b1 02        	lda	($2),y                  ; 0x2 <__rc0>
    2c8d: 7a           	ply
    2c8e: e0 00        	cpx	#$0
    2c90: f0 03        	beq	$2c95 <main+0xb83>
    2c92: 4c 56 2c     	jmp	$2c56 <main+0xb44>
    2c95: 4c 19 45     	jmp	$4519 <donehyp0att3+0x131>
    2c98: 9c 02 1a     	stz	$1a02                   ; 0x1a02 <__heap_default_limit+0xa02>
    2c9b: a6 18        	ldx	$18                     ; 0x18 <__rc22>
    2c9d: 86 06        	stx	$6                      ; 0x6 <__zp_data_size>
    2c9f: a6 1c        	ldx	$1c                     ; 0x1c <__rc26>
    2ca1: 86 07        	stx	$7                      ; 0x7 <__rc5>
    2ca3: 64 04        	stz	$4                      ; 0x4 <__rc2>
    2ca5: 64 05        	stz	$5                      ; 0x5 <__rc3>
    2ca7: a6 19        	ldx	$19                     ; 0x19 <__rc23>
    2ca9: 86 08        	stx	$8                      ; 0x8 <__rc6>
    2cab: a6 16        	ldx	$16                     ; 0x16 <__rc20>
    2cad: 86 09        	stx	$9                      ; 0x9 <__rc7>
    2caf: a2 20        	ldx	#$20
    2cb1: 86 0a        	stx	$a                      ; 0xa <__rc8>
    2cb3: 64 0b        	stz	$b                      ; 0xb <__rc9>
    2cb5: a2 1a        	ldx	#$1a
    2cb7: a9 00        	lda	#$0
    2cb9: 20 9d 61     	jsr	$619d <lcopy>
    2cbc: a0 12        	ldy	#$12
    2cbe: b1 02        	lda	($2),y                  ; 0x2 <__rc0>
    2cc0: 4a           	lsr
    2cc1: 18           	clc
    2cc2: 48           	pha
    2cc3: 88           	dey
    2cc4: b1 02        	lda	($2),y                  ; 0x2 <__rc0>
    2cc6: 85 04        	sta	$4                      ; 0x4 <__rc2>
    2cc8: 68           	pla
    2cc9: 65 04        	adc	$4                      ; 0x4 <__rc2>
    2ccb: 85 0c        	sta	$c                      ; 0xc <__rc10>
    2ccd: a0 0f        	ldy	#$f
    2ccf: b1 02        	lda	($2),y                  ; 0x2 <__rc0>
    2cd1: 85 04        	sta	$4                      ; 0x4 <__rc2>
    2cd3: a9 00        	lda	#$0
    2cd5: 65 04        	adc	$4                      ; 0x4 <__rc2>
    2cd7: aa           	tax
    2cd8: a9 00        	lda	#$0
    2cda: 48           	pha
    2cdb: 88           	dey
    2cdc: b1 02        	lda	($2),y                  ; 0x2 <__rc0>
    2cde: 85 04        	sta	$4                      ; 0x4 <__rc2>
    2ce0: 68           	pla
    2ce1: 65 04        	adc	$4                      ; 0x4 <__rc2>
    2ce3: 86 04        	stx	$4                      ; 0x4 <__rc2>
    2ce5: 85 05        	sta	$5                      ; 0x5 <__rc3>
    2ce7: 64 06        	stz	$6                      ; 0x6 <__zp_data_size>
    2ce9: a2 18        	ldx	#$18
    2ceb: 86 07        	stx	$7                      ; 0x7 <__rc5>
    2ced: 64 08        	stz	$8                      ; 0x8 <__rc6>
    2cef: 64 09        	stz	$9                      ; 0x9 <__rc7>
    2cf1: 64 0a        	stz	$a                      ; 0xa <__rc8>
    2cf3: a2 01        	ldx	#$1
    2cf5: 86 0b        	stx	$b                      ; 0xb <__rc9>
    2cf7: a6 0c        	ldx	$c                      ; 0xc <__rc10>
    2cf9: a9 00        	lda	#$0
    2cfb: 20 9d 61     	jsr	$619d <lcopy>
    2cfe: a0 19        	ldy	#$19
    2d00: b1 02        	lda	($2),y                  ; 0x2 <__rc0>
    2d02: 85 04        	sta	$4                      ; 0x4 <__rc2>
    2d04: c8           	iny
    2d05: b1 02        	lda	($2),y                  ; 0x2 <__rc0>
    2d07: 85 05        	sta	$5                      ; 0x5 <__rc3>
    2d09: a0 20        	ldy	#$20
    2d0b: b1 02        	lda	($2),y                  ; 0x2 <__rc0>
    2d0d: 85 06        	sta	$6                      ; 0x6 <__zp_data_size>
    2d0f: a0 1b        	ldy	#$1b
    2d11: b1 02        	lda	($2),y                  ; 0x2 <__rc0>
    2d13: aa           	tax
    2d14: a0 18        	ldy	#$18
    2d16: b1 02        	lda	($2),y                  ; 0x2 <__rc0>
    2d18: 85 16        	sta	$16                     ; 0x16 <__rc20>
    2d1a: 20 ca 46     	jsr	$46ca <PutOneSector>
    2d1d: a5 1a        	lda	$1a                     ; 0x1a <__rc24>
    2d1f: 29 0f        	and	#$f
    2d21: c9 05        	cmp	#$5
    2d23: d0 15        	bne	$2d3a <main+0xc28>
    2d25: a0 00        	ldy	#$0
    2d27: 98           	tya
    2d28: 48           	pha
    2d29: 5a           	phy
    2d2a: a0 22        	ldy	#$22
    2d2c: b1 02        	lda	($2),y                  ; 0x2 <__rc0>
    2d2e: 85 18        	sta	$18                     ; 0x18 <__rc22>
    2d30: c8           	iny
    2d31: b1 02        	lda	($2),y                  ; 0x2 <__rc0>
    2d33: 7a           	ply
    2d34: 85 19        	sta	$19                     ; 0x19 <__rc23>
    2d36: 68           	pla
    2d37: 4c c9 2d     	jmp	$2dc9 <main+0xcb7>
    2d3a: ae 03 1a     	ldx	$1a03                   ; 0x1a03 <__heap_default_limit+0xa03>
    2d3d: 86 17        	stx	$17                     ; 0x17 <__rc21>
    2d3f: ae 04 1a     	ldx	$1a04                   ; 0x1a04 <__heap_default_limit+0xa04>
    2d42: 86 1a        	stx	$1a                     ; 0x1a <__rc24>
    2d44: 9c 80 d0     	stz	$d080                   ; 0xd080 <__heap_start+0x5a9a>
    2d47: a2 00        	ldx	#$0
    2d49: 86 04        	stx	$4                      ; 0x4 <__rc2>
    2d4b: a2 16        	ldx	#$16
    2d4d: 86 05        	stx	$5                      ; 0x5 <__rc3>
    2d4f: a2 01        	ldx	#$1
    2d51: 86 06        	stx	$6                      ; 0x6 <__zp_data_size>
    2d53: a0 13        	ldy	#$13
    2d55: b1 02        	lda	($2),y                  ; 0x2 <__rc0>
    2d57: aa           	tax
    2d58: a5 16        	lda	$16                     ; 0x16 <__rc20>
    2d5a: 20 87 46     	jsr	$4687 <GetOneSector>
    2d5d: c9 02        	cmp	#$2
    2d5f: a0 22        	ldy	#$22
    2d61: b1 02        	lda	($2),y                  ; 0x2 <__rc0>
    2d63: 85 18        	sta	$18                     ; 0x18 <__rc22>
    2d65: c8           	iny
    2d66: b1 02        	lda	($2),y                  ; 0x2 <__rc0>
    2d68: 85 19        	sta	$19                     ; 0x19 <__rc23>
    2d6a: 90 03        	bcc	$2d6f <main+0xc5d>
    2d6c: 4c 19 2c     	jmp	$2c19 <main+0xb07>
    2d6f: 4c 3d 44     	jmp	$443d <donehyp0att3+0x55>
    2d72: cd 1f 1a     	cmp	$1a1f                   ; 0x1a1f <__heap_default_limit+0xa1f>
    2d75: 64 05        	stz	$5                      ; 0x5 <__rc3>
    2d77: 90 03        	bcc	$2d7c <main+0xc6a>
    2d79: 4c 19 2c     	jmp	$2c19 <main+0xb07>
    2d7c: a2 28        	ldx	#$28
    2d7e: 86 04        	stx	$4                      ; 0x4 <__rc2>
    2d80: aa           	tax
    2d81: 84 16        	sty	$16                     ; 0x16 <__rc20>
    2d83: 85 17        	sta	$17                     ; 0x17 <__rc21>
    2d85: 98           	tya
    2d86: 20 7a 63     	jsr	$637a <__udivhi3>
    2d89: aa           	tax
    2d8a: 0a           	asl
    2d8b: 0a           	asl
    2d8c: 0a           	asl
    2d8d: 85 04        	sta	$4                      ; 0x4 <__rc2>
    2d8f: 0a           	asl
    2d90: 0a           	asl
    2d91: 18           	clc
    2d92: 65 04        	adc	$4                      ; 0x4 <__rc2>
    2d94: 85 04        	sta	$4                      ; 0x4 <__rc2>
    2d96: 38           	sec
    2d97: a5 16        	lda	$16                     ; 0x16 <__rc20>
    2d99: e5 04        	sbc	$4                      ; 0x4 <__rc2>
    2d9b: 85 04        	sta	$4                      ; 0x4 <__rc2>
    2d9d: 18           	clc
    2d9e: 8a           	txa
    2d9f: 6d 03 1a     	adc	$1a03                   ; 0x1a03 <__heap_default_limit+0xa03>
    2da2: a8           	tay
    2da3: 18           	clc
    2da4: a5 04        	lda	$4                      ; 0x4 <__rc2>
    2da6: 6d 04 1a     	adc	$1a04                   ; 0x1a04 <__heap_default_limit+0xa04>
    2da9: a2 00        	ldx	#$0
    2dab: 86 04        	stx	$4                      ; 0x4 <__rc2>
    2dad: a2 16        	ldx	#$16
    2daf: 86 05        	stx	$5                      ; 0x5 <__rc3>
    2db1: a2 00        	ldx	#$0
    2db3: 86 06        	stx	$6                      ; 0x6 <__zp_data_size>
    2db5: a2 17        	ldx	#$17
    2db7: 86 07        	stx	$7                      ; 0x7 <__rc5>
    2db9: 64 08        	stz	$8                      ; 0x8 <__rc6>
    2dbb: aa           	tax
    2dbc: 98           	tya
    2dbd: 20 bc 48     	jsr	$48bc <BAMSectorUpdate>
    2dc0: a4 16        	ldy	$16                     ; 0x16 <__rc20>
    2dc2: a6 17        	ldx	$17                     ; 0x17 <__rc21>
    2dc4: c8           	iny
    2dc5: d0 01        	bne	$2dc8 <main+0xcb6>
    2dc7: e8           	inx
    2dc8: 8a           	txa
    2dc9: cd 1f 1a     	cmp	$1a1f                   ; 0x1a1f <__heap_default_limit+0xa1f>
    2dcc: f0 03        	beq	$2dd1 <main+0xcbf>
    2dce: 4c 72 2d     	jmp	$2d72 <main+0xc60>
    2dd1: ae 1e 1a     	ldx	$1a1e                   ; 0x1a1e <__heap_default_limit+0xa1e>
    2dd4: 86 04        	stx	$4                      ; 0x4 <__rc2>
    2dd6: c4 04        	cpy	$4                      ; 0x4 <__rc2>
    2dd8: 4c 75 2d     	jmp	$2d75 <main+0xc63>
    2ddb: a2 5a        	ldx	#$5a
    2ddd: 86 04        	stx	$4                      ; 0x4 <__rc2>
    2ddf: a2 6f        	ldx	#$6f
    2de1: 86 05        	stx	$5                      ; 0x5 <__rc3>
    2de3: 20 e1 5f     	jsr	$5fe1 <cputs>
    2de6: 4c c2 26     	jmp	$26c2 <main+0x5b0>
    2de9: a6 20        	ldx	$20                     ; 0x20 <__rc30>
    2deb: 48           	pha
    2dec: 5a           	phy
    2ded: a0 1f        	ldy	#$1f
    2def: b1 02        	lda	($2),y                  ; 0x2 <__rc0>
    2df1: 7a           	ply
    2df2: 85 04        	sta	$4                      ; 0x4 <__rc2>
    2df4: 68           	pla
    2df5: e4 04        	cpx	$4                      ; 0x4 <__rc2>
    2df7: f0 03        	beq	$2dfc <main+0xcea>
    2df9: 4c 7b 26     	jmp	$267b <main+0x569>
    2dfc: 09 20        	ora	#$20
    2dfe: 4c 7d 26     	jmp	$267d <main+0x56b>
    2e01: c9 00        	cmp	#$0
    2e03: 8a           	txa
    2e04: 90 03        	bcc	$2e09 <main+0xcf7>
    2e06: 4c 4b 2a     	jmp	$2a4b <main+0x939>
    2e09: 0a           	asl
    2e0a: aa           	tax
    2e0b: 7c 2e 68     	jmp	($682e,x)               ; 0x682e <__zp_data_load_start+0x4817>
    2e0e: a5 17        	lda	$17                     ; 0x17 <__rc21>
    2e10: a0 1f        	ldy	#$1f
    2e12: 91 02        	sta	($2),y                  ; 0x2 <__rc0>
    2e14: 20 f0 5e     	jsr	$5ef0 <sidbong>
    2e17: 4c 08 23     	jmp	$2308 <main+0x1f6>
    2e1a: a9 7e        	lda	#$7e
    2e1c: 18           	clc
    2e1d: 65 19        	adc	$19                     ; 0x19 <__rc23>
    2e1f: 85 04        	sta	$4                      ; 0x4 <__rc2>
    2e21: a9 71        	lda	#$71
    2e23: 65 18        	adc	$18                     ; 0x18 <__rc22>
    2e25: 85 05        	sta	$5                      ; 0x5 <__rc3>
    2e27: b2 04        	lda	($4),z                  ; 0x4 <__rc2>
    2e29: 85 06        	sta	$6                      ; 0x6 <__zp_data_size>
    2e2b: b1 04        	lda	($4),y                  ; 0x4 <__rc2>
    2e2d: 85 07        	sta	$7                      ; 0x7 <__rc5>
    2e2f: a9 01        	lda	#$1
    2e31: a0 46        	ldy	#$46
    2e33: 31 06        	and	($6),y                  ; 0x6 <__zp_data_size>
    2e35: 29 01        	and	#$1
    2e37: f0 03        	beq	$2e3c <main+0xd2a>
    2e39: 4c ad 2e     	jmp	$2ead <main+0xd9b>
    2e3c: a5 17        	lda	$17                     ; 0x17 <__rc21>
    2e3e: a0 1f        	ldy	#$1f
    2e40: 91 02        	sta	($2),y                  ; 0x2 <__rc0>
    2e42: a2 db        	ldx	#$db
    2e44: 86 04        	stx	$4                      ; 0x4 <__rc2>
    2e46: a2 6f        	ldx	#$6f
    2e48: 86 05        	stx	$5                      ; 0x5 <__rc3>
    2e4a: a2 f3        	ldx	#$f3
    2e4c: 86 06        	stx	$6                      ; 0x6 <__zp_data_size>
    2e4e: a2 68        	ldx	#$68
    2e50: 86 07        	stx	$7                      ; 0x7 <__rc5>
    2e52: a2 df        	ldx	#$df
    2e54: 86 08        	stx	$8                      ; 0x8 <__rc6>
    2e56: a2 68        	ldx	#$68
    2e58: 4c f9 2e     	jmp	$2ef9 <main+0xde7>
    2e5b: a5 17        	lda	$17                     ; 0x17 <__rc21>
    2e5d: a0 1f        	ldy	#$1f
    2e5f: 91 02        	sta	($2),y                  ; 0x2 <__rc0>
    2e61: ae 11 d6     	ldx	$d611                   ; 0xd611 <__heap_start+0x602b>
    2e64: e0 01        	cpx	#$1
    2e66: d0 03        	bne	$2e6b <main+0xd59>
    2e68: 4c 69 43     	jmp	$4369 <donehypchdir2+0x1a2>
    2e6b: ae 11 d6     	ldx	$d611                   ; 0xd611 <__heap_start+0x602b>
    2e6e: e0 02        	cpx	#$2
    2e70: f0 03        	beq	$2e75 <main+0xd63>
    2e72: 4c 08 23     	jmp	$2308 <main+0x1f6>
    2e75: 4c 69 43     	jmp	$4369 <donehypchdir2+0x1a2>
    2e78: a9 7e        	lda	#$7e
    2e7a: 18           	clc
    2e7b: 65 19        	adc	$19                     ; 0x19 <__rc23>
    2e7d: 85 04        	sta	$4                      ; 0x4 <__rc2>
    2e7f: a9 71        	lda	#$71
    2e81: 65 18        	adc	$18                     ; 0x18 <__rc22>
    2e83: 85 05        	sta	$5                      ; 0x5 <__rc3>
    2e85: b2 04        	lda	($4),z                  ; 0x4 <__rc2>
    2e87: 85 06        	sta	$6                      ; 0x6 <__zp_data_size>
    2e89: b1 04        	lda	($4),y                  ; 0x4 <__rc2>
    2e8b: 85 07        	sta	$7                      ; 0x7 <__rc5>
    2e8d: a9 01        	lda	#$1
    2e8f: a0 46        	ldy	#$46
    2e91: 51 06        	eor	($6),y                  ; 0x6 <__zp_data_size>
    2e93: 91 06        	sta	($6),y                  ; 0x6 <__zp_data_size>
    2e95: a9 28        	lda	#$28
    2e97: c8           	iny
    2e98: 91 06        	sta	($6),y                  ; 0x6 <__zp_data_size>
    2e9a: b2 06        	lda	($6),z                  ; 0x6 <__zp_data_size>
    2e9c: a6 17        	ldx	$17                     ; 0x17 <__rc21>
    2e9e: 20 7f 57     	jsr	$577f <UpdateSectors>
    2ea1: a5 17        	lda	$17                     ; 0x17 <__rc21>
    2ea3: a0 1f        	ldy	#$1f
    2ea5: 91 02        	sta	($2),y                  ; 0x2 <__rc0>
    2ea7: 20 2e 5d     	jsr	$5d2e <Deselect>
    2eaa: 4c 08 23     	jmp	$2308 <main+0x1f6>
    2ead: a5 06        	lda	$6                      ; 0x6 <__zp_data_size>
    2eaf: a0 1d        	ldy	#$1d
    2eb1: 91 02        	sta	($2),y                  ; 0x2 <__rc0>
    2eb3: a5 07        	lda	$7                      ; 0x7 <__rc5>
    2eb5: c8           	iny
    2eb6: 91 02        	sta	($2),y                  ; 0x2 <__rc0>
    2eb8: a0 01        	ldy	#$1
    2eba: b1 06        	lda	($6),y                  ; 0x6 <__zp_data_size>
    2ebc: aa           	tax
    2ebd: a5 17        	lda	$17                     ; 0x17 <__rc21>
    2ebf: a0 1f        	ldy	#$1f
    2ec1: 91 02        	sta	($2),y                  ; 0x2 <__rc0>
    2ec3: 20 4e 4d     	jsr	$4d4e <getdirententry>
    2ec6: a6 04        	ldx	$4                      ; 0x4 <__rc2>
    2ec8: 86 06        	stx	$6                      ; 0x6 <__zp_data_size>
    2eca: a6 05        	ldx	$5                      ; 0x5 <__rc3>
    2ecc: 86 07        	stx	$7                      ; 0x7 <__rc5>
    2ece: a0 02        	ldy	#$2
    2ed0: b1 04        	lda	($4),y                  ; 0x4 <__rc2>
    2ed2: a8           	tay
    2ed3: 29 0f        	and	#$f
    2ed5: f0 07        	beq	$2ede <main+0xdcc>
    2ed7: c9 05        	cmp	#$5
    2ed9: f0 03        	beq	$2ede <main+0xdcc>
    2edb: 4c a2 39     	jmp	$39a2 <main+0x1890>
    2ede: a5 06        	lda	$6                      ; 0x6 <__zp_data_size>
    2ee0: 18           	clc
    2ee1: 69 05        	adc	#$5
    2ee3: 85 06        	sta	$6                      ; 0x6 <__zp_data_size>
    2ee5: a5 07        	lda	$7                      ; 0x7 <__rc5>
    2ee7: 69 00        	adc	#$0
    2ee9: 85 07        	sta	$7                      ; 0x7 <__rc5>
    2eeb: a2 4c        	ldx	#$4c
    2eed: 86 04        	stx	$4                      ; 0x4 <__rc2>
    2eef: a2 6f        	ldx	#$6f
    2ef1: 86 05        	stx	$5                      ; 0x5 <__rc3>
    2ef3: a2 7b        	ldx	#$7b
    2ef5: 86 08        	stx	$8                      ; 0x8 <__rc6>
    2ef7: a2 6b        	ldx	#$6b
    2ef9: 86 09        	stx	$9                      ; 0x9 <__rc7>
    2efb: a9 00        	lda	#$0
    2efd: 20 69 51     	jsr	$5169 <messagebox>
    2f00: 4c 08 23     	jmp	$2308 <main+0x1f6>
    2f03: c9 00        	cmp	#$0
    2f05: 8a           	txa
    2f06: 90 03        	bcc	$2f0b <main+0xdf9>
    2f08: 4c 62 2a     	jmp	$2a62 <main+0x950>
    2f0b: 0a           	asl
    2f0c: aa           	tax
    2f0d: 7c dc 67     	jmp	($67dc,x)               ; 0x67dc <__zp_data_load_start+0x47c5>
    2f10: a9 7e        	lda	#$7e
    2f12: 18           	clc
    2f13: 65 19        	adc	$19                     ; 0x19 <__rc23>
    2f15: 85 04        	sta	$4                      ; 0x4 <__rc2>
    2f17: a9 71        	lda	#$71
    2f19: 65 18        	adc	$18                     ; 0x18 <__rc22>
    2f1b: 85 05        	sta	$5                      ; 0x5 <__rc3>
    2f1d: b2 04        	lda	($4),z                  ; 0x4 <__rc2>
    2f1f: 85 18        	sta	$18                     ; 0x18 <__rc22>
    2f21: b1 04        	lda	($4),y                  ; 0x4 <__rc2>
    2f23: 85 19        	sta	$19                     ; 0x19 <__rc23>
    2f25: a9 01        	lda	#$1
    2f27: a0 46        	ldy	#$46
    2f29: 31 18        	and	($18),y                 ; 0x18 <__rc22>
    2f2b: 29 01        	and	#$1
    2f2d: d0 03        	bne	$2f32 <main+0xe20>
    2f2f: 4c 2e 3a     	jmp	$3a2e <main+0x191c>
    2f32: 4c 23 3a     	jmp	$3a23 <main+0x1911>
    2f35: c0 70        	cpy	#$70
    2f37: d0 03        	bne	$2f3c <main+0xe2a>
    2f39: 4c f9 41     	jmp	$41f9 <donehypchdir2+0x32>
    2f3c: a9 01        	lda	#$1
    2f3e: 31 04        	and	($4),y                  ; 0x4 <__rc2>
    2f40: d0 03        	bne	$2f45 <main+0xe33>
    2f42: 4c 3e 35     	jmp	$353e <main+0x142c>
    2f45: 5a           	phy
    2f46: a5 04        	lda	$4                      ; 0x4 <__rc2>
    2f48: a0 0f        	ldy	#$f
    2f4a: 91 02        	sta	($2),y                  ; 0x2 <__rc0>
    2f4c: a5 05        	lda	$5                      ; 0x5 <__rc3>
    2f4e: c8           	iny
    2f4f: 91 02        	sta	($2),y                  ; 0x2 <__rc0>
    2f51: a5 20        	lda	$20                     ; 0x20 <__rc30>
    2f53: a0 22        	ldy	#$22
    2f55: 91 02        	sta	($2),y                  ; 0x2 <__rc0>
    2f57: a5 1b        	lda	$1b                     ; 0x1b <__rc25>
    2f59: a0 0c        	ldy	#$c
    2f5b: 91 02        	sta	($2),y                  ; 0x2 <__rc0>
    2f5d: a5 1f        	lda	$1f                     ; 0x1f <__rc29>
    2f5f: c8           	iny
    2f60: 91 02        	sta	($2),y                  ; 0x2 <__rc0>
    2f62: 7a           	ply
    2f63: 98           	tya
    2f64: 5a           	phy
    2f65: a0 11        	ldy	#$11
    2f67: 91 02        	sta	($2),y                  ; 0x2 <__rc0>
    2f69: 7a           	ply
    2f6a: 5a           	phy
    2f6b: fa           	plx
    2f6c: a5 16        	lda	$16                     ; 0x16 <__rc20>
    2f6e: a0 1f        	ldy	#$1f
    2f70: 91 02        	sta	($2),y                  ; 0x2 <__rc0>
    2f72: 20 4e 4d     	jsr	$4d4e <getdirententry>
    2f75: a6 04        	ldx	$4                      ; 0x4 <__rc2>
    2f77: 86 16        	stx	$16                     ; 0x16 <__rc20>
    2f79: a6 05        	ldx	$5                      ; 0x5 <__rc3>
    2f7b: 86 17        	stx	$17                     ; 0x17 <__rc21>
    2f7d: a2 a4        	ldx	#$a4
    2f7f: 86 04        	stx	$4                      ; 0x4 <__rc2>
    2f81: a2 70        	ldx	#$70
    2f83: 86 05        	stx	$5                      ; 0x5 <__rc3>
    2f85: a5 04        	lda	$4                      ; 0x4 <__rc2>
    2f87: a0 24        	ldy	#$24
    2f89: 91 02        	sta	($2),y                  ; 0x2 <__rc0>
    2f8b: a5 05        	lda	$5                      ; 0x5 <__rc3>
    2f8d: c8           	iny
    2f8e: 91 02        	sta	($2),y                  ; 0x2 <__rc0>
    2f90: 88           	dey
    2f91: b1 02        	lda	($2),y                  ; 0x2 <__rc0>
    2f93: 85 04        	sta	$4                      ; 0x4 <__rc2>
    2f95: c8           	iny
    2f96: b1 02        	lda	($2),y                  ; 0x2 <__rc0>
    2f98: 85 05        	sta	$5                      ; 0x5 <__rc3>
    2f9a: a2 02        	ldx	#$2
    2f9c: 86 06        	stx	$6                      ; 0x6 <__zp_data_size>
    2f9e: a2 70        	ldx	#$70
    2fa0: 86 07        	stx	$7                      ; 0x7 <__rc5>
    2fa2: a9 14        	lda	#$14
    2fa4: 20 5a 52     	jsr	$525a <progress>
    2fa7: a0 1d        	ldy	#$1d
    2fa9: b1 02        	lda	($2),y                  ; 0x2 <__rc0>
    2fab: 85 04        	sta	$4                      ; 0x4 <__rc2>
    2fad: c8           	iny
    2fae: b1 02        	lda	($2),y                  ; 0x2 <__rc0>
    2fb0: 85 05        	sta	$5                      ; 0x5 <__rc3>
    2fb2: b2 04        	lda	($4),z                  ; 0x4 <__rc2>
    2fb4: 85 08        	sta	$8                      ; 0x8 <__rc6>
    2fb6: a0 03        	ldy	#$3
    2fb8: b1 16        	lda	($16),y                 ; 0x16 <__rc20>
    2fba: 85 09        	sta	$9                      ; 0x9 <__rc7>
    2fbc: a5 16        	lda	$16                     ; 0x16 <__rc20>
    2fbe: a0 20        	ldy	#$20
    2fc0: 91 02        	sta	($2),y                  ; 0x2 <__rc0>
    2fc2: a5 17        	lda	$17                     ; 0x17 <__rc21>
    2fc4: c8           	iny
    2fc5: 91 02        	sta	($2),y                  ; 0x2 <__rc0>
    2fc7: a0 04        	ldy	#$4
    2fc9: b1 16        	lda	($16),y                 ; 0x16 <__rc20>
    2fcb: 64 04        	stz	$4                      ; 0x4 <__rc2>
    2fcd: a2 08        	ldx	#$8
    2fcf: 86 05        	stx	$5                      ; 0x5 <__rc3>
    2fd1: a2 80        	ldx	#$80
    2fd3: 86 06        	stx	$6                      ; 0x6 <__zp_data_size>
    2fd5: a2 0c        	ldx	#$c
    2fd7: 86 07        	stx	$7                      ; 0x7 <__rc5>
    2fd9: 85 0a        	sta	$a                      ; 0xa <__rc8>
    2fdb: a2 20        	ldx	#$20
    2fdd: a9 00        	lda	#$0
    2fdf: 20 1f 48     	jsr	$481f <readblockchain>
    2fe2: a0 24        	ldy	#$24
    2fe4: b1 02        	lda	($2),y                  ; 0x2 <__rc0>
    2fe6: 85 04        	sta	$4                      ; 0x4 <__rc2>
    2fe8: c8           	iny
    2fe9: b1 02        	lda	($2),y                  ; 0x2 <__rc0>
    2feb: 85 05        	sta	$5                      ; 0x5 <__rc3>
    2fed: a2 03        	ldx	#$3
    2fef: 86 06        	stx	$6                      ; 0x6 <__zp_data_size>
    2ff1: a2 6b        	ldx	#$6b
    2ff3: 86 07        	stx	$7                      ; 0x7 <__rc5>
    2ff5: a9 1e        	lda	#$1e
    2ff7: 20 5a 52     	jsr	$525a <progress>
    2ffa: a0 14        	ldy	#$14
    2ffc: b1 02        	lda	($2),y                  ; 0x2 <__rc0>
    2ffe: 20 8a 47     	jsr	$478a <GetBAM>
    3001: a2 0d        	ldx	#$d
    3003: 86 04        	stx	$4                      ; 0x4 <__rc2>
    3005: a2 6f        	ldx	#$6f
    3007: 86 05        	stx	$5                      ; 0x5 <__rc3>
    3009: a2 14        	ldx	#$14
    300b: 86 06        	stx	$6                      ; 0x6 <__zp_data_size>
    300d: a2 69        	ldx	#$69
    300f: 86 07        	stx	$7                      ; 0x7 <__rc5>
    3011: a9 28        	lda	#$28
    3013: 20 5a 52     	jsr	$525a <progress>
    3016: a5 18        	lda	$18                     ; 0x18 <__rc22>
    3018: a0 1b        	ldy	#$1b
    301a: 91 02        	sta	($2),y                  ; 0x2 <__rc0>
    301c: a5 19        	lda	$19                     ; 0x19 <__rc23>
    301e: c8           	iny
    301f: 91 02        	sta	($2),y                  ; 0x2 <__rc0>
    3021: b2 18        	lda	($18),z                 ; 0x18 <__rc22>
    3023: 85 20        	sta	$20                     ; 0x20 <__rc30>
    3025: 18           	clc
    3026: a5 02        	lda	$2                      ; 0x2 <__rc0>
    3028: 69 29        	adc	#$29
    302a: 85 18        	sta	$18                     ; 0x18 <__rc22>
    302c: a5 03        	lda	$3                      ; 0x3 <__rc1>
    302e: 69 00        	adc	#$0
    3030: 85 19        	sta	$19                     ; 0x19 <__rc23>
    3032: a9 00        	lda	#$0
    3034: 92 18        	sta	($18),z                 ; 0x18 <__rc22>
    3036: 18           	clc
    3037: a5 02        	lda	$2                      ; 0x2 <__rc0>
    3039: 69 28        	adc	#$28
    303b: 85 1a        	sta	$1a                     ; 0x1a <__rc24>
    303d: a5 03        	lda	$3                      ; 0x3 <__rc1>
    303f: 69 00        	adc	#$0
    3041: 85 1b        	sta	$1b                     ; 0x1b <__rc25>
    3043: a9 ff        	lda	#$ff
    3045: aa           	tax
    3046: 48           	pha
    3047: 8a           	txa
    3048: a0 24        	ldy	#$24
    304a: 91 02        	sta	($2),y                  ; 0x2 <__rc0>
    304c: 68           	pla
    304d: 92 1a        	sta	($1a),z                 ; 0x1a <__rc24>
    304f: 9c 80 d0     	stz	$d080                   ; 0xd080 <__heap_start+0x5a9a>
    3052: 18           	clc
    3053: a5 02        	lda	$2                      ; 0x2 <__rc0>
    3055: 69 27        	adc	#$27
    3057: 85 1c        	sta	$1c                     ; 0x1c <__rc26>
    3059: a5 03        	lda	$3                      ; 0x3 <__rc1>
    305b: 69 00        	adc	#$0
    305d: 85 1d        	sta	$1d                     ; 0x1d <__rc27>
    305f: a6 1c        	ldx	$1c                     ; 0x1c <__rc26>
    3061: 86 04        	stx	$4                      ; 0x4 <__rc2>
    3063: 85 05        	sta	$5                      ; 0x5 <__rc3>
    3065: 18           	clc
    3066: a5 02        	lda	$2                      ; 0x2 <__rc0>
    3068: 69 26        	adc	#$26
    306a: 85 1e        	sta	$1e                     ; 0x1e <__rc28>
    306c: a5 03        	lda	$3                      ; 0x3 <__rc1>
    306e: 69 00        	adc	#$0
    3070: 85 1f        	sta	$1f                     ; 0x1f <__rc29>
    3072: a6 1e        	ldx	$1e                     ; 0x1e <__rc28>
    3074: 86 06        	stx	$6                      ; 0x6 <__zp_data_size>
    3076: 85 07        	sta	$7                      ; 0x7 <__rc5>
    3078: 64 21        	stz	$21                     ; 0x21 <__rc31>
    307a: a9 00        	lda	#$0
    307c: 20 be 4b     	jsr	$4bbe <findnextBAMtracksector>
    307f: b2 1c        	lda	($1c),z                 ; 0x1c <__rc26>
    3081: aa           	tax
    3082: b2 1e        	lda	($1e),z                 ; 0x1e <__rc28>
    3084: 85 17        	sta	$17                     ; 0x17 <__rc21>
    3086: 85 1c        	sta	$1c                     ; 0x1c <__rc26>
    3088: 86 16        	stx	$16                     ; 0x16 <__rc20>
    308a: 86 1d        	stx	$1d                     ; 0x1d <__rc27>
    308c: a0 00        	ldy	#$0
    308e: a2 00        	ldx	#$0
    3090: e0 0c        	cpx	#$c
    3092: d0 07        	bne	$309b <main+0xf89>
    3094: c0 80        	cpy	#$80
    3096: d0 03        	bne	$309b <main+0xf89>
    3098: 4c 2d 31     	jmp	$312d <main+0x101b>
    309b: 18           	clc
    309c: 84 1e        	sty	$1e                     ; 0x1e <__rc28>
    309e: 98           	tya
    309f: 69 20        	adc	#$20
    30a1: 85 0c        	sta	$c                      ; 0xc <__rc10>
    30a3: 86 1f        	stx	$1f                     ; 0x1f <__rc29>
    30a5: 8a           	txa
    30a6: 69 00        	adc	#$0
    30a8: 85 04        	sta	$4                      ; 0x4 <__rc2>
    30aa: a9 00        	lda	#$0
    30ac: 69 08        	adc	#$8
    30ae: 85 05        	sta	$5                      ; 0x5 <__rc3>
    30b0: 64 06        	stz	$6                      ; 0x6 <__zp_data_size>
    30b2: a0 18        	ldy	#$18
    30b4: 84 07        	sty	$7                      ; 0x7 <__rc5>
    30b6: 64 08        	stz	$8                      ; 0x8 <__rc6>
    30b8: 64 09        	stz	$9                      ; 0x9 <__rc7>
    30ba: 64 0a        	stz	$a                      ; 0xa <__rc8>
    30bc: a2 01        	ldx	#$1
    30be: 86 0b        	stx	$b                      ; 0xb <__rc9>
    30c0: a6 0c        	ldx	$c                      ; 0xc <__rc10>
    30c2: a9 00        	lda	#$0
    30c4: 20 9d 61     	jsr	$619d <lcopy>
    30c7: ae 00 18     	ldx	$1800                   ; 0x1800 <__heap_default_limit+0x800>
    30ca: f0 29        	beq	$30f5 <main+0xfe3>
    30cc: a6 18        	ldx	$18                     ; 0x18 <__rc22>
    30ce: 86 04        	stx	$4                      ; 0x4 <__rc2>
    30d0: a6 19        	ldx	$19                     ; 0x19 <__rc23>
    30d2: 86 05        	stx	$5                      ; 0x5 <__rc3>
    30d4: a6 1a        	ldx	$1a                     ; 0x1a <__rc24>
    30d6: 86 06        	stx	$6                      ; 0x6 <__zp_data_size>
    30d8: a6 1b        	ldx	$1b                     ; 0x1b <__rc25>
    30da: 86 07        	stx	$7                      ; 0x7 <__rc5>
    30dc: a9 00        	lda	#$0
    30de: 20 be 4b     	jsr	$4bbe <findnextBAMtracksector>
    30e1: b2 18        	lda	($18),z                 ; 0x18 <__rc22>
    30e3: 85 21        	sta	$21                     ; 0x21 <__rc31>
    30e5: b2 18        	lda	($18),z                 ; 0x18 <__rc22>
    30e7: 8d 00 18     	sta	$1800                   ; 0x1800 <__heap_default_limit+0x800>
    30ea: b2 1a        	lda	($1a),z                 ; 0x1a <__rc24>
    30ec: a0 24        	ldy	#$24
    30ee: 91 02        	sta	($2),y                  ; 0x2 <__rc0>
    30f0: b2 1a        	lda	($1a),z                 ; 0x1a <__rc24>
    30f2: 8d 01 18     	sta	$1801                   ; 0x1801 <__heap_default_limit+0x801>
    30f5: a0 19        	ldy	#$19
    30f7: b1 02        	lda	($2),y                  ; 0x2 <__rc0>
    30f9: 85 04        	sta	$4                      ; 0x4 <__rc2>
    30fb: c8           	iny
    30fc: b1 02        	lda	($2),y                  ; 0x2 <__rc0>
    30fe: 85 05        	sta	$5                      ; 0x5 <__rc3>
    3100: a6 1c        	ldx	$1c                     ; 0x1c <__rc26>
    3102: 86 06        	stx	$6                      ; 0x6 <__zp_data_size>
    3104: a6 1d        	ldx	$1d                     ; 0x1d <__rc27>
    3106: a5 20        	lda	$20                     ; 0x20 <__rc30>
    3108: 20 ca 46     	jsr	$46ca <PutOneSector>
    310b: ad 00 18     	lda	$1800                   ; 0x1800 <__heap_default_limit+0x800>
    310e: a4 1e        	ldy	$1e                     ; 0x1e <__rc28>
    3110: a6 1f        	ldx	$1f                     ; 0x1f <__rc29>
    3112: c8           	iny
    3113: d0 01        	bne	$3116 <main+0x1004>
    3115: e8           	inx
    3116: 48           	pha
    3117: 5a           	phy
    3118: a0 24        	ldy	#$24
    311a: b1 02        	lda	($2),y                  ; 0x2 <__rc0>
    311c: 7a           	ply
    311d: 85 1c        	sta	$1c                     ; 0x1c <__rc26>
    311f: 68           	pla
    3120: 5a           	phy
    3121: a4 21        	ldy	$21                     ; 0x21 <__rc31>
    3123: 84 1d        	sty	$1d                     ; 0x1d <__rc27>
    3125: 7a           	ply
    3126: c9 00        	cmp	#$0
    3128: f0 24        	beq	$314e <main+0x103c>
    312a: 4c 90 30     	jmp	$3090 <main+0xf7e>
    312d: a5 21        	lda	$21                     ; 0x21 <__rc31>
    312f: f0 1d        	beq	$314e <main+0x103c>
    3131: a2 cd        	ldx	#$cd
    3133: 86 04        	stx	$4                      ; 0x4 <__rc2>
    3135: a2 6f        	ldx	#$6f
    3137: 86 05        	stx	$5                      ; 0x5 <__rc3>
    3139: a2 74        	ldx	#$74
    313b: 86 06        	stx	$6                      ; 0x6 <__zp_data_size>
    313d: a2 68        	ldx	#$68
    313f: 86 07        	stx	$7                      ; 0x7 <__rc5>
    3141: a2 df        	ldx	#$df
    3143: 86 08        	stx	$8                      ; 0x8 <__rc6>
    3145: a2 68        	ldx	#$68
    3147: 86 09        	stx	$9                      ; 0x9 <__rc7>
    3149: a9 00        	lda	#$0
    314b: 20 69 51     	jsr	$5169 <messagebox>
    314e: a0 03        	ldy	#$3
    3150: 5a           	phy
    3151: a0 20        	ldy	#$20
    3153: b1 02        	lda	($2),y                  ; 0x2 <__rc0>
    3155: 85 06        	sta	$6                      ; 0x6 <__zp_data_size>
    3157: c8           	iny
    3158: b1 02        	lda	($2),y                  ; 0x2 <__rc0>
    315a: 7a           	ply
    315b: 85 07        	sta	$7                      ; 0x7 <__rc5>
    315d: a5 16        	lda	$16                     ; 0x16 <__rc20>
    315f: 91 06        	sta	($6),y                  ; 0x6 <__zp_data_size>
    3161: a0 04        	ldy	#$4
    3163: a5 17        	lda	$17                     ; 0x17 <__rc21>
    3165: 91 06        	sta	($6),y                  ; 0x6 <__zp_data_size>
    3167: a2 0d        	ldx	#$d
    3169: 86 04        	stx	$4                      ; 0x4 <__rc2>
    316b: a2 6f        	ldx	#$6f
    316d: 86 05        	stx	$5                      ; 0x5 <__rc3>
    316f: a2 23        	ldx	#$23
    3171: 86 06        	stx	$6                      ; 0x6 <__zp_data_size>
    3173: a2 71        	ldx	#$71
    3175: 86 07        	stx	$7                      ; 0x7 <__rc5>
    3177: a9 3c        	lda	#$3c
    3179: 20 5a 52     	jsr	$525a <progress>
    317c: a0 1b        	ldy	#$1b
    317e: b1 02        	lda	($2),y                  ; 0x2 <__rc0>
    3180: 85 18        	sta	$18                     ; 0x18 <__rc22>
    3182: c8           	iny
    3183: b1 02        	lda	($2),y                  ; 0x2 <__rc0>
    3185: 85 19        	sta	$19                     ; 0x19 <__rc23>
    3187: b2 18        	lda	($18),z                 ; 0x18 <__rc22>
    3189: a0 0e        	ldy	#$e
    318b: 91 02        	sta	($2),y                  ; 0x2 <__rc0>
    318d: a0 47        	ldy	#$47
    318f: b1 18        	lda	($18),y                 ; 0x18 <__rc22>
    3191: a0 13        	ldy	#$13
    3193: 91 02        	sta	($2),y                  ; 0x2 <__rc0>
    3195: 64 04        	stz	$4                      ; 0x4 <__rc2>
    3197: a9 00        	lda	#$0
    3199: a0 17        	ldy	#$17
    319b: 91 02        	sta	($2),y                  ; 0x2 <__rc0>
    319d: 9c 80 d0     	stz	$d080                   ; 0xd080 <__heap_start+0x5a9a>
    31a0: a2 03        	ldx	#$3
    31a2: 8a           	txa
    31a3: a0 12        	ldy	#$12
    31a5: 91 02        	sta	($2),y                  ; 0x2 <__rc0>
    31a7: a2 08        	ldx	#$8
    31a9: 8a           	txa
    31aa: a0 24        	ldy	#$24
    31ac: 91 02        	sta	($2),y                  ; 0x2 <__rc0>
    31ae: 64 1e        	stz	$1e                     ; 0x1e <__rc28>
    31b0: a9 00        	lda	#$0
    31b2: a0 15        	ldy	#$15
    31b4: 91 02        	sta	($2),y                  ; 0x2 <__rc0>
    31b6: a8           	tay
    31b7: 64 21        	stz	$21                     ; 0x21 <__rc31>
    31b9: 5a           	phy
    31ba: a0 0d        	ldy	#$d
    31bc: b1 02        	lda	($2),y                  ; 0x2 <__rc0>
    31be: 85 1f        	sta	$1f                     ; 0x1f <__rc29>
    31c0: 88           	dey
    31c1: b1 02        	lda	($2),y                  ; 0x2 <__rc0>
    31c3: 85 1b        	sta	$1b                     ; 0x1b <__rc25>
    31c5: a0 22        	ldy	#$22
    31c7: b1 02        	lda	($2),y                  ; 0x2 <__rc0>
    31c9: 7a           	ply
    31ca: 85 20        	sta	$20                     ; 0x20 <__rc30>
    31cc: 4c 6b 32     	jmp	$326b <main+0x1159>
    31cf: e4 21        	cpx	$21                     ; 0x21 <__rc31>
    31d1: 90 03        	bcc	$31d6 <main+0x10c4>
    31d3: 4c b7 32     	jmp	$32b7 <main+0x11a5>
    31d6: 84 1a        	sty	$1a                     ; 0x1a <__rc24>
    31d8: a5 1f        	lda	$1f                     ; 0x1f <__rc29>
    31da: 18           	clc
    31db: 65 1d        	adc	$1d                     ; 0x1d <__rc27>
    31dd: 85 0c        	sta	$c                      ; 0xc <__rc10>
    31df: a5 20        	lda	$20                     ; 0x20 <__rc30>
    31e1: 65 05        	adc	$5                      ; 0x5 <__rc3>
    31e3: 85 0d        	sta	$d                      ; 0xd <__rc11>
    31e5: a5 1f        	lda	$1f                     ; 0x1f <__rc29>
    31e7: 69 00        	adc	#$0
    31e9: a8           	tay
    31ea: a5 1b        	lda	$1b                     ; 0x1b <__rc25>
    31ec: 69 00        	adc	#$0
    31ee: 84 1c        	sty	$1c                     ; 0x1c <__rc26>
    31f0: 84 04        	sty	$4                      ; 0x4 <__rc2>
    31f2: 85 1d        	sta	$1d                     ; 0x1d <__rc27>
    31f4: 85 05        	sta	$5                      ; 0x5 <__rc3>
    31f6: 64 06        	stz	$6                      ; 0x6 <__zp_data_size>
    31f8: a0 1b        	ldy	#$1b
    31fa: 84 07        	sty	$7                      ; 0x7 <__rc5>
    31fc: 64 08        	stz	$8                      ; 0x8 <__rc6>
    31fe: 64 09        	stz	$9                      ; 0x9 <__rc7>
    3200: a0 20        	ldy	#$20
    3202: 84 0a        	sty	$a                      ; 0xa <__rc8>
    3204: 64 0b        	stz	$b                      ; 0xb <__rc9>
    3206: a6 0d        	ldx	$d                      ; 0xd <__rc11>
    3208: 86 17        	stx	$17                     ; 0x17 <__rc21>
    320a: a5 0c        	lda	$c                      ; 0xc <__rc10>
    320c: 85 16        	sta	$16                     ; 0x16 <__rc20>
    320e: 20 9d 61     	jsr	$619d <lcopy>
    3211: a5 1a        	lda	$1a                     ; 0x1a <__rc24>
    3213: 29 07        	and	#$7
    3215: f0 04        	beq	$321b <main+0x1109>
    3217: a0 01        	ldy	#$1
    3219: 80 21        	bra	$323c <main+0x112a>
    321b: a6 1a        	ldx	$1a                     ; 0x1a <__rc24>
    321d: a0 01        	ldy	#$1
    321f: a5 1a        	lda	$1a                     ; 0x1a <__rc24>
    3221: d0 03        	bne	$3226 <main+0x1114>
    3223: 4c 42 35     	jmp	$3542 <main+0x1430>
    3226: 5a           	phy
    3227: 8a           	txa
    3228: a0 15        	ldy	#$15
    322a: 91 02        	sta	($2),y                  ; 0x2 <__rc0>
    322c: a6 1e        	ldx	$1e                     ; 0x1e <__rc28>
    322e: 8a           	txa
    322f: a0 13        	ldy	#$13
    3231: 91 02        	sta	($2),y                  ; 0x2 <__rc0>
    3233: a0 17        	ldy	#$17
    3235: b1 02        	lda	($2),y                  ; 0x2 <__rc0>
    3237: a0 12        	ldy	#$12
    3239: 91 02        	sta	($2),y                  ; 0x2 <__rc0>
    323b: 7a           	ply
    323c: ae 00 1b     	ldx	$1b00                   ; 0x1b00 <__heap_default_limit+0xb00>
    323f: f0 1d        	beq	$325e <main+0x114c>
    3241: 18           	clc
    3242: 86 1e        	stx	$1e                     ; 0x1e <__rc28>
    3244: 5a           	phy
    3245: a0 24        	ldy	#$24
    3247: b1 02        	lda	($2),y                  ; 0x2 <__rc0>
    3249: 69 08        	adc	#$8
    324b: 91 02        	sta	($2),y                  ; 0x2 <__rc0>
    324d: a5 21        	lda	$21                     ; 0x21 <__rc31>
    324f: 69 00        	adc	#$0
    3251: 85 21        	sta	$21                     ; 0x21 <__rc31>
    3253: ae 01 1b     	ldx	$1b01                   ; 0x1b01 <__heap_default_limit+0xb01>
    3256: 8a           	txa
    3257: a0 17        	ldy	#$17
    3259: 91 02        	sta	($2),y                  ; 0x2 <__rc0>
    325b: 7a           	ply
    325c: a6 1e        	ldx	$1e                     ; 0x1e <__rc28>
    325e: a9 0f        	lda	#$f
    3260: 2d 02 1b     	and	$1b02                   ; 0x1b02 <__heap_default_limit+0xb02>
    3263: d0 03        	bne	$3268 <main+0x1156>
    3265: 4c 4c 35     	jmp	$354c <main+0x143a>
    3268: a4 1a        	ldy	$1a                     ; 0x1a <__rc24>
    326a: c8           	iny
    326b: 98           	tya
    326c: 4a           	lsr
    326d: a2 01        	ldx	#$1
    326f: b0 02        	bcs	$3273 <main+0x1161>
    3271: a2 00        	ldx	#$0
    3273: 86 06        	stx	$6                      ; 0x6 <__zp_data_size>
    3275: 4a           	lsr
    3276: a2 01        	ldx	#$1
    3278: b0 02        	bcs	$327c <main+0x116a>
    327a: a2 00        	ldx	#$0
    327c: 86 05        	stx	$5                      ; 0x5 <__rc3>
    327e: 85 04        	sta	$4                      ; 0x4 <__rc2>
    3280: 64 1d        	stz	$1d                     ; 0x1d <__rc27>
    3282: a6 06        	ldx	$6                      ; 0x6 <__zp_data_size>
    3284: e0 01        	cpx	#$1
    3286: 66 1d        	ror	$1d                     ; 0x1d <__rc27>
    3288: 46 04        	lsr	$4                      ; 0x4 <__rc2>
    328a: 48           	pha
    328b: a5 04        	lda	$4                      ; 0x4 <__rc2>
    328d: 5a           	phy
    328e: a0 18        	ldy	#$18
    3290: 91 02        	sta	($2),y                  ; 0x2 <__rc0>
    3292: 7a           	ply
    3293: 68           	pla
    3294: a6 05        	ldx	$5                      ; 0x5 <__rc3>
    3296: e0 01        	cpx	#$1
    3298: 66 1d        	ror	$1d                     ; 0x1d <__rc27>
    329a: 4a           	lsr
    329b: 85 05        	sta	$5                      ; 0x5 <__rc3>
    329d: 66 1d        	ror	$1d                     ; 0x1d <__rc27>
    329f: a2 00        	ldx	#$0
    32a1: e4 21        	cpx	$21                     ; 0x21 <__rc31>
    32a3: f0 03        	beq	$32a8 <main+0x1196>
    32a5: 4c cf 31     	jmp	$31cf <main+0x10bd>
    32a8: 5a           	phy
    32a9: a0 24        	ldy	#$24
    32ab: b1 02        	lda	($2),y                  ; 0x2 <__rc0>
    32ad: 7a           	ply
    32ae: 85 04        	sta	$4                      ; 0x4 <__rc2>
    32b0: c4 04        	cpy	$4                      ; 0x4 <__rc2>
    32b2: b0 03        	bcs	$32b7 <main+0x11a5>
    32b4: 4c d6 31     	jmp	$31d6 <main+0x10c4>
    32b7: 18           	clc
    32b8: a5 02        	lda	$2                      ; 0x2 <__rc0>
    32ba: 69 2b        	adc	#$2b
    32bc: 85 18        	sta	$18                     ; 0x18 <__rc22>
    32be: a5 03        	lda	$3                      ; 0x3 <__rc1>
    32c0: 69 00        	adc	#$0
    32c2: 85 19        	sta	$19                     ; 0x19 <__rc23>
    32c4: a5 1e        	lda	$1e                     ; 0x1e <__rc28>
    32c6: 92 18        	sta	($18),z                 ; 0x18 <__rc22>
    32c8: 18           	clc
    32c9: a5 02        	lda	$2                      ; 0x2 <__rc0>
    32cb: 69 2a        	adc	#$2a
    32cd: 85 1a        	sta	$1a                     ; 0x1a <__rc24>
    32cf: a6 1b        	ldx	$1b                     ; 0x1b <__rc25>
    32d1: 86 1e        	stx	$1e                     ; 0x1e <__rc28>
    32d3: a5 03        	lda	$3                      ; 0x3 <__rc1>
    32d5: 69 00        	adc	#$0
    32d7: 85 1b        	sta	$1b                     ; 0x1b <__rc25>
    32d9: a5 05        	lda	$5                      ; 0x5 <__rc3>
    32db: a0 0a        	ldy	#$a
    32dd: 91 02        	sta	($2),y                  ; 0x2 <__rc0>
    32df: a0 17        	ldy	#$17
    32e1: b1 02        	lda	($2),y                  ; 0x2 <__rc0>
    32e3: 92 1a        	sta	($1a),z                 ; 0x1a <__rc24>
    32e5: a0 15        	ldy	#$15
    32e7: b1 02        	lda	($2),y                  ; 0x2 <__rc0>
    32e9: 85 16        	sta	$16                     ; 0x16 <__rc20>
    32eb: 46 16        	lsr	$16                     ; 0x16 <__rc20>
    32ed: a9 00        	lda	#$0
    32ef: 6a           	ror
    32f0: 46 16        	lsr	$16                     ; 0x16 <__rc20>
    32f2: 6a           	ror
    32f3: a6 16        	ldx	$16                     ; 0x16 <__rc20>
    32f5: 86 04        	stx	$4                      ; 0x4 <__rc2>
    32f7: 46 04        	lsr	$4                      ; 0x4 <__rc2>
    32f9: 6a           	ror
    32fa: 85 05        	sta	$5                      ; 0x5 <__rc3>
    32fc: a6 1f        	ldx	$1f                     ; 0x1f <__rc29>
    32fe: 8a           	txa
    32ff: a0 09        	ldy	#$9
    3301: 91 02        	sta	($2),y                  ; 0x2 <__rc0>
    3303: a5 1f        	lda	$1f                     ; 0x1f <__rc29>
    3305: 18           	clc
    3306: 65 05        	adc	$5                      ; 0x5 <__rc3>
    3308: 85 1c        	sta	$1c                     ; 0x1c <__rc26>
    330a: a6 20        	ldx	$20                     ; 0x20 <__rc30>
    330c: 8a           	txa
    330d: a0 15        	ldy	#$15
    330f: 91 02        	sta	($2),y                  ; 0x2 <__rc0>
    3311: a5 20        	lda	$20                     ; 0x20 <__rc30>
    3313: 65 04        	adc	$4                      ; 0x4 <__rc2>
    3315: 85 17        	sta	$17                     ; 0x17 <__rc21>
    3317: a5 20        	lda	$20                     ; 0x20 <__rc30>
    3319: a0 22        	ldy	#$22
    331b: 91 02        	sta	($2),y                  ; 0x2 <__rc0>
    331d: a6 1f        	ldx	$1f                     ; 0x1f <__rc29>
    331f: 8a           	txa
    3320: a0 08        	ldy	#$8
    3322: 91 02        	sta	($2),y                  ; 0x2 <__rc0>
    3324: a5 1f        	lda	$1f                     ; 0x1f <__rc29>
    3326: 69 00        	adc	#$0
    3328: 85 20        	sta	$20                     ; 0x20 <__rc30>
    332a: a5 1e        	lda	$1e                     ; 0x1e <__rc28>
    332c: a0 0b        	ldy	#$b
    332e: 91 02        	sta	($2),y                  ; 0x2 <__rc0>
    3330: 69 00        	adc	#$0
    3332: 85 21        	sta	$21                     ; 0x21 <__rc31>
    3334: a6 20        	ldx	$20                     ; 0x20 <__rc30>
    3336: 86 04        	stx	$4                      ; 0x4 <__rc2>
    3338: 85 05        	sta	$5                      ; 0x5 <__rc3>
    333a: 64 06        	stz	$6                      ; 0x6 <__zp_data_size>
    333c: a2 1b        	ldx	#$1b
    333e: 86 07        	stx	$7                      ; 0x7 <__rc5>
    3340: 64 08        	stz	$8                      ; 0x8 <__rc6>
    3342: 64 09        	stz	$9                      ; 0x9 <__rc7>
    3344: a2 20        	ldx	#$20
    3346: 86 0a        	stx	$a                      ; 0xa <__rc8>
    3348: 64 0b        	stz	$b                      ; 0xb <__rc9>
    334a: a6 17        	ldx	$17                     ; 0x17 <__rc21>
    334c: a5 1c        	lda	$1c                     ; 0x1c <__rc26>
    334e: 20 9d 61     	jsr	$619d <lcopy>
    3351: a6 18        	ldx	$18                     ; 0x18 <__rc22>
    3353: 86 04        	stx	$4                      ; 0x4 <__rc2>
    3355: a6 19        	ldx	$19                     ; 0x19 <__rc23>
    3357: 86 05        	stx	$5                      ; 0x5 <__rc3>
    3359: a6 1a        	ldx	$1a                     ; 0x1a <__rc24>
    335b: 86 06        	stx	$6                      ; 0x6 <__zp_data_size>
    335d: a6 1b        	ldx	$1b                     ; 0x1b <__rc25>
    335f: 86 07        	stx	$7                      ; 0x7 <__rc5>
    3361: a9 01        	lda	#$1
    3363: 20 be 4b     	jsr	$4bbe <findnextBAMtracksector>
    3366: b2 18        	lda	($18),z                 ; 0x18 <__rc22>
    3368: a0 24        	ldy	#$24
    336a: 91 02        	sta	($2),y                  ; 0x2 <__rc0>
    336c: b2 18        	lda	($18),z                 ; 0x18 <__rc22>
    336e: 8d 00 1b     	sta	$1b00                   ; 0x1b00 <__heap_default_limit+0xb00>
    3371: b2 1a        	lda	($1a),z                 ; 0x1a <__rc24>
    3373: a0 17        	ldy	#$17
    3375: 91 02        	sta	($2),y                  ; 0x2 <__rc0>
    3377: b2 1a        	lda	($1a),z                 ; 0x1a <__rc24>
    3379: a6 1e        	ldx	$1e                     ; 0x1e <__rc28>
    337b: 86 1b        	stx	$1b                     ; 0x1b <__rc25>
    337d: 8d 01 1b     	sta	$1b01                   ; 0x1b01 <__heap_default_limit+0xb01>
    3380: a6 1c        	ldx	$1c                     ; 0x1c <__rc26>
    3382: 86 06        	stx	$6                      ; 0x6 <__zp_data_size>
    3384: a6 17        	ldx	$17                     ; 0x17 <__rc21>
    3386: 86 07        	stx	$7                      ; 0x7 <__rc5>
    3388: 64 04        	stz	$4                      ; 0x4 <__rc2>
    338a: 64 05        	stz	$5                      ; 0x5 <__rc3>
    338c: a6 20        	ldx	$20                     ; 0x20 <__rc30>
    338e: 86 08        	stx	$8                      ; 0x8 <__rc6>
    3390: a6 21        	ldx	$21                     ; 0x21 <__rc31>
    3392: 86 09        	stx	$9                      ; 0x9 <__rc7>
    3394: a2 20        	ldx	#$20
    3396: 86 0a        	stx	$a                      ; 0xa <__rc8>
    3398: 64 0b        	stz	$b                      ; 0xb <__rc9>
    339a: a2 1b        	ldx	#$1b
    339c: a9 00        	lda	#$0
    339e: 20 9d 61     	jsr	$619d <lcopy>
    33a1: 46 16        	lsr	$16                     ; 0x16 <__rc20>
    33a3: a9 00        	lda	#$0
    33a5: 18           	clc
    33a6: 65 1f        	adc	$1f                     ; 0x1f <__rc29>
    33a8: a2 01        	ldx	#$1
    33aa: b0 02        	bcs	$33ae <main+0x129c>
    33ac: a2 00        	ldx	#$0
    33ae: 86 19        	stx	$19                     ; 0x19 <__rc23>
    33b0: 85 18        	sta	$18                     ; 0x18 <__rc22>
    33b2: a0 22        	ldy	#$22
    33b4: b1 02        	lda	($2),y                  ; 0x2 <__rc0>
    33b6: 85 04        	sta	$4                      ; 0x4 <__rc2>
    33b8: a5 16        	lda	$16                     ; 0x16 <__rc20>
    33ba: 65 04        	adc	$4                      ; 0x4 <__rc2>
    33bc: 85 0c        	sta	$c                      ; 0xc <__rc10>
    33be: a9 00        	lda	#$0
    33c0: 65 1f        	adc	$1f                     ; 0x1f <__rc29>
    33c2: 85 04        	sta	$4                      ; 0x4 <__rc2>
    33c4: a9 00        	lda	#$0
    33c6: 65 1e        	adc	$1e                     ; 0x1e <__rc28>
    33c8: 85 05        	sta	$5                      ; 0x5 <__rc3>
    33ca: 64 06        	stz	$6                      ; 0x6 <__zp_data_size>
    33cc: a2 18        	ldx	#$18
    33ce: 86 07        	stx	$7                      ; 0x7 <__rc5>
    33d0: 64 08        	stz	$8                      ; 0x8 <__rc6>
    33d2: 64 09        	stz	$9                      ; 0x9 <__rc7>
    33d4: 64 0a        	stz	$a                      ; 0xa <__rc8>
    33d6: a2 01        	ldx	#$1
    33d8: 86 0b        	stx	$b                      ; 0xb <__rc9>
    33da: a6 0c        	ldx	$c                      ; 0xc <__rc10>
    33dc: a5 18        	lda	$18                     ; 0x18 <__rc22>
    33de: 20 9d 61     	jsr	$619d <lcopy>
    33e1: a2 00        	ldx	#$0
    33e3: 86 04        	stx	$4                      ; 0x4 <__rc2>
    33e5: a2 18        	ldx	#$18
    33e7: 86 05        	stx	$5                      ; 0x5 <__rc3>
    33e9: a5 04        	lda	$4                      ; 0x4 <__rc2>
    33eb: a0 19        	ldy	#$19
    33ed: 91 02        	sta	($2),y                  ; 0x2 <__rc0>
    33ef: a5 05        	lda	$5                      ; 0x5 <__rc3>
    33f1: c8           	iny
    33f2: 91 02        	sta	($2),y                  ; 0x2 <__rc0>
    33f4: 88           	dey
    33f5: b1 02        	lda	($2),y                  ; 0x2 <__rc0>
    33f7: 85 04        	sta	$4                      ; 0x4 <__rc2>
    33f9: c8           	iny
    33fa: b1 02        	lda	($2),y                  ; 0x2 <__rc0>
    33fc: 85 05        	sta	$5                      ; 0x5 <__rc3>
    33fe: a0 12        	ldy	#$12
    3400: b1 02        	lda	($2),y                  ; 0x2 <__rc0>
    3402: 85 06        	sta	$6                      ; 0x6 <__zp_data_size>
    3404: c8           	iny
    3405: b1 02        	lda	($2),y                  ; 0x2 <__rc0>
    3407: aa           	tax
    3408: a0 0e        	ldy	#$e
    340a: b1 02        	lda	($2),y                  ; 0x2 <__rc0>
    340c: 85 1a        	sta	$1a                     ; 0x1a <__rc24>
    340e: 20 ca 46     	jsr	$46ca <PutOneSector>
    3411: a0 09        	ldy	#$9
    3413: b1 02        	lda	($2),y                  ; 0x2 <__rc0>
    3415: 18           	clc
    3416: 65 1d        	adc	$1d                     ; 0x1d <__rc27>
    3418: 85 16        	sta	$16                     ; 0x16 <__rc20>
    341a: a0 15        	ldy	#$15
    341c: b1 02        	lda	($2),y                  ; 0x2 <__rc0>
    341e: 48           	pha
    341f: a0 0a        	ldy	#$a
    3421: b1 02        	lda	($2),y                  ; 0x2 <__rc0>
    3423: 85 04        	sta	$4                      ; 0x4 <__rc2>
    3425: 68           	pla
    3426: 65 04        	adc	$4                      ; 0x4 <__rc2>
    3428: 85 1d        	sta	$1d                     ; 0x1d <__rc27>
    342a: a0 08        	ldy	#$8
    342c: b1 02        	lda	($2),y                  ; 0x2 <__rc0>
    342e: 48           	pha
    342f: a0 22        	ldy	#$22
    3431: b1 02        	lda	($2),y                  ; 0x2 <__rc0>
    3433: 85 20        	sta	$20                     ; 0x20 <__rc30>
    3435: 68           	pla
    3436: 69 00        	adc	#$0
    3438: 85 1c        	sta	$1c                     ; 0x1c <__rc26>
    343a: a0 0b        	ldy	#$b
    343c: b1 02        	lda	($2),y                  ; 0x2 <__rc0>
    343e: 69 00        	adc	#$0
    3440: 85 1e        	sta	$1e                     ; 0x1e <__rc28>
    3442: a6 1c        	ldx	$1c                     ; 0x1c <__rc26>
    3444: 86 04        	stx	$4                      ; 0x4 <__rc2>
    3446: 85 05        	sta	$5                      ; 0x5 <__rc3>
    3448: 64 06        	stz	$6                      ; 0x6 <__zp_data_size>
    344a: 64 07        	stz	$7                      ; 0x7 <__rc5>
    344c: a2 01        	ldx	#$1
    344e: 86 08        	stx	$8                      ; 0x8 <__rc6>
    3450: a6 1d        	ldx	$1d                     ; 0x1d <__rc27>
    3452: a5 16        	lda	$16                     ; 0x16 <__rc20>
    3454: 20 04 62     	jsr	$6204 <lfill>
    3457: a0 20        	ldy	#$20
    3459: b1 02        	lda	($2),y                  ; 0x2 <__rc0>
    345b: 85 04        	sta	$4                      ; 0x4 <__rc2>
    345d: c8           	iny
    345e: b1 02        	lda	($2),y                  ; 0x2 <__rc0>
    3460: 85 05        	sta	$5                      ; 0x5 <__rc3>
    3462: a9 00        	lda	#$0
    3464: 92 04        	sta	($4),z                  ; 0x4 <__rc2>
    3466: 3a           	dec
    3467: a0 01        	ldy	#$1
    3469: 91 04        	sta	($4),y                  ; 0x4 <__rc2>
    346b: a6 04        	ldx	$4                      ; 0x4 <__rc2>
    346d: 86 0c        	stx	$c                      ; 0xc <__rc10>
    346f: a6 05        	ldx	$5                      ; 0x5 <__rc3>
    3471: 86 0d        	stx	$d                      ; 0xd <__rc11>
    3473: a6 16        	ldx	$16                     ; 0x16 <__rc20>
    3475: 86 06        	stx	$6                      ; 0x6 <__zp_data_size>
    3477: a6 1d        	ldx	$1d                     ; 0x1d <__rc27>
    3479: 86 07        	stx	$7                      ; 0x7 <__rc5>
    347b: 64 04        	stz	$4                      ; 0x4 <__rc2>
    347d: 64 05        	stz	$5                      ; 0x5 <__rc3>
    347f: 64 0b        	stz	$b                      ; 0xb <__rc9>
    3481: a6 1c        	ldx	$1c                     ; 0x1c <__rc26>
    3483: 86 08        	stx	$8                      ; 0x8 <__rc6>
    3485: a6 1e        	ldx	$1e                     ; 0x1e <__rc28>
    3487: 86 09        	stx	$9                      ; 0x9 <__rc7>
    3489: a2 20        	ldx	#$20
    348b: 86 0a        	stx	$a                      ; 0xa <__rc8>
    348d: a6 0d        	ldx	$d                      ; 0xd <__rc11>
    348f: a5 0c        	lda	$c                      ; 0xc <__rc10>
    3491: 20 9d 61     	jsr	$619d <lcopy>
    3494: a0 18        	ldy	#$18
    3496: b1 02        	lda	($2),y                  ; 0x2 <__rc0>
    3498: a6 19        	ldx	$19                     ; 0x19 <__rc23>
    349a: e0 01        	cpx	#$1
    349c: 65 20        	adc	$20                     ; 0x20 <__rc30>
    349e: 85 0c        	sta	$c                      ; 0xc <__rc10>
    34a0: a9 00        	lda	#$0
    34a2: 65 1f        	adc	$1f                     ; 0x1f <__rc29>
    34a4: 85 04        	sta	$4                      ; 0x4 <__rc2>
    34a6: a9 00        	lda	#$0
    34a8: 65 1b        	adc	$1b                     ; 0x1b <__rc25>
    34aa: 85 05        	sta	$5                      ; 0x5 <__rc3>
    34ac: 64 06        	stz	$6                      ; 0x6 <__zp_data_size>
    34ae: a2 18        	ldx	#$18
    34b0: 86 07        	stx	$7                      ; 0x7 <__rc5>
    34b2: 64 08        	stz	$8                      ; 0x8 <__rc6>
    34b4: 64 09        	stz	$9                      ; 0x9 <__rc7>
    34b6: 64 0a        	stz	$a                      ; 0xa <__rc8>
    34b8: a2 01        	ldx	#$1
    34ba: 86 0b        	stx	$b                      ; 0xb <__rc9>
    34bc: a6 0c        	ldx	$c                      ; 0xc <__rc10>
    34be: a5 18        	lda	$18                     ; 0x18 <__rc22>
    34c0: 48           	pha
    34c1: a0 1b        	ldy	#$1b
    34c3: b1 02        	lda	($2),y                  ; 0x2 <__rc0>
    34c5: 85 18        	sta	$18                     ; 0x18 <__rc22>
    34c7: c8           	iny
    34c8: b1 02        	lda	($2),y                  ; 0x2 <__rc0>
    34ca: 85 19        	sta	$19                     ; 0x19 <__rc23>
    34cc: 68           	pla
    34cd: 20 9d 61     	jsr	$619d <lcopy>
    34d0: a2 00        	ldx	#$0
    34d2: 86 04        	stx	$4                      ; 0x4 <__rc2>
    34d4: a2 18        	ldx	#$18
    34d6: 86 05        	stx	$5                      ; 0x5 <__rc3>
    34d8: a5 04        	lda	$4                      ; 0x4 <__rc2>
    34da: a0 19        	ldy	#$19
    34dc: 91 02        	sta	($2),y                  ; 0x2 <__rc0>
    34de: a5 05        	lda	$5                      ; 0x5 <__rc3>
    34e0: c8           	iny
    34e1: 91 02        	sta	($2),y                  ; 0x2 <__rc0>
    34e3: 88           	dey
    34e4: b1 02        	lda	($2),y                  ; 0x2 <__rc0>
    34e6: 85 04        	sta	$4                      ; 0x4 <__rc2>
    34e8: c8           	iny
    34e9: b1 02        	lda	($2),y                  ; 0x2 <__rc0>
    34eb: 85 05        	sta	$5                      ; 0x5 <__rc3>
    34ed: a0 17        	ldy	#$17
    34ef: b1 02        	lda	($2),y                  ; 0x2 <__rc0>
    34f1: 85 06        	sta	$6                      ; 0x6 <__zp_data_size>
    34f3: a0 24        	ldy	#$24
    34f5: b1 02        	lda	($2),y                  ; 0x2 <__rc0>
    34f7: aa           	tax
    34f8: a5 1a        	lda	$1a                     ; 0x1a <__rc24>
    34fa: 20 ca 46     	jsr	$46ca <PutOneSector>
    34fd: a2 0d        	ldx	#$d
    34ff: 86 04        	stx	$4                      ; 0x4 <__rc2>
    3501: a2 6f        	ldx	#$6f
    3503: 86 05        	stx	$5                      ; 0x5 <__rc3>
    3505: a2 03        	ldx	#$3
    3507: 86 06        	stx	$6                      ; 0x6 <__zp_data_size>
    3509: a2 6b        	ldx	#$6b
    350b: 86 07        	stx	$7                      ; 0x7 <__rc5>
    350d: a9 50        	lda	#$50
    350f: 20 5a 52     	jsr	$525a <progress>
    3512: b2 18        	lda	($18),z                 ; 0x18 <__rc22>
    3514: 85 05        	sta	$5                      ; 0x5 <__rc3>
    3516: a0 47        	ldy	#$47
    3518: b1 18        	lda	($18),y                 ; 0x18 <__rc22>
    351a: 85 04        	sta	$4                      ; 0x4 <__rc2>
    351c: a0 14        	ldy	#$14
    351e: b1 02        	lda	($2),y                  ; 0x2 <__rc0>
    3520: aa           	tax
    3521: a5 05        	lda	$5                      ; 0x5 <__rc3>
    3523: 20 c3 47     	jsr	$47c3 <PutBAM>
    3526: a0 11        	ldy	#$11
    3528: b1 02        	lda	($2),y                  ; 0x2 <__rc0>
    352a: a8           	tay
    352b: 5a           	phy
    352c: a0 0f        	ldy	#$f
    352e: b1 02        	lda	($2),y                  ; 0x2 <__rc0>
    3530: 85 04        	sta	$4                      ; 0x4 <__rc2>
    3532: c8           	iny
    3533: b1 02        	lda	($2),y                  ; 0x2 <__rc0>
    3535: 85 05        	sta	$5                      ; 0x5 <__rc3>
    3537: a0 1f        	ldy	#$1f
    3539: b1 02        	lda	($2),y                  ; 0x2 <__rc0>
    353b: 7a           	ply
    353c: 85 16        	sta	$16                     ; 0x16 <__rc20>
    353e: c8           	iny
    353f: 4c 35 2f     	jmp	$2f35 <main+0xe23>
    3542: 64 04        	stz	$4                      ; 0x4 <__rc2>
    3544: a9 00        	lda	#$0
    3546: 5a           	phy
    3547: a0 15        	ldy	#$15
    3549: 4c 39 32     	jmp	$3239 <main+0x1127>
    354c: 5a           	phy
    354d: a0 20        	ldy	#$20
    354f: b1 02        	lda	($2),y                  ; 0x2 <__rc0>
    3551: 85 0c        	sta	$c                      ; 0xc <__rc10>
    3553: c8           	iny
    3554: b1 02        	lda	($2),y                  ; 0x2 <__rc0>
    3556: 7a           	ply
    3557: 85 0d        	sta	$d                      ; 0xd <__rc11>
    3559: 8a           	txa
    355a: 92 0c        	sta	($c),z                  ; 0xc <__rc10>
    355c: ad 01 1b     	lda	$1b01                   ; 0x1b01 <__heap_default_limit+0xb01>
    355f: 91 0c        	sta	($c),y                  ; 0xc <__rc10>
    3561: a6 16        	ldx	$16                     ; 0x16 <__rc20>
    3563: 86 06        	stx	$6                      ; 0x6 <__zp_data_size>
    3565: a6 17        	ldx	$17                     ; 0x17 <__rc21>
    3567: 86 07        	stx	$7                      ; 0x7 <__rc5>
    3569: 64 04        	stz	$4                      ; 0x4 <__rc2>
    356b: 64 05        	stz	$5                      ; 0x5 <__rc3>
    356d: a6 1c        	ldx	$1c                     ; 0x1c <__rc26>
    356f: 86 08        	stx	$8                      ; 0x8 <__rc6>
    3571: a6 1d        	ldx	$1d                     ; 0x1d <__rc27>
    3573: 86 09        	stx	$9                      ; 0x9 <__rc7>
    3575: a2 20        	ldx	#$20
    3577: 86 0a        	stx	$a                      ; 0xa <__rc8>
    3579: 64 0b        	stz	$b                      ; 0xb <__rc9>
    357b: a6 0d        	ldx	$d                      ; 0xd <__rc11>
    357d: a5 0c        	lda	$c                      ; 0xc <__rc10>
    357f: 20 9d 61     	jsr	$619d <lcopy>
    3582: a9 00        	lda	#$0
    3584: 18           	clc
    3585: 65 1f        	adc	$1f                     ; 0x1f <__rc29>
    3587: a8           	tay
    3588: 5a           	phy
    3589: a0 18        	ldy	#$18
    358b: b1 02        	lda	($2),y                  ; 0x2 <__rc0>
    358d: 7a           	ply
    358e: 65 20        	adc	$20                     ; 0x20 <__rc30>
    3590: 85 0c        	sta	$c                      ; 0xc <__rc10>
    3592: a9 00        	lda	#$0
    3594: 65 1f        	adc	$1f                     ; 0x1f <__rc29>
    3596: 85 04        	sta	$4                      ; 0x4 <__rc2>
    3598: a9 00        	lda	#$0
    359a: 65 1b        	adc	$1b                     ; 0x1b <__rc25>
    359c: 85 05        	sta	$5                      ; 0x5 <__rc3>
    359e: 64 06        	stz	$6                      ; 0x6 <__zp_data_size>
    35a0: a2 18        	ldx	#$18
    35a2: 86 07        	stx	$7                      ; 0x7 <__rc5>
    35a4: 64 08        	stz	$8                      ; 0x8 <__rc6>
    35a6: 64 09        	stz	$9                      ; 0x9 <__rc7>
    35a8: 64 0a        	stz	$a                      ; 0xa <__rc8>
    35aa: a2 01        	ldx	#$1
    35ac: 86 0b        	stx	$b                      ; 0xb <__rc9>
    35ae: a6 0c        	ldx	$c                      ; 0xc <__rc10>
    35b0: 98           	tya
    35b1: 20 9d 61     	jsr	$619d <lcopy>
    35b4: a0 19        	ldy	#$19
    35b6: b1 02        	lda	($2),y                  ; 0x2 <__rc0>
    35b8: 85 04        	sta	$4                      ; 0x4 <__rc2>
    35ba: c8           	iny
    35bb: b1 02        	lda	($2),y                  ; 0x2 <__rc0>
    35bd: 85 05        	sta	$5                      ; 0x5 <__rc3>
    35bf: a0 12        	ldy	#$12
    35c1: b1 02        	lda	($2),y                  ; 0x2 <__rc0>
    35c3: 85 06        	sta	$6                      ; 0x6 <__zp_data_size>
    35c5: c8           	iny
    35c6: b1 02        	lda	($2),y                  ; 0x2 <__rc0>
    35c8: aa           	tax
    35c9: a0 0e        	ldy	#$e
    35cb: b1 02        	lda	($2),y                  ; 0x2 <__rc0>
    35cd: 4c fa 34     	jmp	$34fa <main+0x13e8>
    35d0: a9 43        	lda	#$43
    35d2: a6 06        	ldx	$6                      ; 0x6 <__zp_data_size>
    35d4: 9d 28 00     	sta	$28,x                   ; 0x28 <s>
    35d7: 3a           	dec
    35d8: 99 28 00     	sta	$28,y                   ; 0x28 <s>
    35db: a9 4d        	lda	#$4d
    35dd: 4c 11 26     	jmp	$2611 <main+0x4ff>
    35e0: a9 55        	lda	#$55
    35e2: a6 06        	ldx	$6                      ; 0x6 <__zp_data_size>
    35e4: 9d 28 00     	sta	$28,x                   ; 0x28 <s>
    35e7: a9 53        	lda	#$53
    35e9: 99 28 00     	sta	$28,y                   ; 0x28 <s>
    35ec: 3a           	dec
    35ed: 4c 11 26     	jmp	$2611 <main+0x4ff>
    35f0: a9 52        	lda	#$52
    35f2: 4c 05 26     	jmp	$2605 <main+0x4f3>
    35f5: a9 53        	lda	#$53
    35f7: a6 06        	ldx	$6                      ; 0x6 <__zp_data_size>
    35f9: 9d 28 00     	sta	$28,x                   ; 0x28 <s>
    35fc: a9 45        	lda	#$45
    35fe: 99 28 00     	sta	$28,y                   ; 0x28 <s>
    3601: a9 51        	lda	#$51
    3603: 4c 11 26     	jmp	$2611 <main+0x4ff>
    3606: a9 50        	lda	#$50
    3608: a6 06        	ldx	$6                      ; 0x6 <__zp_data_size>
    360a: 9d 28 00     	sta	$28,x                   ; 0x28 <s>
    360d: a9 52        	lda	#$52
    360f: 99 28 00     	sta	$28,y                   ; 0x28 <s>
    3612: a9 47        	lda	#$47
    3614: 4c 11 26     	jmp	$2611 <main+0x4ff>
    3617: 91 04        	sta	($4),y                  ; 0x4 <__rc2>
    3619: 4c 08 23     	jmp	$2308 <main+0x1f6>
    361c: a2 a4        	ldx	#$a4
    361e: 86 04        	stx	$4                      ; 0x4 <__rc2>
    3620: a2 70        	ldx	#$70
    3622: 86 05        	stx	$5                      ; 0x5 <__rc3>
    3624: a2 03        	ldx	#$3
    3626: 86 06        	stx	$6                      ; 0x6 <__zp_data_size>
    3628: a2 6b        	ldx	#$6b
    362a: 86 07        	stx	$7                      ; 0x7 <__rc5>
    362c: a9 14        	lda	#$14
    362e: 20 5a 52     	jsr	$525a <progress>
    3631: a9 7e        	lda	#$7e
    3633: 18           	clc
    3634: 65 19        	adc	$19                     ; 0x19 <__rc23>
    3636: 85 04        	sta	$4                      ; 0x4 <__rc2>
    3638: a9 71        	lda	#$71
    363a: 65 18        	adc	$18                     ; 0x18 <__rc22>
    363c: 85 05        	sta	$5                      ; 0x5 <__rc3>
    363e: b2 04        	lda	($4),z                  ; 0x4 <__rc2>
    3640: aa           	tax
    3641: a0 01        	ldy	#$1
    3643: b1 04        	lda	($4),y                  ; 0x4 <__rc2>
    3645: 86 04        	stx	$4                      ; 0x4 <__rc2>
    3647: 85 05        	sta	$5                      ; 0x5 <__rc3>
    3649: b2 04        	lda	($4),z                  ; 0x4 <__rc2>
    364b: a6 17        	ldx	$17                     ; 0x17 <__rc21>
    364d: 20 7f 57     	jsr	$577f <UpdateSectors>
    3650: a5 17        	lda	$17                     ; 0x17 <__rc21>
    3652: 20 2e 5d     	jsr	$5d2e <Deselect>
    3655: a5 17        	lda	$17                     ; 0x17 <__rc21>
    3657: a0 1f        	ldy	#$1f
    3659: 91 02        	sta	($2),y                  ; 0x2 <__rc0>
    365b: 49 01        	eor	#$1
    365d: 85 16        	sta	$16                     ; 0x16 <__rc20>
    365f: 0a           	asl
    3660: 85 04        	sta	$4                      ; 0x4 <__rc2>
    3662: a9 00        	lda	#$0
    3664: 2a           	rol
    3665: 85 05        	sta	$5                      ; 0x5 <__rc3>
    3667: a9 7e        	lda	#$7e
    3669: 18           	clc
    366a: 65 04        	adc	$4                      ; 0x4 <__rc2>
    366c: 85 04        	sta	$4                      ; 0x4 <__rc2>
    366e: a9 71        	lda	#$71
    3670: 65 05        	adc	$5                      ; 0x5 <__rc3>
    3672: 85 05        	sta	$5                      ; 0x5 <__rc3>
    3674: b2 04        	lda	($4),z                  ; 0x4 <__rc2>
    3676: 85 06        	sta	$6                      ; 0x6 <__zp_data_size>
    3678: a0 01        	ldy	#$1
    367a: b1 04        	lda	($4),y                  ; 0x4 <__rc2>
    367c: 85 07        	sta	$7                      ; 0x7 <__rc5>
    367e: b2 06        	lda	($6),z                  ; 0x6 <__zp_data_size>
    3680: a6 16        	ldx	$16                     ; 0x16 <__rc20>
    3682: 20 7f 57     	jsr	$577f <UpdateSectors>
    3685: a5 16        	lda	$16                     ; 0x16 <__rc20>
    3687: 20 2e 5d     	jsr	$5d2e <Deselect>
    368a: 4c 08 23     	jmp	$2308 <main+0x1f6>
    368d: a2 00        	ldx	#$0
    368f: a9 14        	lda	#$14
    3691: 20 5b 53     	jsr	$535b <shortcuts>
    3694: 80 03        	bra	$3699 <main+0x1587>
    3696: 20 f0 5e     	jsr	$5ef0 <sidbong>
    3699: a2 4c        	ldx	#$4c
    369b: 86 04        	stx	$4                      ; 0x4 <__rc2>
    369d: a2 18        	ldx	#$18
    369f: 86 05        	stx	$5                      ; 0x5 <__rc3>
    36a1: a2 01        	ldx	#$1
    36a3: 86 06        	stx	$6                      ; 0x6 <__zp_data_size>
    36a5: ca           	dex
    36a6: a9 04        	lda	#$4
    36a8: 20 de 4f     	jsr	$4fde <mcbox>
    36ab: a9 20        	lda	#$20
    36ad: 05 27        	ora	$27                     ; 0x27 <g_curTextColor>
    36af: 85 27        	sta	$27                     ; 0x27 <g_curTextColor>
    36b1: a2 25        	ldx	#$25
    36b3: 86 04        	stx	$4                      ; 0x4 <__rc2>
    36b5: a2 69        	ldx	#$69
    36b7: 86 05        	stx	$5                      ; 0x5 <__rc3>
    36b9: a2 00        	ldx	#$0
    36bb: a9 0e        	lda	#$e
    36bd: 20 c8 4f     	jsr	$4fc8 <mcputsxy>
    36c0: a2 8e        	ldx	#$8e
    36c2: 86 04        	stx	$4                      ; 0x4 <__rc2>
    36c4: a2 68        	ldx	#$68
    36c6: 86 05        	stx	$5                      ; 0x5 <__rc3>
    36c8: a2 00        	ldx	#$0
    36ca: a9 1f        	lda	#$1f
    36cc: 20 c8 4f     	jsr	$4fc8 <mcputsxy>
    36cf: a2 55        	ldx	#$55
    36d1: 86 04        	stx	$4                      ; 0x4 <__rc2>
    36d3: a2 6c        	ldx	#$6c
    36d5: 86 05        	stx	$5                      ; 0x5 <__rc3>
    36d7: a2 00        	ldx	#$0
    36d9: a9 28        	lda	#$28
    36db: 20 c8 4f     	jsr	$4fc8 <mcputsxy>
    36de: a9 df        	lda	#$df
    36e0: 25 27        	and	$27                     ; 0x27 <g_curTextColor>
    36e2: 85 27        	sta	$27                     ; 0x27 <g_curTextColor>
    36e4: a2 df        	ldx	#$df
    36e6: 86 04        	stx	$4                      ; 0x4 <__rc2>
    36e8: a2 68        	ldx	#$68
    36ea: 86 05        	stx	$5                      ; 0x5 <__rc3>
    36ec: a5 04        	lda	$4                      ; 0x4 <__rc2>
    36ee: a0 24        	ldy	#$24
    36f0: 91 02        	sta	($2),y                  ; 0x2 <__rc0>
    36f2: a5 05        	lda	$5                      ; 0x5 <__rc3>
    36f4: c8           	iny
    36f5: 91 02        	sta	($2),y                  ; 0x2 <__rc0>
    36f7: 88           	dey
    36f8: b1 02        	lda	($2),y                  ; 0x2 <__rc0>
    36fa: 85 04        	sta	$4                      ; 0x4 <__rc2>
    36fc: c8           	iny
    36fd: b1 02        	lda	($2),y                  ; 0x2 <__rc0>
    36ff: 85 05        	sta	$5                      ; 0x5 <__rc3>
    3701: a2 18        	ldx	#$18
    3703: a9 07        	lda	#$7
    3705: 20 c8 4f     	jsr	$4fc8 <mcputsxy>
    3708: a2 8b        	ldx	#$8b
    370a: 86 04        	stx	$4                      ; 0x4 <__rc2>
    370c: a2 6a        	ldx	#$6a
    370e: 86 05        	stx	$5                      ; 0x5 <__rc3>
    3710: 20 ba 4f     	jsr	$4fba <msprintf>
    3713: a0 24        	ldy	#$24
    3715: b1 02        	lda	($2),y                  ; 0x2 <__rc0>
    3717: 85 04        	sta	$4                      ; 0x4 <__rc2>
    3719: c8           	iny
    371a: b1 02        	lda	($2),y                  ; 0x2 <__rc0>
    371c: 85 05        	sta	$5                      ; 0x5 <__rc3>
    371e: 20 ba 4f     	jsr	$4fba <msprintf>
    3721: a2 67        	ldx	#$67
    3723: 86 04        	stx	$4                      ; 0x4 <__rc2>
    3725: a2 6f        	ldx	#$6f
    3727: 86 05        	stx	$5                      ; 0x5 <__rc3>
    3729: a2 18        	ldx	#$18
    372b: a9 34        	lda	#$34
    372d: 20 c8 4f     	jsr	$4fc8 <mcputsxy>
    3730: a9 20        	lda	#$20
    3732: 05 27        	ora	$27                     ; 0x27 <g_curTextColor>
    3734: 85 27        	sta	$27                     ; 0x27 <g_curTextColor>
    3736: a2 c9        	ldx	#$c9
    3738: 86 04        	stx	$4                      ; 0x4 <__rc2>
    373a: a2 69        	ldx	#$69
    373c: 86 05        	stx	$5                      ; 0x5 <__rc3>
    373e: a2 02        	ldx	#$2
    3740: a9 06        	lda	#$6
    3742: 20 c8 4f     	jsr	$4fc8 <mcputsxy>
    3745: a6 27        	ldx	$27                     ; 0x27 <g_curTextColor>
    3747: 86 18        	stx	$18                     ; 0x18 <__rc22>
    3749: a9 df        	lda	#$df
    374b: 25 27        	and	$27                     ; 0x27 <g_curTextColor>
    374d: 85 27        	sta	$27                     ; 0x27 <g_curTextColor>
    374f: 85 16        	sta	$16                     ; 0x16 <__rc20>
    3751: a0 24        	ldy	#$24
    3753: b1 02        	lda	($2),y                  ; 0x2 <__rc0>
    3755: 85 04        	sta	$4                      ; 0x4 <__rc2>
    3757: c8           	iny
    3758: b1 02        	lda	($2),y                  ; 0x2 <__rc0>
    375a: 85 05        	sta	$5                      ; 0x5 <__rc3>
    375c: 20 ba 4f     	jsr	$4fba <msprintf>
    375f: a5 18        	lda	$18                     ; 0x18 <__rc22>
    3761: 09 20        	ora	#$20
    3763: 85 27        	sta	$27                     ; 0x27 <g_curTextColor>
    3765: a2 d0        	ldx	#$d0
    3767: 86 04        	stx	$4                      ; 0x4 <__rc2>
    3769: a2 69        	ldx	#$69
    376b: 86 05        	stx	$5                      ; 0x5 <__rc3>
    376d: 20 ba 4f     	jsr	$4fba <msprintf>
    3770: a6 16        	ldx	$16                     ; 0x16 <__rc20>
    3772: 86 27        	stx	$27                     ; 0x27 <g_curTextColor>
    3774: a2 3e        	ldx	#$3e
    3776: 86 04        	stx	$4                      ; 0x4 <__rc2>
    3778: a2 71        	ldx	#$71
    377a: 86 05        	stx	$5                      ; 0x5 <__rc3>
    377c: 20 ba 4f     	jsr	$4fba <msprintf>
    377f: a2 35        	ldx	#$35
    3781: 86 04        	stx	$4                      ; 0x4 <__rc2>
    3783: a2 69        	ldx	#$69
    3785: 86 05        	stx	$5                      ; 0x5 <__rc3>
    3787: a2 04        	ldx	#$4
    3789: a9 06        	lda	#$6
    378b: 20 c8 4f     	jsr	$4fc8 <mcputsxy>
    378e: a2 9a        	ldx	#$9a
    3790: 86 04        	stx	$4                      ; 0x4 <__rc2>
    3792: a2 6e        	ldx	#$6e
    3794: 86 05        	stx	$5                      ; 0x5 <__rc3>
    3796: a2 05        	ldx	#$5
    3798: a9 06        	lda	#$6
    379a: 20 c8 4f     	jsr	$4fc8 <mcputsxy>
    379d: a9 20        	lda	#$20
    379f: 05 27        	ora	$27                     ; 0x27 <g_curTextColor>
    37a1: 85 27        	sta	$27                     ; 0x27 <g_curTextColor>
    37a3: a2 ee        	ldx	#$ee
    37a5: 86 04        	stx	$4                      ; 0x4 <__rc2>
    37a7: a2 6e        	ldx	#$6e
    37a9: 86 05        	stx	$5                      ; 0x5 <__rc3>
    37ab: a2 07        	ldx	#$7
    37ad: a9 06        	lda	#$6
    37af: 20 c8 4f     	jsr	$4fc8 <mcputsxy>
    37b2: a6 27        	ldx	$27                     ; 0x27 <g_curTextColor>
    37b4: 86 18        	stx	$18                     ; 0x18 <__rc22>
    37b6: a9 df        	lda	#$df
    37b8: 25 27        	and	$27                     ; 0x27 <g_curTextColor>
    37ba: 85 27        	sta	$27                     ; 0x27 <g_curTextColor>
    37bc: 85 16        	sta	$16                     ; 0x16 <__rc20>
    37be: a0 24        	ldy	#$24
    37c0: b1 02        	lda	($2),y                  ; 0x2 <__rc0>
    37c2: 85 04        	sta	$4                      ; 0x4 <__rc2>
    37c4: c8           	iny
    37c5: b1 02        	lda	($2),y                  ; 0x2 <__rc0>
    37c7: 85 05        	sta	$5                      ; 0x5 <__rc3>
    37c9: 20 ba 4f     	jsr	$4fba <msprintf>
    37cc: a5 18        	lda	$18                     ; 0x18 <__rc22>
    37ce: 09 20        	ora	#$20
    37d0: 85 27        	sta	$27                     ; 0x27 <g_curTextColor>
    37d2: a2 f5        	ldx	#$f5
    37d4: 86 04        	stx	$4                      ; 0x4 <__rc2>
    37d6: a2 6e        	ldx	#$6e
    37d8: 86 05        	stx	$5                      ; 0x5 <__rc3>
    37da: 20 ba 4f     	jsr	$4fba <msprintf>
    37dd: a6 16        	ldx	$16                     ; 0x16 <__rc20>
    37df: 86 27        	stx	$27                     ; 0x27 <g_curTextColor>
    37e1: a2 7e        	ldx	#$7e
    37e3: 86 04        	stx	$4                      ; 0x4 <__rc2>
    37e5: a2 6f        	ldx	#$6f
    37e7: 86 05        	stx	$5                      ; 0x5 <__rc3>
    37e9: 20 ba 4f     	jsr	$4fba <msprintf>
    37ec: a2 b0        	ldx	#$b0
    37ee: 86 04        	stx	$4                      ; 0x4 <__rc2>
    37f0: a2 6a        	ldx	#$6a
    37f2: 86 05        	stx	$5                      ; 0x5 <__rc3>
    37f4: a2 08        	ldx	#$8
    37f6: a9 06        	lda	#$6
    37f8: 20 c8 4f     	jsr	$4fc8 <mcputsxy>
    37fb: a6 27        	ldx	$27                     ; 0x27 <g_curTextColor>
    37fd: 86 16        	stx	$16                     ; 0x16 <__rc20>
    37ff: a9 40        	lda	#$40
    3801: 05 27        	ora	$27                     ; 0x27 <g_curTextColor>
    3803: 85 27        	sta	$27                     ; 0x27 <g_curTextColor>
    3805: a2 97        	ldx	#$97
    3807: 86 04        	stx	$4                      ; 0x4 <__rc2>
    3809: a2 6a        	ldx	#$6a
    380b: 86 05        	stx	$5                      ; 0x5 <__rc3>
    380d: 20 ba 4f     	jsr	$4fba <msprintf>
    3810: a5 16        	lda	$16                     ; 0x16 <__rc20>
    3812: 29 bf        	and	#$bf
    3814: 85 27        	sta	$27                     ; 0x27 <g_curTextColor>
    3816: a2 3e        	ldx	#$3e
    3818: 86 04        	stx	$4                      ; 0x4 <__rc2>
    381a: a2 6f        	ldx	#$6f
    381c: 86 05        	stx	$5                      ; 0x5 <__rc3>
    381e: 20 ba 4f     	jsr	$4fba <msprintf>
    3821: a2 29        	ldx	#$29
    3823: 86 04        	stx	$4                      ; 0x4 <__rc2>
    3825: a2 6d        	ldx	#$6d
    3827: 86 05        	stx	$5                      ; 0x5 <__rc3>
    3829: a2 09        	ldx	#$9
    382b: a9 06        	lda	#$6
    382d: 20 c8 4f     	jsr	$4fc8 <mcputsxy>
    3830: a9 20        	lda	#$20
    3832: 05 27        	ora	$27                     ; 0x27 <g_curTextColor>
    3834: 85 27        	sta	$27                     ; 0x27 <g_curTextColor>
    3836: a0 24        	ldy	#$24
    3838: b1 02        	lda	($2),y                  ; 0x2 <__rc0>
    383a: 85 04        	sta	$4                      ; 0x4 <__rc2>
    383c: c8           	iny
    383d: b1 02        	lda	($2),y                  ; 0x2 <__rc0>
    383f: 85 05        	sta	$5                      ; 0x5 <__rc3>
    3841: a2 0b        	ldx	#$b
    3843: a9 06        	lda	#$6
    3845: 20 c8 4f     	jsr	$4fc8 <mcputsxy>
    3848: a9 1f        	lda	#$1f
    384a: 20 37 5f     	jsr	$5f37 <cputc>
    384d: a0 24        	ldy	#$24
    384f: b1 02        	lda	($2),y                  ; 0x2 <__rc0>
    3851: 85 04        	sta	$4                      ; 0x4 <__rc2>
    3853: c8           	iny
    3854: b1 02        	lda	($2),y                  ; 0x2 <__rc0>
    3856: 85 05        	sta	$5                      ; 0x5 <__rc3>
    3858: 20 ba 4f     	jsr	$4fba <msprintf>
    385b: a6 27        	ldx	$27                     ; 0x27 <g_curTextColor>
    385d: 86 16        	stx	$16                     ; 0x16 <__rc20>
    385f: a9 df        	lda	#$df
    3861: 25 27        	and	$27                     ; 0x27 <g_curTextColor>
    3863: 85 27        	sta	$27                     ; 0x27 <g_curTextColor>
    3865: a2 47        	ldx	#$47
    3867: 86 04        	stx	$4                      ; 0x4 <__rc2>
    3869: a2 6d        	ldx	#$6d
    386b: 86 05        	stx	$5                      ; 0x5 <__rc3>
    386d: 20 ba 4f     	jsr	$4fba <msprintf>
    3870: a5 16        	lda	$16                     ; 0x16 <__rc20>
    3872: 09 20        	ora	#$20
    3874: 85 27        	sta	$27                     ; 0x27 <g_curTextColor>
    3876: a2 1e        	ldx	#$1e
    3878: 86 04        	stx	$4                      ; 0x4 <__rc2>
    387a: a2 71        	ldx	#$71
    387c: 86 05        	stx	$5                      ; 0x5 <__rc3>
    387e: a2 0c        	ldx	#$c
    3880: a9 06        	lda	#$6
    3882: 20 c8 4f     	jsr	$4fc8 <mcputsxy>
    3885: a9 df        	lda	#$df
    3887: 25 27        	and	$27                     ; 0x27 <g_curTextColor>
    3889: 85 27        	sta	$27                     ; 0x27 <g_curTextColor>
    388b: a2 6c        	ldx	#$6c
    388d: 86 04        	stx	$4                      ; 0x4 <__rc2>
    388f: a2 70        	ldx	#$70
    3891: 86 05        	stx	$5                      ; 0x5 <__rc3>
    3893: 20 ba 4f     	jsr	$4fba <msprintf>
    3896: a2 fb        	ldx	#$fb
    3898: 86 04        	stx	$4                      ; 0x4 <__rc2>
    389a: a2 6d        	ldx	#$6d
    389c: 86 05        	stx	$5                      ; 0x5 <__rc3>
    389e: a2 0e        	ldx	#$e
    38a0: a9 06        	lda	#$6
    38a2: 20 c8 4f     	jsr	$4fc8 <mcputsxy>
    38a5: a2 b6        	ldx	#$b6
    38a7: 86 04        	stx	$4                      ; 0x4 <__rc2>
    38a9: a2 6c        	ldx	#$6c
    38ab: 86 05        	stx	$5                      ; 0x5 <__rc3>
    38ad: a2 0f        	ldx	#$f
    38af: a9 06        	lda	#$6
    38b1: 20 c8 4f     	jsr	$4fc8 <mcputsxy>
    38b4: a2 42        	ldx	#$42
    38b6: 86 04        	stx	$4                      ; 0x4 <__rc2>
    38b8: a2 68        	ldx	#$68
    38ba: 86 05        	stx	$5                      ; 0x5 <__rc3>
    38bc: a2 10        	ldx	#$10
    38be: a9 06        	lda	#$6
    38c0: 20 c8 4f     	jsr	$4fc8 <mcputsxy>
    38c3: a9 20        	lda	#$20
    38c5: 05 27        	ora	$27                     ; 0x27 <g_curTextColor>
    38c7: 85 27        	sta	$27                     ; 0x27 <g_curTextColor>
    38c9: a2 9f        	ldx	#$9f
    38cb: 86 04        	stx	$4                      ; 0x4 <__rc2>
    38cd: a2 70        	ldx	#$70
    38cf: 86 05        	stx	$5                      ; 0x5 <__rc3>
    38d1: a2 12        	ldx	#$12
    38d3: a9 06        	lda	#$6
    38d5: 20 c8 4f     	jsr	$4fc8 <mcputsxy>
    38d8: a6 27        	ldx	$27                     ; 0x27 <g_curTextColor>
    38da: 86 18        	stx	$18                     ; 0x18 <__rc22>
    38dc: a9 df        	lda	#$df
    38de: 25 27        	and	$27                     ; 0x27 <g_curTextColor>
    38e0: 85 27        	sta	$27                     ; 0x27 <g_curTextColor>
    38e2: 85 16        	sta	$16                     ; 0x16 <__rc20>
    38e4: a2 2a        	ldx	#$2a
    38e6: 86 04        	stx	$4                      ; 0x4 <__rc2>
    38e8: a2 6b        	ldx	#$6b
    38ea: 86 05        	stx	$5                      ; 0x5 <__rc3>
    38ec: 20 ba 4f     	jsr	$4fba <msprintf>
    38ef: a5 18        	lda	$18                     ; 0x18 <__rc22>
    38f1: 09 20        	ora	#$20
    38f3: 85 27        	sta	$27                     ; 0x27 <g_curTextColor>
    38f5: 85 18        	sta	$18                     ; 0x18 <__rc22>
    38f7: a2 5f        	ldx	#$5f
    38f9: 86 04        	stx	$4                      ; 0x4 <__rc2>
    38fb: a2 6f        	ldx	#$6f
    38fd: 86 05        	stx	$5                      ; 0x5 <__rc3>
    38ff: 20 ba 4f     	jsr	$4fba <msprintf>
    3902: a6 16        	ldx	$16                     ; 0x16 <__rc20>
    3904: 86 27        	stx	$27                     ; 0x27 <g_curTextColor>
    3906: a0 24        	ldy	#$24
    3908: b1 02        	lda	($2),y                  ; 0x2 <__rc0>
    390a: 85 04        	sta	$4                      ; 0x4 <__rc2>
    390c: c8           	iny
    390d: b1 02        	lda	($2),y                  ; 0x2 <__rc0>
    390f: 85 05        	sta	$5                      ; 0x5 <__rc3>
    3911: 20 ba 4f     	jsr	$4fba <msprintf>
    3914: a6 18        	ldx	$18                     ; 0x18 <__rc22>
    3916: 86 27        	stx	$27                     ; 0x27 <g_curTextColor>
    3918: a2 19        	ldx	#$19
    391a: 86 04        	stx	$4                      ; 0x4 <__rc2>
    391c: a2 6b        	ldx	#$6b
    391e: 86 05        	stx	$5                      ; 0x5 <__rc3>
    3920: 20 ba 4f     	jsr	$4fba <msprintf>
    3923: a6 16        	ldx	$16                     ; 0x16 <__rc20>
    3925: 86 27        	stx	$27                     ; 0x27 <g_curTextColor>
    3927: a2 40        	ldx	#$40
    3929: 86 04        	stx	$4                      ; 0x4 <__rc2>
    392b: a2 6e        	ldx	#$6e
    392d: 86 05        	stx	$5                      ; 0x5 <__rc3>
    392f: 20 ba 4f     	jsr	$4fba <msprintf>
    3932: a2 2d        	ldx	#$2d
    3934: 86 04        	stx	$4                      ; 0x4 <__rc2>
    3936: a2 6b        	ldx	#$6b
    3938: 86 05        	stx	$5                      ; 0x5 <__rc3>
    393a: a2 13        	ldx	#$13
    393c: a9 06        	lda	#$6
    393e: 20 c8 4f     	jsr	$4fc8 <mcputsxy>
    3941: a2 da        	ldx	#$da
    3943: 86 04        	stx	$4                      ; 0x4 <__rc2>
    3945: a2 6a        	ldx	#$6a
    3947: 86 05        	stx	$5                      ; 0x5 <__rc3>
    3949: a2 14        	ldx	#$14
    394b: a9 06        	lda	#$6
    394d: 20 c8 4f     	jsr	$4fc8 <mcputsxy>
    3950: a9 20        	lda	#$20
    3952: 05 27        	ora	$27                     ; 0x27 <g_curTextColor>
    3954: 85 27        	sta	$27                     ; 0x27 <g_curTextColor>
    3956: a2 21        	ldx	#$21
    3958: 86 04        	stx	$4                      ; 0x4 <__rc2>
    395a: a2 6b        	ldx	#$6b
    395c: 86 05        	stx	$5                      ; 0x5 <__rc3>
    395e: a2 16        	ldx	#$16
    3960: a9 24        	lda	#$24
    3962: 20 c8 4f     	jsr	$4fc8 <mcputsxy>
    3965: a9 df        	lda	#$df
    3967: 25 27        	and	$27                     ; 0x27 <g_curTextColor>
    3969: 85 27        	sta	$27                     ; 0x27 <g_curTextColor>
    396b: 20 6d 61     	jsr	$616d <cgetc>
    396e: c9 03        	cmp	#$3
    3970: f0 0f        	beq	$3981 <main+0x186f>
    3972: c9 0d        	cmp	#$d
    3974: f0 0b        	beq	$3981 <main+0x186f>
    3976: c9 1b        	cmp	#$1b
    3978: f0 07        	beq	$3981 <main+0x186f>
    397a: c9 20        	cmp	#$20
    397c: f0 03        	beq	$3981 <main+0x186f>
    397e: 4c 96 36     	jmp	$3696 <main+0x1584>
    3981: a5 17        	lda	$17                     ; 0x17 <__rc21>
    3983: 4c 04 23     	jmp	$2304 <main+0x1f2>
    3986: a6 1e        	ldx	$1e                     ; 0x1e <__rc28>
    3988: e0 03        	cpx	#$3
    398a: f0 03        	beq	$398f <main+0x187d>
    398c: 4c 69 2a     	jmp	$2a69 <main+0x957>
    398f: 4c 10 2f     	jmp	$2f10 <main+0xdfe>
    3992: a6 1e        	ldx	$1e                     ; 0x1e <__rc28>
    3994: e0 09        	cpx	#$9
    3996: f0 03        	beq	$399b <main+0x1889>
    3998: 4c 70 2a     	jmp	$2a70 <main+0x95e>
    399b: a0 24        	ldy	#$24
    399d: b1 02        	lda	($2),y                  ; 0x2 <__rc0>
    399f: 4c 04 23     	jmp	$2304 <main+0x1f2>
    39a2: a5 1c        	lda	$1c                     ; 0x1c <__rc26>
    39a4: f0 03        	beq	$39a9 <main+0x1897>
    39a6: 4c 93 3b     	jmp	$3b93 <donehyp1att0+0x9e>
    39a9: a6 1e        	ldx	$1e                     ; 0x1e <__rc28>
    39ab: e0 f5        	cpx	#$f5
    39ad: f0 03        	beq	$39b2 <main+0x18a0>
    39af: 4c 93 3b     	jmp	$3b93 <donehyp1att0+0x9e>
    39b2: a6 04        	ldx	$4                      ; 0x4 <__rc2>
    39b4: 86 16        	stx	$16                     ; 0x16 <__rc20>
    39b6: a6 05        	ldx	$5                      ; 0x5 <__rc3>
    39b8: 86 17        	stx	$17                     ; 0x17 <__rc21>
    39ba: a0 1f        	ldy	#$1f
    39bc: b1 02        	lda	($2),y                  ; 0x2 <__rc0>
    39be: 85 18        	sta	$18                     ; 0x18 <__rc22>
    39c0: 20 74 5d     	jsr	$5d74 <sizeselectcurrentifnone>
    39c3: 85 04        	sta	$4                      ; 0x4 <__rc2>
    39c5: 86 05        	stx	$5                      ; 0x5 <__rc3>
    39c7: a5 18        	lda	$18                     ; 0x18 <__rc22>
    39c9: 49 01        	eor	#$1
    39cb: a0 14        	ldy	#$14
    39cd: 91 02        	sta	($2),y                  ; 0x2 <__rc0>
    39cf: 0a           	asl
    39d0: 85 06        	sta	$6                      ; 0x6 <__zp_data_size>
    39d2: a9 00        	lda	#$0
    39d4: 2a           	rol
    39d5: 85 07        	sta	$7                      ; 0x7 <__rc5>
    39d7: a9 7e        	lda	#$7e
    39d9: 18           	clc
    39da: 65 06        	adc	$6                      ; 0x6 <__zp_data_size>
    39dc: 85 06        	sta	$6                      ; 0x6 <__zp_data_size>
    39de: a9 71        	lda	#$71
    39e0: 65 07        	adc	$7                      ; 0x7 <__rc5>
    39e2: 85 07        	sta	$7                      ; 0x7 <__rc5>
    39e4: b2 06        	lda	($6),z                  ; 0x6 <__zp_data_size>
    39e6: 85 08        	sta	$8                      ; 0x8 <__rc6>
    39e8: a0 01        	ldy	#$1
    39ea: b1 06        	lda	($6),y                  ; 0x6 <__zp_data_size>
    39ec: aa           	tax
    39ed: a5 08        	lda	$8                      ; 0x8 <__rc6>
    39ef: 85 18        	sta	$18                     ; 0x18 <__rc22>
    39f1: 86 19        	stx	$19                     ; 0x19 <__rc23>
    39f3: 18           	clc
    39f4: 69 44        	adc	#$44
    39f6: 85 06        	sta	$6                      ; 0x6 <__zp_data_size>
    39f8: 8a           	txa
    39f9: 69 00        	adc	#$0
    39fb: 85 07        	sta	$7                      ; 0x7 <__rc5>
    39fd: b1 06        	lda	($6),y                  ; 0x6 <__zp_data_size>
    39ff: c5 05        	cmp	$5                      ; 0x5 <__rc3>
    3a01: f0 03        	beq	$3a06 <main+0x18f4>
    3a03: 4c 1f 41     	jmp	$411f <donehyp1att0+0x62a>
    3a06: a0 44        	ldy	#$44
    3a08: b1 18        	lda	($18),y                 ; 0x18 <__rc22>
    3a0a: c5 04        	cmp	$4                      ; 0x4 <__rc2>
    3a0c: b0 03        	bcs	$3a11 <main+0x18ff>
    3a0e: 4c 26 41     	jmp	$4126 <donehyp1att0+0x631>
    3a11: a0 1f        	ldy	#$1f
    3a13: b1 02        	lda	($2),y                  ; 0x2 <__rc0>
    3a15: d0 03        	bne	$3a1a <main+0x1908>
    3a17: 4c 38 42     	jmp	$4238 <donehypchdir2+0x71>
    3a1a: a2 fa        	ldx	#$fa
    3a1c: 86 08        	stx	$8                      ; 0x8 <__rc6>
    3a1e: a2 6e        	ldx	#$6e
    3a20: 4c 3e 42     	jmp	$423e <donehypchdir2+0x77>
    3a23: a9 28        	lda	#$28
    3a25: a0 47        	ldy	#$47
    3a27: 91 18        	sta	($18),y                 ; 0x18 <__rc22>
    3a29: b2 18        	lda	($18),z                 ; 0x18 <__rc22>
    3a2b: 4c 9c 2e     	jmp	$2e9c <main+0xd8a>
    3a2e: 64 1a        	stz	$1a                     ; 0x1a <__rc24>
    3a30: 64 1b        	stz	$1b                     ; 0x1b <__rc25>
    3a32: a2 00        	ldx	#$0
    3a34: e4 1b        	cpx	$1b                     ; 0x1b <__rc25>
    3a36: d0 0b        	bne	$3a43 <main+0x1931>
    3a38: a0 02        	ldy	#$2
    3a3a: b1 18        	lda	($18),y                 ; 0x18 <__rc22>
    3a3c: c5 1a        	cmp	$1a                     ; 0x1a <__rc24>
    3a3e: b0 0a        	bcs	$3a4a <main+0x1938>
    3a40: 4c 81 39     	jmp	$3981 <main+0x186f>
    3a43: e4 1b        	cpx	$1b                     ; 0x1b <__rc25>
    3a45: b0 03        	bcs	$3a4a <main+0x1938>
    3a47: 4c 81 39     	jmp	$3981 <main+0x186f>
    3a4a: a6 1a        	ldx	$1a                     ; 0x1a <__rc24>
    3a4c: a5 17        	lda	$17                     ; 0x17 <__rc21>
    3a4e: 20 4e 4d     	jsr	$4d4e <getdirententry>
    3a51: a9 10        	lda	#$10
    3a53: a0 02        	ldy	#$2
    3a55: 31 04        	and	($4),y                  ; 0x4 <__rc2>
    3a57: f0 13        	beq	$3a6c <main+0x195a>
    3a59: a0 05        	ldy	#$5
    3a5b: b1 04        	lda	($4),y                  ; 0x4 <__rc2>
    3a5d: c9 2e        	cmp	#$2e
    3a5f: d0 0b        	bne	$3a6c <main+0x195a>
    3a61: a0 06        	ldy	#$6
    3a63: b1 04        	lda	($4),y                  ; 0x4 <__rc2>
    3a65: c9 2e        	cmp	#$2e
    3a67: d0 03        	bne	$3a6c <main+0x195a>
    3a69: 4c 37 41     	jmp	$4137 <donehyp1att0+0x642>
    3a6c: e6 1a        	inc	$1a                     ; 0x1a <__rc24>
    3a6e: f0 03        	beq	$3a73 <main+0x1961>
    3a70: 4c 32 3a     	jmp	$3a32 <main+0x1920>
    3a73: e6 1b        	inc	$1b                     ; 0x1b <__rc25>
    3a75: 4c 32 3a     	jmp	$3a32 <main+0x1920>
    3a78: e0 0d        	cpx	#$d
    3a7a: f0 03        	beq	$3a7f <main+0x196d>
    3a7c: 4c 0e 3b     	jmp	$3b0e <donehyp1att0+0x19>
    3a7f: a9 7e        	lda	#$7e
    3a81: 18           	clc
    3a82: 65 19        	adc	$19                     ; 0x19 <__rc23>
    3a84: 85 04        	sta	$4                      ; 0x4 <__rc2>
    3a86: a9 71        	lda	#$71
    3a88: 65 18        	adc	$18                     ; 0x18 <__rc22>
    3a8a: 85 05        	sta	$5                      ; 0x5 <__rc3>
    3a8c: b2 04        	lda	($4),z                  ; 0x4 <__rc2>
    3a8e: 85 18        	sta	$18                     ; 0x18 <__rc22>
    3a90: b1 04        	lda	($4),y                  ; 0x4 <__rc2>
    3a92: 85 19        	sta	$19                     ; 0x19 <__rc23>
    3a94: b1 18        	lda	($18),y                 ; 0x18 <__rc22>
    3a96: aa           	tax
    3a97: a5 17        	lda	$17                     ; 0x17 <__rc21>
    3a99: 20 4e 4d     	jsr	$4d4e <getdirententry>
    3a9c: a9 01        	lda	#$1
    3a9e: a0 46        	ldy	#$46
    3aa0: 31 18        	and	($18),y                 ; 0x18 <__rc22>
    3aa2: 29 01        	and	#$1
    3aa4: aa           	tax
    3aa5: a0 02        	ldy	#$2
    3aa7: b1 04        	lda	($4),y                  ; 0x4 <__rc2>
    3aa9: e0 00        	cpx	#$0
    3aab: f0 03        	beq	$3ab0 <main+0x199e>
    3aad: 4c e7 3c     	jmp	$3ce7 <donehyp1att0+0x1f2>
    3ab0: 48           	pha
    3ab1: a5 17        	lda	$17                     ; 0x17 <__rc21>
    3ab3: a0 1f        	ldy	#$1f
    3ab5: 91 02        	sta	($2),y                  ; 0x2 <__rc0>
    3ab7: 68           	pla
    3ab8: 29 10        	and	#$10
    3aba: f0 03        	beq	$3abf <main+0x19ad>
    3abc: 4c 98 41     	jmp	$4198 <donehypchdir1+0x2e>
    3abf: b2 18        	lda	($18),z                 ; 0x18 <__rc22>
    3ac1: 85 1a        	sta	$1a                     ; 0x1a <__rc24>
    3ac3: a5 04        	lda	$4                      ; 0x4 <__rc2>
    3ac5: 18           	clc
    3ac6: 69 05        	adc	#$5
    3ac8: 85 16        	sta	$16                     ; 0x16 <__rc20>
    3aca: a5 05        	lda	$5                      ; 0x5 <__rc3>
    3acc: 69 00        	adc	#$0
    3ace: 85 17        	sta	$17                     ; 0x17 <__rc21>
    3ad0: a6 16        	ldx	$16                     ; 0x16 <__rc20>
    3ad2: 86 04        	stx	$4                      ; 0x4 <__rc2>
    3ad4: 85 05        	sta	$5                      ; 0x5 <__rc3>
    3ad6: 20 77 45     	jsr	$4577 <hyppo_setname>
    3ad9: a5 1a        	lda	$1a                     ; 0x1a <__rc24>
    3adb: d0 03        	bne	$3ae0 <main+0x19ce>
    3add: 4c d3 43     	jmp	$43d3 <donehypchdir2+0x20c>
    3ae0: a2 00        	ldx	#$0
    3ae2: a9 46        	lda	#$46
    3ae4: 8d 40 d6     	sta	$d640                   ; 0xd640 <__heap_start+0x605a>
    3ae7: b8           	clv
    3ae8: 90 07        	bcc	$3af1 <errhyp1att0>
    3aea: a9 00        	lda	#$0
    3aec: 85 04        	sta	$4                      ; 0x4 <__rc2>
    3aee: 4c f5 3a     	jmp	$3af5 <donehyp1att0>

00003af1 <errhyp1att0>:
    3af1: a9 ff        	lda	#$ff
    3af3: 85 04        	sta	$4                      ; 0x4 <__rc2>

00003af5 <donehyp1att0>:
    3af5: ea           	nop
    3af6: a5 04        	lda	$4                      ; 0x4 <__rc2>
    3af8: d0 03        	bne	$3afd <donehyp1att0+0x8>
    3afa: 4c ec 43     	jmp	$43ec <donehyp0att3+0x4>
    3afd: a2 13        	ldx	#$13
    3aff: 86 04        	stx	$4                      ; 0x4 <__rc2>
    3b01: a2 6a        	ldx	#$6a
    3b03: 86 05        	stx	$5                      ; 0x5 <__rc3>
    3b05: a2 2d        	ldx	#$2d
    3b07: 86 06        	stx	$6                      ; 0x6 <__zp_data_size>
    3b09: a2 71        	ldx	#$71
    3b0b: 4c dc 41     	jmp	$41dc <donehypchdir2+0x15>
    3b0e: a5 1c        	lda	$1c                     ; 0x1c <__rc26>
    3b10: d0 28        	bne	$3b3a <donehyp1att0+0x45>
    3b12: e0 11        	cpx	#$11
    3b14: d0 24        	bne	$3b3a <donehyp1att0+0x45>
    3b16: a5 17        	lda	$17                     ; 0x17 <__rc21>
    3b18: 5a           	phy
    3b19: a0 1f        	ldy	#$1f
    3b1b: 91 02        	sta	($2),y                  ; 0x2 <__rc0>
    3b1d: 7a           	ply
    3b1e: a9 7e        	lda	#$7e
    3b20: 18           	clc
    3b21: 65 19        	adc	$19                     ; 0x19 <__rc23>
    3b23: 85 04        	sta	$4                      ; 0x4 <__rc2>
    3b25: a9 71        	lda	#$71
    3b27: 65 18        	adc	$18                     ; 0x18 <__rc22>
    3b29: 85 05        	sta	$5                      ; 0x5 <__rc3>
    3b2b: b2 04        	lda	($4),z                  ; 0x4 <__rc2>
    3b2d: aa           	tax
    3b2e: b1 04        	lda	($4),y                  ; 0x4 <__rc2>
    3b30: 86 04        	stx	$4                      ; 0x4 <__rc2>
    3b32: 85 05        	sta	$5                      ; 0x5 <__rc3>
    3b34: b1 04        	lda	($4),y                  ; 0x4 <__rc2>
    3b36: 1a           	inc
    3b37: 4c 17 36     	jmp	$3617 <main+0x1505>
    3b3a: a5 1c        	lda	$1c                     ; 0x1c <__rc26>
    3b3c: d0 07        	bne	$3b45 <donehyp1att0+0x50>
    3b3e: e0 5f        	cpx	#$5f
    3b40: d0 03        	bne	$3b45 <donehyp1att0+0x50>
    3b42: 4c 10 2f     	jmp	$2f10 <main+0xdfe>
    3b45: a5 1e        	lda	$1e                     ; 0x1e <__rc28>
    3b47: a6 1c        	ldx	$1c                     ; 0x1c <__rc26>
    3b49: d0 04        	bne	$3b4f <donehyp1att0+0x5a>
    3b4b: c9 91        	cmp	#$91
    3b4d: f0 1b        	beq	$3b6a <donehyp1att0+0x75>
    3b4f: a6 1c        	ldx	$1c                     ; 0x1c <__rc26>
    3b51: d0 07        	bne	$3b5a <donehyp1att0+0x65>
    3b53: c9 9d        	cmp	#$9d
    3b55: d0 03        	bne	$3b5a <donehyp1att0+0x65>
    3b57: 4c f5 3b     	jmp	$3bf5 <donehyp1att0+0x100>
    3b5a: a6 1c        	ldx	$1c                     ; 0x1c <__rc26>
    3b5c: e0 01        	cpx	#$1
    3b5e: f0 03        	beq	$3b63 <donehyp1att0+0x6e>
    3b60: 4c d6 3b     	jmp	$3bd6 <donehyp1att0+0xe1>
    3b63: c9 91        	cmp	#$91
    3b65: f0 03        	beq	$3b6a <donehyp1att0+0x75>
    3b67: 4c d6 3b     	jmp	$3bd6 <donehyp1att0+0xe1>
    3b6a: a5 17        	lda	$17                     ; 0x17 <__rc21>
    3b6c: 5a           	phy
    3b6d: a0 1f        	ldy	#$1f
    3b6f: 91 02        	sta	($2),y                  ; 0x2 <__rc0>
    3b71: 7a           	ply
    3b72: a9 7e        	lda	#$7e
    3b74: 18           	clc
    3b75: 65 19        	adc	$19                     ; 0x19 <__rc23>
    3b77: 85 04        	sta	$4                      ; 0x4 <__rc2>
    3b79: a9 71        	lda	#$71
    3b7b: 65 18        	adc	$18                     ; 0x18 <__rc22>
    3b7d: 85 05        	sta	$5                      ; 0x5 <__rc3>
    3b7f: b2 04        	lda	($4),z                  ; 0x4 <__rc2>
    3b81: aa           	tax
    3b82: b1 04        	lda	($4),y                  ; 0x4 <__rc2>
    3b84: 86 04        	stx	$4                      ; 0x4 <__rc2>
    3b86: 85 05        	sta	$5                      ; 0x5 <__rc3>
    3b88: b1 04        	lda	($4),y                  ; 0x4 <__rc2>
    3b8a: d0 03        	bne	$3b8f <donehyp1att0+0x9a>
    3b8c: 4c 08 23     	jmp	$2308 <main+0x1f6>
    3b8f: 3a           	dec
    3b90: 4c 17 36     	jmp	$3617 <main+0x1505>
    3b93: 98           	tya
    3b94: d0 03        	bne	$3b99 <donehyp1att0+0xa4>
    3b96: 4c 08 23     	jmp	$2308 <main+0x1f6>
    3b99: a0 1f        	ldy	#$1f
    3b9b: b1 02        	lda	($2),y                  ; 0x2 <__rc0>
    3b9d: d0 03        	bne	$3ba2 <donehyp1att0+0xad>
    3b9f: 4c 00 3d     	jmp	$3d00 <donehyp1att0+0x20b>
    3ba2: a2 94        	ldx	#$94
    3ba4: 86 08        	stx	$8                      ; 0x8 <__rc6>
    3ba6: a2 6d        	ldx	#$6d
    3ba8: 4c 06 3d     	jmp	$3d06 <donehyp1att0+0x211>
    3bab: a5 17        	lda	$17                     ; 0x17 <__rc21>
    3bad: 5a           	phy
    3bae: a0 1f        	ldy	#$1f
    3bb0: 91 02        	sta	($2),y                  ; 0x2 <__rc0>
    3bb2: 7a           	ply
    3bb3: a9 7e        	lda	#$7e
    3bb5: 18           	clc
    3bb6: 65 19        	adc	$19                     ; 0x19 <__rc23>
    3bb8: 85 04        	sta	$4                      ; 0x4 <__rc2>
    3bba: a9 71        	lda	#$71
    3bbc: 65 18        	adc	$18                     ; 0x18 <__rc22>
    3bbe: 85 05        	sta	$5                      ; 0x5 <__rc3>
    3bc0: b2 04        	lda	($4),z                  ; 0x4 <__rc2>
    3bc2: aa           	tax
    3bc3: b1 04        	lda	($4),y                  ; 0x4 <__rc2>
    3bc5: 86 04        	stx	$4                      ; 0x4 <__rc2>
    3bc7: 85 05        	sta	$5                      ; 0x5 <__rc3>
    3bc9: 18           	clc
    3bca: a9 0a        	lda	#$a
    3bcc: 71 04        	adc	($4),y                  ; 0x4 <__rc2>
    3bce: 4c 17 36     	jmp	$3617 <main+0x1505>
    3bd1: b2 16        	lda	($16),z                 ; 0x16 <__rc20>
    3bd3: 4c ee 41     	jmp	$41ee <donehypchdir2+0x27>
    3bd6: a6 1c        	ldx	$1c                     ; 0x1c <__rc26>
    3bd8: e0 01        	cpx	#$1
    3bda: d0 07        	bne	$3be3 <donehyp1att0+0xee>
    3bdc: c9 94        	cmp	#$94
    3bde: d0 03        	bne	$3be3 <donehyp1att0+0xee>
    3be0: 4c ac 40     	jmp	$40ac <donehyp1att0+0x5b7>
    3be3: a6 1c        	ldx	$1c                     ; 0x1c <__rc26>
    3be5: a5 1e        	lda	$1e                     ; 0x1e <__rc28>
    3be7: e0 01        	cpx	#$1
    3be9: f0 03        	beq	$3bee <donehyp1att0+0xf9>
    3beb: 4c 80 40     	jmp	$4080 <donehyp1att0+0x58b>
    3bee: c9 9d        	cmp	#$9d
    3bf0: f0 03        	beq	$3bf5 <donehyp1att0+0x100>
    3bf2: 4c 80 40     	jmp	$4080 <donehyp1att0+0x58b>
    3bf5: a5 17        	lda	$17                     ; 0x17 <__rc21>
    3bf7: 5a           	phy
    3bf8: a0 1f        	ldy	#$1f
    3bfa: 91 02        	sta	($2),y                  ; 0x2 <__rc0>
    3bfc: 7a           	ply
    3bfd: a9 7e        	lda	#$7e
    3bff: 18           	clc
    3c00: 65 19        	adc	$19                     ; 0x19 <__rc23>
    3c02: 85 04        	sta	$4                      ; 0x4 <__rc2>
    3c04: a9 71        	lda	#$71
    3c06: 65 18        	adc	$18                     ; 0x18 <__rc22>
    3c08: 85 05        	sta	$5                      ; 0x5 <__rc3>
    3c0a: b2 04        	lda	($4),z                  ; 0x4 <__rc2>
    3c0c: aa           	tax
    3c0d: b1 04        	lda	($4),y                  ; 0x4 <__rc2>
    3c0f: 86 04        	stx	$4                      ; 0x4 <__rc2>
    3c11: 85 05        	sta	$5                      ; 0x5 <__rc3>
    3c13: b1 04        	lda	($4),y                  ; 0x4 <__rc2>
    3c15: c9 0b        	cmp	#$b
    3c17: b0 03        	bcs	$3c1c <donehyp1att0+0x127>
    3c19: 4c e7 41     	jmp	$41e7 <donehypchdir2+0x20>
    3c1c: 18           	clc
    3c1d: 69 f6        	adc	#$f6
    3c1f: 4c 17 36     	jmp	$3617 <main+0x1505>
    3c22: 86 1a        	stx	$1a                     ; 0x1a <__rc24>
    3c24: 84 1c        	sty	$1c                     ; 0x1c <__rc26>
    3c26: a5 17        	lda	$17                     ; 0x17 <__rc21>
    3c28: 20 d7 4c     	jsr	$4cd7 <tracksectorstring>
    3c2b: a6 1c        	ldx	$1c                     ; 0x1c <__rc26>
    3c2d: 86 04        	stx	$4                      ; 0x4 <__rc2>
    3c2f: 06 04        	asl	$4                      ; 0x4 <__rc2>
    3c31: a5 1b        	lda	$1b                     ; 0x1b <__rc25>
    3c33: 2a           	rol
    3c34: 06 04        	asl	$4                      ; 0x4 <__rc2>
    3c36: 2a           	rol
    3c37: 18           	clc
    3c38: 69 32        	adc	#$32
    3c3a: a2 0d        	ldx	#$d
    3c3c: 86 04        	stx	$4                      ; 0x4 <__rc2>
    3c3e: a2 6f        	ldx	#$6f
    3c40: 86 05        	stx	$5                      ; 0x5 <__rc3>
    3c42: 48           	pha
    3c43: a0 20        	ldy	#$20
    3c45: b1 02        	lda	($2),y                  ; 0x2 <__rc0>
    3c47: 85 06        	sta	$6                      ; 0x6 <__zp_data_size>
    3c49: c8           	iny
    3c4a: b1 02        	lda	($2),y                  ; 0x2 <__rc0>
    3c4c: 85 07        	sta	$7                      ; 0x7 <__rc5>
    3c4e: 68           	pla
    3c4f: 20 5a 52     	jsr	$525a <progress>
    3c52: 18           	clc
    3c53: a5 1c        	lda	$1c                     ; 0x1c <__rc26>
    3c55: 69 20        	adc	#$20
    3c57: 85 0c        	sta	$c                      ; 0xc <__rc10>
    3c59: a5 1b        	lda	$1b                     ; 0x1b <__rc25>
    3c5b: 69 00        	adc	#$0
    3c5d: 85 04        	sta	$4                      ; 0x4 <__rc2>
    3c5f: a9 00        	lda	#$0
    3c61: 69 08        	adc	#$8
    3c63: 85 05        	sta	$5                      ; 0x5 <__rc3>
    3c65: 64 06        	stz	$6                      ; 0x6 <__zp_data_size>
    3c67: a2 18        	ldx	#$18
    3c69: 86 07        	stx	$7                      ; 0x7 <__rc5>
    3c6b: 64 08        	stz	$8                      ; 0x8 <__rc6>
    3c6d: 64 09        	stz	$9                      ; 0x9 <__rc7>
    3c6f: 64 0a        	stz	$a                      ; 0xa <__rc8>
    3c71: a2 01        	ldx	#$1
    3c73: 86 0b        	stx	$b                      ; 0xb <__rc9>
    3c75: a6 0c        	ldx	$c                      ; 0xc <__rc10>
    3c77: a9 00        	lda	#$0
    3c79: 20 9d 61     	jsr	$619d <lcopy>
    3c7c: a0 19        	ldy	#$19
    3c7e: b1 02        	lda	($2),y                  ; 0x2 <__rc0>
    3c80: 85 04        	sta	$4                      ; 0x4 <__rc2>
    3c82: c8           	iny
    3c83: b1 02        	lda	($2),y                  ; 0x2 <__rc0>
    3c85: 85 05        	sta	$5                      ; 0x5 <__rc3>
    3c87: a6 1a        	ldx	$1a                     ; 0x1a <__rc24>
    3c89: 86 06        	stx	$6                      ; 0x6 <__zp_data_size>
    3c8b: a6 17        	ldx	$17                     ; 0x17 <__rc21>
    3c8d: a0 1d        	ldy	#$1d
    3c8f: b1 02        	lda	($2),y                  ; 0x2 <__rc0>
    3c91: 20 ca 46     	jsr	$46ca <PutOneSector>
    3c94: a6 1a        	ldx	$1a                     ; 0x1a <__rc24>
    3c96: e8           	inx
    3c97: 86 04        	stx	$4                      ; 0x4 <__rc2>
    3c99: a5 18        	lda	$18                     ; 0x18 <__rc22>
    3c9b: 18           	clc
    3c9c: 65 04        	adc	$4                      ; 0x4 <__rc2>
    3c9e: a8           	tay
    3c9f: a5 19        	lda	$19                     ; 0x19 <__rc23>
    3ca1: 69 00        	adc	#$0
    3ca3: 85 1b        	sta	$1b                     ; 0x1b <__rc25>
    3ca5: e0 28        	cpx	#$28
    3ca7: f0 03        	beq	$3cac <donehyp1att0+0x1b7>
    3ca9: 4c 22 3c     	jmp	$3c22 <donehyp1att0+0x12d>
    3cac: a6 17        	ldx	$17                     ; 0x17 <__rc21>
    3cae: e8           	inx
    3caf: 84 18        	sty	$18                     ; 0x18 <__rc22>
    3cb1: 85 19        	sta	$19                     ; 0x19 <__rc23>
    3cb3: e0 51        	cpx	#$51
    3cb5: d0 03        	bne	$3cba <donehyp1att0+0x1c5>
    3cb7: 4c 3c 43     	jmp	$433c <donehypchdir2+0x175>
    3cba: 86 17        	stx	$17                     ; 0x17 <__rc21>
    3cbc: a2 28        	ldx	#$28
    3cbe: 86 04        	stx	$4                      ; 0x4 <__rc2>
    3cc0: a2 00        	ldx	#$0
    3cc2: 86 05        	stx	$5                      ; 0x5 <__rc3>
    3cc4: a5 04        	lda	$4                      ; 0x4 <__rc2>
    3cc6: a0 20        	ldy	#$20
    3cc8: 91 02        	sta	($2),y                  ; 0x2 <__rc0>
    3cca: a5 05        	lda	$5                      ; 0x5 <__rc3>
    3ccc: c8           	iny
    3ccd: 91 02        	sta	($2),y                  ; 0x2 <__rc0>
    3ccf: a2 00        	ldx	#$0
    3cd1: 86 04        	stx	$4                      ; 0x4 <__rc2>
    3cd3: a2 18        	ldx	#$18
    3cd5: 86 05        	stx	$5                      ; 0x5 <__rc3>
    3cd7: a5 04        	lda	$4                      ; 0x4 <__rc2>
    3cd9: a0 19        	ldy	#$19
    3cdb: 91 02        	sta	($2),y                  ; 0x2 <__rc0>
    3cdd: a5 05        	lda	$5                      ; 0x5 <__rc3>
    3cdf: c8           	iny
    3ce0: 91 02        	sta	($2),y                  ; 0x2 <__rc0>
    3ce2: a2 00        	ldx	#$0
    3ce4: 4c 97 3c     	jmp	$3c97 <donehyp1att0+0x1a2>
    3ce7: 29 0f        	and	#$f
    3ce9: c9 05        	cmp	#$5
    3ceb: f0 03        	beq	$3cf0 <donehyp1att0+0x1fb>
    3ced: 4c fa 40     	jmp	$40fa <donehyp1att0+0x605>
    3cf0: b1 18        	lda	($18),y                 ; 0x18 <__rc22>
    3cf2: c9 ff        	cmp	#$ff
    3cf4: d0 03        	bne	$3cf9 <donehyp1att0+0x204>
    3cf6: 4c fa 40     	jmp	$40fa <donehyp1att0+0x605>
    3cf9: a0 03        	ldy	#$3
    3cfb: b1 04        	lda	($4),y                  ; 0x4 <__rc2>
    3cfd: 4c 25 3a     	jmp	$3a25 <main+0x1913>
    3d00: a2 87        	ldx	#$87
    3d02: 86 08        	stx	$8                      ; 0x8 <__rc6>
    3d04: a2 69        	ldx	#$69
    3d06: 86 09        	stx	$9                      ; 0x9 <__rc7>
    3d08: a5 06        	lda	$6                      ; 0x6 <__zp_data_size>
    3d0a: 18           	clc
    3d0b: 69 05        	adc	#$5
    3d0d: 85 06        	sta	$6                      ; 0x6 <__zp_data_size>
    3d0f: a5 07        	lda	$7                      ; 0x7 <__rc5>
    3d11: 69 00        	adc	#$0
    3d13: 85 07        	sta	$7                      ; 0x7 <__rc5>
    3d15: a2 6d        	ldx	#$6d
    3d17: 86 04        	stx	$4                      ; 0x4 <__rc2>
    3d19: a2 71        	ldx	#$71
    3d1b: 86 05        	stx	$5                      ; 0x5 <__rc3>
    3d1d: a9 00        	lda	#$0
    3d1f: 20 69 51     	jsr	$5169 <messagebox>
    3d22: aa           	tax
    3d23: d0 03        	bne	$3d28 <donehyp1att0+0x233>
    3d25: 4c 08 23     	jmp	$2308 <main+0x1f6>
    3d28: a0 1f        	ldy	#$1f
    3d2a: b1 02        	lda	($2),y                  ; 0x2 <__rc0>
    3d2c: 20 74 5d     	jsr	$5d74 <sizeselectcurrentifnone>
    3d2f: 38           	sec
    3d30: a0 20        	ldy	#$20
    3d32: b1 02        	lda	($2),y                  ; 0x2 <__rc0>
    3d34: e5 1b        	sbc	$1b                     ; 0x1b <__rc25>
    3d36: 85 04        	sta	$4                      ; 0x4 <__rc2>
    3d38: a0 22        	ldy	#$22
    3d3a: b1 02        	lda	($2),y                  ; 0x2 <__rc0>
    3d3c: e5 1a        	sbc	$1a                     ; 0x1a <__rc24>
    3d3e: 85 05        	sta	$5                      ; 0x5 <__rc3>
    3d40: a9 d7        	lda	#$d7
    3d42: 18           	clc
    3d43: 65 04        	adc	$4                      ; 0x4 <__rc2>
    3d45: aa           	tax
    3d46: a9 71        	lda	#$71
    3d48: 65 05        	adc	$5                      ; 0x5 <__rc3>
    3d4a: a8           	tay
    3d4b: 64 04        	stz	$4                      ; 0x4 <__rc2>
    3d4d: a5 16        	lda	$16                     ; 0x16 <__rc20>
    3d4f: c9 01        	cmp	#$1
    3d51: 26 04        	rol	$4                      ; 0x4 <__rc2>
    3d53: a5 04        	lda	$4                      ; 0x4 <__rc2>
    3d55: 85 07        	sta	$7                      ; 0x7 <__rc5>
    3d57: a5 1d        	lda	$1d                     ; 0x1d <__rc27>
    3d59: c9 01        	cmp	#$1
    3d5b: 26 07        	rol	$7                      ; 0x7 <__rc5>
    3d5d: a5 21        	lda	$21                     ; 0x21 <__rc31>
    3d5f: c9 01        	cmp	#$1
    3d61: 26 07        	rol	$7                      ; 0x7 <__rc5>
    3d63: a5 1f        	lda	$1f                     ; 0x1f <__rc29>
    3d65: 0a           	asl
    3d66: 26 20        	rol	$20                     ; 0x20 <__rc30>
    3d68: 26 07        	rol	$7                      ; 0x7 <__rc5>
    3d6a: 38           	sec
    3d6b: e5 19        	sbc	$19                     ; 0x19 <__rc23>
    3d6d: 85 06        	sta	$6                      ; 0x6 <__zp_data_size>
    3d6f: a5 20        	lda	$20                     ; 0x20 <__rc30>
    3d71: e5 18        	sbc	$18                     ; 0x18 <__rc22>
    3d73: 85 08        	sta	$8                      ; 0x8 <__rc6>
    3d75: a5 07        	lda	$7                      ; 0x7 <__rc5>
    3d77: e5 04        	sbc	$4                      ; 0x4 <__rc2>
    3d79: 86 18        	stx	$18                     ; 0x18 <__rc22>
    3d7b: 84 19        	sty	$19                     ; 0x19 <__rc23>
    3d7d: 48           	pha
    3d7e: a5 06        	lda	$6                      ; 0x6 <__zp_data_size>
    3d80: a0 17        	ldy	#$17
    3d82: 91 02        	sta	($2),y                  ; 0x2 <__rc0>
    3d84: a0 11        	ldy	#$11
    3d86: 91 02        	sta	($2),y                  ; 0x2 <__rc0>
    3d88: a5 08        	lda	$8                      ; 0x8 <__rc6>
    3d8a: a0 15        	ldy	#$15
    3d8c: 91 02        	sta	($2),y                  ; 0x2 <__rc0>
    3d8e: a0 0f        	ldy	#$f
    3d90: 91 02        	sta	($2),y                  ; 0x2 <__rc0>
    3d92: 68           	pla
    3d93: 09 08        	ora	#$8
    3d95: a0 14        	ldy	#$14
    3d97: 91 02        	sta	($2),y                  ; 0x2 <__rc0>
    3d99: a0 0e        	ldy	#$e
    3d9b: 91 02        	sta	($2),y                  ; 0x2 <__rc0>
    3d9d: a0 00        	ldy	#$0
    3d9f: 5a           	phy
    3da0: a0 1d        	ldy	#$1d
    3da2: b1 02        	lda	($2),y                  ; 0x2 <__rc0>
    3da4: 85 16        	sta	$16                     ; 0x16 <__rc20>
    3da6: c8           	iny
    3da7: b1 02        	lda	($2),y                  ; 0x2 <__rc0>
    3da9: 7a           	ply
    3daa: 85 17        	sta	$17                     ; 0x17 <__rc21>
    3dac: 4c 89 2a     	jmp	$2a89 <main+0x977>
    3daf: 86 06        	stx	$6                      ; 0x6 <__zp_data_size>
    3db1: c0 10        	cpy	#$10
    3db3: 90 03        	bcc	$3db8 <donehyp1att0+0x2c3>
    3db5: 4c f0 3d     	jmp	$3df0 <donehyp1att0+0x2fb>
    3db8: 06 04        	asl	$4                      ; 0x4 <__rc2>
    3dba: 84 21        	sty	$21                     ; 0x21 <__rc31>
    3dbc: aa           	tax
    3dbd: a9 00        	lda	#$0
    3dbf: 2a           	rol
    3dc0: 85 05        	sta	$5                      ; 0x5 <__rc3>
    3dc2: a5 04        	lda	$4                      ; 0x4 <__rc2>
    3dc4: 0a           	asl
    3dc5: a4 05        	ldy	$5                      ; 0x5 <__rc3>
    3dc7: 84 07        	sty	$7                      ; 0x7 <__rc5>
    3dc9: 26 07        	rol	$7                      ; 0x7 <__rc5>
    3dcb: 18           	clc
    3dcc: 65 04        	adc	$4                      ; 0x4 <__rc2>
    3dce: 85 04        	sta	$4                      ; 0x4 <__rc2>
    3dd0: a5 07        	lda	$7                      ; 0x7 <__rc5>
    3dd2: 65 05        	adc	$5                      ; 0x5 <__rc3>
    3dd4: 85 05        	sta	$5                      ; 0x5 <__rc3>
    3dd6: a5 06        	lda	$6                      ; 0x6 <__zp_data_size>
    3dd8: 18           	clc
    3dd9: 65 04        	adc	$4                      ; 0x4 <__rc2>
    3ddb: 85 04        	sta	$4                      ; 0x4 <__rc2>
    3ddd: 8a           	txa
    3dde: 65 05        	adc	$5                      ; 0x5 <__rc3>
    3de0: 85 05        	sta	$5                      ; 0x5 <__rc3>
    3de2: a0 12        	ldy	#$12
    3de4: b1 04        	lda	($4),y                  ; 0x4 <__rc2>
    3de6: 85 1b        	sta	$1b                     ; 0x1b <__rc25>
    3de8: a5 21        	lda	$21                     ; 0x21 <__rc31>
    3dea: 18           	clc
    3deb: 69 f8        	adc	#$f8
    3ded: 4c 9d 3e     	jmp	$3e9d <donehyp1att0+0x3a8>
    3df0: c0 18        	cpy	#$18
    3df2: 90 03        	bcc	$3df7 <donehyp1att0+0x302>
    3df4: 4c 2f 3e     	jmp	$3e2f <donehyp1att0+0x33a>
    3df7: 06 04        	asl	$4                      ; 0x4 <__rc2>
    3df9: 84 21        	sty	$21                     ; 0x21 <__rc31>
    3dfb: aa           	tax
    3dfc: a9 00        	lda	#$0
    3dfe: 2a           	rol
    3dff: 85 05        	sta	$5                      ; 0x5 <__rc3>
    3e01: a5 04        	lda	$4                      ; 0x4 <__rc2>
    3e03: 0a           	asl
    3e04: a4 05        	ldy	$5                      ; 0x5 <__rc3>
    3e06: 84 07        	sty	$7                      ; 0x7 <__rc5>
    3e08: 26 07        	rol	$7                      ; 0x7 <__rc5>
    3e0a: 18           	clc
    3e0b: 65 04        	adc	$4                      ; 0x4 <__rc2>
    3e0d: 85 04        	sta	$4                      ; 0x4 <__rc2>
    3e0f: a5 07        	lda	$7                      ; 0x7 <__rc5>
    3e11: 65 05        	adc	$5                      ; 0x5 <__rc3>
    3e13: 85 05        	sta	$5                      ; 0x5 <__rc3>
    3e15: a5 06        	lda	$6                      ; 0x6 <__zp_data_size>
    3e17: 18           	clc
    3e18: 65 04        	adc	$4                      ; 0x4 <__rc2>
    3e1a: 85 04        	sta	$4                      ; 0x4 <__rc2>
    3e1c: 8a           	txa
    3e1d: 65 05        	adc	$5                      ; 0x5 <__rc3>
    3e1f: 85 05        	sta	$5                      ; 0x5 <__rc3>
    3e21: a0 13        	ldy	#$13
    3e23: b1 04        	lda	($4),y                  ; 0x4 <__rc2>
    3e25: 85 1b        	sta	$1b                     ; 0x1b <__rc25>
    3e27: a5 21        	lda	$21                     ; 0x21 <__rc31>
    3e29: 18           	clc
    3e2a: 69 f0        	adc	#$f0
    3e2c: 4c 9d 3e     	jmp	$3e9d <donehyp1att0+0x3a8>
    3e2f: 18           	clc
    3e30: 8a           	txa
    3e31: 69 10        	adc	#$10
    3e33: aa           	tax
    3e34: a5 05        	lda	$5                      ; 0x5 <__rc3>
    3e36: 69 00        	adc	#$0
    3e38: 85 06        	sta	$6                      ; 0x6 <__zp_data_size>
    3e3a: 06 04        	asl	$4                      ; 0x4 <__rc2>
    3e3c: 5a           	phy
    3e3d: a4 04        	ldy	$4                      ; 0x4 <__rc2>
    3e3f: 84 05        	sty	$5                      ; 0x5 <__rc3>
    3e41: 64 04        	stz	$4                      ; 0x4 <__rc2>
    3e43: 26 04        	rol	$4                      ; 0x4 <__rc2>
    3e45: a5 05        	lda	$5                      ; 0x5 <__rc3>
    3e47: 0a           	asl
    3e48: a4 04        	ldy	$4                      ; 0x4 <__rc2>
    3e4a: 84 07        	sty	$7                      ; 0x7 <__rc5>
    3e4c: 7a           	ply
    3e4d: 26 07        	rol	$7                      ; 0x7 <__rc5>
    3e4f: c0 20        	cpy	#$20
    3e51: 84 21        	sty	$21                     ; 0x21 <__rc31>
    3e53: b0 25        	bcs	$3e7a <donehyp1att0+0x385>
    3e55: 18           	clc
    3e56: 65 05        	adc	$5                      ; 0x5 <__rc3>
    3e58: 85 05        	sta	$5                      ; 0x5 <__rc3>
    3e5a: a5 07        	lda	$7                      ; 0x7 <__rc5>
    3e5c: 65 04        	adc	$4                      ; 0x4 <__rc2>
    3e5e: 85 04        	sta	$4                      ; 0x4 <__rc2>
    3e60: 8a           	txa
    3e61: 18           	clc
    3e62: 65 05        	adc	$5                      ; 0x5 <__rc3>
    3e64: aa           	tax
    3e65: a5 06        	lda	$6                      ; 0x6 <__zp_data_size>
    3e67: 65 04        	adc	$4                      ; 0x4 <__rc2>
    3e69: 86 04        	stx	$4                      ; 0x4 <__rc2>
    3e6b: 85 05        	sta	$5                      ; 0x5 <__rc3>
    3e6d: a0 04        	ldy	#$4
    3e6f: b1 04        	lda	($4),y                  ; 0x4 <__rc2>
    3e71: 85 1b        	sta	$1b                     ; 0x1b <__rc25>
    3e73: a5 21        	lda	$21                     ; 0x21 <__rc31>
    3e75: 18           	clc
    3e76: 69 e8        	adc	#$e8
    3e78: 80 23        	bra	$3e9d <donehyp1att0+0x3a8>
    3e7a: 18           	clc
    3e7b: 65 05        	adc	$5                      ; 0x5 <__rc3>
    3e7d: 85 05        	sta	$5                      ; 0x5 <__rc3>
    3e7f: a5 07        	lda	$7                      ; 0x7 <__rc5>
    3e81: 65 04        	adc	$4                      ; 0x4 <__rc2>
    3e83: 85 04        	sta	$4                      ; 0x4 <__rc2>
    3e85: 8a           	txa
    3e86: 18           	clc
    3e87: 65 05        	adc	$5                      ; 0x5 <__rc3>
    3e89: aa           	tax
    3e8a: a5 06        	lda	$6                      ; 0x6 <__zp_data_size>
    3e8c: 65 04        	adc	$4                      ; 0x4 <__rc2>
    3e8e: 86 04        	stx	$4                      ; 0x4 <__rc2>
    3e90: 85 05        	sta	$5                      ; 0x5 <__rc3>
    3e92: a0 05        	ldy	#$5
    3e94: b1 04        	lda	($4),y                  ; 0x4 <__rc2>
    3e96: 85 1b        	sta	$1b                     ; 0x1b <__rc25>
    3e98: a5 21        	lda	$21                     ; 0x21 <__rc31>
    3e9a: 18           	clc
    3e9b: 69 e0        	adc	#$e0
    3e9d: 85 04        	sta	$4                      ; 0x4 <__rc2>
    3e9f: a2 00        	ldx	#$0
    3ea1: a9 01        	lda	#$1
    3ea3: 20 35 63     	jsr	$6335 <__ashlhi3>
    3ea6: 25 1b        	and	$1b                     ; 0x1b <__rc25>
    3ea8: f0 03        	beq	$3ead <donehyp1att0+0x3b8>
    3eaa: 4c c9 3f     	jmp	$3fc9 <donehyp1att0+0x4d4>
    3ead: a6 21        	ldx	$21                     ; 0x21 <__rc31>
    3eaf: a0 22        	ldy	#$22
    3eb1: b1 02        	lda	($2),y                  ; 0x2 <__rc0>
    3eb3: 85 17        	sta	$17                     ; 0x17 <__rc21>
    3eb5: 20 d7 4c     	jsr	$4cd7 <tracksectorstring>
    3eb8: a6 20        	ldx	$20                     ; 0x20 <__rc30>
    3eba: 86 16        	stx	$16                     ; 0x16 <__rc20>
    3ebc: 06 20        	asl	$20                     ; 0x20 <__rc30>
    3ebe: a6 1e        	ldx	$1e                     ; 0x1e <__rc28>
    3ec0: 86 1b        	stx	$1b                     ; 0x1b <__rc25>
    3ec2: a5 1e        	lda	$1e                     ; 0x1e <__rc28>
    3ec4: 2a           	rol
    3ec5: 06 20        	asl	$20                     ; 0x20 <__rc30>
    3ec7: 2a           	rol
    3ec8: a2 a4        	ldx	#$a4
    3eca: 86 04        	stx	$4                      ; 0x4 <__rc2>
    3ecc: a2 70        	ldx	#$70
    3ece: 86 05        	stx	$5                      ; 0x5 <__rc3>
    3ed0: a2 28        	ldx	#$28
    3ed2: 86 06        	stx	$6                      ; 0x6 <__zp_data_size>
    3ed4: a2 00        	ldx	#$0
    3ed6: 86 07        	stx	$7                      ; 0x7 <__rc5>
    3ed8: 48           	pha
    3ed9: a5 06        	lda	$6                      ; 0x6 <__zp_data_size>
    3edb: a0 20        	ldy	#$20
    3edd: 91 02        	sta	($2),y                  ; 0x2 <__rc0>
    3edf: a5 07        	lda	$7                      ; 0x7 <__rc5>
    3ee1: c8           	iny
    3ee2: 91 02        	sta	($2),y                  ; 0x2 <__rc0>
    3ee4: 88           	dey
    3ee5: b1 02        	lda	($2),y                  ; 0x2 <__rc0>
    3ee7: 85 18        	sta	$18                     ; 0x18 <__rc22>
    3ee9: c8           	iny
    3eea: b1 02        	lda	($2),y                  ; 0x2 <__rc0>
    3eec: 85 19        	sta	$19                     ; 0x19 <__rc23>
    3eee: 88           	dey
    3eef: b1 02        	lda	($2),y                  ; 0x2 <__rc0>
    3ef1: 85 06        	sta	$6                      ; 0x6 <__zp_data_size>
    3ef3: c8           	iny
    3ef4: b1 02        	lda	($2),y                  ; 0x2 <__rc0>
    3ef6: 85 07        	sta	$7                      ; 0x7 <__rc5>
    3ef8: 68           	pla
    3ef9: 85 20        	sta	$20                     ; 0x20 <__rc30>
    3efb: 20 5a 52     	jsr	$525a <progress>
    3efe: a2 00        	ldx	#$0
    3f00: 86 04        	stx	$4                      ; 0x4 <__rc2>
    3f02: a2 18        	ldx	#$18
    3f04: 86 05        	stx	$5                      ; 0x5 <__rc3>
    3f06: a5 04        	lda	$4                      ; 0x4 <__rc2>
    3f08: a0 19        	ldy	#$19
    3f0a: 91 02        	sta	($2),y                  ; 0x2 <__rc0>
    3f0c: a5 05        	lda	$5                      ; 0x5 <__rc3>
    3f0e: c8           	iny
    3f0f: 91 02        	sta	($2),y                  ; 0x2 <__rc0>
    3f11: 88           	dey
    3f12: b1 02        	lda	($2),y                  ; 0x2 <__rc0>
    3f14: 85 1e        	sta	$1e                     ; 0x1e <__rc28>
    3f16: c8           	iny
    3f17: b1 02        	lda	($2),y                  ; 0x2 <__rc0>
    3f19: 85 1f        	sta	$1f                     ; 0x1f <__rc29>
    3f1b: 88           	dey
    3f1c: b1 02        	lda	($2),y                  ; 0x2 <__rc0>
    3f1e: 85 04        	sta	$4                      ; 0x4 <__rc2>
    3f20: c8           	iny
    3f21: b1 02        	lda	($2),y                  ; 0x2 <__rc0>
    3f23: 85 05        	sta	$5                      ; 0x5 <__rc3>
    3f25: a6 21        	ldx	$21                     ; 0x21 <__rc31>
    3f27: 86 06        	stx	$6                      ; 0x6 <__zp_data_size>
    3f29: a6 17        	ldx	$17                     ; 0x17 <__rc21>
    3f2b: c8           	iny
    3f2c: b1 02        	lda	($2),y                  ; 0x2 <__rc0>
    3f2e: 20 87 46     	jsr	$4687 <GetOneSector>
    3f31: c9 02        	cmp	#$2
    3f33: a2 01        	ldx	#$1
    3f35: 90 03        	bcc	$3f3a <donehyp1att0+0x445>
    3f37: 4c 3c 43     	jmp	$433c <donehypchdir2+0x175>
    3f3a: 18           	clc
    3f3b: a5 16        	lda	$16                     ; 0x16 <__rc20>
    3f3d: 69 20        	adc	#$20
    3f3f: 85 16        	sta	$16                     ; 0x16 <__rc20>
    3f41: a5 1b        	lda	$1b                     ; 0x1b <__rc25>
    3f43: 69 00        	adc	#$0
    3f45: 85 1b        	sta	$1b                     ; 0x1b <__rc25>
    3f47: a9 00        	lda	#$0
    3f49: 69 08        	adc	#$8
    3f4b: 64 04        	stz	$4                      ; 0x4 <__rc2>
    3f4d: 64 05        	stz	$5                      ; 0x5 <__rc3>
    3f4f: 64 06        	stz	$6                      ; 0x6 <__zp_data_size>
    3f51: a4 16        	ldy	$16                     ; 0x16 <__rc20>
    3f53: 84 07        	sty	$7                      ; 0x7 <__rc5>
    3f55: a4 1b        	ldy	$1b                     ; 0x1b <__rc25>
    3f57: 84 08        	sty	$8                      ; 0x8 <__rc6>
    3f59: 85 09        	sta	$9                      ; 0x9 <__rc7>
    3f5b: a4 1c        	ldy	$1c                     ; 0x1c <__rc26>
    3f5d: 84 1a        	sty	$1a                     ; 0x1a <__rc24>
    3f5f: 85 1c        	sta	$1c                     ; 0x1c <__rc26>
    3f61: 64 0a        	stz	$a                      ; 0xa <__rc8>
    3f63: 86 0b        	stx	$b                      ; 0xb <__rc9>
    3f65: a2 18        	ldx	#$18
    3f67: a9 00        	lda	#$0
    3f69: 20 9d 61     	jsr	$619d <lcopy>
    3f6c: a6 21        	ldx	$21                     ; 0x21 <__rc31>
    3f6e: a5 17        	lda	$17                     ; 0x17 <__rc21>
    3f70: 20 d7 4c     	jsr	$4cd7 <tracksectorstring>
    3f73: 18           	clc
    3f74: a5 20        	lda	$20                     ; 0x20 <__rc30>
    3f76: 69 32        	adc	#$32
    3f78: a2 0d        	ldx	#$d
    3f7a: 86 04        	stx	$4                      ; 0x4 <__rc2>
    3f7c: a2 6f        	ldx	#$6f
    3f7e: 86 05        	stx	$5                      ; 0x5 <__rc3>
    3f80: a6 18        	ldx	$18                     ; 0x18 <__rc22>
    3f82: 86 06        	stx	$6                      ; 0x6 <__zp_data_size>
    3f84: a6 19        	ldx	$19                     ; 0x19 <__rc23>
    3f86: 86 07        	stx	$7                      ; 0x7 <__rc5>
    3f88: 20 5a 52     	jsr	$525a <progress>
    3f8b: a6 1b        	ldx	$1b                     ; 0x1b <__rc25>
    3f8d: 86 04        	stx	$4                      ; 0x4 <__rc2>
    3f8f: a6 1c        	ldx	$1c                     ; 0x1c <__rc26>
    3f91: 86 05        	stx	$5                      ; 0x5 <__rc3>
    3f93: a6 1a        	ldx	$1a                     ; 0x1a <__rc24>
    3f95: 86 1c        	stx	$1c                     ; 0x1c <__rc26>
    3f97: 64 06        	stz	$6                      ; 0x6 <__zp_data_size>
    3f99: a2 18        	ldx	#$18
    3f9b: 86 07        	stx	$7                      ; 0x7 <__rc5>
    3f9d: 64 08        	stz	$8                      ; 0x8 <__rc6>
    3f9f: 64 09        	stz	$9                      ; 0x9 <__rc7>
    3fa1: 64 0a        	stz	$a                      ; 0xa <__rc8>
    3fa3: a2 01        	ldx	#$1
    3fa5: 86 0b        	stx	$b                      ; 0xb <__rc9>
    3fa7: a6 16        	ldx	$16                     ; 0x16 <__rc20>
    3fa9: a9 00        	lda	#$0
    3fab: 20 9d 61     	jsr	$619d <lcopy>
    3fae: a6 1e        	ldx	$1e                     ; 0x1e <__rc28>
    3fb0: 86 04        	stx	$4                      ; 0x4 <__rc2>
    3fb2: a6 1f        	ldx	$1f                     ; 0x1f <__rc29>
    3fb4: 86 05        	stx	$5                      ; 0x5 <__rc3>
    3fb6: a6 21        	ldx	$21                     ; 0x21 <__rc31>
    3fb8: 86 06        	stx	$6                      ; 0x6 <__zp_data_size>
    3fba: a6 17        	ldx	$17                     ; 0x17 <__rc21>
    3fbc: a0 1d        	ldy	#$1d
    3fbe: b1 02        	lda	($2),y                  ; 0x2 <__rc0>
    3fc0: 20 ca 46     	jsr	$46ca <PutOneSector>
    3fc3: a0 17        	ldy	#$17
    3fc5: b1 02        	lda	($2),y                  ; 0x2 <__rc0>
    3fc7: 85 16        	sta	$16                     ; 0x16 <__rc20>
    3fc9: e6 21        	inc	$21                     ; 0x21 <__rc31>
    3fcb: a0 22        	ldy	#$22
    3fcd: b1 02        	lda	($2),y                  ; 0x2 <__rc0>
    3fcf: aa           	tax
    3fd0: a4 21        	ldy	$21                     ; 0x21 <__rc31>
    3fd2: 84 04        	sty	$4                      ; 0x4 <__rc2>
    3fd4: a5 1c        	lda	$1c                     ; 0x1c <__rc26>
    3fd6: 18           	clc
    3fd7: 65 04        	adc	$4                      ; 0x4 <__rc2>
    3fd9: 85 20        	sta	$20                     ; 0x20 <__rc30>
    3fdb: a5 16        	lda	$16                     ; 0x16 <__rc20>
    3fdd: 69 00        	adc	#$0
    3fdf: 85 1e        	sta	$1e                     ; 0x1e <__rc28>
    3fe1: c0 28        	cpy	#$28
    3fe3: d0 03        	bne	$3fe8 <donehyp1att0+0x4f3>
    3fe5: 4c 57 40     	jmp	$4057 <donehyp1att0+0x562>
    3fe8: 84 0a        	sty	$a                      ; 0xa <__rc8>
    3fea: 8a           	txa
    3feb: a0 22        	ldy	#$22
    3fed: 91 02        	sta	($2),y                  ; 0x2 <__rc0>
    3fef: e0 29        	cpx	#$29
    3ff1: a2 7a        	ldx	#$7a
    3ff3: 86 06        	stx	$6                      ; 0x6 <__zp_data_size>
    3ff5: a2 71        	ldx	#$71
    3ff7: 86 07        	stx	$7                      ; 0x7 <__rc5>
    3ff9: a6 1d        	ldx	$1d                     ; 0x1d <__rc27>
    3ffb: 86 04        	stx	$4                      ; 0x4 <__rc2>
    3ffd: 90 0e        	bcc	$400d <donehyp1att0+0x518>
    3fff: a2 7c        	ldx	#$7c
    4001: 86 06        	stx	$6                      ; 0x6 <__zp_data_size>
    4003: a2 71        	ldx	#$71
    4005: 86 07        	stx	$7                      ; 0x7 <__rc5>
    4007: a0 18        	ldy	#$18
    4009: b1 02        	lda	($2),y                  ; 0x2 <__rc0>
    400b: 85 04        	sta	$4                      ; 0x4 <__rc2>
    400d: b2 06        	lda	($6),z                  ; 0x6 <__zp_data_size>
    400f: aa           	tax
    4010: a0 01        	ldy	#$1
    4012: b1 06        	lda	($6),y                  ; 0x6 <__zp_data_size>
    4014: 85 05        	sta	$5                      ; 0x5 <__rc3>
    4016: a4 0a        	ldy	$a                      ; 0xa <__rc8>
    4018: c0 08        	cpy	#$8
    401a: 90 03        	bcc	$401f <donehyp1att0+0x52a>
    401c: 4c af 3d     	jmp	$3daf <donehyp1att0+0x2ba>
    401f: 06 04        	asl	$4                      ; 0x4 <__rc2>
    4021: 84 21        	sty	$21                     ; 0x21 <__rc31>
    4023: a8           	tay
    4024: a9 00        	lda	#$0
    4026: 2a           	rol
    4027: 85 05        	sta	$5                      ; 0x5 <__rc3>
    4029: a5 04        	lda	$4                      ; 0x4 <__rc2>
    402b: 0a           	asl
    402c: 5a           	phy
    402d: a4 05        	ldy	$5                      ; 0x5 <__rc3>
    402f: 84 07        	sty	$7                      ; 0x7 <__rc5>
    4031: 7a           	ply
    4032: 26 07        	rol	$7                      ; 0x7 <__rc5>
    4034: 18           	clc
    4035: 65 04        	adc	$4                      ; 0x4 <__rc2>
    4037: 85 04        	sta	$4                      ; 0x4 <__rc2>
    4039: a5 07        	lda	$7                      ; 0x7 <__rc5>
    403b: 65 05        	adc	$5                      ; 0x5 <__rc3>
    403d: 85 05        	sta	$5                      ; 0x5 <__rc3>
    403f: 8a           	txa
    4040: 18           	clc
    4041: 65 04        	adc	$4                      ; 0x4 <__rc2>
    4043: 85 04        	sta	$4                      ; 0x4 <__rc2>
    4045: 98           	tya
    4046: 65 05        	adc	$5                      ; 0x5 <__rc3>
    4048: 85 05        	sta	$5                      ; 0x5 <__rc3>
    404a: a0 11        	ldy	#$11
    404c: b1 04        	lda	($4),y                  ; 0x4 <__rc2>
    404e: 85 1b        	sta	$1b                     ; 0x1b <__rc25>
    4050: a6 21        	ldx	$21                     ; 0x21 <__rc31>
    4052: 86 04        	stx	$4                      ; 0x4 <__rc2>
    4054: 4c 9f 3e     	jmp	$3e9f <donehyp1att0+0x3aa>
    4057: e8           	inx
    4058: a4 20        	ldy	$20                     ; 0x20 <__rc30>
    405a: 84 1c        	sty	$1c                     ; 0x1c <__rc26>
    405c: a0 17        	ldy	#$17
    405e: 91 02        	sta	($2),y                  ; 0x2 <__rc0>
    4060: e0 51        	cpx	#$51
    4062: d0 03        	bne	$4067 <donehyp1att0+0x572>
    4064: 4c 3c 43     	jmp	$433c <donehypchdir2+0x175>
    4067: 86 1d        	stx	$1d                     ; 0x1d <__rc27>
    4069: c6 1d        	dec	$1d                     ; 0x1d <__rc27>
    406b: 8a           	txa
    406c: 18           	clc
    406d: 69 d7        	adc	#$d7
    406f: a0 18        	ldy	#$18
    4071: 91 02        	sta	($2),y                  ; 0x2 <__rc0>
    4073: a0 00        	ldy	#$0
    4075: 5a           	phy
    4076: a0 17        	ldy	#$17
    4078: b1 02        	lda	($2),y                  ; 0x2 <__rc0>
    407a: 7a           	ply
    407b: 85 16        	sta	$16                     ; 0x16 <__rc20>
    407d: 4c d2 3f     	jmp	$3fd2 <donehyp1att0+0x4dd>
    4080: a6 1c        	ldx	$1c                     ; 0x1c <__rc26>
    4082: e0 02        	cpx	#$2
    4084: d0 07        	bne	$408d <donehyp1att0+0x598>
    4086: c9 09        	cmp	#$9
    4088: d0 03        	bne	$408d <donehyp1att0+0x598>
    408a: 4c 9b 39     	jmp	$399b <main+0x1889>
    408d: a6 1c        	ldx	$1c                     ; 0x1c <__rc26>
    408f: a5 1e        	lda	$1e                     ; 0x1e <__rc28>
    4091: e0 08        	cpx	#$8
    4093: d0 07        	bne	$409c <donehyp1att0+0x5a7>
    4095: c9 f6        	cmp	#$f6
    4097: d0 03        	bne	$409c <donehyp1att0+0x5a7>
    4099: 4c 0a 44     	jmp	$440a <donehyp0att3+0x22>
    409c: a6 1c        	ldx	$1c                     ; 0x1c <__rc26>
    409e: e0 02        	cpx	#$2
    40a0: f0 03        	beq	$40a5 <donehyp1att0+0x5b0>
    40a2: 4c 0e 42     	jmp	$420e <donehypchdir2+0x47>
    40a5: c9 94        	cmp	#$94
    40a7: f0 03        	beq	$40ac <donehyp1att0+0x5b7>
    40a9: 4c 0e 42     	jmp	$420e <donehypchdir2+0x47>
    40ac: a5 17        	lda	$17                     ; 0x17 <__rc21>
    40ae: 5a           	phy
    40af: a0 1f        	ldy	#$1f
    40b1: 91 02        	sta	($2),y                  ; 0x2 <__rc0>
    40b3: 7a           	ply
    40b4: a9 7e        	lda	#$7e
    40b6: 18           	clc
    40b7: 65 19        	adc	$19                     ; 0x19 <__rc23>
    40b9: 85 04        	sta	$4                      ; 0x4 <__rc2>
    40bb: a9 71        	lda	#$71
    40bd: 65 18        	adc	$18                     ; 0x18 <__rc22>
    40bf: 85 05        	sta	$5                      ; 0x5 <__rc3>
    40c1: b2 04        	lda	($4),z                  ; 0x4 <__rc2>
    40c3: aa           	tax
    40c4: b1 04        	lda	($4),y                  ; 0x4 <__rc2>
    40c6: 86 04        	stx	$4                      ; 0x4 <__rc2>
    40c8: 85 05        	sta	$5                      ; 0x5 <__rc3>
    40ca: 38           	sec
    40cb: 5a           	phy
    40cc: a0 20        	ldy	#$20
    40ce: b1 02        	lda	($2),y                  ; 0x2 <__rc0>
    40d0: e5 1b        	sbc	$1b                     ; 0x1b <__rc25>
    40d2: 85 06        	sta	$6                      ; 0x6 <__zp_data_size>
    40d4: a0 22        	ldy	#$22
    40d6: b1 02        	lda	($2),y                  ; 0x2 <__rc0>
    40d8: 7a           	ply
    40d9: e5 1a        	sbc	$1a                     ; 0x1a <__rc24>
    40db: 85 07        	sta	$7                      ; 0x7 <__rc5>
    40dd: a9 d7        	lda	#$d7
    40df: 18           	clc
    40e0: 65 06        	adc	$6                      ; 0x6 <__zp_data_size>
    40e2: 85 06        	sta	$6                      ; 0x6 <__zp_data_size>
    40e4: a9 71        	lda	#$71
    40e6: 65 07        	adc	$7                      ; 0x7 <__rc5>
    40e8: 85 07        	sta	$7                      ; 0x7 <__rc5>
    40ea: b1 04        	lda	($4),y                  ; 0x4 <__rc2>
    40ec: a8           	tay
    40ed: a9 01        	lda	#$1
    40ef: 51 06        	eor	($6),y                  ; 0x6 <__zp_data_size>
    40f1: 91 06        	sta	($6),y                  ; 0x6 <__zp_data_size>
    40f3: c8           	iny
    40f4: 98           	tya
    40f5: a0 01        	ldy	#$1
    40f7: 4c 17 36     	jmp	$3617 <main+0x1505>
    40fa: a5 17        	lda	$17                     ; 0x17 <__rc21>
    40fc: a0 1f        	ldy	#$1f
    40fe: 91 02        	sta	($2),y                  ; 0x2 <__rc0>
    4100: 20 f0 5e     	jsr	$5ef0 <sidbong>
    4103: a0 02        	ldy	#$2
    4105: b1 18        	lda	($18),y                 ; 0x18 <__rc22>
    4107: c9 ff        	cmp	#$ff
    4109: d0 03        	bne	$410e <donehyp1att0+0x619>
    410b: 4c 08 23     	jmp	$2308 <main+0x1f6>
    410e: a2 f5        	ldx	#$f5
    4110: 86 04        	stx	$4                      ; 0x4 <__rc2>
    4112: a2 6b        	ldx	#$6b
    4114: 86 05        	stx	$5                      ; 0x5 <__rc3>
    4116: a2 1f        	ldx	#$1f
    4118: 86 06        	stx	$6                      ; 0x6 <__zp_data_size>
    411a: a2 70        	ldx	#$70
    411c: 4c 50 2e     	jmp	$2e50 <main+0xd3e>
    411f: c5 05        	cmp	$5                      ; 0x5 <__rc3>
    4121: 90 03        	bcc	$4126 <donehyp1att0+0x631>
    4123: 4c 11 3a     	jmp	$3a11 <main+0x18ff>
    4126: a2 2d        	ldx	#$2d
    4128: 86 04        	stx	$4                      ; 0x4 <__rc2>
    412a: a2 6a        	ldx	#$6a
    412c: 86 05        	stx	$5                      ; 0x5 <__rc3>
    412e: a2 e8        	ldx	#$e8
    4130: 86 06        	stx	$6                      ; 0x6 <__zp_data_size>
    4132: a2 69        	ldx	#$69
    4134: 4c 50 2e     	jmp	$2e50 <main+0xd3e>
    4137: a6 17        	ldx	$17                     ; 0x17 <__rc21>
    4139: 86 1c        	stx	$1c                     ; 0x1c <__rc26>
    413b: a5 04        	lda	$4                      ; 0x4 <__rc2>
    413d: 18           	clc
    413e: 69 05        	adc	#$5
    4140: 85 16        	sta	$16                     ; 0x16 <__rc20>
    4142: a5 05        	lda	$5                      ; 0x5 <__rc3>
    4144: 69 00        	adc	#$0
    4146: 85 17        	sta	$17                     ; 0x17 <__rc21>
    4148: a6 16        	ldx	$16                     ; 0x16 <__rc20>
    414a: 86 04        	stx	$4                      ; 0x4 <__rc2>
    414c: 85 05        	sta	$5                      ; 0x5 <__rc3>
    414e: 20 77 45     	jsr	$4577 <hyppo_setname>
    4151: a2 00        	ldx	#$0
    4153: a9 34        	lda	#$34
    4155: 8d 40 d6     	sta	$d640                   ; 0xd640 <__heap_start+0x605a>
    4158: b8           	clv
    4159: 90 0b        	bcc	$4166 <errhypchdir1>
    415b: a9 0c        	lda	#$c
    415d: 8d 40 d6     	sta	$d640                   ; 0xd640 <__heap_start+0x605a>
    4160: b8           	clv
    4161: 85 04        	sta	$4                      ; 0x4 <__rc2>
    4163: 4c 6a 41     	jmp	$416a <donehypchdir1>

00004166 <errhypchdir1>:
    4166: a9 ff        	lda	#$ff
    4168: 85 04        	sta	$4                      ; 0x4 <__rc2>

0000416a <donehypchdir1>:
    416a: ea           	nop
    416b: a6 04        	ldx	$4                      ; 0x4 <__rc2>
    416d: e0 10        	cpx	#$10
    416f: b0 03        	bcs	$4174 <donehypchdir1+0xa>
    4171: 4c 25 42     	jmp	$4225 <donehypchdir2+0x5e>
    4174: a2 a3        	ldx	#$a3
    4176: 86 04        	stx	$4                      ; 0x4 <__rc2>
    4178: a2 69        	ldx	#$69
    417a: 86 05        	stx	$5                      ; 0x5 <__rc3>
    417c: a2 e5        	ldx	#$e5
    417e: 86 06        	stx	$6                      ; 0x6 <__zp_data_size>
    4180: a2 6b        	ldx	#$6b
    4182: 86 07        	stx	$7                      ; 0x7 <__rc5>
    4184: a6 16        	ldx	$16                     ; 0x16 <__rc20>
    4186: 86 08        	stx	$8                      ; 0x8 <__rc6>
    4188: a6 17        	ldx	$17                     ; 0x17 <__rc21>
    418a: 86 09        	stx	$9                      ; 0x9 <__rc7>
    418c: a9 00        	lda	#$0
    418e: 20 69 51     	jsr	$5169 <messagebox>
    4191: a6 1c        	ldx	$1c                     ; 0x1c <__rc26>
    4193: 86 17        	stx	$17                     ; 0x17 <__rc21>
    4195: 4c 6c 3a     	jmp	$3a6c <main+0x195a>
    4198: a5 04        	lda	$4                      ; 0x4 <__rc2>
    419a: 18           	clc
    419b: 69 05        	adc	#$5
    419d: 85 16        	sta	$16                     ; 0x16 <__rc20>
    419f: a5 05        	lda	$5                      ; 0x5 <__rc3>
    41a1: 69 00        	adc	#$0
    41a3: 85 17        	sta	$17                     ; 0x17 <__rc21>
    41a5: a6 16        	ldx	$16                     ; 0x16 <__rc20>
    41a7: 86 04        	stx	$4                      ; 0x4 <__rc2>
    41a9: 85 05        	sta	$5                      ; 0x5 <__rc3>
    41ab: 20 77 45     	jsr	$4577 <hyppo_setname>
    41ae: a2 00        	ldx	#$0
    41b0: a9 34        	lda	#$34
    41b2: 8d 40 d6     	sta	$d640                   ; 0xd640 <__heap_start+0x605a>
    41b5: b8           	clv
    41b6: 90 0b        	bcc	$41c3 <errhypchdir2>
    41b8: a9 0c        	lda	#$c
    41ba: 8d 40 d6     	sta	$d640                   ; 0xd640 <__heap_start+0x605a>
    41bd: b8           	clv
    41be: 85 04        	sta	$4                      ; 0x4 <__rc2>
    41c0: 4c c7 41     	jmp	$41c7 <donehypchdir2>

000041c3 <errhypchdir2>:
    41c3: a9 ff        	lda	#$ff
    41c5: 85 04        	sta	$4                      ; 0x4 <__rc2>

000041c7 <donehypchdir2>:
    41c7: ea           	nop
    41c8: a6 04        	ldx	$4                      ; 0x4 <__rc2>
    41ca: e0 10        	cpx	#$10
    41cc: 90 1e        	bcc	$41ec <donehypchdir2+0x25>
    41ce: a2 ca        	ldx	#$ca
    41d0: 86 04        	stx	$4                      ; 0x4 <__rc2>
    41d2: a2 70        	ldx	#$70
    41d4: 86 05        	stx	$5                      ; 0x5 <__rc3>
    41d6: a2 e5        	ldx	#$e5
    41d8: 86 06        	stx	$6                      ; 0x6 <__zp_data_size>
    41da: a2 6b        	ldx	#$6b
    41dc: 86 07        	stx	$7                      ; 0x7 <__rc5>
    41de: a6 16        	ldx	$16                     ; 0x16 <__rc20>
    41e0: 86 08        	stx	$8                      ; 0x8 <__rc6>
    41e2: a6 17        	ldx	$17                     ; 0x17 <__rc21>
    41e4: 4c f9 2e     	jmp	$2ef9 <main+0xde7>
    41e7: a9 00        	lda	#$0
    41e9: 4c 17 36     	jmp	$3617 <main+0x1505>
    41ec: b2 18        	lda	($18),z                 ; 0x18 <__rc22>
    41ee: 48           	pha
    41ef: a0 1f        	ldy	#$1f
    41f1: b1 02        	lda	($2),y                  ; 0x2 <__rc0>
    41f3: 85 16        	sta	$16                     ; 0x16 <__rc20>
    41f5: 68           	pla
    41f6: 4c 80 36     	jmp	$3680 <main+0x156e>
    41f9: b2 18        	lda	($18),z                 ; 0x18 <__rc22>
    41fb: 48           	pha
    41fc: a0 14        	ldy	#$14
    41fe: b1 02        	lda	($2),y                  ; 0x2 <__rc0>
    4200: aa           	tax
    4201: 68           	pla
    4202: 20 7f 57     	jsr	$577f <UpdateSectors>
    4205: a5 16        	lda	$16                     ; 0x16 <__rc20>
    4207: a0 1f        	ldy	#$1f
    4209: 91 02        	sta	($2),y                  ; 0x2 <__rc0>
    420b: 4c 85 36     	jmp	$3685 <main+0x1573>
    420e: a6 1c        	ldx	$1c                     ; 0x1c <__rc26>
    4210: a5 1e        	lda	$1e                     ; 0x1e <__rc28>
    4212: e0 02        	cpx	#$2
    4214: d0 03        	bne	$4219 <donehypchdir2+0x52>
    4216: 4c f7 43     	jmp	$43f7 <donehyp0att3+0xf>
    4219: a6 1c        	ldx	$1c                     ; 0x1c <__rc26>
    421b: e0 04        	cpx	#$4
    421d: f0 03        	beq	$4222 <donehypchdir2+0x5b>
    421f: 4c 81 44     	jmp	$4481 <donehyp0att3+0x99>
    4222: 4c 62 44     	jmp	$4462 <donehyp0att3+0x7a>
    4225: b2 18        	lda	($18),z                 ; 0x18 <__rc22>
    4227: a6 1c        	ldx	$1c                     ; 0x1c <__rc26>
    4229: 86 17        	stx	$17                     ; 0x17 <__rc21>
    422b: a6 1c        	ldx	$1c                     ; 0x1c <__rc26>
    422d: 20 7f 57     	jsr	$577f <UpdateSectors>
    4230: a5 1c        	lda	$1c                     ; 0x1c <__rc26>
    4232: 20 2e 5d     	jsr	$5d2e <Deselect>
    4235: 4c 6c 3a     	jmp	$3a6c <main+0x195a>
    4238: a2 3c        	ldx	#$3c
    423a: 86 08        	stx	$8                      ; 0x8 <__rc6>
    423c: a2 6c        	ldx	#$6c
    423e: 86 09        	stx	$9                      ; 0x9 <__rc7>
    4240: a5 16        	lda	$16                     ; 0x16 <__rc20>
    4242: 18           	clc
    4243: 69 05        	adc	#$5
    4245: 85 06        	sta	$6                      ; 0x6 <__zp_data_size>
    4247: a5 17        	lda	$17                     ; 0x17 <__rc21>
    4249: 69 00        	adc	#$0
    424b: 85 07        	sta	$7                      ; 0x7 <__rc5>
    424d: a2 2d        	ldx	#$2d
    424f: 86 04        	stx	$4                      ; 0x4 <__rc2>
    4251: a2 6a        	ldx	#$6a
    4253: 86 05        	stx	$5                      ; 0x5 <__rc3>
    4255: a9 00        	lda	#$0
    4257: 20 69 51     	jsr	$5169 <messagebox>
    425a: aa           	tax
    425b: d0 03        	bne	$4260 <donehypchdir2+0x99>
    425d: 4c 08 23     	jmp	$2308 <main+0x1f6>
    4260: a0 00        	ldy	#$0
    4262: a2 08        	ldx	#$8
    4264: 5a           	phy
    4265: a0 1f        	ldy	#$1f
    4267: b1 02        	lda	($2),y                  ; 0x2 <__rc0>
    4269: 7a           	ply
    426a: 64 1f        	stz	$1f                     ; 0x1f <__rc29>
    426c: 85 16        	sta	$16                     ; 0x16 <__rc20>
    426e: c9 00        	cmp	#$0
    4270: d0 03        	bne	$4275 <donehypchdir2+0xae>
    4272: 4c 01 44     	jmp	$4401 <donehyp0att3+0x19>
    4275: 64 20        	stz	$20                     ; 0x20 <__rc30>
    4277: 5a           	phy
    4278: a0 22        	ldy	#$22
    427a: b1 02        	lda	($2),y                  ; 0x2 <__rc0>
    427c: 7a           	ply
    427d: 85 07        	sta	$7                      ; 0x7 <__rc5>
    427f: 38           	sec
    4280: 5a           	phy
    4281: a0 20        	ldy	#$20
    4283: b1 02        	lda	($2),y                  ; 0x2 <__rc0>
    4285: 7a           	ply
    4286: e5 1b        	sbc	$1b                     ; 0x1b <__rc25>
    4288: 85 04        	sta	$4                      ; 0x4 <__rc2>
    428a: a5 07        	lda	$7                      ; 0x7 <__rc5>
    428c: e5 1a        	sbc	$1a                     ; 0x1a <__rc24>
    428e: 85 05        	sta	$5                      ; 0x5 <__rc3>
    4290: a9 d7        	lda	#$d7
    4292: 18           	clc
    4293: 65 04        	adc	$4                      ; 0x4 <__rc2>
    4295: 85 04        	sta	$4                      ; 0x4 <__rc2>
    4297: a9 71        	lda	#$71
    4299: 65 05        	adc	$5                      ; 0x5 <__rc3>
    429b: 85 05        	sta	$5                      ; 0x5 <__rc3>
    429d: 86 1b        	stx	$1b                     ; 0x1b <__rc25>
    429f: 4c 35 2f     	jmp	$2f35 <main+0xe23>
    42a2: c8           	iny
    42a3: a6 1d        	ldx	$1d                     ; 0x1d <__rc27>
    42a5: 86 18        	stx	$18                     ; 0x18 <__rc22>
    42a7: 85 19        	sta	$19                     ; 0x19 <__rc23>
    42a9: c0 51        	cpy	#$51
    42ab: d0 03        	bne	$42b0 <donehypchdir2+0xe9>
    42ad: 4c 6e 45     	jmp	$456e <donehyp0att3+0x186>
    42b0: a2 00        	ldx	#$0
    42b2: 80 29        	bra	$42dd <donehypchdir2+0x116>
    42b4: 18           	clc
    42b5: a5 1d        	lda	$1d                     ; 0x1d <__rc27>
    42b7: 69 20        	adc	#$20
    42b9: 85 07        	sta	$7                      ; 0x7 <__rc5>
    42bb: a5 1b        	lda	$1b                     ; 0x1b <__rc25>
    42bd: 69 00        	adc	#$0
    42bf: 85 08        	sta	$8                      ; 0x8 <__rc6>
    42c1: a9 00        	lda	#$0
    42c3: 69 08        	adc	#$8
    42c5: 64 04        	stz	$4                      ; 0x4 <__rc2>
    42c7: 64 05        	stz	$5                      ; 0x5 <__rc3>
    42c9: 64 06        	stz	$6                      ; 0x6 <__zp_data_size>
    42cb: 85 09        	sta	$9                      ; 0x9 <__rc7>
    42cd: 64 0a        	stz	$a                      ; 0xa <__rc8>
    42cf: 86 0b        	stx	$b                      ; 0xb <__rc9>
    42d1: a2 18        	ldx	#$18
    42d3: a9 00        	lda	#$0
    42d5: 20 9d 61     	jsr	$619d <lcopy>
    42d8: a6 1a        	ldx	$1a                     ; 0x1a <__rc24>
    42da: e8           	inx
    42db: a4 16        	ldy	$16                     ; 0x16 <__rc20>
    42dd: 86 04        	stx	$4                      ; 0x4 <__rc2>
    42df: a5 18        	lda	$18                     ; 0x18 <__rc22>
    42e1: 18           	clc
    42e2: 65 04        	adc	$4                      ; 0x4 <__rc2>
    42e4: 85 1d        	sta	$1d                     ; 0x1d <__rc27>
    42e6: a5 19        	lda	$19                     ; 0x19 <__rc23>
    42e8: 69 00        	adc	#$0
    42ea: 85 1b        	sta	$1b                     ; 0x1b <__rc25>
    42ec: e0 28        	cpx	#$28
    42ee: d0 03        	bne	$42f3 <donehypchdir2+0x12c>
    42f0: 4c a2 42     	jmp	$42a2 <donehypchdir2+0xdb>
    42f3: 86 17        	stx	$17                     ; 0x17 <__rc21>
    42f5: 84 16        	sty	$16                     ; 0x16 <__rc20>
    42f7: 98           	tya
    42f8: 20 d7 4c     	jsr	$4cd7 <tracksectorstring>
    42fb: a6 1d        	ldx	$1d                     ; 0x1d <__rc27>
    42fd: 86 04        	stx	$4                      ; 0x4 <__rc2>
    42ff: 06 04        	asl	$4                      ; 0x4 <__rc2>
    4301: a5 1b        	lda	$1b                     ; 0x1b <__rc25>
    4303: 2a           	rol
    4304: 06 04        	asl	$4                      ; 0x4 <__rc2>
    4306: 2a           	rol
    4307: a2 a4        	ldx	#$a4
    4309: 86 04        	stx	$4                      ; 0x4 <__rc2>
    430b: a2 70        	ldx	#$70
    430d: 86 05        	stx	$5                      ; 0x5 <__rc3>
    430f: a2 28        	ldx	#$28
    4311: 86 06        	stx	$6                      ; 0x6 <__zp_data_size>
    4313: a2 00        	ldx	#$0
    4315: 86 07        	stx	$7                      ; 0x7 <__rc5>
    4317: 20 5a 52     	jsr	$525a <progress>
    431a: a2 00        	ldx	#$0
    431c: 86 04        	stx	$4                      ; 0x4 <__rc2>
    431e: a2 18        	ldx	#$18
    4320: 86 05        	stx	$5                      ; 0x5 <__rc3>
    4322: a6 17        	ldx	$17                     ; 0x17 <__rc21>
    4324: 86 1a        	stx	$1a                     ; 0x1a <__rc24>
    4326: a6 17        	ldx	$17                     ; 0x17 <__rc21>
    4328: 86 06        	stx	$6                      ; 0x6 <__zp_data_size>
    432a: a6 16        	ldx	$16                     ; 0x16 <__rc20>
    432c: a0 1b        	ldy	#$1b
    432e: b1 02        	lda	($2),y                  ; 0x2 <__rc0>
    4330: 20 87 46     	jsr	$4687 <GetOneSector>
    4333: c9 02        	cmp	#$2
    4335: a2 01        	ldx	#$1
    4337: b0 03        	bcs	$433c <donehypchdir2+0x175>
    4339: 4c b4 42     	jmp	$42b4 <donehypchdir2+0xed>
    433c: a2 00        	ldx	#$0
    433e: 86 04        	stx	$4                      ; 0x4 <__rc2>
    4340: a2 18        	ldx	#$18
    4342: 86 05        	stx	$5                      ; 0x5 <__rc3>
    4344: a5 04        	lda	$4                      ; 0x4 <__rc2>
    4346: a0 19        	ldy	#$19
    4348: 91 02        	sta	($2),y                  ; 0x2 <__rc0>
    434a: a5 05        	lda	$5                      ; 0x5 <__rc3>
    434c: c8           	iny
    434d: 91 02        	sta	($2),y                  ; 0x2 <__rc0>
    434f: a0 15        	ldy	#$15
    4351: b1 02        	lda	($2),y                  ; 0x2 <__rc0>
    4353: 85 04        	sta	$4                      ; 0x4 <__rc2>
    4355: c8           	iny
    4356: b1 02        	lda	($2),y                  ; 0x2 <__rc0>
    4358: 85 05        	sta	$5                      ; 0x5 <__rc3>
    435a: b2 04        	lda	($4),z                  ; 0x4 <__rc2>
    435c: 48           	pha
    435d: a0 24        	ldy	#$24
    435f: b1 02        	lda	($2),y                  ; 0x2 <__rc0>
    4361: aa           	tax
    4362: 68           	pla
    4363: 20 7f 57     	jsr	$577f <UpdateSectors>
    4366: 4c 08 23     	jmp	$2308 <main+0x1f6>
    4369: 20 5c 4f     	jsr	$4f5c <clrhome>
    436c: a2 38        	ldx	#$38
    436e: 86 04        	stx	$4                      ; 0x4 <__rc2>
    4370: a2 6a        	ldx	#$6a
    4372: 86 05        	stx	$5                      ; 0x5 <__rc3>
    4374: 20 ba 4f     	jsr	$4fba <msprintf>
    4377: a9 80        	lda	#$80
    4379: a2 84        	ldx	#$84
    437b: a0 1e        	ldy	#$1e
    437d: 84 04        	sty	$4                      ; 0x4 <__rc2>
    437f: 64 05        	stz	$5                      ; 0x5 <__rc3>
    4381: 20 54 62     	jsr	$6254 <usleep>
    4384: a2 00        	ldx	#$0
    4386: a9 7e        	lda	#$7e
    4388: 8d 40 d6     	sta	$d640                   ; 0xd640 <__heap_start+0x605a>
    438b: b8           	clv
    438c: 8a           	txa
    438d: 85 12        	sta	$12                     ; 0x12 <__rc16>
    438f: a8           	tay
    4390: b1 02        	lda	($2),y                  ; 0x2 <__rc0>
    4392: 85 21        	sta	$21                     ; 0x21 <__rc31>
    4394: c8           	iny
    4395: b1 02        	lda	($2),y                  ; 0x2 <__rc0>
    4397: 85 20        	sta	$20                     ; 0x20 <__rc30>
    4399: c8           	iny
    439a: b1 02        	lda	($2),y                  ; 0x2 <__rc0>
    439c: 85 1f        	sta	$1f                     ; 0x1f <__rc29>
    439e: c8           	iny
    439f: b1 02        	lda	($2),y                  ; 0x2 <__rc0>
    43a1: 85 1e        	sta	$1e                     ; 0x1e <__rc28>
    43a3: c8           	iny
    43a4: b1 02        	lda	($2),y                  ; 0x2 <__rc0>
    43a6: 85 1d        	sta	$1d                     ; 0x1d <__rc27>
    43a8: c8           	iny
    43a9: b1 02        	lda	($2),y                  ; 0x2 <__rc0>
    43ab: 85 1c        	sta	$1c                     ; 0x1c <__rc26>
    43ad: c8           	iny
    43ae: b1 02        	lda	($2),y                  ; 0x2 <__rc0>
    43b0: 85 1b        	sta	$1b                     ; 0x1b <__rc25>
    43b2: c8           	iny
    43b3: b1 02        	lda	($2),y                  ; 0x2 <__rc0>
    43b5: 85 1a        	sta	$1a                     ; 0x1a <__rc24>
    43b7: 7a           	ply
    43b8: 84 19        	sty	$19                     ; 0x19 <__rc23>
    43ba: 7a           	ply
    43bb: 84 18        	sty	$18                     ; 0x18 <__rc22>
    43bd: 7a           	ply
    43be: 84 17        	sty	$17                     ; 0x17 <__rc21>
    43c0: 7a           	ply
    43c1: 84 16        	sty	$16                     ; 0x16 <__rc20>
    43c3: 18           	clc
    43c4: a5 02        	lda	$2                      ; 0x2 <__rc0>
    43c6: 69 2c        	adc	#$2c
    43c8: 85 02        	sta	$2                      ; 0x2 <__rc0>
    43ca: a5 03        	lda	$3                      ; 0x3 <__rc1>
    43cc: 69 00        	adc	#$0
    43ce: 85 03        	sta	$3                      ; 0x3 <__rc1>
    43d0: a5 12        	lda	$12                     ; 0x12 <__rc16>
    43d2: 60           	rts
    43d3: a2 00        	ldx	#$0
    43d5: a9 40        	lda	#$40
    43d7: 8d 40 d6     	sta	$d640                   ; 0xd640 <__heap_start+0x605a>
    43da: b8           	clv
    43db: 90 07        	bcc	$43e4 <errhyp0att3>
    43dd: a9 00        	lda	#$0
    43df: 85 04        	sta	$4                      ; 0x4 <__rc2>
    43e1: 4c e8 43     	jmp	$43e8 <donehyp0att3>

000043e4 <errhyp0att3>:
    43e4: a9 ff        	lda	#$ff
    43e6: 85 04        	sta	$4                      ; 0x4 <__rc2>

000043e8 <donehyp0att3>:
    43e8: ea           	nop
    43e9: 4c f6 3a     	jmp	$3af6 <donehyp1att0+0x1>
    43ec: a9 01        	lda	#$1
    43ee: a0 46        	ldy	#$46
    43f0: 11 18        	ora	($18),y                 ; 0x18 <__rc22>
    43f2: 91 18        	sta	($18),y                 ; 0x18 <__rc22>
    43f4: 4c ec 41     	jmp	$41ec <donehypchdir2+0x25>
    43f7: c9 9d        	cmp	#$9d
    43f9: d0 03        	bne	$43fe <donehyp0att3+0x16>
    43fb: 4c f5 3b     	jmp	$3bf5 <donehyp1att0+0x100>
    43fe: 4c 19 42     	jmp	$4219 <donehypchdir2+0x52>
    4401: a0 0e        	ldy	#$e
    4403: 84 20        	sty	$20                     ; 0x20 <__rc30>
    4405: a0 00        	ldy	#$0
    4407: 4c 77 42     	jmp	$4277 <donehypchdir2+0xb0>
    440a: a5 17        	lda	$17                     ; 0x17 <__rc21>
    440c: 5a           	phy
    440d: a0 1f        	ldy	#$1f
    440f: 91 02        	sta	($2),y                  ; 0x2 <__rc0>
    4411: 7a           	ply
    4412: a9 7e        	lda	#$7e
    4414: 18           	clc
    4415: 65 19        	adc	$19                     ; 0x19 <__rc23>
    4417: 85 04        	sta	$4                      ; 0x4 <__rc2>
    4419: a9 71        	lda	#$71
    441b: 65 18        	adc	$18                     ; 0x18 <__rc22>
    441d: 85 05        	sta	$5                      ; 0x5 <__rc3>
    441f: b2 04        	lda	($4),z                  ; 0x4 <__rc2>
    4421: 85 18        	sta	$18                     ; 0x18 <__rc22>
    4423: b1 04        	lda	($4),y                  ; 0x4 <__rc2>
    4425: 85 19        	sta	$19                     ; 0x19 <__rc23>
    4427: a9 01        	lda	#$1
    4429: a0 46        	ldy	#$46
    442b: 31 18        	and	($18),y                 ; 0x18 <__rc22>
    442d: 29 01        	and	#$1
    442f: f0 03        	beq	$4434 <donehyp0att3+0x4c>
    4431: 4c a3 44     	jmp	$44a3 <donehyp0att3+0xbb>
    4434: a2 af        	ldx	#$af
    4436: 86 04        	stx	$4                      ; 0x4 <__rc2>
    4438: a2 70        	ldx	#$70
    443a: 4c 48 2e     	jmp	$2e48 <main+0xd36>
    443d: ae 00 16     	ldx	$1600                   ; 0x1600 <__heap_default_limit+0x600>
    4440: ac 01 16     	ldy	$1601                   ; 0x1601 <__heap_default_limit+0x601>
    4443: a9 00        	lda	#$0
    4445: 85 04        	sta	$4                      ; 0x4 <__rc2>
    4447: a9 17        	lda	#$17
    4449: 85 05        	sta	$5                      ; 0x5 <__rc3>
    444b: 84 06        	sty	$6                      ; 0x6 <__zp_data_size>
    444d: a0 18        	ldy	#$18
    444f: b1 02        	lda	($2),y                  ; 0x2 <__rc0>
    4451: 20 87 46     	jsr	$4687 <GetOneSector>
    4454: c9 02        	cmp	#$2
    4456: 90 03        	bcc	$445b <donehyp0att3+0x73>
    4458: 4c 19 2c     	jmp	$2c19 <main+0xb07>
    445b: a6 17        	ldx	$17                     ; 0x17 <__rc21>
    445d: a4 1a        	ldy	$1a                     ; 0x1a <__rc24>
    445f: 4c 88 2c     	jmp	$2c88 <main+0xb76>
    4462: c9 12        	cmp	#$12
    4464: d0 1b        	bne	$4481 <donehyp0att3+0x99>
    4466: a9 7e        	lda	#$7e
    4468: 18           	clc
    4469: 65 19        	adc	$19                     ; 0x19 <__rc23>
    446b: 85 04        	sta	$4                      ; 0x4 <__rc2>
    446d: a9 71        	lda	#$71
    446f: 65 18        	adc	$18                     ; 0x18 <__rc22>
    4471: 85 05        	sta	$5                      ; 0x5 <__rc3>
    4473: b2 04        	lda	($4),z                  ; 0x4 <__rc2>
    4475: aa           	tax
    4476: b1 04        	lda	($4),y                  ; 0x4 <__rc2>
    4478: 86 04        	stx	$4                      ; 0x4 <__rc2>
    447a: 85 05        	sta	$5                      ; 0x5 <__rc3>
    447c: b2 04        	lda	($4),z                  ; 0x4 <__rc2>
    447e: 4c 9c 2e     	jmp	$2e9c <main+0xd8a>
    4481: a6 1c        	ldx	$1c                     ; 0x1c <__rc26>
    4483: e0 04        	cpx	#$4
    4485: d0 07        	bne	$448e <donehyp0att3+0xa6>
    4487: c9 15        	cmp	#$15
    4489: d0 03        	bne	$448e <donehyp0att3+0xa6>
    448b: 4c 0e 2e     	jmp	$2e0e <main+0xcfc>
    448e: a6 1c        	ldx	$1c                     ; 0x1c <__rc26>
    4490: e0 02        	cpx	#$2
    4492: f0 03        	beq	$4497 <donehyp0att3+0xaf>
    4494: 4c 0e 2e     	jmp	$2e0e <main+0xcfc>
    4497: a6 1e        	ldx	$1e                     ; 0x1e <__rc28>
    4499: e0 91        	cpx	#$91
    449b: d0 03        	bne	$44a0 <donehyp0att3+0xb8>
    449d: 4c 6a 3b     	jmp	$3b6a <donehyp1att0+0x75>
    44a0: 4c 0e 2e     	jmp	$2e0e <main+0xcfc>
    44a3: a2 07        	ldx	#$7
    44a5: 86 04        	stx	$4                      ; 0x4 <__rc2>
    44a7: a2 6b        	ldx	#$6b
    44a9: 86 05        	stx	$5                      ; 0x5 <__rc3>
    44ab: a2 fb        	ldx	#$fb
    44ad: 86 06        	stx	$6                      ; 0x6 <__zp_data_size>
    44af: a2 6c        	ldx	#$6c
    44b1: 86 07        	stx	$7                      ; 0x7 <__rc5>
    44b3: a2 df        	ldx	#$df
    44b5: 86 08        	stx	$8                      ; 0x8 <__rc6>
    44b7: a2 68        	ldx	#$68
    44b9: 86 09        	stx	$9                      ; 0x9 <__rc7>
    44bb: a9 00        	lda	#$0
    44bd: 20 69 51     	jsr	$5169 <messagebox>
    44c0: a0 01        	ldy	#$1
    44c2: aa           	tax
    44c3: d0 03        	bne	$44c8 <donehyp0att3+0xe0>
    44c5: 4c 08 23     	jmp	$2308 <main+0x1f6>
    44c8: 5a           	phy
    44c9: a0 24        	ldy	#$24
    44cb: b1 02        	lda	($2),y                  ; 0x2 <__rc0>
    44cd: 0a           	asl
    44ce: 85 04        	sta	$4                      ; 0x4 <__rc2>
    44d0: a9 00        	lda	#$0
    44d2: 2a           	rol
    44d3: 85 05        	sta	$5                      ; 0x5 <__rc3>
    44d5: a9 7e        	lda	#$7e
    44d7: 18           	clc
    44d8: 65 04        	adc	$4                      ; 0x4 <__rc2>
    44da: aa           	tax
    44db: a9 71        	lda	#$71
    44dd: 65 05        	adc	$5                      ; 0x5 <__rc3>
    44df: 85 06        	sta	$6                      ; 0x6 <__zp_data_size>
    44e1: b2 18        	lda	($18),z                 ; 0x18 <__rc22>
    44e3: a0 1b        	ldy	#$1b
    44e5: 91 02        	sta	($2),y                  ; 0x2 <__rc0>
    44e7: 7a           	ply
    44e8: 86 04        	stx	$4                      ; 0x4 <__rc2>
    44ea: a6 06        	ldx	$6                      ; 0x6 <__zp_data_size>
    44ec: 86 05        	stx	$5                      ; 0x5 <__rc3>
    44ee: b2 04        	lda	($4),z                  ; 0x4 <__rc2>
    44f0: 85 06        	sta	$6                      ; 0x6 <__zp_data_size>
    44f2: b1 04        	lda	($4),y                  ; 0x4 <__rc2>
    44f4: 85 07        	sta	$7                      ; 0x7 <__rc5>
    44f6: a5 06        	lda	$6                      ; 0x6 <__zp_data_size>
    44f8: a0 15        	ldy	#$15
    44fa: 91 02        	sta	($2),y                  ; 0x2 <__rc0>
    44fc: a5 07        	lda	$7                      ; 0x7 <__rc5>
    44fe: c8           	iny
    44ff: 91 02        	sta	($2),y                  ; 0x2 <__rc0>
    4501: b2 06        	lda	($6),z                  ; 0x6 <__zp_data_size>
    4503: a0 1d        	ldy	#$1d
    4505: 91 02        	sta	($2),y                  ; 0x2 <__rc0>
    4507: a9 02        	lda	#$2
    4509: 25 50        	and	$50                     ; 0x50 <option.0>
    450b: f0 03        	beq	$4510 <donehyp0att3+0x128>
    450d: 4c 5c 45     	jmp	$455c <donehyp0att3+0x174>
    4510: a0 01        	ldy	#$1
    4512: 64 18        	stz	$18                     ; 0x18 <__rc22>
    4514: 64 19        	stz	$19                     ; 0x19 <__rc23>
    4516: 4c a9 42     	jmp	$42a9 <donehypchdir2+0xe2>
    4519: a2 00        	ldx	#$0
    451b: 86 04        	stx	$4                      ; 0x4 <__rc2>
    451d: a2 18        	ldx	#$18
    451f: 86 05        	stx	$5                      ; 0x5 <__rc3>
    4521: 48           	pha
    4522: a5 04        	lda	$4                      ; 0x4 <__rc2>
    4524: a0 19        	ldy	#$19
    4526: 91 02        	sta	($2),y                  ; 0x2 <__rc0>
    4528: a5 05        	lda	$5                      ; 0x5 <__rc3>
    452a: c8           	iny
    452b: 91 02        	sta	($2),y                  ; 0x2 <__rc0>
    452d: a2 00        	ldx	#$0
    452f: 86 04        	stx	$4                      ; 0x4 <__rc2>
    4531: a2 16        	ldx	#$16
    4533: 86 05        	stx	$5                      ; 0x5 <__rc3>
    4535: a2 01        	ldx	#$1
    4537: 86 06        	stx	$6                      ; 0x6 <__zp_data_size>
    4539: a0 13        	ldy	#$13
    453b: b1 02        	lda	($2),y                  ; 0x2 <__rc0>
    453d: aa           	tax
    453e: 68           	pla
    453f: 85 16        	sta	$16                     ; 0x16 <__rc20>
    4541: 20 ca 46     	jsr	$46ca <PutOneSector>
    4544: ae 00 16     	ldx	$1600                   ; 0x1600 <__heap_default_limit+0x600>
    4547: ac 01 16     	ldy	$1601                   ; 0x1601 <__heap_default_limit+0x601>
    454a: a9 00        	lda	#$0
    454c: 85 04        	sta	$4                      ; 0x4 <__rc2>
    454e: a9 17        	lda	#$17
    4550: 85 05        	sta	$5                      ; 0x5 <__rc3>
    4552: 84 06        	sty	$6                      ; 0x6 <__zp_data_size>
    4554: a5 16        	lda	$16                     ; 0x16 <__rc20>
    4556: 20 ca 46     	jsr	$46ca <PutOneSector>
    4559: 4c 19 2c     	jmp	$2c19 <main+0xb07>
    455c: a0 1f        	ldy	#$1f
    455e: b1 02        	lda	($2),y                  ; 0x2 <__rc0>
    4560: 20 8a 47     	jsr	$478a <GetBAM>
    4563: a2 01        	ldx	#$1
    4565: 64 1c        	stz	$1c                     ; 0x1c <__rc26>
    4567: 64 04        	stz	$4                      ; 0x4 <__rc2>
    4569: a9 00        	lda	#$0
    456b: 4c 5c 40     	jmp	$405c <donehyp1att0+0x567>
    456e: a2 01        	ldx	#$1
    4570: 64 18        	stz	$18                     ; 0x18 <__rc22>
    4572: 64 19        	stz	$19                     ; 0x19 <__rc23>
    4574: 4c b3 3c     	jmp	$3cb3 <donehyp1att0+0x1be>

00004577 <hyppo_setname>:
    4577: a6 04        	ldx	$4                      ; 0x4 <__rc2>
    4579: 86 06        	stx	$6                      ; 0x6 <__zp_data_size>
    457b: a6 05        	ldx	$5                      ; 0x5 <__rc3>
    457d: 86 07        	stx	$7                      ; 0x7 <__rc5>
    457f: a2 1c        	ldx	#$1c
    4581: a0 00        	ldy	#$0
    4583: 84 04        	sty	$4                      ; 0x4 <__rc2>
    4585: a0 1c        	ldy	#$1c
    4587: 84 05        	sty	$5                      ; 0x5 <__rc3>
    4589: 8e d6 71     	stx	$71d6                   ; 0x71d6 <fnamehi>
    458c: 20 b0 62     	jsr	$62b0 <strcpy>
    458f: ac d6 71     	ldy	$71d6                   ; 0x71d6 <fnamehi>
    4592: a2 00        	ldx	#$0
    4594: a9 2e        	lda	#$2e
    4596: 8d 40 d6     	sta	$d640                   ; 0xd640 <__heap_start+0x605a>
    4599: b8           	clv
    459a: 90 07        	bcc	$45a3 <errhypsetnam4>
    459c: a9 00        	lda	#$0
    459e: 85 04        	sta	$4                      ; 0x4 <__rc2>
    45a0: 4c a7 45     	jmp	$45a7 <donehypsetnam4>

000045a3 <errhypsetnam4>:
    45a3: a9 ff        	lda	#$ff
    45a5: 85 04        	sta	$4                      ; 0x4 <__rc2>

000045a7 <donehypsetnam4>:
    45a7: ea           	nop
    45a8: 60           	rts

000045a9 <getsfn>:
    45a9: a2 00        	ldx	#$0
    45ab: a0 00        	ldy	#$0
    45ad: 80 0e        	bra	$45bd <getsfn+0x14>
    45af: c9 21        	cmp	#$21
    45b1: 90 09        	bcc	$45bc <getsfn+0x13>
    45b3: 84 04        	sty	$4                      ; 0x4 <__rc2>
    45b5: e6 04        	inc	$4                      ; 0x4 <__rc2>
    45b7: 99 41 1c     	sta	$1c41,y                 ; 0x1c41 <__heap_default_limit+0xc41>
    45ba: a4 04        	ldy	$4                      ; 0x4 <__rc2>
    45bc: e8           	inx
    45bd: e0 08        	cpx	#$8
    45bf: f0 07        	beq	$45c8 <getsfn+0x1f>
    45c1: bd 41 1a     	lda	$1a41,x                 ; 0x1a41 <__heap_default_limit+0xa41>
    45c4: c9 20        	cmp	#$20
    45c6: d0 e7        	bne	$45af <getsfn+0x6>
    45c8: 64 05        	stz	$5                      ; 0x5 <__rc3>
    45ca: a9 2e        	lda	#$2e
    45cc: 99 41 1c     	sta	$1c41,y                 ; 0x1c41 <__heap_default_limit+0xc41>
    45cf: 98           	tya
    45d0: 1a           	inc
    45d1: a2 00        	ldx	#$0
    45d3: 85 04        	sta	$4                      ; 0x4 <__rc2>
    45d5: 80 10        	bra	$45e7 <getsfn+0x3e>
    45d7: c9 21        	cmp	#$21
    45d9: 90 0b        	bcc	$45e6 <getsfn+0x3d>
    45db: 84 06        	sty	$6                      ; 0x6 <__zp_data_size>
    45dd: a4 04        	ldy	$4                      ; 0x4 <__rc2>
    45df: 99 41 1c     	sta	$1c41,y                 ; 0x1c41 <__heap_default_limit+0xc41>
    45e2: a4 06        	ldy	$6                      ; 0x6 <__zp_data_size>
    45e4: e6 04        	inc	$4                      ; 0x4 <__rc2>
    45e6: e8           	inx
    45e7: e0 03        	cpx	#$3
    45e9: f0 07        	beq	$45f2 <getsfn+0x49>
    45eb: bd 49 1a     	lda	$1a49,x                 ; 0x1a49 <__heap_default_limit+0xa49>
    45ee: c9 20        	cmp	#$20
    45f0: d0 e5        	bne	$45d7 <getsfn+0x2e>
    45f2: 98           	tya
    45f3: 1a           	inc
    45f4: d0 02        	bne	$45f8 <getsfn+0x4f>
    45f6: e6 05        	inc	$5                      ; 0x5 <__rc3>
    45f8: a6 05        	ldx	$5                      ; 0x5 <__rc3>
    45fa: d0 0a        	bne	$4606 <getsfn+0x5d>
    45fc: a6 04        	ldx	$4                      ; 0x4 <__rc2>
    45fe: c5 04        	cmp	$4                      ; 0x4 <__rc2>
    4600: d0 06        	bne	$4608 <getsfn+0x5f>
    4602: 5a           	phy
    4603: fa           	plx
    4604: 80 02        	bra	$4608 <getsfn+0x5f>
    4606: a6 04        	ldx	$4                      ; 0x4 <__rc2>
    4608: 9e 41 1c     	stz	$1c41,x                 ; 0x1c41 <__heap_default_limit+0xc41>
    460b: 60           	rts

0000460c <ReadSector>:
    460c: da           	phx
    460d: 7a           	ply
    460e: e0 00        	cpx	#$0
    4610: f0 17        	beq	$4629 <ReadSector+0x1d>
    4612: a6 04        	ldx	$4                      ; 0x4 <__rc2>
    4614: 84 04        	sty	$4                      ; 0x4 <__rc2>
    4616: 86 77        	stx	$77                     ; 0x77 <__zp_bss_size+0x36>
    4618: e0 14        	cpx	#$14
    461a: a0 01        	ldy	#$1
    461c: b0 02        	bcs	$4620 <ReadSector+0x14>
    461e: a0 00        	ldy	#$0
    4620: 84 78        	sty	$78                     ; 0x78 <__zp_bss_size+0x37>
    4622: 90 08        	bcc	$462c <ReadSector+0x20>
    4624: 18           	clc
    4625: 69 28        	adc	#$28
    4627: 80 06        	bra	$462f <ReadSector+0x23>
    4629: a9 fc        	lda	#$fc
    462b: 60           	rts
    462c: 18           	clc
    462d: 69 20        	adc	#$20
    462f: 8d 80 d0     	sta	$d080                   ; 0xd080 <__heap_start+0x5a9a>
    4632: a0 20        	ldy	#$20
    4634: 8c 81 d0     	sty	$d081                   ; 0xd081 <__heap_start+0x5a9b>
    4637: a6 04        	ldx	$4                      ; 0x4 <__rc2>
    4639: ca           	dex
    463a: 8e 84 d0     	stx	$d084                   ; 0xd084 <__heap_start+0x5a9e>
    463d: a2 14        	ldx	#$14
    463f: a5 77        	lda	$77                     ; 0x77 <__zp_bss_size+0x36>
    4641: 20 3b 64     	jsr	$643b <__umodqi3>
    4644: 4a           	lsr
    4645: 1a           	inc
    4646: 8d 85 d0     	sta	$d085                   ; 0xd085 <__heap_start+0x5a9f>
    4649: a6 78        	ldx	$78                     ; 0x78 <__zp_bss_size+0x37>
    464b: f0 04        	beq	$4651 <ReadSector+0x45>
    464d: a2 01        	ldx	#$1
    464f: 80 02        	bra	$4653 <ReadSector+0x47>
    4651: a2 00        	ldx	#$0
    4653: 8e 86 d0     	stx	$d086                   ; 0xd086 <__heap_start+0x5aa0>
    4656: a2 41        	ldx	#$41
    4658: 8e 81 d0     	stx	$d081                   ; 0xd081 <__heap_start+0x5a9b>
    465b: ae 82 d0     	ldx	$d082                   ; 0xd082 <__heap_start+0x5a9c>
    465e: 30 fb        	bmi	$465b <ReadSector+0x4f>
    4660: ad 82 d0     	lda	$d082                   ; 0xd082 <__heap_start+0x5a9c>
    4663: 29 18        	and	#$18
    4665: f0 10        	beq	$4677 <ReadSector+0x6b>
    4667: a2 40        	ldx	#$40
    4669: 8e 80 d0     	stx	$d080                   ; 0xd080 <__heap_start+0x5a9a>
    466c: a2 02        	ldx	#$2
    466e: 8e 20 d0     	stx	$d020                   ; 0xd020 <__heap_start+0x5a3a>
    4671: ae 82 d0     	ldx	$d082                   ; 0xd082 <__heap_start+0x5a9c>
    4674: a9 ff        	lda	#$ff
    4676: 60           	rts
    4677: a6 77        	ldx	$77                     ; 0x77 <__zp_bss_size+0x36>
    4679: 8a           	txa
    467a: 29 01        	and	#$1
    467c: aa           	tax
    467d: ad 89 d6     	lda	$d689                   ; 0xd689 <__heap_start+0x60a3>
    4680: 29 7f        	and	#$7f
    4682: 8d 89 d6     	sta	$d689                   ; 0xd689 <__heap_start+0x60a3>
    4685: 8a           	txa
    4686: 60           	rts

00004687 <GetOneSector>:
    4687: a4 06        	ldy	$6                      ; 0x6 <__zp_data_size>
    4689: 48           	pha
    468a: a5 04        	lda	$4                      ; 0x4 <__rc2>
    468c: 85 74        	sta	$74                     ; 0x74 <__zp_bss_size+0x33>
    468e: a5 05        	lda	$5                      ; 0x5 <__rc3>
    4690: 85 75        	sta	$75                     ; 0x75 <__zp_bss_size+0x34>
    4692: 68           	pla
    4693: 84 04        	sty	$4                      ; 0x4 <__rc2>
    4695: 20 0c 46     	jsr	$460c <ReadSector>
    4698: c9 02        	cmp	#$2
    469a: b0 2d        	bcs	$46c9 <GetOneSector+0x42>
    469c: a0 fd        	ldy	#$fd
    469e: aa           	tax
    469f: f0 06        	beq	$46a7 <GetOneSector+0x20>
    46a1: 85 76        	sta	$76                     ; 0x76 <__zp_bss_size+0x35>
    46a3: a2 6d        	ldx	#$6d
    46a5: 80 04        	bra	$46ab <GetOneSector+0x24>
    46a7: 85 76        	sta	$76                     ; 0x76 <__zp_bss_size+0x35>
    46a9: a2 6c        	ldx	#$6c
    46ab: a9 01        	lda	#$1
    46ad: 84 04        	sty	$4                      ; 0x4 <__rc2>
    46af: a0 0f        	ldy	#$f
    46b1: 84 05        	sty	$5                      ; 0x5 <__rc3>
    46b3: a4 74        	ldy	$74                     ; 0x74 <__zp_bss_size+0x33>
    46b5: 84 06        	sty	$6                      ; 0x6 <__zp_data_size>
    46b7: a4 75        	ldy	$75                     ; 0x75 <__zp_bss_size+0x34>
    46b9: 84 07        	sty	$7                      ; 0x7 <__rc5>
    46bb: 64 08        	stz	$8                      ; 0x8 <__rc6>
    46bd: 64 09        	stz	$9                      ; 0x9 <__rc7>
    46bf: 64 0a        	stz	$a                      ; 0xa <__rc8>
    46c1: 85 0b        	sta	$b                      ; 0xb <__rc9>
    46c3: 3a           	dec
    46c4: 20 9d 61     	jsr	$619d <lcopy>
    46c7: a5 76        	lda	$76                     ; 0x76 <__zp_bss_size+0x35>
    46c9: 60           	rts

000046ca <PutOneSector>:
    46ca: a8           	tay
    46cb: 86 07        	stx	$7                      ; 0x7 <__rc5>
    46cd: a6 06        	ldx	$6                      ; 0x6 <__zp_data_size>
    46cf: a5 04        	lda	$4                      ; 0x4 <__rc2>
    46d1: 85 6b        	sta	$6b                     ; 0x6b <__zp_bss_size+0x2a>
    46d3: a5 05        	lda	$5                      ; 0x5 <__rc3>
    46d5: 85 6c        	sta	$6c                     ; 0x6c <__zp_bss_size+0x2b>
    46d7: a5 06        	lda	$6                      ; 0x6 <__zp_data_size>
    46d9: 29 01        	and	#$1
    46db: 85 6f        	sta	$6f                     ; 0x6f <__zp_bss_size+0x2e>
    46dd: 86 6d        	stx	$6d                     ; 0x6d <__zp_bss_size+0x2c>
    46df: 86 04        	stx	$4                      ; 0x4 <__rc2>
    46e1: a6 07        	ldx	$7                      ; 0x7 <__rc5>
    46e3: 86 6e        	stx	$6e                     ; 0x6e <__zp_bss_size+0x2d>
    46e5: a6 07        	ldx	$7                      ; 0x7 <__rc5>
    46e7: 84 70        	sty	$70                     ; 0x70 <__zp_bss_size+0x2f>
    46e9: 98           	tya
    46ea: 20 0c 46     	jsr	$460c <ReadSector>
    46ed: 64 06        	stz	$6                      ; 0x6 <__zp_data_size>
    46ef: a9 6c        	lda	#$6c
    46f1: a6 6f        	ldx	$6f                     ; 0x6f <__zp_bss_size+0x2e>
    46f3: d0 06        	bne	$46fb <PutOneSector+0x31>
    46f5: a2 fd        	ldx	#$fd
    46f7: a0 0f        	ldy	#$f
    46f9: 80 06        	bra	$4701 <PutOneSector+0x37>
    46fb: a2 fd        	ldx	#$fd
    46fd: a0 0f        	ldy	#$f
    46ff: a9 6d        	lda	#$6d
    4701: 64 04        	stz	$4                      ; 0x4 <__rc2>
    4703: 64 05        	stz	$5                      ; 0x5 <__rc3>
    4705: 85 07        	sta	$7                      ; 0x7 <__rc5>
    4707: 86 08        	stx	$8                      ; 0x8 <__rc6>
    4709: 84 09        	sty	$9                      ; 0x9 <__rc7>
    470b: 64 0a        	stz	$a                      ; 0xa <__rc8>
    470d: a2 01        	ldx	#$1
    470f: 86 0b        	stx	$b                      ; 0xb <__rc9>
    4711: a6 6c        	ldx	$6c                     ; 0x6c <__zp_bss_size+0x2b>
    4713: a5 6b        	lda	$6b                     ; 0x6b <__zp_bss_size+0x2a>
    4715: 20 9d 61     	jsr	$619d <lcopy>
    4718: a5 6e        	lda	$6e                     ; 0x6e <__zp_bss_size+0x2d>
    471a: d0 03        	bne	$471f <PutOneSector+0x55>
    471c: 4c 89 47     	jmp	$4789 <PutOneSector+0xbf>
    471f: a4 6e        	ldy	$6e                     ; 0x6e <__zp_bss_size+0x2d>
    4721: a5 6d        	lda	$6d                     ; 0x6d <__zp_bss_size+0x2c>
    4723: 29 fe        	and	#$fe
    4725: 85 04        	sta	$4                      ; 0x4 <__rc2>
    4727: c9 14        	cmp	#$14
    4729: a2 01        	ldx	#$1
    472b: b0 02        	bcs	$472f <PutOneSector+0x65>
    472d: a2 00        	ldx	#$0
    472f: 86 6b        	stx	$6b                     ; 0x6b <__zp_bss_size+0x2a>
    4731: a5 70        	lda	$70                     ; 0x70 <__zp_bss_size+0x2f>
    4733: 90 05        	bcc	$473a <PutOneSector+0x70>
    4735: 18           	clc
    4736: 69 28        	adc	#$28
    4738: 80 03        	bra	$473d <PutOneSector+0x73>
    473a: 18           	clc
    473b: 69 20        	adc	#$20
    473d: 8d 80 d0     	sta	$d080                   ; 0xd080 <__heap_start+0x5a9a>
    4740: a2 20        	ldx	#$20
    4742: 8e 81 d0     	stx	$d081                   ; 0xd081 <__heap_start+0x5a9b>
    4745: 88           	dey
    4746: 8c 84 d0     	sty	$d084                   ; 0xd084 <__heap_start+0x5a9e>
    4749: a2 14        	ldx	#$14
    474b: a5 04        	lda	$4                      ; 0x4 <__rc2>
    474d: 20 3b 64     	jsr	$643b <__umodqi3>
    4750: 4a           	lsr
    4751: 1a           	inc
    4752: 8d 85 d0     	sta	$d085                   ; 0xd085 <__heap_start+0x5a9f>
    4755: a5 6b        	lda	$6b                     ; 0x6b <__zp_bss_size+0x2a>
    4757: f0 04        	beq	$475d <PutOneSector+0x93>
    4759: a2 01        	ldx	#$1
    475b: 80 02        	bra	$475f <PutOneSector+0x95>
    475d: a2 00        	ldx	#$0
    475f: 8e 86 d0     	stx	$d086                   ; 0xd086 <__heap_start+0x5aa0>
    4762: a2 84        	ldx	#$84
    4764: 8e 81 d0     	stx	$d081                   ; 0xd081 <__heap_start+0x5a9b>
    4767: ae 82 d0     	ldx	$d082                   ; 0xd082 <__heap_start+0x5a9c>
    476a: 30 fb        	bmi	$4767 <PutOneSector+0x9d>
    476c: ad 82 d0     	lda	$d082                   ; 0xd082 <__heap_start+0x5a9c>
    476f: 29 18        	and	#$18
    4771: f0 0e        	beq	$4781 <PutOneSector+0xb7>
    4773: a2 40        	ldx	#$40
    4775: 8e 80 d0     	stx	$d080                   ; 0xd080 <__heap_start+0x5a9a>
    4778: a2 02        	ldx	#$2
    477a: 8e 20 d0     	stx	$d020                   ; 0xd020 <__heap_start+0x5a3a>
    477d: ae 82 d0     	ldx	$d082                   ; 0xd082 <__heap_start+0x5a9c>
    4780: 60           	rts
    4781: ad 89 d6     	lda	$d689                   ; 0xd689 <__heap_start+0x60a3>
    4784: 29 7f        	and	#$7f
    4786: 8d 89 d6     	sta	$d689                   ; 0xd689 <__heap_start+0x60a3>
    4789: 60           	rts

0000478a <GetBAM>:
    478a: 0a           	asl
    478b: aa           	tax
    478c: a9 00        	lda	#$0
    478e: 2a           	rol
    478f: a8           	tay
    4790: a9 00        	lda	#$0
    4792: 2a           	rol
    4793: 85 04        	sta	$4                      ; 0x4 <__rc2>
    4795: 8a           	txa
    4796: 18           	clc
    4797: 69 1c        	adc	#$1c
    4799: 85 0c        	sta	$c                      ; 0xc <__rc10>
    479b: 98           	tya
    479c: 69 00        	adc	#$0
    479e: 85 06        	sta	$6                      ; 0x6 <__zp_data_size>
    47a0: a5 04        	lda	$4                      ; 0x4 <__rc2>
    47a2: 69 08        	adc	#$8
    47a4: a2 16        	ldx	#$16
    47a6: a0 02        	ldy	#$2
    47a8: 48           	pha
    47a9: a5 06        	lda	$6                      ; 0x6 <__zp_data_size>
    47ab: 85 04        	sta	$4                      ; 0x4 <__rc2>
    47ad: 68           	pla
    47ae: 85 05        	sta	$5                      ; 0x5 <__rc3>
    47b0: 64 06        	stz	$6                      ; 0x6 <__zp_data_size>
    47b2: 86 07        	stx	$7                      ; 0x7 <__rc5>
    47b4: 64 08        	stz	$8                      ; 0x8 <__rc6>
    47b6: 64 09        	stz	$9                      ; 0x9 <__rc7>
    47b8: 64 0a        	stz	$a                      ; 0xa <__rc8>
    47ba: 84 0b        	sty	$b                      ; 0xb <__rc9>
    47bc: a6 0c        	ldx	$c                      ; 0xc <__rc10>
    47be: a9 00        	lda	#$0
    47c0: 4c 9d 61     	jmp	$619d <lcopy>

000047c3 <PutBAM>:
    47c3: 85 6a        	sta	$6a                     ; 0x6a <__zp_bss_size+0x29>
    47c5: 86 69        	stx	$69                     ; 0x69 <__zp_bss_size+0x28>
    47c7: a6 04        	ldx	$4                      ; 0x4 <__rc2>
    47c9: a0 00        	ldy	#$0
    47cb: 84 04        	sty	$4                      ; 0x4 <__rc2>
    47cd: a0 16        	ldy	#$16
    47cf: 84 05        	sty	$5                      ; 0x5 <__rc3>
    47d1: a0 01        	ldy	#$1
    47d3: 84 06        	sty	$6                      ; 0x6 <__zp_data_size>
    47d5: 20 ca 46     	jsr	$46ca <PutOneSector>
    47d8: ae 00 16     	ldx	$1600                   ; 0x1600 <__heap_default_limit+0x600>
    47db: ac 01 16     	ldy	$1601                   ; 0x1601 <__heap_default_limit+0x601>
    47de: a9 00        	lda	#$0
    47e0: 85 04        	sta	$4                      ; 0x4 <__rc2>
    47e2: a9 17        	lda	#$17
    47e4: 85 05        	sta	$5                      ; 0x5 <__rc3>
    47e6: 84 06        	sty	$6                      ; 0x6 <__zp_data_size>
    47e8: a5 6a        	lda	$6a                     ; 0x6a <__zp_bss_size+0x29>
    47ea: 20 ca 46     	jsr	$46ca <PutOneSector>
    47ed: a6 69        	ldx	$69                     ; 0x69 <__zp_bss_size+0x28>
    47ef: 86 04        	stx	$4                      ; 0x4 <__rc2>
    47f1: 06 04        	asl	$4                      ; 0x4 <__rc2>
    47f3: a9 00        	lda	#$0
    47f5: 2a           	rol
    47f6: aa           	tax
    47f7: a9 00        	lda	#$0
    47f9: 2a           	rol
    47fa: a8           	tay
    47fb: a5 04        	lda	$4                      ; 0x4 <__rc2>
    47fd: 18           	clc
    47fe: 69 1c        	adc	#$1c
    4800: 85 07        	sta	$7                      ; 0x7 <__rc5>
    4802: 8a           	txa
    4803: 69 00        	adc	#$0
    4805: 85 08        	sta	$8                      ; 0x8 <__rc6>
    4807: 98           	tya
    4808: 69 08        	adc	#$8
    480a: a2 02        	ldx	#$2
    480c: 64 04        	stz	$4                      ; 0x4 <__rc2>
    480e: 64 05        	stz	$5                      ; 0x5 <__rc3>
    4810: 64 06        	stz	$6                      ; 0x6 <__zp_data_size>
    4812: 85 09        	sta	$9                      ; 0x9 <__rc7>
    4814: 64 0a        	stz	$a                      ; 0xa <__rc8>
    4816: 86 0b        	stx	$b                      ; 0xb <__rc9>
    4818: a2 16        	ldx	#$16
    481a: a9 00        	lda	#$0
    481c: 4c 9d 61     	jmp	$619d <lcopy>

0000481f <readblockchain>:
    481f: 85 6e        	sta	$6e                     ; 0x6e <__zp_bss_size+0x2d>
    4821: 86 6f        	stx	$6f                     ; 0x6f <__zp_bss_size+0x2e>
    4823: a6 04        	ldx	$4                      ; 0x4 <__rc2>
    4825: 86 69        	stx	$69                     ; 0x69 <__zp_bss_size+0x28>
    4827: a6 05        	ldx	$5                      ; 0x5 <__rc3>
    4829: 86 6a        	stx	$6a                     ; 0x6a <__zp_bss_size+0x29>
    482b: a6 06        	ldx	$6                      ; 0x6 <__zp_data_size>
    482d: 86 6b        	stx	$6b                     ; 0x6b <__zp_bss_size+0x2a>
    482f: a6 07        	ldx	$7                      ; 0x7 <__rc5>
    4831: 86 6c        	stx	$6c                     ; 0x6c <__zp_bss_size+0x2b>
    4833: a6 08        	ldx	$8                      ; 0x8 <__rc6>
    4835: 86 6d        	stx	$6d                     ; 0x6d <__zp_bss_size+0x2c>
    4837: a6 09        	ldx	$9                      ; 0x9 <__rc7>
    4839: a4 0a        	ldy	$a                      ; 0xa <__rc8>
    483b: 84 72        	sty	$72                     ; 0x72 <__zp_bss_size+0x31>
    483d: 9c 80 d0     	stz	$d080                   ; 0xd080 <__heap_start+0x5a9a>
    4840: 64 70        	stz	$70                     ; 0x70 <__zp_bss_size+0x2f>
    4842: a9 00        	lda	#$0
    4844: c5 6c        	cmp	$6c                     ; 0x6c <__zp_bss_size+0x2b>
    4846: d0 09        	bne	$4851 <readblockchain+0x32>
    4848: a4 70        	ldy	$70                     ; 0x70 <__zp_bss_size+0x2f>
    484a: c4 6b        	cpy	$6b                     ; 0x6b <__zp_bss_size+0x2a>
    484c: d0 03        	bne	$4851 <readblockchain+0x32>
    484e: 4c af 48     	jmp	$48af <readblockchain+0x90>
    4851: 85 71        	sta	$71                     ; 0x71 <__zp_bss_size+0x30>
    4853: a0 00        	ldy	#$0
    4855: 84 04        	sty	$4                      ; 0x4 <__rc2>
    4857: a0 18        	ldy	#$18
    4859: 84 05        	sty	$5                      ; 0x5 <__rc3>
    485b: a4 72        	ldy	$72                     ; 0x72 <__zp_bss_size+0x31>
    485d: 84 06        	sty	$6                      ; 0x6 <__zp_data_size>
    485f: a5 6d        	lda	$6d                     ; 0x6d <__zp_bss_size+0x2c>
    4861: 20 87 46     	jsr	$4687 <GetOneSector>
    4864: c9 02        	cmp	#$2
    4866: 90 03        	bcc	$486b <readblockchain+0x4c>
    4868: 4c b9 48     	jmp	$48b9 <readblockchain+0x9a>
    486b: ae 00 18     	ldx	$1800                   ; 0x1800 <__heap_default_limit+0x800>
    486e: 86 73        	stx	$73                     ; 0x73 <__zp_bss_size+0x32>
    4870: a9 00        	lda	#$0
    4872: 18           	clc
    4873: 65 6e        	adc	$6e                     ; 0x6e <__zp_bss_size+0x2d>
    4875: 85 06        	sta	$6                      ; 0x6 <__zp_data_size>
    4877: a5 70        	lda	$70                     ; 0x70 <__zp_bss_size+0x2f>
    4879: 65 6f        	adc	$6f                     ; 0x6f <__zp_bss_size+0x2e>
    487b: 85 07        	sta	$7                      ; 0x7 <__rc5>
    487d: a5 71        	lda	$71                     ; 0x71 <__zp_bss_size+0x30>
    487f: 65 69        	adc	$69                     ; 0x69 <__zp_bss_size+0x28>
    4881: 85 08        	sta	$8                      ; 0x8 <__rc6>
    4883: a9 00        	lda	#$0
    4885: 65 6a        	adc	$6a                     ; 0x6a <__zp_bss_size+0x29>
    4887: ae 01 18     	ldx	$1801                   ; 0x1801 <__heap_default_limit+0x801>
    488a: 86 72        	stx	$72                     ; 0x72 <__zp_bss_size+0x31>
    488c: 64 04        	stz	$4                      ; 0x4 <__rc2>
    488e: 64 05        	stz	$5                      ; 0x5 <__rc3>
    4890: 85 09        	sta	$9                      ; 0x9 <__rc7>
    4892: 64 0a        	stz	$a                      ; 0xa <__rc8>
    4894: a2 01        	ldx	#$1
    4896: 86 0b        	stx	$b                      ; 0xb <__rc9>
    4898: a2 18        	ldx	#$18
    489a: a9 00        	lda	#$0
    489c: 20 9d 61     	jsr	$619d <lcopy>
    489f: a5 71        	lda	$71                     ; 0x71 <__zp_bss_size+0x30>
    48a1: a6 73        	ldx	$73                     ; 0x73 <__zp_bss_size+0x32>
    48a3: e6 70        	inc	$70                     ; 0x70 <__zp_bss_size+0x2f>
    48a5: d0 01        	bne	$48a8 <readblockchain+0x89>
    48a7: 1a           	inc
    48a8: a4 73        	ldy	$73                     ; 0x73 <__zp_bss_size+0x32>
    48aa: f0 0a        	beq	$48b6 <readblockchain+0x97>
    48ac: 4c 44 48     	jmp	$4844 <readblockchain+0x25>
    48af: a9 fe        	lda	#$fe
    48b1: e0 00        	cpx	#$0
    48b3: f0 01        	beq	$48b6 <readblockchain+0x97>
    48b5: 60           	rts
    48b6: a9 00        	lda	#$0
    48b8: 60           	rts
    48b9: a9 ff        	lda	#$ff
    48bb: 60           	rts

000048bc <BAMSectorUpdate>:
    48bc: a8           	tay
    48bd: c9 29        	cmp	#$29
    48bf: 90 0e        	bcc	$48cf <BAMSectorUpdate+0x13>
    48c1: a4 06        	ldy	$6                      ; 0x6 <__zp_data_size>
    48c3: 84 75        	sty	$75                     ; 0x75 <__zp_bss_size+0x34>
    48c5: a4 07        	ldy	$7                      ; 0x7 <__rc5>
    48c7: 84 76        	sty	$76                     ; 0x76 <__zp_bss_size+0x35>
    48c9: 18           	clc
    48ca: 69 d8        	adc	#$d8
    48cc: a8           	tay
    48cd: 80 08        	bra	$48d7 <BAMSectorUpdate+0x1b>
    48cf: a5 04        	lda	$4                      ; 0x4 <__rc2>
    48d1: 85 75        	sta	$75                     ; 0x75 <__zp_bss_size+0x34>
    48d3: a5 05        	lda	$5                      ; 0x5 <__rc3>
    48d5: 85 76        	sta	$76                     ; 0x76 <__zp_bss_size+0x35>
    48d7: 88           	dey
    48d8: 84 05        	sty	$5                      ; 0x5 <__rc3>
    48da: a5 08        	lda	$8                      ; 0x8 <__rc6>
    48dc: d0 03        	bne	$48e1 <BAMSectorUpdate+0x25>
    48de: 4c 25 49     	jmp	$4925 <BAMSectorUpdate+0x69>
    48e1: da           	phx
    48e2: 7a           	ply
    48e3: e0 08        	cpx	#$8
    48e5: 90 03        	bcc	$48ea <BAMSectorUpdate+0x2e>
    48e7: 4c 78 49     	jmp	$4978 <BAMSectorUpdate+0xbc>
    48ea: a2 00        	ldx	#$0
    48ec: 86 7b        	stx	$7b                     ; 0x7b <__zp_bss_size+0x3a>
    48ee: a5 05        	lda	$5                      ; 0x5 <__rc3>
    48f0: 85 79        	sta	$79                     ; 0x79 <__zp_bss_size+0x38>
    48f2: 0a           	asl
    48f3: 85 04        	sta	$4                      ; 0x4 <__rc2>
    48f5: 8a           	txa
    48f6: 2a           	rol
    48f7: 85 05        	sta	$5                      ; 0x5 <__rc3>
    48f9: a5 04        	lda	$4                      ; 0x4 <__rc2>
    48fb: 0a           	asl
    48fc: aa           	tax
    48fd: a5 05        	lda	$5                      ; 0x5 <__rc3>
    48ff: 2a           	rol
    4900: 85 06        	sta	$6                      ; 0x6 <__zp_data_size>
    4902: 18           	clc
    4903: 8a           	txa
    4904: 65 04        	adc	$4                      ; 0x4 <__rc2>
    4906: 85 04        	sta	$4                      ; 0x4 <__rc2>
    4908: a5 06        	lda	$6                      ; 0x6 <__zp_data_size>
    490a: 65 05        	adc	$5                      ; 0x5 <__rc3>
    490c: 85 05        	sta	$5                      ; 0x5 <__rc3>
    490e: 18           	clc
    490f: a5 04        	lda	$4                      ; 0x4 <__rc2>
    4911: 65 75        	adc	$75                     ; 0x75 <__zp_bss_size+0x34>
    4913: 85 04        	sta	$4                      ; 0x4 <__rc2>
    4915: a5 05        	lda	$5                      ; 0x5 <__rc3>
    4917: 65 76        	adc	$76                     ; 0x76 <__zp_bss_size+0x35>
    4919: aa           	tax
    491a: 18           	clc
    491b: a5 04        	lda	$4                      ; 0x4 <__rc2>
    491d: 69 11        	adc	#$11
    491f: 85 77        	sta	$77                     ; 0x77 <__zp_bss_size+0x36>
    4921: 8a           	txa
    4922: 4c 2c 4b     	jmp	$4b2c <BAMSectorUpdate+0x270>
    4925: da           	phx
    4926: 7a           	ply
    4927: e0 08        	cpx	#$8
    4929: 90 03        	bcc	$492e <BAMSectorUpdate+0x72>
    492b: 4c d6 49     	jmp	$49d6 <BAMSectorUpdate+0x11a>
    492e: 64 77        	stz	$77                     ; 0x77 <__zp_bss_size+0x36>
    4930: a5 05        	lda	$5                      ; 0x5 <__rc3>
    4932: 85 79        	sta	$79                     ; 0x79 <__zp_bss_size+0x38>
    4934: 0a           	asl
    4935: 85 04        	sta	$4                      ; 0x4 <__rc2>
    4937: a9 00        	lda	#$0
    4939: 2a           	rol
    493a: 85 05        	sta	$5                      ; 0x5 <__rc3>
    493c: a5 04        	lda	$4                      ; 0x4 <__rc2>
    493e: 0a           	asl
    493f: aa           	tax
    4940: a5 05        	lda	$5                      ; 0x5 <__rc3>
    4942: 2a           	rol
    4943: 85 06        	sta	$6                      ; 0x6 <__zp_data_size>
    4945: 18           	clc
    4946: 8a           	txa
    4947: 65 04        	adc	$4                      ; 0x4 <__rc2>
    4949: 85 04        	sta	$4                      ; 0x4 <__rc2>
    494b: a5 06        	lda	$6                      ; 0x6 <__zp_data_size>
    494d: 65 05        	adc	$5                      ; 0x5 <__rc3>
    494f: 85 07        	sta	$7                      ; 0x7 <__rc5>
    4951: 18           	clc
    4952: a5 04        	lda	$4                      ; 0x4 <__rc2>
    4954: 65 75        	adc	$75                     ; 0x75 <__zp_bss_size+0x34>
    4956: 85 06        	sta	$6                      ; 0x6 <__zp_data_size>
    4958: a6 75        	ldx	$75                     ; 0x75 <__zp_bss_size+0x34>
    495a: 86 04        	stx	$4                      ; 0x4 <__rc2>
    495c: a6 76        	ldx	$76                     ; 0x76 <__zp_bss_size+0x35>
    495e: 86 05        	stx	$5                      ; 0x5 <__rc3>
    4960: a6 04        	ldx	$4                      ; 0x4 <__rc2>
    4962: 86 7b        	stx	$7b                     ; 0x7b <__zp_bss_size+0x3a>
    4964: a6 05        	ldx	$5                      ; 0x5 <__rc3>
    4966: 86 7c        	stx	$7c                     ; 0x7c <__zp_bss_size+0x3b>
    4968: a5 07        	lda	$7                      ; 0x7 <__rc5>
    496a: 65 76        	adc	$76                     ; 0x76 <__zp_bss_size+0x35>
    496c: aa           	tax
    496d: 18           	clc
    496e: a5 06        	lda	$6                      ; 0x6 <__zp_data_size>
    4970: 69 11        	adc	#$11
    4972: 85 75        	sta	$75                     ; 0x75 <__zp_bss_size+0x34>
    4974: 8a           	txa
    4975: 4c 70 4b     	jmp	$4b70 <BAMSectorUpdate+0x2b4>
    4978: c0 10        	cpy	#$10
    497a: a2 01        	ldx	#$1
    497c: b0 02        	bcs	$4980 <BAMSectorUpdate+0xc4>
    497e: a2 00        	ldx	#$0
    4980: 86 08        	stx	$8                      ; 0x8 <__rc6>
    4982: a5 75        	lda	$75                     ; 0x75 <__zp_bss_size+0x34>
    4984: 18           	clc
    4985: 69 10        	adc	#$10
    4987: 85 07        	sta	$7                      ; 0x7 <__rc5>
    4989: a5 76        	lda	$76                     ; 0x76 <__zp_bss_size+0x35>
    498b: 69 00        	adc	#$0
    498d: 85 06        	sta	$6                      ; 0x6 <__zp_data_size>
    498f: a6 05        	ldx	$5                      ; 0x5 <__rc3>
    4991: 86 79        	stx	$79                     ; 0x79 <__zp_bss_size+0x38>
    4993: 06 05        	asl	$5                      ; 0x5 <__rc3>
    4995: 64 04        	stz	$4                      ; 0x4 <__rc2>
    4997: 26 04        	rol	$4                      ; 0x4 <__rc2>
    4999: a5 05        	lda	$5                      ; 0x5 <__rc3>
    499b: 0a           	asl
    499c: a6 04        	ldx	$4                      ; 0x4 <__rc2>
    499e: 86 09        	stx	$9                      ; 0x9 <__rc7>
    49a0: 26 09        	rol	$9                      ; 0x9 <__rc7>
    49a2: a6 09        	ldx	$9                      ; 0x9 <__rc7>
    49a4: 86 0a        	stx	$a                      ; 0xa <__rc8>
    49a6: a6 08        	ldx	$8                      ; 0x8 <__rc6>
    49a8: f0 03        	beq	$49ad <BAMSectorUpdate+0xf1>
    49aa: 4c 3a 4a     	jmp	$4a3a <BAMSectorUpdate+0x17e>
    49ad: a2 00        	ldx	#$0
    49af: 86 7b        	stx	$7b                     ; 0x7b <__zp_bss_size+0x3a>
    49b1: 18           	clc
    49b2: aa           	tax
    49b3: 98           	tya
    49b4: 69 f8        	adc	#$f8
    49b6: a8           	tay
    49b7: 18           	clc
    49b8: 8a           	txa
    49b9: 65 05        	adc	$5                      ; 0x5 <__rc3>
    49bb: 85 05        	sta	$5                      ; 0x5 <__rc3>
    49bd: a5 09        	lda	$9                      ; 0x9 <__rc7>
    49bf: 65 04        	adc	$4                      ; 0x4 <__rc2>
    49c1: 85 04        	sta	$4                      ; 0x4 <__rc2>
    49c3: a5 07        	lda	$7                      ; 0x7 <__rc5>
    49c5: 18           	clc
    49c6: 65 05        	adc	$5                      ; 0x5 <__rc3>
    49c8: aa           	tax
    49c9: a5 06        	lda	$6                      ; 0x6 <__zp_data_size>
    49cb: 65 04        	adc	$4                      ; 0x4 <__rc2>
    49cd: 85 04        	sta	$4                      ; 0x4 <__rc2>
    49cf: 18           	clc
    49d0: 8a           	txa
    49d1: 69 02        	adc	#$2
    49d3: 4c 28 4b     	jmp	$4b28 <BAMSectorUpdate+0x26c>
    49d6: c0 10        	cpy	#$10
    49d8: a2 01        	ldx	#$1
    49da: b0 02        	bcs	$49de <BAMSectorUpdate+0x122>
    49dc: a2 00        	ldx	#$0
    49de: 86 08        	stx	$8                      ; 0x8 <__rc6>
    49e0: 64 77        	stz	$77                     ; 0x77 <__zp_bss_size+0x36>
    49e2: a5 75        	lda	$75                     ; 0x75 <__zp_bss_size+0x34>
    49e4: 18           	clc
    49e5: 69 10        	adc	#$10
    49e7: 85 07        	sta	$7                      ; 0x7 <__rc5>
    49e9: a5 76        	lda	$76                     ; 0x76 <__zp_bss_size+0x35>
    49eb: 69 00        	adc	#$0
    49ed: 85 06        	sta	$6                      ; 0x6 <__zp_data_size>
    49ef: a6 05        	ldx	$5                      ; 0x5 <__rc3>
    49f1: 86 79        	stx	$79                     ; 0x79 <__zp_bss_size+0x38>
    49f3: 06 05        	asl	$5                      ; 0x5 <__rc3>
    49f5: 64 04        	stz	$4                      ; 0x4 <__rc2>
    49f7: 26 04        	rol	$4                      ; 0x4 <__rc2>
    49f9: a5 05        	lda	$5                      ; 0x5 <__rc3>
    49fb: 0a           	asl
    49fc: a6 04        	ldx	$4                      ; 0x4 <__rc2>
    49fe: 86 09        	stx	$9                      ; 0x9 <__rc7>
    4a00: 26 09        	rol	$9                      ; 0x9 <__rc7>
    4a02: a6 09        	ldx	$9                      ; 0x9 <__rc7>
    4a04: 86 0a        	stx	$a                      ; 0xa <__rc8>
    4a06: a6 08        	ldx	$8                      ; 0x8 <__rc6>
    4a08: f0 03        	beq	$4a0d <BAMSectorUpdate+0x151>
    4a0a: 4c 6c 4a     	jmp	$4a6c <BAMSectorUpdate+0x1b0>
    4a0d: a6 75        	ldx	$75                     ; 0x75 <__zp_bss_size+0x34>
    4a0f: 86 7b        	stx	$7b                     ; 0x7b <__zp_bss_size+0x3a>
    4a11: a6 76        	ldx	$76                     ; 0x76 <__zp_bss_size+0x35>
    4a13: 86 7c        	stx	$7c                     ; 0x7c <__zp_bss_size+0x3b>
    4a15: 18           	clc
    4a16: aa           	tax
    4a17: 98           	tya
    4a18: 69 f8        	adc	#$f8
    4a1a: a8           	tay
    4a1b: 18           	clc
    4a1c: 8a           	txa
    4a1d: 65 05        	adc	$5                      ; 0x5 <__rc3>
    4a1f: 85 05        	sta	$5                      ; 0x5 <__rc3>
    4a21: a5 09        	lda	$9                      ; 0x9 <__rc7>
    4a23: 65 04        	adc	$4                      ; 0x4 <__rc2>
    4a25: 85 04        	sta	$4                      ; 0x4 <__rc2>
    4a27: a5 07        	lda	$7                      ; 0x7 <__rc5>
    4a29: 18           	clc
    4a2a: 65 05        	adc	$5                      ; 0x5 <__rc3>
    4a2c: aa           	tax
    4a2d: a5 06        	lda	$6                      ; 0x6 <__zp_data_size>
    4a2f: 65 04        	adc	$4                      ; 0x4 <__rc2>
    4a31: 85 04        	sta	$4                      ; 0x4 <__rc2>
    4a33: 18           	clc
    4a34: 8a           	txa
    4a35: 69 02        	adc	#$2
    4a37: 4c 6c 4b     	jmp	$4b6c <BAMSectorUpdate+0x2b0>
    4a3a: 85 09        	sta	$9                      ; 0x9 <__rc7>
    4a3c: c0 18        	cpy	#$18
    4a3e: 90 03        	bcc	$4a43 <BAMSectorUpdate+0x187>
    4a40: 4c a2 4a     	jmp	$4aa2 <BAMSectorUpdate+0x1e6>
    4a43: a2 00        	ldx	#$0
    4a45: 86 7b        	stx	$7b                     ; 0x7b <__zp_bss_size+0x3a>
    4a47: 18           	clc
    4a48: 98           	tya
    4a49: 69 f0        	adc	#$f0
    4a4b: a8           	tay
    4a4c: a5 09        	lda	$9                      ; 0x9 <__rc7>
    4a4e: 18           	clc
    4a4f: 65 05        	adc	$5                      ; 0x5 <__rc3>
    4a51: 85 05        	sta	$5                      ; 0x5 <__rc3>
    4a53: a5 0a        	lda	$a                      ; 0xa <__rc8>
    4a55: 65 04        	adc	$4                      ; 0x4 <__rc2>
    4a57: 85 04        	sta	$4                      ; 0x4 <__rc2>
    4a59: a5 07        	lda	$7                      ; 0x7 <__rc5>
    4a5b: 18           	clc
    4a5c: 65 05        	adc	$5                      ; 0x5 <__rc3>
    4a5e: aa           	tax
    4a5f: a5 06        	lda	$6                      ; 0x6 <__zp_data_size>
    4a61: 65 04        	adc	$4                      ; 0x4 <__rc2>
    4a63: 85 04        	sta	$4                      ; 0x4 <__rc2>
    4a65: 18           	clc
    4a66: 8a           	txa
    4a67: 69 03        	adc	#$3
    4a69: 4c 28 4b     	jmp	$4b28 <BAMSectorUpdate+0x26c>
    4a6c: 85 09        	sta	$9                      ; 0x9 <__rc7>
    4a6e: c0 18        	cpy	#$18
    4a70: 90 03        	bcc	$4a75 <BAMSectorUpdate+0x1b9>
    4a72: 4c d2 4a     	jmp	$4ad2 <BAMSectorUpdate+0x216>
    4a75: a6 75        	ldx	$75                     ; 0x75 <__zp_bss_size+0x34>
    4a77: 86 7b        	stx	$7b                     ; 0x7b <__zp_bss_size+0x3a>
    4a79: a6 76        	ldx	$76                     ; 0x76 <__zp_bss_size+0x35>
    4a7b: 86 7c        	stx	$7c                     ; 0x7c <__zp_bss_size+0x3b>
    4a7d: 18           	clc
    4a7e: 98           	tya
    4a7f: 69 f0        	adc	#$f0
    4a81: a8           	tay
    4a82: a5 09        	lda	$9                      ; 0x9 <__rc7>
    4a84: 18           	clc
    4a85: 65 05        	adc	$5                      ; 0x5 <__rc3>
    4a87: 85 05        	sta	$5                      ; 0x5 <__rc3>
    4a89: a5 0a        	lda	$a                      ; 0xa <__rc8>
    4a8b: 65 04        	adc	$4                      ; 0x4 <__rc2>
    4a8d: 85 04        	sta	$4                      ; 0x4 <__rc2>
    4a8f: a5 07        	lda	$7                      ; 0x7 <__rc5>
    4a91: 18           	clc
    4a92: 65 05        	adc	$5                      ; 0x5 <__rc3>
    4a94: aa           	tax
    4a95: a5 06        	lda	$6                      ; 0x6 <__zp_data_size>
    4a97: 65 04        	adc	$4                      ; 0x4 <__rc2>
    4a99: 85 04        	sta	$4                      ; 0x4 <__rc2>
    4a9b: 18           	clc
    4a9c: 8a           	txa
    4a9d: 69 03        	adc	#$3
    4a9f: 4c 6c 4b     	jmp	$4b6c <BAMSectorUpdate+0x2b0>
    4aa2: a2 00        	ldx	#$0
    4aa4: 86 7b        	stx	$7b                     ; 0x7b <__zp_bss_size+0x3a>
    4aa6: c0 20        	cpy	#$20
    4aa8: 90 03        	bcc	$4aad <BAMSectorUpdate+0x1f1>
    4aaa: 4c 06 4b     	jmp	$4b06 <BAMSectorUpdate+0x24a>
    4aad: 18           	clc
    4aae: 98           	tya
    4aaf: 69 e8        	adc	#$e8
    4ab1: a8           	tay
    4ab2: a5 09        	lda	$9                      ; 0x9 <__rc7>
    4ab4: 18           	clc
    4ab5: 65 05        	adc	$5                      ; 0x5 <__rc3>
    4ab7: 85 05        	sta	$5                      ; 0x5 <__rc3>
    4ab9: a5 0a        	lda	$a                      ; 0xa <__rc8>
    4abb: 65 04        	adc	$4                      ; 0x4 <__rc2>
    4abd: 85 04        	sta	$4                      ; 0x4 <__rc2>
    4abf: a5 07        	lda	$7                      ; 0x7 <__rc5>
    4ac1: 18           	clc
    4ac2: 65 05        	adc	$5                      ; 0x5 <__rc3>
    4ac4: aa           	tax
    4ac5: a5 06        	lda	$6                      ; 0x6 <__zp_data_size>
    4ac7: 65 04        	adc	$4                      ; 0x4 <__rc2>
    4ac9: 85 04        	sta	$4                      ; 0x4 <__rc2>
    4acb: 18           	clc
    4acc: 8a           	txa
    4acd: 69 04        	adc	#$4
    4acf: 4c 28 4b     	jmp	$4b28 <BAMSectorUpdate+0x26c>
    4ad2: a6 75        	ldx	$75                     ; 0x75 <__zp_bss_size+0x34>
    4ad4: 86 7b        	stx	$7b                     ; 0x7b <__zp_bss_size+0x3a>
    4ad6: a6 76        	ldx	$76                     ; 0x76 <__zp_bss_size+0x35>
    4ad8: 86 7c        	stx	$7c                     ; 0x7c <__zp_bss_size+0x3b>
    4ada: c0 20        	cpy	#$20
    4adc: 90 03        	bcc	$4ae1 <BAMSectorUpdate+0x225>
    4ade: 4c 4a 4b     	jmp	$4b4a <BAMSectorUpdate+0x28e>
    4ae1: 18           	clc
    4ae2: 98           	tya
    4ae3: 69 e8        	adc	#$e8
    4ae5: a8           	tay
    4ae6: a5 09        	lda	$9                      ; 0x9 <__rc7>
    4ae8: 18           	clc
    4ae9: 65 05        	adc	$5                      ; 0x5 <__rc3>
    4aeb: 85 05        	sta	$5                      ; 0x5 <__rc3>
    4aed: a5 0a        	lda	$a                      ; 0xa <__rc8>
    4aef: 65 04        	adc	$4                      ; 0x4 <__rc2>
    4af1: 85 04        	sta	$4                      ; 0x4 <__rc2>
    4af3: a5 07        	lda	$7                      ; 0x7 <__rc5>
    4af5: 18           	clc
    4af6: 65 05        	adc	$5                      ; 0x5 <__rc3>
    4af8: aa           	tax
    4af9: a5 06        	lda	$6                      ; 0x6 <__zp_data_size>
    4afb: 65 04        	adc	$4                      ; 0x4 <__rc2>
    4afd: 85 04        	sta	$4                      ; 0x4 <__rc2>
    4aff: 18           	clc
    4b00: 8a           	txa
    4b01: 69 04        	adc	#$4
    4b03: 4c 6c 4b     	jmp	$4b6c <BAMSectorUpdate+0x2b0>
    4b06: 18           	clc
    4b07: 98           	tya
    4b08: 69 e0        	adc	#$e0
    4b0a: a8           	tay
    4b0b: a5 09        	lda	$9                      ; 0x9 <__rc7>
    4b0d: 18           	clc
    4b0e: 65 05        	adc	$5                      ; 0x5 <__rc3>
    4b10: 85 05        	sta	$5                      ; 0x5 <__rc3>
    4b12: a5 0a        	lda	$a                      ; 0xa <__rc8>
    4b14: 65 04        	adc	$4                      ; 0x4 <__rc2>
    4b16: 85 04        	sta	$4                      ; 0x4 <__rc2>
    4b18: a5 07        	lda	$7                      ; 0x7 <__rc5>
    4b1a: 18           	clc
    4b1b: 65 05        	adc	$5                      ; 0x5 <__rc3>
    4b1d: aa           	tax
    4b1e: a5 06        	lda	$6                      ; 0x6 <__zp_data_size>
    4b20: 65 04        	adc	$4                      ; 0x4 <__rc2>
    4b22: 85 04        	sta	$4                      ; 0x4 <__rc2>
    4b24: 18           	clc
    4b25: 8a           	txa
    4b26: 69 05        	adc	#$5
    4b28: 85 77        	sta	$77                     ; 0x77 <__zp_bss_size+0x36>
    4b2a: a5 04        	lda	$4                      ; 0x4 <__rc2>
    4b2c: 69 00        	adc	#$0
    4b2e: 85 78        	sta	$78                     ; 0x78 <__zp_bss_size+0x37>
    4b30: a9 01        	lda	#$1
    4b32: a2 00        	ldx	#$0
    4b34: 84 04        	sty	$4                      ; 0x4 <__rc2>
    4b36: 20 35 63     	jsr	$6335 <__ashlhi3>
    4b39: a2 ff        	ldx	#$ff
    4b3b: 86 7a        	stx	$7a                     ; 0x7a <__zp_bss_size+0x39>
    4b3d: 49 ff        	eor	#$ff
    4b3f: 32 77        	and	($77),z                 ; 0x77 <__zp_bss_size+0x36>
    4b41: 92 77        	sta	($77),z                 ; 0x77 <__zp_bss_size+0x36>
    4b43: a6 7b        	ldx	$7b                     ; 0x7b <__zp_bss_size+0x3a>
    4b45: 86 77        	stx	$77                     ; 0x77 <__zp_bss_size+0x36>
    4b47: 4c 8c 4b     	jmp	$4b8c <BAMSectorUpdate+0x2d0>
    4b4a: 18           	clc
    4b4b: 98           	tya
    4b4c: 69 e0        	adc	#$e0
    4b4e: a8           	tay
    4b4f: a5 09        	lda	$9                      ; 0x9 <__rc7>
    4b51: 18           	clc
    4b52: 65 05        	adc	$5                      ; 0x5 <__rc3>
    4b54: 85 05        	sta	$5                      ; 0x5 <__rc3>
    4b56: a5 0a        	lda	$a                      ; 0xa <__rc8>
    4b58: 65 04        	adc	$4                      ; 0x4 <__rc2>
    4b5a: 85 04        	sta	$4                      ; 0x4 <__rc2>
    4b5c: a5 07        	lda	$7                      ; 0x7 <__rc5>
    4b5e: 18           	clc
    4b5f: 65 05        	adc	$5                      ; 0x5 <__rc3>
    4b61: aa           	tax
    4b62: a5 06        	lda	$6                      ; 0x6 <__zp_data_size>
    4b64: 65 04        	adc	$4                      ; 0x4 <__rc2>
    4b66: 85 04        	sta	$4                      ; 0x4 <__rc2>
    4b68: 18           	clc
    4b69: 8a           	txa
    4b6a: 69 05        	adc	#$5
    4b6c: 85 75        	sta	$75                     ; 0x75 <__zp_bss_size+0x34>
    4b6e: a5 04        	lda	$4                      ; 0x4 <__rc2>
    4b70: 69 00        	adc	#$0
    4b72: 85 76        	sta	$76                     ; 0x76 <__zp_bss_size+0x35>
    4b74: a9 01        	lda	#$1
    4b76: a2 00        	ldx	#$0
    4b78: 84 04        	sty	$4                      ; 0x4 <__rc2>
    4b7a: a8           	tay
    4b7b: 84 7a        	sty	$7a                     ; 0x7a <__zp_bss_size+0x39>
    4b7d: 20 35 63     	jsr	$6335 <__ashlhi3>
    4b80: 12 75        	ora	($75),z                 ; 0x75 <__zp_bss_size+0x34>
    4b82: 92 75        	sta	($75),z                 ; 0x75 <__zp_bss_size+0x34>
    4b84: a6 7b        	ldx	$7b                     ; 0x7b <__zp_bss_size+0x3a>
    4b86: 86 75        	stx	$75                     ; 0x75 <__zp_bss_size+0x34>
    4b88: a6 7c        	ldx	$7c                     ; 0x7c <__zp_bss_size+0x3b>
    4b8a: 86 76        	stx	$76                     ; 0x76 <__zp_bss_size+0x35>
    4b8c: a6 79        	ldx	$79                     ; 0x79 <__zp_bss_size+0x38>
    4b8e: 86 04        	stx	$4                      ; 0x4 <__rc2>
    4b90: 06 04        	asl	$4                      ; 0x4 <__rc2>
    4b92: 26 77        	rol	$77                     ; 0x77 <__zp_bss_size+0x36>
    4b94: a5 04        	lda	$4                      ; 0x4 <__rc2>
    4b96: 0a           	asl
    4b97: a6 77        	ldx	$77                     ; 0x77 <__zp_bss_size+0x36>
    4b99: 86 05        	stx	$5                      ; 0x5 <__rc3>
    4b9b: 26 05        	rol	$5                      ; 0x5 <__rc3>
    4b9d: 18           	clc
    4b9e: 65 04        	adc	$4                      ; 0x4 <__rc2>
    4ba0: aa           	tax
    4ba1: a5 05        	lda	$5                      ; 0x5 <__rc3>
    4ba3: 65 77        	adc	$77                     ; 0x77 <__zp_bss_size+0x36>
    4ba5: 85 04        	sta	$4                      ; 0x4 <__rc2>
    4ba7: 18           	clc
    4ba8: 8a           	txa
    4ba9: 65 75        	adc	$75                     ; 0x75 <__zp_bss_size+0x34>
    4bab: aa           	tax
    4bac: a5 76        	lda	$76                     ; 0x76 <__zp_bss_size+0x35>
    4bae: 65 04        	adc	$4                      ; 0x4 <__rc2>
    4bb0: 86 04        	stx	$4                      ; 0x4 <__rc2>
    4bb2: 85 05        	sta	$5                      ; 0x5 <__rc3>
    4bb4: a0 10        	ldy	#$10
    4bb6: 18           	clc
    4bb7: a5 7a        	lda	$7a                     ; 0x7a <__zp_bss_size+0x39>
    4bb9: 71 04        	adc	($4),y                  ; 0x4 <__rc2>
    4bbb: 91 04        	sta	($4),y                  ; 0x4 <__rc2>
    4bbd: 60           	rts

00004bbe <findnextBAMtracksector>:
    4bbe: 85 6d        	sta	$6d                     ; 0x6d <__zp_bss_size+0x2c>
    4bc0: a6 04        	ldx	$4                      ; 0x4 <__rc2>
    4bc2: 86 69        	stx	$69                     ; 0x69 <__zp_bss_size+0x28>
    4bc4: a6 05        	ldx	$5                      ; 0x5 <__rc3>
    4bc6: 86 6a        	stx	$6a                     ; 0x6a <__zp_bss_size+0x29>
    4bc8: a6 06        	ldx	$6                      ; 0x6 <__zp_data_size>
    4bca: 86 6b        	stx	$6b                     ; 0x6b <__zp_bss_size+0x2a>
    4bcc: a6 07        	ldx	$7                      ; 0x7 <__rc5>
    4bce: 86 6c        	stx	$6c                     ; 0x6c <__zp_bss_size+0x2b>
    4bd0: 64 6e        	stz	$6e                     ; 0x6e <__zp_bss_size+0x2d>
    4bd2: a0 00        	ldy	#$0
    4bd4: c0 50        	cpy	#$50
    4bd6: d0 03        	bne	$4bdb <findnextBAMtracksector+0x1d>
    4bd8: 4c d1 4c     	jmp	$4cd1 <findnextBAMtracksector+0x113>
    4bdb: b9 86 71     	lda	$7186,y                 ; 0x7186 <midnight+0x8>
    4bde: a6 6d        	ldx	$6d                     ; 0x6d <__zp_bss_size+0x2c>
    4be0: f0 01        	beq	$4be3 <findnextBAMtracksector+0x25>
    4be2: 1a           	inc
    4be3: c9 50        	cmp	#$50
    4be5: a2 7a        	ldx	#$7a
    4be7: 86 04        	stx	$4                      ; 0x4 <__rc2>
    4be9: a2 71        	ldx	#$71
    4beb: 86 05        	stx	$5                      ; 0x5 <__rc3>
    4bed: 84 73        	sty	$73                     ; 0x73 <__zp_bss_size+0x32>
    4bef: 90 06        	bcc	$4bf7 <findnextBAMtracksector+0x39>
    4bf1: 64 72        	stz	$72                     ; 0x72 <__zp_bss_size+0x31>
    4bf3: a9 00        	lda	#$0
    4bf5: 80 15        	bra	$4c0c <findnextBAMtracksector+0x4e>
    4bf7: c9 28        	cmp	#$28
    4bf9: b0 04        	bcs	$4bff <findnextBAMtracksector+0x41>
    4bfb: 85 72        	sta	$72                     ; 0x72 <__zp_bss_size+0x31>
    4bfd: 80 0d        	bra	$4c0c <findnextBAMtracksector+0x4e>
    4bff: 18           	clc
    4c00: 85 72        	sta	$72                     ; 0x72 <__zp_bss_size+0x31>
    4c02: 69 d8        	adc	#$d8
    4c04: a2 7c        	ldx	#$7c
    4c06: 86 04        	stx	$4                      ; 0x4 <__rc2>
    4c08: a2 71        	ldx	#$71
    4c0a: 86 05        	stx	$5                      ; 0x5 <__rc3>
    4c0c: 0a           	asl
    4c0d: 85 06        	sta	$6                      ; 0x6 <__zp_data_size>
    4c0f: a9 00        	lda	#$0
    4c11: 2a           	rol
    4c12: 85 07        	sta	$7                      ; 0x7 <__rc5>
    4c14: a5 06        	lda	$6                      ; 0x6 <__zp_data_size>
    4c16: 0a           	asl
    4c17: aa           	tax
    4c18: a5 07        	lda	$7                      ; 0x7 <__rc5>
    4c1a: 2a           	rol
    4c1b: a8           	tay
    4c1c: 18           	clc
    4c1d: 8a           	txa
    4c1e: 65 06        	adc	$6                      ; 0x6 <__zp_data_size>
    4c20: 85 06        	sta	$6                      ; 0x6 <__zp_data_size>
    4c22: 98           	tya
    4c23: 65 07        	adc	$7                      ; 0x7 <__rc5>
    4c25: aa           	tax
    4c26: 18           	clc
    4c27: a5 06        	lda	$6                      ; 0x6 <__zp_data_size>
    4c29: 72 04        	adc	($4),z                  ; 0x4 <__rc2>
    4c2b: 85 6f        	sta	$6f                     ; 0x6f <__zp_bss_size+0x2e>
    4c2d: a0 01        	ldy	#$1
    4c2f: 8a           	txa
    4c30: 71 04        	adc	($4),y                  ; 0x4 <__rc2>
    4c32: 85 70        	sta	$70                     ; 0x70 <__zp_bss_size+0x2f>
    4c34: a2 00        	ldx	#$0
    4c36: 4c 8a 4c     	jmp	$4c8a <findnextBAMtracksector+0xcc>
    4c39: e0 10        	cpx	#$10
    4c3b: b0 0f        	bcs	$4c4c <findnextBAMtracksector+0x8e>
    4c3d: a0 12        	ldy	#$12
    4c3f: b1 6f        	lda	($6f),y                 ; 0x6f <__zp_bss_size+0x2e>
    4c41: 85 71        	sta	$71                     ; 0x71 <__zp_bss_size+0x30>
    4c43: 18           	clc
    4c44: 86 74        	stx	$74                     ; 0x74 <__zp_bss_size+0x33>
    4c46: 8a           	txa
    4c47: 69 f8        	adc	#$f8
    4c49: 4c 7a 4c     	jmp	$4c7a <findnextBAMtracksector+0xbc>
    4c4c: e0 18        	cpx	#$18
    4c4e: b0 0e        	bcs	$4c5e <findnextBAMtracksector+0xa0>
    4c50: a0 13        	ldy	#$13
    4c52: b1 6f        	lda	($6f),y                 ; 0x6f <__zp_bss_size+0x2e>
    4c54: 85 71        	sta	$71                     ; 0x71 <__zp_bss_size+0x30>
    4c56: 18           	clc
    4c57: 86 74        	stx	$74                     ; 0x74 <__zp_bss_size+0x33>
    4c59: 8a           	txa
    4c5a: 69 f0        	adc	#$f0
    4c5c: 80 1c        	bra	$4c7a <findnextBAMtracksector+0xbc>
    4c5e: e0 20        	cpx	#$20
    4c60: 86 74        	stx	$74                     ; 0x74 <__zp_bss_size+0x33>
    4c62: b0 0c        	bcs	$4c70 <findnextBAMtracksector+0xb2>
    4c64: a0 14        	ldy	#$14
    4c66: b1 6f        	lda	($6f),y                 ; 0x6f <__zp_bss_size+0x2e>
    4c68: 85 71        	sta	$71                     ; 0x71 <__zp_bss_size+0x30>
    4c6a: 18           	clc
    4c6b: 8a           	txa
    4c6c: 69 e8        	adc	#$e8
    4c6e: 80 0a        	bra	$4c7a <findnextBAMtracksector+0xbc>
    4c70: a0 15        	ldy	#$15
    4c72: b1 6f        	lda	($6f),y                 ; 0x6f <__zp_bss_size+0x2e>
    4c74: 85 71        	sta	$71                     ; 0x71 <__zp_bss_size+0x30>
    4c76: 18           	clc
    4c77: 8a           	txa
    4c78: 69 e0        	adc	#$e0
    4c7a: 85 04        	sta	$4                      ; 0x4 <__rc2>
    4c7c: a2 00        	ldx	#$0
    4c7e: a9 01        	lda	#$1
    4c80: 20 35 63     	jsr	$6335 <__ashlhi3>
    4c83: 25 71        	and	$71                     ; 0x71 <__zp_bss_size+0x30>
    4c85: d0 20        	bne	$4ca7 <findnextBAMtracksector+0xe9>
    4c87: a6 74        	ldx	$74                     ; 0x74 <__zp_bss_size+0x33>
    4c89: e8           	inx
    4c8a: e0 28        	cpx	#$28
    4c8c: f0 13        	beq	$4ca1 <findnextBAMtracksector+0xe3>
    4c8e: e0 08        	cpx	#$8
    4c90: 90 03        	bcc	$4c95 <findnextBAMtracksector+0xd7>
    4c92: 4c 39 4c     	jmp	$4c39 <findnextBAMtracksector+0x7b>
    4c95: a0 11        	ldy	#$11
    4c97: 86 04        	stx	$4                      ; 0x4 <__rc2>
    4c99: b1 6f        	lda	($6f),y                 ; 0x6f <__zp_bss_size+0x2e>
    4c9b: 85 71        	sta	$71                     ; 0x71 <__zp_bss_size+0x30>
    4c9d: 86 74        	stx	$74                     ; 0x74 <__zp_bss_size+0x33>
    4c9f: 80 db        	bra	$4c7c <findnextBAMtracksector+0xbe>
    4ca1: a4 73        	ldy	$73                     ; 0x73 <__zp_bss_size+0x32>
    4ca3: c8           	iny
    4ca4: 4c d4 4b     	jmp	$4bd4 <findnextBAMtracksector+0x16>
    4ca7: a2 01        	ldx	#$1
    4ca9: a4 72        	ldy	$72                     ; 0x72 <__zp_bss_size+0x31>
    4cab: 84 6d        	sty	$6d                     ; 0x6d <__zp_bss_size+0x2c>
    4cad: e6 6d        	inc	$6d                     ; 0x6d <__zp_bss_size+0x2c>
    4caf: a0 00        	ldy	#$0
    4cb1: 84 04        	sty	$4                      ; 0x4 <__rc2>
    4cb3: a0 16        	ldy	#$16
    4cb5: 84 05        	sty	$5                      ; 0x5 <__rc3>
    4cb7: a0 00        	ldy	#$0
    4cb9: 84 06        	sty	$6                      ; 0x6 <__zp_data_size>
    4cbb: a0 17        	ldy	#$17
    4cbd: 84 07        	sty	$7                      ; 0x7 <__rc5>
    4cbf: 86 08        	stx	$8                      ; 0x8 <__rc6>
    4cc1: a6 74        	ldx	$74                     ; 0x74 <__zp_bss_size+0x33>
    4cc3: a5 6d        	lda	$6d                     ; 0x6d <__zp_bss_size+0x2c>
    4cc5: 20 bc 48     	jsr	$48bc <BAMSectorUpdate>
    4cc8: a5 6d        	lda	$6d                     ; 0x6d <__zp_bss_size+0x2c>
    4cca: 92 69        	sta	($69),z                 ; 0x69 <__zp_bss_size+0x28>
    4ccc: a5 74        	lda	$74                     ; 0x74 <__zp_bss_size+0x33>
    4cce: 92 6b        	sta	($6b),z                 ; 0x6b <__zp_bss_size+0x2a>
    4cd0: 60           	rts
    4cd1: a9 ff        	lda	#$ff
    4cd3: 64 74        	stz	$74                     ; 0x74 <__zp_bss_size+0x33>
    4cd5: 80 f3        	bra	$4cca <findnextBAMtracksector+0x10c>

00004cd7 <tracksectorstring>:
    4cd7: 86 6b        	stx	$6b                     ; 0x6b <__zp_bss_size+0x2a>
    4cd9: a2 54        	ldx	#$54
    4cdb: 86 28        	stx	$28                     ; 0x28 <s>
    4cdd: a2 72        	ldx	#$72
    4cdf: 86 29        	stx	$29                     ; 0x29 <s+0x1>
    4ce1: a2 61        	ldx	#$61
    4ce3: 86 2a        	stx	$2a                     ; 0x2a <s+0x2>
    4ce5: a2 63        	ldx	#$63
    4ce7: 86 2b        	stx	$2b                     ; 0x2b <s+0x3>
    4ce9: a2 6b        	ldx	#$6b
    4ceb: 86 2c        	stx	$2c                     ; 0x2c <s+0x4>
    4ced: a2 3a        	ldx	#$3a
    4cef: 86 2d        	stx	$2d                     ; 0x2d <s+0x5>
    4cf1: a2 20        	ldx	#$20
    4cf3: 86 2e        	stx	$2e                     ; 0x2e <s+0x6>
    4cf5: a2 6a        	ldx	#$6a
    4cf7: a0 00        	ldy	#$0
    4cf9: 86 04        	stx	$4                      ; 0x4 <__rc2>
    4cfb: 84 05        	sty	$5                      ; 0x5 <__rc3>
    4cfd: a2 0a        	ldx	#$a
    4cff: 20 80 64     	jsr	$6480 <__udivmodqi4>
    4d02: 18           	clc
    4d03: 69 30        	adc	#$30
    4d05: aa           	tax
    4d06: a5 6a        	lda	$6a                     ; 0x6a <__zp_bss_size+0x29>
    4d08: 86 2f        	stx	$2f                     ; 0x2f <s+0x7>
    4d0a: 09 30        	ora	#$30
    4d0c: 85 30        	sta	$30                     ; 0x30 <s+0x8>
    4d0e: a2 53        	ldx	#$53
    4d10: 86 32        	stx	$32                     ; 0x32 <s+0xa>
    4d12: a2 65        	ldx	#$65
    4d14: 86 33        	stx	$33                     ; 0x33 <s+0xb>
    4d16: a2 63        	ldx	#$63
    4d18: 86 34        	stx	$34                     ; 0x34 <s+0xc>
    4d1a: a2 74        	ldx	#$74
    4d1c: 86 35        	stx	$35                     ; 0x35 <s+0xd>
    4d1e: a2 6f        	ldx	#$6f
    4d20: 86 36        	stx	$36                     ; 0x36 <s+0xe>
    4d22: a2 72        	ldx	#$72
    4d24: 86 37        	stx	$37                     ; 0x37 <s+0xf>
    4d26: a2 3a        	ldx	#$3a
    4d28: 86 38        	stx	$38                     ; 0x38 <s+0x10>
    4d2a: a2 20        	ldx	#$20
    4d2c: 86 31        	stx	$31                     ; 0x31 <s+0x9>
    4d2e: 86 39        	stx	$39                     ; 0x39 <s+0x11>
    4d30: a2 69        	ldx	#$69
    4d32: a0 00        	ldy	#$0
    4d34: 86 04        	stx	$4                      ; 0x4 <__rc2>
    4d36: 84 05        	sty	$5                      ; 0x5 <__rc3>
    4d38: a2 0a        	ldx	#$a
    4d3a: a5 6b        	lda	$6b                     ; 0x6b <__zp_bss_size+0x2a>
    4d3c: 20 80 64     	jsr	$6480 <__udivmodqi4>
    4d3f: a6 69        	ldx	$69                     ; 0x69 <__zp_bss_size+0x28>
    4d41: 18           	clc
    4d42: 69 30        	adc	#$30
    4d44: 85 3a        	sta	$3a                     ; 0x3a <s+0x12>
    4d46: 8a           	txa
    4d47: 09 30        	ora	#$30
    4d49: 85 3b        	sta	$3b                     ; 0x3b <s+0x13>
    4d4b: 64 3c        	stz	$3c                     ; 0x3c <s+0x14>
    4d4d: 60           	rts

00004d4e <getdirententry>:
    4d4e: 86 69        	stx	$69                     ; 0x69 <__zp_bss_size+0x28>
    4d50: a0 00        	ldy	#$0
    4d52: 9c 80 d0     	stz	$d080                   ; 0xd080 <__heap_start+0x5a9a>
    4d55: 0a           	asl
    4d56: 85 04        	sta	$4                      ; 0x4 <__rc2>
    4d58: 98           	tya
    4d59: 2a           	rol
    4d5a: 85 05        	sta	$5                      ; 0x5 <__rc3>
    4d5c: 98           	tya
    4d5d: 2a           	rol
    4d5e: 85 06        	sta	$6                      ; 0x6 <__zp_data_size>
    4d60: a5 04        	lda	$4                      ; 0x4 <__rc2>
    4d62: 0a           	asl
    4d63: aa           	tax
    4d64: a5 05        	lda	$5                      ; 0x5 <__rc3>
    4d66: 2a           	rol
    4d67: 85 09        	sta	$9                      ; 0x9 <__rc7>
    4d69: a5 06        	lda	$6                      ; 0x6 <__zp_data_size>
    4d6b: 85 08        	sta	$8                      ; 0x8 <__rc6>
    4d6d: 26 08        	rol	$8                      ; 0x8 <__rc6>
    4d6f: 8a           	txa
    4d70: 0a           	asl
    4d71: 26 09        	rol	$9                      ; 0x9 <__rc7>
    4d73: 26 08        	rol	$8                      ; 0x8 <__rc6>
    4d75: 0a           	asl
    4d76: 26 09        	rol	$9                      ; 0x9 <__rc7>
    4d78: 26 08        	rol	$8                      ; 0x8 <__rc6>
    4d7a: 38           	sec
    4d7b: e5 04        	sbc	$4                      ; 0x4 <__rc2>
    4d7d: 85 6a        	sta	$6a                     ; 0x6a <__zp_bss_size+0x29>
    4d7f: a5 09        	lda	$9                      ; 0x9 <__rc7>
    4d81: e5 05        	sbc	$5                      ; 0x5 <__rc3>
    4d83: 85 6b        	sta	$6b                     ; 0x6b <__zp_bss_size+0x2a>
    4d85: a5 08        	lda	$8                      ; 0x8 <__rc6>
    4d87: e5 06        	sbc	$6                      ; 0x6 <__zp_data_size>
    4d89: a2 08        	ldx	#$8
    4d8b: 86 70        	stx	$70                     ; 0x70 <__zp_bss_size+0x2f>
    4d8d: 09 08        	ora	#$8
    4d8f: 85 6c        	sta	$6c                     ; 0x6c <__zp_bss_size+0x2b>
    4d91: 98           	tya
    4d92: 64 6e        	stz	$6e                     ; 0x6e <__zp_bss_size+0x2d>
    4d94: aa           	tax
    4d95: 86 04        	stx	$4                      ; 0x4 <__rc2>
    4d97: c4 04        	cpy	$4                      ; 0x4 <__rc2>
    4d99: d0 0a        	bne	$4da5 <getdirententry+0x57>
    4d9b: 86 6f        	stx	$6f                     ; 0x6f <__zp_bss_size+0x2e>
    4d9d: a6 70        	ldx	$70                     ; 0x70 <__zp_bss_size+0x2f>
    4d9f: 86 04        	stx	$4                      ; 0x4 <__rc2>
    4da1: c5 04        	cmp	$4                      ; 0x4 <__rc2>
    4da3: 80 06        	bra	$4dab <getdirententry+0x5d>
    4da5: 86 6f        	stx	$6f                     ; 0x6f <__zp_bss_size+0x2e>
    4da7: 86 04        	stx	$4                      ; 0x4 <__rc2>
    4da9: c4 04        	cpy	$4                      ; 0x4 <__rc2>
    4dab: a2 00        	ldx	#$0
    4dad: 86 04        	stx	$4                      ; 0x4 <__rc2>
    4daf: a2 00        	ldx	#$0
    4db1: 86 05        	stx	$5                      ; 0x5 <__rc3>
    4db3: 90 03        	bcc	$4db8 <getdirententry+0x6a>
    4db5: 4c 30 4e     	jmp	$4e30 <getdirententry+0xe2>
    4db8: 85 6d        	sta	$6d                     ; 0x6d <__zp_bss_size+0x2c>
    4dba: 4a           	lsr
    4dbb: 64 04        	stz	$4                      ; 0x4 <__rc2>
    4dbd: 66 04        	ror	$4                      ; 0x4 <__rc2>
    4dbf: 4a           	lsr
    4dc0: 66 04        	ror	$4                      ; 0x4 <__rc2>
    4dc2: 4a           	lsr
    4dc3: 85 05        	sta	$5                      ; 0x5 <__rc3>
    4dc5: 66 04        	ror	$4                      ; 0x4 <__rc2>
    4dc7: a9 00        	lda	#$0
    4dc9: 18           	clc
    4dca: 65 04        	adc	$4                      ; 0x4 <__rc2>
    4dcc: 85 0c        	sta	$c                      ; 0xc <__rc10>
    4dce: a5 6a        	lda	$6a                     ; 0x6a <__zp_bss_size+0x29>
    4dd0: 65 05        	adc	$5                      ; 0x5 <__rc3>
    4dd2: 85 0d        	sta	$d                      ; 0xd <__rc11>
    4dd4: a5 6b        	lda	$6b                     ; 0x6b <__zp_bss_size+0x2a>
    4dd6: 69 00        	adc	#$0
    4dd8: 85 04        	sta	$4                      ; 0x4 <__rc2>
    4dda: a5 6c        	lda	$6c                     ; 0x6c <__zp_bss_size+0x2b>
    4ddc: 69 00        	adc	#$0
    4dde: 85 05        	sta	$5                      ; 0x5 <__rc3>
    4de0: 64 06        	stz	$6                      ; 0x6 <__zp_data_size>
    4de2: a2 1a        	ldx	#$1a
    4de4: 86 07        	stx	$7                      ; 0x7 <__rc5>
    4de6: 64 08        	stz	$8                      ; 0x8 <__rc6>
    4de8: 64 09        	stz	$9                      ; 0x9 <__rc7>
    4dea: a2 20        	ldx	#$20
    4dec: 86 0a        	stx	$a                      ; 0xa <__rc8>
    4dee: 64 0b        	stz	$b                      ; 0xb <__rc9>
    4df0: a6 0d        	ldx	$d                      ; 0xd <__rc11>
    4df2: a5 0c        	lda	$c                      ; 0xc <__rc10>
    4df4: 20 9d 61     	jsr	$619d <lcopy>
    4df7: ae 00 1a     	ldx	$1a00                   ; 0x1a00 <__heap_default_limit+0xa00>
    4dfa: f0 0d        	beq	$4e09 <getdirententry+0xbb>
    4dfc: 18           	clc
    4dfd: a5 70        	lda	$70                     ; 0x70 <__zp_bss_size+0x2f>
    4dff: 69 08        	adc	#$8
    4e01: 85 70        	sta	$70                     ; 0x70 <__zp_bss_size+0x2f>
    4e03: a5 6f        	lda	$6f                     ; 0x6f <__zp_bss_size+0x2e>
    4e05: 69 00        	adc	#$0
    4e07: 85 6f        	sta	$6f                     ; 0x6f <__zp_bss_size+0x2e>
    4e09: ae 02 1a     	ldx	$1a02                   ; 0x1a02 <__heap_default_limit+0xa02>
    4e0c: a0 00        	ldy	#$0
    4e0e: 8a           	txa
    4e0f: d0 06        	bne	$4e17 <getdirententry+0xc9>
    4e11: a9 01        	lda	#$1
    4e13: 25 50        	and	$50                     ; 0x50 <option.0>
    4e15: f0 09        	beq	$4e20 <getdirententry+0xd2>
    4e17: a6 6e        	ldx	$6e                     ; 0x6e <__zp_bss_size+0x2d>
    4e19: e4 69        	cpx	$69                     ; 0x69 <__zp_bss_size+0x28>
    4e1b: f0 0b        	beq	$4e28 <getdirententry+0xda>
    4e1d: e8           	inx
    4e1e: 86 6e        	stx	$6e                     ; 0x6e <__zp_bss_size+0x2d>
    4e20: a5 6d        	lda	$6d                     ; 0x6d <__zp_bss_size+0x2c>
    4e22: 1a           	inc
    4e23: a6 6f        	ldx	$6f                     ; 0x6f <__zp_bss_size+0x2e>
    4e25: 4c 95 4d     	jmp	$4d95 <getdirententry+0x47>
    4e28: a2 00        	ldx	#$0
    4e2a: 86 04        	stx	$4                      ; 0x4 <__rc2>
    4e2c: a2 1a        	ldx	#$1a
    4e2e: 86 05        	stx	$5                      ; 0x5 <__rc3>
    4e30: 60           	rts

00004e31 <strcopy>:
    4e31: a0 00        	ldy	#$0
    4e33: 80 03        	bra	$4e38 <strcopy+0x7>
    4e35: 91 06        	sta	($6),y                  ; 0x6 <__zp_data_size>
    4e37: c8           	iny
    4e38: b1 04        	lda	($4),y                  ; 0x4 <__rc2>
    4e3a: f0 04        	beq	$4e40 <strcopy+0xf>
    4e3c: c0 10        	cpy	#$10
    4e3e: 90 f5        	bcc	$4e35 <strcopy+0x4>
    4e40: a9 00        	lda	#$0
    4e42: 91 06        	sta	($6),y                  ; 0x6 <__zp_data_size>
    4e44: 60           	rts

00004e45 <csputdec>:
    4e45: 86 07        	stx	$7                      ; 0x7 <__rc5>
    4e47: a6 06        	ldx	$6                      ; 0x6 <__zp_data_size>
    4e49: 86 6e        	stx	$6e                     ; 0x6e <__zp_bss_size+0x2d>
    4e4b: a6 04        	ldx	$4                      ; 0x4 <__rc2>
    4e4d: 86 74        	stx	$74                     ; 0x74 <__zp_bss_size+0x33>
    4e4f: a6 05        	ldx	$5                      ; 0x5 <__rc3>
    4e51: 86 75        	stx	$75                     ; 0x75 <__zp_bss_size+0x34>
    4e53: 64 81        	stz	$81                     ; 0x81 <__zp_bss_size+0x40>
    4e55: a0 09        	ldy	#$9
    4e57: a2 82        	ldx	#$82
    4e59: 86 70        	stx	$70                     ; 0x70 <__zp_bss_size+0x2f>
    4e5b: a2 00        	ldx	#$0
    4e5d: 86 71        	stx	$71                     ; 0x71 <__zp_bss_size+0x30>
    4e5f: a6 07        	ldx	$7                      ; 0x7 <__rc5>
    4e61: 84 76        	sty	$76                     ; 0x76 <__zp_bss_size+0x35>
    4e63: 48           	pha
    4e64: a5 70        	lda	$70                     ; 0x70 <__zp_bss_size+0x2f>
    4e66: 85 0a        	sta	$a                      ; 0xa <__rc8>
    4e68: a5 71        	lda	$71                     ; 0x71 <__zp_bss_size+0x30>
    4e6a: 85 0b        	sta	$b                      ; 0xb <__rc9>
    4e6c: 68           	pla
    4e6d: 84 6f        	sty	$6f                     ; 0x6f <__zp_bss_size+0x2e>
    4e6f: a0 0a        	ldy	#$a
    4e71: 84 06        	sty	$6                      ; 0x6 <__zp_data_size>
    4e73: 64 07        	stz	$7                      ; 0x7 <__rc5>
    4e75: 64 08        	stz	$8                      ; 0x8 <__rc6>
    4e77: 64 09        	stz	$9                      ; 0x9 <__rc7>
    4e79: 86 73        	stx	$73                     ; 0x73 <__zp_bss_size+0x32>
    4e7b: 85 72        	sta	$72                     ; 0x72 <__zp_bss_size+0x31>
    4e7d: 20 18 66     	jsr	$6618 <__udivmodsi4>
    4e80: 85 07        	sta	$7                      ; 0x7 <__rc5>
    4e82: a9 30        	lda	#$30
    4e84: 05 82        	ora	$82                     ; 0x82 <__zp_bss_size+0x41>
    4e86: c6 6f        	dec	$6f                     ; 0x6f <__zp_bss_size+0x2e>
    4e88: a4 76        	ldy	$76                     ; 0x76 <__zp_bss_size+0x35>
    4e8a: 99 77 00     	sta	$77,y                   ; 0x77 <__zp_bss_size+0x36>
    4e8d: a5 75        	lda	$75                     ; 0x75 <__zp_bss_size+0x34>
    4e8f: d0 0e        	bne	$4e9f <csputdec+0x5a>
    4e91: a5 74        	lda	$74                     ; 0x74 <__zp_bss_size+0x33>
    4e93: d0 0e        	bne	$4ea3 <csputdec+0x5e>
    4e95: a5 73        	lda	$73                     ; 0x73 <__zp_bss_size+0x32>
    4e97: d0 0e        	bne	$4ea7 <csputdec+0x62>
    4e99: a4 72        	ldy	$72                     ; 0x72 <__zp_bss_size+0x31>
    4e9b: c0 0a        	cpy	#$a
    4e9d: 80 0c        	bra	$4eab <csputdec+0x66>
    4e9f: a4 75        	ldy	$75                     ; 0x75 <__zp_bss_size+0x34>
    4ea1: 80 06        	bra	$4ea9 <csputdec+0x64>
    4ea3: a4 74        	ldy	$74                     ; 0x74 <__zp_bss_size+0x33>
    4ea5: 80 02        	bra	$4ea9 <csputdec+0x64>
    4ea7: a4 73        	ldy	$73                     ; 0x73 <__zp_bss_size+0x32>
    4ea9: c0 00        	cpy	#$0
    4eab: a5 07        	lda	$7                      ; 0x7 <__rc5>
    4ead: a4 04        	ldy	$4                      ; 0x4 <__rc2>
    4eaf: 84 74        	sty	$74                     ; 0x74 <__zp_bss_size+0x33>
    4eb1: a4 05        	ldy	$5                      ; 0x5 <__rc3>
    4eb3: 84 75        	sty	$75                     ; 0x75 <__zp_bss_size+0x34>
    4eb5: a4 6f        	ldy	$6f                     ; 0x6f <__zp_bss_size+0x2e>
    4eb7: 90 03        	bcc	$4ebc <csputdec+0x77>
    4eb9: 4c 61 4e     	jmp	$4e61 <csputdec+0x1c>
    4ebc: 38           	sec
    4ebd: a9 0a        	lda	#$a
    4ebf: e5 6e        	sbc	$6e                     ; 0x6e <__zp_bss_size+0x2d>
    4ec1: 85 05        	sta	$5                      ; 0x5 <__rc3>
    4ec3: a9 00        	lda	#$0
    4ec5: e9 00        	sbc	#$0
    4ec7: 85 06        	sta	$6                      ; 0x6 <__zp_data_size>
    4ec9: 80 1d        	bra	$4ee8 <csputdec+0xa3>
    4ecb: c9 00        	cmp	#$0
    4ecd: a9 00        	lda	#$0
    4ecf: b0 02        	bcs	$4ed3 <csputdec+0x8e>
    4ed1: a9 01        	lda	#$1
    4ed3: c0 00        	cpy	#$0
    4ed5: f0 04        	beq	$4edb <csputdec+0x96>
    4ed7: 29 01        	and	#$1
    4ed9: 80 02        	bra	$4edd <csputdec+0x98>
    4edb: a9 00        	lda	#$0
    4edd: aa           	tax
    4ede: f0 13        	beq	$4ef3 <csputdec+0xae>
    4ee0: a9 20        	lda	#$20
    4ee2: 99 77 00     	sta	$77,y                   ; 0x77 <__zp_bss_size+0x36>
    4ee5: 88           	dey
    4ee6: a5 06        	lda	$6                      ; 0x6 <__zp_data_size>
    4ee8: aa           	tax
    4ee9: d0 e0        	bne	$4ecb <csputdec+0x86>
    4eeb: 84 04        	sty	$4                      ; 0x4 <__rc2>
    4eed: a6 05        	ldx	$5                      ; 0x5 <__rc3>
    4eef: e4 04        	cpx	$4                      ; 0x4 <__rc2>
    4ef1: 80 da        	bra	$4ecd <csputdec+0x88>
    4ef3: a9 77        	lda	#$77
    4ef5: 18           	clc
    4ef6: 84 04        	sty	$4                      ; 0x4 <__rc2>
    4ef8: 65 04        	adc	$4                      ; 0x4 <__rc2>
    4efa: 85 04        	sta	$4                      ; 0x4 <__rc2>
    4efc: a9 00        	lda	#$0
    4efe: 69 00        	adc	#$0
    4f00: 85 05        	sta	$5                      ; 0x5 <__rc3>
    4f02: e6 04        	inc	$4                      ; 0x4 <__rc2>
    4f04: d0 02        	bne	$4f08 <csputdec+0xc3>
    4f06: e6 05        	inc	$5                      ; 0x5 <__rc3>
    4f08: 4c e1 5f     	jmp	$5fe1 <cputs>

00004f0b <asciitoscreencode_s>:
    4f0b: a2 34        	ldx	#$34
    4f0d: 86 06        	stx	$6                      ; 0x6 <__zp_data_size>
    4f0f: a2 03        	ldx	#$3
    4f11: 86 07        	stx	$7                      ; 0x7 <__rc5>
    4f13: b2 04        	lda	($4),z                  ; 0x4 <__rc2>
    4f15: e6 04        	inc	$4                      ; 0x4 <__rc2>
    4f17: d0 02        	bne	$4f1b <asciitoscreencode_s+0x10>
    4f19: e6 05        	inc	$5                      ; 0x5 <__rc3>
    4f1b: a0 20        	ldy	#$20
    4f1d: c9 a0        	cmp	#$a0
    4f1f: f0 11        	beq	$4f32 <asciitoscreencode_s+0x27>
    4f21: aa           	tax
    4f22: e0 c0        	cpx	#$c0
    4f24: 90 04        	bcc	$4f2a <asciitoscreencode_s+0x1f>
    4f26: 29 7f        	and	#$7f
    4f28: 80 07        	bra	$4f31 <asciitoscreencode_s+0x26>
    4f2a: c9 60        	cmp	#$60
    4f2c: 90 12        	bcc	$4f40 <asciitoscreencode_s+0x35>
    4f2e: 18           	clc
    4f2f: 69 a0        	adc	#$a0
    4f31: a8           	tay
    4f32: 98           	tya
    4f33: 92 06        	sta	($6),z                  ; 0x6 <__zp_data_size>
    4f35: e6 06        	inc	$6                      ; 0x6 <__zp_data_size>
    4f37: d0 02        	bne	$4f3b <asciitoscreencode_s+0x30>
    4f39: e6 07        	inc	$7                      ; 0x7 <__rc5>
    4f3b: 98           	tya
    4f3c: d0 d5        	bne	$4f13 <asciitoscreencode_s+0x8>
    4f3e: 80 0d        	bra	$4f4d <asciitoscreencode_s+0x42>
    4f40: a8           	tay
    4f41: 18           	clc
    4f42: 69 a5        	adc	#$a5
    4f44: c9 05        	cmp	#$5
    4f46: b0 ea        	bcs	$4f32 <asciitoscreencode_s+0x27>
    4f48: aa           	tax
    4f49: b4 22        	ldy	$22,x                   ; 0x22 <__zp_data_start>
    4f4b: 80 e5        	bra	$4f32 <asciitoscreencode_s+0x27>
    4f4d: ae 34 03     	ldx	$334                    ; 0x334 <__basic_zp_end+0x2a4>
    4f50: f0 01        	beq	$4f53 <asciitoscreencode_s+0x48>
    4f52: 60           	rts
    4f53: a2 20        	ldx	#$20
    4f55: 8e 34 03     	stx	$334                    ; 0x334 <__basic_zp_end+0x2a4>
    4f58: 9c 35 03     	stz	$335                    ; 0x335 <__basic_zp_end+0x2a5>
    4f5b: 60           	rts

00004f5c <clrhome>:
    4f5c: a6 51        	ldx	$51                     ; 0x51 <g_curScreenW>
    4f5e: a5 52        	lda	$52                     ; 0x52 <g_curScreenH>
    4f60: 86 04        	stx	$4                      ; 0x4 <__rc2>
    4f62: 64 05        	stz	$5                      ; 0x5 <__rc3>
    4f64: a2 00        	ldx	#$0
    4f66: 20 48 63     	jsr	$6348 <__mulhi3>
    4f69: a8           	tay
    4f6a: ad 54 d0     	lda	$d054                   ; 0xd054 <__heap_start+0x5a6e>
    4f6d: 29 01        	and	#$1
    4f6f: 85 04        	sta	$4                      ; 0x4 <__rc2>
    4f71: 98           	tya
    4f72: 20 35 63     	jsr	$6335 <__ashlhi3>
    4f75: 85 07        	sta	$7                      ; 0x7 <__rc5>
    4f77: 85 69        	sta	$69                     ; 0x69 <__zp_bss_size+0x28>
    4f79: 86 08        	stx	$8                      ; 0x8 <__rc6>
    4f7b: 86 6a        	stx	$6a                     ; 0x6a <__zp_bss_size+0x29>
    4f7d: ad 63 d0     	lda	$d063                   ; 0xd063 <__heap_start+0x5a7d>
    4f80: 29 07        	and	#$7
    4f82: ae 62 d0     	ldx	$d062                   ; 0xd062 <__heap_start+0x5a7c>
    4f85: ac 61 d0     	ldy	$d061                   ; 0xd061 <__heap_start+0x5a7b>
    4f88: 84 09        	sty	$9                      ; 0x9 <__rc7>
    4f8a: ac 60 d0     	ldy	$d060                   ; 0xd060 <__heap_start+0x5a7a>
    4f8d: 86 04        	stx	$4                      ; 0x4 <__rc2>
    4f8f: 85 05        	sta	$5                      ; 0x5 <__rc3>
    4f91: a2 20        	ldx	#$20
    4f93: 86 06        	stx	$6                      ; 0x6 <__zp_data_size>
    4f95: a6 09        	ldx	$9                      ; 0x9 <__rc7>
    4f97: 98           	tya
    4f98: 20 04 62     	jsr	$6204 <lfill>
    4f9b: a6 27        	ldx	$27                     ; 0x27 <g_curTextColor>
    4f9d: a0 f8        	ldy	#$f8
    4f9f: a9 0f        	lda	#$f
    4fa1: 84 04        	sty	$4                      ; 0x4 <__rc2>
    4fa3: 85 05        	sta	$5                      ; 0x5 <__rc3>
    4fa5: 86 06        	stx	$6                      ; 0x6 <__zp_data_size>
    4fa7: a6 69        	ldx	$69                     ; 0x69 <__zp_bss_size+0x28>
    4fa9: 86 07        	stx	$7                      ; 0x7 <__rc5>
    4fab: a6 6a        	ldx	$6a                     ; 0x6a <__zp_bss_size+0x29>
    4fad: 86 08        	stx	$8                      ; 0x8 <__rc6>
    4faf: a2 00        	ldx	#$0
    4fb1: 8a           	txa
    4fb2: 20 04 62     	jsr	$6204 <lfill>
    4fb5: 64 53        	stz	$53                     ; 0x53 <g_curX>
    4fb7: 64 54        	stz	$54                     ; 0x54 <g_curY>
    4fb9: 60           	rts

00004fba <msprintf>:
    4fba: 20 0b 4f     	jsr	$4f0b <asciitoscreencode_s>
    4fbd: a2 34        	ldx	#$34
    4fbf: 86 04        	stx	$4                      ; 0x4 <__rc2>
    4fc1: a2 03        	ldx	#$3
    4fc3: 86 05        	stx	$5                      ; 0x5 <__rc3>
    4fc5: 4c e1 5f     	jmp	$5fe1 <cputs>

00004fc8 <mcputsxy>:
    4fc8: 85 6e        	sta	$6e                     ; 0x6e <__zp_bss_size+0x2d>
    4fca: 86 6f        	stx	$6f                     ; 0x6f <__zp_bss_size+0x2e>
    4fcc: 20 0b 4f     	jsr	$4f0b <asciitoscreencode_s>
    4fcf: a2 34        	ldx	#$34
    4fd1: 86 04        	stx	$4                      ; 0x4 <__rc2>
    4fd3: a2 03        	ldx	#$3
    4fd5: 86 05        	stx	$5                      ; 0x5 <__rc3>
    4fd7: a6 6f        	ldx	$6f                     ; 0x6f <__zp_bss_size+0x2e>
    4fd9: a5 6e        	lda	$6e                     ; 0x6e <__zp_bss_size+0x2d>
    4fdb: 4c e8 5f     	jmp	$5fe8 <cputsxy>

00004fde <mcbox>:
    4fde: a8           	tay
    4fdf: 86 6c        	stx	$6c                     ; 0x6c <__zp_bss_size+0x2b>
    4fe1: a6 06        	ldx	$6                      ; 0x6 <__zp_data_size>
    4fe3: 86 70        	stx	$70                     ; 0x70 <__zp_bss_size+0x2f>
    4fe5: a6 04        	ldx	$4                      ; 0x4 <__rc2>
    4fe7: 38           	sec
    4fe8: 85 04        	sta	$4                      ; 0x4 <__rc2>
    4fea: 8a           	txa
    4feb: e5 04        	sbc	$4                      ; 0x4 <__rc2>
    4fed: 85 6a        	sta	$6a                     ; 0x6a <__zp_bss_size+0x29>
    4fef: a9 f0        	lda	#$f0
    4ff1: 25 27        	and	$27                     ; 0x27 <g_curTextColor>
    4ff3: 09 03        	ora	#$3
    4ff5: 85 27        	sta	$27                     ; 0x27 <g_curTextColor>
    4ff7: 84 71        	sty	$71                     ; 0x71 <__zp_bss_size+0x30>
    4ff9: 84 6e        	sty	$6e                     ; 0x6e <__zp_bss_size+0x2d>
    4ffb: a5 6c        	lda	$6c                     ; 0x6c <__zp_bss_size+0x2b>
    4ffd: 85 72        	sta	$72                     ; 0x72 <__zp_bss_size+0x31>
    4fff: 86 73        	stx	$73                     ; 0x73 <__zp_bss_size+0x32>
    5001: 86 6b        	stx	$6b                     ; 0x6b <__zp_bss_size+0x2a>
    5003: a6 05        	ldx	$5                      ; 0x5 <__rc3>
    5005: 86 74        	stx	$74                     ; 0x74 <__zp_bss_size+0x33>
    5007: 86 6d        	stx	$6d                     ; 0x6d <__zp_bss_size+0x2c>
    5009: a2 71        	ldx	#$71
    500b: a0 00        	ldy	#$0
    500d: 86 04        	stx	$4                      ; 0x4 <__rc2>
    500f: 84 05        	sty	$5                      ; 0x5 <__rc3>
    5011: 20 c3 60     	jsr	$60c3 <fillrect>
    5014: a2 70        	ldx	#$70
    5016: 86 04        	stx	$4                      ; 0x4 <__rc2>
    5018: a6 6c        	ldx	$6c                     ; 0x6c <__zp_bss_size+0x2b>
    501a: a5 6e        	lda	$6e                     ; 0x6e <__zp_bss_size+0x2d>
    501c: 20 40 5f     	jsr	$5f40 <cputcxy>
    501f: a2 6d        	ldx	#$6d
    5021: 86 04        	stx	$4                      ; 0x4 <__rc2>
    5023: a6 6d        	ldx	$6d                     ; 0x6d <__zp_bss_size+0x2c>
    5025: a5 6e        	lda	$6e                     ; 0x6e <__zp_bss_size+0x2d>
    5027: 20 40 5f     	jsr	$5f40 <cputcxy>
    502a: a2 6e        	ldx	#$6e
    502c: 86 04        	stx	$4                      ; 0x4 <__rc2>
    502e: a6 6c        	ldx	$6c                     ; 0x6c <__zp_bss_size+0x2b>
    5030: a5 6b        	lda	$6b                     ; 0x6b <__zp_bss_size+0x2a>
    5032: 20 40 5f     	jsr	$5f40 <cputcxy>
    5035: a2 7d        	ldx	#$7d
    5037: 86 04        	stx	$4                      ; 0x4 <__rc2>
    5039: a6 6d        	ldx	$6d                     ; 0x6d <__zp_bss_size+0x2c>
    503b: 86 6f        	stx	$6f                     ; 0x6f <__zp_bss_size+0x2e>
    503d: a4 6b        	ldy	$6b                     ; 0x6b <__zp_bss_size+0x2a>
    503f: 84 6d        	sty	$6d                     ; 0x6d <__zp_bss_size+0x2c>
    5041: a5 6b        	lda	$6b                     ; 0x6b <__zp_bss_size+0x2a>
    5043: 20 40 5f     	jsr	$5f40 <cputcxy>
    5046: a5 6a        	lda	$6a                     ; 0x6a <__zp_bss_size+0x29>
    5048: c9 02        	cmp	#$2
    504a: a6 6a        	ldx	$6a                     ; 0x6a <__zp_bss_size+0x29>
    504c: 86 76        	stx	$76                     ; 0x76 <__zp_bss_size+0x35>
    504e: b0 02        	bcs	$5052 <mcbox+0x74>
    5050: a9 01        	lda	#$1
    5052: a6 6e        	ldx	$6e                     ; 0x6e <__zp_bss_size+0x2d>
    5054: 86 6b        	stx	$6b                     ; 0x6b <__zp_bss_size+0x2a>
    5056: 80 1c        	bra	$5074 <mcbox+0x96>
    5058: e6 6b        	inc	$6b                     ; 0x6b <__zp_bss_size+0x2a>
    505a: a2 40        	ldx	#$40
    505c: 86 04        	stx	$4                      ; 0x4 <__rc2>
    505e: a6 6c        	ldx	$6c                     ; 0x6c <__zp_bss_size+0x2b>
    5060: 85 6a        	sta	$6a                     ; 0x6a <__zp_bss_size+0x29>
    5062: a5 6b        	lda	$6b                     ; 0x6b <__zp_bss_size+0x2a>
    5064: 20 40 5f     	jsr	$5f40 <cputcxy>
    5067: a2 40        	ldx	#$40
    5069: 86 04        	stx	$4                      ; 0x4 <__rc2>
    506b: a6 6f        	ldx	$6f                     ; 0x6f <__zp_bss_size+0x2e>
    506d: a5 6b        	lda	$6b                     ; 0x6b <__zp_bss_size+0x2a>
    506f: 20 40 5f     	jsr	$5f40 <cputcxy>
    5072: a5 6a        	lda	$6a                     ; 0x6a <__zp_bss_size+0x29>
    5074: 3a           	dec
    5075: d0 e1        	bne	$5058 <mcbox+0x7a>
    5077: a5 6c        	lda	$6c                     ; 0x6c <__zp_bss_size+0x2b>
    5079: 1a           	inc
    507a: a6 6f        	ldx	$6f                     ; 0x6f <__zp_bss_size+0x2e>
    507c: 86 6b        	stx	$6b                     ; 0x6b <__zp_bss_size+0x2a>
    507e: 85 75        	sta	$75                     ; 0x75 <__zp_bss_size+0x34>
    5080: 80 1a        	bra	$509c <mcbox+0xbe>
    5082: a2 5d        	ldx	#$5d
    5084: 86 04        	stx	$4                      ; 0x4 <__rc2>
    5086: 85 6a        	sta	$6a                     ; 0x6a <__zp_bss_size+0x29>
    5088: aa           	tax
    5089: a5 6e        	lda	$6e                     ; 0x6e <__zp_bss_size+0x2d>
    508b: 20 40 5f     	jsr	$5f40 <cputcxy>
    508e: a2 5d        	ldx	#$5d
    5090: 86 04        	stx	$4                      ; 0x4 <__rc2>
    5092: a6 6a        	ldx	$6a                     ; 0x6a <__zp_bss_size+0x29>
    5094: a5 6d        	lda	$6d                     ; 0x6d <__zp_bss_size+0x2c>
    5096: 20 40 5f     	jsr	$5f40 <cputcxy>
    5099: a5 6a        	lda	$6a                     ; 0x6a <__zp_bss_size+0x29>
    509b: 1a           	inc
    509c: c5 6b        	cmp	$6b                     ; 0x6b <__zp_bss_size+0x2a>
    509e: 90 e2        	bcc	$5082 <mcbox+0xa4>
    50a0: a5 70        	lda	$70                     ; 0x70 <__zp_bss_size+0x2f>
    50a2: d0 03        	bne	$50a7 <mcbox+0xc9>
    50a4: 4c 68 51     	jmp	$5168 <mcbox+0x18a>
    50a7: a6 6f        	ldx	$6f                     ; 0x6f <__zp_bss_size+0x2e>
    50a9: e4 52        	cpx	$52                     ; 0x52 <g_curScreenH>
    50ab: 90 03        	bcc	$50b0 <mcbox+0xd2>
    50ad: 4c 68 51     	jmp	$5168 <mcbox+0x18a>
    50b0: a6 51        	ldx	$51                     ; 0x51 <g_curScreenW>
    50b2: 86 04        	stx	$4                      ; 0x4 <__rc2>
    50b4: a6 6d        	ldx	$6d                     ; 0x6d <__zp_bss_size+0x2c>
    50b6: e4 04        	cpx	$4                      ; 0x4 <__rc2>
    50b8: 90 03        	bcc	$50bd <mcbox+0xdf>
    50ba: 4c 68 51     	jmp	$5168 <mcbox+0x18a>
    50bd: 64 05        	stz	$5                      ; 0x5 <__rc3>
    50bf: a6 6f        	ldx	$6f                     ; 0x6f <__zp_bss_size+0x2e>
    50c1: a0 00        	ldy	#$0
    50c3: e8           	inx
    50c4: d0 01        	bne	$50c7 <mcbox+0xe9>
    50c6: c8           	iny
    50c7: 8a           	txa
    50c8: 84 6f        	sty	$6f                     ; 0x6f <__zp_bss_size+0x2e>
    50ca: a6 6f        	ldx	$6f                     ; 0x6f <__zp_bss_size+0x2e>
    50cc: 85 6c        	sta	$6c                     ; 0x6c <__zp_bss_size+0x2b>
    50ce: 20 48 63     	jsr	$6348 <__mulhi3>
    50d1: 85 04        	sta	$4                      ; 0x4 <__rc2>
    50d3: 86 05        	stx	$5                      ; 0x5 <__rc3>
    50d5: 64 08        	stz	$8                      ; 0x8 <__rc6>
    50d7: 18           	clc
    50d8: a5 6e        	lda	$6e                     ; 0x6e <__zp_bss_size+0x2d>
    50da: 65 04        	adc	$4                      ; 0x4 <__rc2>
    50dc: aa           	tax
    50dd: a9 00        	lda	#$0
    50df: 65 05        	adc	$5                      ; 0x5 <__rc3>
    50e1: 85 04        	sta	$4                      ; 0x4 <__rc2>
    50e3: a9 00        	lda	#$0
    50e5: 69 00        	adc	#$0
    50e7: 85 05        	sta	$5                      ; 0x5 <__rc3>
    50e9: a9 00        	lda	#$0
    50eb: 69 00        	adc	#$0
    50ed: 85 06        	sta	$6                      ; 0x6 <__zp_data_size>
    50ef: 18           	clc
    50f0: 8a           	txa
    50f1: 69 01        	adc	#$1
    50f3: a8           	tay
    50f4: a5 04        	lda	$4                      ; 0x4 <__rc2>
    50f6: 69 00        	adc	#$0
    50f8: 85 09        	sta	$9                      ; 0x9 <__rc7>
    50fa: a5 05        	lda	$5                      ; 0x5 <__rc3>
    50fc: 69 f8        	adc	#$f8
    50fe: 85 04        	sta	$4                      ; 0x4 <__rc2>
    5100: a5 06        	lda	$6                      ; 0x6 <__zp_data_size>
    5102: 69 0f        	adc	#$f
    5104: a2 0b        	ldx	#$b
    5106: 85 05        	sta	$5                      ; 0x5 <__rc3>
    5108: 86 06        	stx	$6                      ; 0x6 <__zp_data_size>
    510a: a6 76        	ldx	$76                     ; 0x76 <__zp_bss_size+0x35>
    510c: 86 07        	stx	$7                      ; 0x7 <__rc5>
    510e: a6 09        	ldx	$9                      ; 0x9 <__rc7>
    5110: 98           	tya
    5111: 20 04 62     	jsr	$6204 <lfill>
    5114: a6 6d        	ldx	$6d                     ; 0x6d <__zp_bss_size+0x2c>
    5116: 86 6b        	stx	$6b                     ; 0x6b <__zp_bss_size+0x2a>
    5118: e6 6b        	inc	$6b                     ; 0x6b <__zp_bss_size+0x2a>
    511a: a6 75        	ldx	$75                     ; 0x75 <__zp_bss_size+0x34>
    511c: 86 6a        	stx	$6a                     ; 0x6a <__zp_bss_size+0x29>
    511e: 64 6d        	stz	$6d                     ; 0x6d <__zp_bss_size+0x2c>
    5120: 4c 58 51     	jmp	$5158 <mcbox+0x17a>
    5123: c0 00        	cpy	#$0
    5125: b0 03        	bcs	$512a <mcbox+0x14c>
    5127: 4c 68 51     	jmp	$5168 <mcbox+0x18a>
    512a: a5 51        	lda	$51                     ; 0x51 <g_curScreenW>
    512c: a6 6a        	ldx	$6a                     ; 0x6a <__zp_bss_size+0x29>
    512e: 86 04        	stx	$4                      ; 0x4 <__rc2>
    5130: 64 05        	stz	$5                      ; 0x5 <__rc3>
    5132: a2 00        	ldx	#$0
    5134: 20 48 63     	jsr	$6348 <__mulhi3>
    5137: 18           	clc
    5138: 65 6b        	adc	$6b                     ; 0x6b <__zp_bss_size+0x2a>
    513a: a8           	tay
    513b: 8a           	txa
    513c: 65 6d        	adc	$6d                     ; 0x6d <__zp_bss_size+0x2c>
    513e: 85 07        	sta	$7                      ; 0x7 <__rc5>
    5140: a9 f8        	lda	#$f8
    5142: 69 00        	adc	#$0
    5144: 85 04        	sta	$4                      ; 0x4 <__rc2>
    5146: a9 0f        	lda	#$f
    5148: 69 00        	adc	#$0
    514a: 85 05        	sta	$5                      ; 0x5 <__rc3>
    514c: a2 0b        	ldx	#$b
    514e: 86 06        	stx	$6                      ; 0x6 <__zp_data_size>
    5150: a6 07        	ldx	$7                      ; 0x7 <__rc5>
    5152: 98           	tya
    5153: 20 8c 20     	jsr	$208c <lpoke>
    5156: e6 6a        	inc	$6a                     ; 0x6a <__zp_bss_size+0x29>
    5158: a4 6f        	ldy	$6f                     ; 0x6f <__zp_bss_size+0x2e>
    515a: f0 03        	beq	$515f <mcbox+0x181>
    515c: 4c 23 51     	jmp	$5123 <mcbox+0x145>
    515f: a6 6c        	ldx	$6c                     ; 0x6c <__zp_bss_size+0x2b>
    5161: e4 6a        	cpx	$6a                     ; 0x6a <__zp_bss_size+0x29>
    5163: 90 03        	bcc	$5168 <mcbox+0x18a>
    5165: 4c 2a 51     	jmp	$512a <mcbox+0x14c>
    5168: 60           	rts

00005169 <messagebox>:
    5169: 85 69        	sta	$69                     ; 0x69 <__zp_bss_size+0x28>
    516b: a6 04        	ldx	$4                      ; 0x4 <__rc2>
    516d: 8e e3 75     	stx	$75e3                   ; 0x75e3 <__data_load_start+0x40d>
    5170: a6 05        	ldx	$5                      ; 0x5 <__rc3>
    5172: 8e e4 75     	stx	$75e4                   ; 0x75e4 <__data_load_start+0x40e>
    5175: a6 06        	ldx	$6                      ; 0x6 <__zp_data_size>
    5177: 8e e1 75     	stx	$75e1                   ; 0x75e1 <__data_load_start+0x40b>
    517a: a6 07        	ldx	$7                      ; 0x7 <__rc5>
    517c: 8e e2 75     	stx	$75e2                   ; 0x75e2 <__data_load_start+0x40c>
    517f: a6 08        	ldx	$8                      ; 0x8 <__rc6>
    5181: 8e df 75     	stx	$75df                   ; 0x75df <__data_load_start+0x409>
    5184: a6 09        	ldx	$9                      ; 0x9 <__rc7>
    5186: 8e e0 75     	stx	$75e0                   ; 0x75e0 <__data_load_start+0x40a>
    5189: a2 46        	ldx	#$46
    518b: a9 0c        	lda	#$c
    518d: a0 01        	ldy	#$1
    518f: 86 04        	stx	$4                      ; 0x4 <__rc2>
    5191: 85 05        	sta	$5                      ; 0x5 <__rc3>
    5193: 84 06        	sty	$6                      ; 0x6 <__zp_data_size>
    5195: a2 04        	ldx	#$4
    5197: a9 0a        	lda	#$a
    5199: 20 de 4f     	jsr	$4fde <mcbox>
    519c: a9 20        	lda	#$20
    519e: 05 27        	ora	$27                     ; 0x27 <g_curTextColor>
    51a0: 85 27        	sta	$27                     ; 0x27 <g_curTextColor>
    51a2: a9 0e        	lda	#$e
    51a4: a2 25        	ldx	#$25
    51a6: 86 04        	stx	$4                      ; 0x4 <__rc2>
    51a8: a2 69        	ldx	#$69
    51aa: 86 05        	stx	$5                      ; 0x5 <__rc3>
    51ac: a2 04        	ldx	#$4
    51ae: 20 c8 4f     	jsr	$4fc8 <mcputsxy>
    51b1: a9 28        	lda	#$28
    51b3: a2 55        	ldx	#$55
    51b5: 86 04        	stx	$4                      ; 0x4 <__rc2>
    51b7: a2 6c        	ldx	#$6c
    51b9: 86 05        	stx	$5                      ; 0x5 <__rc3>
    51bb: a2 04        	ldx	#$4
    51bd: 20 c8 4f     	jsr	$4fc8 <mcputsxy>
    51c0: a9 df        	lda	#$df
    51c2: 25 27        	and	$27                     ; 0x27 <g_curTextColor>
    51c4: 85 27        	sta	$27                     ; 0x27 <g_curTextColor>
    51c6: a2 06        	ldx	#$6
    51c8: ac e3 75     	ldy	$75e3                   ; 0x75e3 <__data_load_start+0x40d>
    51cb: 84 04        	sty	$4                      ; 0x4 <__rc2>
    51cd: ac e4 75     	ldy	$75e4                   ; 0x75e4 <__data_load_start+0x40e>
    51d0: 84 05        	sty	$5                      ; 0x5 <__rc3>
    51d2: a9 0c        	lda	#$c
    51d4: 20 c8 4f     	jsr	$4fc8 <mcputsxy>
    51d7: a2 07        	ldx	#$7
    51d9: ac e1 75     	ldy	$75e1                   ; 0x75e1 <__data_load_start+0x40b>
    51dc: 84 04        	sty	$4                      ; 0x4 <__rc2>
    51de: ac e2 75     	ldy	$75e2                   ; 0x75e2 <__data_load_start+0x40c>
    51e1: 84 05        	sty	$5                      ; 0x5 <__rc3>
    51e3: a9 0c        	lda	#$c
    51e5: 20 c8 4f     	jsr	$4fc8 <mcputsxy>
    51e8: a2 08        	ldx	#$8
    51ea: ac df 75     	ldy	$75df                   ; 0x75df <__data_load_start+0x409>
    51ed: 84 04        	sty	$4                      ; 0x4 <__rc2>
    51ef: ac e0 75     	ldy	$75e0                   ; 0x75e0 <__data_load_start+0x40a>
    51f2: 84 05        	sty	$5                      ; 0x5 <__rc3>
    51f4: a9 0c        	lda	#$c
    51f6: 20 c8 4f     	jsr	$4fc8 <mcputsxy>
    51f9: a9 20        	lda	#$20
    51fb: 05 27        	ora	$27                     ; 0x27 <g_curTextColor>
    51fd: 85 27        	sta	$27                     ; 0x27 <g_curTextColor>
    51ff: a2 21        	ldx	#$21
    5201: 86 04        	stx	$4                      ; 0x4 <__rc2>
    5203: a2 6b        	ldx	#$6b
    5205: 86 05        	stx	$5                      ; 0x5 <__rc3>
    5207: a2 0a        	ldx	#$a
    5209: a9 0c        	lda	#$c
    520b: 20 c8 4f     	jsr	$4fc8 <mcputsxy>
    520e: a9 3c        	lda	#$3c
    5210: a2 af        	ldx	#$af
    5212: 86 04        	stx	$4                      ; 0x4 <__rc2>
    5214: a2 6b        	ldx	#$6b
    5216: 86 05        	stx	$5                      ; 0x5 <__rc3>
    5218: a2 0a        	ldx	#$a
    521a: 20 c8 4f     	jsr	$4fc8 <mcputsxy>
    521d: a9 df        	lda	#$df
    521f: 25 27        	and	$27                     ; 0x27 <g_curTextColor>
    5221: 85 27        	sta	$27                     ; 0x27 <g_curTextColor>
    5223: a6 69        	ldx	$69                     ; 0x69 <__zp_bss_size+0x28>
    5225: f0 1e        	beq	$5245 <messagebox+0xdc>
    5227: a9 02        	lda	#$2
    5229: a2 8b        	ldx	#$8b
    522b: 86 04        	stx	$4                      ; 0x4 <__rc2>
    522d: a2 6a        	ldx	#$6a
    522f: 86 05        	stx	$5                      ; 0x5 <__rc3>
    5231: a2 01        	ldx	#$1
    5233: 20 c8 4f     	jsr	$4fc8 <mcputsxy>
    5236: a9 3a        	lda	#$3a
    5238: a2 0e        	ldx	#$e
    523a: 86 04        	stx	$4                      ; 0x4 <__rc2>
    523c: a2 6c        	ldx	#$6c
    523e: 86 05        	stx	$5                      ; 0x5 <__rc3>
    5240: a2 01        	ldx	#$1
    5242: 20 c8 4f     	jsr	$4fc8 <mcputsxy>
    5245: 20 6d 61     	jsr	$616d <cgetc>
    5248: c9 03        	cmp	#$3
    524a: f0 0b        	beq	$5257 <messagebox+0xee>
    524c: c9 1b        	cmp	#$1b
    524e: f0 07        	beq	$5257 <messagebox+0xee>
    5250: c9 0d        	cmp	#$d
    5252: d0 f1        	bne	$5245 <messagebox+0xdc>
    5254: a9 01        	lda	#$1
    5256: 60           	rts
    5257: a9 00        	lda	#$0
    5259: 60           	rts

0000525a <progress>:
    525a: 85 6d        	sta	$6d                     ; 0x6d <__zp_bss_size+0x2c>
    525c: a6 04        	ldx	$4                      ; 0x4 <__rc2>
    525e: 86 69        	stx	$69                     ; 0x69 <__zp_bss_size+0x28>
    5260: a6 05        	ldx	$5                      ; 0x5 <__rc3>
    5262: 86 6a        	stx	$6a                     ; 0x6a <__zp_bss_size+0x29>
    5264: a6 06        	ldx	$6                      ; 0x6 <__zp_data_size>
    5266: 86 6b        	stx	$6b                     ; 0x6b <__zp_bss_size+0x2a>
    5268: a6 07        	ldx	$7                      ; 0x7 <__rc5>
    526a: 86 6c        	stx	$6c                     ; 0x6c <__zp_bss_size+0x2b>
    526c: a2 82        	ldx	#$82
    526e: 86 04        	stx	$4                      ; 0x4 <__rc2>
    5270: a2 71        	ldx	#$71
    5272: 86 05        	stx	$5                      ; 0x5 <__rc3>
    5274: 20 c3 60     	jsr	$60c3 <fillrect>
    5277: a2 06        	ldx	#$6
    5279: a4 69        	ldy	$69                     ; 0x69 <__zp_bss_size+0x28>
    527b: 84 04        	sty	$4                      ; 0x4 <__rc2>
    527d: a4 6a        	ldy	$6a                     ; 0x6a <__zp_bss_size+0x29>
    527f: 84 05        	sty	$5                      ; 0x5 <__rc3>
    5281: a4 6d        	ldy	$6d                     ; 0x6d <__zp_bss_size+0x2c>
    5283: 84 69        	sty	$69                     ; 0x69 <__zp_bss_size+0x28>
    5285: a9 0c        	lda	#$c
    5287: 20 c8 4f     	jsr	$4fc8 <mcputsxy>
    528a: a2 07        	ldx	#$7
    528c: a4 6b        	ldy	$6b                     ; 0x6b <__zp_bss_size+0x2a>
    528e: 84 04        	sty	$4                      ; 0x4 <__rc2>
    5290: a4 6c        	ldy	$6c                     ; 0x6c <__zp_bss_size+0x2b>
    5292: 84 05        	sty	$5                      ; 0x5 <__rc3>
    5294: a9 0c        	lda	#$c
    5296: 20 c8 4f     	jsr	$4fc8 <mcputsxy>
    5299: a2 09        	ldx	#$9
    529b: a0 a0        	ldy	#$a0
    529d: 84 04        	sty	$4                      ; 0x4 <__rc2>
    529f: a9 0c        	lda	#$c
    52a1: 20 40 5f     	jsr	$5f40 <cputcxy>
    52a4: a5 69        	lda	$69                     ; 0x69 <__zp_bss_size+0x28>
    52a6: 4a           	lsr
    52a7: 85 6a        	sta	$6a                     ; 0x6a <__zp_bss_size+0x29>
    52a9: a2 00        	ldx	#$0
    52ab: 80 14        	bra	$52c1 <progress+0x67>
    52ad: 86 6b        	stx	$6b                     ; 0x6b <__zp_bss_size+0x2a>
    52af: a9 01        	lda	#$1
    52b1: 29 01        	and	#$1
    52b3: a2 a0        	ldx	#$a0
    52b5: a8           	tay
    52b6: d0 02        	bne	$52ba <progress+0x60>
    52b8: a2 7b        	ldx	#$7b
    52ba: 8a           	txa
    52bb: 20 37 5f     	jsr	$5f37 <cputc>
    52be: a6 6b        	ldx	$6b                     ; 0x6b <__zp_bss_size+0x2a>
    52c0: e8           	inx
    52c1: e0 32        	cpx	#$32
    52c3: f0 0a        	beq	$52cf <progress+0x75>
    52c5: e4 6a        	cpx	$6a                     ; 0x6a <__zp_bss_size+0x29>
    52c7: 90 e4        	bcc	$52ad <progress+0x53>
    52c9: 86 6b        	stx	$6b                     ; 0x6b <__zp_bss_size+0x2a>
    52cb: a9 00        	lda	#$0
    52cd: 80 e2        	bra	$52b1 <progress+0x57>
    52cf: a9 65        	lda	#$65
    52d1: 20 37 5f     	jsr	$5f37 <cputc>
    52d4: a2 df        	ldx	#$df
    52d6: 86 04        	stx	$4                      ; 0x4 <__rc2>
    52d8: a2 68        	ldx	#$68
    52da: 86 05        	stx	$5                      ; 0x5 <__rc3>
    52dc: 20 0b 4f     	jsr	$4f0b <asciitoscreencode_s>
    52df: a2 34        	ldx	#$34
    52e1: 86 04        	stx	$4                      ; 0x4 <__rc2>
    52e3: a2 03        	ldx	#$3
    52e5: 86 05        	stx	$5                      ; 0x5 <__rc3>
    52e7: 20 e1 5f     	jsr	$5fe1 <cputs>
    52ea: 64 06        	stz	$6                      ; 0x6 <__zp_data_size>
    52ec: 64 04        	stz	$4                      ; 0x4 <__rc2>
    52ee: 64 05        	stz	$5                      ; 0x5 <__rc3>
    52f0: a2 00        	ldx	#$0
    52f2: a5 69        	lda	$69                     ; 0x69 <__zp_bss_size+0x28>
    52f4: 20 45 4e     	jsr	$4e45 <csputdec>
    52f7: a9 25        	lda	#$25
    52f9: 20 37 5f     	jsr	$5f37 <cputc>
    52fc: a9 0c        	lda	#$c
    52fe: a2 db        	ldx	#$db
    5300: 86 04        	stx	$4                      ; 0x4 <__rc2>
    5302: a2 6e        	ldx	#$6e
    5304: 86 05        	stx	$5                      ; 0x5 <__rc3>
    5306: a2 0a        	ldx	#$a
    5308: 20 c8 4f     	jsr	$4fc8 <mcputsxy>
    530b: a9 3c        	lda	#$3c
    530d: a2 db        	ldx	#$db
    530f: 86 04        	stx	$4                      ; 0x4 <__rc2>
    5311: a2 6e        	ldx	#$6e
    5313: 86 05        	stx	$5                      ; 0x5 <__rc3>
    5315: a2 0a        	ldx	#$a
    5317: 4c c8 4f     	jmp	$4fc8 <mcputsxy>

0000531a <shortcutprint>:
    531a: 85 69        	sta	$69                     ; 0x69 <__zp_bss_size+0x28>
    531c: a6 06        	ldx	$6                      ; 0x6 <__zp_data_size>
    531e: 86 6b        	stx	$6b                     ; 0x6b <__zp_bss_size+0x2a>
    5320: a6 07        	ldx	$7                      ; 0x7 <__rc5>
    5322: 86 6c        	stx	$6c                     ; 0x6c <__zp_bss_size+0x2b>
    5324: a6 27        	ldx	$27                     ; 0x27 <g_curTextColor>
    5326: 86 6a        	stx	$6a                     ; 0x6a <__zp_bss_size+0x29>
    5328: a9 f0        	lda	#$f0
    532a: 25 27        	and	$27                     ; 0x27 <g_curTextColor>
    532c: 09 01        	ora	#$1
    532e: 85 27        	sta	$27                     ; 0x27 <g_curTextColor>
    5330: 20 ba 4f     	jsr	$4fba <msprintf>
    5333: a5 69        	lda	$69                     ; 0x69 <__zp_bss_size+0x28>
    5335: f0 04        	beq	$533b <shortcutprint+0x21>
    5337: a2 03        	ldx	#$3
    5339: 80 02        	bra	$533d <shortcutprint+0x23>
    533b: a2 0c        	ldx	#$c
    533d: 86 04        	stx	$4                      ; 0x4 <__rc2>
    533f: a5 6a        	lda	$6a                     ; 0x6a <__zp_bss_size+0x29>
    5341: 29 d0        	and	#$d0
    5343: 05 04        	ora	$4                      ; 0x4 <__rc2>
    5345: 85 69        	sta	$69                     ; 0x69 <__zp_bss_size+0x28>
    5347: 09 20        	ora	#$20
    5349: 85 27        	sta	$27                     ; 0x27 <g_curTextColor>
    534b: a6 6b        	ldx	$6b                     ; 0x6b <__zp_bss_size+0x2a>
    534d: 86 04        	stx	$4                      ; 0x4 <__rc2>
    534f: a6 6c        	ldx	$6c                     ; 0x6c <__zp_bss_size+0x2b>
    5351: 86 05        	stx	$5                      ; 0x5 <__rc3>
    5353: 20 ba 4f     	jsr	$4fba <msprintf>
    5356: a6 69        	ldx	$69                     ; 0x69 <__zp_bss_size+0x28>
    5358: 86 27        	stx	$27                     ; 0x27 <g_curTextColor>
    535a: 60           	rts

0000535b <shortcuts>:
    535b: 64 53        	stz	$53                     ; 0x53 <g_curX>
    535d: a0 18        	ldy	#$18
    535f: 84 54        	sty	$54                     ; 0x54 <g_curY>
    5361: a8           	tay
    5362: 29 14        	and	#$14
    5364: d0 03        	bne	$5369 <shortcuts+0xe>
    5366: 4c 37 54     	jmp	$5437 <shortcuts+0xdc>
    5369: a2 81        	ldx	#$81
    536b: 86 04        	stx	$4                      ; 0x4 <__rc2>
    536d: a2 6a        	ldx	#$6a
    536f: 86 05        	stx	$5                      ; 0x5 <__rc3>
    5371: a2 88        	ldx	#$88
    5373: 86 06        	stx	$6                      ; 0x6 <__zp_data_size>
    5375: a2 6c        	ldx	#$6c
    5377: 86 07        	stx	$7                      ; 0x7 <__rc5>
    5379: a9 00        	lda	#$0
    537b: 20 1a 53     	jsr	$531a <shortcutprint>
    537e: a2 2a        	ldx	#$2a
    5380: 86 04        	stx	$4                      ; 0x4 <__rc2>
    5382: a2 6a        	ldx	#$6a
    5384: 86 05        	stx	$5                      ; 0x5 <__rc3>
    5386: a2 0c        	ldx	#$c
    5388: 86 06        	stx	$6                      ; 0x6 <__zp_data_size>
    538a: a2 6a        	ldx	#$6a
    538c: 86 07        	stx	$7                      ; 0x7 <__rc5>
    538e: a9 00        	lda	#$0
    5390: 20 1a 53     	jsr	$531a <shortcutprint>
    5393: a2 8f        	ldx	#$8f
    5395: 86 04        	stx	$4                      ; 0x4 <__rc2>
    5397: a2 6c        	ldx	#$6c
    5399: 86 05        	stx	$5                      ; 0x5 <__rc3>
    539b: a2 84        	ldx	#$84
    539d: 86 06        	stx	$6                      ; 0x6 <__zp_data_size>
    539f: a2 6a        	ldx	#$6a
    53a1: 86 07        	stx	$7                      ; 0x7 <__rc5>
    53a3: a9 00        	lda	#$0
    53a5: 20 1a 53     	jsr	$531a <shortcutprint>
    53a8: a2 1e        	ldx	#$1e
    53aa: 86 04        	stx	$4                      ; 0x4 <__rc2>
    53ac: a2 6b        	ldx	#$6b
    53ae: 86 05        	stx	$5                      ; 0x5 <__rc3>
    53b0: a2 23        	ldx	#$23
    53b2: 86 06        	stx	$6                      ; 0x6 <__zp_data_size>
    53b4: a2 6c        	ldx	#$6c
    53b6: 86 07        	stx	$7                      ; 0x7 <__rc5>
    53b8: a9 00        	lda	#$0
    53ba: 20 1a 53     	jsr	$531a <shortcutprint>
    53bd: a2 d8        	ldx	#$d8
    53bf: 86 04        	stx	$4                      ; 0x4 <__rc2>
    53c1: a2 68        	ldx	#$68
    53c3: 86 05        	stx	$5                      ; 0x5 <__rc3>
    53c5: a2 c2        	ldx	#$c2
    53c7: 86 06        	stx	$6                      ; 0x6 <__zp_data_size>
    53c9: a2 69        	ldx	#$69
    53cb: 86 07        	stx	$7                      ; 0x7 <__rc5>
    53cd: a9 00        	lda	#$0
    53cf: 20 1a 53     	jsr	$531a <shortcutprint>
    53d2: a2 e9        	ldx	#$e9
    53d4: 86 04        	stx	$4                      ; 0x4 <__rc2>
    53d6: a2 6a        	ldx	#$6a
    53d8: 86 05        	stx	$5                      ; 0x5 <__rc3>
    53da: a2 e7        	ldx	#$e7
    53dc: 86 06        	stx	$6                      ; 0x6 <__zp_data_size>
    53de: a2 6e        	ldx	#$6e
    53e0: 86 07        	stx	$7                      ; 0x7 <__rc5>
    53e2: a9 00        	lda	#$0
    53e4: 20 1a 53     	jsr	$531a <shortcutprint>
    53e7: a2 e4        	ldx	#$e4
    53e9: 86 04        	stx	$4                      ; 0x4 <__rc2>
    53eb: a2 6e        	ldx	#$6e
    53ed: 86 05        	stx	$5                      ; 0x5 <__rc3>
    53ef: a2 05        	ldx	#$5
    53f1: 86 06        	stx	$6                      ; 0x6 <__zp_data_size>
    53f3: a2 69        	ldx	#$69
    53f5: 86 07        	stx	$7                      ; 0x7 <__rc5>
    53f7: a9 00        	lda	#$0
    53f9: 20 1a 53     	jsr	$531a <shortcutprint>
    53fc: a2 0e        	ldx	#$e
    53fe: 86 04        	stx	$4                      ; 0x4 <__rc2>
    5400: a2 70        	ldx	#$70
    5402: 86 05        	stx	$5                      ; 0x5 <__rc3>
    5404: a2 71        	ldx	#$71
    5406: 86 06        	stx	$6                      ; 0x6 <__zp_data_size>
    5408: a2 6e        	ldx	#$6e
    540a: 86 07        	stx	$7                      ; 0x7 <__rc5>
    540c: a9 00        	lda	#$0
    540e: 20 1a 53     	jsr	$531a <shortcutprint>
    5411: a2 20        	ldx	#$20
    5413: 86 04        	stx	$4                      ; 0x4 <__rc2>
    5415: a2 6d        	ldx	#$6d
    5417: 86 05        	stx	$5                      ; 0x5 <__rc3>
    5419: a2 18        	ldx	#$18
    541b: 86 06        	stx	$6                      ; 0x6 <__zp_data_size>
    541d: a2 6f        	ldx	#$6f
    541f: 86 07        	stx	$7                      ; 0x7 <__rc5>
    5421: a9 00        	lda	#$0
    5423: 20 1a 53     	jsr	$531a <shortcutprint>
    5426: a2 db        	ldx	#$db
    5428: 86 04        	stx	$4                      ; 0x4 <__rc2>
    542a: a2 68        	ldx	#$68
    542c: 86 05        	stx	$5                      ; 0x5 <__rc3>
    542e: a2 23        	ldx	#$23
    5430: 86 06        	stx	$6                      ; 0x6 <__zp_data_size>
    5432: a2 6d        	ldx	#$6d
    5434: 4c 03 56     	jmp	$5603 <shortcuts+0x2a8>
    5437: 98           	tya
    5438: 29 08        	and	#$8
    543a: f0 03        	beq	$543f <shortcuts+0xe4>
    543c: 4c 04 55     	jmp	$5504 <shortcuts+0x1a9>
    543f: 98           	tya
    5440: 29 03        	and	#$3
    5442: d0 03        	bne	$5447 <shortcuts+0xec>
    5444: 4c 13 56     	jmp	$5613 <shortcuts+0x2b8>
    5447: a2 81        	ldx	#$81
    5449: 86 04        	stx	$4                      ; 0x4 <__rc2>
    544b: a2 6a        	ldx	#$6a
    544d: 86 05        	stx	$5                      ; 0x5 <__rc3>
    544f: a2 0c        	ldx	#$c
    5451: 86 06        	stx	$6                      ; 0x6 <__zp_data_size>
    5453: a2 6a        	ldx	#$6a
    5455: 86 07        	stx	$7                      ; 0x7 <__rc5>
    5457: a9 01        	lda	#$1
    5459: 20 1a 53     	jsr	$531a <shortcutprint>
    545c: a2 2a        	ldx	#$2a
    545e: 86 04        	stx	$4                      ; 0x4 <__rc2>
    5460: a2 6a        	ldx	#$6a
    5462: 86 05        	stx	$5                      ; 0x5 <__rc3>
    5464: a2 12        	ldx	#$12
    5466: 86 06        	stx	$6                      ; 0x6 <__zp_data_size>
    5468: a2 6b        	ldx	#$6b
    546a: 86 07        	stx	$7                      ; 0x7 <__rc5>
    546c: a9 00        	lda	#$0
    546e: 20 1a 53     	jsr	$531a <shortcutprint>
    5471: a2 8f        	ldx	#$8f
    5473: 86 04        	stx	$4                      ; 0x4 <__rc2>
    5475: a2 6c        	ldx	#$6c
    5477: 86 05        	stx	$5                      ; 0x5 <__rc3>
    5479: a2 23        	ldx	#$23
    547b: 86 06        	stx	$6                      ; 0x6 <__zp_data_size>
    547d: a2 6c        	ldx	#$6c
    547f: 86 07        	stx	$7                      ; 0x7 <__rc5>
    5481: a9 00        	lda	#$0
    5483: 20 1a 53     	jsr	$531a <shortcutprint>
    5486: a2 1e        	ldx	#$1e
    5488: 86 04        	stx	$4                      ; 0x4 <__rc2>
    548a: a2 6b        	ldx	#$6b
    548c: 86 05        	stx	$5                      ; 0x5 <__rc3>
    548e: a2 12        	ldx	#$12
    5490: 86 06        	stx	$6                      ; 0x6 <__zp_data_size>
    5492: a2 6b        	ldx	#$6b
    5494: 86 07        	stx	$7                      ; 0x7 <__rc5>
    5496: a9 00        	lda	#$0
    5498: 20 1a 53     	jsr	$531a <shortcutprint>
    549b: a2 d8        	ldx	#$d8
    549d: 86 04        	stx	$4                      ; 0x4 <__rc2>
    549f: a2 68        	ldx	#$68
    54a1: 86 05        	stx	$5                      ; 0x5 <__rc3>
    54a3: a2 e7        	ldx	#$e7
    54a5: 86 06        	stx	$6                      ; 0x6 <__zp_data_size>
    54a7: a2 6e        	ldx	#$6e
    54a9: 86 07        	stx	$7                      ; 0x7 <__rc5>
    54ab: a9 00        	lda	#$0
    54ad: 20 1a 53     	jsr	$531a <shortcutprint>
    54b0: a2 e9        	ldx	#$e9
    54b2: 86 04        	stx	$4                      ; 0x4 <__rc2>
    54b4: a2 6a        	ldx	#$6a
    54b6: 86 05        	stx	$5                      ; 0x5 <__rc3>
    54b8: a2 12        	ldx	#$12
    54ba: 86 06        	stx	$6                      ; 0x6 <__zp_data_size>
    54bc: a2 6b        	ldx	#$6b
    54be: 86 07        	stx	$7                      ; 0x7 <__rc5>
    54c0: a9 00        	lda	#$0
    54c2: 20 1a 53     	jsr	$531a <shortcutprint>
    54c5: a2 e4        	ldx	#$e4
    54c7: 86 04        	stx	$4                      ; 0x4 <__rc2>
    54c9: a2 6e        	ldx	#$6e
    54cb: 86 05        	stx	$5                      ; 0x5 <__rc3>
    54cd: a2 71        	ldx	#$71
    54cf: 86 06        	stx	$6                      ; 0x6 <__zp_data_size>
    54d1: a2 6e        	ldx	#$6e
    54d3: 86 07        	stx	$7                      ; 0x7 <__rc5>
    54d5: a9 01        	lda	#$1
    54d7: 20 1a 53     	jsr	$531a <shortcutprint>
    54da: a2 0e        	ldx	#$e
    54dc: 86 04        	stx	$4                      ; 0x4 <__rc2>
    54de: a2 70        	ldx	#$70
    54e0: 86 05        	stx	$5                      ; 0x5 <__rc3>
    54e2: a2 12        	ldx	#$12
    54e4: 86 06        	stx	$6                      ; 0x6 <__zp_data_size>
    54e6: a2 6b        	ldx	#$6b
    54e8: 86 07        	stx	$7                      ; 0x7 <__rc5>
    54ea: a9 00        	lda	#$0
    54ec: 20 1a 53     	jsr	$531a <shortcutprint>
    54ef: a2 20        	ldx	#$20
    54f1: 86 04        	stx	$4                      ; 0x4 <__rc2>
    54f3: a2 6d        	ldx	#$6d
    54f5: 86 05        	stx	$5                      ; 0x5 <__rc3>
    54f7: a2 18        	ldx	#$18
    54f9: 86 06        	stx	$6                      ; 0x6 <__zp_data_size>
    54fb: a2 70        	ldx	#$70
    54fd: 86 07        	stx	$7                      ; 0x7 <__rc5>
    54ff: a9 01        	lda	#$1
    5501: 4c f2 55     	jmp	$55f2 <shortcuts+0x297>
    5504: 8e d7 75     	stx	$75d7                   ; 0x75d7 <__data_load_start+0x401>
    5507: a2 81        	ldx	#$81
    5509: 86 04        	stx	$4                      ; 0x4 <__rc2>
    550b: a2 6a        	ldx	#$6a
    550d: 86 05        	stx	$5                      ; 0x5 <__rc3>
    550f: a2 12        	ldx	#$12
    5511: 86 06        	stx	$6                      ; 0x6 <__zp_data_size>
    5513: a2 6b        	ldx	#$6b
    5515: 86 07        	stx	$7                      ; 0x7 <__rc5>
    5517: a9 00        	lda	#$0
    5519: 20 1a 53     	jsr	$531a <shortcutprint>
    551c: a2 2a        	ldx	#$2a
    551e: 86 04        	stx	$4                      ; 0x4 <__rc2>
    5520: a2 6a        	ldx	#$6a
    5522: 86 05        	stx	$5                      ; 0x5 <__rc3>
    5524: a2 12        	ldx	#$12
    5526: 86 06        	stx	$6                      ; 0x6 <__zp_data_size>
    5528: a2 6b        	ldx	#$6b
    552a: 86 07        	stx	$7                      ; 0x7 <__rc5>
    552c: a9 00        	lda	#$0
    552e: 20 1a 53     	jsr	$531a <shortcutprint>
    5531: a2 8f        	ldx	#$8f
    5533: 86 04        	stx	$4                      ; 0x4 <__rc2>
    5535: a2 6c        	ldx	#$6c
    5537: 86 05        	stx	$5                      ; 0x5 <__rc3>
    5539: a2 12        	ldx	#$12
    553b: 86 06        	stx	$6                      ; 0x6 <__zp_data_size>
    553d: a2 6b        	ldx	#$6b
    553f: 86 07        	stx	$7                      ; 0x7 <__rc5>
    5541: a9 00        	lda	#$0
    5543: 20 1a 53     	jsr	$531a <shortcutprint>
    5546: a2 1e        	ldx	#$1e
    5548: 86 04        	stx	$4                      ; 0x4 <__rc2>
    554a: a2 6b        	ldx	#$6b
    554c: 86 05        	stx	$5                      ; 0x5 <__rc3>
    554e: a2 12        	ldx	#$12
    5550: 86 06        	stx	$6                      ; 0x6 <__zp_data_size>
    5552: a2 6b        	ldx	#$6b
    5554: 86 07        	stx	$7                      ; 0x7 <__rc5>
    5556: a9 00        	lda	#$0
    5558: 20 1a 53     	jsr	$531a <shortcutprint>
    555b: a0 01        	ldy	#$1
    555d: ae d7 75     	ldx	$75d7                   ; 0x75d7 <__data_load_start+0x401>
    5560: 86 04        	stx	$4                      ; 0x4 <__rc2>
    5562: 06 04        	asl	$4                      ; 0x4 <__rc2>
    5564: 64 05        	stz	$5                      ; 0x5 <__rc3>
    5566: 26 05        	rol	$5                      ; 0x5 <__rc3>
    5568: a9 7e        	lda	#$7e
    556a: 18           	clc
    556b: 65 04        	adc	$4                      ; 0x4 <__rc2>
    556d: 85 04        	sta	$4                      ; 0x4 <__rc2>
    556f: a9 71        	lda	#$71
    5571: 65 05        	adc	$5                      ; 0x5 <__rc3>
    5573: 85 05        	sta	$5                      ; 0x5 <__rc3>
    5575: b2 04        	lda	($4),z                  ; 0x4 <__rc2>
    5577: aa           	tax
    5578: b1 04        	lda	($4),y                  ; 0x4 <__rc2>
    557a: 86 04        	stx	$4                      ; 0x4 <__rc2>
    557c: 85 05        	sta	$5                      ; 0x5 <__rc3>
    557e: a0 47        	ldy	#$47
    5580: b1 04        	lda	($4),y                  ; 0x4 <__rc2>
    5582: 85 04        	sta	$4                      ; 0x4 <__rc2>
    5584: a9 01        	lda	#$1
    5586: a6 04        	ldx	$4                      ; 0x4 <__rc2>
    5588: e0 28        	cpx	#$28
    558a: f0 02        	beq	$558e <shortcuts+0x233>
    558c: a9 00        	lda	#$0
    558e: a2 d8        	ldx	#$d8
    5590: 86 04        	stx	$4                      ; 0x4 <__rc2>
    5592: a2 68        	ldx	#$68
    5594: 86 05        	stx	$5                      ; 0x5 <__rc3>
    5596: a2 ec        	ldx	#$ec
    5598: 86 06        	stx	$6                      ; 0x6 <__zp_data_size>
    559a: a2 6a        	ldx	#$6a
    559c: 86 07        	stx	$7                      ; 0x7 <__rc5>
    559e: 20 1a 53     	jsr	$531a <shortcutprint>
    55a1: a2 e9        	ldx	#$e9
    55a3: 86 04        	stx	$4                      ; 0x4 <__rc2>
    55a5: a2 6a        	ldx	#$6a
    55a7: 86 05        	stx	$5                      ; 0x5 <__rc3>
    55a9: a2 12        	ldx	#$12
    55ab: 86 06        	stx	$6                      ; 0x6 <__zp_data_size>
    55ad: a2 6b        	ldx	#$6b
    55af: 86 07        	stx	$7                      ; 0x7 <__rc5>
    55b1: a9 00        	lda	#$0
    55b3: 20 1a 53     	jsr	$531a <shortcutprint>
    55b6: a2 e4        	ldx	#$e4
    55b8: 86 04        	stx	$4                      ; 0x4 <__rc2>
    55ba: a2 6e        	ldx	#$6e
    55bc: 86 05        	stx	$5                      ; 0x5 <__rc3>
    55be: a2 12        	ldx	#$12
    55c0: 86 06        	stx	$6                      ; 0x6 <__zp_data_size>
    55c2: a2 6b        	ldx	#$6b
    55c4: 86 07        	stx	$7                      ; 0x7 <__rc5>
    55c6: a9 00        	lda	#$0
    55c8: 20 1a 53     	jsr	$531a <shortcutprint>
    55cb: a2 0e        	ldx	#$e
    55cd: 86 04        	stx	$4                      ; 0x4 <__rc2>
    55cf: a2 70        	ldx	#$70
    55d1: 86 05        	stx	$5                      ; 0x5 <__rc3>
    55d3: a2 11        	ldx	#$11
    55d5: 86 06        	stx	$6                      ; 0x6 <__zp_data_size>
    55d7: a2 70        	ldx	#$70
    55d9: 86 07        	stx	$7                      ; 0x7 <__rc5>
    55db: a9 00        	lda	#$0
    55dd: 20 1a 53     	jsr	$531a <shortcutprint>
    55e0: a2 20        	ldx	#$20
    55e2: 86 04        	stx	$4                      ; 0x4 <__rc2>
    55e4: a2 6d        	ldx	#$6d
    55e6: 86 05        	stx	$5                      ; 0x5 <__rc3>
    55e8: a2 12        	ldx	#$12
    55ea: 86 06        	stx	$6                      ; 0x6 <__zp_data_size>
    55ec: a2 6b        	ldx	#$6b
    55ee: 86 07        	stx	$7                      ; 0x7 <__rc5>
    55f0: a9 00        	lda	#$0
    55f2: 20 1a 53     	jsr	$531a <shortcutprint>
    55f5: a2 db        	ldx	#$db
    55f7: 86 04        	stx	$4                      ; 0x4 <__rc2>
    55f9: a2 68        	ldx	#$68
    55fb: 86 05        	stx	$5                      ; 0x5 <__rc3>
    55fd: a2 4f        	ldx	#$4f
    55ff: 86 06        	stx	$6                      ; 0x6 <__zp_data_size>
    5601: a2 6c        	ldx	#$6c
    5603: 86 07        	stx	$7                      ; 0x7 <__rc5>
    5605: a9 00        	lda	#$0
    5607: 20 1a 53     	jsr	$531a <shortcutprint>
    560a: a9 f0        	lda	#$f0
    560c: 25 27        	and	$27                     ; 0x27 <g_curTextColor>
    560e: 09 03        	ora	#$3
    5610: 85 27        	sta	$27                     ; 0x27 <g_curTextColor>
    5612: 60           	rts
    5613: a2 81        	ldx	#$81
    5615: 86 04        	stx	$4                      ; 0x4 <__rc2>
    5617: a2 6a        	ldx	#$6a
    5619: 86 05        	stx	$5                      ; 0x5 <__rc3>
    561b: a2 88        	ldx	#$88
    561d: 86 06        	stx	$6                      ; 0x6 <__zp_data_size>
    561f: a2 6c        	ldx	#$6c
    5621: 86 07        	stx	$7                      ; 0x7 <__rc5>
    5623: a9 01        	lda	#$1
    5625: 20 1a 53     	jsr	$531a <shortcutprint>
    5628: a2 2a        	ldx	#$2a
    562a: 86 04        	stx	$4                      ; 0x4 <__rc2>
    562c: a2 6a        	ldx	#$6a
    562e: 86 05        	stx	$5                      ; 0x5 <__rc3>
    5630: a2 0c        	ldx	#$c
    5632: 86 06        	stx	$6                      ; 0x6 <__zp_data_size>
    5634: a2 6a        	ldx	#$6a
    5636: 86 07        	stx	$7                      ; 0x7 <__rc5>
    5638: a9 01        	lda	#$1
    563a: 20 1a 53     	jsr	$531a <shortcutprint>
    563d: a2 8f        	ldx	#$8f
    563f: 86 04        	stx	$4                      ; 0x4 <__rc2>
    5641: a2 6c        	ldx	#$6c
    5643: 86 05        	stx	$5                      ; 0x5 <__rc3>
    5645: a2 84        	ldx	#$84
    5647: 86 06        	stx	$6                      ; 0x6 <__zp_data_size>
    5649: a2 6a        	ldx	#$6a
    564b: 86 07        	stx	$7                      ; 0x7 <__rc5>
    564d: a9 00        	lda	#$0
    564f: 20 1a 53     	jsr	$531a <shortcutprint>
    5652: a2 1e        	ldx	#$1e
    5654: 86 04        	stx	$4                      ; 0x4 <__rc2>
    5656: a2 6b        	ldx	#$6b
    5658: 86 05        	stx	$5                      ; 0x5 <__rc3>
    565a: a2 23        	ldx	#$23
    565c: 86 06        	stx	$6                      ; 0x6 <__zp_data_size>
    565e: a2 6c        	ldx	#$6c
    5660: 86 07        	stx	$7                      ; 0x7 <__rc5>
    5662: a9 00        	lda	#$0
    5664: 20 1a 53     	jsr	$531a <shortcutprint>
    5667: a2 d8        	ldx	#$d8
    5669: 86 04        	stx	$4                      ; 0x4 <__rc2>
    566b: a2 68        	ldx	#$68
    566d: 86 05        	stx	$5                      ; 0x5 <__rc3>
    566f: a2 c2        	ldx	#$c2
    5671: 86 06        	stx	$6                      ; 0x6 <__zp_data_size>
    5673: a2 69        	ldx	#$69
    5675: 86 07        	stx	$7                      ; 0x7 <__rc5>
    5677: a9 01        	lda	#$1
    5679: 20 1a 53     	jsr	$531a <shortcutprint>
    567c: a2 e9        	ldx	#$e9
    567e: 86 04        	stx	$4                      ; 0x4 <__rc2>
    5680: a2 6a        	ldx	#$6a
    5682: 86 05        	stx	$5                      ; 0x5 <__rc3>
    5684: a2 e7        	ldx	#$e7
    5686: 86 06        	stx	$6                      ; 0x6 <__zp_data_size>
    5688: a2 6e        	ldx	#$6e
    568a: 86 07        	stx	$7                      ; 0x7 <__rc5>
    568c: a9 00        	lda	#$0
    568e: 20 1a 53     	jsr	$531a <shortcutprint>
    5691: a2 e4        	ldx	#$e4
    5693: 86 04        	stx	$4                      ; 0x4 <__rc2>
    5695: a2 6e        	ldx	#$6e
    5697: 86 05        	stx	$5                      ; 0x5 <__rc3>
    5699: a2 05        	ldx	#$5
    569b: 86 06        	stx	$6                      ; 0x6 <__zp_data_size>
    569d: a2 69        	ldx	#$69
    569f: 86 07        	stx	$7                      ; 0x7 <__rc5>
    56a1: a9 00        	lda	#$0
    56a3: 20 1a 53     	jsr	$531a <shortcutprint>
    56a6: a2 0e        	ldx	#$e
    56a8: 86 04        	stx	$4                      ; 0x4 <__rc2>
    56aa: a2 70        	ldx	#$70
    56ac: 86 05        	stx	$5                      ; 0x5 <__rc3>
    56ae: a2 71        	ldx	#$71
    56b0: 86 06        	stx	$6                      ; 0x6 <__zp_data_size>
    56b2: a2 6e        	ldx	#$6e
    56b4: 86 07        	stx	$7                      ; 0x7 <__rc5>
    56b6: a9 01        	lda	#$1
    56b8: 20 1a 53     	jsr	$531a <shortcutprint>
    56bb: a2 20        	ldx	#$20
    56bd: 86 04        	stx	$4                      ; 0x4 <__rc2>
    56bf: a2 6d        	ldx	#$6d
    56c1: 86 05        	stx	$5                      ; 0x5 <__rc3>
    56c3: a2 18        	ldx	#$18
    56c5: 86 06        	stx	$6                      ; 0x6 <__zp_data_size>
    56c7: a2 6f        	ldx	#$6f
    56c9: 86 07        	stx	$7                      ; 0x7 <__rc5>
    56cb: a9 01        	lda	#$1
    56cd: 20 1a 53     	jsr	$531a <shortcutprint>
    56d0: a2 db        	ldx	#$db
    56d2: 86 04        	stx	$4                      ; 0x4 <__rc2>
    56d4: a2 68        	ldx	#$68
    56d6: 86 05        	stx	$5                      ; 0x5 <__rc3>
    56d8: a2 23        	ldx	#$23
    56da: 86 06        	stx	$6                      ; 0x6 <__zp_data_size>
    56dc: a2 6d        	ldx	#$6d
    56de: 86 07        	stx	$7                      ; 0x7 <__rc5>
    56e0: a9 01        	lda	#$1
    56e2: 4c 07 56     	jmp	$5607 <shortcuts+0x2ac>

000056e5 <optionstring>:
    56e5: 86 08        	stx	$8                      ; 0x8 <__rc6>
    56e7: a6 06        	ldx	$6                      ; 0x6 <__zp_data_size>
    56e9: 25 08        	and	$8                      ; 0x8 <__rc6>
    56eb: f0 04        	beq	$56f1 <optionstring+0xc>
    56ed: a0 2a        	ldy	#$2a
    56ef: 80 02        	bra	$56f3 <optionstring+0xe>
    56f1: a0 6f        	ldy	#$6f
    56f3: 84 28        	sty	$28                     ; 0x28 <s>
    56f5: a0 20        	ldy	#$20
    56f7: 84 29        	sty	$29                     ; 0x29 <s+0x1>
    56f9: a9 3e        	lda	#$3e
    56fb: e4 07        	cpx	$7                      ; 0x7 <__rc5>
    56fd: f0 02        	beq	$5701 <optionstring+0x1c>
    56ff: a9 20        	lda	#$20
    5701: 85 2a        	sta	$2a                     ; 0x2a <s+0x2>
    5703: 84 2b        	sty	$2b                     ; 0x2b <s+0x3>
    5705: a0 00        	ldy	#$0
    5707: 80 04        	bra	$570d <optionstring+0x28>
    5709: 99 2c 00     	sta	$2c,y                   ; 0x2c <s+0x4>
    570c: c8           	iny
    570d: b1 04        	lda	($4),y                  ; 0x4 <__rc2>
    570f: f0 04        	beq	$5715 <optionstring+0x30>
    5711: c0 28        	cpy	#$28
    5713: 90 f4        	bcc	$5709 <optionstring+0x24>
    5715: 38           	sec
    5716: a9 10        	lda	#$10
    5718: 84 04        	sty	$4                      ; 0x4 <__rc2>
    571a: e5 04        	sbc	$4                      ; 0x4 <__rc2>
    571c: 90 04        	bcc	$5722 <optionstring+0x3d>
    571e: 85 05        	sta	$5                      ; 0x5 <__rc3>
    5720: 80 02        	bra	$5724 <optionstring+0x3f>
    5722: 64 05        	stz	$5                      ; 0x5 <__rc3>
    5724: 64 04        	stz	$4                      ; 0x4 <__rc2>
    5726: 80 13        	bra	$573b <optionstring+0x56>
    5728: a9 2c        	lda	#$2c
    572a: 18           	clc
    572b: 65 04        	adc	$4                      ; 0x4 <__rc2>
    572d: 85 08        	sta	$8                      ; 0x8 <__rc6>
    572f: a9 00        	lda	#$0
    5731: 69 00        	adc	#$0
    5733: 85 09        	sta	$9                      ; 0x9 <__rc7>
    5735: a9 20        	lda	#$20
    5737: 91 08        	sta	($8),y                  ; 0x8 <__rc6>
    5739: e6 04        	inc	$4                      ; 0x4 <__rc2>
    573b: a5 05        	lda	$5                      ; 0x5 <__rc3>
    573d: c5 04        	cmp	$4                      ; 0x4 <__rc2>
    573f: d0 e7        	bne	$5728 <optionstring+0x43>
    5741: c0 11        	cpy	#$11
    5743: b0 02        	bcs	$5747 <optionstring+0x62>
    5745: a0 10        	ldy	#$10
    5747: 84 04        	sty	$4                      ; 0x4 <__rc2>
    5749: 98           	tya
    574a: 18           	clc
    574b: 69 04        	adc	#$4
    574d: a8           	tay
    574e: a9 20        	lda	#$20
    5750: 99 28 00     	sta	$28,y                   ; 0x28 <s>
    5753: 18           	clc
    5754: a5 04        	lda	$4                      ; 0x4 <__rc2>
    5756: 69 05        	adc	#$5
    5758: a8           	tay
    5759: a9 3c        	lda	#$3c
    575b: e4 07        	cpx	$7                      ; 0x7 <__rc5>
    575d: f0 02        	beq	$5761 <optionstring+0x7c>
    575f: a9 20        	lda	#$20
    5761: 99 28 00     	sta	$28,y                   ; 0x28 <s>
    5764: 18           	clc
    5765: a5 04        	lda	$4                      ; 0x4 <__rc2>
    5767: 69 06        	adc	#$6
    5769: aa           	tax
    576a: 74 28        	stz	$28,x                   ; 0x28 <s>
    576c: a5 07        	lda	$7                      ; 0x7 <__rc5>
    576e: 18           	clc
    576f: 69 06        	adc	#$6
    5771: a2 28        	ldx	#$28
    5773: 86 04        	stx	$4                      ; 0x4 <__rc2>
    5775: a2 00        	ldx	#$0
    5777: 86 05        	stx	$5                      ; 0x5 <__rc3>
    5779: aa           	tax
    577a: a9 0c        	lda	#$c
    577c: 4c c8 4f     	jmp	$4fc8 <mcputsxy>

0000577f <UpdateSectors>:
    577f: 48           	pha
    5780: 18           	clc
    5781: a5 02        	lda	$2                      ; 0x2 <__rc0>
    5783: 69 f4        	adc	#$f4
    5785: 85 02        	sta	$2                      ; 0x2 <__rc0>
    5787: a5 03        	lda	$3                      ; 0x3 <__rc1>
    5789: 69 ff        	adc	#$ff
    578b: 85 03        	sta	$3                      ; 0x3 <__rc1>
    578d: 68           	pla
    578e: a4 16        	ldy	$16                     ; 0x16 <__rc20>
    5790: 5a           	phy
    5791: a4 17        	ldy	$17                     ; 0x17 <__rc21>
    5793: 5a           	phy
    5794: a4 18        	ldy	$18                     ; 0x18 <__rc22>
    5796: 5a           	phy
    5797: a4 19        	ldy	$19                     ; 0x19 <__rc23>
    5799: 5a           	phy
    579a: 48           	pha
    579b: a5 1a        	lda	$1a                     ; 0x1a <__rc24>
    579d: a0 07        	ldy	#$7
    579f: 91 02        	sta	($2),y                  ; 0x2 <__rc0>
    57a1: a5 1b        	lda	$1b                     ; 0x1b <__rc25>
    57a3: 88           	dey
    57a4: 91 02        	sta	($2),y                  ; 0x2 <__rc0>
    57a6: a5 1c        	lda	$1c                     ; 0x1c <__rc26>
    57a8: 88           	dey
    57a9: 91 02        	sta	($2),y                  ; 0x2 <__rc0>
    57ab: a5 1d        	lda	$1d                     ; 0x1d <__rc27>
    57ad: 88           	dey
    57ae: 91 02        	sta	($2),y                  ; 0x2 <__rc0>
    57b0: a5 1e        	lda	$1e                     ; 0x1e <__rc28>
    57b2: 88           	dey
    57b3: 91 02        	sta	($2),y                  ; 0x2 <__rc0>
    57b5: a5 1f        	lda	$1f                     ; 0x1f <__rc29>
    57b7: 88           	dey
    57b8: 91 02        	sta	($2),y                  ; 0x2 <__rc0>
    57ba: a5 20        	lda	$20                     ; 0x20 <__rc30>
    57bc: 88           	dey
    57bd: 91 02        	sta	($2),y                  ; 0x2 <__rc0>
    57bf: a5 21        	lda	$21                     ; 0x21 <__rc31>
    57c1: 88           	dey
    57c2: 91 02        	sta	($2),y                  ; 0x2 <__rc0>
    57c4: 68           	pla
    57c5: 85 16        	sta	$16                     ; 0x16 <__rc20>
    57c7: 86 1e        	stx	$1e                     ; 0x1e <__rc28>
    57c9: 98           	tya
    57ca: 86 17        	stx	$17                     ; 0x17 <__rc21>
    57cc: 06 17        	asl	$17                     ; 0x17 <__rc21>
    57ce: 48           	pha
    57cf: 1a           	inc
    57d0: b0 02        	bcs	$57d4 <UpdateSectors+0x55>
    57d2: a9 00        	lda	#$0
    57d4: a0 09        	ldy	#$9
    57d6: 91 02        	sta	($2),y                  ; 0x2 <__rc0>
    57d8: 68           	pla
    57d9: 2a           	rol
    57da: 85 04        	sta	$4                      ; 0x4 <__rc2>
    57dc: a9 7e        	lda	#$7e
    57de: 18           	clc
    57df: 65 17        	adc	$17                     ; 0x17 <__rc21>
    57e1: aa           	tax
    57e2: a9 71        	lda	#$71
    57e4: 65 04        	adc	$4                      ; 0x4 <__rc2>
    57e6: a4 17        	ldy	$17                     ; 0x17 <__rc21>
    57e8: 84 06        	sty	$6                      ; 0x6 <__zp_data_size>
    57ea: 06 06        	asl	$6                      ; 0x6 <__zp_data_size>
    57ec: a4 04        	ldy	$4                      ; 0x4 <__rc2>
    57ee: 84 07        	sty	$7                      ; 0x7 <__rc5>
    57f0: 48           	pha
    57f1: a9 01        	lda	#$1
    57f3: b0 02        	bcs	$57f7 <UpdateSectors+0x78>
    57f5: a9 00        	lda	#$0
    57f7: a0 08        	ldy	#$8
    57f9: 91 02        	sta	($2),y                  ; 0x2 <__rc0>
    57fb: 26 07        	rol	$7                      ; 0x7 <__rc5>
    57fd: 06 06        	asl	$6                      ; 0x6 <__zp_data_size>
    57ff: a9 01        	lda	#$1
    5801: b0 02        	bcs	$5805 <UpdateSectors+0x86>
    5803: a9 00        	lda	#$0
    5805: a0 0a        	ldy	#$a
    5807: 91 02        	sta	($2),y                  ; 0x2 <__rc0>
    5809: 26 07        	rol	$7                      ; 0x7 <__rc5>
    580b: 06 06        	asl	$6                      ; 0x6 <__zp_data_size>
    580d: a9 01        	lda	#$1
    580f: b0 02        	bcs	$5813 <UpdateSectors+0x94>
    5811: a9 00        	lda	#$0
    5813: a0 0b        	ldy	#$b
    5815: 91 02        	sta	($2),y                  ; 0x2 <__rc0>
    5817: 68           	pla
    5818: 26 07        	rol	$7                      ; 0x7 <__rc5>
    581a: 86 04        	stx	$4                      ; 0x4 <__rc2>
    581c: 85 05        	sta	$5                      ; 0x5 <__rc3>
    581e: a0 01        	ldy	#$1
    5820: b1 04        	lda	($4),y                  ; 0x4 <__rc2>
    5822: aa           	tax
    5823: b2 04        	lda	($4),z                  ; 0x4 <__rc2>
    5825: 85 1b        	sta	$1b                     ; 0x1b <__rc25>
    5827: 85 1c        	sta	$1c                     ; 0x1c <__rc26>
    5829: 86 1a        	stx	$1a                     ; 0x1a <__rc24>
    582b: 86 1d        	stx	$1d                     ; 0x1d <__rc27>
    582d: a0 46        	ldy	#$46
    582f: a9 01        	lda	#$1
    5831: 31 1c        	and	($1c),y                 ; 0x1c <__rc26>
    5833: a6 06        	ldx	$6                      ; 0x6 <__zp_data_size>
    5835: 86 1f        	stx	$1f                     ; 0x1f <__rc29>
    5837: aa           	tax
    5838: f0 03        	beq	$583d <UpdateSectors+0xbe>
    583a: 4c 66 5a     	jmp	$5a66 <donehypreaddir7+0xf1>
    583d: a5 06        	lda	$6                      ; 0x6 <__zp_data_size>
    583f: 18           	clc
    5840: 65 1e        	adc	$1e                     ; 0x1e <__rc28>
    5842: 85 04        	sta	$4                      ; 0x4 <__rc2>
    5844: a5 07        	lda	$7                      ; 0x7 <__rc5>
    5846: 69 00        	adc	#$0
    5848: 85 05        	sta	$5                      ; 0x5 <__rc3>
    584a: a9 b7        	lda	#$b7
    584c: 18           	clc
    584d: 65 04        	adc	$4                      ; 0x4 <__rc2>
    584f: 85 06        	sta	$6                      ; 0x6 <__zp_data_size>
    5851: a9 72        	lda	#$72
    5853: 65 05        	adc	$5                      ; 0x5 <__rc3>
    5855: 85 07        	sta	$7                      ; 0x7 <__rc5>
    5857: a2 7a        	ldx	#$7a
    5859: 86 04        	stx	$4                      ; 0x4 <__rc2>
    585b: a2 69        	ldx	#$69
    585d: 86 05        	stx	$5                      ; 0x5 <__rc3>
    585f: 20 31 4e     	jsr	$4e31 <strcopy>
    5862: 18           	clc
    5863: a5 1b        	lda	$1b                     ; 0x1b <__rc25>
    5865: 69 03        	adc	#$3
    5867: 85 06        	sta	$6                      ; 0x6 <__zp_data_size>
    5869: a5 1a        	lda	$1a                     ; 0x1a <__rc24>
    586b: 69 00        	adc	#$0
    586d: 85 07        	sta	$7                      ; 0x7 <__rc5>
    586f: a2 7a        	ldx	#$7a
    5871: 86 04        	stx	$4                      ; 0x4 <__rc2>
    5873: a2 69        	ldx	#$69
    5875: 86 05        	stx	$5                      ; 0x5 <__rc3>
    5877: 20 31 4e     	jsr	$4e31 <strcopy>
    587a: a0 44        	ldy	#$44
    587c: 18           	clc
    587d: a5 1b        	lda	$1b                     ; 0x1b <__rc25>
    587f: 69 44        	adc	#$44
    5881: 85 04        	sta	$4                      ; 0x4 <__rc2>
    5883: a5 1a        	lda	$1a                     ; 0x1a <__rc24>
    5885: 69 00        	adc	#$0
    5887: 85 05        	sta	$5                      ; 0x5 <__rc3>
    5889: a9 ff        	lda	#$ff
    588b: 91 1c        	sta	($1c),y                 ; 0x1c <__rc26>
    588d: a0 01        	ldy	#$1
    588f: 91 04        	sta	($4),y                  ; 0x4 <__rc2>
    5891: a2 00        	ldx	#$0
    5893: a9 04        	lda	#$4
    5895: 8d 40 d6     	sta	$d640                   ; 0xd640 <__heap_start+0x605a>
    5898: b8           	clv
    5899: 90 05        	bcc	$58a0 <errgetcurdrv5>
    589b: 85 04        	sta	$4                      ; 0x4 <__rc2>
    589d: 4c a4 58     	jmp	$58a4 <donegetcurdrv5>

000058a0 <errgetcurdrv5>:
    58a0: a9 ff        	lda	#$ff
    58a2: 85 04        	sta	$4                      ; 0x4 <__rc2>

000058a4 <donegetcurdrv5>:
    58a4: ea           	nop
    58a5: a6 04        	ldx	$4                      ; 0x4 <__rc2>
    58a7: e0 ff        	cpx	#$ff
    58a9: d0 03        	bne	$58ae <donegetcurdrv5+0xa>
    58ab: 4c 93 5c     	jmp	$5c93 <donegetproc8+0x1fa>
    58ae: a2 00        	ldx	#$0
    58b0: a9 12        	lda	#$12
    58b2: 8d 40 d6     	sta	$d640                   ; 0xd640 <__heap_start+0x605a>
    58b5: b8           	clv
    58b6: 90 05        	bcc	$58bd <errhypopendir6>
    58b8: 85 04        	sta	$4                      ; 0x4 <__rc2>
    58ba: 4c c1 58     	jmp	$58c1 <donehypopendir6>

000058bd <errhypopendir6>:
    58bd: a9 ff        	lda	#$ff
    58bf: 85 04        	sta	$4                      ; 0x4 <__rc2>

000058c1 <donehypopendir6>:
    58c1: ea           	nop
    58c2: a6 04        	ldx	$4                      ; 0x4 <__rc2>
    58c4: e0 84        	cpx	#$84
    58c6: d0 03        	bne	$58cb <donehypopendir6+0xa>
    58c8: 4c 93 5c     	jmp	$5c93 <donegetproc8+0x1fa>
    58cb: e0 87        	cpx	#$87
    58cd: d0 03        	bne	$58d2 <donehypopendir6+0x11>
    58cf: 4c 93 5c     	jmp	$5c93 <donegetproc8+0x1fa>
    58d2: a9 ff        	lda	#$ff
    58d4: e0 ff        	cpx	#$ff
    58d6: d0 03        	bne	$58db <donehypopendir6+0x1a>
    58d8: 4c e7 5c     	jmp	$5ce7 <donehypclosedir9+0x2>
    58db: 86 18        	stx	$18                     ; 0x18 <__rc22>
    58dd: 64 16        	stz	$16                     ; 0x16 <__rc20>
    58df: a9 00        	lda	#$0
    58e1: 48           	pha
    58e2: a0 09        	ldy	#$9
    58e4: b1 02        	lda	($2),y                  ; 0x2 <__rc0>
    58e6: c9 01        	cmp	#$1
    58e8: 68           	pla
    58e9: 2a           	rol
    58ea: 85 04        	sta	$4                      ; 0x4 <__rc2>
    58ec: a9 00        	lda	#$0
    58ee: 2a           	rol
    58ef: 85 05        	sta	$5                      ; 0x5 <__rc3>
    58f1: a5 04        	lda	$4                      ; 0x4 <__rc2>
    58f3: 48           	pha
    58f4: 88           	dey
    58f5: b1 02        	lda	($2),y                  ; 0x2 <__rc0>
    58f7: c9 01        	cmp	#$1
    58f9: 68           	pla
    58fa: 2a           	rol
    58fb: a6 05        	ldx	$5                      ; 0x5 <__rc3>
    58fd: 86 08        	stx	$8                      ; 0x8 <__rc6>
    58ff: 26 08        	rol	$8                      ; 0x8 <__rc6>
    5901: 48           	pha
    5902: a0 0a        	ldy	#$a
    5904: b1 02        	lda	($2),y                  ; 0x2 <__rc0>
    5906: c9 01        	cmp	#$1
    5908: 68           	pla
    5909: 2a           	rol
    590a: 26 08        	rol	$8                      ; 0x8 <__rc6>
    590c: 48           	pha
    590d: c8           	iny
    590e: b1 02        	lda	($2),y                  ; 0x2 <__rc0>
    5910: c9 01        	cmp	#$1
    5912: 68           	pla
    5913: 2a           	rol
    5914: aa           	tax
    5915: a5 08        	lda	$8                      ; 0x8 <__rc6>
    5917: 2a           	rol
    5918: 85 06        	sta	$6                      ; 0x6 <__zp_data_size>
    591a: 38           	sec
    591b: a5 1f        	lda	$1f                     ; 0x1f <__rc29>
    591d: e5 17        	sbc	$17                     ; 0x17 <__rc21>
    591f: 85 17        	sta	$17                     ; 0x17 <__rc21>
    5921: 8a           	txa
    5922: e5 04        	sbc	$4                      ; 0x4 <__rc2>
    5924: 85 1a        	sta	$1a                     ; 0x1a <__rc24>
    5926: a5 06        	lda	$6                      ; 0x6 <__zp_data_size>
    5928: e5 05        	sbc	$5                      ; 0x5 <__rc3>
    592a: 09 08        	ora	#$8
    592c: 85 1b        	sta	$1b                     ; 0x1b <__rc25>
    592e: a2 ff        	ldx	#$ff
    5930: 64 04        	stz	$4                      ; 0x4 <__rc2>
    5932: 64 19        	stz	$19                     ; 0x19 <__rc23>
    5934: a0 01        	ldy	#$1
    5936: 86 1e        	stx	$1e                     ; 0x1e <__rc28>
    5938: 8a           	txa
    5939: f0 02        	beq	$593d <donehypopendir6+0x7c>
    593b: a0 00        	ldy	#$0
    593d: a5 19        	lda	$19                     ; 0x19 <__rc23>
    593f: c9 70        	cmp	#$70
    5941: a9 01        	lda	#$1
    5943: b0 01        	bcs	$5946 <donehypopendir6+0x85>
    5945: 98           	tya
    5946: aa           	tax
    5947: f0 03        	beq	$594c <donehypopendir6+0x8b>
    5949: 4c d1 5c     	jmp	$5cd1 <donegetproc8+0x238>
    594c: a6 04        	ldx	$4                      ; 0x4 <__rc2>
    594e: e0 85        	cpx	#$85
    5950: d0 03        	bne	$5955 <donehypopendir6+0x94>
    5952: 4c d1 5c     	jmp	$5cd1 <donegetproc8+0x238>
    5955: a4 18        	ldy	$18                     ; 0x18 <__rc22>
    5957: da           	phx
    5958: a2 00        	ldx	#$0
    595a: 8a           	txa

0000595b <hypreaddirloop7>:
    595b: 9d 00 1a     	sta	$1a00,x                 ; 0x1a00 <__heap_default_limit+0xa00>
    595e: ca           	dex
    595f: d0 fa        	bne	$595b <hypreaddirloop7>
    5961: fa           	plx
    5962: 98           	tya
    5963: aa           	tax
    5964: a0 1a        	ldy	#$1a
    5966: a9 14        	lda	#$14
    5968: 8d 40 d6     	sta	$d640                   ; 0xd640 <__heap_start+0x605a>
    596b: b8           	clv
    596c: 90 05        	bcc	$5973 <errhypreaddir7>
    596e: 86 04        	stx	$4                      ; 0x4 <__rc2>
    5970: 4c 75 59     	jmp	$5975 <donehypreaddir7>

00005973 <errhypreaddir7>:
    5973: 85 04        	sta	$4                      ; 0x4 <__rc2>

00005975 <donehypreaddir7>:
    5975: ea           	nop
    5976: a4 04        	ldy	$4                      ; 0x4 <__rc2>
    5978: ae 40 1a     	ldx	$1a40                   ; 0x1a40 <__heap_default_limit+0xa40>
    597b: 9e 00 1a     	stz	$1a00,x                 ; 0x1a00 <__heap_default_limit+0xa00>
    597e: c0 85        	cpy	#$85
    5980: f0 04        	beq	$5986 <donehypreaddir7+0x11>
    5982: c0 ff        	cpy	#$ff
    5984: d0 10        	bne	$5996 <donehypreaddir7+0x21>
    5986: a2 20        	ldx	#$20
    5988: 8e 05 1a     	stx	$1a05                   ; 0x1a05 <__heap_default_limit+0xa05>
    598b: 9c 06 1a     	stz	$1a06                   ; 0x1a06 <__heap_default_limit+0xa06>
    598e: 84 04        	sty	$4                      ; 0x4 <__rc2>
    5990: a6 1e        	ldx	$1e                     ; 0x1e <__rc28>
    5992: ca           	dex
    5993: 4c 34 59     	jmp	$5934 <donehypopendir6+0x73>
    5996: a9 10        	lda	#$10
    5998: 2d 56 1a     	and	$1a56                   ; 0x1a56 <__heap_default_limit+0xa56>
    599b: d0 1b        	bne	$59b8 <donehypreaddir7+0x43>
    599d: ae 49 1a     	ldx	$1a49                   ; 0x1a49 <__heap_default_limit+0xa49>
    59a0: e0 64        	cpx	#$64
    59a2: f0 04        	beq	$59a8 <donehypreaddir7+0x33>
    59a4: e0 44        	cpx	#$44
    59a6: d0 de        	bne	$5986 <donehypreaddir7+0x11>
    59a8: ae 4a 1a     	ldx	$1a4a                   ; 0x1a4a <__heap_default_limit+0xa4a>
    59ab: e0 38        	cpx	#$38
    59ad: d0 d7        	bne	$5986 <donehypreaddir7+0x11>
    59af: ae 4b 1a     	ldx	$1a4b                   ; 0x1a4b <__heap_default_limit+0xa4b>
    59b2: e0 31        	cpx	#$31
    59b4: d0 d0        	bne	$5986 <donehypreaddir7+0x11>
    59b6: 80 0e        	bra	$59c6 <donehypreaddir7+0x51>
    59b8: ae 41 1a     	ldx	$1a41                   ; 0x1a41 <__heap_default_limit+0xa41>
    59bb: e0 2e        	cpx	#$2e
    59bd: d0 07        	bne	$59c6 <donehypreaddir7+0x51>
    59bf: ae 42 1a     	ldx	$1a42                   ; 0x1a42 <__heap_default_limit+0xa42>
    59c2: e0 20        	cpx	#$20
    59c4: f0 d7        	beq	$599d <donehypreaddir7+0x28>
    59c6: 84 1f        	sty	$1f                     ; 0x1f <__rc29>
    59c8: 20 a9 45     	jsr	$45a9 <getsfn>
    59cb: 20 a9 45     	jsr	$45a9 <getsfn>
    59ce: a2 05        	ldx	#$5
    59d0: 86 04        	stx	$4                      ; 0x4 <__rc2>
    59d2: a2 1a        	ldx	#$1a
    59d4: 86 05        	stx	$5                      ; 0x5 <__rc3>
    59d6: a2 41        	ldx	#$41
    59d8: 86 06        	stx	$6                      ; 0x6 <__zp_data_size>
    59da: a2 1c        	ldx	#$1c
    59dc: 86 07        	stx	$7                      ; 0x7 <__rc5>
    59de: 20 b0 62     	jsr	$62b0 <strcpy>
    59e1: ae 4e 1a     	ldx	$1a4e                   ; 0x1a4e <__heap_default_limit+0xa4e>
    59e4: ac 50 1a     	ldy	$1a50                   ; 0x1a50 <__heap_default_limit+0xa50>
    59e7: a9 80        	lda	#$80
    59e9: 0d 51 1a     	ora	$1a51                   ; 0x1a51 <__heap_default_limit+0xa51>
    59ec: 8d 00 1a     	sta	$1a00                   ; 0x1a00 <__heap_default_limit+0xa00>
    59ef: 8c 01 1a     	sty	$1a01                   ; 0x1a01 <__heap_default_limit+0xa01>
    59f2: a9 80        	lda	#$80
    59f4: 0d 4f 1a     	ora	$1a4f                   ; 0x1a4f <__heap_default_limit+0xa4f>
    59f7: 8d 03 1a     	sta	$1a03                   ; 0x1a03 <__heap_default_limit+0xa03>
    59fa: 8e 04 1a     	stx	$1a04                   ; 0x1a04 <__heap_default_limit+0xa04>
    59fd: a9 40        	lda	#$40
    59ff: 0d 56 1a     	ora	$1a56                   ; 0x1a56 <__heap_default_limit+0xa56>
    5a02: 8d 02 1a     	sta	$1a02                   ; 0x1a02 <__heap_default_limit+0xa02>
    5a05: ae 53 1a     	ldx	$1a53                   ; 0x1a53 <__heap_default_limit+0xa53>
    5a08: 86 04        	stx	$4                      ; 0x4 <__rc2>
    5a0a: ae 54 1a     	ldx	$1a54                   ; 0x1a54 <__heap_default_limit+0xa54>
    5a0d: 86 05        	stx	$5                      ; 0x5 <__rc3>
    5a0f: ad 55 1a     	lda	$1a55                   ; 0x1a55 <__heap_default_limit+0xa55>
    5a12: 4a           	lsr
    5a13: 66 05        	ror	$5                      ; 0x5 <__rc3>
    5a15: 66 04        	ror	$4                      ; 0x4 <__rc2>
    5a17: 4a           	lsr
    5a18: a5 05        	lda	$5                      ; 0x5 <__rc3>
    5a1a: 6a           	ror
    5a1b: 66 04        	ror	$4                      ; 0x4 <__rc2>
    5a1d: a6 04        	ldx	$4                      ; 0x4 <__rc2>
    5a1f: 8e 1e 1a     	stx	$1a1e                   ; 0x1a1e <__heap_default_limit+0xa1e>
    5a22: 8d 1f 1a     	sta	$1a1f                   ; 0x1a1f <__heap_default_limit+0xa1f>
    5a25: a6 19        	ldx	$19                     ; 0x19 <__rc23>
    5a27: 86 04        	stx	$4                      ; 0x4 <__rc2>
    5a29: 46 04        	lsr	$4                      ; 0x4 <__rc2>
    5a2b: a9 00        	lda	#$0
    5a2d: 6a           	ror
    5a2e: 46 04        	lsr	$4                      ; 0x4 <__rc2>
    5a30: 6a           	ror
    5a31: 46 04        	lsr	$4                      ; 0x4 <__rc2>
    5a33: 6a           	ror
    5a34: 18           	clc
    5a35: 65 16        	adc	$16                     ; 0x16 <__rc20>
    5a37: 85 06        	sta	$6                      ; 0x6 <__zp_data_size>
    5a39: a5 17        	lda	$17                     ; 0x17 <__rc21>
    5a3b: 65 04        	adc	$4                      ; 0x4 <__rc2>
    5a3d: 85 07        	sta	$7                      ; 0x7 <__rc5>
    5a3f: a5 1a        	lda	$1a                     ; 0x1a <__rc24>
    5a41: 69 00        	adc	#$0
    5a43: 85 08        	sta	$8                      ; 0x8 <__rc6>
    5a45: a5 1b        	lda	$1b                     ; 0x1b <__rc25>
    5a47: 69 00        	adc	#$0
    5a49: 9c 20 1a     	stz	$1a20                   ; 0x1a20 <__heap_default_limit+0xa20>
    5a4c: 64 04        	stz	$4                      ; 0x4 <__rc2>
    5a4e: 64 05        	stz	$5                      ; 0x5 <__rc3>
    5a50: 85 09        	sta	$9                      ; 0x9 <__rc7>
    5a52: a2 20        	ldx	#$20
    5a54: 86 0a        	stx	$a                      ; 0xa <__rc8>
    5a56: 64 0b        	stz	$b                      ; 0xb <__rc9>
    5a58: a2 1a        	ldx	#$1a
    5a5a: a9 00        	lda	#$0
    5a5c: 20 9d 61     	jsr	$619d <lcopy>
    5a5f: a4 1f        	ldy	$1f                     ; 0x1f <__rc29>
    5a61: e6 19        	inc	$19                     ; 0x19 <__rc23>
    5a63: 4c 8e 59     	jmp	$598e <donehypreaddir7+0x19>
    5a66: a2 00        	ldx	#$0
    5a68: 86 18        	stx	$18                     ; 0x18 <__rc22>
    5a6a: a2 16        	ldx	#$16
    5a6c: 86 19        	stx	$19                     ; 0x19 <__rc23>
    5a6e: a0 1c        	ldy	#$1c
    5a70: 8c d6 71     	sty	$71d6                   ; 0x71d6 <fnamehi>
    5a73: a6 1b        	ldx	$1b                     ; 0x1b <__rc25>
    5a75: 86 21        	stx	$21                     ; 0x21 <__rc31>
    5a77: a5 1b        	lda	$1b                     ; 0x1b <__rc25>
    5a79: 18           	clc
    5a7a: 69 03        	adc	#$3
    5a7c: 85 04        	sta	$4                      ; 0x4 <__rc2>
    5a7e: a5 1a        	lda	$1a                     ; 0x1a <__rc24>
    5a80: 85 20        	sta	$20                     ; 0x20 <__rc30>
    5a82: 69 00        	adc	#$0
    5a84: 85 05        	sta	$5                      ; 0x5 <__rc3>
    5a86: a2 00        	ldx	#$0
    5a88: a9 48        	lda	#$48
    5a8a: 8d 40 d6     	sta	$d640                   ; 0xd640 <__heap_start+0x605a>
    5a8d: b8           	clv
    5a8e: 90 05        	bcc	$5a95 <errgetproc8>
    5a90: 85 06        	sta	$6                      ; 0x6 <__zp_data_size>
    5a92: 4c 99 5a     	jmp	$5a99 <donegetproc8>

00005a95 <errgetproc8>:
    5a95: a9 ff        	lda	#$ff
    5a97: 85 06        	sta	$6                      ; 0x6 <__zp_data_size>

00005a99 <donegetproc8>:
    5a99: ea           	nop
    5a9a: a5 16        	lda	$16                     ; 0x16 <__rc20>
    5a9c: f0 13        	beq	$5ab1 <donegetproc8+0x18>
    5a9e: a0 00        	ldy	#$0
    5aa0: 80 03        	bra	$5aa5 <donegetproc8+0xc>
    5aa2: 91 04        	sta	($4),y                  ; 0x4 <__rc2>
    5aa4: c8           	iny
    5aa5: b9 35 1c     	lda	$1c35,y                 ; 0x1c35 <__heap_default_limit+0xc35>
    5aa8: f0 18        	beq	$5ac2 <donegetproc8+0x29>
    5aaa: cc 14 1c     	cpy	$1c14                   ; 0x1c14 <__heap_default_limit+0xc14>
    5aad: 90 f3        	bcc	$5aa2 <donegetproc8+0x9>
    5aaf: 80 11        	bra	$5ac2 <donegetproc8+0x29>
    5ab1: a0 00        	ldy	#$0
    5ab3: 80 03        	bra	$5ab8 <donegetproc8+0x1f>
    5ab5: 91 04        	sta	($4),y                  ; 0x4 <__rc2>
    5ab7: c8           	iny
    5ab8: b9 15 1c     	lda	$1c15,y                 ; 0x1c15 <__heap_default_limit+0xc15>
    5abb: f0 05        	beq	$5ac2 <donegetproc8+0x29>
    5abd: cc 13 1c     	cpy	$1c13                   ; 0x1c13 <__heap_default_limit+0xc13>
    5ac0: 90 f3        	bcc	$5ab5 <donegetproc8+0x1c>
    5ac2: 84 04        	sty	$4                      ; 0x4 <__rc2>
    5ac4: a5 21        	lda	$21                     ; 0x21 <__rc31>
    5ac6: 18           	clc
    5ac7: 65 04        	adc	$4                      ; 0x4 <__rc2>
    5ac9: 85 04        	sta	$4                      ; 0x4 <__rc2>
    5acb: a5 20        	lda	$20                     ; 0x20 <__rc30>
    5acd: 69 00        	adc	#$0
    5acf: 85 05        	sta	$5                      ; 0x5 <__rc3>
    5ad1: a0 03        	ldy	#$3
    5ad3: a9 00        	lda	#$0
    5ad5: 91 04        	sta	($4),y                  ; 0x4 <__rc2>
    5ad7: 64 06        	stz	$6                      ; 0x6 <__zp_data_size>
    5ad9: a5 1f        	lda	$1f                     ; 0x1f <__rc29>
    5adb: 18           	clc
    5adc: 65 1e        	adc	$1e                     ; 0x1e <__rc28>
    5ade: 85 04        	sta	$4                      ; 0x4 <__rc2>
    5ae0: a5 07        	lda	$7                      ; 0x7 <__rc5>
    5ae2: 69 00        	adc	#$0
    5ae4: 85 05        	sta	$5                      ; 0x5 <__rc3>
    5ae6: a9 b7        	lda	#$b7
    5ae8: 18           	clc
    5ae9: 65 04        	adc	$4                      ; 0x4 <__rc2>
    5aeb: 85 1a        	sta	$1a                     ; 0x1a <__rc24>
    5aed: a9 72        	lda	#$72
    5aef: 65 05        	adc	$5                      ; 0x5 <__rc3>
    5af1: 85 1b        	sta	$1b                     ; 0x1b <__rc25>
    5af3: a0 47        	ldy	#$47
    5af5: b1 1c        	lda	($1c),y                 ; 0x1c <__rc26>
    5af7: 9c 80 d0     	stz	$d080                   ; 0xd080 <__heap_start+0x5a9a>
    5afa: a2 00        	ldx	#$0
    5afc: 86 04        	stx	$4                      ; 0x4 <__rc2>
    5afe: a2 16        	ldx	#$16
    5b00: 86 05        	stx	$5                      ; 0x5 <__rc3>
    5b02: aa           	tax
    5b03: a5 16        	lda	$16                     ; 0x16 <__rc20>
    5b05: 20 87 46     	jsr	$4687 <GetOneSector>
    5b08: c9 02        	cmp	#$2
    5b0a: b0 18        	bcs	$5b24 <donegetproc8+0x8b>
    5b0c: a0 00        	ldy	#$0
    5b0e: 80 03        	bra	$5b13 <donegetproc8+0x7a>
    5b10: 91 1a        	sta	($1a),y                 ; 0x1a <__rc24>
    5b12: c8           	iny
    5b13: b9 04 16     	lda	$1604,y                 ; 0x1604 <__heap_default_limit+0x604>
    5b16: c9 a0        	cmp	#$a0
    5b18: f0 04        	beq	$5b1e <donegetproc8+0x85>
    5b1a: c0 10        	cpy	#$10
    5b1c: 90 f2        	bcc	$5b10 <donegetproc8+0x77>
    5b1e: a9 00        	lda	#$0
    5b20: 91 1a        	sta	($1a),y                 ; 0x1a <__rc24>
    5b22: 80 13        	bra	$5b37 <donegetproc8+0x9e>
    5b24: a2 cd        	ldx	#$cd
    5b26: 86 04        	stx	$4                      ; 0x4 <__rc2>
    5b28: a2 68        	ldx	#$68
    5b2a: 86 05        	stx	$5                      ; 0x5 <__rc3>
    5b2c: a6 1a        	ldx	$1a                     ; 0x1a <__rc24>
    5b2e: 86 06        	stx	$6                      ; 0x6 <__zp_data_size>
    5b30: a6 1b        	ldx	$1b                     ; 0x1b <__rc25>
    5b32: 86 07        	stx	$7                      ; 0x7 <__rc5>
    5b34: 20 31 4e     	jsr	$4e31 <strcopy>
    5b37: a0 47        	ldy	#$47
    5b39: b1 1c        	lda	($1c),y                 ; 0x1c <__rc26>
    5b3b: 9c 80 d0     	stz	$d080                   ; 0xd080 <__heap_start+0x5a9a>
    5b3e: a6 1e        	ldx	$1e                     ; 0x1e <__rc28>
    5b40: f0 04        	beq	$5b46 <donegetproc8+0xad>
    5b42: a2 1e        	ldx	#$1e
    5b44: 80 02        	bra	$5b48 <donegetproc8+0xaf>
    5b46: a2 1c        	ldx	#$1c
    5b48: 64 07        	stz	$7                      ; 0x7 <__rc5>
    5b4a: 64 04        	stz	$4                      ; 0x4 <__rc2>
    5b4c: a0 08        	ldy	#$8
    5b4e: 84 05        	sty	$5                      ; 0x5 <__rc3>
    5b50: a0 02        	ldy	#$2
    5b52: 84 06        	sty	$6                      ; 0x6 <__zp_data_size>
    5b54: a4 16        	ldy	$16                     ; 0x16 <__rc20>
    5b56: 84 08        	sty	$8                      ; 0x8 <__rc6>
    5b58: 85 09        	sta	$9                      ; 0x9 <__rc7>
    5b5a: a0 01        	ldy	#$1
    5b5c: 84 0a        	sty	$a                      ; 0xa <__rc8>
    5b5e: a9 00        	lda	#$0
    5b60: 20 1f 48     	jsr	$481f <readblockchain>
    5b63: c9 02        	cmp	#$2
    5b65: 90 29        	bcc	$5b90 <donegetproc8+0xf7>
    5b67: a5 16        	lda	$16                     ; 0x16 <__rc20>
    5b69: f0 08        	beq	$5b73 <donegetproc8+0xda>
    5b6b: a2 0c        	ldx	#$c
    5b6d: 86 06        	stx	$6                      ; 0x6 <__zp_data_size>
    5b6f: a2 69        	ldx	#$69
    5b71: 80 06        	bra	$5b79 <donegetproc8+0xe0>
    5b73: a2 79        	ldx	#$79
    5b75: 86 06        	stx	$6                      ; 0x6 <__zp_data_size>
    5b77: a2 6a        	ldx	#$6a
    5b79: 86 07        	stx	$7                      ; 0x7 <__rc5>
    5b7b: a9 00        	lda	#$0
    5b7d: a2 e1        	ldx	#$e1
    5b7f: 86 04        	stx	$4                      ; 0x4 <__rc2>
    5b81: a2 68        	ldx	#$68
    5b83: 86 05        	stx	$5                      ; 0x5 <__rc3>
    5b85: a2 61        	ldx	#$61
    5b87: 86 08        	stx	$8                      ; 0x8 <__rc6>
    5b89: a2 68        	ldx	#$68
    5b8b: 86 09        	stx	$9                      ; 0x9 <__rc7>
    5b8d: 20 69 51     	jsr	$5169 <messagebox>
    5b90: a5 1e        	lda	$1e                     ; 0x1e <__rc28>
    5b92: 20 8a 47     	jsr	$478a <GetBAM>
    5b95: a0 10        	ldy	#$10
    5b97: 64 06        	stz	$6                      ; 0x6 <__zp_data_size>
    5b99: 64 08        	stz	$8                      ; 0x8 <__rc6>
    5b9b: a5 20        	lda	$20                     ; 0x20 <__rc30>
    5b9d: a2 00        	ldx	#$0
    5b9f: 4c ec 5b     	jmp	$5bec <donegetproc8+0x153>
    5ba2: 8a           	txa
    5ba3: 18           	clc
    5ba4: 69 d8        	adc	#$d8
    5ba6: 5a           	phy
    5ba7: a0 00        	ldy	#$0
    5ba9: 84 18        	sty	$18                     ; 0x18 <__rc22>
    5bab: a0 17        	ldy	#$17
    5bad: 84 19        	sty	$19                     ; 0x19 <__rc23>
    5baf: 7a           	ply
    5bb0: 0a           	asl
    5bb1: 85 04        	sta	$4                      ; 0x4 <__rc2>
    5bb3: a9 00        	lda	#$0
    5bb5: 2a           	rol
    5bb6: 85 05        	sta	$5                      ; 0x5 <__rc3>
    5bb8: a5 04        	lda	$4                      ; 0x4 <__rc2>
    5bba: 0a           	asl
    5bbb: 85 07        	sta	$7                      ; 0x7 <__rc5>
    5bbd: a5 05        	lda	$5                      ; 0x5 <__rc3>
    5bbf: 2a           	rol
    5bc0: 85 09        	sta	$9                      ; 0x9 <__rc7>
    5bc2: a5 07        	lda	$7                      ; 0x7 <__rc5>
    5bc4: 18           	clc
    5bc5: 65 04        	adc	$4                      ; 0x4 <__rc2>
    5bc7: 85 04        	sta	$4                      ; 0x4 <__rc2>
    5bc9: a5 09        	lda	$9                      ; 0x9 <__rc7>
    5bcb: 65 05        	adc	$5                      ; 0x5 <__rc3>
    5bcd: 85 05        	sta	$5                      ; 0x5 <__rc3>
    5bcf: a5 04        	lda	$4                      ; 0x4 <__rc2>
    5bd1: 18           	clc
    5bd2: 65 18        	adc	$18                     ; 0x18 <__rc22>
    5bd4: 85 04        	sta	$4                      ; 0x4 <__rc2>
    5bd6: a5 05        	lda	$5                      ; 0x5 <__rc3>
    5bd8: 65 19        	adc	$19                     ; 0x19 <__rc23>
    5bda: 85 05        	sta	$5                      ; 0x5 <__rc3>
    5bdc: 18           	clc
    5bdd: a5 06        	lda	$6                      ; 0x6 <__zp_data_size>
    5bdf: 71 04        	adc	($4),y                  ; 0x4 <__rc2>
    5be1: 85 06        	sta	$6                      ; 0x6 <__zp_data_size>
    5be3: a5 08        	lda	$8                      ; 0x8 <__rc6>
    5be5: 69 00        	adc	#$0
    5be7: 85 08        	sta	$8                      ; 0x8 <__rc6>
    5be9: e8           	inx
    5bea: a5 20        	lda	$20                     ; 0x20 <__rc30>
    5bec: e0 50        	cpx	#$50
    5bee: f0 0f        	beq	$5bff <donegetproc8+0x166>
    5bf0: e0 28        	cpx	#$28
    5bf2: 90 03        	bcc	$5bf7 <donegetproc8+0x15e>
    5bf4: 4c a2 5b     	jmp	$5ba2 <donegetproc8+0x109>
    5bf7: 8a           	txa
    5bf8: e0 27        	cpx	#$27
    5bfa: f0 ed        	beq	$5be9 <donegetproc8+0x150>
    5bfc: 4c b0 5b     	jmp	$5bb0 <donegetproc8+0x117>
    5bff: 18           	clc
    5c00: aa           	tax
    5c01: a5 21        	lda	$21                     ; 0x21 <__rc31>
    5c03: 69 44        	adc	#$44
    5c05: 85 09        	sta	$9                      ; 0x9 <__rc7>
    5c07: 8a           	txa
    5c08: 69 00        	adc	#$0
    5c0a: aa           	tax
    5c0b: a0 44        	ldy	#$44
    5c0d: a5 06        	lda	$6                      ; 0x6 <__zp_data_size>
    5c0f: 91 1c        	sta	($1c),y                 ; 0x1c <__rc26>
    5c11: a9 00        	lda	#$0
    5c13: 48           	pha
    5c14: a0 09        	ldy	#$9
    5c16: b1 02        	lda	($2),y                  ; 0x2 <__rc0>
    5c18: c9 01        	cmp	#$1
    5c1a: 68           	pla
    5c1b: 2a           	rol
    5c1c: 64 04        	stz	$4                      ; 0x4 <__rc2>
    5c1e: 26 04        	rol	$4                      ; 0x4 <__rc2>
    5c20: 85 05        	sta	$5                      ; 0x5 <__rc3>
    5c22: a4 04        	ldy	$4                      ; 0x4 <__rc2>
    5c24: 84 0b        	sty	$b                      ; 0xb <__rc9>
    5c26: 48           	pha
    5c27: a0 08        	ldy	#$8
    5c29: b1 02        	lda	($2),y                  ; 0x2 <__rc0>
    5c2b: c9 01        	cmp	#$1
    5c2d: 68           	pla
    5c2e: 2a           	rol
    5c2f: a4 04        	ldy	$4                      ; 0x4 <__rc2>
    5c31: 84 0a        	sty	$a                      ; 0xa <__rc8>
    5c33: 26 0a        	rol	$a                      ; 0xa <__rc8>
    5c35: 48           	pha
    5c36: a0 0a        	ldy	#$a
    5c38: b1 02        	lda	($2),y                  ; 0x2 <__rc0>
    5c3a: c9 01        	cmp	#$1
    5c3c: 68           	pla
    5c3d: 2a           	rol
    5c3e: 26 0a        	rol	$a                      ; 0xa <__rc8>
    5c40: 48           	pha
    5c41: c8           	iny
    5c42: b1 02        	lda	($2),y                  ; 0x2 <__rc0>
    5c44: c9 01        	cmp	#$1
    5c46: 68           	pla
    5c47: 2a           	rol
    5c48: a8           	tay
    5c49: 26 0a        	rol	$a                      ; 0xa <__rc8>
    5c4b: 38           	sec
    5c4c: a5 1f        	lda	$1f                     ; 0x1f <__rc29>
    5c4e: e5 17        	sbc	$17                     ; 0x17 <__rc21>
    5c50: 85 0c        	sta	$c                      ; 0xc <__rc10>
    5c52: 98           	tya
    5c53: e5 05        	sbc	$5                      ; 0x5 <__rc3>
    5c55: 85 04        	sta	$4                      ; 0x4 <__rc2>
    5c57: a5 0a        	lda	$a                      ; 0xa <__rc8>
    5c59: e5 0b        	sbc	$b                      ; 0xb <__rc9>
    5c5b: 85 05        	sta	$5                      ; 0x5 <__rc3>
    5c5d: a4 09        	ldy	$9                      ; 0x9 <__rc7>
    5c5f: 84 06        	sty	$6                      ; 0x6 <__zp_data_size>
    5c61: 86 07        	stx	$7                      ; 0x7 <__rc5>
    5c63: a0 01        	ldy	#$1
    5c65: a5 08        	lda	$8                      ; 0x8 <__rc6>
    5c67: 91 06        	sta	($6),y                  ; 0x6 <__zp_data_size>
    5c69: 64 17        	stz	$17                     ; 0x17 <__rc21>
    5c6b: a0 47        	ldy	#$47
    5c6d: b1 1c        	lda	($1c),y                 ; 0x1c <__rc26>
    5c6f: 85 09        	sta	$9                      ; 0x9 <__rc7>
    5c71: 9c 80 d0     	stz	$d080                   ; 0xd080 <__heap_start+0x5a9a>
    5c74: a5 05        	lda	$5                      ; 0x5 <__rc3>
    5c76: 09 08        	ora	#$8
    5c78: a2 0e        	ldx	#$e
    5c7a: a0 03        	ldy	#$3
    5c7c: 85 05        	sta	$5                      ; 0x5 <__rc3>
    5c7e: 86 06        	stx	$6                      ; 0x6 <__zp_data_size>
    5c80: 64 07        	stz	$7                      ; 0x7 <__rc5>
    5c82: a6 16        	ldx	$16                     ; 0x16 <__rc20>
    5c84: 86 08        	stx	$8                      ; 0x8 <__rc6>
    5c86: 84 0a        	sty	$a                      ; 0xa <__rc8>
    5c88: a6 0c        	ldx	$c                      ; 0xc <__rc10>
    5c8a: a9 00        	lda	#$0
    5c8c: 20 1f 48     	jsr	$481f <readblockchain>
    5c8f: c9 02        	cmp	#$2
    5c91: 90 05        	bcc	$5c98 <donegetproc8+0x1ff>
    5c93: a9 ff        	lda	#$ff
    5c95: 4c e7 5c     	jmp	$5ce7 <donehypclosedir9+0x2>
    5c98: a2 70        	ldx	#$70
    5c9a: a9 71        	lda	#$71
    5c9c: a0 00        	ldy	#$0
    5c9e: 84 18        	sty	$18                     ; 0x18 <__rc22>
    5ca0: a0 00        	ldy	#$0
    5ca2: 84 19        	sty	$19                     ; 0x19 <__rc23>
    5ca4: 86 16        	stx	$16                     ; 0x16 <__rc20>
    5ca6: a6 17        	ldx	$17                     ; 0x17 <__rc21>
    5ca8: 30 e9        	bmi	$5c93 <donegetproc8+0x1fa>
    5caa: 3a           	dec
    5cab: 85 1a        	sta	$1a                     ; 0x1a <__rc24>
    5cad: aa           	tax
    5cae: a5 1e        	lda	$1e                     ; 0x1e <__rc28>
    5cb0: 20 4e 4d     	jsr	$4d4e <getdirententry>
    5cb3: a6 05        	ldx	$5                      ; 0x5 <__rc3>
    5cb5: a0 ff        	ldy	#$ff
    5cb7: c6 16        	dec	$16                     ; 0x16 <__rc20>
    5cb9: c4 16        	cpy	$16                     ; 0x16 <__rc20>
    5cbb: d0 02        	bne	$5cbf <donegetproc8+0x226>
    5cbd: c6 17        	dec	$17                     ; 0x17 <__rc21>
    5cbf: e4 19        	cpx	$19                     ; 0x19 <__rc23>
    5cc1: d0 0a        	bne	$5ccd <donegetproc8+0x234>
    5cc3: a6 04        	ldx	$4                      ; 0x4 <__rc2>
    5cc5: a5 1a        	lda	$1a                     ; 0x1a <__rc24>
    5cc7: e4 18        	cpx	$18                     ; 0x18 <__rc22>
    5cc9: f0 db        	beq	$5ca6 <donegetproc8+0x20d>
    5ccb: 80 1a        	bra	$5ce7 <donehypclosedir9+0x2>
    5ccd: a5 1a        	lda	$1a                     ; 0x1a <__rc24>
    5ccf: 80 16        	bra	$5ce7 <donehypclosedir9+0x2>
    5cd1: a4 19        	ldy	$19                     ; 0x19 <__rc23>
    5cd3: 88           	dey
    5cd4: a6 18        	ldx	$18                     ; 0x18 <__rc22>
    5cd6: a9 16        	lda	#$16
    5cd8: 8d 40 d6     	sta	$d640                   ; 0xd640 <__heap_start+0x605a>
    5cdb: b8           	clv
    5cdc: 90 05        	bcc	$5ce3 <errhypclosedir9>
    5cde: 86 04        	stx	$4                      ; 0x4 <__rc2>
    5ce0: 4c e5 5c     	jmp	$5ce5 <donehypclosedir9>

00005ce3 <errhypclosedir9>:
    5ce3: 85 04        	sta	$4                      ; 0x4 <__rc2>

00005ce5 <donehypclosedir9>:
    5ce5: ea           	nop
    5ce6: 98           	tya
    5ce7: a0 02        	ldy	#$2
    5ce9: 91 1c        	sta	($1c),y                 ; 0x1c <__rc26>
    5ceb: a0 00        	ldy	#$0
    5ced: b1 02        	lda	($2),y                  ; 0x2 <__rc0>
    5cef: 85 21        	sta	$21                     ; 0x21 <__rc31>
    5cf1: c8           	iny
    5cf2: b1 02        	lda	($2),y                  ; 0x2 <__rc0>
    5cf4: 85 20        	sta	$20                     ; 0x20 <__rc30>
    5cf6: c8           	iny
    5cf7: b1 02        	lda	($2),y                  ; 0x2 <__rc0>
    5cf9: 85 1f        	sta	$1f                     ; 0x1f <__rc29>
    5cfb: c8           	iny
    5cfc: b1 02        	lda	($2),y                  ; 0x2 <__rc0>
    5cfe: 85 1e        	sta	$1e                     ; 0x1e <__rc28>
    5d00: c8           	iny
    5d01: b1 02        	lda	($2),y                  ; 0x2 <__rc0>
    5d03: 85 1d        	sta	$1d                     ; 0x1d <__rc27>
    5d05: c8           	iny
    5d06: b1 02        	lda	($2),y                  ; 0x2 <__rc0>
    5d08: 85 1c        	sta	$1c                     ; 0x1c <__rc26>
    5d0a: c8           	iny
    5d0b: b1 02        	lda	($2),y                  ; 0x2 <__rc0>
    5d0d: 85 1b        	sta	$1b                     ; 0x1b <__rc25>
    5d0f: c8           	iny
    5d10: b1 02        	lda	($2),y                  ; 0x2 <__rc0>
    5d12: 85 1a        	sta	$1a                     ; 0x1a <__rc24>
    5d14: fa           	plx
    5d15: 86 19        	stx	$19                     ; 0x19 <__rc23>
    5d17: fa           	plx
    5d18: 86 18        	stx	$18                     ; 0x18 <__rc22>
    5d1a: fa           	plx
    5d1b: 86 17        	stx	$17                     ; 0x17 <__rc21>
    5d1d: fa           	plx
    5d1e: 86 16        	stx	$16                     ; 0x16 <__rc20>
    5d20: 18           	clc
    5d21: a5 02        	lda	$2                      ; 0x2 <__rc0>
    5d23: 69 0c        	adc	#$c
    5d25: 85 02        	sta	$2                      ; 0x2 <__rc0>
    5d27: a5 03        	lda	$3                      ; 0x3 <__rc1>
    5d29: 69 00        	adc	#$0
    5d2b: 85 03        	sta	$3                      ; 0x3 <__rc1>
    5d2d: 60           	rts

00005d2e <Deselect>:
    5d2e: 0a           	asl
    5d2f: a0 00        	ldy	#$0
    5d31: 64 04        	stz	$4                      ; 0x4 <__rc2>
    5d33: 26 04        	rol	$4                      ; 0x4 <__rc2>
    5d35: 0a           	asl
    5d36: 26 04        	rol	$4                      ; 0x4 <__rc2>
    5d38: 0a           	asl
    5d39: 26 04        	rol	$4                      ; 0x4 <__rc2>
    5d3b: 0a           	asl
    5d3c: 85 05        	sta	$5                      ; 0x5 <__rc3>
    5d3e: 26 04        	rol	$4                      ; 0x4 <__rc2>
    5d40: 0a           	asl
    5d41: a6 04        	ldx	$4                      ; 0x4 <__rc2>
    5d43: 86 07        	stx	$7                      ; 0x7 <__rc5>
    5d45: 26 07        	rol	$7                      ; 0x7 <__rc5>
    5d47: 0a           	asl
    5d48: 26 07        	rol	$7                      ; 0x7 <__rc5>
    5d4a: 0a           	asl
    5d4b: 26 07        	rol	$7                      ; 0x7 <__rc5>
    5d4d: 38           	sec
    5d4e: e5 05        	sbc	$5                      ; 0x5 <__rc3>
    5d50: 85 05        	sta	$5                      ; 0x5 <__rc3>
    5d52: a5 07        	lda	$7                      ; 0x7 <__rc5>
    5d54: e5 04        	sbc	$4                      ; 0x4 <__rc2>
    5d56: 85 04        	sta	$4                      ; 0x4 <__rc2>
    5d58: a9 d7        	lda	#$d7
    5d5a: 18           	clc
    5d5b: 65 05        	adc	$5                      ; 0x5 <__rc3>
    5d5d: aa           	tax
    5d5e: a9 71        	lda	#$71
    5d60: 65 04        	adc	$4                      ; 0x4 <__rc2>
    5d62: 86 04        	stx	$4                      ; 0x4 <__rc2>
    5d64: 85 05        	sta	$5                      ; 0x5 <__rc3>
    5d66: 80 07        	bra	$5d6f <Deselect+0x41>
    5d68: a9 fe        	lda	#$fe
    5d6a: 31 04        	and	($4),y                  ; 0x4 <__rc2>
    5d6c: 91 04        	sta	($4),y                  ; 0x4 <__rc2>
    5d6e: c8           	iny
    5d6f: c0 70        	cpy	#$70
    5d71: d0 f5        	bne	$5d68 <Deselect+0x3a>
    5d73: 60           	rts

00005d74 <sizeselectcurrentifnone>:
    5d74: a6 16        	ldx	$16                     ; 0x16 <__rc20>
    5d76: da           	phx
    5d77: a6 17        	ldx	$17                     ; 0x17 <__rc21>
    5d79: da           	phx
    5d7a: a6 18        	ldx	$18                     ; 0x18 <__rc22>
    5d7c: da           	phx
    5d7d: a6 19        	ldx	$19                     ; 0x19 <__rc23>
    5d7f: da           	phx
    5d80: a6 1a        	ldx	$1a                     ; 0x1a <__rc24>
    5d82: 8e dd 75     	stx	$75dd                   ; 0x75dd <__data_load_start+0x407>
    5d85: a6 1b        	ldx	$1b                     ; 0x1b <__rc25>
    5d87: 8e de 75     	stx	$75de                   ; 0x75de <__data_load_start+0x408>
    5d8a: 85 16        	sta	$16                     ; 0x16 <__rc20>
    5d8c: 0a           	asl
    5d8d: aa           	tax
    5d8e: a9 00        	lda	#$0
    5d90: 2a           	rol
    5d91: 85 04        	sta	$4                      ; 0x4 <__rc2>
    5d93: 8a           	txa
    5d94: 8e d7 75     	stx	$75d7                   ; 0x75d7 <__data_load_start+0x401>
    5d97: 0a           	asl
    5d98: a6 04        	ldx	$4                      ; 0x4 <__rc2>
    5d9a: 8e d8 75     	stx	$75d8                   ; 0x75d8 <__data_load_start+0x402>
    5d9d: 26 04        	rol	$4                      ; 0x4 <__rc2>
    5d9f: 0a           	asl
    5da0: 26 04        	rol	$4                      ; 0x4 <__rc2>
    5da2: 0a           	asl
    5da3: 85 05        	sta	$5                      ; 0x5 <__rc3>
    5da5: 26 04        	rol	$4                      ; 0x4 <__rc2>
    5da7: a6 04        	ldx	$4                      ; 0x4 <__rc2>
    5da9: 86 06        	stx	$6                      ; 0x6 <__zp_data_size>
    5dab: 0a           	asl
    5dac: a6 04        	ldx	$4                      ; 0x4 <__rc2>
    5dae: 86 07        	stx	$7                      ; 0x7 <__rc5>
    5db0: 26 07        	rol	$7                      ; 0x7 <__rc5>
    5db2: 0a           	asl
    5db3: 26 07        	rol	$7                      ; 0x7 <__rc5>
    5db5: 0a           	asl
    5db6: 26 07        	rol	$7                      ; 0x7 <__rc5>
    5db8: 38           	sec
    5db9: 8d dc 75     	sta	$75dc                   ; 0x75dc <__data_load_start+0x406>
    5dbc: a6 05        	ldx	$5                      ; 0x5 <__rc3>
    5dbe: 8e d9 75     	stx	$75d9                   ; 0x75d9 <__data_load_start+0x403>
    5dc1: e5 05        	sbc	$5                      ; 0x5 <__rc3>
    5dc3: 85 04        	sta	$4                      ; 0x4 <__rc2>
    5dc5: a6 07        	ldx	$7                      ; 0x7 <__rc5>
    5dc7: 8e db 75     	stx	$75db                   ; 0x75db <__data_load_start+0x405>
    5dca: a5 07        	lda	$7                      ; 0x7 <__rc5>
    5dcc: a6 06        	ldx	$6                      ; 0x6 <__zp_data_size>
    5dce: 8e da 75     	stx	$75da                   ; 0x75da <__data_load_start+0x404>
    5dd1: e5 06        	sbc	$6                      ; 0x6 <__zp_data_size>
    5dd3: 85 05        	sta	$5                      ; 0x5 <__rc3>
    5dd5: a9 d7        	lda	#$d7
    5dd7: 18           	clc
    5dd8: 65 04        	adc	$4                      ; 0x4 <__rc2>
    5dda: 85 18        	sta	$18                     ; 0x18 <__rc22>
    5ddc: a9 71        	lda	#$71
    5dde: 65 05        	adc	$5                      ; 0x5 <__rc3>
    5de0: 85 19        	sta	$19                     ; 0x19 <__rc23>
    5de2: a9 00        	lda	#$0
    5de4: 64 1a        	stz	$1a                     ; 0x1a <__rc24>
    5de6: aa           	tax
    5de7: a8           	tay
    5de8: 80 03        	bra	$5ded <sizeselectcurrentifnone+0x79>
    5dea: c8           	iny
    5deb: a5 17        	lda	$17                     ; 0x17 <__rc21>
    5ded: c0 70        	cpy	#$70
    5def: d0 03        	bne	$5df4 <sizeselectcurrentifnone+0x80>
    5df1: 4c 56 5e     	jmp	$5e56 <sizeselectcurrentifnone+0xe2>
    5df4: 85 17        	sta	$17                     ; 0x17 <__rc21>
    5df6: a9 01        	lda	#$1
    5df8: 31 18        	and	($18),y                 ; 0x18 <__rc22>
    5dfa: f0 ee        	beq	$5dea <sizeselectcurrentifnone+0x76>
    5dfc: 5a           	phy
    5dfd: fa           	plx
    5dfe: a5 16        	lda	$16                     ; 0x16 <__rc20>
    5e00: 84 1b        	sty	$1b                     ; 0x1b <__rc25>
    5e02: 20 4e 4d     	jsr	$4d4e <getdirententry>
    5e05: a5 04        	lda	$4                      ; 0x4 <__rc2>
    5e07: 18           	clc
    5e08: 69 1e        	adc	#$1e
    5e0a: 85 06        	sta	$6                      ; 0x6 <__zp_data_size>
    5e0c: a5 05        	lda	$5                      ; 0x5 <__rc3>
    5e0e: 69 00        	adc	#$0
    5e10: 85 07        	sta	$7                      ; 0x7 <__rc5>
    5e12: 18           	clc
    5e13: a5 17        	lda	$17                     ; 0x17 <__rc21>
    5e15: a0 1e        	ldy	#$1e
    5e17: 71 04        	adc	($4),y                  ; 0x4 <__rc2>
    5e19: 85 17        	sta	$17                     ; 0x17 <__rc21>
    5e1b: a5 1a        	lda	$1a                     ; 0x1a <__rc24>
    5e1d: a0 01        	ldy	#$1
    5e1f: 71 06        	adc	($6),y                  ; 0x6 <__zp_data_size>
    5e21: 85 1a        	sta	$1a                     ; 0x1a <__rc24>
    5e23: a9 0f        	lda	#$f
    5e25: c8           	iny
    5e26: 31 04        	and	($4),y                  ; 0x4 <__rc2>
    5e28: a4 1b        	ldy	$1b                     ; 0x1b <__rc25>
    5e2a: a2 01        	ldx	#$1
    5e2c: c9 05        	cmp	#$5
    5e2e: f0 03        	beq	$5e33 <sizeselectcurrentifnone+0xbf>
    5e30: 4c ea 5d     	jmp	$5dea <sizeselectcurrentifnone+0x76>
    5e33: a9 00        	lda	#$0
    5e35: a2 71        	ldx	#$71
    5e37: 86 04        	stx	$4                      ; 0x4 <__rc2>
    5e39: a2 6c        	ldx	#$6c
    5e3b: 86 05        	stx	$5                      ; 0x5 <__rc3>
    5e3d: a2 1f        	ldx	#$1f
    5e3f: 86 06        	stx	$6                      ; 0x6 <__zp_data_size>
    5e41: a2 70        	ldx	#$70
    5e43: 86 07        	stx	$7                      ; 0x7 <__rc5>
    5e45: a2 df        	ldx	#$df
    5e47: 86 08        	stx	$8                      ; 0x8 <__rc6>
    5e49: a2 68        	ldx	#$68
    5e4b: 86 09        	stx	$9                      ; 0x9 <__rc7>
    5e4d: 20 69 51     	jsr	$5169 <messagebox>
    5e50: a9 ff        	lda	#$ff
    5e52: aa           	tax
    5e53: 4c d9 5e     	jmp	$5ed9 <sizeselectcurrentifnone+0x165>
    5e56: e0 00        	cpx	#$0
    5e58: f0 05        	beq	$5e5f <sizeselectcurrentifnone+0xeb>
    5e5a: a6 1a        	ldx	$1a                     ; 0x1a <__rc24>
    5e5c: 4c d9 5e     	jmp	$5ed9 <sizeselectcurrentifnone+0x165>
    5e5f: 85 19        	sta	$19                     ; 0x19 <__rc23>
    5e61: a9 7e        	lda	#$7e
    5e63: ae d7 75     	ldx	$75d7                   ; 0x75d7 <__data_load_start+0x401>
    5e66: 86 04        	stx	$4                      ; 0x4 <__rc2>
    5e68: 18           	clc
    5e69: 65 04        	adc	$4                      ; 0x4 <__rc2>
    5e6b: a8           	tay
    5e6c: ae d8 75     	ldx	$75d8                   ; 0x75d8 <__data_load_start+0x402>
    5e6f: 86 04        	stx	$4                      ; 0x4 <__rc2>
    5e71: a9 71        	lda	#$71
    5e73: 65 04        	adc	$4                      ; 0x4 <__rc2>
    5e75: 84 04        	sty	$4                      ; 0x4 <__rc2>
    5e77: 85 05        	sta	$5                      ; 0x5 <__rc3>
    5e79: b2 04        	lda	($4),z                  ; 0x4 <__rc2>
    5e7b: aa           	tax
    5e7c: a0 01        	ldy	#$1
    5e7e: b1 04        	lda	($4),y                  ; 0x4 <__rc2>
    5e80: 86 04        	stx	$4                      ; 0x4 <__rc2>
    5e82: 85 05        	sta	$5                      ; 0x5 <__rc3>
    5e84: 38           	sec
    5e85: ae d9 75     	ldx	$75d9                   ; 0x75d9 <__data_load_start+0x403>
    5e88: 86 06        	stx	$6                      ; 0x6 <__zp_data_size>
    5e8a: ad dc 75     	lda	$75dc                   ; 0x75dc <__data_load_start+0x406>
    5e8d: e5 06        	sbc	$6                      ; 0x6 <__zp_data_size>
    5e8f: 85 06        	sta	$6                      ; 0x6 <__zp_data_size>
    5e91: ae da 75     	ldx	$75da                   ; 0x75da <__data_load_start+0x404>
    5e94: 86 07        	stx	$7                      ; 0x7 <__rc5>
    5e96: ad db 75     	lda	$75db                   ; 0x75db <__data_load_start+0x405>
    5e99: e5 07        	sbc	$7                      ; 0x7 <__rc5>
    5e9b: 85 07        	sta	$7                      ; 0x7 <__rc5>
    5e9d: a9 d7        	lda	#$d7
    5e9f: 18           	clc
    5ea0: 65 06        	adc	$6                      ; 0x6 <__zp_data_size>
    5ea2: 85 06        	sta	$6                      ; 0x6 <__zp_data_size>
    5ea4: a9 71        	lda	#$71
    5ea6: 65 07        	adc	$7                      ; 0x7 <__rc5>
    5ea8: 85 07        	sta	$7                      ; 0x7 <__rc5>
    5eaa: b1 04        	lda	($4),y                  ; 0x4 <__rc2>
    5eac: a8           	tay
    5ead: a9 01        	lda	#$1
    5eaf: 11 06        	ora	($6),y                  ; 0x6 <__zp_data_size>
    5eb1: 91 06        	sta	($6),y                  ; 0x6 <__zp_data_size>
    5eb3: 5a           	phy
    5eb4: fa           	plx
    5eb5: a5 16        	lda	$16                     ; 0x16 <__rc20>
    5eb7: 20 4e 4d     	jsr	$4d4e <getdirententry>
    5eba: a5 04        	lda	$4                      ; 0x4 <__rc2>
    5ebc: 18           	clc
    5ebd: 69 1e        	adc	#$1e
    5ebf: 85 06        	sta	$6                      ; 0x6 <__zp_data_size>
    5ec1: a5 05        	lda	$5                      ; 0x5 <__rc3>
    5ec3: 69 00        	adc	#$0
    5ec5: 85 07        	sta	$7                      ; 0x7 <__rc5>
    5ec7: a5 19        	lda	$19                     ; 0x19 <__rc23>
    5ec9: a0 1e        	ldy	#$1e
    5ecb: 18           	clc
    5ecc: 71 04        	adc	($4),y                  ; 0x4 <__rc2>
    5ece: 85 04        	sta	$4                      ; 0x4 <__rc2>
    5ed0: a5 1a        	lda	$1a                     ; 0x1a <__rc24>
    5ed2: a0 01        	ldy	#$1
    5ed4: 71 06        	adc	($6),y                  ; 0x6 <__zp_data_size>
    5ed6: aa           	tax
    5ed7: a5 04        	lda	$4                      ; 0x4 <__rc2>
    5ed9: ac de 75     	ldy	$75de                   ; 0x75de <__data_load_start+0x408>
    5edc: 84 1b        	sty	$1b                     ; 0x1b <__rc25>
    5ede: ac dd 75     	ldy	$75dd                   ; 0x75dd <__data_load_start+0x407>
    5ee1: 84 1a        	sty	$1a                     ; 0x1a <__rc24>
    5ee3: 7a           	ply
    5ee4: 84 19        	sty	$19                     ; 0x19 <__rc23>
    5ee6: 7a           	ply
    5ee7: 84 18        	sty	$18                     ; 0x18 <__rc22>
    5ee9: 7a           	ply
    5eea: 84 17        	sty	$17                     ; 0x17 <__rc21>
    5eec: 7a           	ply
    5eed: 84 16        	sty	$16                     ; 0x16 <__rc20>
    5eef: 60           	rts

00005ef0 <sidbong>:
    5ef0: a2 1f        	ldx	#$1f
    5ef2: 8e 02 d4     	stx	$d402                   ; 0xd402 <__heap_start+0x5e1c>
    5ef5: 64 05        	stz	$5                      ; 0x5 <__rc3>
    5ef7: 9c 03 d4     	stz	$d403                   ; 0xd403 <__heap_start+0x5e1d>
    5efa: a9 09        	lda	#$9
    5efc: 8d 05 d4     	sta	$d405                   ; 0xd405 <__heap_start+0x5e1f>
    5eff: a0 25        	ldy	#$25
    5f01: 8c 00 d4     	sty	$d400                   ; 0xd400 <__heap_start+0x5e1a>
    5f04: a0 11        	ldy	#$11
    5f06: 8c 01 d4     	sty	$d401                   ; 0xd401 <__heap_start+0x5e1b>
    5f09: 8c 04 d4     	sty	$d404                   ; 0xd404 <__heap_start+0x5e1e>
    5f0c: 8e 42 d4     	stx	$d442                   ; 0xd442 <__heap_start+0x5e5c>
    5f0f: 9c 43 d4     	stz	$d443                   ; 0xd443 <__heap_start+0x5e5d>
    5f12: 8d 45 d4     	sta	$d445                   ; 0xd445 <__heap_start+0x5e5f>
    5f15: a2 9a        	ldx	#$9a
    5f17: 8e 40 d4     	stx	$d440                   ; 0xd440 <__heap_start+0x5e5a>
    5f1a: a2 15        	ldx	#$15
    5f1c: 8e 41 d4     	stx	$d441                   ; 0xd441 <__heap_start+0x5e5b>
    5f1f: 8c 44 d4     	sty	$d444                   ; 0xd444 <__heap_start+0x5e5e>
    5f22: a9 40        	lda	#$40
    5f24: a2 0d        	ldx	#$d
    5f26: a0 03        	ldy	#$3
    5f28: 84 04        	sty	$4                      ; 0x4 <__rc2>
    5f2a: 20 54 62     	jsr	$6254 <usleep>
    5f2d: a2 10        	ldx	#$10
    5f2f: 8e 04 d4     	stx	$d404                   ; 0xd404 <__heap_start+0x5e1e>
    5f32: 8e 44 d4     	stx	$d444                   ; 0xd444 <__heap_start+0x5e5e>
    5f35: 60           	rts

00005f36 <escNOP>:
    5f36: 60           	rts

00005f37 <cputc>:
    5f37: 85 04        	sta	$4                      ; 0x4 <__rc2>
    5f39: a5 53        	lda	$53                     ; 0x53 <g_curX>
    5f3b: a6 54        	ldx	$54                     ; 0x54 <g_curY>
    5f3d: 4c 40 5f     	jmp	$5f40 <cputcxy>

00005f40 <cputcxy>:
    5f40: 85 7b        	sta	$7b                     ; 0x7b <__zp_bss_size+0x3a>
    5f42: a4 04        	ldy	$4                      ; 0x4 <__rc2>
    5f44: 84 7c        	sty	$7c                     ; 0x7c <__zp_bss_size+0x3b>
    5f46: a5 51        	lda	$51                     ; 0x51 <g_curScreenW>
    5f48: 86 7a        	stx	$7a                     ; 0x7a <__zp_bss_size+0x39>
    5f4a: 86 04        	stx	$4                      ; 0x4 <__rc2>
    5f4c: 64 05        	stz	$5                      ; 0x5 <__rc3>
    5f4e: a2 00        	ldx	#$0
    5f50: 64 78        	stz	$78                     ; 0x78 <__zp_bss_size+0x37>
    5f52: 20 48 63     	jsr	$6348 <__mulhi3>
    5f55: 18           	clc
    5f56: 65 7b        	adc	$7b                     ; 0x7b <__zp_bss_size+0x3a>
    5f58: 85 79        	sta	$79                     ; 0x79 <__zp_bss_size+0x38>
    5f5a: 8a           	txa
    5f5b: 69 00        	adc	#$0
    5f5d: 85 77        	sta	$77                     ; 0x77 <__zp_bss_size+0x36>
    5f5f: ad 63 d0     	lda	$d063                   ; 0xd063 <__heap_start+0x5a7d>
    5f62: 29 07        	and	#$7
    5f64: a8           	tay
    5f65: ae 62 d0     	ldx	$d062                   ; 0xd062 <__heap_start+0x5a7c>
    5f68: 86 06        	stx	$6                      ; 0x6 <__zp_data_size>
    5f6a: ae 61 d0     	ldx	$d061                   ; 0xd061 <__heap_start+0x5a7b>
    5f6d: 86 04        	stx	$4                      ; 0x4 <__rc2>
    5f6f: ae 60 d0     	ldx	$d060                   ; 0xd060 <__heap_start+0x5a7a>
    5f72: 86 05        	stx	$5                      ; 0x5 <__rc3>
    5f74: a5 79        	lda	$79                     ; 0x79 <__zp_bss_size+0x38>
    5f76: 18           	clc
    5f77: 69 00        	adc	#$0
    5f79: aa           	tax
    5f7a: a5 77        	lda	$77                     ; 0x77 <__zp_bss_size+0x36>
    5f7c: 65 04        	adc	$4                      ; 0x4 <__rc2>
    5f7e: 85 07        	sta	$7                      ; 0x7 <__rc5>
    5f80: a5 06        	lda	$6                      ; 0x6 <__zp_data_size>
    5f82: 69 00        	adc	#$0
    5f84: 85 04        	sta	$4                      ; 0x4 <__rc2>
    5f86: 98           	tya
    5f87: 69 00        	adc	#$0
    5f89: 85 06        	sta	$6                      ; 0x6 <__zp_data_size>
    5f8b: 8a           	txa
    5f8c: 18           	clc
    5f8d: 65 05        	adc	$5                      ; 0x5 <__rc3>
    5f8f: a8           	tay
    5f90: a5 07        	lda	$7                      ; 0x7 <__rc5>
    5f92: 69 00        	adc	#$0
    5f94: 85 07        	sta	$7                      ; 0x7 <__rc5>
    5f96: a5 04        	lda	$4                      ; 0x4 <__rc2>
    5f98: 69 00        	adc	#$0
    5f9a: 85 04        	sta	$4                      ; 0x4 <__rc2>
    5f9c: a5 06        	lda	$6                      ; 0x6 <__zp_data_size>
    5f9e: 69 00        	adc	#$0
    5fa0: 85 05        	sta	$5                      ; 0x5 <__rc3>
    5fa2: a6 7c        	ldx	$7c                     ; 0x7c <__zp_bss_size+0x3b>
    5fa4: 86 06        	stx	$6                      ; 0x6 <__zp_data_size>
    5fa6: a6 07        	ldx	$7                      ; 0x7 <__rc5>
    5fa8: 98           	tya
    5fa9: 20 8c 20     	jsr	$208c <lpoke>
    5fac: a6 27        	ldx	$27                     ; 0x27 <g_curTextColor>
    5fae: a0 f8        	ldy	#$f8
    5fb0: a9 0f        	lda	#$f
    5fb2: 84 04        	sty	$4                      ; 0x4 <__rc2>
    5fb4: 85 05        	sta	$5                      ; 0x5 <__rc3>
    5fb6: 86 06        	stx	$6                      ; 0x6 <__zp_data_size>
    5fb8: a6 77        	ldx	$77                     ; 0x77 <__zp_bss_size+0x36>
    5fba: a5 79        	lda	$79                     ; 0x79 <__zp_bss_size+0x38>
    5fbc: 20 8c 20     	jsr	$208c <lpoke>
    5fbf: a6 51        	ldx	$51                     ; 0x51 <g_curScreenW>
    5fc1: ca           	dex
    5fc2: e0 ff        	cpx	#$ff
    5fc4: d0 02        	bne	$5fc8 <cputcxy+0x88>
    5fc6: c6 78        	dec	$78                     ; 0x78 <__zp_bss_size+0x37>
    5fc8: a5 78        	lda	$78                     ; 0x78 <__zp_bss_size+0x37>
    5fca: d0 0b        	bne	$5fd7 <cputcxy+0x97>
    5fcc: e4 7b        	cpx	$7b                     ; 0x7b <__zp_bss_size+0x3a>
    5fce: d0 07        	bne	$5fd7 <cputcxy+0x97>
    5fd0: a4 7a        	ldy	$7a                     ; 0x7a <__zp_bss_size+0x39>
    5fd2: c8           	iny
    5fd3: a2 00        	ldx	#$0
    5fd5: 80 05        	bra	$5fdc <cputcxy+0x9c>
    5fd7: a4 7a        	ldy	$7a                     ; 0x7a <__zp_bss_size+0x39>
    5fd9: a6 7b        	ldx	$7b                     ; 0x7b <__zp_bss_size+0x3a>
    5fdb: e8           	inx
    5fdc: 86 53        	stx	$53                     ; 0x53 <g_curX>
    5fde: 84 54        	sty	$54                     ; 0x54 <g_curY>
    5fe0: 60           	rts

00005fe1 <cputs>:
    5fe1: a5 53        	lda	$53                     ; 0x53 <g_curX>
    5fe3: a6 54        	ldx	$54                     ; 0x54 <g_curY>
    5fe5: 4c e8 5f     	jmp	$5fe8 <cputsxy>

00005fe8 <cputsxy>:
    5fe8: 85 8c        	sta	$8c                     ; 0x8c <__zp_bss_size+0x4b>
    5fea: 86 8b        	stx	$8b                     ; 0x8b <__zp_bss_size+0x4a>
    5fec: a6 04        	ldx	$4                      ; 0x4 <__rc2>
    5fee: 86 06        	stx	$6                      ; 0x6 <__zp_data_size>
    5ff0: a6 05        	ldx	$5                      ; 0x5 <__rc3>
    5ff2: 86 07        	stx	$7                      ; 0x7 <__rc5>
    5ff4: a6 06        	ldx	$6                      ; 0x6 <__zp_data_size>
    5ff6: 86 89        	stx	$89                     ; 0x89 <__zp_bss_size+0x48>
    5ff8: a6 07        	ldx	$7                      ; 0x7 <__rc5>
    5ffa: 86 8a        	stx	$8a                     ; 0x8a <__zp_bss_size+0x49>
    5ffc: 20 ee 62     	jsr	$62ee <strlen>
    5fff: 85 88        	sta	$88                     ; 0x88 <__zp_bss_size+0x47>
    6001: a5 51        	lda	$51                     ; 0x51 <g_curScreenW>
    6003: a6 8b        	ldx	$8b                     ; 0x8b <__zp_bss_size+0x4a>
    6005: 86 04        	stx	$4                      ; 0x4 <__rc2>
    6007: 64 05        	stz	$5                      ; 0x5 <__rc3>
    6009: a2 00        	ldx	#$0
    600b: 20 48 63     	jsr	$6348 <__mulhi3>
    600e: 86 05        	stx	$5                      ; 0x5 <__rc3>
    6010: a6 8c        	ldx	$8c                     ; 0x8c <__zp_bss_size+0x4b>
    6012: 86 04        	stx	$4                      ; 0x4 <__rc2>
    6014: 18           	clc
    6015: 65 04        	adc	$4                      ; 0x4 <__rc2>
    6017: a8           	tay
    6018: 85 8e        	sta	$8e                     ; 0x8e <__zp_bss_size+0x4d>
    601a: a5 05        	lda	$5                      ; 0x5 <__rc3>
    601c: 69 00        	adc	#$0
    601e: 85 8d        	sta	$8d                     ; 0x8d <__zp_bss_size+0x4c>
    6020: ad 63 d0     	lda	$d063                   ; 0xd063 <__heap_start+0x5a7d>
    6023: 29 07        	and	#$7
    6025: 85 08        	sta	$8                      ; 0x8 <__rc6>
    6027: ae 62 d0     	ldx	$d062                   ; 0xd062 <__heap_start+0x5a7c>
    602a: 86 07        	stx	$7                      ; 0x7 <__rc5>
    602c: ae 61 d0     	ldx	$d061                   ; 0xd061 <__heap_start+0x5a7b>
    602f: 86 04        	stx	$4                      ; 0x4 <__rc2>
    6031: ae 60 d0     	ldx	$d060                   ; 0xd060 <__heap_start+0x5a7a>
    6034: 86 05        	stx	$5                      ; 0x5 <__rc3>
    6036: 18           	clc
    6037: 98           	tya
    6038: 69 00        	adc	#$0
    603a: a8           	tay
    603b: a6 8d        	ldx	$8d                     ; 0x8d <__zp_bss_size+0x4c>
    603d: 8a           	txa
    603e: 65 04        	adc	$4                      ; 0x4 <__rc2>
    6040: 85 09        	sta	$9                      ; 0x9 <__rc7>
    6042: a5 07        	lda	$7                      ; 0x7 <__rc5>
    6044: 69 00        	adc	#$0
    6046: 85 04        	sta	$4                      ; 0x4 <__rc2>
    6048: a5 08        	lda	$8                      ; 0x8 <__rc6>
    604a: 69 00        	adc	#$0
    604c: aa           	tax
    604d: 18           	clc
    604e: 98           	tya
    604f: 65 05        	adc	$5                      ; 0x5 <__rc3>
    6051: 85 06        	sta	$6                      ; 0x6 <__zp_data_size>
    6053: a5 09        	lda	$9                      ; 0x9 <__rc7>
    6055: 69 00        	adc	#$0
    6057: 85 07        	sta	$7                      ; 0x7 <__rc5>
    6059: a5 04        	lda	$4                      ; 0x4 <__rc2>
    605b: 69 00        	adc	#$0
    605d: 85 08        	sta	$8                      ; 0x8 <__rc6>
    605f: 8a           	txa
    6060: 69 00        	adc	#$0
    6062: 64 04        	stz	$4                      ; 0x4 <__rc2>
    6064: 64 05        	stz	$5                      ; 0x5 <__rc3>
    6066: 85 09        	sta	$9                      ; 0x9 <__rc7>
    6068: a6 88        	ldx	$88                     ; 0x88 <__zp_bss_size+0x47>
    606a: 86 0a        	stx	$a                      ; 0xa <__rc8>
    606c: 64 0b        	stz	$b                      ; 0xb <__rc9>
    606e: a6 89        	ldx	$89                     ; 0x89 <__zp_bss_size+0x48>
    6070: 86 0c        	stx	$c                      ; 0xc <__rc10>
    6072: a6 8a        	ldx	$8a                     ; 0x8a <__zp_bss_size+0x49>
    6074: a5 0c        	lda	$c                      ; 0xc <__rc10>
    6076: 20 9d 61     	jsr	$619d <lcopy>
    6079: a6 27        	ldx	$27                     ; 0x27 <g_curTextColor>
    607b: a0 f8        	ldy	#$f8
    607d: a9 0f        	lda	#$f
    607f: 84 04        	sty	$4                      ; 0x4 <__rc2>
    6081: 85 05        	sta	$5                      ; 0x5 <__rc3>
    6083: 86 06        	stx	$6                      ; 0x6 <__zp_data_size>
    6085: a6 88        	ldx	$88                     ; 0x88 <__zp_bss_size+0x47>
    6087: 86 07        	stx	$7                      ; 0x7 <__rc5>
    6089: 64 08        	stz	$8                      ; 0x8 <__rc6>
    608b: a6 8d        	ldx	$8d                     ; 0x8d <__zp_bss_size+0x4c>
    608d: a5 8e        	lda	$8e                     ; 0x8e <__zp_bss_size+0x4d>
    608f: 20 04 62     	jsr	$6204 <lfill>
    6092: a5 88        	lda	$88                     ; 0x88 <__zp_bss_size+0x47>
    6094: a6 8c        	ldx	$8c                     ; 0x8c <__zp_bss_size+0x4b>
    6096: 86 04        	stx	$4                      ; 0x4 <__rc2>
    6098: 18           	clc
    6099: 65 04        	adc	$4                      ; 0x4 <__rc2>
    609b: 85 08        	sta	$8                      ; 0x8 <__rc6>
    609d: a9 00        	lda	#$0
    609f: 69 00        	adc	#$0
    60a1: a6 51        	ldx	$51                     ; 0x51 <g_curScreenW>
    60a3: a0 86        	ldy	#$86
    60a5: 84 06        	sty	$6                      ; 0x6 <__zp_data_size>
    60a7: a0 00        	ldy	#$0
    60a9: 84 07        	sty	$7                      ; 0x7 <__rc5>
    60ab: 86 04        	stx	$4                      ; 0x4 <__rc2>
    60ad: 64 05        	stz	$5                      ; 0x5 <__rc3>
    60af: aa           	tax
    60b0: a5 08        	lda	$8                      ; 0x8 <__rc6>
    60b2: 20 f0 64     	jsr	$64f0 <__udivmodhi4>
    60b5: a6 86        	ldx	$86                     ; 0x86 <__zp_bss_size+0x45>
    60b7: 18           	clc
    60b8: a4 8b        	ldy	$8b                     ; 0x8b <__zp_bss_size+0x4a>
    60ba: 84 04        	sty	$4                      ; 0x4 <__rc2>
    60bc: 65 04        	adc	$4                      ; 0x4 <__rc2>
    60be: 85 54        	sta	$54                     ; 0x54 <g_curY>
    60c0: 86 53        	stx	$53                     ; 0x53 <g_curX>
    60c2: 60           	rts

000060c3 <fillrect>:
    60c3: a6 04        	ldx	$4                      ; 0x4 <__rc2>
    60c5: 86 77        	stx	$77                     ; 0x77 <__zp_bss_size+0x36>
    60c7: a6 05        	ldx	$5                      ; 0x5 <__rc3>
    60c9: 86 78        	stx	$78                     ; 0x78 <__zp_bss_size+0x37>
    60cb: a0 02        	ldy	#$2
    60cd: b1 04        	lda	($4),y                  ; 0x4 <__rc2>
    60cf: 38           	sec
    60d0: f2 04        	sbc	($4),z                  ; 0x4 <__rc2>
    60d2: 85 7a        	sta	$7a                     ; 0x7a <__zp_bss_size+0x39>
    60d4: 88           	dey
    60d5: b1 04        	lda	($4),y                  ; 0x4 <__rc2>
    60d7: 85 79        	sta	$79                     ; 0x79 <__zp_bss_size+0x38>
    60d9: 4c 61 61     	jmp	$6161 <fillrect+0x9e>
    60dc: a5 51        	lda	$51                     ; 0x51 <g_curScreenW>
    60de: a6 79        	ldx	$79                     ; 0x79 <__zp_bss_size+0x38>
    60e0: 86 04        	stx	$4                      ; 0x4 <__rc2>
    60e2: 64 05        	stz	$5                      ; 0x5 <__rc3>
    60e4: a2 00        	ldx	#$0
    60e6: 20 48 63     	jsr	$6348 <__mulhi3>
    60e9: 18           	clc
    60ea: 72 77        	adc	($77),z                 ; 0x77 <__zp_bss_size+0x36>
    60ec: 85 7b        	sta	$7b                     ; 0x7b <__zp_bss_size+0x3a>
    60ee: 8a           	txa
    60ef: 69 00        	adc	#$0
    60f1: 85 7c        	sta	$7c                     ; 0x7c <__zp_bss_size+0x3b>
    60f3: ad 63 d0     	lda	$d063                   ; 0xd063 <__heap_start+0x5a7d>
    60f6: 29 07        	and	#$7
    60f8: a8           	tay
    60f9: ae 62 d0     	ldx	$d062                   ; 0xd062 <__heap_start+0x5a7c>
    60fc: 86 07        	stx	$7                      ; 0x7 <__rc5>
    60fe: ae 61 d0     	ldx	$d061                   ; 0xd061 <__heap_start+0x5a7b>
    6101: 86 04        	stx	$4                      ; 0x4 <__rc2>
    6103: ae 60 d0     	ldx	$d060                   ; 0xd060 <__heap_start+0x5a7a>
    6106: 86 05        	stx	$5                      ; 0x5 <__rc3>
    6108: a5 7b        	lda	$7b                     ; 0x7b <__zp_bss_size+0x3a>
    610a: 18           	clc
    610b: 69 00        	adc	#$0
    610d: 85 06        	sta	$6                      ; 0x6 <__zp_data_size>
    610f: a5 7c        	lda	$7c                     ; 0x7c <__zp_bss_size+0x3b>
    6111: 65 04        	adc	$4                      ; 0x4 <__rc2>
    6113: 85 08        	sta	$8                      ; 0x8 <__rc6>
    6115: a5 07        	lda	$7                      ; 0x7 <__rc5>
    6117: 69 00        	adc	#$0
    6119: 85 04        	sta	$4                      ; 0x4 <__rc2>
    611b: 98           	tya
    611c: 69 00        	adc	#$0
    611e: aa           	tax
    611f: 18           	clc
    6120: a5 06        	lda	$6                      ; 0x6 <__zp_data_size>
    6122: 65 05        	adc	$5                      ; 0x5 <__rc3>
    6124: a8           	tay
    6125: a5 08        	lda	$8                      ; 0x8 <__rc6>
    6127: 69 00        	adc	#$0
    6129: 85 09        	sta	$9                      ; 0x9 <__rc7>
    612b: a5 04        	lda	$4                      ; 0x4 <__rc2>
    612d: 69 00        	adc	#$0
    612f: 85 04        	sta	$4                      ; 0x4 <__rc2>
    6131: 8a           	txa
    6132: 69 00        	adc	#$0
    6134: 85 05        	sta	$5                      ; 0x5 <__rc3>
    6136: a2 20        	ldx	#$20
    6138: 86 06        	stx	$6                      ; 0x6 <__zp_data_size>
    613a: a6 7a        	ldx	$7a                     ; 0x7a <__zp_bss_size+0x39>
    613c: 86 07        	stx	$7                      ; 0x7 <__rc5>
    613e: 64 08        	stz	$8                      ; 0x8 <__rc6>
    6140: a6 09        	ldx	$9                      ; 0x9 <__rc7>
    6142: 98           	tya
    6143: 20 04 62     	jsr	$6204 <lfill>
    6146: a2 f8        	ldx	#$f8
    6148: 86 04        	stx	$4                      ; 0x4 <__rc2>
    614a: a2 0f        	ldx	#$f
    614c: 86 05        	stx	$5                      ; 0x5 <__rc3>
    614e: a2 03        	ldx	#$3
    6150: 86 06        	stx	$6                      ; 0x6 <__zp_data_size>
    6152: a6 7a        	ldx	$7a                     ; 0x7a <__zp_bss_size+0x39>
    6154: 86 07        	stx	$7                      ; 0x7 <__rc5>
    6156: 64 08        	stz	$8                      ; 0x8 <__rc6>
    6158: a6 7c        	ldx	$7c                     ; 0x7c <__zp_bss_size+0x3b>
    615a: a5 7b        	lda	$7b                     ; 0x7b <__zp_bss_size+0x3a>
    615c: 20 04 62     	jsr	$6204 <lfill>
    615f: e6 79        	inc	$79                     ; 0x79 <__zp_bss_size+0x38>
    6161: a0 03        	ldy	#$3
    6163: b1 77        	lda	($77),y                 ; 0x77 <__zp_bss_size+0x36>
    6165: c5 79        	cmp	$79                     ; 0x79 <__zp_bss_size+0x38>
    6167: 90 03        	bcc	$616c <fillrect+0xa9>
    6169: 4c dc 60     	jmp	$60dc <fillrect+0x19>
    616c: 60           	rts

0000616d <cgetc>:
    616d: ad 10 d6     	lda	$d610                   ; 0xd610 <__heap_start+0x602a>
    6170: f0 fb        	beq	$616d <cgetc>
    6172: 9c 10 d6     	stz	$d610                   ; 0xd610 <__heap_start+0x602a>
    6175: 60           	rts

00006176 <do_dma>:
    6176: a2 00        	ldx	#$0
    6178: a0 55        	ldy	#$55
    617a: 84 04        	sty	$4                      ; 0x4 <__rc2>
    617c: a0 00        	ldy	#$0
    617e: 84 05        	sty	$5                      ; 0x5 <__rc3>
    6180: a4 04        	ldy	$4                      ; 0x4 <__rc2>
    6182: a9 47        	lda	#$47
    6184: 8d 2f d0     	sta	$d02f                   ; 0xd02f <__heap_start+0x5a49>
    6187: a9 53        	lda	#$53
    6189: 8d 2f d0     	sta	$d02f                   ; 0xd02f <__heap_start+0x5a49>
    618c: a9 41        	lda	#$41
    618e: 85 00        	sta	$0                      ; 0x0 <__data_size>
    6190: 9c 02 d7     	stz	$d702                   ; 0xd702 <__heap_start+0x611c>
    6193: 9c 04 d7     	stz	$d704                   ; 0xd704 <__heap_start+0x611e>
    6196: 8e 01 d7     	stx	$d701                   ; 0xd701 <__heap_start+0x611b>
    6199: 8c 05 d7     	sty	$d705                   ; 0xd705 <__heap_start+0x611f>
    619c: 60           	rts

0000619d <lcopy>:
    619d: 85 0c        	sta	$c                      ; 0xc <__rc10>
    619f: 86 0d        	stx	$d                      ; 0xd <__rc11>
    61a1: a6 0a        	ldx	$a                      ; 0xa <__rc8>
    61a3: a4 0b        	ldy	$b                      ; 0xb <__rc9>
    61a5: a9 0b        	lda	#$b
    61a7: 85 55        	sta	$55                     ; 0x55 <dmalist>
    61a9: a9 80        	lda	#$80
    61ab: 85 56        	sta	$56                     ; 0x56 <dmalist+0x1>
    61ad: 46 05        	lsr	$5                      ; 0x5 <__rc3>
    61af: a5 04        	lda	$4                      ; 0x4 <__rc2>
    61b1: 6a           	ror
    61b2: 46 05        	lsr	$5                      ; 0x5 <__rc3>
    61b4: 6a           	ror
    61b5: 46 05        	lsr	$5                      ; 0x5 <__rc3>
    61b7: 6a           	ror
    61b8: 46 05        	lsr	$5                      ; 0x5 <__rc3>
    61ba: 6a           	ror
    61bb: 85 57        	sta	$57                     ; 0x57 <dmalist+0x2>
    61bd: a9 81        	lda	#$81
    61bf: 85 58        	sta	$58                     ; 0x58 <dmalist+0x3>
    61c1: 46 09        	lsr	$9                      ; 0x9 <__rc7>
    61c3: a5 08        	lda	$8                      ; 0x8 <__rc6>
    61c5: 6a           	ror
    61c6: 46 09        	lsr	$9                      ; 0x9 <__rc7>
    61c8: 6a           	ror
    61c9: 46 09        	lsr	$9                      ; 0x9 <__rc7>
    61cb: 6a           	ror
    61cc: 46 09        	lsr	$9                      ; 0x9 <__rc7>
    61ce: 6a           	ror
    61cf: 85 59        	sta	$59                     ; 0x59 <dmalist+0x4>
    61d1: a9 85        	lda	#$85
    61d3: 85 5a        	sta	$5a                     ; 0x5a <dmalist+0x5>
    61d5: a9 01        	lda	#$1
    61d7: 85 5b        	sta	$5b                     ; 0x5b <dmalist+0x6>
    61d9: 64 5c        	stz	$5c                     ; 0x5c <dmalist+0x7>
    61db: 64 66        	stz	$66                     ; 0x66 <dmalist+0x11>
    61dd: 64 5d        	stz	$5d                     ; 0x5d <dmalist+0x8>
    61df: 86 5e        	stx	$5e                     ; 0x5e <dmalist+0x9>
    61e1: 84 5f        	sty	$5f                     ; 0x5f <dmalist+0xa>
    61e3: 64 66        	stz	$66                     ; 0x66 <dmalist+0x11>
    61e5: a6 0c        	ldx	$c                      ; 0xc <__rc10>
    61e7: 86 60        	stx	$60                     ; 0x60 <dmalist+0xb>
    61e9: a6 0d        	ldx	$d                      ; 0xd <__rc11>
    61eb: 86 61        	stx	$61                     ; 0x61 <dmalist+0xc>
    61ed: a5 04        	lda	$4                      ; 0x4 <__rc2>
    61ef: 29 0f        	and	#$f
    61f1: 85 62        	sta	$62                     ; 0x62 <dmalist+0xd>
    61f3: a6 06        	ldx	$6                      ; 0x6 <__zp_data_size>
    61f5: 86 63        	stx	$63                     ; 0x63 <dmalist+0xe>
    61f7: a6 07        	ldx	$7                      ; 0x7 <__rc5>
    61f9: 86 64        	stx	$64                     ; 0x64 <dmalist+0xf>
    61fb: a5 08        	lda	$8                      ; 0x8 <__rc6>
    61fd: 29 0f        	and	#$f
    61ff: 85 65        	sta	$65                     ; 0x65 <dmalist+0x10>
    6201: 4c 76 61     	jmp	$6176 <do_dma>

00006204 <lfill>:
    6204: 85 09        	sta	$9                      ; 0x9 <__rc7>
    6206: 86 0a        	stx	$a                      ; 0xa <__rc8>
    6208: a6 07        	ldx	$7                      ; 0x7 <__rc5>
    620a: a4 08        	ldy	$8                      ; 0x8 <__rc6>
    620c: a9 0b        	lda	#$b
    620e: 85 55        	sta	$55                     ; 0x55 <dmalist>
    6210: a9 80        	lda	#$80
    6212: 85 56        	sta	$56                     ; 0x56 <dmalist+0x1>
    6214: 64 57        	stz	$57                     ; 0x57 <dmalist+0x2>
    6216: 1a           	inc
    6217: 85 58        	sta	$58                     ; 0x58 <dmalist+0x3>
    6219: 46 05        	lsr	$5                      ; 0x5 <__rc3>
    621b: a5 04        	lda	$4                      ; 0x4 <__rc2>
    621d: 6a           	ror
    621e: 46 05        	lsr	$5                      ; 0x5 <__rc3>
    6220: 6a           	ror
    6221: 46 05        	lsr	$5                      ; 0x5 <__rc3>
    6223: 6a           	ror
    6224: 46 05        	lsr	$5                      ; 0x5 <__rc3>
    6226: 6a           	ror
    6227: 85 59        	sta	$59                     ; 0x59 <dmalist+0x4>
    6229: a9 85        	lda	#$85
    622b: 85 5a        	sta	$5a                     ; 0x5a <dmalist+0x5>
    622d: a9 01        	lda	#$1
    622f: 85 5b        	sta	$5b                     ; 0x5b <dmalist+0x6>
    6231: 64 5c        	stz	$5c                     ; 0x5c <dmalist+0x7>
    6233: a9 03        	lda	#$3
    6235: 85 5d        	sta	$5d                     ; 0x5d <dmalist+0x8>
    6237: 64 66        	stz	$66                     ; 0x66 <dmalist+0x11>
    6239: 86 5e        	stx	$5e                     ; 0x5e <dmalist+0x9>
    623b: 84 5f        	sty	$5f                     ; 0x5f <dmalist+0xa>
    623d: a6 06        	ldx	$6                      ; 0x6 <__zp_data_size>
    623f: 86 60        	stx	$60                     ; 0x60 <dmalist+0xb>
    6241: 64 61        	stz	$61                     ; 0x61 <dmalist+0xc>
    6243: a6 09        	ldx	$9                      ; 0x9 <__rc7>
    6245: 86 63        	stx	$63                     ; 0x63 <dmalist+0xe>
    6247: a6 0a        	ldx	$a                      ; 0xa <__rc8>
    6249: 86 64        	stx	$64                     ; 0x64 <dmalist+0xf>
    624b: a5 04        	lda	$4                      ; 0x4 <__rc2>
    624d: 29 0f        	and	#$f
    624f: 85 65        	sta	$65                     ; 0x65 <dmalist+0x10>
    6251: 4c 76 61     	jmp	$6176 <do_dma>

00006254 <usleep>:
    6254: a8           	tay
    6255: 86 06        	stx	$6                      ; 0x6 <__zp_data_size>
    6257: a5 05        	lda	$5                      ; 0x5 <__rc3>
    6259: 4c 90 62     	jmp	$6290 <usleep+0x3c>
    625c: a6 04        	ldx	$4                      ; 0x4 <__rc2>
    625e: 80 02        	bra	$6262 <usleep+0xe>
    6260: a6 06        	ldx	$6                      ; 0x6 <__zp_data_size>
    6262: e0 00        	cpx	#$0
    6264: b0 03        	bcs	$6269 <usleep+0x15>
    6266: 4c af 62     	jmp	$62af <usleep+0x5b>
    6269: 85 07        	sta	$7                      ; 0x7 <__rc5>
    626b: a6 06        	ldx	$6                      ; 0x6 <__zp_data_size>
    626d: 86 05        	stx	$5                      ; 0x5 <__rc3>
    626f: ae 12 d0     	ldx	$d012                   ; 0xd012 <__heap_start+0x5a2c>
    6272: 86 06        	stx	$6                      ; 0x6 <__zp_data_size>
    6274: ae 12 d0     	ldx	$d012                   ; 0xd012 <__heap_start+0x5a2c>
    6277: e4 06        	cpx	$6                      ; 0x6 <__zp_data_size>
    6279: f0 f9        	beq	$6274 <usleep+0x20>
    627b: 18           	clc
    627c: 98           	tya
    627d: 69 c0        	adc	#$c0
    627f: a8           	tay
    6280: a5 05        	lda	$5                      ; 0x5 <__rc3>
    6282: 69 ff        	adc	#$ff
    6284: 85 06        	sta	$6                      ; 0x6 <__zp_data_size>
    6286: a5 04        	lda	$4                      ; 0x4 <__rc2>
    6288: 69 ff        	adc	#$ff
    628a: 85 04        	sta	$4                      ; 0x4 <__rc2>
    628c: a5 07        	lda	$7                      ; 0x7 <__rc5>
    628e: 69 ff        	adc	#$ff
    6290: aa           	tax
    6291: d0 15        	bne	$62a8 <usleep+0x54>
    6293: a6 04        	ldx	$4                      ; 0x4 <__rc2>
    6295: f0 03        	beq	$629a <usleep+0x46>
    6297: 4c 5c 62     	jmp	$625c <usleep+0x8>
    629a: a6 06        	ldx	$6                      ; 0x6 <__zp_data_size>
    629c: f0 03        	beq	$62a1 <usleep+0x4d>
    629e: 4c 60 62     	jmp	$6260 <usleep+0xc>
    62a1: c0 41        	cpy	#$41
    62a3: 90 0a        	bcc	$62af <usleep+0x5b>
    62a5: 4c 69 62     	jmp	$6269 <usleep+0x15>
    62a8: c9 00        	cmp	#$0
    62aa: 90 03        	bcc	$62af <usleep+0x5b>
    62ac: 4c 69 62     	jmp	$6269 <usleep+0x15>
    62af: 60           	rts

000062b0 <strcpy>:
    62b0: b2 06        	lda	($6),z                  ; 0x6 <__zp_data_size>
    62b2: aa           	tax
    62b3: b2 06        	lda	($6),z                  ; 0x6 <__zp_data_size>
    62b5: 92 04        	sta	($4),z                  ; 0x4 <__rc2>
    62b7: 8a           	txa
    62b8: d0 03        	bne	$62bd <strcpy+0xd>
    62ba: 4c ed 62     	jmp	$62ed <strcpy+0x3d>
    62bd: a0 01        	ldy	#$1
    62bf: a6 04        	ldx	$4                      ; 0x4 <__rc2>
    62c1: 86 08        	stx	$8                      ; 0x8 <__rc6>
    62c3: a6 05        	ldx	$5                      ; 0x5 <__rc3>
    62c5: 86 09        	stx	$9                      ; 0x9 <__rc7>
    62c7: a6 06        	ldx	$6                      ; 0x6 <__zp_data_size>
    62c9: 86 0a        	stx	$a                      ; 0xa <__rc8>
    62cb: a6 07        	ldx	$7                      ; 0x7 <__rc5>
    62cd: 86 0b        	stx	$b                      ; 0xb <__rc9>
    62cf: e6 0a        	inc	$a                      ; 0xa <__rc8>
    62d1: d0 02        	bne	$62d5 <strcpy+0x25>
    62d3: e6 0b        	inc	$b                      ; 0xb <__rc9>
    62d5: b1 06        	lda	($6),y                  ; 0x6 <__zp_data_size>
    62d7: aa           	tax
    62d8: b1 06        	lda	($6),y                  ; 0x6 <__zp_data_size>
    62da: 91 08        	sta	($8),y                  ; 0x8 <__rc6>
    62dc: e6 08        	inc	$8                      ; 0x8 <__rc6>
    62de: d0 02        	bne	$62e2 <strcpy+0x32>
    62e0: e6 09        	inc	$9                      ; 0x9 <__rc7>
    62e2: a5 0a        	lda	$a                      ; 0xa <__rc8>
    62e4: 85 06        	sta	$6                      ; 0x6 <__zp_data_size>
    62e6: a5 0b        	lda	$b                      ; 0xb <__rc9>
    62e8: 85 07        	sta	$7                      ; 0x7 <__rc5>
    62ea: 8a           	txa
    62eb: d0 e2        	bne	$62cf <strcpy+0x1f>
    62ed: 60           	rts

000062ee <strlen>:
    62ee: b2 04        	lda	($4),z                  ; 0x4 <__rc2>
    62f0: d0 03        	bne	$62f5 <strlen+0x7>
    62f2: 4c 23 63     	jmp	$6323 <strlen+0x35>
    62f5: 64 07        	stz	$7                      ; 0x7 <__rc5>
    62f7: a0 01        	ldy	#$1
    62f9: a9 00        	lda	#$0
    62fb: 64 06        	stz	$6                      ; 0x6 <__zp_data_size>
    62fd: aa           	tax
    62fe: e6 06        	inc	$6                      ; 0x6 <__zp_data_size>
    6300: d0 01        	bne	$6303 <strlen+0x15>
    6302: e8           	inx
    6303: 18           	clc
    6304: 85 09        	sta	$9                      ; 0x9 <__rc7>
    6306: a5 07        	lda	$7                      ; 0x7 <__rc5>
    6308: 65 04        	adc	$4                      ; 0x4 <__rc2>
    630a: 85 08        	sta	$8                      ; 0x8 <__rc6>
    630c: a5 09        	lda	$9                      ; 0x9 <__rc7>
    630e: 65 05        	adc	$5                      ; 0x5 <__rc3>
    6310: 85 09        	sta	$9                      ; 0x9 <__rc7>
    6312: b1 08        	lda	($8),y                  ; 0x8 <__rc6>
    6314: 85 08        	sta	$8                      ; 0x8 <__rc6>
    6316: a5 06        	lda	$6                      ; 0x6 <__zp_data_size>
    6318: 85 07        	sta	$7                      ; 0x7 <__rc5>
    631a: 8a           	txa
    631b: e6 08        	inc	$8                      ; 0x8 <__rc6>
    631d: c6 08        	dec	$8                      ; 0x8 <__rc6>
    631f: d0 dd        	bne	$62fe <strlen+0x10>
    6321: 80 04        	bra	$6327 <strlen+0x39>
    6323: 64 06        	stz	$6                      ; 0x6 <__zp_data_size>
    6325: a2 00        	ldx	#$0
    6327: a5 06        	lda	$6                      ; 0x6 <__zp_data_size>
    6329: 60           	rts

0000632a <__ashlqi3>:
    632a: e0 00        	cpx	#$0
    632c: f0 06        	beq	$6334 <__ashlqi3+0xa>
    632e: ca           	dex
    632f: 0a           	asl
    6330: e0 00        	cpx	#$0
    6332: d0 fa        	bne	$632e <__ashlqi3+0x4>
    6334: 60           	rts

00006335 <__ashlhi3>:
    6335: 86 05        	stx	$5                      ; 0x5 <__rc3>
    6337: a6 04        	ldx	$4                      ; 0x4 <__rc2>
    6339: f0 0a        	beq	$6345 <__ashlhi3+0x10>
    633b: a6 04        	ldx	$4                      ; 0x4 <__rc2>
    633d: ca           	dex
    633e: 0a           	asl
    633f: 26 05        	rol	$5                      ; 0x5 <__rc3>
    6341: e0 00        	cpx	#$0
    6343: d0 f8        	bne	$633d <__ashlhi3+0x8>
    6345: a6 05        	ldx	$5                      ; 0x5 <__rc3>
    6347: 60           	rts

00006348 <__mulhi3>:
    6348: a4 05        	ldy	$5                      ; 0x5 <__rc3>
    634a: d0 04        	bne	$6350 <__mulhi3+0x8>
    634c: a4 04        	ldy	$4                      ; 0x4 <__rc2>
    634e: f0 25        	beq	$6375 <__mulhi3+0x2d>
    6350: 85 06        	sta	$6                      ; 0x6 <__zp_data_size>
    6352: 86 07        	stx	$7                      ; 0x7 <__rc5>
    6354: a0 00        	ldy	#$0
    6356: 98           	tya
    6357: 46 05        	lsr	$5                      ; 0x5 <__rc3>
    6359: 66 04        	ror	$4                      ; 0x4 <__rc2>
    635b: 90 09        	bcc	$6366 <__mulhi3+0x1e>
    635d: aa           	tax
    635e: 98           	tya
    635f: 18           	clc
    6360: 65 06        	adc	$6                      ; 0x6 <__zp_data_size>
    6362: a8           	tay
    6363: 8a           	txa
    6364: 65 07        	adc	$7                      ; 0x7 <__rc5>
    6366: 06 06        	asl	$6                      ; 0x6 <__zp_data_size>
    6368: 26 07        	rol	$7                      ; 0x7 <__rc5>
    636a: a6 05        	ldx	$5                      ; 0x5 <__rc3>
    636c: d0 e9        	bne	$6357 <__mulhi3+0xf>
    636e: a6 04        	ldx	$4                      ; 0x4 <__rc2>
    6370: d0 e5        	bne	$6357 <__mulhi3+0xf>
    6372: aa           	tax
    6373: 98           	tya
    6374: 60           	rts
    6375: a0 00        	ldy	#$0
    6377: 98           	tya
    6378: 80 f8        	bra	$6372 <__mulhi3+0x2a>

0000637a <__udivhi3>:
    637a: 64 06        	stz	$6                      ; 0x6 <__zp_data_size>
    637c: a4 05        	ldy	$5                      ; 0x5 <__rc3>
    637e: d0 04        	bne	$6384 <__udivhi3+0xa>
    6380: a4 04        	ldy	$4                      ; 0x4 <__rc2>
    6382: f0 0e        	beq	$6392 <__udivhi3+0x18>
    6384: 85 09        	sta	$9                      ; 0x9 <__rc7>
    6386: 8a           	txa
    6387: e4 05        	cpx	$5                      ; 0x5 <__rc3>
    6389: d0 0e        	bne	$6399 <__udivhi3+0x1f>
    638b: a5 09        	lda	$9                      ; 0x9 <__rc7>
    638d: c5 04        	cmp	$4                      ; 0x4 <__rc2>
    638f: 8a           	txa
    6390: b0 0b        	bcs	$639d <__udivhi3+0x23>
    6392: a2 00        	ldx	#$0
    6394: 86 69        	stx	$69                     ; 0x69 <__zp_bss_size+0x28>
    6396: 4c 36 64     	jmp	$6436 <__udivhi3+0xbc>
    6399: c5 05        	cmp	$5                      ; 0x5 <__rc3>
    639b: 90 f5        	bcc	$6392 <__udivhi3+0x18>
    639d: a2 01        	ldx	#$1
    639f: 86 69        	stx	$69                     ; 0x69 <__zp_bss_size+0x28>
    63a1: a6 05        	ldx	$5                      ; 0x5 <__rc3>
    63a3: 10 03        	bpl	$63a8 <__udivhi3+0x2e>
    63a5: 4c 36 64     	jmp	$6436 <__udivhi3+0xbc>
    63a8: a2 00        	ldx	#$0
    63aa: a4 04        	ldy	$4                      ; 0x4 <__rc2>
    63ac: 84 07        	sty	$7                      ; 0x7 <__rc5>
    63ae: a4 05        	ldy	$5                      ; 0x5 <__rc3>
    63b0: 84 08        	sty	$8                      ; 0x8 <__rc6>
    63b2: 06 07        	asl	$7                      ; 0x7 <__rc5>
    63b4: 26 08        	rol	$8                      ; 0x8 <__rc6>
    63b6: c5 08        	cmp	$8                      ; 0x8 <__rc6>
    63b8: d0 08        	bne	$63c2 <__udivhi3+0x48>
    63ba: a4 09        	ldy	$9                      ; 0x9 <__rc7>
    63bc: c4 07        	cpy	$7                      ; 0x7 <__rc5>
    63be: 90 13        	bcc	$63d3 <__udivhi3+0x59>
    63c0: 80 04        	bra	$63c6 <__udivhi3+0x4c>
    63c2: c5 08        	cmp	$8                      ; 0x8 <__rc6>
    63c4: 90 0d        	bcc	$63d3 <__udivhi3+0x59>
    63c6: e8           	inx
    63c7: a4 07        	ldy	$7                      ; 0x7 <__rc5>
    63c9: 84 04        	sty	$4                      ; 0x4 <__rc2>
    63cb: a4 08        	ldy	$8                      ; 0x8 <__rc6>
    63cd: 84 05        	sty	$5                      ; 0x5 <__rc3>
    63cf: 10 e1        	bpl	$63b2 <__udivhi3+0x38>
    63d1: 80 08        	bra	$63db <__udivhi3+0x61>
    63d3: a4 04        	ldy	$4                      ; 0x4 <__rc2>
    63d5: 84 07        	sty	$7                      ; 0x7 <__rc5>
    63d7: a4 05        	ldy	$5                      ; 0x5 <__rc3>
    63d9: 84 08        	sty	$8                      ; 0x8 <__rc6>
    63db: e0 00        	cpx	#$0
    63dd: d0 03        	bne	$63e2 <__udivhi3+0x68>
    63df: 4c 36 64     	jmp	$6436 <__udivhi3+0xbc>
    63e2: 38           	sec
    63e3: a8           	tay
    63e4: a5 09        	lda	$9                      ; 0x9 <__rc7>
    63e6: e5 07        	sbc	$7                      ; 0x7 <__rc5>
    63e8: 85 04        	sta	$4                      ; 0x4 <__rc2>
    63ea: 98           	tya
    63eb: e5 08        	sbc	$8                      ; 0x8 <__rc6>
    63ed: a0 01        	ldy	#$1
    63ef: 84 69        	sty	$69                     ; 0x69 <__zp_bss_size+0x28>
    63f1: 64 06        	stz	$6                      ; 0x6 <__zp_data_size>
    63f3: 46 08        	lsr	$8                      ; 0x8 <__rc6>
    63f5: 66 07        	ror	$7                      ; 0x7 <__rc5>
    63f7: a4 69        	ldy	$69                     ; 0x69 <__zp_bss_size+0x28>
    63f9: 84 05        	sty	$5                      ; 0x5 <__rc3>
    63fb: 06 05        	asl	$5                      ; 0x5 <__rc3>
    63fd: a0 01        	ldy	#$1
    63ff: b0 02        	bcs	$6403 <__udivhi3+0x89>
    6401: a0 00        	ldy	#$0
    6403: 84 09        	sty	$9                      ; 0x9 <__rc7>
    6405: a4 05        	ldy	$5                      ; 0x5 <__rc3>
    6407: 84 69        	sty	$69                     ; 0x69 <__zp_bss_size+0x28>
    6409: c5 08        	cmp	$8                      ; 0x8 <__rc6>
    640b: d0 23        	bne	$6430 <__udivhi3+0xb6>
    640d: a4 04        	ldy	$4                      ; 0x4 <__rc2>
    640f: c4 07        	cpy	$7                      ; 0x7 <__rc5>
    6411: 90 11        	bcc	$6424 <__udivhi3+0xaa>
    6413: a8           	tay
    6414: a5 69        	lda	$69                     ; 0x69 <__zp_bss_size+0x28>
    6416: 09 01        	ora	#$1
    6418: 85 69        	sta	$69                     ; 0x69 <__zp_bss_size+0x28>
    641a: 38           	sec
    641b: a5 04        	lda	$4                      ; 0x4 <__rc2>
    641d: e5 07        	sbc	$7                      ; 0x7 <__rc5>
    641f: 85 04        	sta	$4                      ; 0x4 <__rc2>
    6421: 98           	tya
    6422: e5 08        	sbc	$8                      ; 0x8 <__rc6>
    6424: a4 09        	ldy	$9                      ; 0x9 <__rc7>
    6426: c0 01        	cpy	#$1
    6428: 26 06        	rol	$6                      ; 0x6 <__zp_data_size>
    642a: ca           	dex
    642b: f0 09        	beq	$6436 <__udivhi3+0xbc>
    642d: 4c f3 63     	jmp	$63f3 <__udivhi3+0x79>
    6430: c5 08        	cmp	$8                      ; 0x8 <__rc6>
    6432: b0 df        	bcs	$6413 <__udivhi3+0x99>
    6434: 80 ee        	bra	$6424 <__udivhi3+0xaa>
    6436: a6 06        	ldx	$6                      ; 0x6 <__zp_data_size>
    6438: a5 69        	lda	$69                     ; 0x69 <__zp_bss_size+0x28>
    643a: 60           	rts

0000643b <__umodqi3>:
    643b: e0 00        	cpx	#$0
    643d: d0 03        	bne	$6442 <__umodqi3+0x7>
    643f: 4c 7f 64     	jmp	$647f <__umodqi3+0x44>
    6442: 86 05        	stx	$5                      ; 0x5 <__rc3>
    6444: c5 05        	cmp	$5                      ; 0x5 <__rc3>
    6446: b0 03        	bcs	$644b <__umodqi3+0x10>
    6448: 4c 7f 64     	jmp	$647f <__umodqi3+0x44>
    644b: a6 05        	ldx	$5                      ; 0x5 <__rc3>
    644d: 30 15        	bmi	$6464 <__umodqi3+0x29>
    644f: a2 00        	ldx	#$0
    6451: a4 05        	ldy	$5                      ; 0x5 <__rc3>
    6453: 84 04        	sty	$4                      ; 0x4 <__rc2>
    6455: 06 04        	asl	$4                      ; 0x4 <__rc2>
    6457: c5 04        	cmp	$4                      ; 0x4 <__rc2>
    6459: 90 0d        	bcc	$6468 <__umodqi3+0x2d>
    645b: e8           	inx
    645c: a4 04        	ldy	$4                      ; 0x4 <__rc2>
    645e: 84 05        	sty	$5                      ; 0x5 <__rc3>
    6460: 10 f3        	bpl	$6455 <__umodqi3+0x1a>
    6462: 80 08        	bra	$646c <__umodqi3+0x31>
    6464: 38           	sec
    6465: e5 05        	sbc	$5                      ; 0x5 <__rc3>
    6467: 60           	rts
    6468: a4 05        	ldy	$5                      ; 0x5 <__rc3>
    646a: 84 04        	sty	$4                      ; 0x4 <__rc2>
    646c: 38           	sec
    646d: e5 04        	sbc	$4                      ; 0x4 <__rc2>
    646f: e0 00        	cpx	#$0
    6471: f0 0c        	beq	$647f <__umodqi3+0x44>
    6473: 46 04        	lsr	$4                      ; 0x4 <__rc2>
    6475: c5 04        	cmp	$4                      ; 0x4 <__rc2>
    6477: 90 03        	bcc	$647c <__umodqi3+0x41>
    6479: 38           	sec
    647a: e5 04        	sbc	$4                      ; 0x4 <__rc2>
    647c: ca           	dex
    647d: d0 f4        	bne	$6473 <__umodqi3+0x38>
    647f: 60           	rts

00006480 <__udivmodqi4>:
    6480: a8           	tay
    6481: a9 00        	lda	#$0
    6483: e0 00        	cpx	#$0
    6485: f0 25        	beq	$64ac <__udivmodqi4+0x2c>
    6487: 86 07        	stx	$7                      ; 0x7 <__rc5>
    6489: 84 08        	sty	$8                      ; 0x8 <__rc6>
    648b: c4 07        	cpy	$7                      ; 0x7 <__rc5>
    648d: b0 03        	bcs	$6492 <__udivmodqi4+0x12>
    648f: 4c e9 64     	jmp	$64e9 <__udivmodqi4+0x69>
    6492: a5 07        	lda	$7                      ; 0x7 <__rc5>
    6494: 30 1b        	bmi	$64b1 <__udivmodqi4+0x31>
    6496: a2 00        	ldx	#$0
    6498: a5 07        	lda	$7                      ; 0x7 <__rc5>
    649a: 85 06        	sta	$6                      ; 0x6 <__zp_data_size>
    649c: 98           	tya
    649d: 06 06        	asl	$6                      ; 0x6 <__zp_data_size>
    649f: c5 06        	cmp	$6                      ; 0x6 <__zp_data_size>
    64a1: 90 17        	bcc	$64ba <__udivmodqi4+0x3a>
    64a3: e8           	inx
    64a4: a4 06        	ldy	$6                      ; 0x6 <__zp_data_size>
    64a6: 84 07        	sty	$7                      ; 0x7 <__rc5>
    64a8: 10 f3        	bpl	$649d <__udivmodqi4+0x1d>
    64aa: 80 12        	bra	$64be <__udivmodqi4+0x3e>
    64ac: 84 08        	sty	$8                      ; 0x8 <__rc6>
    64ae: 4c e9 64     	jmp	$64e9 <__udivmodqi4+0x69>
    64b1: 38           	sec
    64b2: 98           	tya
    64b3: e5 07        	sbc	$7                      ; 0x7 <__rc5>
    64b5: 85 08        	sta	$8                      ; 0x8 <__rc6>
    64b7: 4c e7 64     	jmp	$64e7 <__udivmodqi4+0x67>
    64ba: a4 07        	ldy	$7                      ; 0x7 <__rc5>
    64bc: 84 06        	sty	$6                      ; 0x6 <__zp_data_size>
    64be: 38           	sec
    64bf: e5 06        	sbc	$6                      ; 0x6 <__zp_data_size>
    64c1: 85 08        	sta	$8                      ; 0x8 <__rc6>
    64c3: 8a           	txa
    64c4: f0 21        	beq	$64e7 <__udivmodqi4+0x67>
    64c6: a9 01        	lda	#$1
    64c8: 46 06        	lsr	$6                      ; 0x6 <__zp_data_size>
    64ca: 0a           	asl
    64cb: a8           	tay
    64cc: a5 08        	lda	$8                      ; 0x8 <__rc6>
    64ce: c5 06        	cmp	$6                      ; 0x6 <__zp_data_size>
    64d0: 90 0d        	bcc	$64df <__udivmodqi4+0x5f>
    64d2: 85 07        	sta	$7                      ; 0x7 <__rc5>
    64d4: 98           	tya
    64d5: 09 01        	ora	#$1
    64d7: a8           	tay
    64d8: 38           	sec
    64d9: a5 07        	lda	$7                      ; 0x7 <__rc5>
    64db: e5 06        	sbc	$6                      ; 0x6 <__zp_data_size>
    64dd: 85 08        	sta	$8                      ; 0x8 <__rc6>
    64df: ca           	dex
    64e0: 98           	tya
    64e1: e0 00        	cpx	#$0
    64e3: d0 e3        	bne	$64c8 <__udivmodqi4+0x48>
    64e5: 80 02        	bra	$64e9 <__udivmodqi4+0x69>
    64e7: a9 01        	lda	#$1
    64e9: aa           	tax
    64ea: a5 08        	lda	$8                      ; 0x8 <__rc6>
    64ec: 92 04        	sta	($4),z                  ; 0x4 <__rc2>
    64ee: 8a           	txa
    64ef: 60           	rts

000064f0 <__udivmodhi4>:
    64f0: 86 0c        	stx	$c                      ; 0xc <__rc10>
    64f2: 64 08        	stz	$8                      ; 0x8 <__rc6>
    64f4: a4 05        	ldy	$5                      ; 0x5 <__rc3>
    64f6: d0 04        	bne	$64fc <__udivmodhi4+0xc>
    64f8: a4 04        	ldy	$4                      ; 0x4 <__rc2>
    64fa: f0 08        	beq	$6504 <__udivmodhi4+0x14>
    64fc: e4 05        	cpx	$5                      ; 0x5 <__rc3>
    64fe: d0 0d        	bne	$650d <__udivmodhi4+0x1d>
    6500: c5 04        	cmp	$4                      ; 0x4 <__rc2>
    6502: b0 0d        	bcs	$6511 <__udivmodhi4+0x21>
    6504: a6 0c        	ldx	$c                      ; 0xc <__rc10>
    6506: 86 04        	stx	$4                      ; 0x4 <__rc2>
    6508: a2 00        	ldx	#$0
    650a: 4c b6 65     	jmp	$65b6 <__udivmodhi4+0xc6>
    650d: e4 05        	cpx	$5                      ; 0x5 <__rc3>
    650f: 90 f3        	bcc	$6504 <__udivmodhi4+0x14>
    6511: a6 05        	ldx	$5                      ; 0x5 <__rc3>
    6513: 10 03        	bpl	$6518 <__udivmodhi4+0x28>
    6515: 4c a9 65     	jmp	$65a9 <__udivmodhi4+0xb9>
    6518: a2 00        	ldx	#$0
    651a: a4 04        	ldy	$4                      ; 0x4 <__rc2>
    651c: 84 09        	sty	$9                      ; 0x9 <__rc7>
    651e: a4 05        	ldy	$5                      ; 0x5 <__rc3>
    6520: 84 0a        	sty	$a                      ; 0xa <__rc8>
    6522: 06 09        	asl	$9                      ; 0x9 <__rc7>
    6524: 26 0a        	rol	$a                      ; 0xa <__rc8>
    6526: a4 0c        	ldy	$c                      ; 0xc <__rc10>
    6528: c4 0a        	cpy	$a                      ; 0xa <__rc8>
    652a: d0 06        	bne	$6532 <__udivmodhi4+0x42>
    652c: c5 09        	cmp	$9                      ; 0x9 <__rc7>
    652e: b0 08        	bcs	$6538 <__udivmodhi4+0x48>
    6530: 80 13        	bra	$6545 <__udivmodhi4+0x55>
    6532: a4 0c        	ldy	$c                      ; 0xc <__rc10>
    6534: c4 0a        	cpy	$a                      ; 0xa <__rc8>
    6536: 90 0d        	bcc	$6545 <__udivmodhi4+0x55>
    6538: e8           	inx
    6539: a4 09        	ldy	$9                      ; 0x9 <__rc7>
    653b: 84 04        	sty	$4                      ; 0x4 <__rc2>
    653d: a4 0a        	ldy	$a                      ; 0xa <__rc8>
    653f: 84 05        	sty	$5                      ; 0x5 <__rc3>
    6541: 10 df        	bpl	$6522 <__udivmodhi4+0x32>
    6543: 80 08        	bra	$654d <__udivmodhi4+0x5d>
    6545: a4 04        	ldy	$4                      ; 0x4 <__rc2>
    6547: 84 09        	sty	$9                      ; 0x9 <__rc7>
    6549: a4 05        	ldy	$5                      ; 0x5 <__rc3>
    654b: 84 0a        	sty	$a                      ; 0xa <__rc8>
    654d: 38           	sec
    654e: e5 09        	sbc	$9                      ; 0x9 <__rc7>
    6550: a8           	tay
    6551: a5 0c        	lda	$c                      ; 0xc <__rc10>
    6553: e5 0a        	sbc	$a                      ; 0xa <__rc8>
    6555: 85 04        	sta	$4                      ; 0x4 <__rc2>
    6557: 8a           	txa
    6558: d0 03        	bne	$655d <__udivmodhi4+0x6d>
    655a: 4c c5 65     	jmp	$65c5 <__udivmodhi4+0xd5>
    655d: a9 01        	lda	#$1
    655f: 85 8f        	sta	$8f                     ; 0x8f <__zp_bss_size+0x4e>
    6561: 64 08        	stz	$8                      ; 0x8 <__rc6>
    6563: 98           	tya
    6564: 46 0a        	lsr	$a                      ; 0xa <__rc8>
    6566: 66 09        	ror	$9                      ; 0x9 <__rc7>
    6568: a4 8f        	ldy	$8f                     ; 0x8f <__zp_bss_size+0x4e>
    656a: 84 05        	sty	$5                      ; 0x5 <__rc3>
    656c: 06 05        	asl	$5                      ; 0x5 <__rc3>
    656e: a0 01        	ldy	#$1
    6570: b0 02        	bcs	$6574 <__udivmodhi4+0x84>
    6572: a0 00        	ldy	#$0
    6574: 84 0b        	sty	$b                      ; 0xb <__rc9>
    6576: a4 05        	ldy	$5                      ; 0x5 <__rc3>
    6578: 84 8f        	sty	$8f                     ; 0x8f <__zp_bss_size+0x4e>
    657a: a4 04        	ldy	$4                      ; 0x4 <__rc2>
    657c: c4 0a        	cpy	$a                      ; 0xa <__rc8>
    657e: d0 23        	bne	$65a3 <__udivmodhi4+0xb3>
    6580: c5 09        	cmp	$9                      ; 0x9 <__rc7>
    6582: 90 13        	bcc	$6597 <__udivmodhi4+0xa7>
    6584: a8           	tay
    6585: a5 8f        	lda	$8f                     ; 0x8f <__zp_bss_size+0x4e>
    6587: 09 01        	ora	#$1
    6589: 85 8f        	sta	$8f                     ; 0x8f <__zp_bss_size+0x4e>
    658b: 38           	sec
    658c: 98           	tya
    658d: e5 09        	sbc	$9                      ; 0x9 <__rc7>
    658f: a8           	tay
    6590: a5 04        	lda	$4                      ; 0x4 <__rc2>
    6592: e5 0a        	sbc	$a                      ; 0xa <__rc8>
    6594: 85 04        	sta	$4                      ; 0x4 <__rc2>
    6596: 98           	tya
    6597: a4 0b        	ldy	$b                      ; 0xb <__rc9>
    6599: c0 01        	cpy	#$1
    659b: 26 08        	rol	$8                      ; 0x8 <__rc6>
    659d: ca           	dex
    659e: f0 18        	beq	$65b8 <__udivmodhi4+0xc8>
    65a0: 4c 64 65     	jmp	$6564 <__udivmodhi4+0x74>
    65a3: c4 0a        	cpy	$a                      ; 0xa <__rc8>
    65a5: b0 dd        	bcs	$6584 <__udivmodhi4+0x94>
    65a7: 80 ee        	bra	$6597 <__udivmodhi4+0xa7>
    65a9: 38           	sec
    65aa: e5 04        	sbc	$4                      ; 0x4 <__rc2>
    65ac: aa           	tax
    65ad: a5 0c        	lda	$c                      ; 0xc <__rc10>
    65af: e5 05        	sbc	$5                      ; 0x5 <__rc3>
    65b1: 85 04        	sta	$4                      ; 0x4 <__rc2>
    65b3: 8a           	txa
    65b4: a2 01        	ldx	#$1
    65b6: 86 8f        	stx	$8f                     ; 0x8f <__zp_bss_size+0x4e>
    65b8: 92 06        	sta	($6),z                  ; 0x6 <__zp_data_size>
    65ba: a0 01        	ldy	#$1
    65bc: a5 04        	lda	$4                      ; 0x4 <__rc2>
    65be: 91 06        	sta	($6),y                  ; 0x6 <__zp_data_size>
    65c0: a6 08        	ldx	$8                      ; 0x8 <__rc6>
    65c2: a5 8f        	lda	$8f                     ; 0x8f <__zp_bss_size+0x4e>
    65c4: 60           	rts
    65c5: a2 01        	ldx	#$1
    65c7: 86 8f        	stx	$8f                     ; 0x8f <__zp_bss_size+0x4e>
    65c9: 98           	tya
    65ca: 80 ec        	bra	$65b8 <__udivmodhi4+0xc8>

000065cc <memcpy>:
    65cc: a8           	tay
    65cd: 8a           	txa
    65ce: d0 03        	bne	$65d3 <memcpy+0x7>
    65d0: 98           	tya
    65d1: f0 24        	beq	$65f7 <memcpy+0x2b>
    65d3: a5 04        	lda	$4                      ; 0x4 <__rc2>
    65d5: 85 08        	sta	$8                      ; 0x8 <__rc6>
    65d7: a5 05        	lda	$5                      ; 0x5 <__rc3>
    65d9: 85 09        	sta	$9                      ; 0x9 <__rc7>
    65db: b2 06        	lda	($6),z                  ; 0x6 <__zp_data_size>
    65dd: 92 08        	sta	($8),z                  ; 0x8 <__rc6>
    65df: e6 08        	inc	$8                      ; 0x8 <__rc6>
    65e1: d0 02        	bne	$65e5 <memcpy+0x19>
    65e3: e6 09        	inc	$9                      ; 0x9 <__rc7>
    65e5: e6 06        	inc	$6                      ; 0x6 <__zp_data_size>
    65e7: d0 02        	bne	$65eb <memcpy+0x1f>
    65e9: e6 07        	inc	$7                      ; 0x7 <__rc5>
    65eb: 88           	dey
    65ec: c0 ff        	cpy	#$ff
    65ee: d0 01        	bne	$65f1 <memcpy+0x25>
    65f0: ca           	dex
    65f1: 8a           	txa
    65f2: d0 e7        	bne	$65db <memcpy+0xf>
    65f4: 98           	tya
    65f5: d0 e4        	bne	$65db <memcpy+0xf>
    65f7: 60           	rts

000065f8 <__memset>:
    65f8: a4 06        	ldy	$6                      ; 0x6 <__zp_data_size>
    65fa: d0 04        	bne	$6600 <__memset+0x8>
    65fc: e0 00        	cpx	#$0
    65fe: f0 17        	beq	$6617 <__memset+0x1f>
    6600: 92 04        	sta	($4),z                  ; 0x4 <__rc2>
    6602: e6 04        	inc	$4                      ; 0x4 <__rc2>
    6604: d0 02        	bne	$6608 <__memset+0x10>
    6606: e6 05        	inc	$5                      ; 0x5 <__rc3>
    6608: ca           	dex
    6609: e0 ff        	cpx	#$ff
    660b: d0 02        	bne	$660f <__memset+0x17>
    660d: c6 06        	dec	$6                      ; 0x6 <__zp_data_size>
    660f: a4 06        	ldy	$6                      ; 0x6 <__zp_data_size>
    6611: d0 ed        	bne	$6600 <__memset+0x8>
    6613: e0 00        	cpx	#$0
    6615: d0 e9        	bne	$6600 <__memset+0x8>
    6617: 60           	rts

00006618 <__udivmodsi4>:
    6618: da           	phx
    6619: 7a           	ply
    661a: a6 04        	ldx	$4                      ; 0x4 <__rc2>
    661c: 86 11        	stx	$11                     ; 0x11 <__rc15>
    661e: a6 05        	ldx	$5                      ; 0x5 <__rc3>
    6620: 64 0c        	stz	$c                      ; 0xc <__rc10>
    6622: e6 09        	inc	$9                      ; 0x9 <__rc7>
    6624: c6 09        	dec	$9                      ; 0x9 <__rc7>
    6626: d0 15        	bne	$663d <__udivmodsi4+0x25>
    6628: e6 08        	inc	$8                      ; 0x8 <__rc6>
    662a: c6 08        	dec	$8                      ; 0x8 <__rc6>
    662c: d0 0f        	bne	$663d <__udivmodsi4+0x25>
    662e: e6 07        	inc	$7                      ; 0x7 <__rc5>
    6630: c6 07        	dec	$7                      ; 0x7 <__rc5>
    6632: d0 09        	bne	$663d <__udivmodsi4+0x25>
    6634: e6 06        	inc	$6                      ; 0x6 <__zp_data_size>
    6636: c6 06        	dec	$6                      ; 0x6 <__zp_data_size>
    6638: d0 03        	bne	$663d <__udivmodsi4+0x25>
    663a: 4c cd 67     	jmp	$67cd <__udivmodsi4+0x1b5>
    663d: 84 05        	sty	$5                      ; 0x5 <__rc3>
    663f: 86 04        	stx	$4                      ; 0x4 <__rc2>
    6641: e4 09        	cpx	$9                      ; 0x9 <__rc7>
    6643: d0 15        	bne	$665a <__udivmodsi4+0x42>
    6645: a6 11        	ldx	$11                     ; 0x11 <__rc15>
    6647: e4 08        	cpx	$8                      ; 0x8 <__rc6>
    6649: d0 1e        	bne	$6669 <__udivmodsi4+0x51>
    664b: a6 05        	ldx	$5                      ; 0x5 <__rc3>
    664d: e4 07        	cpx	$7                      ; 0x7 <__rc5>
    664f: f0 03        	beq	$6654 <__udivmodsi4+0x3c>
    6651: 4c b5 67     	jmp	$67b5 <__udivmodsi4+0x19d>
    6654: c5 06        	cmp	$6                      ; 0x6 <__zp_data_size>
    6656: 90 06        	bcc	$665e <__udivmodsi4+0x46>
    6658: 80 13        	bra	$666d <__udivmodsi4+0x55>
    665a: e4 09        	cpx	$9                      ; 0x9 <__rc7>
    665c: b0 0f        	bcs	$666d <__udivmodsi4+0x55>
    665e: 84 07        	sty	$7                      ; 0x7 <__rc5>
    6660: a6 04        	ldx	$4                      ; 0x4 <__rc2>
    6662: 86 06        	stx	$6                      ; 0x6 <__zp_data_size>
    6664: a2 00        	ldx	#$0
    6666: 4c 98 67     	jmp	$6798 <__udivmodsi4+0x180>
    6669: e4 08        	cpx	$8                      ; 0x8 <__rc6>
    666b: 90 f1        	bcc	$665e <__udivmodsi4+0x46>
    666d: a6 09        	ldx	$9                      ; 0x9 <__rc7>
    666f: 10 03        	bpl	$6674 <__udivmodsi4+0x5c>
    6671: 4c 80 67     	jmp	$6780 <__udivmodsi4+0x168>
    6674: a2 00        	ldx	#$0
    6676: a4 06        	ldy	$6                      ; 0x6 <__zp_data_size>
    6678: 84 0d        	sty	$d                      ; 0xd <__rc11>
    667a: a4 07        	ldy	$7                      ; 0x7 <__rc5>
    667c: 84 0e        	sty	$e                      ; 0xe <__rc12>
    667e: a4 08        	ldy	$8                      ; 0x8 <__rc6>
    6680: 84 0f        	sty	$f                      ; 0xf <__rc13>
    6682: a4 09        	ldy	$9                      ; 0x9 <__rc7>
    6684: 84 10        	sty	$10                     ; 0x10 <__rc14>
    6686: 06 0d        	asl	$d                      ; 0xd <__rc11>
    6688: 26 0e        	rol	$e                      ; 0xe <__rc12>
    668a: 26 0f        	rol	$f                      ; 0xf <__rc13>
    668c: 26 10        	rol	$10                     ; 0x10 <__rc14>
    668e: a4 04        	ldy	$4                      ; 0x4 <__rc2>
    6690: c4 10        	cpy	$10                     ; 0x10 <__rc14>
    6692: d0 12        	bne	$66a6 <__udivmodsi4+0x8e>
    6694: a4 11        	ldy	$11                     ; 0x11 <__rc15>
    6696: c4 0f        	cpy	$f                      ; 0xf <__rc13>
    6698: d0 12        	bne	$66ac <__udivmodsi4+0x94>
    669a: a4 05        	ldy	$5                      ; 0x5 <__rc3>
    669c: c4 0e        	cpy	$e                      ; 0xe <__rc12>
    669e: d0 12        	bne	$66b2 <__udivmodsi4+0x9a>
    66a0: c5 0d        	cmp	$d                      ; 0xd <__rc11>
    66a2: 90 28        	bcc	$66cc <__udivmodsi4+0xb4>
    66a4: 80 10        	bra	$66b6 <__udivmodsi4+0x9e>
    66a6: c4 10        	cpy	$10                     ; 0x10 <__rc14>
    66a8: b0 0c        	bcs	$66b6 <__udivmodsi4+0x9e>
    66aa: 80 20        	bra	$66cc <__udivmodsi4+0xb4>
    66ac: c4 0f        	cpy	$f                      ; 0xf <__rc13>
    66ae: 90 1c        	bcc	$66cc <__udivmodsi4+0xb4>
    66b0: 80 04        	bra	$66b6 <__udivmodsi4+0x9e>
    66b2: c4 0e        	cpy	$e                      ; 0xe <__rc12>
    66b4: 90 16        	bcc	$66cc <__udivmodsi4+0xb4>
    66b6: e8           	inx
    66b7: a4 0d        	ldy	$d                      ; 0xd <__rc11>
    66b9: 84 06        	sty	$6                      ; 0x6 <__zp_data_size>
    66bb: a4 0e        	ldy	$e                      ; 0xe <__rc12>
    66bd: 84 07        	sty	$7                      ; 0x7 <__rc5>
    66bf: a4 0f        	ldy	$f                      ; 0xf <__rc13>
    66c1: 84 08        	sty	$8                      ; 0x8 <__rc6>
    66c3: a4 10        	ldy	$10                     ; 0x10 <__rc14>
    66c5: 84 09        	sty	$9                      ; 0x9 <__rc7>
    66c7: 30 13        	bmi	$66dc <__udivmodsi4+0xc4>
    66c9: 4c 86 66     	jmp	$6686 <__udivmodsi4+0x6e>
    66cc: a4 06        	ldy	$6                      ; 0x6 <__zp_data_size>
    66ce: 84 0d        	sty	$d                      ; 0xd <__rc11>
    66d0: a4 07        	ldy	$7                      ; 0x7 <__rc5>
    66d2: 84 0e        	sty	$e                      ; 0xe <__rc12>
    66d4: a4 08        	ldy	$8                      ; 0x8 <__rc6>
    66d6: 84 0f        	sty	$f                      ; 0xf <__rc13>
    66d8: a4 09        	ldy	$9                      ; 0x9 <__rc7>
    66da: 84 10        	sty	$10                     ; 0x10 <__rc14>
    66dc: 38           	sec
    66dd: e5 0d        	sbc	$d                      ; 0xd <__rc11>
    66df: 85 08        	sta	$8                      ; 0x8 <__rc6>
    66e1: a5 05        	lda	$5                      ; 0x5 <__rc3>
    66e3: e5 0e        	sbc	$e                      ; 0xe <__rc12>
    66e5: 85 07        	sta	$7                      ; 0x7 <__rc5>
    66e7: a5 11        	lda	$11                     ; 0x11 <__rc15>
    66e9: e5 0f        	sbc	$f                      ; 0xf <__rc13>
    66eb: a8           	tay
    66ec: a5 04        	lda	$4                      ; 0x4 <__rc2>
    66ee: e5 10        	sbc	$10                     ; 0x10 <__rc14>
    66f0: 85 06        	sta	$6                      ; 0x6 <__zp_data_size>
    66f2: 8a           	txa
    66f3: d0 03        	bne	$66f8 <__udivmodsi4+0xe0>
    66f5: 4c bf 67     	jmp	$67bf <__udivmodsi4+0x1a7>
    66f8: a9 01        	lda	#$1
    66fa: 85 86        	sta	$86                     ; 0x86 <__zp_bss_size+0x45>
    66fc: 64 0c        	stz	$c                      ; 0xc <__rc10>
    66fe: 64 04        	stz	$4                      ; 0x4 <__rc2>
    6700: 64 05        	stz	$5                      ; 0x5 <__rc3>
    6702: 84 11        	sty	$11                     ; 0x11 <__rc15>
    6704: a5 08        	lda	$8                      ; 0x8 <__rc6>
    6706: 46 10        	lsr	$10                     ; 0x10 <__rc14>
    6708: 66 0f        	ror	$f                      ; 0xf <__rc13>
    670a: 66 0e        	ror	$e                      ; 0xe <__rc12>
    670c: 66 0d        	ror	$d                      ; 0xd <__rc11>
    670e: a4 86        	ldy	$86                     ; 0x86 <__zp_bss_size+0x45>
    6710: 84 08        	sty	$8                      ; 0x8 <__rc6>
    6712: 06 08        	asl	$8                      ; 0x8 <__rc6>
    6714: a0 01        	ldy	#$1
    6716: b0 02        	bcs	$671a <__udivmodsi4+0x102>
    6718: a0 00        	ldy	#$0
    671a: 84 09        	sty	$9                      ; 0x9 <__rc7>
    671c: a4 08        	ldy	$8                      ; 0x8 <__rc6>
    671e: 84 86        	sty	$86                     ; 0x86 <__zp_bss_size+0x45>
    6720: a4 06        	ldy	$6                      ; 0x6 <__zp_data_size>
    6722: c4 10        	cpy	$10                     ; 0x10 <__rc14>
    6724: d0 18        	bne	$673e <__udivmodsi4+0x126>
    6726: a4 11        	ldy	$11                     ; 0x11 <__rc15>
    6728: c4 0f        	cpy	$f                      ; 0xf <__rc13>
    672a: f0 03        	beq	$672f <__udivmodsi4+0x117>
    672c: 4c 72 67     	jmp	$6772 <__udivmodsi4+0x15a>
    672f: a4 07        	ldy	$7                      ; 0x7 <__rc5>
    6731: c4 0e        	cpy	$e                      ; 0xe <__rc12>
    6733: f0 03        	beq	$6738 <__udivmodsi4+0x120>
    6735: 4c 79 67     	jmp	$6779 <__udivmodsi4+0x161>
    6738: c5 0d        	cmp	$d                      ; 0xd <__rc11>
    673a: b0 06        	bcs	$6742 <__udivmodsi4+0x12a>
    673c: 80 24        	bra	$6762 <__udivmodsi4+0x14a>
    673e: c4 10        	cpy	$10                     ; 0x10 <__rc14>
    6740: 90 20        	bcc	$6762 <__udivmodsi4+0x14a>
    6742: 38           	sec
    6743: e5 0d        	sbc	$d                      ; 0xd <__rc11>
    6745: 85 08        	sta	$8                      ; 0x8 <__rc6>
    6747: a5 07        	lda	$7                      ; 0x7 <__rc5>
    6749: e5 0e        	sbc	$e                      ; 0xe <__rc12>
    674b: 85 07        	sta	$7                      ; 0x7 <__rc5>
    674d: a5 11        	lda	$11                     ; 0x11 <__rc15>
    674f: e5 0f        	sbc	$f                      ; 0xf <__rc13>
    6751: a8           	tay
    6752: a5 06        	lda	$6                      ; 0x6 <__zp_data_size>
    6754: e5 10        	sbc	$10                     ; 0x10 <__rc14>
    6756: 85 06        	sta	$6                      ; 0x6 <__zp_data_size>
    6758: 84 11        	sty	$11                     ; 0x11 <__rc15>
    675a: a5 86        	lda	$86                     ; 0x86 <__zp_bss_size+0x45>
    675c: 09 01        	ora	#$1
    675e: 85 86        	sta	$86                     ; 0x86 <__zp_bss_size+0x45>
    6760: a5 08        	lda	$8                      ; 0x8 <__rc6>
    6762: a4 09        	ldy	$9                      ; 0x9 <__rc7>
    6764: c0 01        	cpy	#$1
    6766: 26 0c        	rol	$c                      ; 0xc <__rc10>
    6768: 26 04        	rol	$4                      ; 0x4 <__rc2>
    676a: 26 05        	rol	$5                      ; 0x5 <__rc3>
    676c: ca           	dex
    676d: f0 2f        	beq	$679e <__udivmodsi4+0x186>
    676f: 4c 06 67     	jmp	$6706 <__udivmodsi4+0xee>
    6772: c4 0f        	cpy	$f                      ; 0xf <__rc13>
    6774: 90 ec        	bcc	$6762 <__udivmodsi4+0x14a>
    6776: 4c 42 67     	jmp	$6742 <__udivmodsi4+0x12a>
    6779: c4 0e        	cpy	$e                      ; 0xe <__rc12>
    677b: 90 e5        	bcc	$6762 <__udivmodsi4+0x14a>
    677d: 4c 42 67     	jmp	$6742 <__udivmodsi4+0x12a>
    6780: 38           	sec
    6781: e5 06        	sbc	$6                      ; 0x6 <__zp_data_size>
    6783: aa           	tax
    6784: 98           	tya
    6785: e5 07        	sbc	$7                      ; 0x7 <__rc5>
    6787: 85 07        	sta	$7                      ; 0x7 <__rc5>
    6789: a5 11        	lda	$11                     ; 0x11 <__rc15>
    678b: e5 08        	sbc	$8                      ; 0x8 <__rc6>
    678d: 85 11        	sta	$11                     ; 0x11 <__rc15>
    678f: a5 04        	lda	$4                      ; 0x4 <__rc2>
    6791: e5 09        	sbc	$9                      ; 0x9 <__rc7>
    6793: 85 06        	sta	$6                      ; 0x6 <__zp_data_size>
    6795: 8a           	txa
    6796: a2 01        	ldx	#$1
    6798: 86 86        	stx	$86                     ; 0x86 <__zp_bss_size+0x45>
    679a: 64 04        	stz	$4                      ; 0x4 <__rc2>
    679c: 64 05        	stz	$5                      ; 0x5 <__rc3>
    679e: 92 0a        	sta	($a),z                  ; 0xa <__rc8>
    67a0: a0 01        	ldy	#$1
    67a2: a5 07        	lda	$7                      ; 0x7 <__rc5>
    67a4: 91 0a        	sta	($a),y                  ; 0xa <__rc8>
    67a6: c8           	iny
    67a7: a5 11        	lda	$11                     ; 0x11 <__rc15>
    67a9: 91 0a        	sta	($a),y                  ; 0xa <__rc8>
    67ab: c8           	iny
    67ac: a5 06        	lda	$6                      ; 0x6 <__zp_data_size>
    67ae: 91 0a        	sta	($a),y                  ; 0xa <__rc8>
    67b0: a6 0c        	ldx	$c                      ; 0xc <__rc10>
    67b2: a5 86        	lda	$86                     ; 0x86 <__zp_bss_size+0x45>
    67b4: 60           	rts
    67b5: e4 07        	cpx	$7                      ; 0x7 <__rc5>
    67b7: b0 03        	bcs	$67bc <__udivmodsi4+0x1a4>
    67b9: 4c 5e 66     	jmp	$665e <__udivmodsi4+0x46>
    67bc: 4c 6d 66     	jmp	$666d <__udivmodsi4+0x55>
    67bf: a2 01        	ldx	#$1
    67c1: 86 86        	stx	$86                     ; 0x86 <__zp_bss_size+0x45>
    67c3: 64 04        	stz	$4                      ; 0x4 <__rc2>
    67c5: 64 05        	stz	$5                      ; 0x5 <__rc3>
    67c7: 84 11        	sty	$11                     ; 0x11 <__rc15>
    67c9: a5 08        	lda	$8                      ; 0x8 <__rc6>
    67cb: 80 d1        	bra	$679e <__udivmodsi4+0x186>
    67cd: 84 07        	sty	$7                      ; 0x7 <__rc5>
    67cf: 4c 62 66     	jmp	$6662 <__udivmodsi4+0x4a>
