
midnightmega.prg.elf:	file format elf32-mos

SYMBOL TABLE:
00002056 l       .text	00000000 fourbytes
0000205a l       .text	00000000 lpstore
00002075 l       .text	00000000 lprestore
00002015 l       .basic_header	00000000 next_line
0000fff0 l       *ABS*	00000000 PLOT
00000000 l    df *ABS*	00000000 zero-bss.c
00000000 l    df *ABS*	00000000 zero-zp-bss.c
00000000 l    df *ABS*	00000000 copy-zp-data.c
00000000 l    df *ABS*	00000000 ld-temp.o
0000d640 l       *ABS*	00000000 HTRAP00
0000d67f l       *ABS*	00000000 HTRAP3F
00002040 l       .text	00000000 shift
00000031 l     O .zp.bss	00000001 g_curScreenW
00000032 l     O .zp.bss	00000001 g_curScreenH
00007d1c l     O .bss	000002fd escapeCode
000067bb l     F .text	00000001 escNOP
0000002b l     O .zp.data	00000001 g_curTextColor
000056f8 l     F .text	0000005e clrhome
00005764 l     F .text	00000016 mcputsxy
00005756 l     F .text	0000000e msprintf
00005b5d l     F .text	00000388 shortcuts
00005905 l     F .text	00000157 messagebox
00000030 l     O .zp.bss	00000001 option.0
00000027 l     O .zp.data	00000004 midnight
00005a5c l     F .text	000000c0 progress
00005f84 l     F .text	00000664 UpdateSectors
000065e8 l     F .text	00000046 Deselect
0000002e l     O .zp.bss	00000001 lasttrack
00007bda l     O .bss	000000e0 direntflags
0000577a l     F .text	0000018b mcbox
00007cba l     O .bss	00000022 disknames
000067bc l     F .text	00000009 cputc
00000033 l     O .zp.bss	00000001 g_curX
000055e1 l     F .text	000000c6 csputdec
00006775 l     F .text	00000046 sidbong
000054eb l     F .text	000000e2 getdirententry
00007b8a l     O .bss	00000050 s
0000686d l     F .text	000000db cputsxy
00000034 l     O .zp.bss	00000001 g_curY
00006bb4 l     F .text	0000000b __ashlqi3
00005ee5 l     F .text	0000009f optionstring
000069f2 l     F .text	00000009 cgetc
000048f3 l     F .text	00000030 hyppo_setname
00002b83 l       .text	00000000 errhypfindfirst0
00002b85 l       .text	00000000 donehypfindfirst0
00002ba4 l       .text	00000000 errhypopenfile1
00002ba6 l       .text	00000000 donehypopenfile1
00002bd0 l       .text	00000000 errhypreadfile2
00002bd4 l       .text	00000000 donehypreadfile2
00002bf3 l       .text	00000000 errhypclosefile3
00002bf7 l       .text	00000000 donehypclosefile3
00006a89 l     F .text	00000050 lfill
00006a22 l     F .text	00000067 lcopy
00006866 l     F .text	00000007 cputs
0000545f l     F .text	0000008c tracksectorstring
00004ca0 l     F .text	00000084 PutWholeSector
000051a6 l     F .text	000001a0 isallocatedBAMtracksector
00004e0a l     F .text	0000009a readblockchain
00004d75 l     F .text	00000039 GetBAM
00005346 l     F .text	00000119 findnextBAMtracksector
00004d24 l     F .text	00000051 PutOneSector
00004dae l     F .text	0000005c PutBAM
00003b4d l       .text	00000000 errhypfindfirst4
00003b4f l       .text	00000000 donehypfindfirst4
0000662e l     F .text	00000147 sizeselectcurrentifnone
00004c5d l     F .text	00000043 GetOneSector
00004ea4 l     F .text	00000302 BAMSectorUpdate
00006c04 l     F .text	000000c1 __udivhi3
00004aec l     F .text	000000d2 ReadSector
00007cdc l     O .bss	00000040 lfnname
00006ad9 l     F .text	0000005c usleep
000043ad l       .text	00000000 errhyprmfile5
000043b1 l       .text	00000000 donehyprmfile5
000045cb l       .text	00000000 errhypchdir6
000045cf l       .text	00000000 donehypchdir6
00004631 l       .text	00000000 errhypd81dosattach7
00004635 l       .text	00000000 donehypd81dosattach7
00004692 l       .text	00000000 errhypd81dosattach8
00004696 l       .text	00000000 donehypd81dosattach8
000046c3 l       .text	00000000 errhypchdir9
000046c7 l       .text	00000000 donehypchdir9
0000002c l     O .zp.bss	00000001 fnamehi.2
00006b3a l     F .text	0000003e strcpy
0000491d l       .text	00000000 errhypsetnam10
00004921 l       .text	00000000 donehypsetnam10
00004923 l     F .text	00000063 getsfn
00004986 l     F .text	00000166 ShowAccess
00006bd2 l     F .text	00000032 __mulhi3
00006d0a l     F .text	00000070 __udivmodqi4
0000002d l     O .zp.bss	00000001 lastdrive
0000002f l     O .zp.bss	00000001 lastdoublesector
00006cc5 l     F .text	00000045 __umodqi3
00004bbe l     F .text	0000009f WriteSector
00006bbf l     F .text	00000013 __ashlhi3
00007b01 l     O .rodata	00000004 BAMsector
000055cd l     F .text	00000014 strcopy
00006e56 l     F .text	000001ba __udivmodsi4
000056a7 l     F .text	00000051 asciitoscreencode_s
00006948 l     F .text	000000aa fillrect
000067c5 l     F .text	000000a1 cputcxy
00007b59 l     O .rodata	00000010 hexDigits
00005b1c l     F .text	00000041 shortcutprint
00006080 l       .text	00000000 errgetproc11
00006084 l       .text	00000000 donegetproc11
000061bd l       .text	00000000 errgetcurdrv12
000061c1 l       .text	00000000 donegetcurdrv12
000061da l       .text	00000000 errhypopendir13
000061de l       .text	00000000 donehypopendir13
00006284 l       .text	00000000 hypreaddirloop14
0000629c l       .text	00000000 errhypreaddir14
0000629e l       .text	00000000 donehypreaddir14
00007b69 l     O .bss	00000021 direntryblock2
00006562 l       .text	00000000 errhypclosedir15
00006564 l       .text	00000000 donehypclosedir15
00006b78 l     F .text	0000003c strlen
00006d7a l     F .text	000000dc __udivmodhi4
000069fb l     F .text	00000027 do_dma
00000035 l     O .zp.bss	00000014 dmalist
0000210c g     F .text	000027e7 main
00002090 g       .text	00000000 lpoke
000020b1 g       .text	00000000 lpeek
00000007 g       *ABS*	00000000 __rc5
00000008 g       *ABS*	00000000 __rc6
00000009 g       *ABS*	00000000 __rc7
0000000a g       *ABS*	00000000 __rc8
00000004 g       *ABS*	00000000 __rc2
00000005 g       *ABS*	00000000 __rc3
00000006 g       *ABS*	00000000 __rc4
00002048 g       .text	00000000 __after_main
0000203d g       .text	00000000 __do_copy_zp_data
000020f5 g     F .text	00000017 __copy_zp_data
00002037 g       .text	00000000 __do_zero_bss
000020cf g     F .text	00000013 __zero_bss
0000203a g       .text	00000000 __do_zero_zp_bss
000020e2 g     F .text	00000013 __zero_zp_bss
0000202f g       .text	00000000 __do_init_stack
00006b35 g     F .text	00000005 exit
0000204b g       .text	00000000 _fini
0000ff81  w      *ABS*	00000000 CINT
0000ff84  w      *ABS*	00000000 IOINIT
0000ff87  w      *ABS*	00000000 RAMTAS
0000ff8a  w      *ABS*	00000000 RESTOR
0000ff8d  w      *ABS*	00000000 VECTOR
0000ff90  w      *ABS*	00000000 SETMSG
0000ff93  w      *ABS*	00000000 SECOND
0000ff96  w      *ABS*	00000000 TKSA
0000ff99  w      *ABS*	00000000 MEMTOP
0000ff9c  w      *ABS*	00000000 MEMBOT
0000ff9f  w      *ABS*	00000000 SCNKEY
0000ffa2  w      *ABS*	00000000 SETTMO
0000ffa5  w      *ABS*	00000000 ACPTR
0000ffa8  w      *ABS*	00000000 CIOUT
0000ffab  w      *ABS*	00000000 UNTLK
0000ffae  w      *ABS*	00000000 UNLSN
0000ffb1  w      *ABS*	00000000 LISTEN
0000ffb4  w      *ABS*	00000000 TALK
0000ffb7  w      *ABS*	00000000 READST
0000ffba  w      *ABS*	00000000 SETLFS
0000ffbd  w      *ABS*	00000000 SETNAM
0000ffc0  w      *ABS*	00000000 OPEN
0000ffc3  w      *ABS*	00000000 CLOSE
0000ffc6  w      *ABS*	00000000 CHKIN
0000ffc9  w      *ABS*	00000000 CKOUT
0000ffc9  w      *ABS*	00000000 CHKOUT
0000ffcc  w      *ABS*	00000000 CLRCH
0000ffcc  w      *ABS*	00000000 CLRCHN
0000ffcf  w      *ABS*	00000000 BASIN
0000ffcf  w      *ABS*	00000000 CHRIN
0000ffd2  w      *ABS*	00000000 BSOUT
0000ffd2  w      *ABS*	00000000 CHROUT
0000ffd5  w      *ABS*	00000000 LOAD
0000ffd8  w      *ABS*	00000000 SAVE
0000ffdb  w      *ABS*	00000000 SETTIM
0000ffde  w      *ABS*	00000000 RDTIM
0000ffe1  w      *ABS*	00000000 STOP
0000ffe4  w      *ABS*	00000000 GETIN
0000ffe7  w      *ABS*	00000000 CLALL
0000ffea  w      *ABS*	00000000 UDTIM
0000ffed  w      *ABS*	00000000 SCREEN
0000fff3  w      *ABS*	00000000 IOBASE
0000ffc6 g       *ABS*	00000000 __CHKIN
0000ffc9 g       *ABS*	00000000 __CKOUT
0000ffc9 g       *ABS*	00000000 __CHKOUT
0000ffcc g       *ABS*	00000000 __CLRCH
0000ffcc g       *ABS*	00000000 __CLRCHN
0000ffcf g       *ABS*	00000000 __BASIN
0000ffcf g       *ABS*	00000000 __CHRIN
0000ffd2 g       *ABS*	00000000 __BSOUT
0000ffd2 g       *ABS*	00000000 __CHROUT
0000ffe1 g       *ABS*	00000000 __STOP
0000ffe4 g       *ABS*	00000000 __GETIN
0000ffe7 g       *ABS*	00000000 __CLALL
0000ffea g       *ABS*	00000000 __UDTIM
0000ff81 g       *ABS*	00000000 __CINT
0000ff84 g       *ABS*	00000000 __IOINIT
0000ff87 g       *ABS*	00000000 __RAMTAS
0000ff8a g       *ABS*	00000000 __RESTOR
0000ff8d g       *ABS*	00000000 __VECTOR
0000ff90 g       *ABS*	00000000 __SETMSG
0000ff93 g       *ABS*	00000000 __SECOND
0000ff96 g       *ABS*	00000000 __TKSA
0000ff99 g       *ABS*	00000000 __MEMTOP
0000ff9c g       *ABS*	00000000 __MEMBOT
0000ff9f g       *ABS*	00000000 __SCNKEY
0000ffa2 g       *ABS*	00000000 __SETTMO
0000ffa5 g       *ABS*	00000000 __ACPTR
0000ffa8 g       *ABS*	00000000 __CIOUT
0000ffab g       *ABS*	00000000 __UNTLK
0000ffae g       *ABS*	00000000 __UNLSN
0000ffb1 g       *ABS*	00000000 __LISTEN
0000ffb4 g       *ABS*	00000000 __TALK
0000ffb7 g       *ABS*	00000000 __READST
0000ffba g       *ABS*	00000000 __SETLFS
0000ffbd g       *ABS*	00000000 __SETNAM
0000ffc0 g       *ABS*	00000000 __OPEN
0000ffc3 g       *ABS*	00000000 __CLOSE
0000ffd5 g       *ABS*	00000000 __LOAD
0000ffd8 g       *ABS*	00000000 __SAVE
0000ffdb g       *ABS*	00000000 __SETTIM
0000ffde g       *ABS*	00000000 __RDTIM
0000ffed g       *ABS*	00000000 __SCREEN
0000fff3 g       *ABS*	00000000 __IOBASE
00001000  w      *ABS*	00000000 __heap_default_limit
00007010  w    F .text	0000002c memcpy
0000703c  w    F .text	00000020 __memset
00002021 g       .text	00000000 _start
00000002 g       *ABS*	00000000 __basic_zp_start
00000002 g       *ABS*	00000000 __rc0
0000000c g       *ABS*	00000000 __rc10
0000000e g       *ABS*	00000000 __rc12
00000010 g       *ABS*	00000000 __rc14
00000012 g       *ABS*	00000000 __rc16
00000014 g       *ABS*	00000000 __rc18
00000016 g       *ABS*	00000000 __rc20
00000018 g       *ABS*	00000000 __rc22
0000001a g       *ABS*	00000000 __rc24
0000001c g       *ABS*	00000000 __rc26
0000001e g       *ABS*	00000000 __rc28
00000020 g       *ABS*	00000000 __rc30
00000021 g       *ABS*	00000000 __rc31
00000090 g       *ABS*	00000000 __basic_zp_end
0000001f g       *ABS*	00000000 __rc29
0000001d g       *ABS*	00000000 __rc27
0000001b g       *ABS*	00000000 __rc25
00000019 g       *ABS*	00000000 __rc23
00000017 g       *ABS*	00000000 __rc21
00000015 g       *ABS*	00000000 __rc19
00000013 g       *ABS*	00000000 __rc17
00000011 g       *ABS*	00000000 __rc15
0000000f g       *ABS*	00000000 __rc13
0000000d g       *ABS*	00000000 __rc11
0000000b g       *ABS*	00000000 __rc9
00000003 g       *ABS*	00000000 __rc1
0000801a g       .noinit	00000000 __heap_start
00000022 g       .zp.data	00000000 __zp_data_start
00002017 g       *ABS*	00000000 __zp_data_load_start
0000000a g       *ABS*	00000000 __zp_data_size
0000002c g       .zp.bss	00000000 __zp_bss_start
0000001d g       *ABS*	00000000 __zp_bss_size
00002021 g       .text	00000000 _init
0000705c g       .text	00000000 __init_array_start
0000705c g       .text	00000000 __init_array_end
0000705c g       .text	00000000 __fini_array_start
0000705c g       .text	00000000 __fini_array_end
00007b69 g       .data	00000000 __data_start
00007b69 g       .data	00000000 __data_end
00007b69 g       *ABS*	00000000 __data_load_start
00000000 g       *ABS*	00000000 __data_size
00007b69 g       .bss	00000000 __bss_start
00008019 g       .bss	00000000 __bss_end
000004b0 g       *ABS*	00000000 __bss_size
0000d000 g       *ABS*	00000000 __stack

Disassembly of section .text:

00002021 <_start>:
    2021: 78           	sei
    2022: a2 2f        	ldx	#$2f
    2024: 86 00        	stx	$0                      ; 0x2000 <__heap_default_limit+0x1000>
    2026: a2 3e        	ldx	#$3e
    2028: 86 01        	stx	$1                      ; 0x2001 <__heap_default_limit+0x1001>
    202a: a2 44        	ldx	#$44
    202c: 8e 30 d0     	stx	$d030                   ; 0xd030 <__heap_start+0x5016>

0000202f <__do_init_stack>:
    202f: a9 00        	lda	#$0
    2031: 85 02        	sta	$2                      ; 0x2002 <__heap_default_limit+0x1002>
    2033: a9 d0        	lda	#$d0
    2035: 85 03        	sta	$3                      ; 0x2003 <__heap_default_limit+0x1003>

00002037 <__do_zero_bss>:
    2037: 20 cf 20     	jsr	$20cf <__zero_bss>

0000203a <__do_zero_zp_bss>:
    203a: 20 e2 20     	jsr	$20e2 <__zero_zp_bss>

0000203d <__do_copy_zp_data>:
    203d: 20 f5 20     	jsr	$20f5 <__copy_zp_data>

00002040 <shift>:
    2040: a9 0e        	lda	#$e
    2042: 20 d2 ff     	jsr	$ffd2 <__heap_start+0x7fb8>
    2045: 20 0c 21     	jsr	$210c <main>

00002048 <__after_main>:
    2048: 4c 35 6b     	jmp	$6b35 <exit>

0000204b <_fini>:
    204b: a2 3f        	ldx	#$3f
    204d: 86 01        	stx	$1                      ; 0x2001 <__heap_default_limit+0x1001>
    204f: a2 64        	ldx	#$64
    2051: 8e 30 d0     	stx	$d030                   ; 0xd030 <__heap_start+0x5016>
    2054: 58           	cli
    2055: 60           	rts

00002056 <fourbytes>:
    2056: 00           	brk
    2057: 00           	brk
    2058: 00           	brk
    2059: 00           	brk

0000205a <lpstore>:
    205a: 48           	pha
    205b: ad 07 00     	lda	$7                      ; 0x7 <__rc5>
    205e: 8d 56 20     	sta	$2056                   ; 0x2056 <fourbytes>
    2061: ad 08 00     	lda	$8                      ; 0x8 <__rc6>
    2064: 8d 57 20     	sta	$2057                   ; 0x2057 <fourbytes+0x1>
    2067: ad 09 00     	lda	$9                      ; 0x9 <__rc7>
    206a: 8d 58 20     	sta	$2058                   ; 0x2058 <fourbytes+0x2>
    206d: ad 0a 00     	lda	$a                      ; 0xa <__zp_data_size>
    2070: 8d 59 20     	sta	$2059                   ; 0x2059 <fourbytes+0x3>
    2073: 68           	pla
    2074: 60           	rts

00002075 <lprestore>:
    2075: 48           	pha
    2076: ad 56 20     	lda	$2056                   ; 0x2056 <fourbytes>
    2079: 8d 07 00     	sta	$7                      ; 0x7 <__rc5>
    207c: ad 57 20     	lda	$2057                   ; 0x2057 <fourbytes+0x1>
    207f: 8d 08 00     	sta	$8                      ; 0x8 <__rc6>
    2082: ad 58 20     	lda	$2058                   ; 0x2058 <fourbytes+0x2>
    2085: 8d 09 00     	sta	$9                      ; 0x9 <__rc7>
    2088: ad 59 20     	lda	$2059                   ; 0x2059 <fourbytes+0x3>
    208b: 8d 0a 00     	sta	$a                      ; 0xa <__zp_data_size>
    208e: 68           	pla
    208f: 60           	rts

00002090 <lpoke>:
    2090: 20 5a 20     	jsr	$205a <lpstore>
    2093: 8d 07 00     	sta	$7                      ; 0x7 <__rc5>
    2096: 8e 08 00     	stx	$8                      ; 0x8 <__rc6>
    2099: ad 04 00     	lda	$4                      ; 0x4 <__rc2>
    209c: 8d 09 00     	sta	$9                      ; 0x9 <__rc7>
    209f: ad 05 00     	lda	$5                      ; 0x5 <__rc3>
    20a2: 8d 0a 00     	sta	$a                      ; 0xa <__zp_data_size>
    20a5: ad 06 00     	lda	$6                      ; 0x6 <__rc4>
    20a8: a3 00        	ldz	#$0
    20aa: ea 92 07     	sta	[$7],z                  ; 0x2007 <__heap_default_limit+0x1007>
    20ad: 20 75 20     	jsr	$2075 <lprestore>
    20b0: 60           	rts

000020b1 <lpeek>:
    20b1: 20 5a 20     	jsr	$205a <lpstore>
    20b4: 8d 06 00     	sta	$6                      ; 0x6 <__rc4>
    20b7: 8e 07 00     	stx	$7                      ; 0x7 <__rc5>
    20ba: ad 04 00     	lda	$4                      ; 0x4 <__rc2>
    20bd: 8d 08 00     	sta	$8                      ; 0x8 <__rc6>
    20c0: ad 05 00     	lda	$5                      ; 0x5 <__rc3>
    20c3: 8d 09 00     	sta	$9                      ; 0x9 <__rc7>
    20c6: a3 00        	ldz	#$0
    20c8: ea b2 06     	lda	[$6],z                  ; 0x2006 <__heap_default_limit+0x1006>
    20cb: 20 75 20     	jsr	$2075 <lprestore>
    20ce: 60           	rts

000020cf <__zero_bss>:
    20cf: a2 b0        	ldx	#$b0
    20d1: a0 04        	ldy	#$4
    20d3: a9 69        	lda	#$69
    20d5: 85 04        	sta	$4                      ; 0x2004 <__heap_default_limit+0x1004>
    20d7: a9 7b        	lda	#$7b
    20d9: 85 05        	sta	$5                      ; 0x2005 <__heap_default_limit+0x1005>
    20db: a9 00        	lda	#$0
    20dd: 84 06        	sty	$6                      ; 0x2006 <__heap_default_limit+0x1006>
    20df: 4c 3c 70     	jmp	$703c <__memset>

000020e2 <__zero_zp_bss>:
    20e2: a2 1d        	ldx	#$1d
    20e4: a0 00        	ldy	#$0
    20e6: a9 2c        	lda	#$2c
    20e8: 85 04        	sta	$4                      ; 0x2004 <__heap_default_limit+0x1004>
    20ea: a9 00        	lda	#$0
    20ec: 85 05        	sta	$5                      ; 0x2005 <__heap_default_limit+0x1005>
    20ee: a9 00        	lda	#$0
    20f0: 84 06        	sty	$6                      ; 0x2006 <__heap_default_limit+0x1006>
    20f2: 4c 3c 70     	jmp	$703c <__memset>

000020f5 <__copy_zp_data>:
    20f5: a9 0a        	lda	#$a
    20f7: a2 00        	ldx	#$0
    20f9: a0 22        	ldy	#$22
    20fb: 84 04        	sty	$4                      ; 0x2004 <__heap_default_limit+0x1004>
    20fd: a0 00        	ldy	#$0
    20ff: 84 05        	sty	$5                      ; 0x2005 <__heap_default_limit+0x1005>
    2101: a0 17        	ldy	#$17
    2103: 84 06        	sty	$6                      ; 0x2006 <__heap_default_limit+0x1006>
    2105: a0 20        	ldy	#$20
    2107: 84 07        	sty	$7                      ; 0x2007 <__heap_default_limit+0x1007>
    2109: 4c 10 70     	jmp	$7010 <memcpy>

0000210c <main>:
    210c: a2 47        	ldx	#$47
    210e: 8e 2f d0     	stx	$d02f                   ; 0xd02f <__heap_start+0x5015>
    2111: a2 53        	ldx	#$53
    2113: 8e 2f d0     	stx	$d02f                   ; 0xd02f <__heap_start+0x5015>
    2116: ad 5d d0     	lda	$d05d                   ; 0xd05d <__heap_start+0x5043>
    2119: 29 7f        	and	#$7f
    211b: 8d 5d d0     	sta	$d05d                   ; 0xd05d <__heap_start+0x5043>
    211e: 9c 68 d0     	stz	$d068                   ; 0xd068 <__heap_start+0x504e>
    2121: a2 d8        	ldx	#$d8
    2123: 8e 69 d0     	stx	$d069                   ; 0xd069 <__heap_start+0x504f>
    2126: a2 02        	ldx	#$2
    2128: 8e 6a d0     	stx	$d06a                   ; 0xd06a <__heap_start+0x5050>
    212b: ac 31 d0     	ldy	$d031                   ; 0xd031 <__heap_start+0x5017>
    212e: a2 28        	ldx	#$28
    2130: 98           	tya
    2131: 10 02        	bpl	$2135 <main+0x29>
    2133: a2 50        	ldx	#$50
    2135: 86 31        	stx	$31                     ; 0x2031 <__do_init_stack+0x2>
    2137: ad 31 d0     	lda	$d031                   ; 0xd031 <__heap_start+0x5017>
    213a: 29 08        	and	#$8
    213c: f0 04        	beq	$2142 <main+0x36>
    213e: a2 32        	ldx	#$32
    2140: 80 02        	bra	$2144 <main+0x38>
    2142: a2 19        	ldx	#$19
    2144: 18           	clc
    2145: a5 02        	lda	$2                      ; 0x2002 <__heap_default_limit+0x1002>
    2147: 69 d7        	adc	#$d7
    2149: 85 02        	sta	$2                      ; 0x2002 <__heap_default_limit+0x1002>
    214b: a5 03        	lda	$3                      ; 0x2003 <__heap_default_limit+0x1003>
    214d: 69 ff        	adc	#$ff
    214f: 85 03        	sta	$3                      ; 0x2003 <__heap_default_limit+0x1003>
    2151: a4 16        	ldy	$16                     ; 0x2016 <next_line+0x1>
    2153: 5a           	phy
    2154: a4 17        	ldy	$17                     ; 0x2017 <next_line+0x2>
    2156: 5a           	phy
    2157: a4 18        	ldy	$18                     ; 0x2018 <next_line+0x3>
    2159: 5a           	phy
    215a: a4 19        	ldy	$19                     ; 0x2019 <next_line+0x4>
    215c: 5a           	phy
    215d: a5 1a        	lda	$1a                     ; 0x201a <next_line+0x5>
    215f: a0 07        	ldy	#$7
    2161: 91 02        	sta	($2),y                  ; 0x2002 <__heap_default_limit+0x1002>
    2163: a5 1b        	lda	$1b                     ; 0x201b <next_line+0x6>
    2165: 88           	dey
    2166: 91 02        	sta	($2),y                  ; 0x2002 <__heap_default_limit+0x1002>
    2168: a5 1c        	lda	$1c                     ; 0x201c <next_line+0x7>
    216a: 88           	dey
    216b: 91 02        	sta	($2),y                  ; 0x2002 <__heap_default_limit+0x1002>
    216d: a5 1d        	lda	$1d                     ; 0x201d <next_line+0x8>
    216f: 88           	dey
    2170: 91 02        	sta	($2),y                  ; 0x2002 <__heap_default_limit+0x1002>
    2172: a5 1e        	lda	$1e                     ; 0x201e <next_line+0x9>
    2174: 88           	dey
    2175: 91 02        	sta	($2),y                  ; 0x2002 <__heap_default_limit+0x1002>
    2177: a5 1f        	lda	$1f                     ; 0x201f <next_line+0xa>
    2179: 88           	dey
    217a: 91 02        	sta	($2),y                  ; 0x2002 <__heap_default_limit+0x1002>
    217c: a5 20        	lda	$20                     ; 0x2020 <next_line+0xb>
    217e: 88           	dey
    217f: 91 02        	sta	($2),y                  ; 0x2002 <__heap_default_limit+0x1002>
    2181: a5 21        	lda	$21                     ; 0x2021 <_start>
    2183: 88           	dey
    2184: 91 02        	sta	($2),y                  ; 0x2002 <__heap_default_limit+0x1002>
    2186: 86 32        	stx	$32                     ; 0x2032 <__do_init_stack+0x3>
    2188: 80 03        	bra	$218d <main+0x81>
    218a: 9c 10 d6     	stz	$d610                   ; 0xd610 <__heap_start+0x55f6>
    218d: ae 10 d6     	ldx	$d610                   ; 0xd610 <__heap_start+0x55f6>
    2190: d0 f8        	bne	$218a <main+0x7e>
    2192: a2 1c        	ldx	#$1c
    2194: 86 04        	stx	$4                      ; 0x2004 <__heap_default_limit+0x1004>
    2196: a2 7d        	ldx	#$7d
    2198: 86 05        	stx	$5                      ; 0x2005 <__heap_default_limit+0x1005>
    219a: a2 ff        	ldx	#$ff
    219c: a0 01        	ldy	#$1
    219e: 4c d1 21     	jmp	$21d1 <main+0xc5>
    21a1: a5 04        	lda	$4                      ; 0x2004 <__heap_default_limit+0x1004>
    21a3: 18           	clc
    21a4: 69 03        	adc	#$3
    21a6: 85 08        	sta	$8                      ; 0x2008 <__heap_default_limit+0x1008>
    21a8: a5 05        	lda	$5                      ; 0x2005 <__heap_default_limit+0x1005>
    21aa: 69 00        	adc	#$0
    21ac: 85 09        	sta	$9                      ; 0x2009 <__heap_default_limit+0x1009>
    21ae: a5 04        	lda	$4                      ; 0x2004 <__heap_default_limit+0x1004>
    21b0: 85 06        	sta	$6                      ; 0x2006 <__heap_default_limit+0x1006>
    21b2: a5 05        	lda	$5                      ; 0x2005 <__heap_default_limit+0x1005>
    21b4: 85 07        	sta	$7                      ; 0x2007 <__heap_default_limit+0x1007>
    21b6: a9 bb        	lda	#$bb
    21b8: 91 04        	sta	($4),y                  ; 0x2004 <__heap_default_limit+0x1004>
    21ba: a9 00        	lda	#$0
    21bc: 92 04        	sta	($4),z                  ; 0x2004 <__heap_default_limit+0x1004>
    21be: a5 08        	lda	$8                      ; 0x2008 <__heap_default_limit+0x1008>
    21c0: 85 04        	sta	$4                      ; 0x2004 <__heap_default_limit+0x1004>
    21c2: a5 09        	lda	$9                      ; 0x2009 <__heap_default_limit+0x1009>
    21c4: 85 05        	sta	$5                      ; 0x2005 <__heap_default_limit+0x1005>
    21c6: e6 06        	inc	$6                      ; 0x2006 <__heap_default_limit+0x1006>
    21c8: d0 02        	bne	$21cc <main+0xc0>
    21ca: e6 07        	inc	$7                      ; 0x2007 <__heap_default_limit+0x1007>
    21cc: a9 67        	lda	#$67
    21ce: 91 06        	sta	($6),y                  ; 0x2006 <__heap_default_limit+0x1006>
    21d0: ca           	dex
    21d1: 8a           	txa
    21d2: f0 03        	beq	$21d7 <main+0xcb>
    21d4: 4c a1 21     	jmp	$21a1 <main+0x95>
    21d7: a9 f0        	lda	#$f0
    21d9: 25 2b        	and	$2b                     ; 0x202b <_start+0xa>
    21db: 09 03        	ora	#$3
    21dd: 85 2b        	sta	$2b                     ; 0x202b <_start+0xa>
    21df: 9c 20 d0     	stz	$d020                   ; 0xd020 <__heap_start+0x5006>
    21e2: a2 06        	ldx	#$6
    21e4: 8e 21 d0     	stx	$d021                   ; 0xd021 <__heap_start+0x5007>
    21e7: ad 31 d0     	lda	$d031                   ; 0xd031 <__heap_start+0x5017>
    21ea: 09 80        	ora	#$80
    21ec: 8d 31 d0     	sta	$d031                   ; 0xd031 <__heap_start+0x5017>
    21ef: a2 50        	ldx	#$50
    21f1: 8e 4c d0     	stx	$d04c                   ; 0xd04c <__heap_start+0x5032>
    21f4: ad 31 d0     	lda	$d031                   ; 0xd031 <__heap_start+0x5017>
    21f7: 29 f7        	and	#$f7
    21f9: 8d 31 d0     	sta	$d031                   ; 0xd031 <__heap_start+0x5017>
    21fc: 86 31        	stx	$31                     ; 0x2031 <__do_init_stack+0x2>
    21fe: a2 19        	ldx	#$19
    2200: 86 32        	stx	$32                     ; 0x2032 <__do_init_stack+0x3>
    2202: 20 f8 56     	jsr	$56f8 <clrhome>
    2205: a9 00        	lda	#$0
    2207: 8d 40 d6     	sta	$d640                   ; 0xd640 <__heap_start+0x5626>
    220a: b8           	clv
    220b: 8d 00 17     	sta	$1700                   ; 0x1700 <__heap_default_limit+0x700>
    220e: 8e 01 17     	stx	$1701                   ; 0x1701 <__heap_default_limit+0x701>
    2211: 8c 02 17     	sty	$1702                   ; 0x1702 <__heap_default_limit+0x702>
    2214: 9c 03 17     	stz	$1703                   ; 0x1703 <__heap_default_limit+0x703>
    2217: a2 16        	ldx	#$16
    2219: a0 22        	ldy	#$22
    221b: 84 04        	sty	$4                      ; 0x2004 <__heap_default_limit+0x1004>
    221d: a0 71        	ldy	#$71
    221f: 84 05        	sty	$5                      ; 0x2005 <__heap_default_limit+0x1005>
    2221: a9 00        	lda	#$0
    2223: 20 64 57     	jsr	$5764 <mcputsxy>
    2226: a2 24        	ldx	#$24
    2228: 86 04        	stx	$4                      ; 0x2004 <__heap_default_limit+0x1004>
    222a: a2 79        	ldx	#$79
    222c: 86 05        	stx	$5                      ; 0x2005 <__heap_default_limit+0x1005>
    222e: 20 56 57     	jsr	$5756 <msprintf>
    2231: a2 17        	ldx	#$17
    2233: a0 b7        	ldy	#$b7
    2235: 84 04        	sty	$4                      ; 0x2004 <__heap_default_limit+0x1004>
    2237: a0 76        	ldy	#$76
    2239: 84 05        	sty	$5                      ; 0x2005 <__heap_default_limit+0x1005>
    223b: a9 00        	lda	#$0
    223d: 20 64 57     	jsr	$5764 <mcputsxy>
    2240: a9 14        	lda	#$14
    2242: a2 00        	ldx	#$0
    2244: 20 5d 5b     	jsr	$5b5d <shortcuts>
    2247: a9 01        	lda	#$1
    2249: a2 58        	ldx	#$58
    224b: 86 04        	stx	$4                      ; 0x2004 <__heap_default_limit+0x1004>
    224d: a2 7a        	ldx	#$7a
    224f: 86 05        	stx	$5                      ; 0x2005 <__heap_default_limit+0x1005>
    2251: a2 7e        	ldx	#$7e
    2253: 86 06        	stx	$6                      ; 0x2006 <__heap_default_limit+0x1006>
    2255: a2 79        	ldx	#$79
    2257: 86 07        	stx	$7                      ; 0x2007 <__heap_default_limit+0x1007>
    2259: a2 67        	ldx	#$67
    225b: 86 08        	stx	$8                      ; 0x2008 <__heap_default_limit+0x1008>
    225d: a2 74        	ldx	#$74
    225f: 86 09        	stx	$9                      ; 0x2009 <__heap_default_limit+0x1009>
    2261: 64 0a        	stz	$a                      ; 0x200a <__heap_default_limit+0x100a>
    2263: 64 0b        	stz	$b                      ; 0x200b <__heap_default_limit+0x100b>
    2265: 64 0c        	stz	$c                      ; 0x200c <__heap_default_limit+0x100c>
    2267: a2 00        	ldx	#$0
    2269: 20 05 59     	jsr	$5905 <messagebox>
    226c: aa           	tax
    226d: d0 03        	bne	$2272 <main+0x166>
    226f: 4c 52 47     	jmp	$4752 <donehypchdir9+0x8b>
    2272: a2 06        	ldx	#$6
    2274: 86 30        	stx	$30                     ; 0x2030 <__do_init_stack+0x1>
    2276: a2 28        	ldx	#$28
    2278: 8a           	txa
    2279: a0 21        	ldy	#$21
    227b: 91 02        	sta	($2),y                  ; 0x2002 <__heap_default_limit+0x1002>
    227d: a0 00        	ldy	#$0
    227f: 64 19        	stz	$19                     ; 0x2019 <next_line+0x4>
    2281: 4c fc 22     	jmp	$22fc <main+0x1f0>
    2284: a6 19        	ldx	$19                     ; 0x2019 <next_line+0x4>
    2286: 84 18        	sty	$18                     ; 0x2018 <next_line+0x3>
    2288: b4 27        	ldy	$27,x                   ; 0x2027 <_start+0x6>
    228a: b5 28        	lda	$28,x                   ; 0x2028 <_start+0x7>
    228c: aa           	tax
    228d: 84 16        	sty	$16                     ; 0x2016 <next_line+0x1>
    228f: 86 17        	stx	$17                     ; 0x2017 <next_line+0x2>
    2291: a5 18        	lda	$18                     ; 0x2018 <next_line+0x3>
    2293: 92 16        	sta	($16),z                 ; 0x2016 <next_line+0x1>
    2295: 18           	clc
    2296: 98           	tya
    2297: 69 03        	adc	#$3
    2299: 85 04        	sta	$4                      ; 0x2004 <__heap_default_limit+0x1004>
    229b: 8a           	txa
    229c: 69 00        	adc	#$0
    229e: 85 05        	sta	$5                      ; 0x2005 <__heap_default_limit+0x1005>
    22a0: a2 4b        	ldx	#$4b
    22a2: 86 06        	stx	$6                      ; 0x2006 <__heap_default_limit+0x1006>
    22a4: a2 74        	ldx	#$74
    22a6: 86 07        	stx	$7                      ; 0x2007 <__heap_default_limit+0x1007>
    22a8: a2 00        	ldx	#$0
    22aa: a9 10        	lda	#$10
    22ac: 20 10 70     	jsr	$7010 <memcpy>
    22af: a9 28        	lda	#$28
    22b1: a0 47        	ldy	#$47
    22b3: 91 16        	sta	($16),y                 ; 0x2016 <next_line+0x1>
    22b5: a0 01        	ldy	#$1
    22b7: a9 00        	lda	#$0
    22b9: 91 16        	sta	($16),y                 ; 0x2016 <next_line+0x1>
    22bb: 98           	tya
    22bc: a0 46        	ldy	#$46
    22be: 11 16        	ora	($16),y                 ; 0x2016 <next_line+0x1>
    22c0: 91 16        	sta	($16),y                 ; 0x2016 <next_line+0x1>
    22c2: a2 b5        	ldx	#$b5
    22c4: 86 04        	stx	$4                      ; 0x2004 <__heap_default_limit+0x1004>
    22c6: a2 73        	ldx	#$73
    22c8: 86 05        	stx	$5                      ; 0x2005 <__heap_default_limit+0x1005>
    22ca: a2 77        	ldx	#$77
    22cc: 86 06        	stx	$6                      ; 0x2006 <__heap_default_limit+0x1006>
    22ce: a2 72        	ldx	#$72
    22d0: 86 07        	stx	$7                      ; 0x2007 <__heap_default_limit+0x1007>
    22d2: a0 21        	ldy	#$21
    22d4: b1 02        	lda	($2),y                  ; 0x2002 <__heap_default_limit+0x1002>
    22d6: 85 1a        	sta	$1a                     ; 0x201a <next_line+0x5>
    22d8: 20 5c 5a     	jsr	$5a5c <progress>
    22db: b2 16        	lda	($16),z                 ; 0x2016 <next_line+0x1>
    22dd: a6 18        	ldx	$18                     ; 0x2018 <next_line+0x3>
    22df: 20 84 5f     	jsr	$5f84 <UpdateSectors>
    22e2: a5 18        	lda	$18                     ; 0x2018 <next_line+0x3>
    22e4: 20 e8 65     	jsr	$65e8 <Deselect>
    22e7: a5 19        	lda	$19                     ; 0x2019 <next_line+0x4>
    22e9: a4 18        	ldy	$18                     ; 0x2018 <next_line+0x3>
    22eb: 18           	clc
    22ec: 69 02        	adc	#$2
    22ee: 85 19        	sta	$19                     ; 0x2019 <next_line+0x4>
    22f0: c8           	iny
    22f1: 18           	clc
    22f2: a5 1a        	lda	$1a                     ; 0x201a <next_line+0x5>
    22f4: 69 28        	adc	#$28
    22f6: 5a           	phy
    22f7: a0 21        	ldy	#$21
    22f9: 91 02        	sta	($2),y                  ; 0x2002 <__heap_default_limit+0x1002>
    22fb: 7a           	ply
    22fc: c0 02        	cpy	#$2
    22fe: f0 03        	beq	$2303 <main+0x1f7>
    2300: 4c 84 22     	jmp	$2284 <main+0x178>
    2303: 64 04        	stz	$4                      ; 0x2004 <__heap_default_limit+0x1004>
    2305: a9 00        	lda	#$0
    2307: a0 18        	ldy	#$18
    2309: 91 02        	sta	($2),y                  ; 0x2002 <__heap_default_limit+0x1002>
    230b: 9c 80 d0     	stz	$d080                   ; 0xd080 <__heap_start+0x5066>
    230e: 64 2e        	stz	$2e                     ; 0x202e <_start+0xd>
    2310: a2 da        	ldx	#$da
    2312: 86 18        	stx	$18                     ; 0x2018 <next_line+0x3>
    2314: a2 7b        	ldx	#$7b
    2316: 86 19        	stx	$19                     ; 0x2019 <next_line+0x4>
    2318: a9 00        	lda	#$0
    231a: 64 04        	stz	$4                      ; 0x2004 <__heap_default_limit+0x1004>
    231c: 48           	pha
    231d: a9 00        	lda	#$0
    231f: a0 21        	ldy	#$21
    2321: 91 02        	sta	($2),y                  ; 0x2002 <__heap_default_limit+0x1002>
    2323: 88           	dey
    2324: 91 02        	sta	($2),y                  ; 0x2002 <__heap_default_limit+0x1002>
    2326: 68           	pla
    2327: 64 20        	stz	$20                     ; 0x2020 <next_line+0xb>
    2329: 64 16        	stz	$16                     ; 0x2016 <next_line+0x1>
    232b: a6 16        	ldx	$16                     ; 0x2016 <next_line+0x1>
    232d: d0 09        	bne	$2338 <main+0x22c>
    232f: a6 20        	ldx	$20                     ; 0x2020 <next_line+0xb>
    2331: e0 02        	cpx	#$2
    2333: d0 03        	bne	$2338 <main+0x22c>
    2335: 4c 19 28     	jmp	$2819 <main+0x70d>
    2338: 85 1f        	sta	$1f                     ; 0x201f <next_line+0xa>
    233a: a0 20        	ldy	#$20
    233c: b1 02        	lda	($2),y                  ; 0x2002 <__heap_default_limit+0x1002>
    233e: aa           	tax
    233f: b4 27        	ldy	$27,x                   ; 0x2027 <_start+0x6>
    2341: b5 28        	lda	$28,x                   ; 0x2028 <_start+0x7>
    2343: aa           	tax
    2344: 84 1a        	sty	$1a                     ; 0x201a <next_line+0x5>
    2346: 84 1c        	sty	$1c                     ; 0x201c <next_line+0x7>
    2348: 86 17        	stx	$17                     ; 0x2017 <next_line+0x2>
    234a: 86 1d        	stx	$1d                     ; 0x201d <next_line+0x8>
    234c: a0 02        	ldy	#$2
    234e: b1 1c        	lda	($1c),y                 ; 0x201c <next_line+0x7>
    2350: 88           	dey
    2351: d1 1c        	cmp	($1c),y                 ; 0x201c <next_line+0x7>
    2353: b0 02        	bcs	$2357 <main+0x24b>
    2355: 91 1c        	sta	($1c),y                 ; 0x201c <next_line+0x7>
    2357: a5 20        	lda	$20                     ; 0x2020 <next_line+0xb>
    2359: 0a           	asl
    235a: 0a           	asl
    235b: 0a           	asl
    235c: 85 04        	sta	$4                      ; 0x2004 <__heap_default_limit+0x1004>
    235e: 0a           	asl
    235f: 0a           	asl
    2360: 18           	clc
    2361: 65 04        	adc	$4                      ; 0x2004 <__heap_default_limit+0x1004>
    2363: 85 1b        	sta	$1b                     ; 0x201b <next_line+0x6>
    2365: 18           	clc
    2366: 69 27        	adc	#$27
    2368: 85 04        	sta	$4                      ; 0x2004 <__heap_default_limit+0x1004>
    236a: a2 17        	ldx	#$17
    236c: 86 05        	stx	$5                      ; 0x2005 <__heap_default_limit+0x1005>
    236e: 64 06        	stz	$6                      ; 0x2006 <__heap_default_limit+0x1006>
    2370: a2 00        	ldx	#$0
    2372: a5 1b        	lda	$1b                     ; 0x201b <next_line+0x6>
    2374: 20 7a 57     	jsr	$577a <mcbox>
    2377: a9 20        	lda	#$20
    2379: 05 2b        	ora	$2b                     ; 0x202b <_start+0xa>
    237b: 85 2b        	sta	$2b                     ; 0x202b <_start+0xa>
    237d: a6 1b        	ldx	$1b                     ; 0x201b <next_line+0x6>
    237f: 86 1e        	stx	$1e                     ; 0x201e <next_line+0x9>
    2381: a5 1b        	lda	$1b                     ; 0x201b <next_line+0x6>
    2383: 09 02        	ora	#$2
    2385: a2 7e        	ldx	#$7e
    2387: 86 04        	stx	$4                      ; 0x2004 <__heap_default_limit+0x1004>
    2389: a2 71        	ldx	#$71
    238b: 86 05        	stx	$5                      ; 0x2005 <__heap_default_limit+0x1005>
    238d: a2 00        	ldx	#$0
    238f: 85 1b        	sta	$1b                     ; 0x201b <next_line+0x6>
    2391: 20 64 57     	jsr	$5764 <mcputsxy>
    2394: a0 21        	ldy	#$21
    2396: b1 02        	lda	($2),y                  ; 0x2002 <__heap_default_limit+0x1002>
    2398: 85 04        	sta	$4                      ; 0x2004 <__heap_default_limit+0x1004>
    239a: a9 ba        	lda	#$ba
    239c: 18           	clc
    239d: 65 04        	adc	$4                      ; 0x2004 <__heap_default_limit+0x1004>
    239f: 85 04        	sta	$4                      ; 0x2004 <__heap_default_limit+0x1004>
    23a1: a9 7c        	lda	#$7c
    23a3: 69 00        	adc	#$0
    23a5: 85 05        	sta	$5                      ; 0x2005 <__heap_default_limit+0x1005>
    23a7: 20 56 57     	jsr	$5756 <msprintf>
    23aa: a9 20        	lda	#$20
    23ac: 20 bc 67     	jsr	$67bc <cputc>
    23af: a9 01        	lda	#$1
    23b1: a0 46        	ldy	#$46
    23b3: 31 1c        	and	($1c),y                 ; 0x201c <next_line+0x7>
    23b5: f0 25        	beq	$23dc <main+0x2d0>
    23b7: a5 33        	lda	$33                     ; 0x2033 <__do_init_stack+0x4>
    23b9: 1a           	inc
    23ba: a2 7e        	ldx	#$7e
    23bc: 86 04        	stx	$4                      ; 0x2004 <__heap_default_limit+0x1004>
    23be: a2 71        	ldx	#$71
    23c0: 86 05        	stx	$5                      ; 0x2005 <__heap_default_limit+0x1005>
    23c2: a2 00        	ldx	#$0
    23c4: 20 64 57     	jsr	$5764 <mcputsxy>
    23c7: a5 1a        	lda	$1a                     ; 0x201a <next_line+0x5>
    23c9: 18           	clc
    23ca: 69 03        	adc	#$3
    23cc: 85 04        	sta	$4                      ; 0x2004 <__heap_default_limit+0x1004>
    23ce: a5 17        	lda	$17                     ; 0x2017 <next_line+0x2>
    23d0: 69 00        	adc	#$0
    23d2: 85 05        	sta	$5                      ; 0x2005 <__heap_default_limit+0x1005>
    23d4: 20 56 57     	jsr	$5756 <msprintf>
    23d7: a9 20        	lda	#$20
    23d9: 20 bc 67     	jsr	$67bc <cputc>
    23dc: a2 ec        	ldx	#$ec
    23de: 86 04        	stx	$4                      ; 0x2004 <__heap_default_limit+0x1004>
    23e0: a2 75        	ldx	#$75
    23e2: 86 05        	stx	$5                      ; 0x2005 <__heap_default_limit+0x1005>
    23e4: a2 17        	ldx	#$17
    23e6: a5 1b        	lda	$1b                     ; 0x201b <next_line+0x6>
    23e8: 20 64 57     	jsr	$5764 <mcputsxy>
    23eb: b2 1c        	lda	($1c),z                 ; 0x201c <next_line+0x7>
    23ed: 64 04        	stz	$4                      ; 0x2004 <__heap_default_limit+0x1004>
    23ef: 64 05        	stz	$5                      ; 0x2005 <__heap_default_limit+0x1005>
    23f1: 64 06        	stz	$6                      ; 0x2006 <__heap_default_limit+0x1006>
    23f3: a2 00        	ldx	#$0
    23f5: 20 e1 55     	jsr	$55e1 <csputdec>
    23f8: a0 02        	ldy	#$2
    23fa: b1 1c        	lda	($1c),y                 ; 0x201c <next_line+0x7>
    23fc: c9 ff        	cmp	#$ff
    23fe: d0 03        	bne	$2403 <main+0x2f7>
    2400: 4c 40 24     	jmp	$2440 <main+0x334>
    2403: a5 16        	lda	$16                     ; 0x2016 <next_line+0x1>
    2405: a0 1c        	ldy	#$1c
    2407: 91 02        	sta	($2),y                  ; 0x2002 <__heap_default_limit+0x1002>
    2409: a9 20        	lda	#$20
    240b: 20 bc 67     	jsr	$67bc <cputc>
    240e: 18           	clc
    240f: a5 1a        	lda	$1a                     ; 0x201a <next_line+0x5>
    2411: 69 44        	adc	#$44
    2413: aa           	tax
    2414: a5 17        	lda	$17                     ; 0x2017 <next_line+0x2>
    2416: 69 00        	adc	#$0
    2418: 86 1b        	stx	$1b                     ; 0x201b <next_line+0x6>
    241a: 86 04        	stx	$4                      ; 0x2004 <__heap_default_limit+0x1004>
    241c: 85 1a        	sta	$1a                     ; 0x201a <next_line+0x5>
    241e: 85 05        	sta	$5                      ; 0x2005 <__heap_default_limit+0x1005>
    2420: a0 44        	ldy	#$44
    2422: b1 1c        	lda	($1c),y                 ; 0x201c <next_line+0x7>
    2424: aa           	tax
    2425: a0 01        	ldy	#$1
    2427: b1 04        	lda	($4),y                  ; 0x2004 <__heap_default_limit+0x1004>
    2429: c9 ff        	cmp	#$ff
    242b: d0 2a        	bne	$2457 <main+0x34b>
    242d: 5a           	phy
    242e: a0 00        	ldy	#$0
    2430: 84 16        	sty	$16                     ; 0x2016 <next_line+0x1>
    2432: a0 00        	ldy	#$0
    2434: 84 17        	sty	$17                     ; 0x2017 <next_line+0x2>
    2436: 7a           	ply
    2437: 86 04        	stx	$4                      ; 0x2004 <__heap_default_limit+0x1004>
    2439: e0 ff        	cpx	#$ff
    243b: d0 24        	bne	$2461 <main+0x355>
    243d: 4c e7 24     	jmp	$24e7 <main+0x3db>
    2440: 18           	clc
    2441: a5 1e        	lda	$1e                     ; 0x201e <next_line+0x9>
    2443: 69 11        	adc	#$11
    2445: a2 1a        	ldx	#$1a
    2447: 86 04        	stx	$4                      ; 0x2004 <__heap_default_limit+0x1004>
    2449: a2 71        	ldx	#$71
    244b: 86 05        	stx	$5                      ; 0x2005 <__heap_default_limit+0x1005>
    244d: a2 03        	ldx	#$3
    244f: 20 64 57     	jsr	$5764 <mcputsxy>
    2452: a4 1f        	ldy	$1f                     ; 0x201f <next_line+0xa>
    2454: 4c 8c 27     	jmp	$278c <main+0x680>
    2457: 86 04        	stx	$4                      ; 0x2004 <__heap_default_limit+0x1004>
    2459: a2 00        	ldx	#$0
    245b: 86 16        	stx	$16                     ; 0x2016 <next_line+0x1>
    245d: a2 00        	ldx	#$0
    245f: 86 17        	stx	$17                     ; 0x2017 <next_line+0x2>
    2461: aa           	tax
    2462: e0 ff        	cpx	#$ff
    2464: f0 03        	beq	$2469 <main+0x35d>
    2466: 4c aa 24     	jmp	$24aa <main+0x39e>
    2469: a6 04        	ldx	$4                      ; 0x2004 <__heap_default_limit+0x1004>
    246b: e0 fe        	cpx	#$fe
    246d: f0 03        	beq	$2472 <main+0x366>
    246f: 4c aa 24     	jmp	$24aa <main+0x39e>
    2472: a9 e0        	lda	#$e0
    2474: 25 2b        	and	$2b                     ; 0x202b <_start+0xa>
    2476: 09 18        	ora	#$18
    2478: 85 2b        	sta	$2b                     ; 0x202b <_start+0xa>
    247a: a5 1e        	lda	$1e                     ; 0x201e <next_line+0x9>
    247c: 18           	clc
    247d: 69 0c        	adc	#$c
    247f: a2 0a        	ldx	#$a
    2481: 86 04        	stx	$4                      ; 0x2004 <__heap_default_limit+0x1004>
    2483: a2 75        	ldx	#$75
    2485: 86 05        	stx	$5                      ; 0x2005 <__heap_default_limit+0x1005>
    2487: a2 17        	ldx	#$17
    2489: 20 64 57     	jsr	$5764 <mcputsxy>
    248c: a9 ef        	lda	#$ef
    248e: 25 2b        	and	$2b                     ; 0x202b <_start+0xa>
    2490: 85 2b        	sta	$2b                     ; 0x202b <_start+0xa>
    2492: 20 75 67     	jsr	$6775 <sidbong>
    2495: a6 1b        	ldx	$1b                     ; 0x201b <next_line+0x6>
    2497: 86 04        	stx	$4                      ; 0x2004 <__heap_default_limit+0x1004>
    2499: a6 1a        	ldx	$1a                     ; 0x201a <next_line+0x5>
    249b: 86 05        	stx	$5                      ; 0x2005 <__heap_default_limit+0x1005>
    249d: a9 ff        	lda	#$ff
    249f: a0 44        	ldy	#$44
    24a1: 91 1c        	sta	($1c),y                 ; 0x201c <next_line+0x7>
    24a3: a0 01        	ldy	#$1
    24a5: 91 04        	sta	($4),y                  ; 0x2004 <__heap_default_limit+0x1004>
    24a7: 4c e7 24     	jmp	$24e7 <main+0x3db>
    24aa: a5 1e        	lda	$1e                     ; 0x201e <next_line+0x9>
    24ac: 18           	clc
    24ad: 69 0c        	adc	#$c
    24af: a2 7e        	ldx	#$7e
    24b1: 86 04        	stx	$4                      ; 0x2004 <__heap_default_limit+0x1004>
    24b3: a2 71        	ldx	#$71
    24b5: 86 05        	stx	$5                      ; 0x2005 <__heap_default_limit+0x1005>
    24b7: a2 17        	ldx	#$17
    24b9: 20 64 57     	jsr	$5764 <mcputsxy>
    24bc: a6 1b        	ldx	$1b                     ; 0x201b <next_line+0x6>
    24be: 86 04        	stx	$4                      ; 0x2004 <__heap_default_limit+0x1004>
    24c0: a6 1a        	ldx	$1a                     ; 0x201a <next_line+0x5>
    24c2: 86 05        	stx	$5                      ; 0x2005 <__heap_default_limit+0x1005>
    24c4: a0 44        	ldy	#$44
    24c6: b1 1c        	lda	($1c),y                 ; 0x201c <next_line+0x7>
    24c8: 85 07        	sta	$7                      ; 0x2007 <__heap_default_limit+0x1007>
    24ca: a0 01        	ldy	#$1
    24cc: b1 04        	lda	($4),y                  ; 0x2004 <__heap_default_limit+0x1004>
    24ce: 64 04        	stz	$4                      ; 0x2004 <__heap_default_limit+0x1004>
    24d0: 64 05        	stz	$5                      ; 0x2005 <__heap_default_limit+0x1005>
    24d2: 64 06        	stz	$6                      ; 0x2006 <__heap_default_limit+0x1006>
    24d4: aa           	tax
    24d5: a5 07        	lda	$7                      ; 0x2007 <__heap_default_limit+0x1007>
    24d7: 20 e1 55     	jsr	$55e1 <csputdec>
    24da: a2 84        	ldx	#$84
    24dc: 86 04        	stx	$4                      ; 0x2004 <__heap_default_limit+0x1004>
    24de: a2 76        	ldx	#$76
    24e0: 86 05        	stx	$5                      ; 0x2005 <__heap_default_limit+0x1005>
    24e2: 20 56 57     	jsr	$5756 <msprintf>
    24e5: a0 01        	ldy	#$1
    24e7: a9 df        	lda	#$df
    24e9: 25 2b        	and	$2b                     ; 0x202b <_start+0xa>
    24eb: 85 06        	sta	$6                      ; 0x2006 <__heap_default_limit+0x1006>
    24ed: 85 2b        	sta	$2b                     ; 0x202b <_start+0xa>
    24ef: b1 1c        	lda	($1c),y                 ; 0x201c <next_line+0x7>
    24f1: a0 1b        	ldy	#$1b
    24f3: 91 02        	sta	($2),y                  ; 0x2002 <__heap_default_limit+0x1002>
    24f5: aa           	tax
    24f6: a0 02        	ldy	#$2
    24f8: b1 1c        	lda	($1c),y                 ; 0x201c <next_line+0x7>
    24fa: a0 19        	ldy	#$19
    24fc: 91 02        	sta	($2),y                  ; 0x2002 <__heap_default_limit+0x1002>
    24fe: e0 15        	cpx	#$15
    2500: 64 21        	stz	$21                     ; 0x2021 <_start>
    2502: 64 1b        	stz	$1b                     ; 0x201b <next_line+0x6>
    2504: a9 00        	lda	#$0
    2506: 90 0a        	bcc	$2512 <main+0x406>
    2508: 18           	clc
    2509: 8a           	txa
    250a: 69 eb        	adc	#$eb
    250c: 85 1b        	sta	$1b                     ; 0x201b <next_line+0x6>
    250e: a9 00        	lda	#$0
    2510: 69 ff        	adc	#$ff
    2512: aa           	tax
    2513: a5 1b        	lda	$1b                     ; 0x201b <next_line+0x6>
    2515: 18           	clc
    2516: 65 18        	adc	$18                     ; 0x2018 <next_line+0x3>
    2518: 85 1c        	sta	$1c                     ; 0x201c <next_line+0x7>
    251a: 8a           	txa
    251b: a0 1e        	ldy	#$1e
    251d: 91 02        	sta	($2),y                  ; 0x2002 <__heap_default_limit+0x1002>
    251f: 65 19        	adc	$19                     ; 0x2019 <next_line+0x4>
    2521: 85 1d        	sta	$1d                     ; 0x201d <next_line+0x8>
    2523: a5 1e        	lda	$1e                     ; 0x201e <next_line+0x9>
    2525: 09 01        	ora	#$1
    2527: a0 1a        	ldy	#$1a
    2529: 91 02        	sta	($2),y                  ; 0x2002 <__heap_default_limit+0x1002>
    252b: a5 06        	lda	$6                      ; 0x2006 <__heap_default_limit+0x1006>
    252d: a4 1f        	ldy	$1f                     ; 0x201f <next_line+0xa>
    252f: a6 21        	ldx	$21                     ; 0x2021 <_start>
    2531: e0 16        	cpx	#$16
    2533: d0 03        	bne	$2538 <main+0x42c>
    2535: 4c 80 27     	jmp	$2780 <main+0x674>
    2538: 86 04        	stx	$4                      ; 0x2004 <__heap_default_limit+0x1004>
    253a: a5 1b        	lda	$1b                     ; 0x201b <next_line+0x6>
    253c: 18           	clc
    253d: 65 04        	adc	$4                      ; 0x2004 <__heap_default_limit+0x1004>
    253f: a2 01        	ldx	#$1
    2541: b0 02        	bcs	$2545 <main+0x439>
    2543: a2 00        	ldx	#$0
    2545: 86 1e        	stx	$1e                     ; 0x201e <next_line+0x9>
    2547: 85 1a        	sta	$1a                     ; 0x201a <next_line+0x5>
    2549: aa           	tax
    254a: a5 20        	lda	$20                     ; 0x2020 <next_line+0xb>
    254c: 20 eb 54     	jsr	$54eb <getdirententry>
    254f: a2 00        	ldx	#$0
    2551: 86 06        	stx	$6                      ; 0x2006 <__heap_default_limit+0x1006>
    2553: a2 00        	ldx	#$0
    2555: 86 07        	stx	$7                      ; 0x2007 <__heap_default_limit+0x1007>
    2557: a6 04        	ldx	$4                      ; 0x2004 <__heap_default_limit+0x1004>
    2559: 86 18        	stx	$18                     ; 0x2018 <next_line+0x3>
    255b: a6 05        	ldx	$5                      ; 0x2005 <__heap_default_limit+0x1005>
    255d: 86 19        	stx	$19                     ; 0x2019 <next_line+0x4>
    255f: a6 19        	ldx	$19                     ; 0x2019 <next_line+0x4>
    2561: e4 07        	cpx	$7                      ; 0x2007 <__heap_default_limit+0x1007>
    2563: d0 11        	bne	$2576 <main+0x46a>
    2565: a6 18        	ldx	$18                     ; 0x2018 <next_line+0x3>
    2567: a4 1f        	ldy	$1f                     ; 0x201f <next_line+0xa>
    2569: 5a           	phy
    256a: a0 1e        	ldy	#$1e
    256c: b1 02        	lda	($2),y                  ; 0x2002 <__heap_default_limit+0x1002>
    256e: 7a           	ply
    256f: e4 06        	cpx	$6                      ; 0x2006 <__heap_default_limit+0x1006>
    2571: d0 07        	bne	$257a <main+0x46e>
    2573: 4c 7e 27     	jmp	$277e <main+0x672>
    2576: a0 1e        	ldy	#$1e
    2578: b1 02        	lda	($2),y                  ; 0x2002 <__heap_default_limit+0x1002>
    257a: a6 1e        	ldx	$1e                     ; 0x201e <next_line+0x9>
    257c: e0 01        	cpx	#$1
    257e: 69 00        	adc	#$0
    2580: 85 1e        	sta	$1e                     ; 0x201e <next_line+0x9>
    2582: a2 00        	ldx	#$0
    2584: e4 1e        	cpx	$1e                     ; 0x201e <next_line+0x9>
    2586: d0 08        	bne	$2590 <main+0x484>
    2588: a0 19        	ldy	#$19
    258a: b1 02        	lda	($2),y                  ; 0x2002 <__heap_default_limit+0x1002>
    258c: c5 1a        	cmp	$1a                     ; 0x201a <next_line+0x5>
    258e: 80 02        	bra	$2592 <main+0x486>
    2590: e4 1e        	cpx	$1e                     ; 0x201e <next_line+0x9>
    2592: a4 1f        	ldy	$1f                     ; 0x201f <next_line+0xa>
    2594: b0 03        	bcs	$2599 <main+0x48d>
    2596: 4c 7e 27     	jmp	$277e <main+0x672>
    2599: a5 1e        	lda	$1e                     ; 0x201e <next_line+0x9>
    259b: d0 0f        	bne	$25ac <main+0x4a0>
    259d: a0 1b        	ldy	#$1b
    259f: b1 02        	lda	($2),y                  ; 0x2002 <__heap_default_limit+0x1002>
    25a1: 85 04        	sta	$4                      ; 0x2004 <__heap_default_limit+0x1004>
    25a3: a6 1a        	ldx	$1a                     ; 0x201a <next_line+0x5>
    25a5: e4 04        	cpx	$4                      ; 0x2004 <__heap_default_limit+0x1004>
    25a7: d0 03        	bne	$25ac <main+0x4a0>
    25a9: 4c bf 27     	jmp	$27bf <main+0x6b3>
    25ac: a9 01        	lda	#$1
    25ae: 29 01        	and	#$1
    25b0: a2 20        	ldx	#$20
    25b2: a8           	tay
    25b3: d0 02        	bne	$25b7 <main+0x4ab>
    25b5: a2 3e        	ldx	#$3e
    25b7: 8e 8a 7b     	stx	$7b8a                   ; 0x7b8a <s>
    25ba: a2 20        	ldx	#$20
    25bc: 8e 8b 7b     	stx	$7b8b                   ; 0x7b8b <s+0x1>
    25bf: a0 00        	ldy	#$0
    25c1: 80 04        	bra	$25c7 <main+0x4bb>
    25c3: 99 8c 7b     	sta	$7b8c,y                 ; 0x7b8c <s+0x2>
    25c6: c8           	iny
    25c7: 84 06        	sty	$6                      ; 0x2006 <__heap_default_limit+0x1006>
    25c9: 98           	tya
    25ca: 18           	clc
    25cb: 65 18        	adc	$18                     ; 0x2018 <next_line+0x3>
    25cd: 85 04        	sta	$4                      ; 0x2004 <__heap_default_limit+0x1004>
    25cf: a5 19        	lda	$19                     ; 0x2019 <next_line+0x4>
    25d1: 69 00        	adc	#$0
    25d3: 85 05        	sta	$5                      ; 0x2005 <__heap_default_limit+0x1005>
    25d5: a0 05        	ldy	#$5
    25d7: b1 04        	lda	($4),y                  ; 0x2004 <__heap_default_limit+0x1004>
    25d9: c9 a0        	cmp	#$a0
    25db: f0 0f        	beq	$25ec <main+0x4e0>
    25dd: aa           	tax
    25de: f0 0c        	beq	$25ec <main+0x4e0>
    25e0: a4 06        	ldy	$6                      ; 0x2006 <__heap_default_limit+0x1006>
    25e2: c0 10        	cpy	#$10
    25e4: d0 dd        	bne	$25c3 <main+0x4b7>
    25e6: a2 10        	ldx	#$10
    25e8: a9 12        	lda	#$12
    25ea: 80 07        	bra	$25f3 <main+0x4e7>
    25ec: 18           	clc
    25ed: a6 06        	ldx	$6                      ; 0x2006 <__heap_default_limit+0x1006>
    25ef: a5 06        	lda	$6                      ; 0x2006 <__heap_default_limit+0x1006>
    25f1: 69 02        	adc	#$2
    25f3: a8           	tay
    25f4: 18           	clc
    25f5: 69 10        	adc	#$10
    25f7: 86 04        	stx	$4                      ; 0x2004 <__heap_default_limit+0x1004>
    25f9: 38           	sec
    25fa: e5 04        	sbc	$4                      ; 0x2004 <__heap_default_limit+0x1004>
    25fc: 85 05        	sta	$5                      ; 0x2005 <__heap_default_limit+0x1005>
    25fe: 18           	clc
    25ff: 8a           	txa
    2600: 69 f0        	adc	#$f0
    2602: 85 04        	sta	$4                      ; 0x2004 <__heap_default_limit+0x1004>
    2604: 5a           	phy
    2605: fa           	plx
    2606: a5 05        	lda	$5                      ; 0x2005 <__heap_default_limit+0x1005>
    2608: 80 0c        	bra	$2616 <main+0x50a>
    260a: c8           	iny
    260b: a9 20        	lda	#$20
    260d: 9d 8a 7b     	sta	$7b8a,x                 ; 0x7b8a <s>
    2610: a5 05        	lda	$5                      ; 0x2005 <__heap_default_limit+0x1005>
    2612: e6 04        	inc	$4                      ; 0x2004 <__heap_default_limit+0x1004>
    2614: 5a           	phy
    2615: fa           	plx
    2616: e6 04        	inc	$4                      ; 0x2004 <__heap_default_limit+0x1004>
    2618: c6 04        	dec	$4                      ; 0x2004 <__heap_default_limit+0x1004>
    261a: d0 ee        	bne	$260a <main+0x4fe>
    261c: aa           	tax
    261d: e8           	inx
    261e: a8           	tay
    261f: 85 04        	sta	$4                      ; 0x2004 <__heap_default_limit+0x1004>
    2621: a9 20        	lda	#$20
    2623: 99 8a 7b     	sta	$7b8a,y                 ; 0x7b8a <s>
    2626: a5 04        	lda	$4                      ; 0x2004 <__heap_default_limit+0x1004>
    2628: 18           	clc
    2629: 69 02        	adc	#$2
    262b: a8           	tay
    262c: a9 5d        	lda	#$5d
    262e: 9d 8a 7b     	sta	$7b8a,x                 ; 0x7b8a <s>
    2631: a5 04        	lda	$4                      ; 0x2004 <__heap_default_limit+0x1004>
    2633: 18           	clc
    2634: 69 03        	adc	#$3
    2636: 85 06        	sta	$6                      ; 0x2006 <__heap_default_limit+0x1006>
    2638: a9 20        	lda	#$20
    263a: 99 8a 7b     	sta	$7b8a,y                 ; 0x7b8a <s>
    263d: a0 02        	ldy	#$2
    263f: b1 18        	lda	($18),y                 ; 0x2018 <next_line+0x3>
    2641: aa           	tax
    2642: 29 40        	and	#$40
    2644: d0 2b        	bne	$2671 <main+0x565>
    2646: 8a           	txa
    2647: 29 0f        	and	#$f
    2649: 85 07        	sta	$7                      ; 0x2007 <__heap_default_limit+0x1007>
    264b: a5 04        	lda	$4                      ; 0x2004 <__heap_default_limit+0x1004>
    264d: 18           	clc
    264e: 69 04        	adc	#$4
    2650: a8           	tay
    2651: a5 04        	lda	$4                      ; 0x2004 <__heap_default_limit+0x1004>
    2653: 18           	clc
    2654: 69 05        	adc	#$5
    2656: 85 04        	sta	$4                      ; 0x2004 <__heap_default_limit+0x1004>
    2658: a2 00        	ldx	#$0
    265a: a9 ff        	lda	#$ff
    265c: c6 07        	dec	$7                      ; 0x2007 <__heap_default_limit+0x1007>
    265e: c5 07        	cmp	$7                      ; 0x2007 <__heap_default_limit+0x1007>
    2660: d0 03        	bne	$2665 <main+0x559>
    2662: 4c c4 27     	jmp	$27c4 <main+0x6b8>
    2665: a5 07        	lda	$7                      ; 0x2007 <__heap_default_limit+0x1007>
    2667: e0 00        	cpx	#$0
    2669: f0 03        	beq	$266e <main+0x562>
    266b: 4c d1 27     	jmp	$27d1 <main+0x6c5>
    266e: 4c c8 27     	jmp	$27c8 <main+0x6bc>
    2671: 8a           	txa
    2672: 29 bf        	and	#$bf
    2674: a8           	tay
    2675: a5 04        	lda	$4                      ; 0x2004 <__heap_default_limit+0x1004>
    2677: 18           	clc
    2678: 69 04        	adc	#$4
    267a: 85 07        	sta	$7                      ; 0x2007 <__heap_default_limit+0x1007>
    267c: a5 04        	lda	$4                      ; 0x2004 <__heap_default_limit+0x1004>
    267e: 18           	clc
    267f: 69 05        	adc	#$5
    2681: aa           	tax
    2682: c0 10        	cpy	#$10
    2684: f0 03        	beq	$2689 <main+0x57d>
    2686: 4c ed 27     	jmp	$27ed <main+0x6e1>
    2689: 4c da 27     	jmp	$27da <main+0x6ce>
    268c: a6 06        	ldx	$6                      ; 0x2006 <__heap_default_limit+0x1006>
    268e: 9d 8a 7b     	sta	$7b8a,x                 ; 0x7b8a <s>
    2691: a9 45        	lda	#$45
    2693: 99 8a 7b     	sta	$7b8a,y                 ; 0x7b8a <s>
    2696: a9 4c        	lda	#$4c
    2698: a6 04        	ldx	$4                      ; 0x2004 <__heap_default_limit+0x1004>
    269a: 9d 8a 7b     	sta	$7b8a,x                 ; 0x7b8a <s>
    269d: a5 05        	lda	$5                      ; 0x2005 <__heap_default_limit+0x1005>
    269f: 18           	clc
    26a0: 69 06        	adc	#$6
    26a2: aa           	tax
    26a3: a5 05        	lda	$5                      ; 0x2005 <__heap_default_limit+0x1005>
    26a5: 18           	clc
    26a6: 69 07        	adc	#$7
    26a8: a8           	tay
    26a9: a9 20        	lda	#$20
    26ab: 9d 8a 7b     	sta	$7b8a,x                 ; 0x7b8a <s>
    26ae: a5 05        	lda	$5                      ; 0x2005 <__heap_default_limit+0x1005>
    26b0: 18           	clc
    26b1: 69 08        	adc	#$8
    26b3: aa           	tax
    26b4: a9 5d        	lda	#$5d
    26b6: 99 8a 7b     	sta	$7b8a,y                 ; 0x7b8a <s>
    26b9: 18           	clc
    26ba: a5 05        	lda	$5                      ; 0x2005 <__heap_default_limit+0x1005>
    26bc: 69 09        	adc	#$9
    26be: a8           	tay
    26bf: a9 20        	lda	#$20
    26c1: 9d 8a 7b     	sta	$7b8a,x                 ; 0x7b8a <s>
    26c4: 5a           	phy
    26c5: fa           	plx
    26c6: 9e 8a 7b     	stz	$7b8a,x                 ; 0x7b8a <s>
    26c9: a2 07        	ldx	#$7
    26cb: 86 04        	stx	$4                      ; 0x2004 <__heap_default_limit+0x1004>
    26cd: a9 01        	lda	#$1
    26cf: a4 21        	ldy	$21                     ; 0x2021 <_start>
    26d1: 31 1c        	and	($1c),y                 ; 0x201c <next_line+0x7>
    26d3: 29 01        	and	#$1
    26d5: d0 0f        	bne	$26e6 <main+0x5da>
    26d7: a0 02        	ldy	#$2
    26d9: b1 18        	lda	($18),y                 ; 0x2018 <next_line+0x3>
    26db: d0 03        	bne	$26e0 <main+0x5d4>
    26dd: 4c 14 28     	jmp	$2814 <main+0x708>
    26e0: a2 03        	ldx	#$3
    26e2: 86 04        	stx	$4                      ; 0x2004 <__heap_default_limit+0x1004>
    26e4: a4 21        	ldy	$21                     ; 0x2021 <_start>
    26e6: a9 f0        	lda	#$f0
    26e8: 25 2b        	and	$2b                     ; 0x202b <_start+0xa>
    26ea: 05 04        	ora	$4                      ; 0x2004 <__heap_default_limit+0x1004>
    26ec: a6 1e        	ldx	$1e                     ; 0x201e <next_line+0x9>
    26ee: d0 13        	bne	$2703 <main+0x5f7>
    26f0: 48           	pha
    26f1: 5a           	phy
    26f2: a0 1b        	ldy	#$1b
    26f4: b1 02        	lda	($2),y                  ; 0x2002 <__heap_default_limit+0x1002>
    26f6: 7a           	ply
    26f7: 85 04        	sta	$4                      ; 0x2004 <__heap_default_limit+0x1004>
    26f9: 68           	pla
    26fa: a6 1a        	ldx	$1a                     ; 0x201a <next_line+0x5>
    26fc: e4 04        	cpx	$4                      ; 0x2004 <__heap_default_limit+0x1004>
    26fe: d0 03        	bne	$2703 <main+0x5f7>
    2700: 4c fc 27     	jmp	$27fc <main+0x6f0>
    2703: 29 df        	and	#$df
    2705: 85 2b        	sta	$2b                     ; 0x202b <_start+0xa>
    2707: c8           	iny
    2708: a2 8a        	ldx	#$8a
    270a: 86 04        	stx	$4                      ; 0x2004 <__heap_default_limit+0x1004>
    270c: a2 7b        	ldx	#$7b
    270e: 86 05        	stx	$5                      ; 0x2005 <__heap_default_limit+0x1005>
    2710: 84 21        	sty	$21                     ; 0x2021 <_start>
    2712: 5a           	phy
    2713: fa           	plx
    2714: a0 1a        	ldy	#$1a
    2716: b1 02        	lda	($2),y                  ; 0x2002 <__heap_default_limit+0x1002>
    2718: 20 6d 68     	jsr	$686d <cputsxy>
    271b: a5 18        	lda	$18                     ; 0x2018 <next_line+0x3>
    271d: 18           	clc
    271e: 69 1e        	adc	#$1e
    2720: 85 04        	sta	$4                      ; 0x2004 <__heap_default_limit+0x1004>
    2722: a5 19        	lda	$19                     ; 0x2019 <next_line+0x4>
    2724: 69 00        	adc	#$0
    2726: 85 05        	sta	$5                      ; 0x2005 <__heap_default_limit+0x1005>
    2728: a0 1e        	ldy	#$1e
    272a: b1 18        	lda	($18),y                 ; 0x2018 <next_line+0x3>
    272c: 85 06        	sta	$6                      ; 0x2006 <__heap_default_limit+0x1006>
    272e: a0 01        	ldy	#$1
    2730: b1 04        	lda	($4),y                  ; 0x2004 <__heap_default_limit+0x1004>
    2732: d0 07        	bne	$273b <main+0x62f>
    2734: a6 06        	ldx	$6                      ; 0x2006 <__heap_default_limit+0x1006>
    2736: d0 03        	bne	$273b <main+0x62f>
    2738: 4c 7c 2c     	jmp	$2c7c <donehypclosefile3+0x85>
    273b: a4 06        	ldy	$6                      ; 0x2006 <__heap_default_limit+0x1006>
    273d: 64 04        	stz	$4                      ; 0x2004 <__heap_default_limit+0x1004>
    273f: 64 05        	stz	$5                      ; 0x2005 <__heap_default_limit+0x1005>
    2741: a2 05        	ldx	#$5
    2743: 86 06        	stx	$6                      ; 0x2006 <__heap_default_limit+0x1006>
    2745: aa           	tax
    2746: 98           	tya
    2747: 20 e1 55     	jsr	$55e1 <csputdec>
    274a: a5 1e        	lda	$1e                     ; 0x201e <next_line+0x9>
    274c: d0 0f        	bne	$275d <main+0x651>
    274e: a0 1b        	ldy	#$1b
    2750: b1 02        	lda	($2),y                  ; 0x2002 <__heap_default_limit+0x1002>
    2752: 85 04        	sta	$4                      ; 0x2004 <__heap_default_limit+0x1004>
    2754: a6 1a        	ldx	$1a                     ; 0x201a <next_line+0x5>
    2756: e4 04        	cpx	$4                      ; 0x2004 <__heap_default_limit+0x1004>
    2758: d0 03        	bne	$275d <main+0x651>
    275a: 4c 0f 28     	jmp	$280f <main+0x703>
    275d: a9 01        	lda	#$1
    275f: 29 01        	and	#$1
    2761: 85 18        	sta	$18                     ; 0x2018 <next_line+0x3>
    2763: a9 20        	lda	#$20
    2765: 20 bc 67     	jsr	$67bc <cputc>
    2768: a9 20        	lda	#$20
    276a: a6 18        	ldx	$18                     ; 0x2018 <next_line+0x3>
    276c: d0 02        	bne	$2770 <main+0x664>
    276e: a9 3c        	lda	#$3c
    2770: 20 bc 67     	jsr	$67bc <cputc>
    2773: a9 f0        	lda	#$f0
    2775: 25 2b        	and	$2b                     ; 0x202b <_start+0xa>
    2777: 09 03        	ora	#$3
    2779: 85 2b        	sta	$2b                     ; 0x202b <_start+0xa>
    277b: 4c 2d 25     	jmp	$252d <main+0x421>
    277e: a5 2b        	lda	$2b                     ; 0x202b <_start+0xa>
    2780: 29 df        	and	#$df
    2782: 85 2b        	sta	$2b                     ; 0x202b <_start+0xa>
    2784: 5a           	phy
    2785: a0 1c        	ldy	#$1c
    2787: b1 02        	lda	($2),y                  ; 0x2002 <__heap_default_limit+0x1002>
    2789: 7a           	ply
    278a: 85 16        	sta	$16                     ; 0x2016 <next_line+0x1>
    278c: 18           	clc
    278d: 5a           	phy
    278e: a0 20        	ldy	#$20
    2790: b1 02        	lda	($2),y                  ; 0x2002 <__heap_default_limit+0x1002>
    2792: 69 02        	adc	#$2
    2794: 91 02        	sta	($2),y                  ; 0x2002 <__heap_default_limit+0x1002>
    2796: 18           	clc
    2797: c8           	iny
    2798: b1 02        	lda	($2),y                  ; 0x2002 <__heap_default_limit+0x1002>
    279a: 69 11        	adc	#$11
    279c: 91 02        	sta	($2),y                  ; 0x2002 <__heap_default_limit+0x1002>
    279e: 7a           	ply
    279f: 84 04        	sty	$4                      ; 0x2004 <__heap_default_limit+0x1004>
    27a1: a9 4a        	lda	#$4a
    27a3: 18           	clc
    27a4: 65 04        	adc	$4                      ; 0x2004 <__heap_default_limit+0x1004>
    27a6: 85 18        	sta	$18                     ; 0x2018 <next_line+0x3>
    27a8: a9 7c        	lda	#$7c
    27aa: 69 00        	adc	#$0
    27ac: 85 19        	sta	$19                     ; 0x2019 <next_line+0x4>
    27ae: a5 1f        	lda	$1f                     ; 0x201f <next_line+0xa>
    27b0: 18           	clc
    27b1: 69 70        	adc	#$70
    27b3: e6 20        	inc	$20                     ; 0x2020 <next_line+0xb>
    27b5: f0 03        	beq	$27ba <main+0x6ae>
    27b7: 4c 2b 23     	jmp	$232b <main+0x21f>
    27ba: e6 16        	inc	$16                     ; 0x2016 <next_line+0x1>
    27bc: 4c 2b 23     	jmp	$232b <main+0x21f>
    27bf: a9 00        	lda	#$0
    27c1: 4c ae 25     	jmp	$25ae <main+0x4a2>
    27c4: ca           	dex
    27c5: 4c 65 26     	jmp	$2665 <main+0x559>
    27c8: c9 05        	cmp	#$5
    27ca: 90 09        	bcc	$27d5 <main+0x6c9>
    27cc: a9 44        	lda	#$44
    27ce: 4c 8c 26     	jmp	$268c <main+0x580>
    27d1: e0 00        	cpx	#$0
    27d3: b0 f7        	bcs	$27cc <main+0x6c0>
    27d5: 0a           	asl
    27d6: aa           	tax
    27d7: 7c 5c 70     	jmp	($705c,x)               ; 0x705c <__zp_data_load_start+0x5045>
    27da: a9 44        	lda	#$44
    27dc: a4 06        	ldy	$6                      ; 0x2006 <__heap_default_limit+0x1006>
    27de: 99 8a 7b     	sta	$7b8a,y                 ; 0x7b8a <s>
    27e1: a9 49        	lda	#$49
    27e3: a4 07        	ldy	$7                      ; 0x2007 <__heap_default_limit+0x1007>
    27e5: 99 8a 7b     	sta	$7b8a,y                 ; 0x7b8a <s>
    27e8: a9 52        	lda	#$52
    27ea: 4c 9a 26     	jmp	$269a <main+0x58e>
    27ed: a9 20        	lda	#$20
    27ef: a4 06        	ldy	$6                      ; 0x2006 <__heap_default_limit+0x1006>
    27f1: 99 8a 7b     	sta	$7b8a,y                 ; 0x7b8a <s>
    27f4: a4 07        	ldy	$7                      ; 0x2007 <__heap_default_limit+0x1007>
    27f6: 99 8a 7b     	sta	$7b8a,y                 ; 0x7b8a <s>
    27f9: 4c 9a 26     	jmp	$269a <main+0x58e>
    27fc: 48           	pha
    27fd: 5a           	phy
    27fe: a0 1c        	ldy	#$1c
    2800: b1 02        	lda	($2),y                  ; 0x2002 <__heap_default_limit+0x1002>
    2802: 7a           	ply
    2803: aa           	tax
    2804: 68           	pla
    2805: e0 00        	cpx	#$0
    2807: f0 03        	beq	$280c <main+0x700>
    2809: 4c 03 27     	jmp	$2703 <main+0x5f7>
    280c: 4c 8a 2c     	jmp	$2c8a <donehypclosefile3+0x93>
    280f: a9 00        	lda	#$0
    2811: 4c 5f 27     	jmp	$275f <main+0x653>
    2814: a2 0c        	ldx	#$c
    2816: 4c e2 26     	jmp	$26e2 <main+0x5d6>
    2819: a9 00        	lda	#$0
    281b: 48           	pha
    281c: a0 18        	ldy	#$18
    281e: b1 02        	lda	($2),y                  ; 0x2002 <__heap_default_limit+0x1002>
    2820: 85 18        	sta	$18                     ; 0x2018 <next_line+0x3>
    2822: 68           	pla
    2823: a6 04        	ldx	$4                      ; 0x2004 <__heap_default_limit+0x1004>
    2825: 86 1d        	stx	$1d                     ; 0x201d <next_line+0x8>
    2827: a6 18        	ldx	$18                     ; 0x2018 <next_line+0x3>
    2829: 20 5d 5b     	jsr	$5b5d <shortcuts>
    282c: a0 01        	ldy	#$1
    282e: ae 10 d6     	ldx	$d610                   ; 0xd610 <__heap_start+0x55f6>
    2831: d0 0b        	bne	$283e <main+0x732>
    2833: ad 11 d6     	lda	$d611                   ; 0xd611 <__heap_start+0x55f7>
    2836: 85 04        	sta	$4                      ; 0x2004 <__heap_default_limit+0x1004>
    2838: c5 1d        	cmp	$1d                     ; 0x201d <next_line+0x8>
    283a: f0 f2        	beq	$282e <main+0x722>
    283c: 80 e5        	bra	$2823 <main+0x717>
    283e: 86 20        	stx	$20                     ; 0x2020 <next_line+0xb>
    2840: 8a           	txa
    2841: 38           	sec
    2842: e9 f1        	sbc	#$f1
    2844: aa           	tax
    2845: a5 1d        	lda	$1d                     ; 0x201d <next_line+0x8>
    2847: 5a           	phy
    2848: a0 01        	ldy	#$1
    284a: b0 02        	bcs	$284e <main+0x742>
    284c: a0 00        	ldy	#$0
    284e: 84 09        	sty	$9                      ; 0x2009 <__heap_default_limit+0x1009>
    2850: 7a           	ply
    2851: e9 00        	sbc	#$0
    2853: 85 0a        	sta	$a                      ; 0x200a <__heap_default_limit+0x100a>
    2855: a5 18        	lda	$18                     ; 0x2018 <next_line+0x3>
    2857: 85 1c        	sta	$1c                     ; 0x201c <next_line+0x7>
    2859: 06 1c        	asl	$1c                     ; 0x201c <next_line+0x7>
    285b: 64 1b        	stz	$1b                     ; 0x201b <next_line+0x6>
    285d: 26 1b        	rol	$1b                     ; 0x201b <next_line+0x6>
    285f: a9 01        	lda	#$1
    2861: b0 02        	bcs	$2865 <main+0x759>
    2863: a9 00        	lda	#$0
    2865: 85 1f        	sta	$1f                     ; 0x201f <next_line+0xa>
    2867: a5 1b        	lda	$1b                     ; 0x201b <next_line+0x6>
    2869: 85 08        	sta	$8                      ; 0x2008 <__heap_default_limit+0x1008>
    286b: a5 1c        	lda	$1c                     ; 0x201c <next_line+0x7>
    286d: 85 1a        	sta	$1a                     ; 0x201a <next_line+0x5>
    286f: 06 1a        	asl	$1a                     ; 0x201a <next_line+0x5>
    2871: a5 1b        	lda	$1b                     ; 0x201b <next_line+0x6>
    2873: 85 17        	sta	$17                     ; 0x2017 <next_line+0x2>
    2875: 26 17        	rol	$17                     ; 0x2017 <next_line+0x2>
    2877: a9 01        	lda	#$1
    2879: b0 02        	bcs	$287d <main+0x771>
    287b: a9 00        	lda	#$0
    287d: 85 21        	sta	$21                     ; 0x2021 <_start>
    287f: 06 1a        	asl	$1a                     ; 0x201a <next_line+0x5>
    2881: 26 17        	rol	$17                     ; 0x2017 <next_line+0x2>
    2883: a9 01        	lda	#$1
    2885: b0 02        	bcs	$2889 <main+0x77d>
    2887: a9 00        	lda	#$0
    2889: 85 16        	sta	$16                     ; 0x2016 <next_line+0x1>
    288b: a5 1a        	lda	$1a                     ; 0x201a <next_line+0x5>
    288d: 85 1e        	sta	$1e                     ; 0x201e <next_line+0x9>
    288f: a5 17        	lda	$17                     ; 0x2017 <next_line+0x2>
    2891: 85 1b        	sta	$1b                     ; 0x201b <next_line+0x6>
    2893: 06 1a        	asl	$1a                     ; 0x201a <next_line+0x5>
    2895: 26 17        	rol	$17                     ; 0x2017 <next_line+0x2>
    2897: a5 1a        	lda	$1a                     ; 0x201a <next_line+0x5>
    2899: 85 04        	sta	$4                      ; 0x2004 <__heap_default_limit+0x1004>
    289b: a5 17        	lda	$17                     ; 0x2017 <next_line+0x2>
    289d: 06 04        	asl	$4                      ; 0x2004 <__heap_default_limit+0x1004>
    289f: 2a           	rol
    28a0: 06 04        	asl	$4                      ; 0x2004 <__heap_default_limit+0x1004>
    28a2: 2a           	rol
    28a3: 06 04        	asl	$4                      ; 0x2004 <__heap_default_limit+0x1004>
    28a5: 5a           	phy
    28a6: 48           	pha
    28a7: a5 04        	lda	$4                      ; 0x2004 <__heap_default_limit+0x1004>
    28a9: a0 20        	ldy	#$20
    28ab: 91 02        	sta	($2),y                  ; 0x2002 <__heap_default_limit+0x1002>
    28ad: 68           	pla
    28ae: 2a           	rol
    28af: c8           	iny
    28b0: 91 02        	sta	($2),y                  ; 0x2002 <__heap_default_limit+0x1002>
    28b2: 9c 10 d6     	stz	$d610                   ; 0xd610 <__heap_start+0x55f6>
    28b5: 64 33        	stz	$33                     ; 0x2033 <__do_init_stack+0x4>
    28b7: 64 34        	stz	$34                     ; 0x2034 <__do_init_stack+0x5>
    28b9: 9c 20 d0     	stz	$d020                   ; 0xd020 <__heap_start+0x5006>
    28bc: a5 18        	lda	$18                     ; 0x2018 <next_line+0x3>
    28be: a0 18        	ldy	#$18
    28c0: 91 02        	sta	($2),y                  ; 0x2002 <__heap_default_limit+0x1002>
    28c2: 7a           	ply
    28c3: 49 01        	eor	#$1
    28c5: 85 19        	sta	$19                     ; 0x2019 <next_line+0x4>
    28c7: a5 0a        	lda	$a                      ; 0x200a <__heap_default_limit+0x100a>
    28c9: f0 03        	beq	$28ce <main+0x7c2>
    28cb: 4c 86 2a     	jmp	$2a86 <main+0x97a>
    28ce: 8a           	txa
    28cf: e0 19        	cpx	#$19
    28d1: 90 03        	bcc	$28d6 <main+0x7ca>
    28d3: 4c 90 2a     	jmp	$2a90 <main+0x984>
    28d6: 0a           	asl
    28d7: aa           	tax
    28d8: 7c 72 70     	jmp	($7072,x)               ; 0x7072 <__zp_data_load_start+0x505b>
    28db: a6 08        	ldx	$8                      ; 0x2008 <__heap_default_limit+0x1008>
    28dd: 86 17        	stx	$17                     ; 0x2017 <next_line+0x2>
    28df: a2 00        	ldx	#$0
    28e1: a9 14        	lda	#$14
    28e3: 20 5d 5b     	jsr	$5b5d <shortcuts>
    28e6: 64 18        	stz	$18                     ; 0x2018 <next_line+0x3>
    28e8: a0 18        	ldy	#$18
    28ea: b1 02        	lda	($2),y                  ; 0x2002 <__heap_default_limit+0x1002>
    28ec: 85 16        	sta	$16                     ; 0x2016 <next_line+0x1>
    28ee: 4c 37 29     	jmp	$2937 <main+0x82b>
    28f1: e6 18        	inc	$18                     ; 0x2018 <next_line+0x3>
    28f3: 4c 37 29     	jmp	$2937 <main+0x82b>
    28f6: 20 75 67     	jsr	$6775 <sidbong>
    28f9: a2 89        	ldx	#$89
    28fb: 86 04        	stx	$4                      ; 0x2004 <__heap_default_limit+0x1004>
    28fd: a2 75        	ldx	#$75
    28ff: 86 05        	stx	$5                      ; 0x2005 <__heap_default_limit+0x1005>
    2901: a2 78        	ldx	#$78
    2903: 86 06        	stx	$6                      ; 0x2006 <__heap_default_limit+0x1006>
    2905: a2 77        	ldx	#$77
    2907: 86 07        	stx	$7                      ; 0x2007 <__heap_default_limit+0x1007>
    2909: a2 2a        	ldx	#$2a
    290b: 86 08        	stx	$8                      ; 0x2008 <__heap_default_limit+0x1008>
    290d: a2 73        	ldx	#$73
    290f: 86 09        	stx	$9                      ; 0x2009 <__heap_default_limit+0x1009>
    2911: 64 0a        	stz	$a                      ; 0x200a <__heap_default_limit+0x100a>
    2913: 64 0b        	stz	$b                      ; 0x200b <__heap_default_limit+0x100b>
    2915: 64 0c        	stz	$c                      ; 0x200c <__heap_default_limit+0x100c>
    2917: a2 00        	ldx	#$0
    2919: 8a           	txa
    291a: 20 05 59     	jsr	$5905 <messagebox>
    291d: 80 18        	bra	$2937 <main+0x82b>
    291f: 64 18        	stz	$18                     ; 0x2018 <next_line+0x3>
    2921: a5 19        	lda	$19                     ; 0x2019 <next_line+0x4>
    2923: f0 12        	beq	$2937 <main+0x82b>
    2925: a6 19        	ldx	$19                     ; 0x2019 <next_line+0x4>
    2927: ca           	dex
    2928: 86 18        	stx	$18                     ; 0x2018 <next_line+0x3>
    292a: 80 0b        	bra	$2937 <main+0x82b>
    292c: a6 18        	ldx	$18                     ; 0x2018 <next_line+0x3>
    292e: a9 01        	lda	#$1
    2930: 20 b4 6b     	jsr	$6bb4 <__ashlqi3>
    2933: 45 30        	eor	$30                     ; 0x2030 <__do_init_stack+0x1>
    2935: 85 30        	sta	$30                     ; 0x2030 <__do_init_stack+0x1>
    2937: a2 46        	ldx	#$46
    2939: 86 04        	stx	$4                      ; 0x2004 <__heap_default_limit+0x1004>
    293b: a2 14        	ldx	#$14
    293d: 86 05        	stx	$5                      ; 0x2005 <__heap_default_limit+0x1005>
    293f: a2 01        	ldx	#$1
    2941: 86 06        	stx	$6                      ; 0x2006 <__heap_default_limit+0x1006>
    2943: a2 04        	ldx	#$4
    2945: a9 0a        	lda	#$a
    2947: 20 7a 57     	jsr	$577a <mcbox>
    294a: a9 20        	lda	#$20
    294c: 05 2b        	ora	$2b                     ; 0x202b <_start+0xa>
    294e: 85 2b        	sta	$2b                     ; 0x202b <_start+0xa>
    2950: a2 c8        	ldx	#$c8
    2952: 86 04        	stx	$4                      ; 0x2004 <__heap_default_limit+0x1004>
    2954: a2 71        	ldx	#$71
    2956: 86 05        	stx	$5                      ; 0x2005 <__heap_default_limit+0x1005>
    2958: a2 04        	ldx	#$4
    295a: a9 0e        	lda	#$e
    295c: 20 64 57     	jsr	$5764 <mcputsxy>
    295f: a2 98        	ldx	#$98
    2961: 86 04        	stx	$4                      ; 0x2004 <__heap_default_limit+0x1004>
    2963: a2 74        	ldx	#$74
    2965: 86 05        	stx	$5                      ; 0x2005 <__heap_default_limit+0x1005>
    2967: a2 04        	ldx	#$4
    2969: a9 1f        	lda	#$1f
    296b: 20 64 57     	jsr	$5764 <mcputsxy>
    296e: a2 44        	ldx	#$44
    2970: 86 04        	stx	$4                      ; 0x2004 <__heap_default_limit+0x1004>
    2972: a2 75        	ldx	#$75
    2974: 86 05        	stx	$5                      ; 0x2005 <__heap_default_limit+0x1005>
    2976: a2 04        	ldx	#$4
    2978: a9 28        	lda	#$28
    297a: 20 64 57     	jsr	$5764 <mcputsxy>
    297d: a9 df        	lda	#$df
    297f: 25 2b        	and	$2b                     ; 0x202b <_start+0xa>
    2981: 85 2b        	sta	$2b                     ; 0x202b <_start+0xa>
    2983: a2 a0        	ldx	#$a0
    2985: 86 04        	stx	$4                      ; 0x2004 <__heap_default_limit+0x1004>
    2987: a2 74        	ldx	#$74
    2989: 86 05        	stx	$5                      ; 0x2005 <__heap_default_limit+0x1005>
    298b: a2 10        	ldx	#$10
    298d: a9 17        	lda	#$17
    298f: 20 64 57     	jsr	$5764 <mcputsxy>
    2992: a9 20        	lda	#$20
    2994: 05 2b        	ora	$2b                     ; 0x202b <_start+0xa>
    2996: 85 2b        	sta	$2b                     ; 0x202b <_start+0xa>
    2998: a2 01        	ldx	#$1
    299a: 86 04        	stx	$4                      ; 0x2004 <__heap_default_limit+0x1004>
    299c: a2 74        	ldx	#$74
    299e: 86 05        	stx	$5                      ; 0x2005 <__heap_default_limit+0x1005>
    29a0: a2 12        	ldx	#$12
    29a2: a9 24        	lda	#$24
    29a4: 20 64 57     	jsr	$5764 <mcputsxy>
    29a7: a9 df        	lda	#$df
    29a9: 25 2b        	and	$2b                     ; 0x202b <_start+0xa>
    29ab: 85 2b        	sta	$2b                     ; 0x202b <_start+0xa>
    29ad: a6 18        	ldx	$18                     ; 0x2018 <next_line+0x3>
    29af: e0 05        	cpx	#$5
    29b1: 90 02        	bcc	$29b5 <main+0x8a9>
    29b3: a2 04        	ldx	#$4
    29b5: a5 30        	lda	$30                     ; 0x2030 <__do_init_stack+0x1>
    29b7: a0 46        	ldy	#$46
    29b9: 84 04        	sty	$4                      ; 0x2004 <__heap_default_limit+0x1004>
    29bb: a0 73        	ldy	#$73
    29bd: 84 05        	sty	$5                      ; 0x2005 <__heap_default_limit+0x1005>
    29bf: 86 06        	stx	$6                      ; 0x2006 <__heap_default_limit+0x1006>
    29c1: 64 07        	stz	$7                      ; 0x2007 <__heap_default_limit+0x1007>
    29c3: 86 18        	stx	$18                     ; 0x2018 <next_line+0x3>
    29c5: a2 01        	ldx	#$1
    29c7: 20 e5 5e     	jsr	$5ee5 <optionstring>
    29ca: a5 30        	lda	$30                     ; 0x2030 <__do_init_stack+0x1>
    29cc: a2 51        	ldx	#$51
    29ce: 86 04        	stx	$4                      ; 0x2004 <__heap_default_limit+0x1004>
    29d0: a2 78        	ldx	#$78
    29d2: 86 05        	stx	$5                      ; 0x2005 <__heap_default_limit+0x1005>
    29d4: a6 18        	ldx	$18                     ; 0x2018 <next_line+0x3>
    29d6: 86 06        	stx	$6                      ; 0x2006 <__heap_default_limit+0x1006>
    29d8: a2 01        	ldx	#$1
    29da: 86 07        	stx	$7                      ; 0x2007 <__heap_default_limit+0x1007>
    29dc: e8           	inx
    29dd: 20 e5 5e     	jsr	$5ee5 <optionstring>
    29e0: a5 30        	lda	$30                     ; 0x2030 <__do_init_stack+0x1>
    29e2: a2 64        	ldx	#$64
    29e4: 86 04        	stx	$4                      ; 0x2004 <__heap_default_limit+0x1004>
    29e6: a2 71        	ldx	#$71
    29e8: 86 05        	stx	$5                      ; 0x2005 <__heap_default_limit+0x1005>
    29ea: a6 18        	ldx	$18                     ; 0x2018 <next_line+0x3>
    29ec: 86 06        	stx	$6                      ; 0x2006 <__heap_default_limit+0x1006>
    29ee: a2 02        	ldx	#$2
    29f0: 86 07        	stx	$7                      ; 0x2007 <__heap_default_limit+0x1007>
    29f2: a2 04        	ldx	#$4
    29f4: 20 e5 5e     	jsr	$5ee5 <optionstring>
    29f7: a5 30        	lda	$30                     ; 0x2030 <__do_init_stack+0x1>
    29f9: a2 0c        	ldx	#$c
    29fb: 86 04        	stx	$4                      ; 0x2004 <__heap_default_limit+0x1004>
    29fd: a2 73        	ldx	#$73
    29ff: 86 05        	stx	$5                      ; 0x2005 <__heap_default_limit+0x1005>
    2a01: 48           	pha
    2a02: a5 04        	lda	$4                      ; 0x2004 <__heap_default_limit+0x1004>
    2a04: a0 21        	ldy	#$21
    2a06: 91 02        	sta	($2),y                  ; 0x2002 <__heap_default_limit+0x1002>
    2a08: a5 05        	lda	$5                      ; 0x2005 <__heap_default_limit+0x1005>
    2a0a: c8           	iny
    2a0b: 91 02        	sta	($2),y                  ; 0x2002 <__heap_default_limit+0x1002>
    2a0d: 88           	dey
    2a0e: b1 02        	lda	($2),y                  ; 0x2002 <__heap_default_limit+0x1002>
    2a10: 85 04        	sta	$4                      ; 0x2004 <__heap_default_limit+0x1004>
    2a12: c8           	iny
    2a13: b1 02        	lda	($2),y                  ; 0x2002 <__heap_default_limit+0x1002>
    2a15: 85 05        	sta	$5                      ; 0x2005 <__heap_default_limit+0x1005>
    2a17: 68           	pla
    2a18: a6 18        	ldx	$18                     ; 0x2018 <next_line+0x3>
    2a1a: 86 06        	stx	$6                      ; 0x2006 <__heap_default_limit+0x1006>
    2a1c: a2 03        	ldx	#$3
    2a1e: 86 07        	stx	$7                      ; 0x2007 <__heap_default_limit+0x1007>
    2a20: a2 08        	ldx	#$8
    2a22: 20 e5 5e     	jsr	$5ee5 <optionstring>
    2a25: a5 30        	lda	$30                     ; 0x2030 <__do_init_stack+0x1>
    2a27: 48           	pha
    2a28: a0 21        	ldy	#$21
    2a2a: b1 02        	lda	($2),y                  ; 0x2002 <__heap_default_limit+0x1002>
    2a2c: 85 04        	sta	$4                      ; 0x2004 <__heap_default_limit+0x1004>
    2a2e: c8           	iny
    2a2f: b1 02        	lda	($2),y                  ; 0x2002 <__heap_default_limit+0x1002>
    2a31: 85 05        	sta	$5                      ; 0x2005 <__heap_default_limit+0x1005>
    2a33: 68           	pla
    2a34: a6 18        	ldx	$18                     ; 0x2018 <next_line+0x3>
    2a36: 86 19        	stx	$19                     ; 0x2019 <next_line+0x4>
    2a38: a6 18        	ldx	$18                     ; 0x2018 <next_line+0x3>
    2a3a: 86 06        	stx	$6                      ; 0x2006 <__heap_default_limit+0x1006>
    2a3c: a2 04        	ldx	#$4
    2a3e: 86 07        	stx	$7                      ; 0x2007 <__heap_default_limit+0x1007>
    2a40: a2 10        	ldx	#$10
    2a42: 20 e5 5e     	jsr	$5ee5 <optionstring>
    2a45: 20 f2 69     	jsr	$69f2 <cgetc>
    2a48: c9 91        	cmp	#$91
    2a4a: d0 03        	bne	$2a4f <main+0x943>
    2a4c: 4c 1f 29     	jmp	$291f <main+0x813>
    2a4f: c9 9d        	cmp	#$9d
    2a51: d0 03        	bne	$2a56 <main+0x94a>
    2a53: 4c 1f 29     	jmp	$291f <main+0x813>
    2a56: c9 03        	cmp	#$3
    2a58: d0 03        	bne	$2a5d <main+0x951>
    2a5a: 4c f6 28     	jmp	$28f6 <main+0x7ea>
    2a5d: c9 11        	cmp	#$11
    2a5f: d0 03        	bne	$2a64 <main+0x958>
    2a61: 4c f1 28     	jmp	$28f1 <main+0x7e5>
    2a64: c9 1b        	cmp	#$1b
    2a66: d0 03        	bne	$2a6b <main+0x95f>
    2a68: 4c f6 28     	jmp	$28f6 <main+0x7ea>
    2a6b: c9 1d        	cmp	#$1d
    2a6d: d0 03        	bne	$2a72 <main+0x966>
    2a6f: 4c f1 28     	jmp	$28f1 <main+0x7e5>
    2a72: c9 20        	cmp	#$20
    2a74: d0 03        	bne	$2a79 <main+0x96d>
    2a76: 4c 2c 29     	jmp	$292c <main+0x820>
    2a79: c9 0d        	cmp	#$d
    2a7b: d0 03        	bne	$2a80 <main+0x974>
    2a7d: 4c e5 39     	jmp	$39e5 <donehypclosefile3+0xdee>
    2a80: 20 75 67     	jsr	$6775 <sidbong>
    2a83: 4c 37 29     	jmp	$2937 <main+0x82b>
    2a86: a5 0a        	lda	$a                      ; 0x200a <__heap_default_limit+0x100a>
    2a88: c9 00        	cmp	#$0
    2a8a: 8a           	txa
    2a8b: b0 03        	bcs	$2a90 <main+0x984>
    2a8d: 4c d6 28     	jmp	$28d6 <main+0x7ca>
    2a90: a5 1d        	lda	$1d                     ; 0x201d <next_line+0x8>
    2a92: 5a           	phy
    2a93: a4 09        	ldy	$9                      ; 0x2009 <__heap_default_limit+0x1009>
    2a95: c0 01        	cpy	#$1
    2a97: 7a           	ply
    2a98: e9 01        	sbc	#$1
    2a9a: f0 03        	beq	$2a9f <main+0x993>
    2a9c: 4c 1f 2b     	jmp	$2b1f <main+0xa13>
    2a9f: e0 0a        	cpx	#$a
    2aa1: b0 03        	bcs	$2aa6 <main+0x99a>
    2aa3: 4c 26 2b     	jmp	$2b26 <main+0xa1a>
    2aa6: a5 1d        	lda	$1d                     ; 0x201d <next_line+0x8>
    2aa8: 5a           	phy
    2aa9: a4 09        	ldy	$9                      ; 0x2009 <__heap_default_limit+0x1009>
    2aab: c0 01        	cpy	#$1
    2aad: 7a           	ply
    2aae: e9 02        	sbc	#$2
    2ab0: f0 03        	beq	$2ab5 <main+0x9a9>
    2ab2: 4c a2 2c     	jmp	$2ca2 <donehypclosefile3+0xab>
    2ab5: 8a           	txa
    2ab6: e0 0a        	cpx	#$a
    2ab8: b0 03        	bcs	$2abd <main+0x9b1>
    2aba: 4c aa 2c     	jmp	$2caa <donehypclosefile3+0xb3>
    2abd: a5 20        	lda	$20                     ; 0x2020 <next_line+0xb>
    2abf: 38           	sec
    2ac0: e9 1b        	sbc	#$1b
    2ac2: aa           	tax
    2ac3: a5 1d        	lda	$1d                     ; 0x201d <next_line+0x8>
    2ac5: e9 00        	sbc	#$0
    2ac7: f0 03        	beq	$2acc <main+0x9c0>
    2ac9: 4c c1 2e     	jmp	$2ec1 <donehypclosefile3+0x2ca>
    2acc: 8a           	txa
    2acd: e0 06        	cpx	#$6
    2acf: b0 03        	bcs	$2ad4 <main+0x9c8>
    2ad1: 4c c9 2e     	jmp	$2ec9 <donehypclosefile3+0x2d2>
    2ad4: a5 20        	lda	$20                     ; 0x2020 <next_line+0xb>
    2ad6: 38           	sec
    2ad7: e9 f2        	sbc	#$f2
    2ad9: aa           	tax
    2ada: a5 1d        	lda	$1d                     ; 0x201d <next_line+0x8>
    2adc: e9 08        	sbc	#$8
    2ade: f0 03        	beq	$2ae3 <main+0x9d7>
    2ae0: 4c 90 3a     	jmp	$3a90 <donehypclosefile3+0xe99>
    2ae3: 8a           	txa
    2ae4: e0 07        	cpx	#$7
    2ae6: b0 03        	bcs	$2aeb <main+0x9df>
    2ae8: 4c 98 3a     	jmp	$3a98 <donehypclosefile3+0xea1>
    2aeb: a5 1d        	lda	$1d                     ; 0x201d <next_line+0x8>
    2aed: d0 09        	bne	$2af8 <main+0x9ec>
    2aef: a6 20        	ldx	$20                     ; 0x2020 <next_line+0xb>
    2af1: e0 03        	cpx	#$3
    2af3: d0 03        	bne	$2af8 <main+0x9ec>
    2af5: 4c ce 2e     	jmp	$2ece <donehypclosefile3+0x2d7>
    2af8: a5 1d        	lda	$1d                     ; 0x201d <next_line+0x8>
    2afa: d0 09        	bne	$2b05 <main+0x9f9>
    2afc: a6 20        	ldx	$20                     ; 0x2020 <next_line+0xb>
    2afe: e0 09        	cpx	#$9
    2b00: d0 03        	bne	$2b05 <main+0x9f9>
    2b02: 4c bc 40     	jmp	$40bc <donehypfindfirst4+0x56d>
    2b05: a6 20        	ldx	$20                     ; 0x2020 <next_line+0xb>
    2b07: a5 1d        	lda	$1d                     ; 0x201d <next_line+0x8>
    2b09: d0 03        	bne	$2b0e <main+0xa02>
    2b0b: 4c c1 40     	jmp	$40c1 <donehypfindfirst4+0x572>
    2b0e: a5 1d        	lda	$1d                     ; 0x201d <next_line+0x8>
    2b10: d0 03        	bne	$2b15 <main+0xa09>
    2b12: 4c d0 43     	jmp	$43d0 <donehyprmfile5+0x1f>
    2b15: a5 1d        	lda	$1d                     ; 0x201d <next_line+0x8>
    2b17: f0 03        	beq	$2b1c <main+0xa10>
    2b19: 4c 47 44     	jmp	$4447 <donehyprmfile5+0x96>
    2b1c: 4c 40 44     	jmp	$4440 <donehyprmfile5+0x8f>
    2b1f: c9 00        	cmp	#$0
    2b21: 90 03        	bcc	$2b26 <main+0xa1a>
    2b23: 4c a6 2a     	jmp	$2aa6 <main+0x99a>
    2b26: 8a           	txa
    2b27: 0a           	asl
    2b28: aa           	tax
    2b29: 7c a4 70     	jmp	($70a4,x)               ; 0x70a4 <__zp_data_load_start+0x508d>
    2b2c: 84 17        	sty	$17                     ; 0x2017 <next_line+0x2>
    2b2e: a0 00        	ldy	#$0
    2b30: 84 18        	sty	$18                     ; 0x2018 <next_line+0x3>
    2b32: a0 1c        	ldy	#$1c
    2b34: 84 19        	sty	$19                     ; 0x2019 <next_line+0x4>
    2b36: a0 00        	ldy	#$0
    2b38: 84 04        	sty	$4                      ; 0x2004 <__heap_default_limit+0x1004>
    2b3a: a0 1c        	ldy	#$1c
    2b3c: 84 05        	sty	$5                      ; 0x2005 <__heap_default_limit+0x1005>
    2b3e: a0 8c        	ldy	#$8c
    2b40: 84 06        	sty	$6                      ; 0x2006 <__heap_default_limit+0x1006>
    2b42: a0 78        	ldy	#$78
    2b44: 84 07        	sty	$7                      ; 0x2007 <__heap_default_limit+0x1007>
    2b46: a9 0b        	lda	#$b
    2b48: 20 10 70     	jsr	$7010 <memcpy>
    2b4b: a2 0a        	ldx	#$a
    2b4d: 8a           	txa
    2b4e: a0 21        	ldy	#$21
    2b50: 91 02        	sta	($2),y                  ; 0x2002 <__heap_default_limit+0x1002>
    2b52: a2 00        	ldx	#$0
    2b54: 86 04        	stx	$4                      ; 0x2004 <__heap_default_limit+0x1004>
    2b56: a2 1c        	ldx	#$1c
    2b58: 86 05        	stx	$5                      ; 0x2005 <__heap_default_limit+0x1005>
    2b5a: 20 f3 48     	jsr	$48f3 <hyppo_setname>
    2b5d: 18           	clc
    2b5e: a0 21        	ldy	#$21
    2b60: b1 02        	lda	($2),y                  ; 0x2002 <__heap_default_limit+0x1002>
    2b62: 69 06        	adc	#$6
    2b64: a2 00        	ldx	#$0
    2b66: 86 04        	stx	$4                      ; 0x2004 <__heap_default_limit+0x1004>
    2b68: a2 1c        	ldx	#$1c
    2b6a: 86 05        	stx	$5                      ; 0x2005 <__heap_default_limit+0x1005>
    2b6c: 85 16        	sta	$16                     ; 0x2016 <next_line+0x1>
    2b6e: aa           	tax
    2b6f: a9 11        	lda	#$11
    2b71: 20 64 57     	jsr	$5764 <mcputsxy>
    2b74: a2 00        	ldx	#$0
    2b76: a9 30        	lda	#$30
    2b78: 8d 40 d6     	sta	$d640                   ; 0xd640 <__heap_start+0x5626>
    2b7b: b8           	clv
    2b7c: 90 05        	bcc	$2b83 <errhypfindfirst0>
    2b7e: 85 04        	sta	$4                      ; 0x2004 <__heap_default_limit+0x1004>
    2b80: 4c 85 2b     	jmp	$2b85 <donehypfindfirst0>

00002b83 <errhypfindfirst0>:
    2b83: 85 04        	sta	$4                      ; 0x2004 <__heap_default_limit+0x1004>

00002b85 <donehypfindfirst0>:
    2b85: ea           	nop
    2b86: a6 04        	ldx	$4                      ; 0x2004 <__heap_default_limit+0x1004>
    2b88: a0 b9        	ldy	#$b9
    2b8a: 84 04        	sty	$4                      ; 0x2004 <__heap_default_limit+0x1004>
    2b8c: a0 78        	ldy	#$78
    2b8e: 84 05        	sty	$5                      ; 0x2005 <__heap_default_limit+0x1005>
    2b90: e0 88        	cpx	#$88
    2b92: d0 03        	bne	$2b97 <donehypfindfirst0+0x12>
    2b94: 4c 32 2c     	jmp	$2c32 <donehypclosefile3+0x3b>
    2b97: a9 18        	lda	#$18
    2b99: 8d 40 d6     	sta	$d640                   ; 0xd640 <__heap_start+0x5626>
    2b9c: b8           	clv
    2b9d: 90 05        	bcc	$2ba4 <errhypopenfile1>
    2b9f: 85 04        	sta	$4                      ; 0x2004 <__heap_default_limit+0x1004>
    2ba1: 4c a6 2b     	jmp	$2ba6 <donehypopenfile1>

00002ba4 <errhypopenfile1>:
    2ba4: 85 04        	sta	$4                      ; 0x2004 <__heap_default_limit+0x1004>

00002ba6 <donehypopenfile1>:
    2ba6: ea           	nop
    2ba7: a6 04        	ldx	$4                      ; 0x2004 <__heap_default_limit+0x1004>
    2ba9: e0 84        	cpx	#$84
    2bab: f0 0d        	beq	$2bba <donehypopenfile1+0x14>
    2bad: e0 86        	cpx	#$86
    2baf: d0 12        	bne	$2bc3 <donehypopenfile1+0x1d>
    2bb1: a2 e7        	ldx	#$e7
    2bb3: 86 04        	stx	$4                      ; 0x2004 <__heap_default_limit+0x1004>
    2bb5: a2 77        	ldx	#$77
    2bb7: 4c 30 2c     	jmp	$2c30 <donehypclosefile3+0x39>
    2bba: a2 97        	ldx	#$97
    2bbc: 86 04        	stx	$4                      ; 0x2004 <__heap_default_limit+0x1004>
    2bbe: a2 78        	ldx	#$78
    2bc0: 4c 30 2c     	jmp	$2c30 <donehypclosefile3+0x39>
    2bc3: a9 1a        	lda	#$1a
    2bc5: 8d 40 d6     	sta	$d640                   ; 0xd640 <__heap_start+0x5626>
    2bc8: b8           	clv
    2bc9: 90 05        	bcc	$2bd0 <errhypreadfile2>
    2bcb: 85 04        	sta	$4                      ; 0x2004 <__heap_default_limit+0x1004>
    2bcd: 4c d4 2b     	jmp	$2bd4 <donehypreadfile2>

00002bd0 <errhypreadfile2>:
    2bd0: a9 ff        	lda	#$ff
    2bd2: 85 04        	sta	$4                      ; 0x2004 <__heap_default_limit+0x1004>

00002bd4 <donehypreadfile2>:
    2bd4: ea           	nop
    2bd5: a4 04        	ldy	$4                      ; 0x2004 <__heap_default_limit+0x1004>
    2bd7: a9 3f        	lda	#$3f
    2bd9: 85 04        	sta	$4                      ; 0x2004 <__heap_default_limit+0x1004>
    2bdb: a9 7a        	lda	#$7a
    2bdd: 85 05        	sta	$5                      ; 0x2005 <__heap_default_limit+0x1005>
    2bdf: c0 89        	cpy	#$89
    2be1: d0 03        	bne	$2be6 <donehypreadfile2+0x12>
    2be3: 4c 32 2c     	jmp	$2c32 <donehypclosefile3+0x3b>
    2be6: a9 20        	lda	#$20
    2be8: 8d 40 d6     	sta	$d640                   ; 0xd640 <__heap_start+0x5626>
    2beb: b8           	clv
    2bec: 90 05        	bcc	$2bf3 <errhypclosefile3>
    2bee: 85 04        	sta	$4                      ; 0x2004 <__heap_default_limit+0x1004>
    2bf0: 4c f7 2b     	jmp	$2bf7 <donehypclosefile3>

00002bf3 <errhypclosefile3>:
    2bf3: a9 ff        	lda	#$ff
    2bf5: 85 04        	sta	$4                      ; 0x2004 <__heap_default_limit+0x1004>

00002bf7 <donehypclosefile3>:
    2bf7: ea           	nop
    2bf8: 64 04        	stz	$4                      ; 0x2004 <__heap_default_limit+0x1004>
    2bfa: 64 05        	stz	$5                      ; 0x2005 <__heap_default_limit+0x1005>
    2bfc: 64 06        	stz	$6                      ; 0x2006 <__heap_default_limit+0x1006>
    2bfe: 64 07        	stz	$7                      ; 0x2007 <__heap_default_limit+0x1007>
    2c00: a2 01        	ldx	#$1
    2c02: 86 08        	stx	$8                      ; 0x2008 <__heap_default_limit+0x1008>
    2c04: a2 19        	ldx	#$19
    2c06: a9 00        	lda	#$0
    2c08: 20 89 6a     	jsr	$6a89 <lfill>
    2c0b: a2 fd        	ldx	#$fd
    2c0d: 86 04        	stx	$4                      ; 0x2004 <__heap_default_limit+0x1004>
    2c0f: a2 0f        	ldx	#$f
    2c11: 86 05        	stx	$5                      ; 0x2005 <__heap_default_limit+0x1005>
    2c13: 64 06        	stz	$6                      ; 0x2006 <__heap_default_limit+0x1006>
    2c15: a2 19        	ldx	#$19
    2c17: 86 07        	stx	$7                      ; 0x2007 <__heap_default_limit+0x1007>
    2c19: 64 08        	stz	$8                      ; 0x2008 <__heap_default_limit+0x1008>
    2c1b: 64 09        	stz	$9                      ; 0x2009 <__heap_default_limit+0x1009>
    2c1d: 64 0a        	stz	$a                      ; 0x200a <__heap_default_limit+0x100a>
    2c1f: a2 01        	ldx	#$1
    2c21: 86 0b        	stx	$b                      ; 0x200b <__heap_default_limit+0x100b>
    2c23: a2 6e        	ldx	#$6e
    2c25: a9 16        	lda	#$16
    2c27: 20 22 6a     	jsr	$6a22 <lcopy>
    2c2a: a2 00        	ldx	#$0
    2c2c: 86 04        	stx	$4                      ; 0x2004 <__heap_default_limit+0x1004>
    2c2e: a2 19        	ldx	#$19
    2c30: 86 05        	stx	$5                      ; 0x2005 <__heap_default_limit+0x1005>
    2c32: a6 16        	ldx	$16                     ; 0x2016 <next_line+0x1>
    2c34: a9 1e        	lda	#$1e
    2c36: 20 64 57     	jsr	$5764 <mcputsxy>
    2c39: a4 17        	ldy	$17                     ; 0x2017 <next_line+0x2>
    2c3b: c8           	iny
    2c3c: a2 00        	ldx	#$0
    2c3e: c0 0a        	cpy	#$a
    2c40: d0 03        	bne	$2c45 <donehypclosefile3+0x4e>
    2c42: 4c 2c 2b     	jmp	$2b2c <main+0xa20>
    2c45: c0 0b        	cpy	#$b
    2c47: d0 03        	bne	$2c4c <donehypclosefile3+0x55>
    2c49: 4c 43 32     	jmp	$3243 <donehypclosefile3+0x64c>
    2c4c: a9 00        	lda	#$0
    2c4e: 85 18        	sta	$18                     ; 0x2018 <next_line+0x3>
    2c50: a9 1c        	lda	#$1c
    2c52: 85 19        	sta	$19                     ; 0x2019 <next_line+0x4>
    2c54: a9 00        	lda	#$0
    2c56: 85 04        	sta	$4                      ; 0x2004 <__heap_default_limit+0x1004>
    2c58: a9 1c        	lda	#$1c
    2c5a: 85 05        	sta	$5                      ; 0x2005 <__heap_default_limit+0x1005>
    2c5c: a9 18        	lda	#$18
    2c5e: 85 06        	sta	$6                      ; 0x2006 <__heap_default_limit+0x1006>
    2c60: a9 79        	lda	#$79
    2c62: 85 07        	sta	$7                      ; 0x2007 <__heap_default_limit+0x1007>
    2c64: a9 0c        	lda	#$c
    2c66: 84 16        	sty	$16                     ; 0x2016 <next_line+0x1>
    2c68: 20 10 70     	jsr	$7010 <memcpy>
    2c6b: a5 16        	lda	$16                     ; 0x2016 <next_line+0x1>
    2c6d: 18           	clc
    2c6e: 69 30        	adc	#$30
    2c70: 8d 06 1c     	sta	$1c06                   ; 0x1c06 <__heap_default_limit+0xc06>
    2c73: a6 16        	ldx	$16                     ; 0x2016 <next_line+0x1>
    2c75: 86 17        	stx	$17                     ; 0x2017 <next_line+0x2>
    2c77: a5 16        	lda	$16                     ; 0x2016 <next_line+0x1>
    2c79: 4c 4e 2b     	jmp	$2b4e <main+0xa42>
    2c7c: a2 ac        	ldx	#$ac
    2c7e: 86 04        	stx	$4                      ; 0x2004 <__heap_default_limit+0x1004>
    2c80: a2 78        	ldx	#$78
    2c82: 86 05        	stx	$5                      ; 0x2005 <__heap_default_limit+0x1005>
    2c84: 20 66 68     	jsr	$6866 <cputs>
    2c87: 4c 4a 27     	jmp	$274a <main+0x63e>
    2c8a: 48           	pha
    2c8b: 5a           	phy
    2c8c: a0 18        	ldy	#$18
    2c8e: b1 02        	lda	($2),y                  ; 0x2002 <__heap_default_limit+0x1002>
    2c90: 7a           	ply
    2c91: 85 04        	sta	$4                      ; 0x2004 <__heap_default_limit+0x1004>
    2c93: 68           	pla
    2c94: a6 20        	ldx	$20                     ; 0x2020 <next_line+0xb>
    2c96: e4 04        	cpx	$4                      ; 0x2004 <__heap_default_limit+0x1004>
    2c98: f0 03        	beq	$2c9d <donehypclosefile3+0xa6>
    2c9a: 4c 03 27     	jmp	$2703 <main+0x5f7>
    2c9d: 09 20        	ora	#$20
    2c9f: 4c 05 27     	jmp	$2705 <main+0x5f9>
    2ca2: c9 00        	cmp	#$0
    2ca4: 8a           	txa
    2ca5: 90 03        	bcc	$2caa <donehypclosefile3+0xb3>
    2ca7: 4c bd 2a     	jmp	$2abd <main+0x9b1>
    2caa: 0a           	asl
    2cab: aa           	tax
    2cac: 7c b8 70     	jmp	($70b8,x)               ; 0x70b8 <__zp_data_load_start+0x50a1>
    2caf: 20 75 67     	jsr	$6775 <sidbong>
    2cb2: 4c 0b 23     	jmp	$230b <main+0x1ff>
    2cb5: a9 27        	lda	#$27
    2cb7: 18           	clc
    2cb8: 65 1c        	adc	$1c                     ; 0x201c <next_line+0x7>
    2cba: aa           	tax
    2cbb: a9 00        	lda	#$0
    2cbd: 48           	pha
    2cbe: a5 08        	lda	$8                      ; 0x2008 <__heap_default_limit+0x1008>
    2cc0: 5a           	phy
    2cc1: a0 1c        	ldy	#$1c
    2cc3: 91 02        	sta	($2),y                  ; 0x2002 <__heap_default_limit+0x1002>
    2cc5: 7a           	ply
    2cc6: 68           	pla
    2cc7: 65 08        	adc	$8                      ; 0x2008 <__heap_default_limit+0x1008>
    2cc9: 86 04        	stx	$4                      ; 0x2004 <__heap_default_limit+0x1004>
    2ccb: 85 05        	sta	$5                      ; 0x2005 <__heap_default_limit+0x1005>
    2ccd: b2 04        	lda	($4),z                  ; 0x2004 <__heap_default_limit+0x1004>
    2ccf: 85 06        	sta	$6                      ; 0x2006 <__heap_default_limit+0x1006>
    2cd1: b1 04        	lda	($4),y                  ; 0x2004 <__heap_default_limit+0x1004>
    2cd3: 85 07        	sta	$7                      ; 0x2007 <__heap_default_limit+0x1007>
    2cd5: 5a           	phy
    2cd6: a5 06        	lda	$6                      ; 0x2006 <__heap_default_limit+0x1006>
    2cd8: a0 1e        	ldy	#$1e
    2cda: 91 02        	sta	($2),y                  ; 0x2002 <__heap_default_limit+0x1002>
    2cdc: a5 07        	lda	$7                      ; 0x2007 <__heap_default_limit+0x1007>
    2cde: c8           	iny
    2cdf: 91 02        	sta	($2),y                  ; 0x2002 <__heap_default_limit+0x1002>
    2ce1: 7a           	ply
    2ce2: b1 06        	lda	($6),y                  ; 0x2006 <__heap_default_limit+0x1006>
    2ce4: aa           	tax
    2ce5: a0 18        	ldy	#$18
    2ce7: b1 02        	lda	($2),y                  ; 0x2002 <__heap_default_limit+0x1002>
    2ce9: 20 eb 54     	jsr	$54eb <getdirententry>
    2cec: a6 04        	ldx	$4                      ; 0x2004 <__heap_default_limit+0x1004>
    2cee: 86 18        	stx	$18                     ; 0x2018 <next_line+0x3>
    2cf0: a6 05        	ldx	$5                      ; 0x2005 <__heap_default_limit+0x1005>
    2cf2: 86 19        	stx	$19                     ; 0x2019 <next_line+0x4>
    2cf4: a0 02        	ldy	#$2
    2cf6: b1 04        	lda	($4),y                  ; 0x2004 <__heap_default_limit+0x1004>
    2cf8: 85 08        	sta	$8                      ; 0x2008 <__heap_default_limit+0x1008>
    2cfa: 29 0f        	and	#$f
    2cfc: c9 05        	cmp	#$5
    2cfe: f0 03        	beq	$2d03 <donehypclosefile3+0x10c>
    2d00: aa           	tax
    2d01: d0 1c        	bne	$2d1f <donehypclosefile3+0x128>
    2d03: a9 01        	lda	#$1
    2d05: a0 46        	ldy	#$46
    2d07: 48           	pha
    2d08: 5a           	phy
    2d09: a0 1e        	ldy	#$1e
    2d0b: b1 02        	lda	($2),y                  ; 0x2002 <__heap_default_limit+0x1002>
    2d0d: 85 04        	sta	$4                      ; 0x2004 <__heap_default_limit+0x1004>
    2d0f: c8           	iny
    2d10: b1 02        	lda	($2),y                  ; 0x2002 <__heap_default_limit+0x1002>
    2d12: 7a           	ply
    2d13: 85 05        	sta	$5                      ; 0x2005 <__heap_default_limit+0x1005>
    2d15: 68           	pla
    2d16: 31 04        	and	($4),y                  ; 0x2004 <__heap_default_limit+0x1004>
    2d18: 29 01        	and	#$1
    2d1a: f0 03        	beq	$2d1f <donehypclosefile3+0x128>
    2d1c: 4c b9 39     	jmp	$39b9 <donehypclosefile3+0xdc2>
    2d1f: a5 1d        	lda	$1d                     ; 0x201d <next_line+0x8>
    2d21: f0 03        	beq	$2d26 <donehypclosefile3+0x12f>
    2d23: 4c a8 2e     	jmp	$2ea8 <donehypclosefile3+0x2b1>
    2d26: a6 20        	ldx	$20                     ; 0x2020 <next_line+0xb>
    2d28: e0 f5        	cpx	#$f5
    2d2a: f0 03        	beq	$2d2f <donehypclosefile3+0x138>
    2d2c: 4c a8 2e     	jmp	$2ea8 <donehypclosefile3+0x2b1>
    2d2f: a9 01        	lda	#$1
    2d31: a0 46        	ldy	#$46
    2d33: 48           	pha
    2d34: 5a           	phy
    2d35: a0 1e        	ldy	#$1e
    2d37: b1 02        	lda	($2),y                  ; 0x2002 <__heap_default_limit+0x1002>
    2d39: 85 04        	sta	$4                      ; 0x2004 <__heap_default_limit+0x1004>
    2d3b: c8           	iny
    2d3c: b1 02        	lda	($2),y                  ; 0x2002 <__heap_default_limit+0x1002>
    2d3e: 7a           	ply
    2d3f: 85 05        	sta	$5                      ; 0x2005 <__heap_default_limit+0x1005>
    2d41: 68           	pla
    2d42: 31 04        	and	($4),y                  ; 0x2004 <__heap_default_limit+0x1004>
    2d44: d0 03        	bne	$2d49 <donehypclosefile3+0x152>
    2d46: 4c 93 2d     	jmp	$2d93 <donehypclosefile3+0x19c>
    2d49: a0 18        	ldy	#$18
    2d4b: b1 02        	lda	($2),y                  ; 0x2002 <__heap_default_limit+0x1002>
    2d4d: 49 01        	eor	#$1
    2d4f: c8           	iny
    2d50: 91 02        	sta	($2),y                  ; 0x2002 <__heap_default_limit+0x1002>
    2d52: 0a           	asl
    2d53: 85 04        	sta	$4                      ; 0x2004 <__heap_default_limit+0x1004>
    2d55: a9 00        	lda	#$0
    2d57: 2a           	rol
    2d58: 85 05        	sta	$5                      ; 0x2005 <__heap_default_limit+0x1005>
    2d5a: a9 27        	lda	#$27
    2d5c: 18           	clc
    2d5d: 65 04        	adc	$4                      ; 0x2004 <__heap_default_limit+0x1004>
    2d5f: 85 04        	sta	$4                      ; 0x2004 <__heap_default_limit+0x1004>
    2d61: a9 00        	lda	#$0
    2d63: 65 05        	adc	$5                      ; 0x2005 <__heap_default_limit+0x1005>
    2d65: 85 05        	sta	$5                      ; 0x2005 <__heap_default_limit+0x1005>
    2d67: b2 04        	lda	($4),z                  ; 0x2004 <__heap_default_limit+0x1004>
    2d69: 85 06        	sta	$6                      ; 0x2006 <__heap_default_limit+0x1006>
    2d6b: a0 01        	ldy	#$1
    2d6d: b1 04        	lda	($4),y                  ; 0x2004 <__heap_default_limit+0x1004>
    2d6f: a4 06        	ldy	$6                      ; 0x2006 <__heap_default_limit+0x1006>
    2d71: 84 16        	sty	$16                     ; 0x2016 <next_line+0x1>
    2d73: 85 1b        	sta	$1b                     ; 0x201b <next_line+0x6>
    2d75: 85 07        	sta	$7                      ; 0x2007 <__heap_default_limit+0x1007>
    2d77: a9 01        	lda	#$1
    2d79: a0 46        	ldy	#$46
    2d7b: 48           	pha
    2d7c: 5a           	phy
    2d7d: a5 06        	lda	$6                      ; 0x2006 <__heap_default_limit+0x1006>
    2d7f: a0 1c        	ldy	#$1c
    2d81: 91 02        	sta	($2),y                  ; 0x2002 <__heap_default_limit+0x1002>
    2d83: a5 07        	lda	$7                      ; 0x2007 <__heap_default_limit+0x1007>
    2d85: c8           	iny
    2d86: 91 02        	sta	($2),y                  ; 0x2002 <__heap_default_limit+0x1002>
    2d88: 7a           	ply
    2d89: 68           	pla
    2d8a: 31 06        	and	($6),y                  ; 0x2006 <__heap_default_limit+0x1006>
    2d8c: 29 01        	and	#$1
    2d8e: f0 03        	beq	$2d93 <donehypclosefile3+0x19c>
    2d90: 4c f3 43     	jmp	$43f3 <donehyprmfile5+0x42>
    2d93: a2 fd        	ldx	#$fd
    2d95: 86 04        	stx	$4                      ; 0x2004 <__heap_default_limit+0x1004>
    2d97: a2 79        	ldx	#$79
    2d99: 86 05        	stx	$5                      ; 0x2005 <__heap_default_limit+0x1005>
    2d9b: a2 80        	ldx	#$80
    2d9d: 86 06        	stx	$6                      ; 0x2006 <__heap_default_limit+0x1006>
    2d9f: a2 71        	ldx	#$71
    2da1: 86 07        	stx	$7                      ; 0x2007 <__heap_default_limit+0x1007>
    2da3: a2 7e        	ldx	#$7e
    2da5: 86 08        	stx	$8                      ; 0x2008 <__heap_default_limit+0x1008>
    2da7: a2 71        	ldx	#$71
    2da9: 4c d4 39     	jmp	$39d4 <donehypclosefile3+0xddd>
    2dac: ae 11 d6     	ldx	$d611                   ; 0xd611 <__heap_start+0x55f7>
    2daf: e0 01        	cpx	#$1
    2db1: d0 03        	bne	$2db6 <donehypclosefile3+0x1bf>
    2db3: 4c 52 47     	jmp	$4752 <donehypchdir9+0x8b>
    2db6: ae 11 d6     	ldx	$d611                   ; 0xd611 <__heap_start+0x55f7>
    2db9: e0 02        	cpx	#$2
    2dbb: f0 03        	beq	$2dc0 <donehypclosefile3+0x1c9>
    2dbd: 4c 0b 23     	jmp	$230b <main+0x1ff>
    2dc0: 4c 52 47     	jmp	$4752 <donehypchdir9+0x8b>
    2dc3: a9 27        	lda	#$27
    2dc5: 18           	clc
    2dc6: 65 1c        	adc	$1c                     ; 0x201c <next_line+0x7>
    2dc8: 85 04        	sta	$4                      ; 0x2004 <__heap_default_limit+0x1004>
    2dca: a9 00        	lda	#$0
    2dcc: 65 08        	adc	$8                      ; 0x2008 <__heap_default_limit+0x1008>
    2dce: 85 05        	sta	$5                      ; 0x2005 <__heap_default_limit+0x1005>
    2dd0: b2 04        	lda	($4),z                  ; 0x2004 <__heap_default_limit+0x1004>
    2dd2: 85 06        	sta	$6                      ; 0x2006 <__heap_default_limit+0x1006>
    2dd4: b1 04        	lda	($4),y                  ; 0x2004 <__heap_default_limit+0x1004>
    2dd6: 85 07        	sta	$7                      ; 0x2007 <__heap_default_limit+0x1007>
    2dd8: a9 01        	lda	#$1
    2dda: a0 46        	ldy	#$46
    2ddc: 51 06        	eor	($6),y                  ; 0x2006 <__heap_default_limit+0x1006>
    2dde: 91 06        	sta	($6),y                  ; 0x2006 <__heap_default_limit+0x1006>
    2de0: a9 28        	lda	#$28
    2de2: c8           	iny
    2de3: 91 06        	sta	($6),y                  ; 0x2006 <__heap_default_limit+0x1006>
    2de5: b2 06        	lda	($6),z                  ; 0x2006 <__heap_default_limit+0x1006>
    2de7: 48           	pha
    2de8: a0 18        	ldy	#$18
    2dea: b1 02        	lda	($2),y                  ; 0x2002 <__heap_default_limit+0x1002>
    2dec: 85 16        	sta	$16                     ; 0x2016 <next_line+0x1>
    2dee: 68           	pla
    2def: 4c 83 3a     	jmp	$3a83 <donehypclosefile3+0xe8c>
    2df2: a6 18        	ldx	$18                     ; 0x2018 <next_line+0x3>
    2df4: 98           	tya
    2df5: 20 5f 54     	jsr	$545f <tracksectorstring>
    2df8: a6 1c        	ldx	$1c                     ; 0x201c <next_line+0x7>
    2dfa: 86 04        	stx	$4                      ; 0x2004 <__heap_default_limit+0x1004>
    2dfc: 06 04        	asl	$4                      ; 0x2004 <__heap_default_limit+0x1004>
    2dfe: a5 1d        	lda	$1d                     ; 0x201d <next_line+0x8>
    2e00: 2a           	rol
    2e01: 06 04        	asl	$4                      ; 0x2004 <__heap_default_limit+0x1004>
    2e03: 2a           	rol
    2e04: 18           	clc
    2e05: 69 32        	adc	#$32
    2e07: a2 3f        	ldx	#$3f
    2e09: 86 04        	stx	$4                      ; 0x2004 <__heap_default_limit+0x1004>
    2e0b: a2 78        	ldx	#$78
    2e0d: 86 05        	stx	$5                      ; 0x2005 <__heap_default_limit+0x1005>
    2e0f: a2 8a        	ldx	#$8a
    2e11: 86 06        	stx	$6                      ; 0x2006 <__heap_default_limit+0x1006>
    2e13: a2 7b        	ldx	#$7b
    2e15: 86 07        	stx	$7                      ; 0x2007 <__heap_default_limit+0x1007>
    2e17: 20 5c 5a     	jsr	$5a5c <progress>
    2e1a: a5 1c        	lda	$1c                     ; 0x201c <next_line+0x7>
    2e1c: 18           	clc
    2e1d: 69 3c        	adc	#$3c
    2e1f: a8           	tay
    2e20: a5 1d        	lda	$1d                     ; 0x201d <next_line+0x8>
    2e22: 69 00        	adc	#$0
    2e24: 85 04        	sta	$4                      ; 0x2004 <__heap_default_limit+0x1004>
    2e26: a9 00        	lda	#$0
    2e28: 69 08        	adc	#$8
    2e2a: 85 05        	sta	$5                      ; 0x2005 <__heap_default_limit+0x1005>
    2e2c: 64 06        	stz	$6                      ; 0x2006 <__heap_default_limit+0x1006>
    2e2e: a2 19        	ldx	#$19
    2e30: 86 07        	stx	$7                      ; 0x2007 <__heap_default_limit+0x1007>
    2e32: 64 08        	stz	$8                      ; 0x2008 <__heap_default_limit+0x1008>
    2e34: 64 09        	stz	$9                      ; 0x2009 <__heap_default_limit+0x1009>
    2e36: 64 0a        	stz	$a                      ; 0x200a <__heap_default_limit+0x100a>
    2e38: a2 02        	ldx	#$2
    2e3a: 86 0b        	stx	$b                      ; 0x200b <__heap_default_limit+0x100b>
    2e3c: 5a           	phy
    2e3d: fa           	plx
    2e3e: a9 00        	lda	#$0
    2e40: 20 22 6a     	jsr	$6a22 <lcopy>
    2e43: a2 00        	ldx	#$0
    2e45: 86 04        	stx	$4                      ; 0x2004 <__heap_default_limit+0x1004>
    2e47: a2 19        	ldx	#$19
    2e49: 86 05        	stx	$5                      ; 0x2005 <__heap_default_limit+0x1005>
    2e4b: a6 18        	ldx	$18                     ; 0x2018 <next_line+0x3>
    2e4d: 86 06        	stx	$6                      ; 0x2006 <__heap_default_limit+0x1006>
    2e4f: a6 16        	ldx	$16                     ; 0x2016 <next_line+0x1>
    2e51: a5 17        	lda	$17                     ; 0x2017 <next_line+0x2>
    2e53: 20 a0 4c     	jsr	$4ca0 <PutWholeSector>
    2e56: a4 16        	ldy	$16                     ; 0x2016 <next_line+0x1>
    2e58: 18           	clc
    2e59: a5 1c        	lda	$1c                     ; 0x201c <next_line+0x7>
    2e5b: 69 02        	adc	#$2
    2e5d: 85 1c        	sta	$1c                     ; 0x201c <next_line+0x7>
    2e5f: a5 1d        	lda	$1d                     ; 0x201d <next_line+0x8>
    2e61: 69 00        	adc	#$0
    2e63: 85 1d        	sta	$1d                     ; 0x201d <next_line+0x8>
    2e65: 18           	clc
    2e66: a5 1e        	lda	$1e                     ; 0x201e <next_line+0x9>
    2e68: 69 02        	adc	#$2
    2e6a: c9 29        	cmp	#$29
    2e6c: b0 2b        	bcs	$2e99 <donehypclosefile3+0x2a2>
    2e6e: 85 1e        	sta	$1e                     ; 0x201e <next_line+0x9>
    2e70: 85 18        	sta	$18                     ; 0x2018 <next_line+0x3>
    2e72: c6 18        	dec	$18                     ; 0x2018 <next_line+0x3>
    2e74: a9 02        	lda	#$2
    2e76: 25 30        	and	$30                     ; 0x2030 <__do_init_stack+0x1>
    2e78: d0 03        	bne	$2e7d <donehypclosefile3+0x286>
    2e7a: 4c f2 2d     	jmp	$2df2 <donehypclosefile3+0x1fb>
    2e7d: a6 18        	ldx	$18                     ; 0x2018 <next_line+0x3>
    2e7f: 98           	tya
    2e80: 20 a6 51     	jsr	$51a6 <isallocatedBAMtracksector>
    2e83: a4 16        	ldy	$16                     ; 0x2016 <next_line+0x1>
    2e85: aa           	tax
    2e86: f0 03        	beq	$2e8b <donehypclosefile3+0x294>
    2e88: 4c f2 2d     	jmp	$2df2 <donehypclosefile3+0x1fb>
    2e8b: a6 1e        	ldx	$1e                     ; 0x201e <next_line+0x9>
    2e8d: 98           	tya
    2e8e: 20 a6 51     	jsr	$51a6 <isallocatedBAMtracksector>
    2e91: a4 16        	ldy	$16                     ; 0x2016 <next_line+0x1>
    2e93: aa           	tax
    2e94: f0 cf        	beq	$2e65 <donehypclosefile3+0x26e>
    2e96: 4c f2 2d     	jmp	$2df2 <donehypclosefile3+0x1fb>
    2e99: c8           	iny
    2e9a: c0 51        	cpy	#$51
    2e9c: d0 03        	bne	$2ea1 <donehypclosefile3+0x2aa>
    2e9e: 4c 49 46     	jmp	$4649 <donehypd81dosattach7+0x14>
    2ea1: a9 01        	lda	#$1
    2ea3: 84 16        	sty	$16                     ; 0x2016 <next_line+0x1>
    2ea5: 4c 6a 2e     	jmp	$2e6a <donehypclosefile3+0x273>
    2ea8: a5 08        	lda	$8                      ; 0x2008 <__heap_default_limit+0x1008>
    2eaa: d0 03        	bne	$2eaf <donehypclosefile3+0x2b8>
    2eac: 4c 0b 23     	jmp	$230b <main+0x1ff>
    2eaf: a0 18        	ldy	#$18
    2eb1: b1 02        	lda	($2),y                  ; 0x2002 <__heap_default_limit+0x1002>
    2eb3: d0 03        	bne	$2eb8 <donehypclosefile3+0x2c1>
    2eb5: 4c e2 3a     	jmp	$3ae2 <donehypclosefile3+0xeeb>
    2eb8: a2 92        	ldx	#$92
    2eba: 86 08        	stx	$8                      ; 0x2008 <__heap_default_limit+0x1008>
    2ebc: a2 76        	ldx	#$76
    2ebe: 4c e8 3a     	jmp	$3ae8 <donehypclosefile3+0xef1>
    2ec1: c9 00        	cmp	#$0
    2ec3: 8a           	txa
    2ec4: 90 03        	bcc	$2ec9 <donehypclosefile3+0x2d2>
    2ec6: 4c d4 2a     	jmp	$2ad4 <main+0x9c8>
    2ec9: 0a           	asl
    2eca: aa           	tax
    2ecb: 7c 66 70     	jmp	($7066,x)               ; 0x7066 <__zp_data_load_start+0x504f>
    2ece: a9 27        	lda	#$27
    2ed0: 18           	clc
    2ed1: 65 1c        	adc	$1c                     ; 0x201c <next_line+0x7>
    2ed3: 85 04        	sta	$4                      ; 0x2004 <__heap_default_limit+0x1004>
    2ed5: a9 00        	lda	#$0
    2ed7: 65 08        	adc	$8                      ; 0x2008 <__heap_default_limit+0x1008>
    2ed9: 85 05        	sta	$5                      ; 0x2005 <__heap_default_limit+0x1005>
    2edb: b2 04        	lda	($4),z                  ; 0x2004 <__heap_default_limit+0x1004>
    2edd: 85 1a        	sta	$1a                     ; 0x201a <next_line+0x5>
    2edf: b1 04        	lda	($4),y                  ; 0x2004 <__heap_default_limit+0x1004>
    2ee1: 85 1b        	sta	$1b                     ; 0x201b <next_line+0x6>
    2ee3: a9 01        	lda	#$1
    2ee5: a0 46        	ldy	#$46
    2ee7: 31 1a        	and	($1a),y                 ; 0x201a <next_line+0x5>
    2ee9: 29 01        	and	#$1
    2eeb: f0 03        	beq	$2ef0 <donehypclosefile3+0x2f9>
    2eed: 4c af 3b     	jmp	$3baf <donehypfindfirst4+0x60>
    2ef0: 64 17        	stz	$17                     ; 0x2017 <next_line+0x2>
    2ef2: 64 1c        	stz	$1c                     ; 0x201c <next_line+0x7>
    2ef4: a0 18        	ldy	#$18
    2ef6: b1 02        	lda	($2),y                  ; 0x2002 <__heap_default_limit+0x1002>
    2ef8: 85 16        	sta	$16                     ; 0x2016 <next_line+0x1>
    2efa: a2 00        	ldx	#$0
    2efc: e4 1c        	cpx	$1c                     ; 0x201c <next_line+0x7>
    2efe: d0 0b        	bne	$2f0b <donehypclosefile3+0x314>
    2f00: a0 02        	ldy	#$2
    2f02: b1 1a        	lda	($1a),y                 ; 0x201a <next_line+0x5>
    2f04: c5 17        	cmp	$17                     ; 0x2017 <next_line+0x2>
    2f06: b0 0a        	bcs	$2f12 <donehypclosefile3+0x31b>
    2f08: 4c 0b 23     	jmp	$230b <main+0x1ff>
    2f0b: e4 1c        	cpx	$1c                     ; 0x201c <next_line+0x7>
    2f0d: b0 03        	bcs	$2f12 <donehypclosefile3+0x31b>
    2f0f: 4c 0b 23     	jmp	$230b <main+0x1ff>
    2f12: a6 17        	ldx	$17                     ; 0x2017 <next_line+0x2>
    2f14: a5 16        	lda	$16                     ; 0x2016 <next_line+0x1>
    2f16: 20 eb 54     	jsr	$54eb <getdirententry>
    2f19: a9 10        	lda	#$10
    2f1b: a0 02        	ldy	#$2
    2f1d: 31 04        	and	($4),y                  ; 0x2004 <__heap_default_limit+0x1004>
    2f1f: f0 13        	beq	$2f34 <donehypclosefile3+0x33d>
    2f21: a0 05        	ldy	#$5
    2f23: b1 04        	lda	($4),y                  ; 0x2004 <__heap_default_limit+0x1004>
    2f25: c9 2e        	cmp	#$2e
    2f27: d0 0b        	bne	$2f34 <donehypclosefile3+0x33d>
    2f29: a0 06        	ldy	#$6
    2f2b: b1 04        	lda	($4),y                  ; 0x2004 <__heap_default_limit+0x1004>
    2f2d: c9 2e        	cmp	#$2e
    2f2f: d0 03        	bne	$2f34 <donehypclosefile3+0x33d>
    2f31: 4c a0 45     	jmp	$45a0 <donehyprmfile5+0x1ef>
    2f34: e6 17        	inc	$17                     ; 0x2017 <next_line+0x2>
    2f36: f0 03        	beq	$2f3b <donehypclosefile3+0x344>
    2f38: 4c fa 2e     	jmp	$2efa <donehypclosefile3+0x303>
    2f3b: e6 1c        	inc	$1c                     ; 0x201c <next_line+0x7>
    2f3d: 4c fa 2e     	jmp	$2efa <donehypclosefile3+0x303>
    2f40: a2 00        	ldx	#$0
    2f42: a9 14        	lda	#$14
    2f44: 20 5d 5b     	jsr	$5b5d <shortcuts>
    2f47: 80 03        	bra	$2f4c <donehypclosefile3+0x355>
    2f49: 20 75 67     	jsr	$6775 <sidbong>
    2f4c: a2 4c        	ldx	#$4c
    2f4e: 86 04        	stx	$4                      ; 0x2004 <__heap_default_limit+0x1004>
    2f50: a2 18        	ldx	#$18
    2f52: 86 05        	stx	$5                      ; 0x2005 <__heap_default_limit+0x1005>
    2f54: a2 01        	ldx	#$1
    2f56: 86 06        	stx	$6                      ; 0x2006 <__heap_default_limit+0x1006>
    2f58: ca           	dex
    2f59: a9 04        	lda	#$4
    2f5b: 20 7a 57     	jsr	$577a <mcbox>
    2f5e: a9 20        	lda	#$20
    2f60: 05 2b        	ora	$2b                     ; 0x202b <_start+0xa>
    2f62: 85 2b        	sta	$2b                     ; 0x202b <_start+0xa>
    2f64: a2 c8        	ldx	#$c8
    2f66: 86 04        	stx	$4                      ; 0x2004 <__heap_default_limit+0x1004>
    2f68: a2 71        	ldx	#$71
    2f6a: 86 05        	stx	$5                      ; 0x2005 <__heap_default_limit+0x1005>
    2f6c: a2 00        	ldx	#$0
    2f6e: a9 0e        	lda	#$e
    2f70: 20 64 57     	jsr	$5764 <mcputsxy>
    2f73: a2 13        	ldx	#$13
    2f75: 86 04        	stx	$4                      ; 0x2004 <__heap_default_limit+0x1004>
    2f77: a2 71        	ldx	#$71
    2f79: 86 05        	stx	$5                      ; 0x2005 <__heap_default_limit+0x1005>
    2f7b: a2 00        	ldx	#$0
    2f7d: a9 1f        	lda	#$1f
    2f7f: 20 64 57     	jsr	$5764 <mcputsxy>
    2f82: a2 44        	ldx	#$44
    2f84: 86 04        	stx	$4                      ; 0x2004 <__heap_default_limit+0x1004>
    2f86: a2 75        	ldx	#$75
    2f88: 86 05        	stx	$5                      ; 0x2005 <__heap_default_limit+0x1005>
    2f8a: a2 00        	ldx	#$0
    2f8c: a9 28        	lda	#$28
    2f8e: 20 64 57     	jsr	$5764 <mcputsxy>
    2f91: a9 df        	lda	#$df
    2f93: 25 2b        	and	$2b                     ; 0x202b <_start+0xa>
    2f95: 85 2b        	sta	$2b                     ; 0x202b <_start+0xa>
    2f97: a2 7e        	ldx	#$7e
    2f99: 86 04        	stx	$4                      ; 0x2004 <__heap_default_limit+0x1004>
    2f9b: a2 71        	ldx	#$71
    2f9d: 86 05        	stx	$5                      ; 0x2005 <__heap_default_limit+0x1005>
    2f9f: a5 04        	lda	$4                      ; 0x2004 <__heap_default_limit+0x1004>
    2fa1: a0 21        	ldy	#$21
    2fa3: 91 02        	sta	($2),y                  ; 0x2002 <__heap_default_limit+0x1002>
    2fa5: a5 05        	lda	$5                      ; 0x2005 <__heap_default_limit+0x1005>
    2fa7: c8           	iny
    2fa8: 91 02        	sta	($2),y                  ; 0x2002 <__heap_default_limit+0x1002>
    2faa: 88           	dey
    2fab: b1 02        	lda	($2),y                  ; 0x2002 <__heap_default_limit+0x1002>
    2fad: 85 04        	sta	$4                      ; 0x2004 <__heap_default_limit+0x1004>
    2faf: c8           	iny
    2fb0: b1 02        	lda	($2),y                  ; 0x2002 <__heap_default_limit+0x1002>
    2fb2: 85 05        	sta	$5                      ; 0x2005 <__heap_default_limit+0x1005>
    2fb4: a2 18        	ldx	#$18
    2fb6: a9 07        	lda	#$7
    2fb8: 20 64 57     	jsr	$5764 <mcputsxy>
    2fbb: a2 a8        	ldx	#$a8
    2fbd: 86 04        	stx	$4                      ; 0x2004 <__heap_default_limit+0x1004>
    2fbf: a2 73        	ldx	#$73
    2fc1: 86 05        	stx	$5                      ; 0x2005 <__heap_default_limit+0x1005>
    2fc3: 20 56 57     	jsr	$5756 <msprintf>
    2fc6: a0 21        	ldy	#$21
    2fc8: b1 02        	lda	($2),y                  ; 0x2002 <__heap_default_limit+0x1002>
    2fca: 85 04        	sta	$4                      ; 0x2004 <__heap_default_limit+0x1004>
    2fcc: c8           	iny
    2fcd: b1 02        	lda	($2),y                  ; 0x2002 <__heap_default_limit+0x1002>
    2fcf: 85 05        	sta	$5                      ; 0x2005 <__heap_default_limit+0x1005>
    2fd1: 20 56 57     	jsr	$5756 <msprintf>
    2fd4: a2 c9        	ldx	#$c9
    2fd6: 86 04        	stx	$4                      ; 0x2004 <__heap_default_limit+0x1004>
    2fd8: a2 78        	ldx	#$78
    2fda: 86 05        	stx	$5                      ; 0x2005 <__heap_default_limit+0x1005>
    2fdc: a2 18        	ldx	#$18
    2fde: a9 34        	lda	#$34
    2fe0: 20 64 57     	jsr	$5764 <mcputsxy>
    2fe3: a9 20        	lda	#$20
    2fe5: 05 2b        	ora	$2b                     ; 0x202b <_start+0xa>
    2fe7: 85 2b        	sta	$2b                     ; 0x202b <_start+0xa>
    2fe9: a2 6c        	ldx	#$6c
    2feb: 86 04        	stx	$4                      ; 0x2004 <__heap_default_limit+0x1004>
    2fed: a2 72        	ldx	#$72
    2fef: 86 05        	stx	$5                      ; 0x2005 <__heap_default_limit+0x1005>
    2ff1: a2 02        	ldx	#$2
    2ff3: a9 06        	lda	#$6
    2ff5: 20 64 57     	jsr	$5764 <mcputsxy>
    2ff8: a6 2b        	ldx	$2b                     ; 0x202b <_start+0xa>
    2ffa: 86 17        	stx	$17                     ; 0x2017 <next_line+0x2>
    2ffc: a9 df        	lda	#$df
    2ffe: 25 2b        	and	$2b                     ; 0x202b <_start+0xa>
    3000: 85 2b        	sta	$2b                     ; 0x202b <_start+0xa>
    3002: 85 16        	sta	$16                     ; 0x2016 <next_line+0x1>
    3004: a0 21        	ldy	#$21
    3006: b1 02        	lda	($2),y                  ; 0x2002 <__heap_default_limit+0x1002>
    3008: 85 04        	sta	$4                      ; 0x2004 <__heap_default_limit+0x1004>
    300a: c8           	iny
    300b: b1 02        	lda	($2),y                  ; 0x2002 <__heap_default_limit+0x1002>
    300d: 85 05        	sta	$5                      ; 0x2005 <__heap_default_limit+0x1005>
    300f: 20 56 57     	jsr	$5756 <msprintf>
    3012: a5 17        	lda	$17                     ; 0x2017 <next_line+0x2>
    3014: 09 20        	ora	#$20
    3016: 85 2b        	sta	$2b                     ; 0x202b <_start+0xa>
    3018: a2 73        	ldx	#$73
    301a: 86 04        	stx	$4                      ; 0x2004 <__heap_default_limit+0x1004>
    301c: a2 72        	ldx	#$72
    301e: 86 05        	stx	$5                      ; 0x2005 <__heap_default_limit+0x1005>
    3020: 20 56 57     	jsr	$5756 <msprintf>
    3023: a6 16        	ldx	$16                     ; 0x2016 <next_line+0x1>
    3025: 86 2b        	stx	$2b                     ; 0x202b <_start+0xa>
    3027: a2 c5        	ldx	#$c5
    3029: 86 04        	stx	$4                      ; 0x2004 <__heap_default_limit+0x1004>
    302b: a2 7a        	ldx	#$7a
    302d: 86 05        	stx	$5                      ; 0x2005 <__heap_default_limit+0x1005>
    302f: 20 56 57     	jsr	$5756 <msprintf>
    3032: a2 d8        	ldx	#$d8
    3034: 86 04        	stx	$4                      ; 0x2004 <__heap_default_limit+0x1004>
    3036: a2 71        	ldx	#$71
    3038: 86 05        	stx	$5                      ; 0x2005 <__heap_default_limit+0x1005>
    303a: a2 04        	ldx	#$4
    303c: a9 06        	lda	#$6
    303e: 20 64 57     	jsr	$5764 <mcputsxy>
    3041: a2 9a        	ldx	#$9a
    3043: 86 04        	stx	$4                      ; 0x2004 <__heap_default_limit+0x1004>
    3045: a2 77        	ldx	#$77
    3047: 86 05        	stx	$5                      ; 0x2005 <__heap_default_limit+0x1005>
    3049: a2 05        	ldx	#$5
    304b: a9 06        	lda	#$6
    304d: 20 64 57     	jsr	$5764 <mcputsxy>
    3050: a9 20        	lda	#$20
    3052: 05 2b        	ora	$2b                     ; 0x202b <_start+0xa>
    3054: 85 2b        	sta	$2b                     ; 0x202b <_start+0xa>
    3056: a2 03        	ldx	#$3
    3058: 86 04        	stx	$4                      ; 0x2004 <__heap_default_limit+0x1004>
    305a: a2 78        	ldx	#$78
    305c: 86 05        	stx	$5                      ; 0x2005 <__heap_default_limit+0x1005>
    305e: a2 07        	ldx	#$7
    3060: a9 06        	lda	#$6
    3062: 20 64 57     	jsr	$5764 <mcputsxy>
    3065: a6 2b        	ldx	$2b                     ; 0x202b <_start+0xa>
    3067: 86 17        	stx	$17                     ; 0x2017 <next_line+0x2>
    3069: a9 df        	lda	#$df
    306b: 25 2b        	and	$2b                     ; 0x202b <_start+0xa>
    306d: 85 2b        	sta	$2b                     ; 0x202b <_start+0xa>
    306f: 85 16        	sta	$16                     ; 0x2016 <next_line+0x1>
    3071: a0 21        	ldy	#$21
    3073: b1 02        	lda	($2),y                  ; 0x2002 <__heap_default_limit+0x1002>
    3075: 85 04        	sta	$4                      ; 0x2004 <__heap_default_limit+0x1004>
    3077: c8           	iny
    3078: b1 02        	lda	($2),y                  ; 0x2002 <__heap_default_limit+0x1002>
    307a: 85 05        	sta	$5                      ; 0x2005 <__heap_default_limit+0x1005>
    307c: 20 56 57     	jsr	$5756 <msprintf>
    307f: a5 17        	lda	$17                     ; 0x2017 <next_line+0x2>
    3081: 09 20        	ora	#$20
    3083: 85 2b        	sta	$2b                     ; 0x202b <_start+0xa>
    3085: a2 0a        	ldx	#$a
    3087: 86 04        	stx	$4                      ; 0x2004 <__heap_default_limit+0x1004>
    3089: a2 78        	ldx	#$78
    308b: 86 05        	stx	$5                      ; 0x2005 <__heap_default_limit+0x1005>
    308d: 20 56 57     	jsr	$5756 <msprintf>
    3090: a6 16        	ldx	$16                     ; 0x2016 <next_line+0x1>
    3092: 86 2b        	stx	$2b                     ; 0x202b <_start+0xa>
    3094: a2 e0        	ldx	#$e0
    3096: 86 04        	stx	$4                      ; 0x2004 <__heap_default_limit+0x1004>
    3098: a2 78        	ldx	#$78
    309a: 86 05        	stx	$5                      ; 0x2005 <__heap_default_limit+0x1005>
    309c: 20 56 57     	jsr	$5756 <msprintf>
    309f: a2 55        	ldx	#$55
    30a1: 86 04        	stx	$4                      ; 0x2004 <__heap_default_limit+0x1004>
    30a3: a2 73        	ldx	#$73
    30a5: 86 05        	stx	$5                      ; 0x2005 <__heap_default_limit+0x1005>
    30a7: a2 08        	ldx	#$8
    30a9: a9 06        	lda	#$6
    30ab: 20 64 57     	jsr	$5764 <mcputsxy>
    30ae: a6 2b        	ldx	$2b                     ; 0x202b <_start+0xa>
    30b0: 86 16        	stx	$16                     ; 0x2016 <next_line+0x1>
    30b2: a9 40        	lda	#$40
    30b4: 05 2b        	ora	$2b                     ; 0x202b <_start+0xa>
    30b6: 85 2b        	sta	$2b                     ; 0x202b <_start+0xa>
    30b8: a2 3c        	ldx	#$3c
    30ba: 86 04        	stx	$4                      ; 0x2004 <__heap_default_limit+0x1004>
    30bc: a2 73        	ldx	#$73
    30be: 86 05        	stx	$5                      ; 0x2005 <__heap_default_limit+0x1005>
    30c0: 20 56 57     	jsr	$5756 <msprintf>
    30c3: a5 16        	lda	$16                     ; 0x2016 <next_line+0x1>
    30c5: 29 bf        	and	#$bf
    30c7: 85 2b        	sta	$2b                     ; 0x202b <_start+0xa>
    30c9: a2 70        	ldx	#$70
    30cb: 86 04        	stx	$4                      ; 0x2004 <__heap_default_limit+0x1004>
    30cd: a2 78        	ldx	#$78
    30cf: 86 05        	stx	$5                      ; 0x2005 <__heap_default_limit+0x1005>
    30d1: 20 56 57     	jsr	$5756 <msprintf>
    30d4: a2 27        	ldx	#$27
    30d6: 86 04        	stx	$4                      ; 0x2004 <__heap_default_limit+0x1004>
    30d8: a2 76        	ldx	#$76
    30da: 86 05        	stx	$5                      ; 0x2005 <__heap_default_limit+0x1005>
    30dc: a2 09        	ldx	#$9
    30de: a9 06        	lda	#$6
    30e0: 20 64 57     	jsr	$5764 <mcputsxy>
    30e3: a9 20        	lda	#$20
    30e5: 05 2b        	ora	$2b                     ; 0x202b <_start+0xa>
    30e7: 85 2b        	sta	$2b                     ; 0x202b <_start+0xa>
    30e9: a0 21        	ldy	#$21
    30eb: b1 02        	lda	($2),y                  ; 0x2002 <__heap_default_limit+0x1002>
    30ed: 85 04        	sta	$4                      ; 0x2004 <__heap_default_limit+0x1004>
    30ef: c8           	iny
    30f0: b1 02        	lda	($2),y                  ; 0x2002 <__heap_default_limit+0x1002>
    30f2: 85 05        	sta	$5                      ; 0x2005 <__heap_default_limit+0x1005>
    30f4: a2 0b        	ldx	#$b
    30f6: a9 06        	lda	#$6
    30f8: 20 64 57     	jsr	$5764 <mcputsxy>
    30fb: a9 1f        	lda	#$1f
    30fd: 20 bc 67     	jsr	$67bc <cputc>
    3100: a0 21        	ldy	#$21
    3102: b1 02        	lda	($2),y                  ; 0x2002 <__heap_default_limit+0x1002>
    3104: 85 04        	sta	$4                      ; 0x2004 <__heap_default_limit+0x1004>
    3106: c8           	iny
    3107: b1 02        	lda	($2),y                  ; 0x2002 <__heap_default_limit+0x1002>
    3109: 85 05        	sta	$5                      ; 0x2005 <__heap_default_limit+0x1005>
    310b: 20 56 57     	jsr	$5756 <msprintf>
    310e: a6 2b        	ldx	$2b                     ; 0x202b <_start+0xa>
    3110: 86 16        	stx	$16                     ; 0x2016 <next_line+0x1>
    3112: a9 df        	lda	#$df
    3114: 25 2b        	and	$2b                     ; 0x202b <_start+0xa>
    3116: 85 2b        	sta	$2b                     ; 0x202b <_start+0xa>
    3118: a2 45        	ldx	#$45
    311a: 86 04        	stx	$4                      ; 0x2004 <__heap_default_limit+0x1004>
    311c: a2 76        	ldx	#$76
    311e: 86 05        	stx	$5                      ; 0x2005 <__heap_default_limit+0x1005>
    3120: 20 56 57     	jsr	$5756 <msprintf>
    3123: a5 16        	lda	$16                     ; 0x2016 <next_line+0x1>
    3125: 09 20        	ora	#$20
    3127: 85 2b        	sta	$2b                     ; 0x202b <_start+0xa>
    3129: a2 8d        	ldx	#$8d
    312b: 86 04        	stx	$4                      ; 0x2004 <__heap_default_limit+0x1004>
    312d: a2 7a        	ldx	#$7a
    312f: 86 05        	stx	$5                      ; 0x2005 <__heap_default_limit+0x1005>
    3131: a2 0c        	ldx	#$c
    3133: a9 06        	lda	#$6
    3135: 20 64 57     	jsr	$5764 <mcputsxy>
    3138: a9 df        	lda	#$df
    313a: 25 2b        	and	$2b                     ; 0x202b <_start+0xa>
    313c: 85 2b        	sta	$2b                     ; 0x202b <_start+0xa>
    313e: a2 ba        	ldx	#$ba
    3140: 86 04        	stx	$4                      ; 0x2004 <__heap_default_limit+0x1004>
    3142: a2 79        	ldx	#$79
    3144: 86 05        	stx	$5                      ; 0x2005 <__heap_default_limit+0x1005>
    3146: 20 56 57     	jsr	$5756 <msprintf>
    3149: a2 fb        	ldx	#$fb
    314b: 86 04        	stx	$4                      ; 0x2004 <__heap_default_limit+0x1004>
    314d: a2 76        	ldx	#$76
    314f: 86 05        	stx	$5                      ; 0x2005 <__heap_default_limit+0x1005>
    3151: a2 0e        	ldx	#$e
    3153: a9 06        	lda	#$6
    3155: 20 64 57     	jsr	$5764 <mcputsxy>
    3158: a2 ad        	ldx	#$ad
    315a: 86 04        	stx	$4                      ; 0x2004 <__heap_default_limit+0x1004>
    315c: a2 75        	ldx	#$75
    315e: 86 05        	stx	$5                      ; 0x2005 <__heap_default_limit+0x1005>
    3160: a2 0f        	ldx	#$f
    3162: a9 06        	lda	#$6
    3164: 20 64 57     	jsr	$5764 <mcputsxy>
    3167: a2 da        	ldx	#$da
    3169: 86 04        	stx	$4                      ; 0x2004 <__heap_default_limit+0x1004>
    316b: a2 70        	ldx	#$70
    316d: 86 05        	stx	$5                      ; 0x2005 <__heap_default_limit+0x1005>
    316f: a2 10        	ldx	#$10
    3171: a9 06        	lda	#$6
    3173: 20 64 57     	jsr	$5764 <mcputsxy>
    3176: a9 20        	lda	#$20
    3178: 05 2b        	ora	$2b                     ; 0x202b <_start+0xa>
    317a: 85 2b        	sta	$2b                     ; 0x202b <_start+0xa>
    317c: a2 ed        	ldx	#$ed
    317e: 86 04        	stx	$4                      ; 0x2004 <__heap_default_limit+0x1004>
    3180: a2 79        	ldx	#$79
    3182: 86 05        	stx	$5                      ; 0x2005 <__heap_default_limit+0x1005>
    3184: a2 12        	ldx	#$12
    3186: a9 06        	lda	#$6
    3188: 20 64 57     	jsr	$5764 <mcputsxy>
    318b: a6 2b        	ldx	$2b                     ; 0x202b <_start+0xa>
    318d: 86 17        	stx	$17                     ; 0x2017 <next_line+0x2>
    318f: a9 df        	lda	#$df
    3191: 25 2b        	and	$2b                     ; 0x202b <_start+0xa>
    3193: 85 2b        	sta	$2b                     ; 0x202b <_start+0xa>
    3195: 85 16        	sta	$16                     ; 0x2016 <next_line+0x1>
    3197: a2 0a        	ldx	#$a
    3199: 86 04        	stx	$4                      ; 0x2004 <__heap_default_limit+0x1004>
    319b: a2 74        	ldx	#$74
    319d: 86 05        	stx	$5                      ; 0x2005 <__heap_default_limit+0x1005>
    319f: 20 56 57     	jsr	$5756 <msprintf>
    31a2: a5 17        	lda	$17                     ; 0x2017 <next_line+0x2>
    31a4: 09 20        	ora	#$20
    31a6: 85 2b        	sta	$2b                     ; 0x202b <_start+0xa>
    31a8: 85 17        	sta	$17                     ; 0x2017 <next_line+0x2>
    31aa: a2 b1        	ldx	#$b1
    31ac: 86 04        	stx	$4                      ; 0x2004 <__heap_default_limit+0x1004>
    31ae: a2 78        	ldx	#$78
    31b0: 86 05        	stx	$5                      ; 0x2005 <__heap_default_limit+0x1005>
    31b2: 20 56 57     	jsr	$5756 <msprintf>
    31b5: a6 16        	ldx	$16                     ; 0x2016 <next_line+0x1>
    31b7: 86 2b        	stx	$2b                     ; 0x202b <_start+0xa>
    31b9: a0 21        	ldy	#$21
    31bb: b1 02        	lda	($2),y                  ; 0x2002 <__heap_default_limit+0x1002>
    31bd: 85 04        	sta	$4                      ; 0x2004 <__heap_default_limit+0x1004>
    31bf: c8           	iny
    31c0: b1 02        	lda	($2),y                  ; 0x2002 <__heap_default_limit+0x1002>
    31c2: 85 05        	sta	$5                      ; 0x2005 <__heap_default_limit+0x1005>
    31c4: 20 56 57     	jsr	$5756 <msprintf>
    31c7: a6 17        	ldx	$17                     ; 0x2017 <next_line+0x2>
    31c9: 86 2b        	stx	$2b                     ; 0x202b <_start+0xa>
    31cb: a2 db        	ldx	#$db
    31cd: 86 04        	stx	$4                      ; 0x2004 <__heap_default_limit+0x1004>
    31cf: a2 73        	ldx	#$73
    31d1: 86 05        	stx	$5                      ; 0x2005 <__heap_default_limit+0x1005>
    31d3: 20 56 57     	jsr	$5756 <msprintf>
    31d6: a6 16        	ldx	$16                     ; 0x2016 <next_line+0x1>
    31d8: 86 2b        	stx	$2b                     ; 0x202b <_start+0xa>
    31da: a2 40        	ldx	#$40
    31dc: 86 04        	stx	$4                      ; 0x2004 <__heap_default_limit+0x1004>
    31de: a2 77        	ldx	#$77
    31e0: 86 05        	stx	$5                      ; 0x2005 <__heap_default_limit+0x1005>
    31e2: 20 56 57     	jsr	$5756 <msprintf>
    31e5: a2 0d        	ldx	#$d
    31e7: 86 04        	stx	$4                      ; 0x2004 <__heap_default_limit+0x1004>
    31e9: a2 74        	ldx	#$74
    31eb: 86 05        	stx	$5                      ; 0x2005 <__heap_default_limit+0x1005>
    31ed: a2 13        	ldx	#$13
    31ef: a9 06        	lda	#$6
    31f1: 20 64 57     	jsr	$5764 <mcputsxy>
    31f4: a2 7f        	ldx	#$7f
    31f6: 86 04        	stx	$4                      ; 0x2004 <__heap_default_limit+0x1004>
    31f8: a2 73        	ldx	#$73
    31fa: 86 05        	stx	$5                      ; 0x2005 <__heap_default_limit+0x1005>
    31fc: a2 14        	ldx	#$14
    31fe: a9 06        	lda	#$6
    3200: 20 64 57     	jsr	$5764 <mcputsxy>
    3203: a9 20        	lda	#$20
    3205: 05 2b        	ora	$2b                     ; 0x202b <_start+0xa>
    3207: 85 2b        	sta	$2b                     ; 0x202b <_start+0xa>
    3209: a2 01        	ldx	#$1
    320b: 86 04        	stx	$4                      ; 0x2004 <__heap_default_limit+0x1004>
    320d: a2 74        	ldx	#$74
    320f: 86 05        	stx	$5                      ; 0x2005 <__heap_default_limit+0x1005>
    3211: a2 16        	ldx	#$16
    3213: a9 24        	lda	#$24
    3215: 20 64 57     	jsr	$5764 <mcputsxy>
    3218: a9 df        	lda	#$df
    321a: 25 2b        	and	$2b                     ; 0x202b <_start+0xa>
    321c: 85 2b        	sta	$2b                     ; 0x202b <_start+0xa>
    321e: 20 f2 69     	jsr	$69f2 <cgetc>
    3221: c9 03        	cmp	#$3
    3223: d0 03        	bne	$3228 <donehypclosefile3+0x631>
    3225: 4c 0b 23     	jmp	$230b <main+0x1ff>
    3228: c9 0d        	cmp	#$d
    322a: d0 03        	bne	$322f <donehypclosefile3+0x638>
    322c: 4c 0b 23     	jmp	$230b <main+0x1ff>
    322f: c9 1b        	cmp	#$1b
    3231: d0 03        	bne	$3236 <donehypclosefile3+0x63f>
    3233: 4c 0b 23     	jmp	$230b <main+0x1ff>
    3236: c9 20        	cmp	#$20
    3238: f0 03        	beq	$323d <donehypclosefile3+0x646>
    323a: 4c 49 2f     	jmp	$2f49 <donehypclosefile3+0x352>
    323d: 4c 0b 23     	jmp	$230b <main+0x1ff>
    3240: 20 75 67     	jsr	$6775 <sidbong>
    3243: 20 f2 69     	jsr	$69f2 <cgetc>
    3246: c9 03        	cmp	#$3
    3248: d0 03        	bne	$324d <donehypclosefile3+0x656>
    324a: 4c 0b 23     	jmp	$230b <main+0x1ff>
    324d: c9 0d        	cmp	#$d
    324f: d0 03        	bne	$3254 <donehypclosefile3+0x65d>
    3251: 4c 0b 23     	jmp	$230b <main+0x1ff>
    3254: c9 1b        	cmp	#$1b
    3256: d0 03        	bne	$325b <donehypclosefile3+0x664>
    3258: 4c 0b 23     	jmp	$230b <main+0x1ff>
    325b: c9 20        	cmp	#$20
    325d: d0 e1        	bne	$3240 <donehypclosefile3+0x649>
    325f: 4c 0b 23     	jmp	$230b <main+0x1ff>
    3262: c0 70        	cpy	#$70
    3264: d0 03        	bne	$3269 <donehypclosefile3+0x672>
    3266: 4c 6b 45     	jmp	$456b <donehyprmfile5+0x1ba>
    3269: a9 01        	lda	#$1
    326b: 31 04        	and	($4),y                  ; 0x2004 <__heap_default_limit+0x1004>
    326d: d0 03        	bne	$3272 <donehypclosefile3+0x67b>
    326f: 4c dc 38     	jmp	$38dc <donehypclosefile3+0xce5>
    3272: 5a           	phy
    3273: a5 04        	lda	$4                      ; 0x2004 <__heap_default_limit+0x1004>
    3275: a0 12        	ldy	#$12
    3277: 91 02        	sta	($2),y                  ; 0x2002 <__heap_default_limit+0x1002>
    3279: a5 05        	lda	$5                      ; 0x2005 <__heap_default_limit+0x1005>
    327b: c8           	iny
    327c: 91 02        	sta	($2),y                  ; 0x2002 <__heap_default_limit+0x1002>
    327e: 7a           	ply
    327f: 98           	tya
    3280: 5a           	phy
    3281: a0 14        	ldy	#$14
    3283: 91 02        	sta	($2),y                  ; 0x2002 <__heap_default_limit+0x1002>
    3285: 7a           	ply
    3286: 5a           	phy
    3287: fa           	plx
    3288: a5 16        	lda	$16                     ; 0x2016 <next_line+0x1>
    328a: 20 eb 54     	jsr	$54eb <getdirententry>
    328d: a6 04        	ldx	$4                      ; 0x2004 <__heap_default_limit+0x1004>
    328f: 86 18        	stx	$18                     ; 0x2018 <next_line+0x3>
    3291: a6 05        	ldx	$5                      ; 0x2005 <__heap_default_limit+0x1005>
    3293: 86 19        	stx	$19                     ; 0x2019 <next_line+0x4>
    3295: a2 f2        	ldx	#$f2
    3297: 86 04        	stx	$4                      ; 0x2004 <__heap_default_limit+0x1004>
    3299: a2 79        	ldx	#$79
    329b: 86 05        	stx	$5                      ; 0x2005 <__heap_default_limit+0x1005>
    329d: a5 04        	lda	$4                      ; 0x2004 <__heap_default_limit+0x1004>
    329f: a0 21        	ldy	#$21
    32a1: 91 02        	sta	($2),y                  ; 0x2002 <__heap_default_limit+0x1002>
    32a3: a5 05        	lda	$5                      ; 0x2005 <__heap_default_limit+0x1005>
    32a5: c8           	iny
    32a6: 91 02        	sta	($2),y                  ; 0x2002 <__heap_default_limit+0x1002>
    32a8: 88           	dey
    32a9: b1 02        	lda	($2),y                  ; 0x2002 <__heap_default_limit+0x1002>
    32ab: 85 04        	sta	$4                      ; 0x2004 <__heap_default_limit+0x1004>
    32ad: c8           	iny
    32ae: b1 02        	lda	($2),y                  ; 0x2002 <__heap_default_limit+0x1002>
    32b0: 85 05        	sta	$5                      ; 0x2005 <__heap_default_limit+0x1005>
    32b2: a2 49        	ldx	#$49
    32b4: 86 06        	stx	$6                      ; 0x2006 <__heap_default_limit+0x1006>
    32b6: a2 79        	ldx	#$79
    32b8: 86 07        	stx	$7                      ; 0x2007 <__heap_default_limit+0x1007>
    32ba: a9 14        	lda	#$14
    32bc: 20 5c 5a     	jsr	$5a5c <progress>
    32bf: a0 1e        	ldy	#$1e
    32c1: b1 02        	lda	($2),y                  ; 0x2002 <__heap_default_limit+0x1002>
    32c3: 85 04        	sta	$4                      ; 0x2004 <__heap_default_limit+0x1004>
    32c5: c8           	iny
    32c6: b1 02        	lda	($2),y                  ; 0x2002 <__heap_default_limit+0x1002>
    32c8: 85 05        	sta	$5                      ; 0x2005 <__heap_default_limit+0x1005>
    32ca: b2 04        	lda	($4),z                  ; 0x2004 <__heap_default_limit+0x1004>
    32cc: 85 08        	sta	$8                      ; 0x2008 <__heap_default_limit+0x1008>
    32ce: a0 03        	ldy	#$3
    32d0: b1 18        	lda	($18),y                 ; 0x2018 <next_line+0x3>
    32d2: 85 09        	sta	$9                      ; 0x2009 <__heap_default_limit+0x1009>
    32d4: c8           	iny
    32d5: b1 18        	lda	($18),y                 ; 0x2018 <next_line+0x3>
    32d7: 64 04        	stz	$4                      ; 0x2004 <__heap_default_limit+0x1004>
    32d9: a2 08        	ldx	#$8
    32db: 86 05        	stx	$5                      ; 0x2005 <__heap_default_limit+0x1005>
    32dd: a2 80        	ldx	#$80
    32df: 86 06        	stx	$6                      ; 0x2006 <__heap_default_limit+0x1006>
    32e1: a2 0c        	ldx	#$c
    32e3: 86 07        	stx	$7                      ; 0x2007 <__heap_default_limit+0x1007>
    32e5: 85 0a        	sta	$a                      ; 0x200a <__heap_default_limit+0x100a>
    32e7: a2 3c        	ldx	#$3c
    32e9: a9 00        	lda	#$0
    32eb: 20 0a 4e     	jsr	$4e0a <readblockchain>
    32ee: a0 21        	ldy	#$21
    32f0: b1 02        	lda	($2),y                  ; 0x2002 <__heap_default_limit+0x1002>
    32f2: 85 04        	sta	$4                      ; 0x2004 <__heap_default_limit+0x1004>
    32f4: c8           	iny
    32f5: b1 02        	lda	($2),y                  ; 0x2002 <__heap_default_limit+0x1002>
    32f7: 85 05        	sta	$5                      ; 0x2005 <__heap_default_limit+0x1005>
    32f9: a2 c5        	ldx	#$c5
    32fb: 86 06        	stx	$6                      ; 0x2006 <__heap_default_limit+0x1006>
    32fd: a2 73        	ldx	#$73
    32ff: 86 07        	stx	$7                      ; 0x2007 <__heap_default_limit+0x1007>
    3301: a9 1e        	lda	#$1e
    3303: 20 5c 5a     	jsr	$5a5c <progress>
    3306: a0 19        	ldy	#$19
    3308: b1 02        	lda	($2),y                  ; 0x2002 <__heap_default_limit+0x1002>
    330a: 20 75 4d     	jsr	$4d75 <GetBAM>
    330d: a2 3f        	ldx	#$3f
    330f: 86 04        	stx	$4                      ; 0x2004 <__heap_default_limit+0x1004>
    3311: a2 78        	ldx	#$78
    3313: 86 05        	stx	$5                      ; 0x2005 <__heap_default_limit+0x1005>
    3315: a2 99        	ldx	#$99
    3317: 86 06        	stx	$6                      ; 0x2006 <__heap_default_limit+0x1006>
    3319: a2 71        	ldx	#$71
    331b: 86 07        	stx	$7                      ; 0x2007 <__heap_default_limit+0x1007>
    331d: a9 28        	lda	#$28
    331f: 20 5c 5a     	jsr	$5a5c <progress>
    3322: a0 1c        	ldy	#$1c
    3324: b1 02        	lda	($2),y                  ; 0x2002 <__heap_default_limit+0x1002>
    3326: 85 04        	sta	$4                      ; 0x2004 <__heap_default_limit+0x1004>
    3328: c8           	iny
    3329: b1 02        	lda	($2),y                  ; 0x2002 <__heap_default_limit+0x1002>
    332b: 85 05        	sta	$5                      ; 0x2005 <__heap_default_limit+0x1005>
    332d: b2 04        	lda	($4),z                  ; 0x2004 <__heap_default_limit+0x1004>
    332f: a0 17        	ldy	#$17
    3331: 91 02        	sta	($2),y                  ; 0x2002 <__heap_default_limit+0x1002>
    3333: 18           	clc
    3334: a5 02        	lda	$2                      ; 0x2002 <__heap_default_limit+0x1002>
    3336: 69 26        	adc	#$26
    3338: 85 1a        	sta	$1a                     ; 0x201a <next_line+0x5>
    333a: a5 03        	lda	$3                      ; 0x2003 <__heap_default_limit+0x1003>
    333c: 69 00        	adc	#$0
    333e: 85 1b        	sta	$1b                     ; 0x201b <next_line+0x6>
    3340: a9 00        	lda	#$0
    3342: 92 1a        	sta	($1a),z                 ; 0x201a <next_line+0x5>
    3344: 18           	clc
    3345: a5 02        	lda	$2                      ; 0x2002 <__heap_default_limit+0x1002>
    3347: 69 25        	adc	#$25
    3349: 85 1c        	sta	$1c                     ; 0x201c <next_line+0x7>
    334b: a5 03        	lda	$3                      ; 0x2003 <__heap_default_limit+0x1003>
    334d: 69 00        	adc	#$0
    334f: 85 1d        	sta	$1d                     ; 0x201d <next_line+0x8>
    3351: a9 ff        	lda	#$ff
    3353: aa           	tax
    3354: 48           	pha
    3355: 8a           	txa
    3356: a0 21        	ldy	#$21
    3358: 91 02        	sta	($2),y                  ; 0x2002 <__heap_default_limit+0x1002>
    335a: 68           	pla
    335b: 92 1c        	sta	($1c),z                 ; 0x201c <next_line+0x7>
    335d: 18           	clc
    335e: a5 02        	lda	$2                      ; 0x2002 <__heap_default_limit+0x1002>
    3360: 69 24        	adc	#$24
    3362: 85 1e        	sta	$1e                     ; 0x201e <next_line+0x9>
    3364: a5 03        	lda	$3                      ; 0x2003 <__heap_default_limit+0x1003>
    3366: 69 00        	adc	#$0
    3368: 85 1f        	sta	$1f                     ; 0x201f <next_line+0xa>
    336a: a6 1e        	ldx	$1e                     ; 0x201e <next_line+0x9>
    336c: 86 04        	stx	$4                      ; 0x2004 <__heap_default_limit+0x1004>
    336e: 85 05        	sta	$5                      ; 0x2005 <__heap_default_limit+0x1005>
    3370: 18           	clc
    3371: a5 02        	lda	$2                      ; 0x2002 <__heap_default_limit+0x1002>
    3373: 69 23        	adc	#$23
    3375: 85 20        	sta	$20                     ; 0x2020 <next_line+0xb>
    3377: a5 03        	lda	$3                      ; 0x2003 <__heap_default_limit+0x1003>
    3379: 69 00        	adc	#$0
    337b: 85 21        	sta	$21                     ; 0x2021 <_start>
    337d: a6 20        	ldx	$20                     ; 0x2020 <next_line+0xb>
    337f: 86 06        	stx	$6                      ; 0x2006 <__heap_default_limit+0x1006>
    3381: 85 07        	sta	$7                      ; 0x2007 <__heap_default_limit+0x1007>
    3383: a9 00        	lda	#$0
    3385: 20 46 53     	jsr	$5346 <findnextBAMtracksector>
    3388: b2 1e        	lda	($1e),z                 ; 0x201e <next_line+0x9>
    338a: aa           	tax
    338b: b2 20        	lda	($20),z                 ; 0x2020 <next_line+0xb>
    338d: 64 20        	stz	$20                     ; 0x2020 <next_line+0xb>
    338f: 64 17        	stz	$17                     ; 0x2017 <next_line+0x2>
    3391: a0 20        	ldy	#$20
    3393: 91 02        	sta	($2),y                  ; 0x2002 <__heap_default_limit+0x1002>
    3395: 85 1e        	sta	$1e                     ; 0x201e <next_line+0x9>
    3397: 8a           	txa
    3398: 86 21        	stx	$21                     ; 0x2021 <_start>
    339a: a0 00        	ldy	#$0
    339c: 4c 4a 34     	jmp	$344a <donehypclosefile3+0x853>
    339f: c0 0c        	cpy	#$c
    33a1: 90 03        	bcc	$33a6 <donehypclosefile3+0x7af>
    33a3: 4c 5a 34     	jmp	$345a <donehypclosefile3+0x863>
    33a6: 85 16        	sta	$16                     ; 0x2016 <next_line+0x1>
    33a8: 18           	clc
    33a9: a5 20        	lda	$20                     ; 0x2020 <next_line+0xb>
    33ab: 69 3c        	adc	#$3c
    33ad: 85 0c        	sta	$c                      ; 0x200c <__heap_default_limit+0x100c>
    33af: 84 1f        	sty	$1f                     ; 0x201f <next_line+0xa>
    33b1: 98           	tya
    33b2: 69 00        	adc	#$0
    33b4: 85 04        	sta	$4                      ; 0x2004 <__heap_default_limit+0x1004>
    33b6: a9 00        	lda	#$0
    33b8: 69 08        	adc	#$8
    33ba: 85 05        	sta	$5                      ; 0x2005 <__heap_default_limit+0x1005>
    33bc: 64 06        	stz	$6                      ; 0x2006 <__heap_default_limit+0x1006>
    33be: a2 19        	ldx	#$19
    33c0: 86 07        	stx	$7                      ; 0x2007 <__heap_default_limit+0x1007>
    33c2: 64 08        	stz	$8                      ; 0x2008 <__heap_default_limit+0x1008>
    33c4: 64 09        	stz	$9                      ; 0x2009 <__heap_default_limit+0x1009>
    33c6: 64 0a        	stz	$a                      ; 0x200a <__heap_default_limit+0x100a>
    33c8: a2 01        	ldx	#$1
    33ca: 86 0b        	stx	$b                      ; 0x200b <__heap_default_limit+0x100b>
    33cc: a6 0c        	ldx	$c                      ; 0x200c <__heap_default_limit+0x100c>
    33ce: a9 00        	lda	#$0
    33d0: 20 22 6a     	jsr	$6a22 <lcopy>
    33d3: ae 00 19     	ldx	$1900                   ; 0x1900 <__heap_default_limit+0x900>
    33d6: d0 03        	bne	$33db <donehypclosefile3+0x7e4>
    33d8: 4c 1e 34     	jmp	$341e <donehypclosefile3+0x827>
    33db: a6 1a        	ldx	$1a                     ; 0x201a <next_line+0x5>
    33dd: 86 04        	stx	$4                      ; 0x2004 <__heap_default_limit+0x1004>
    33df: a6 1b        	ldx	$1b                     ; 0x201b <next_line+0x6>
    33e1: 86 05        	stx	$5                      ; 0x2005 <__heap_default_limit+0x1005>
    33e3: a6 1c        	ldx	$1c                     ; 0x201c <next_line+0x7>
    33e5: 86 06        	stx	$6                      ; 0x2006 <__heap_default_limit+0x1006>
    33e7: a6 1d        	ldx	$1d                     ; 0x201d <next_line+0x8>
    33e9: 86 07        	stx	$7                      ; 0x2007 <__heap_default_limit+0x1007>
    33eb: a9 00        	lda	#$0
    33ed: 20 46 53     	jsr	$5346 <findnextBAMtracksector>
    33f0: b2 1a        	lda	($1a),z                 ; 0x201a <next_line+0x5>
    33f2: 85 17        	sta	$17                     ; 0x2017 <next_line+0x2>
    33f4: b2 1a        	lda	($1a),z                 ; 0x201a <next_line+0x5>
    33f6: 8d 00 19     	sta	$1900                   ; 0x1900 <__heap_default_limit+0x900>
    33f9: b2 1c        	lda	($1c),z                 ; 0x201c <next_line+0x7>
    33fb: a0 21        	ldy	#$21
    33fd: 91 02        	sta	($2),y                  ; 0x2002 <__heap_default_limit+0x1002>
    33ff: b2 1c        	lda	($1c),z                 ; 0x201c <next_line+0x7>
    3401: 8d 01 19     	sta	$1901                   ; 0x1901 <__heap_default_limit+0x901>
    3404: a5 17        	lda	$17                     ; 0x2017 <next_line+0x2>
    3406: f0 14        	beq	$341c <donehypclosefile3+0x825>
    3408: a6 16        	ldx	$16                     ; 0x2016 <next_line+0x1>
    340a: e4 17        	cpx	$17                     ; 0x2017 <next_line+0x2>
    340c: d0 10        	bne	$341e <donehypclosefile3+0x827>
    340e: b1 02        	lda	($2),y                  ; 0x2002 <__heap_default_limit+0x1002>
    3410: 45 1e        	eor	$1e                     ; 0x201e <next_line+0x9>
    3412: c9 02        	cmp	#$2
    3414: 90 03        	bcc	$3419 <donehypclosefile3+0x822>
    3416: 4c 7c 35     	jmp	$357c <donehypclosefile3+0x985>
    3419: 4c f5 34     	jmp	$34f5 <donehypclosefile3+0x8fe>
    341c: 64 17        	stz	$17                     ; 0x2017 <next_line+0x2>
    341e: a2 00        	ldx	#$0
    3420: 86 04        	stx	$4                      ; 0x2004 <__heap_default_limit+0x1004>
    3422: a2 19        	ldx	#$19
    3424: 86 05        	stx	$5                      ; 0x2005 <__heap_default_limit+0x1005>
    3426: a6 1e        	ldx	$1e                     ; 0x201e <next_line+0x9>
    3428: 86 06        	stx	$6                      ; 0x2006 <__heap_default_limit+0x1006>
    342a: a6 16        	ldx	$16                     ; 0x2016 <next_line+0x1>
    342c: a0 17        	ldy	#$17
    342e: b1 02        	lda	($2),y                  ; 0x2002 <__heap_default_limit+0x1002>
    3430: 20 24 4d     	jsr	$4d24 <PutOneSector>
    3433: ae 00 19     	ldx	$1900                   ; 0x1900 <__heap_default_limit+0x900>
    3436: a4 1f        	ldy	$1f                     ; 0x201f <next_line+0xa>
    3438: 8a           	txa
    3439: f0 1f        	beq	$345a <donehypclosefile3+0x863>
    343b: e6 20        	inc	$20                     ; 0x2020 <next_line+0xb>
    343d: d0 01        	bne	$3440 <donehypclosefile3+0x849>
    343f: c8           	iny
    3440: 5a           	phy
    3441: a0 21        	ldy	#$21
    3443: b1 02        	lda	($2),y                  ; 0x2002 <__heap_default_limit+0x1002>
    3445: 7a           	ply
    3446: 85 1e        	sta	$1e                     ; 0x201e <next_line+0x9>
    3448: a5 17        	lda	$17                     ; 0x2017 <next_line+0x2>
    344a: c0 0c        	cpy	#$c
    344c: f0 03        	beq	$3451 <donehypclosefile3+0x85a>
    344e: 4c 9f 33     	jmp	$339f <donehypclosefile3+0x7a8>
    3451: a6 20        	ldx	$20                     ; 0x2020 <next_line+0xb>
    3453: e0 80        	cpx	#$80
    3455: b0 03        	bcs	$345a <donehypclosefile3+0x863>
    3457: 4c a6 33     	jmp	$33a6 <donehypclosefile3+0x7af>
    345a: a5 17        	lda	$17                     ; 0x2017 <next_line+0x2>
    345c: d0 03        	bne	$3461 <donehypclosefile3+0x86a>
    345e: 4c 95 34     	jmp	$3495 <donehypclosefile3+0x89e>
    3461: c0 0c        	cpy	#$c
    3463: f0 03        	beq	$3468 <donehypclosefile3+0x871>
    3465: 4c eb 34     	jmp	$34eb <donehypclosefile3+0x8f4>
    3468: a6 20        	ldx	$20                     ; 0x2020 <next_line+0xb>
    346a: e0 80        	cpx	#$80
    346c: 90 27        	bcc	$3495 <donehypclosefile3+0x89e>
    346e: a2 3b        	ldx	#$3b
    3470: 86 04        	stx	$4                      ; 0x2004 <__heap_default_limit+0x1004>
    3472: a2 79        	ldx	#$79
    3474: 86 05        	stx	$5                      ; 0x2005 <__heap_default_limit+0x1005>
    3476: a2 f9        	ldx	#$f9
    3478: 86 06        	stx	$6                      ; 0x2006 <__heap_default_limit+0x1006>
    347a: a2 70        	ldx	#$70
    347c: 86 07        	stx	$7                      ; 0x2007 <__heap_default_limit+0x1007>
    347e: a2 9a        	ldx	#$9a
    3480: 86 08        	stx	$8                      ; 0x2008 <__heap_default_limit+0x1008>
    3482: a2 73        	ldx	#$73
    3484: 86 09        	stx	$9                      ; 0x2009 <__heap_default_limit+0x1009>
    3486: a2 0c        	ldx	#$c
    3488: 86 0a        	stx	$a                      ; 0x200a <__heap_default_limit+0x100a>
    348a: 64 0b        	stz	$b                      ; 0x200b <__heap_default_limit+0x100b>
    348c: 64 0c        	stz	$c                      ; 0x200c <__heap_default_limit+0x100c>
    348e: a2 80        	ldx	#$80
    3490: a9 03        	lda	#$3
    3492: 20 05 59     	jsr	$5905 <messagebox>
    3495: a0 03        	ldy	#$3
    3497: a5 21        	lda	$21                     ; 0x2021 <_start>
    3499: 91 18        	sta	($18),y                 ; 0x2018 <next_line+0x3>
    349b: a0 20        	ldy	#$20
    349d: b1 02        	lda	($2),y                  ; 0x2002 <__heap_default_limit+0x1002>
    349f: a0 04        	ldy	#$4
    34a1: 91 18        	sta	($18),y                 ; 0x2018 <next_line+0x3>
    34a3: a2 3f        	ldx	#$3f
    34a5: 86 04        	stx	$4                      ; 0x2004 <__heap_default_limit+0x1004>
    34a7: a2 78        	ldx	#$78
    34a9: 86 05        	stx	$5                      ; 0x2005 <__heap_default_limit+0x1005>
    34ab: a2 aa        	ldx	#$aa
    34ad: 86 06        	stx	$6                      ; 0x2006 <__heap_default_limit+0x1006>
    34af: a2 7a        	ldx	#$7a
    34b1: 86 07        	stx	$7                      ; 0x2007 <__heap_default_limit+0x1007>
    34b3: a9 3c        	lda	#$3c
    34b5: 20 5c 5a     	jsr	$5a5c <progress>
    34b8: a0 1c        	ldy	#$1c
    34ba: b1 02        	lda	($2),y                  ; 0x2002 <__heap_default_limit+0x1002>
    34bc: 85 06        	sta	$6                      ; 0x2006 <__heap_default_limit+0x1006>
    34be: c8           	iny
    34bf: b1 02        	lda	($2),y                  ; 0x2002 <__heap_default_limit+0x1002>
    34c1: 85 07        	sta	$7                      ; 0x2007 <__heap_default_limit+0x1007>
    34c3: b2 06        	lda	($6),z                  ; 0x2006 <__heap_default_limit+0x1006>
    34c5: a0 11        	ldy	#$11
    34c7: 91 02        	sta	($2),y                  ; 0x2002 <__heap_default_limit+0x1002>
    34c9: a0 47        	ldy	#$47
    34cb: b1 06        	lda	($6),y                  ; 0x2006 <__heap_default_limit+0x1006>
    34cd: a0 17        	ldy	#$17
    34cf: 91 02        	sta	($2),y                  ; 0x2002 <__heap_default_limit+0x1002>
    34d1: a2 03        	ldx	#$3
    34d3: 8a           	txa
    34d4: 88           	dey
    34d5: 91 02        	sta	($2),y                  ; 0x2002 <__heap_default_limit+0x1002>
    34d7: a2 08        	ldx	#$8
    34d9: 8a           	txa
    34da: a0 21        	ldy	#$21
    34dc: 91 02        	sta	($2),y                  ; 0x2002 <__heap_default_limit+0x1002>
    34de: 64 1f        	stz	$1f                     ; 0x201f <next_line+0xa>
    34e0: 64 1c        	stz	$1c                     ; 0x201c <next_line+0x7>
    34e2: 64 16        	stz	$16                     ; 0x2016 <next_line+0x1>
    34e4: a0 00        	ldy	#$0
    34e6: 64 05        	stz	$5                      ; 0x2005 <__heap_default_limit+0x1005>
    34e8: 4c 2b 36     	jmp	$362b <donehypclosefile3+0xa34>
    34eb: c0 0c        	cpy	#$c
    34ed: 90 03        	bcc	$34f2 <donehypclosefile3+0x8fb>
    34ef: 4c 6e 34     	jmp	$346e <donehypclosefile3+0x877>
    34f2: 4c 95 34     	jmp	$3495 <donehypclosefile3+0x89e>
    34f5: a6 20        	ldx	$20                     ; 0x2020 <next_line+0xb>
    34f7: a4 1f        	ldy	$1f                     ; 0x201f <next_line+0xa>
    34f9: e8           	inx
    34fa: d0 01        	bne	$34fd <donehypclosefile3+0x906>
    34fc: c8           	iny
    34fd: 86 20        	stx	$20                     ; 0x2020 <next_line+0xb>
    34ff: 8a           	txa
    3500: 18           	clc
    3501: 69 3c        	adc	#$3c
    3503: 85 0c        	sta	$c                      ; 0x200c <__heap_default_limit+0x100c>
    3505: 84 1f        	sty	$1f                     ; 0x201f <next_line+0xa>
    3507: 98           	tya
    3508: 69 00        	adc	#$0
    350a: 85 04        	sta	$4                      ; 0x2004 <__heap_default_limit+0x1004>
    350c: a9 00        	lda	#$0
    350e: 69 08        	adc	#$8
    3510: 85 05        	sta	$5                      ; 0x2005 <__heap_default_limit+0x1005>
    3512: 64 06        	stz	$6                      ; 0x2006 <__heap_default_limit+0x1006>
    3514: a2 1a        	ldx	#$1a
    3516: 86 07        	stx	$7                      ; 0x2007 <__heap_default_limit+0x1007>
    3518: 64 08        	stz	$8                      ; 0x2008 <__heap_default_limit+0x1008>
    351a: 64 09        	stz	$9                      ; 0x2009 <__heap_default_limit+0x1009>
    351c: 64 0a        	stz	$a                      ; 0x200a <__heap_default_limit+0x100a>
    351e: a2 01        	ldx	#$1
    3520: 86 0b        	stx	$b                      ; 0x200b <__heap_default_limit+0x100b>
    3522: a6 0c        	ldx	$c                      ; 0x200c <__heap_default_limit+0x100c>
    3524: a9 00        	lda	#$0
    3526: 20 22 6a     	jsr	$6a22 <lcopy>
    3529: ae 00 1a     	ldx	$1a00                   ; 0x1a00 <__heap_default_limit+0xa00>
    352c: a5 16        	lda	$16                     ; 0x2016 <next_line+0x1>
    352e: 85 17        	sta	$17                     ; 0x2017 <next_line+0x2>
    3530: e0 00        	cpx	#$0
    3532: f0 2b        	beq	$355f <donehypclosefile3+0x968>
    3534: a6 1a        	ldx	$1a                     ; 0x201a <next_line+0x5>
    3536: 86 04        	stx	$4                      ; 0x2004 <__heap_default_limit+0x1004>
    3538: a6 1b        	ldx	$1b                     ; 0x201b <next_line+0x6>
    353a: 86 05        	stx	$5                      ; 0x2005 <__heap_default_limit+0x1005>
    353c: a6 1c        	ldx	$1c                     ; 0x201c <next_line+0x7>
    353e: 86 06        	stx	$6                      ; 0x2006 <__heap_default_limit+0x1006>
    3540: a6 1d        	ldx	$1d                     ; 0x201d <next_line+0x8>
    3542: 86 07        	stx	$7                      ; 0x2007 <__heap_default_limit+0x1007>
    3544: a9 00        	lda	#$0
    3546: 20 46 53     	jsr	$5346 <findnextBAMtracksector>
    3549: b2 1a        	lda	($1a),z                 ; 0x201a <next_line+0x5>
    354b: 85 17        	sta	$17                     ; 0x2017 <next_line+0x2>
    354d: b2 1a        	lda	($1a),z                 ; 0x201a <next_line+0x5>
    354f: 8d 00 1a     	sta	$1a00                   ; 0x1a00 <__heap_default_limit+0xa00>
    3552: b2 1c        	lda	($1c),z                 ; 0x201c <next_line+0x7>
    3554: a0 21        	ldy	#$21
    3556: 91 02        	sta	($2),y                  ; 0x2002 <__heap_default_limit+0x1002>
    3558: b2 1c        	lda	($1c),z                 ; 0x201c <next_line+0x7>
    355a: 8d 01 1a     	sta	$1a01                   ; 0x1a01 <__heap_default_limit+0xa01>
    355d: a5 16        	lda	$16                     ; 0x2016 <next_line+0x1>
    355f: a2 00        	ldx	#$0
    3561: 86 04        	stx	$4                      ; 0x2004 <__heap_default_limit+0x1004>
    3563: a2 19        	ldx	#$19
    3565: 86 05        	stx	$5                      ; 0x2005 <__heap_default_limit+0x1005>
    3567: a6 1e        	ldx	$1e                     ; 0x201e <next_line+0x9>
    3569: 86 06        	stx	$6                      ; 0x2006 <__heap_default_limit+0x1006>
    356b: aa           	tax
    356c: a0 17        	ldy	#$17
    356e: b1 02        	lda	($2),y                  ; 0x2002 <__heap_default_limit+0x1002>
    3570: 20 a0 4c     	jsr	$4ca0 <PutWholeSector>
    3573: ae 00 1a     	ldx	$1a00                   ; 0x1a00 <__heap_default_limit+0xa00>
    3576: 8e 00 19     	stx	$1900                   ; 0x1900 <__heap_default_limit+0x900>
    3579: 4c 36 34     	jmp	$3436 <donehypclosefile3+0x83f>
    357c: a6 16        	ldx	$16                     ; 0x2016 <next_line+0x1>
    357e: 86 17        	stx	$17                     ; 0x2017 <next_line+0x2>
    3580: 4c 1e 34     	jmp	$341e <donehypclosefile3+0x827>
    3583: 85 04        	sta	$4                      ; 0x2004 <__heap_default_limit+0x1004>
    3585: e4 04        	cpx	$4                      ; 0x2004 <__heap_default_limit+0x1004>
    3587: 90 03        	bcc	$358c <donehypclosefile3+0x995>
    3589: 4c 7b 36     	jmp	$367b <donehypclosefile3+0xa84>
    358c: 85 1b        	sta	$1b                     ; 0x201b <next_line+0x6>
    358e: 84 1a        	sty	$1a                     ; 0x201a <next_line+0x5>
    3590: a0 15        	ldy	#$15
    3592: b1 02        	lda	($2),y                  ; 0x2002 <__heap_default_limit+0x1002>
    3594: 85 06        	sta	$6                      ; 0x2006 <__heap_default_limit+0x1006>
    3596: 18           	clc
    3597: 65 1e        	adc	$1e                     ; 0x201e <next_line+0x9>
    3599: 85 0c        	sta	$c                      ; 0x200c <__heap_default_limit+0x100c>
    359b: a0 1b        	ldy	#$1b
    359d: b1 02        	lda	($2),y                  ; 0x2002 <__heap_default_limit+0x1002>
    359f: 65 08        	adc	$8                      ; 0x2008 <__heap_default_limit+0x1008>
    35a1: 85 0d        	sta	$d                      ; 0x200d <__heap_default_limit+0x100d>
    35a3: a5 06        	lda	$6                      ; 0x2006 <__heap_default_limit+0x1006>
    35a5: 69 00        	adc	#$0
    35a7: a8           	tay
    35a8: 5a           	phy
    35a9: a0 1a        	ldy	#$1a
    35ab: b1 02        	lda	($2),y                  ; 0x2002 <__heap_default_limit+0x1002>
    35ad: 7a           	ply
    35ae: 69 00        	adc	#$0
    35b0: 84 1e        	sty	$1e                     ; 0x201e <next_line+0x9>
    35b2: 84 04        	sty	$4                      ; 0x2004 <__heap_default_limit+0x1004>
    35b4: 85 20        	sta	$20                     ; 0x2020 <next_line+0xb>
    35b6: 85 05        	sta	$5                      ; 0x2005 <__heap_default_limit+0x1005>
    35b8: a0 e1        	ldy	#$e1
    35ba: 84 06        	sty	$6                      ; 0x2006 <__heap_default_limit+0x1006>
    35bc: a0 1b        	ldy	#$1b
    35be: 84 07        	sty	$7                      ; 0x2007 <__heap_default_limit+0x1007>
    35c0: 64 08        	stz	$8                      ; 0x2008 <__heap_default_limit+0x1008>
    35c2: 64 09        	stz	$9                      ; 0x2009 <__heap_default_limit+0x1009>
    35c4: a0 20        	ldy	#$20
    35c6: 84 0a        	sty	$a                      ; 0x200a <__heap_default_limit+0x100a>
    35c8: 64 0b        	stz	$b                      ; 0x200b <__heap_default_limit+0x100b>
    35ca: a6 0d        	ldx	$d                      ; 0x200d <__heap_default_limit+0x100d>
    35cc: 86 1d        	stx	$1d                     ; 0x201d <next_line+0x8>
    35ce: a5 0c        	lda	$c                      ; 0x200c <__heap_default_limit+0x100c>
    35d0: 85 17        	sta	$17                     ; 0x2017 <next_line+0x2>
    35d2: 20 22 6a     	jsr	$6a22 <lcopy>
    35d5: a5 1a        	lda	$1a                     ; 0x201a <next_line+0x5>
    35d7: 29 07        	and	#$7
    35d9: f0 04        	beq	$35df <donehypclosefile3+0x9e8>
    35db: a0 01        	ldy	#$1
    35dd: 80 1c        	bra	$35fb <donehypclosefile3+0xa04>
    35df: a6 1a        	ldx	$1a                     ; 0x201a <next_line+0x5>
    35e1: a0 01        	ldy	#$1
    35e3: a5 1a        	lda	$1a                     ; 0x201a <next_line+0x5>
    35e5: d0 03        	bne	$35ea <donehypclosefile3+0x9f3>
    35e7: 4c e0 38     	jmp	$38e0 <donehypclosefile3+0xce9>
    35ea: 86 16        	stx	$16                     ; 0x2016 <next_line+0x1>
    35ec: a6 1c        	ldx	$1c                     ; 0x201c <next_line+0x7>
    35ee: 5a           	phy
    35ef: 8a           	txa
    35f0: a0 17        	ldy	#$17
    35f2: 91 02        	sta	($2),y                  ; 0x2002 <__heap_default_limit+0x1002>
    35f4: a6 1f        	ldx	$1f                     ; 0x201f <next_line+0xa>
    35f6: 8a           	txa
    35f7: 88           	dey
    35f8: 91 02        	sta	($2),y                  ; 0x2002 <__heap_default_limit+0x1002>
    35fa: 7a           	ply
    35fb: ae e1 1b     	ldx	$1be1                   ; 0x1be1 <__heap_default_limit+0xbe1>
    35fe: f0 1a        	beq	$361a <donehypclosefile3+0xa23>
    3600: 18           	clc
    3601: 86 1c        	stx	$1c                     ; 0x201c <next_line+0x7>
    3603: 5a           	phy
    3604: a0 21        	ldy	#$21
    3606: b1 02        	lda	($2),y                  ; 0x2002 <__heap_default_limit+0x1002>
    3608: 69 08        	adc	#$8
    360a: 91 02        	sta	($2),y                  ; 0x2002 <__heap_default_limit+0x1002>
    360c: 7a           	ply
    360d: a5 1b        	lda	$1b                     ; 0x201b <next_line+0x6>
    360f: 69 00        	adc	#$0
    3611: 85 1b        	sta	$1b                     ; 0x201b <next_line+0x6>
    3613: ae e2 1b     	ldx	$1be2                   ; 0x1be2 <__heap_default_limit+0xbe2>
    3616: 86 1f        	stx	$1f                     ; 0x201f <next_line+0xa>
    3618: a6 1c        	ldx	$1c                     ; 0x201c <next_line+0x7>
    361a: a9 0f        	lda	#$f
    361c: 2d e3 1b     	and	$1be3                   ; 0x1be3 <__heap_default_limit+0xbe3>
    361f: d0 03        	bne	$3624 <donehypclosefile3+0xa2d>
    3621: 4c e5 38     	jmp	$38e5 <donehypclosefile3+0xcee>
    3624: a4 1a        	ldy	$1a                     ; 0x201a <next_line+0x5>
    3626: c8           	iny
    3627: a6 1b        	ldx	$1b                     ; 0x201b <next_line+0x6>
    3629: 86 05        	stx	$5                      ; 0x2005 <__heap_default_limit+0x1005>
    362b: 98           	tya
    362c: 4a           	lsr
    362d: a2 01        	ldx	#$1
    362f: b0 02        	bcs	$3633 <donehypclosefile3+0xa3c>
    3631: a2 00        	ldx	#$0
    3633: 86 06        	stx	$6                      ; 0x2006 <__heap_default_limit+0x1006>
    3635: 4a           	lsr
    3636: a2 01        	ldx	#$1
    3638: b0 02        	bcs	$363c <donehypclosefile3+0xa45>
    363a: a2 00        	ldx	#$0
    363c: 86 08        	stx	$8                      ; 0x2008 <__heap_default_limit+0x1008>
    363e: 85 04        	sta	$4                      ; 0x2004 <__heap_default_limit+0x1004>
    3640: 64 1e        	stz	$1e                     ; 0x201e <next_line+0x9>
    3642: a6 06        	ldx	$6                      ; 0x2006 <__heap_default_limit+0x1006>
    3644: e0 01        	cpx	#$1
    3646: 66 1e        	ror	$1e                     ; 0x201e <next_line+0x9>
    3648: 46 04        	lsr	$4                      ; 0x2004 <__heap_default_limit+0x1004>
    364a: 48           	pha
    364b: a5 04        	lda	$4                      ; 0x2004 <__heap_default_limit+0x1004>
    364d: 5a           	phy
    364e: a0 20        	ldy	#$20
    3650: 91 02        	sta	($2),y                  ; 0x2002 <__heap_default_limit+0x1002>
    3652: 7a           	ply
    3653: 68           	pla
    3654: a6 08        	ldx	$8                      ; 0x2008 <__heap_default_limit+0x1008>
    3656: e0 01        	cpx	#$1
    3658: 66 1e        	ror	$1e                     ; 0x201e <next_line+0x9>
    365a: 4a           	lsr
    365b: 85 08        	sta	$8                      ; 0x2008 <__heap_default_limit+0x1008>
    365d: 66 1e        	ror	$1e                     ; 0x201e <next_line+0x9>
    365f: a2 00        	ldx	#$0
    3661: a5 05        	lda	$5                      ; 0x2005 <__heap_default_limit+0x1005>
    3663: e4 05        	cpx	$5                      ; 0x2005 <__heap_default_limit+0x1005>
    3665: f0 03        	beq	$366a <donehypclosefile3+0xa73>
    3667: 4c 83 35     	jmp	$3583 <donehypclosefile3+0x98c>
    366a: 48           	pha
    366b: 5a           	phy
    366c: a0 21        	ldy	#$21
    366e: b1 02        	lda	($2),y                  ; 0x2002 <__heap_default_limit+0x1002>
    3670: 7a           	ply
    3671: 85 04        	sta	$4                      ; 0x2004 <__heap_default_limit+0x1004>
    3673: 68           	pla
    3674: c4 04        	cpy	$4                      ; 0x2004 <__heap_default_limit+0x1004>
    3676: b0 03        	bcs	$367b <donehypclosefile3+0xa84>
    3678: 4c 8c 35     	jmp	$358c <donehypclosefile3+0x995>
    367b: 18           	clc
    367c: a5 02        	lda	$2                      ; 0x2002 <__heap_default_limit+0x1002>
    367e: 69 28        	adc	#$28
    3680: 85 1a        	sta	$1a                     ; 0x201a <next_line+0x5>
    3682: a5 03        	lda	$3                      ; 0x2003 <__heap_default_limit+0x1003>
    3684: 69 00        	adc	#$0
    3686: 85 1b        	sta	$1b                     ; 0x201b <next_line+0x6>
    3688: a5 1c        	lda	$1c                     ; 0x201c <next_line+0x7>
    368a: 92 1a        	sta	($1a),z                 ; 0x201a <next_line+0x5>
    368c: 18           	clc
    368d: a5 02        	lda	$2                      ; 0x2002 <__heap_default_limit+0x1002>
    368f: 69 27        	adc	#$27
    3691: 85 1c        	sta	$1c                     ; 0x201c <next_line+0x7>
    3693: a5 03        	lda	$3                      ; 0x2003 <__heap_default_limit+0x1003>
    3695: 69 00        	adc	#$0
    3697: 85 1d        	sta	$1d                     ; 0x201d <next_line+0x8>
    3699: a5 1f        	lda	$1f                     ; 0x201f <next_line+0xa>
    369b: 92 1c        	sta	($1c),z                 ; 0x201c <next_line+0x7>
    369d: 46 16        	lsr	$16                     ; 0x2016 <next_line+0x1>
    369f: a9 00        	lda	#$0
    36a1: 6a           	ror
    36a2: 46 16        	lsr	$16                     ; 0x2016 <next_line+0x1>
    36a4: 6a           	ror
    36a5: a6 16        	ldx	$16                     ; 0x2016 <next_line+0x1>
    36a7: 86 04        	stx	$4                      ; 0x2004 <__heap_default_limit+0x1004>
    36a9: 46 04        	lsr	$4                      ; 0x2004 <__heap_default_limit+0x1004>
    36ab: 6a           	ror
    36ac: 85 05        	sta	$5                      ; 0x2005 <__heap_default_limit+0x1005>
    36ae: a0 15        	ldy	#$15
    36b0: b1 02        	lda	($2),y                  ; 0x2002 <__heap_default_limit+0x1002>
    36b2: 85 1f        	sta	$1f                     ; 0x201f <next_line+0xa>
    36b4: a0 0d        	ldy	#$d
    36b6: 91 02        	sta	($2),y                  ; 0x2002 <__heap_default_limit+0x1002>
    36b8: 18           	clc
    36b9: 65 05        	adc	$5                      ; 0x2005 <__heap_default_limit+0x1005>
    36bb: 85 20        	sta	$20                     ; 0x2020 <next_line+0xb>
    36bd: a5 1e        	lda	$1e                     ; 0x201e <next_line+0x9>
    36bf: a0 09        	ldy	#$9
    36c1: 91 02        	sta	($2),y                  ; 0x2002 <__heap_default_limit+0x1002>
    36c3: a0 1b        	ldy	#$1b
    36c5: b1 02        	lda	($2),y                  ; 0x2002 <__heap_default_limit+0x1002>
    36c7: a0 0f        	ldy	#$f
    36c9: 91 02        	sta	($2),y                  ; 0x2002 <__heap_default_limit+0x1002>
    36cb: 65 04        	adc	$4                      ; 0x2004 <__heap_default_limit+0x1004>
    36cd: 85 17        	sta	$17                     ; 0x2017 <next_line+0x2>
    36cf: a5 1f        	lda	$1f                     ; 0x201f <next_line+0xa>
    36d1: a0 08        	ldy	#$8
    36d3: 91 02        	sta	($2),y                  ; 0x2002 <__heap_default_limit+0x1002>
    36d5: 69 00        	adc	#$0
    36d7: 85 1e        	sta	$1e                     ; 0x201e <next_line+0x9>
    36d9: a0 1a        	ldy	#$1a
    36db: b1 02        	lda	($2),y                  ; 0x2002 <__heap_default_limit+0x1002>
    36dd: a0 0e        	ldy	#$e
    36df: 91 02        	sta	($2),y                  ; 0x2002 <__heap_default_limit+0x1002>
    36e1: 69 00        	adc	#$0
    36e3: 85 21        	sta	$21                     ; 0x2021 <_start>
    36e5: a6 1e        	ldx	$1e                     ; 0x201e <next_line+0x9>
    36e7: 86 04        	stx	$4                      ; 0x2004 <__heap_default_limit+0x1004>
    36e9: 85 05        	sta	$5                      ; 0x2005 <__heap_default_limit+0x1005>
    36eb: a2 e1        	ldx	#$e1
    36ed: 86 06        	stx	$6                      ; 0x2006 <__heap_default_limit+0x1006>
    36ef: a2 1b        	ldx	#$1b
    36f1: 86 07        	stx	$7                      ; 0x2007 <__heap_default_limit+0x1007>
    36f3: a5 08        	lda	$8                      ; 0x2008 <__heap_default_limit+0x1008>
    36f5: a0 0b        	ldy	#$b
    36f7: 91 02        	sta	($2),y                  ; 0x2002 <__heap_default_limit+0x1002>
    36f9: 64 08        	stz	$8                      ; 0x2008 <__heap_default_limit+0x1008>
    36fb: 64 09        	stz	$9                      ; 0x2009 <__heap_default_limit+0x1009>
    36fd: a2 20        	ldx	#$20
    36ff: 86 0a        	stx	$a                      ; 0x200a <__heap_default_limit+0x100a>
    3701: 64 0b        	stz	$b                      ; 0x200b <__heap_default_limit+0x100b>
    3703: a6 17        	ldx	$17                     ; 0x2017 <next_line+0x2>
    3705: a5 20        	lda	$20                     ; 0x2020 <next_line+0xb>
    3707: 20 22 6a     	jsr	$6a22 <lcopy>
    370a: a6 1a        	ldx	$1a                     ; 0x201a <next_line+0x5>
    370c: 86 04        	stx	$4                      ; 0x2004 <__heap_default_limit+0x1004>
    370e: a6 1b        	ldx	$1b                     ; 0x201b <next_line+0x6>
    3710: 86 05        	stx	$5                      ; 0x2005 <__heap_default_limit+0x1005>
    3712: a6 1c        	ldx	$1c                     ; 0x201c <next_line+0x7>
    3714: 86 06        	stx	$6                      ; 0x2006 <__heap_default_limit+0x1006>
    3716: a6 1d        	ldx	$1d                     ; 0x201d <next_line+0x8>
    3718: 86 07        	stx	$7                      ; 0x2007 <__heap_default_limit+0x1007>
    371a: a9 01        	lda	#$1
    371c: 20 46 53     	jsr	$5346 <findnextBAMtracksector>
    371f: b2 1a        	lda	($1a),z                 ; 0x201a <next_line+0x5>
    3721: a0 10        	ldy	#$10
    3723: 91 02        	sta	($2),y                  ; 0x2002 <__heap_default_limit+0x1002>
    3725: b2 1a        	lda	($1a),z                 ; 0x201a <next_line+0x5>
    3727: 8d e1 1b     	sta	$1be1                   ; 0x1be1 <__heap_default_limit+0xbe1>
    372a: b2 1c        	lda	($1c),z                 ; 0x201c <next_line+0x7>
    372c: a0 0c        	ldy	#$c
    372e: 91 02        	sta	($2),y                  ; 0x2002 <__heap_default_limit+0x1002>
    3730: b2 1c        	lda	($1c),z                 ; 0x201c <next_line+0x7>
    3732: 8d e2 1b     	sta	$1be2                   ; 0x1be2 <__heap_default_limit+0xbe2>
    3735: a6 20        	ldx	$20                     ; 0x2020 <next_line+0xb>
    3737: 86 06        	stx	$6                      ; 0x2006 <__heap_default_limit+0x1006>
    3739: a6 17        	ldx	$17                     ; 0x2017 <next_line+0x2>
    373b: 86 07        	stx	$7                      ; 0x2007 <__heap_default_limit+0x1007>
    373d: 64 04        	stz	$4                      ; 0x2004 <__heap_default_limit+0x1004>
    373f: 64 05        	stz	$5                      ; 0x2005 <__heap_default_limit+0x1005>
    3741: a6 1e        	ldx	$1e                     ; 0x201e <next_line+0x9>
    3743: 86 08        	stx	$8                      ; 0x2008 <__heap_default_limit+0x1008>
    3745: a6 21        	ldx	$21                     ; 0x2021 <_start>
    3747: 86 09        	stx	$9                      ; 0x2009 <__heap_default_limit+0x1009>
    3749: a2 20        	ldx	#$20
    374b: 86 0a        	stx	$a                      ; 0x200a <__heap_default_limit+0x100a>
    374d: 64 0b        	stz	$b                      ; 0x200b <__heap_default_limit+0x100b>
    374f: a2 1b        	ldx	#$1b
    3751: a9 e1        	lda	#$e1
    3753: 20 22 6a     	jsr	$6a22 <lcopy>
    3756: 46 16        	lsr	$16                     ; 0x2016 <next_line+0x1>
    3758: a9 00        	lda	#$0
    375a: 18           	clc
    375b: 65 1f        	adc	$1f                     ; 0x201f <next_line+0xa>
    375d: 48           	pha
    375e: a9 01        	lda	#$1
    3760: b0 02        	bcs	$3764 <donehypclosefile3+0xb6d>
    3762: a9 00        	lda	#$0
    3764: a0 0a        	ldy	#$a
    3766: 91 02        	sta	($2),y                  ; 0x2002 <__heap_default_limit+0x1002>
    3768: 68           	pla
    3769: 85 1b        	sta	$1b                     ; 0x201b <next_line+0x6>
    376b: a0 1b        	ldy	#$1b
    376d: b1 02        	lda	($2),y                  ; 0x2002 <__heap_default_limit+0x1002>
    376f: 85 20        	sta	$20                     ; 0x2020 <next_line+0xb>
    3771: a5 16        	lda	$16                     ; 0x2016 <next_line+0x1>
    3773: 65 20        	adc	$20                     ; 0x2020 <next_line+0xb>
    3775: 85 0c        	sta	$c                      ; 0x200c <__heap_default_limit+0x100c>
    3777: a9 00        	lda	#$0
    3779: 65 1f        	adc	$1f                     ; 0x201f <next_line+0xa>
    377b: aa           	tax
    377c: a9 00        	lda	#$0
    377e: 48           	pha
    377f: 88           	dey
    3780: b1 02        	lda	($2),y                  ; 0x2002 <__heap_default_limit+0x1002>
    3782: 85 1e        	sta	$1e                     ; 0x201e <next_line+0x9>
    3784: 68           	pla
    3785: 65 1e        	adc	$1e                     ; 0x201e <next_line+0x9>
    3787: 86 04        	stx	$4                      ; 0x2004 <__heap_default_limit+0x1004>
    3789: 85 05        	sta	$5                      ; 0x2005 <__heap_default_limit+0x1005>
    378b: 64 06        	stz	$6                      ; 0x2006 <__heap_default_limit+0x1006>
    378d: a2 19        	ldx	#$19
    378f: 86 07        	stx	$7                      ; 0x2007 <__heap_default_limit+0x1007>
    3791: 64 08        	stz	$8                      ; 0x2008 <__heap_default_limit+0x1008>
    3793: 64 09        	stz	$9                      ; 0x2009 <__heap_default_limit+0x1009>
    3795: 64 0a        	stz	$a                      ; 0x200a <__heap_default_limit+0x100a>
    3797: a2 01        	ldx	#$1
    3799: 86 0b        	stx	$b                      ; 0x200b <__heap_default_limit+0x100b>
    379b: a6 0c        	ldx	$c                      ; 0x200c <__heap_default_limit+0x100c>
    379d: a5 1b        	lda	$1b                     ; 0x201b <next_line+0x6>
    379f: 20 22 6a     	jsr	$6a22 <lcopy>
    37a2: a2 00        	ldx	#$0
    37a4: 86 04        	stx	$4                      ; 0x2004 <__heap_default_limit+0x1004>
    37a6: a2 19        	ldx	#$19
    37a8: 86 05        	stx	$5                      ; 0x2005 <__heap_default_limit+0x1005>
    37aa: a5 04        	lda	$4                      ; 0x2004 <__heap_default_limit+0x1004>
    37ac: a0 21        	ldy	#$21
    37ae: 91 02        	sta	($2),y                  ; 0x2002 <__heap_default_limit+0x1002>
    37b0: a5 05        	lda	$5                      ; 0x2005 <__heap_default_limit+0x1005>
    37b2: c8           	iny
    37b3: 91 02        	sta	($2),y                  ; 0x2002 <__heap_default_limit+0x1002>
    37b5: 88           	dey
    37b6: b1 02        	lda	($2),y                  ; 0x2002 <__heap_default_limit+0x1002>
    37b8: 85 04        	sta	$4                      ; 0x2004 <__heap_default_limit+0x1004>
    37ba: c8           	iny
    37bb: b1 02        	lda	($2),y                  ; 0x2002 <__heap_default_limit+0x1002>
    37bd: 85 05        	sta	$5                      ; 0x2005 <__heap_default_limit+0x1005>
    37bf: a0 16        	ldy	#$16
    37c1: b1 02        	lda	($2),y                  ; 0x2002 <__heap_default_limit+0x1002>
    37c3: 85 06        	sta	$6                      ; 0x2006 <__heap_default_limit+0x1006>
    37c5: c8           	iny
    37c6: b1 02        	lda	($2),y                  ; 0x2002 <__heap_default_limit+0x1002>
    37c8: aa           	tax
    37c9: a0 11        	ldy	#$11
    37cb: b1 02        	lda	($2),y                  ; 0x2002 <__heap_default_limit+0x1002>
    37cd: 85 1a        	sta	$1a                     ; 0x201a <next_line+0x5>
    37cf: 20 24 4d     	jsr	$4d24 <PutOneSector>
    37d2: a0 0d        	ldy	#$d
    37d4: b1 02        	lda	($2),y                  ; 0x2002 <__heap_default_limit+0x1002>
    37d6: 18           	clc
    37d7: 48           	pha
    37d8: a0 09        	ldy	#$9
    37da: b1 02        	lda	($2),y                  ; 0x2002 <__heap_default_limit+0x1002>
    37dc: 85 04        	sta	$4                      ; 0x2004 <__heap_default_limit+0x1004>
    37de: 68           	pla
    37df: 65 04        	adc	$4                      ; 0x2004 <__heap_default_limit+0x1004>
    37e1: 85 16        	sta	$16                     ; 0x2016 <next_line+0x1>
    37e3: a0 0f        	ldy	#$f
    37e5: b1 02        	lda	($2),y                  ; 0x2002 <__heap_default_limit+0x1002>
    37e7: 48           	pha
    37e8: a0 0b        	ldy	#$b
    37ea: b1 02        	lda	($2),y                  ; 0x2002 <__heap_default_limit+0x1002>
    37ec: 85 04        	sta	$4                      ; 0x2004 <__heap_default_limit+0x1004>
    37ee: 68           	pla
    37ef: 65 04        	adc	$4                      ; 0x2004 <__heap_default_limit+0x1004>
    37f1: 85 1c        	sta	$1c                     ; 0x201c <next_line+0x7>
    37f3: a0 08        	ldy	#$8
    37f5: b1 02        	lda	($2),y                  ; 0x2002 <__heap_default_limit+0x1002>
    37f7: 69 00        	adc	#$0
    37f9: 85 17        	sta	$17                     ; 0x2017 <next_line+0x2>
    37fb: a0 0e        	ldy	#$e
    37fd: b1 02        	lda	($2),y                  ; 0x2002 <__heap_default_limit+0x1002>
    37ff: 69 00        	adc	#$0
    3801: 85 1d        	sta	$1d                     ; 0x201d <next_line+0x8>
    3803: a6 17        	ldx	$17                     ; 0x2017 <next_line+0x2>
    3805: 86 04        	stx	$4                      ; 0x2004 <__heap_default_limit+0x1004>
    3807: 85 05        	sta	$5                      ; 0x2005 <__heap_default_limit+0x1005>
    3809: 64 06        	stz	$6                      ; 0x2006 <__heap_default_limit+0x1006>
    380b: 64 07        	stz	$7                      ; 0x2007 <__heap_default_limit+0x1007>
    380d: a2 01        	ldx	#$1
    380f: 86 08        	stx	$8                      ; 0x2008 <__heap_default_limit+0x1008>
    3811: a6 1c        	ldx	$1c                     ; 0x201c <next_line+0x7>
    3813: a5 16        	lda	$16                     ; 0x2016 <next_line+0x1>
    3815: 20 89 6a     	jsr	$6a89 <lfill>
    3818: a9 00        	lda	#$0
    381a: 92 18        	sta	($18),z                 ; 0x2018 <next_line+0x3>
    381c: 3a           	dec
    381d: a0 01        	ldy	#$1
    381f: 91 18        	sta	($18),y                 ; 0x2018 <next_line+0x3>
    3821: a6 16        	ldx	$16                     ; 0x2016 <next_line+0x1>
    3823: 86 06        	stx	$6                      ; 0x2006 <__heap_default_limit+0x1006>
    3825: a6 1c        	ldx	$1c                     ; 0x201c <next_line+0x7>
    3827: 86 07        	stx	$7                      ; 0x2007 <__heap_default_limit+0x1007>
    3829: 64 04        	stz	$4                      ; 0x2004 <__heap_default_limit+0x1004>
    382b: 64 05        	stz	$5                      ; 0x2005 <__heap_default_limit+0x1005>
    382d: 64 0b        	stz	$b                      ; 0x200b <__heap_default_limit+0x100b>
    382f: a6 17        	ldx	$17                     ; 0x2017 <next_line+0x2>
    3831: 86 08        	stx	$8                      ; 0x2008 <__heap_default_limit+0x1008>
    3833: a6 1d        	ldx	$1d                     ; 0x201d <next_line+0x8>
    3835: 86 09        	stx	$9                      ; 0x2009 <__heap_default_limit+0x1009>
    3837: a2 20        	ldx	#$20
    3839: 86 0a        	stx	$a                      ; 0x200a <__heap_default_limit+0x100a>
    383b: a6 19        	ldx	$19                     ; 0x2019 <next_line+0x4>
    383d: a5 18        	lda	$18                     ; 0x2018 <next_line+0x3>
    383f: 20 22 6a     	jsr	$6a22 <lcopy>
    3842: a0 20        	ldy	#$20
    3844: b1 02        	lda	($2),y                  ; 0x2002 <__heap_default_limit+0x1002>
    3846: 48           	pha
    3847: a0 0a        	ldy	#$a
    3849: b1 02        	lda	($2),y                  ; 0x2002 <__heap_default_limit+0x1002>
    384b: c9 01        	cmp	#$1
    384d: 68           	pla
    384e: 65 20        	adc	$20                     ; 0x2020 <next_line+0xb>
    3850: 85 0c        	sta	$c                      ; 0x200c <__heap_default_limit+0x100c>
    3852: a9 00        	lda	#$0
    3854: 65 1f        	adc	$1f                     ; 0x201f <next_line+0xa>
    3856: 85 04        	sta	$4                      ; 0x2004 <__heap_default_limit+0x1004>
    3858: a9 00        	lda	#$0
    385a: 65 1e        	adc	$1e                     ; 0x201e <next_line+0x9>
    385c: 85 05        	sta	$5                      ; 0x2005 <__heap_default_limit+0x1005>
    385e: 64 06        	stz	$6                      ; 0x2006 <__heap_default_limit+0x1006>
    3860: a2 19        	ldx	#$19
    3862: 86 07        	stx	$7                      ; 0x2007 <__heap_default_limit+0x1007>
    3864: 64 08        	stz	$8                      ; 0x2008 <__heap_default_limit+0x1008>
    3866: 64 09        	stz	$9                      ; 0x2009 <__heap_default_limit+0x1009>
    3868: 64 0a        	stz	$a                      ; 0x200a <__heap_default_limit+0x100a>
    386a: a2 01        	ldx	#$1
    386c: 86 0b        	stx	$b                      ; 0x200b <__heap_default_limit+0x100b>
    386e: a6 0c        	ldx	$c                      ; 0x200c <__heap_default_limit+0x100c>
    3870: a5 1b        	lda	$1b                     ; 0x201b <next_line+0x6>
    3872: 20 22 6a     	jsr	$6a22 <lcopy>
    3875: a0 21        	ldy	#$21
    3877: b1 02        	lda	($2),y                  ; 0x2002 <__heap_default_limit+0x1002>
    3879: 85 04        	sta	$4                      ; 0x2004 <__heap_default_limit+0x1004>
    387b: c8           	iny
    387c: b1 02        	lda	($2),y                  ; 0x2002 <__heap_default_limit+0x1002>
    387e: 85 05        	sta	$5                      ; 0x2005 <__heap_default_limit+0x1005>
    3880: a0 0c        	ldy	#$c
    3882: b1 02        	lda	($2),y                  ; 0x2002 <__heap_default_limit+0x1002>
    3884: 85 06        	sta	$6                      ; 0x2006 <__heap_default_limit+0x1006>
    3886: a0 10        	ldy	#$10
    3888: b1 02        	lda	($2),y                  ; 0x2002 <__heap_default_limit+0x1002>
    388a: aa           	tax
    388b: a5 1a        	lda	$1a                     ; 0x201a <next_line+0x5>
    388d: 20 24 4d     	jsr	$4d24 <PutOneSector>
    3890: a2 3f        	ldx	#$3f
    3892: 86 04        	stx	$4                      ; 0x2004 <__heap_default_limit+0x1004>
    3894: a2 78        	ldx	#$78
    3896: 86 05        	stx	$5                      ; 0x2005 <__heap_default_limit+0x1005>
    3898: a2 c5        	ldx	#$c5
    389a: 86 06        	stx	$6                      ; 0x2006 <__heap_default_limit+0x1006>
    389c: a2 73        	ldx	#$73
    389e: 86 07        	stx	$7                      ; 0x2007 <__heap_default_limit+0x1007>
    38a0: a9 50        	lda	#$50
    38a2: 20 5c 5a     	jsr	$5a5c <progress>
    38a5: a0 1c        	ldy	#$1c
    38a7: b1 02        	lda	($2),y                  ; 0x2002 <__heap_default_limit+0x1002>
    38a9: 85 06        	sta	$6                      ; 0x2006 <__heap_default_limit+0x1006>
    38ab: c8           	iny
    38ac: b1 02        	lda	($2),y                  ; 0x2002 <__heap_default_limit+0x1002>
    38ae: 85 07        	sta	$7                      ; 0x2007 <__heap_default_limit+0x1007>
    38b0: b2 06        	lda	($6),z                  ; 0x2006 <__heap_default_limit+0x1006>
    38b2: 85 05        	sta	$5                      ; 0x2005 <__heap_default_limit+0x1005>
    38b4: a0 47        	ldy	#$47
    38b6: b1 06        	lda	($6),y                  ; 0x2006 <__heap_default_limit+0x1006>
    38b8: 85 04        	sta	$4                      ; 0x2004 <__heap_default_limit+0x1004>
    38ba: a0 19        	ldy	#$19
    38bc: b1 02        	lda	($2),y                  ; 0x2002 <__heap_default_limit+0x1002>
    38be: aa           	tax
    38bf: a5 05        	lda	$5                      ; 0x2005 <__heap_default_limit+0x1005>
    38c1: 20 ae 4d     	jsr	$4dae <PutBAM>
    38c4: a0 14        	ldy	#$14
    38c6: b1 02        	lda	($2),y                  ; 0x2002 <__heap_default_limit+0x1002>
    38c8: a8           	tay
    38c9: 5a           	phy
    38ca: a0 12        	ldy	#$12
    38cc: b1 02        	lda	($2),y                  ; 0x2002 <__heap_default_limit+0x1002>
    38ce: 85 04        	sta	$4                      ; 0x2004 <__heap_default_limit+0x1004>
    38d0: c8           	iny
    38d1: b1 02        	lda	($2),y                  ; 0x2002 <__heap_default_limit+0x1002>
    38d3: 85 05        	sta	$5                      ; 0x2005 <__heap_default_limit+0x1005>
    38d5: a0 18        	ldy	#$18
    38d7: b1 02        	lda	($2),y                  ; 0x2002 <__heap_default_limit+0x1002>
    38d9: 7a           	ply
    38da: 85 16        	sta	$16                     ; 0x2016 <next_line+0x1>
    38dc: c8           	iny
    38dd: 4c 62 32     	jmp	$3262 <donehypclosefile3+0x66b>
    38e0: 64 16        	stz	$16                     ; 0x2016 <next_line+0x1>
    38e2: 4c fb 35     	jmp	$35fb <donehypclosefile3+0xa04>
    38e5: 8a           	txa
    38e6: 92 18        	sta	($18),z                 ; 0x2018 <next_line+0x3>
    38e8: ad e2 1b     	lda	$1be2                   ; 0x1be2 <__heap_default_limit+0xbe2>
    38eb: 91 18        	sta	($18),y                 ; 0x2018 <next_line+0x3>
    38ed: a6 17        	ldx	$17                     ; 0x2017 <next_line+0x2>
    38ef: 86 06        	stx	$6                      ; 0x2006 <__heap_default_limit+0x1006>
    38f1: a6 1d        	ldx	$1d                     ; 0x201d <next_line+0x8>
    38f3: 86 07        	stx	$7                      ; 0x2007 <__heap_default_limit+0x1007>
    38f5: 64 04        	stz	$4                      ; 0x2004 <__heap_default_limit+0x1004>
    38f7: 64 05        	stz	$5                      ; 0x2005 <__heap_default_limit+0x1005>
    38f9: a6 1e        	ldx	$1e                     ; 0x201e <next_line+0x9>
    38fb: 86 08        	stx	$8                      ; 0x2008 <__heap_default_limit+0x1008>
    38fd: a6 20        	ldx	$20                     ; 0x2020 <next_line+0xb>
    38ff: 86 09        	stx	$9                      ; 0x2009 <__heap_default_limit+0x1009>
    3901: a2 20        	ldx	#$20
    3903: 86 0a        	stx	$a                      ; 0x200a <__heap_default_limit+0x100a>
    3905: 64 0b        	stz	$b                      ; 0x200b <__heap_default_limit+0x100b>
    3907: a6 19        	ldx	$19                     ; 0x2019 <next_line+0x4>
    3909: a5 18        	lda	$18                     ; 0x2018 <next_line+0x3>
    390b: 20 22 6a     	jsr	$6a22 <lcopy>
    390e: a9 00        	lda	#$0
    3910: 18           	clc
    3911: 48           	pha
    3912: a0 15        	ldy	#$15
    3914: b1 02        	lda	($2),y                  ; 0x2002 <__heap_default_limit+0x1002>
    3916: 85 06        	sta	$6                      ; 0x2006 <__heap_default_limit+0x1006>
    3918: 68           	pla
    3919: 65 06        	adc	$6                      ; 0x2006 <__heap_default_limit+0x1006>
    391b: a8           	tay
    391c: 84 13        	sty	$13                     ; 0x2013 <__heap_default_limit+0x1013>
    391e: a0 1b        	ldy	#$1b
    3920: b1 02        	lda	($2),y                  ; 0x2002 <__heap_default_limit+0x1002>
    3922: 85 04        	sta	$4                      ; 0x2004 <__heap_default_limit+0x1004>
    3924: a0 20        	ldy	#$20
    3926: b1 02        	lda	($2),y                  ; 0x2002 <__heap_default_limit+0x1002>
    3928: 65 04        	adc	$4                      ; 0x2004 <__heap_default_limit+0x1004>
    392a: 85 0c        	sta	$c                      ; 0x200c <__heap_default_limit+0x100c>
    392c: a9 00        	lda	#$0
    392e: 65 06        	adc	$6                      ; 0x2006 <__heap_default_limit+0x1006>
    3930: aa           	tax
    3931: a9 00        	lda	#$0
    3933: 48           	pha
    3934: a0 1a        	ldy	#$1a
    3936: b1 02        	lda	($2),y                  ; 0x2002 <__heap_default_limit+0x1002>
    3938: a4 13        	ldy	$13                     ; 0x2013 <__heap_default_limit+0x1013>
    393a: 85 04        	sta	$4                      ; 0x2004 <__heap_default_limit+0x1004>
    393c: 68           	pla
    393d: 65 04        	adc	$4                      ; 0x2004 <__heap_default_limit+0x1004>
    393f: 86 04        	stx	$4                      ; 0x2004 <__heap_default_limit+0x1004>
    3941: 85 05        	sta	$5                      ; 0x2005 <__heap_default_limit+0x1005>
    3943: 64 06        	stz	$6                      ; 0x2006 <__heap_default_limit+0x1006>
    3945: a2 19        	ldx	#$19
    3947: 86 07        	stx	$7                      ; 0x2007 <__heap_default_limit+0x1007>
    3949: 64 08        	stz	$8                      ; 0x2008 <__heap_default_limit+0x1008>
    394b: 64 09        	stz	$9                      ; 0x2009 <__heap_default_limit+0x1009>
    394d: 64 0a        	stz	$a                      ; 0x200a <__heap_default_limit+0x100a>
    394f: a2 01        	ldx	#$1
    3951: 86 0b        	stx	$b                      ; 0x200b <__heap_default_limit+0x100b>
    3953: a6 0c        	ldx	$c                      ; 0x200c <__heap_default_limit+0x100c>
    3955: 98           	tya
    3956: 20 22 6a     	jsr	$6a22 <lcopy>
    3959: a2 00        	ldx	#$0
    395b: 86 04        	stx	$4                      ; 0x2004 <__heap_default_limit+0x1004>
    395d: a2 19        	ldx	#$19
    395f: 86 05        	stx	$5                      ; 0x2005 <__heap_default_limit+0x1005>
    3961: a0 16        	ldy	#$16
    3963: b1 02        	lda	($2),y                  ; 0x2002 <__heap_default_limit+0x1002>
    3965: 85 06        	sta	$6                      ; 0x2006 <__heap_default_limit+0x1006>
    3967: c8           	iny
    3968: b1 02        	lda	($2),y                  ; 0x2002 <__heap_default_limit+0x1002>
    396a: aa           	tax
    396b: a0 11        	ldy	#$11
    396d: b1 02        	lda	($2),y                  ; 0x2002 <__heap_default_limit+0x1002>
    396f: 4c 8d 38     	jmp	$388d <donehypclosefile3+0xc96>
    3972: a9 43        	lda	#$43
    3974: a6 06        	ldx	$6                      ; 0x2006 <__heap_default_limit+0x1006>
    3976: 9d 8a 7b     	sta	$7b8a,x                 ; 0x7b8a <s>
    3979: 3a           	dec
    397a: 99 8a 7b     	sta	$7b8a,y                 ; 0x7b8a <s>
    397d: a9 4d        	lda	#$4d
    397f: 4c 98 26     	jmp	$2698 <main+0x58c>
    3982: a9 55        	lda	#$55
    3984: a6 06        	ldx	$6                      ; 0x2006 <__heap_default_limit+0x1006>
    3986: 9d 8a 7b     	sta	$7b8a,x                 ; 0x7b8a <s>
    3989: a9 53        	lda	#$53
    398b: 99 8a 7b     	sta	$7b8a,y                 ; 0x7b8a <s>
    398e: 3a           	dec
    398f: 4c 98 26     	jmp	$2698 <main+0x58c>
    3992: a9 52        	lda	#$52
    3994: 4c 8c 26     	jmp	$268c <main+0x580>
    3997: a9 53        	lda	#$53
    3999: a6 06        	ldx	$6                      ; 0x2006 <__heap_default_limit+0x1006>
    399b: 9d 8a 7b     	sta	$7b8a,x                 ; 0x7b8a <s>
    399e: a9 45        	lda	#$45
    39a0: 99 8a 7b     	sta	$7b8a,y                 ; 0x7b8a <s>
    39a3: a9 51        	lda	#$51
    39a5: 4c 98 26     	jmp	$2698 <main+0x58c>
    39a8: a9 50        	lda	#$50
    39aa: a6 06        	ldx	$6                      ; 0x2006 <__heap_default_limit+0x1006>
    39ac: 9d 8a 7b     	sta	$7b8a,x                 ; 0x7b8a <s>
    39af: a9 52        	lda	#$52
    39b1: 99 8a 7b     	sta	$7b8a,y                 ; 0x7b8a <s>
    39b4: a9 47        	lda	#$47
    39b6: 4c 98 26     	jmp	$2698 <main+0x58c>
    39b9: a5 18        	lda	$18                     ; 0x2018 <next_line+0x3>
    39bb: 18           	clc
    39bc: 69 05        	adc	#$5
    39be: 85 06        	sta	$6                      ; 0x2006 <__heap_default_limit+0x1006>
    39c0: a5 19        	lda	$19                     ; 0x2019 <next_line+0x4>
    39c2: 69 00        	adc	#$0
    39c4: 85 07        	sta	$7                      ; 0x2007 <__heap_default_limit+0x1007>
    39c6: a2 7e        	ldx	#$7e
    39c8: 86 04        	stx	$4                      ; 0x2004 <__heap_default_limit+0x1004>
    39ca: a2 78        	ldx	#$78
    39cc: 86 05        	stx	$5                      ; 0x2005 <__heap_default_limit+0x1005>
    39ce: a2 5b        	ldx	#$5b
    39d0: 86 08        	stx	$8                      ; 0x2008 <__heap_default_limit+0x1008>
    39d2: a2 74        	ldx	#$74
    39d4: 86 09        	stx	$9                      ; 0x2009 <__heap_default_limit+0x1009>
    39d6: 64 0a        	stz	$a                      ; 0x200a <__heap_default_limit+0x100a>
    39d8: 64 0b        	stz	$b                      ; 0x200b <__heap_default_limit+0x100b>
    39da: 64 0c        	stz	$c                      ; 0x200c <__heap_default_limit+0x100c>
    39dc: a2 00        	ldx	#$0
    39de: 8a           	txa
    39df: 20 05 59     	jsr	$5905 <messagebox>
    39e2: 4c 0b 23     	jmp	$230b <main+0x1ff>
    39e5: a2 7e        	ldx	#$7e
    39e7: 86 04        	stx	$4                      ; 0x2004 <__heap_default_limit+0x1004>
    39e9: a2 71        	ldx	#$71
    39eb: 86 05        	stx	$5                      ; 0x2005 <__heap_default_limit+0x1005>
    39ed: a5 04        	lda	$4                      ; 0x2004 <__heap_default_limit+0x1004>
    39ef: a0 21        	ldy	#$21
    39f1: 91 02        	sta	($2),y                  ; 0x2002 <__heap_default_limit+0x1002>
    39f3: a5 05        	lda	$5                      ; 0x2005 <__heap_default_limit+0x1005>
    39f5: c8           	iny
    39f6: 91 02        	sta	($2),y                  ; 0x2002 <__heap_default_limit+0x1002>
    39f8: 88           	dey
    39f9: b1 02        	lda	($2),y                  ; 0x2002 <__heap_default_limit+0x1002>
    39fb: 85 04        	sta	$4                      ; 0x2004 <__heap_default_limit+0x1004>
    39fd: c8           	iny
    39fe: b1 02        	lda	($2),y                  ; 0x2002 <__heap_default_limit+0x1002>
    3a00: 85 05        	sta	$5                      ; 0x2005 <__heap_default_limit+0x1005>
    3a02: 88           	dey
    3a03: b1 02        	lda	($2),y                  ; 0x2002 <__heap_default_limit+0x1002>
    3a05: 85 06        	sta	$6                      ; 0x2006 <__heap_default_limit+0x1006>
    3a07: c8           	iny
    3a08: b1 02        	lda	($2),y                  ; 0x2002 <__heap_default_limit+0x1002>
    3a0a: 85 07        	sta	$7                      ; 0x2007 <__heap_default_limit+0x1007>
    3a0c: 88           	dey
    3a0d: b1 02        	lda	($2),y                  ; 0x2002 <__heap_default_limit+0x1002>
    3a0f: 85 08        	sta	$8                      ; 0x2008 <__heap_default_limit+0x1008>
    3a11: c8           	iny
    3a12: b1 02        	lda	($2),y                  ; 0x2002 <__heap_default_limit+0x1002>
    3a14: 85 09        	sta	$9                      ; 0x2009 <__heap_default_limit+0x1009>
    3a16: 64 0a        	stz	$a                      ; 0x200a <__heap_default_limit+0x100a>
    3a18: 64 0b        	stz	$b                      ; 0x200b <__heap_default_limit+0x100b>
    3a1a: 64 0c        	stz	$c                      ; 0x200c <__heap_default_limit+0x100c>
    3a1c: a2 00        	ldx	#$0
    3a1e: a9 02        	lda	#$2
    3a20: 20 05 59     	jsr	$5905 <messagebox>
    3a23: a2 f2        	ldx	#$f2
    3a25: 86 04        	stx	$4                      ; 0x2004 <__heap_default_limit+0x1004>
    3a27: a2 79        	ldx	#$79
    3a29: 86 05        	stx	$5                      ; 0x2005 <__heap_default_limit+0x1005>
    3a2b: a2 c5        	ldx	#$c5
    3a2d: 86 06        	stx	$6                      ; 0x2006 <__heap_default_limit+0x1006>
    3a2f: a2 73        	ldx	#$73
    3a31: 86 07        	stx	$7                      ; 0x2007 <__heap_default_limit+0x1007>
    3a33: a9 14        	lda	#$14
    3a35: 20 5c 5a     	jsr	$5a5c <progress>
    3a38: a9 27        	lda	#$27
    3a3a: 18           	clc
    3a3b: 65 1c        	adc	$1c                     ; 0x201c <next_line+0x7>
    3a3d: 85 04        	sta	$4                      ; 0x2004 <__heap_default_limit+0x1004>
    3a3f: a9 00        	lda	#$0
    3a41: 65 17        	adc	$17                     ; 0x2017 <next_line+0x2>
    3a43: 85 05        	sta	$5                      ; 0x2005 <__heap_default_limit+0x1005>
    3a45: b2 04        	lda	($4),z                  ; 0x2004 <__heap_default_limit+0x1004>
    3a47: aa           	tax
    3a48: a0 01        	ldy	#$1
    3a4a: b1 04        	lda	($4),y                  ; 0x2004 <__heap_default_limit+0x1004>
    3a4c: 86 04        	stx	$4                      ; 0x2004 <__heap_default_limit+0x1004>
    3a4e: 85 05        	sta	$5                      ; 0x2005 <__heap_default_limit+0x1005>
    3a50: b2 04        	lda	($4),z                  ; 0x2004 <__heap_default_limit+0x1004>
    3a52: a6 16        	ldx	$16                     ; 0x2016 <next_line+0x1>
    3a54: 20 84 5f     	jsr	$5f84 <UpdateSectors>
    3a57: a5 16        	lda	$16                     ; 0x2016 <next_line+0x1>
    3a59: 20 e8 65     	jsr	$65e8 <Deselect>
    3a5c: a5 16        	lda	$16                     ; 0x2016 <next_line+0x1>
    3a5e: 49 01        	eor	#$1
    3a60: 85 16        	sta	$16                     ; 0x2016 <next_line+0x1>
    3a62: 0a           	asl
    3a63: 85 04        	sta	$4                      ; 0x2004 <__heap_default_limit+0x1004>
    3a65: a9 00        	lda	#$0
    3a67: 2a           	rol
    3a68: 85 05        	sta	$5                      ; 0x2005 <__heap_default_limit+0x1005>
    3a6a: a9 27        	lda	#$27
    3a6c: 18           	clc
    3a6d: 65 04        	adc	$4                      ; 0x2004 <__heap_default_limit+0x1004>
    3a6f: 85 04        	sta	$4                      ; 0x2004 <__heap_default_limit+0x1004>
    3a71: a9 00        	lda	#$0
    3a73: 65 05        	adc	$5                      ; 0x2005 <__heap_default_limit+0x1005>
    3a75: 85 05        	sta	$5                      ; 0x2005 <__heap_default_limit+0x1005>
    3a77: b2 04        	lda	($4),z                  ; 0x2004 <__heap_default_limit+0x1004>
    3a79: 85 06        	sta	$6                      ; 0x2006 <__heap_default_limit+0x1006>
    3a7b: a0 01        	ldy	#$1
    3a7d: b1 04        	lda	($4),y                  ; 0x2004 <__heap_default_limit+0x1004>
    3a7f: 85 07        	sta	$7                      ; 0x2007 <__heap_default_limit+0x1007>
    3a81: b2 06        	lda	($6),z                  ; 0x2006 <__heap_default_limit+0x1006>
    3a83: a6 16        	ldx	$16                     ; 0x2016 <next_line+0x1>
    3a85: 20 84 5f     	jsr	$5f84 <UpdateSectors>
    3a88: a5 16        	lda	$16                     ; 0x2016 <next_line+0x1>
    3a8a: 20 e8 65     	jsr	$65e8 <Deselect>
    3a8d: 4c 0b 23     	jmp	$230b <main+0x1ff>
    3a90: c9 00        	cmp	#$0
    3a92: 8a           	txa
    3a93: 90 03        	bcc	$3a98 <donehypclosefile3+0xea1>
    3a95: 4c eb 2a     	jmp	$2aeb <main+0x9df>
    3a98: 0a           	asl
    3a99: aa           	tax
    3a9a: 7c cc 70     	jmp	($70cc,x)               ; 0x70cc <__zp_data_load_start+0x50b5>
    3a9d: a9 27        	lda	#$27
    3a9f: 18           	clc
    3aa0: 65 1c        	adc	$1c                     ; 0x201c <next_line+0x7>
    3aa2: 85 04        	sta	$4                      ; 0x2004 <__heap_default_limit+0x1004>
    3aa4: a9 00        	lda	#$0
    3aa6: 65 08        	adc	$8                      ; 0x2008 <__heap_default_limit+0x1008>
    3aa8: 85 05        	sta	$5                      ; 0x2005 <__heap_default_limit+0x1005>
    3aaa: b2 04        	lda	($4),z                  ; 0x2004 <__heap_default_limit+0x1004>
    3aac: aa           	tax
    3aad: b1 04        	lda	($4),y                  ; 0x2004 <__heap_default_limit+0x1004>
    3aaf: 86 04        	stx	$4                      ; 0x2004 <__heap_default_limit+0x1004>
    3ab1: 85 05        	sta	$5                      ; 0x2005 <__heap_default_limit+0x1005>
    3ab3: 38           	sec
    3ab4: 5a           	phy
    3ab5: a0 20        	ldy	#$20
    3ab7: b1 02        	lda	($2),y                  ; 0x2002 <__heap_default_limit+0x1002>
    3ab9: e5 1a        	sbc	$1a                     ; 0x201a <next_line+0x5>
    3abb: 85 06        	sta	$6                      ; 0x2006 <__heap_default_limit+0x1006>
    3abd: c8           	iny
    3abe: b1 02        	lda	($2),y                  ; 0x2002 <__heap_default_limit+0x1002>
    3ac0: 7a           	ply
    3ac1: e5 17        	sbc	$17                     ; 0x2017 <next_line+0x2>
    3ac3: 85 07        	sta	$7                      ; 0x2007 <__heap_default_limit+0x1007>
    3ac5: a9 da        	lda	#$da
    3ac7: 18           	clc
    3ac8: 65 06        	adc	$6                      ; 0x2006 <__heap_default_limit+0x1006>
    3aca: 85 06        	sta	$6                      ; 0x2006 <__heap_default_limit+0x1006>
    3acc: a9 7b        	lda	#$7b
    3ace: 65 07        	adc	$7                      ; 0x2007 <__heap_default_limit+0x1007>
    3ad0: 85 07        	sta	$7                      ; 0x2007 <__heap_default_limit+0x1007>
    3ad2: b1 04        	lda	($4),y                  ; 0x2004 <__heap_default_limit+0x1004>
    3ad4: a8           	tay
    3ad5: a9 01        	lda	#$1
    3ad7: 51 06        	eor	($6),y                  ; 0x2006 <__heap_default_limit+0x1006>
    3ad9: 91 06        	sta	($6),y                  ; 0x2006 <__heap_default_limit+0x1006>
    3adb: c8           	iny
    3adc: 98           	tya
    3add: a0 01        	ldy	#$1
    3adf: 4c 77 3b     	jmp	$3b77 <donehypfindfirst4+0x28>
    3ae2: a2 2a        	ldx	#$2a
    3ae4: 86 08        	stx	$8                      ; 0x2008 <__heap_default_limit+0x1008>
    3ae6: a2 72        	ldx	#$72
    3ae8: 86 09        	stx	$9                      ; 0x2009 <__heap_default_limit+0x1009>
    3aea: a5 18        	lda	$18                     ; 0x2018 <next_line+0x3>
    3aec: 18           	clc
    3aed: 69 05        	adc	#$5
    3aef: 85 18        	sta	$18                     ; 0x2018 <next_line+0x3>
    3af1: a5 19        	lda	$19                     ; 0x2019 <next_line+0x4>
    3af3: 69 00        	adc	#$0
    3af5: 85 19        	sta	$19                     ; 0x2019 <next_line+0x4>
    3af7: a2 f4        	ldx	#$f4
    3af9: 86 04        	stx	$4                      ; 0x2004 <__heap_default_limit+0x1004>
    3afb: a2 7a        	ldx	#$7a
    3afd: 86 05        	stx	$5                      ; 0x2005 <__heap_default_limit+0x1005>
    3aff: a6 18        	ldx	$18                     ; 0x2018 <next_line+0x3>
    3b01: 86 06        	stx	$6                      ; 0x2006 <__heap_default_limit+0x1006>
    3b03: 85 07        	sta	$7                      ; 0x2007 <__heap_default_limit+0x1007>
    3b05: 64 0a        	stz	$a                      ; 0x200a <__heap_default_limit+0x100a>
    3b07: 64 0b        	stz	$b                      ; 0x200b <__heap_default_limit+0x100b>
    3b09: 64 0c        	stz	$c                      ; 0x200c <__heap_default_limit+0x100c>
    3b0b: a2 00        	ldx	#$0
    3b0d: 8a           	txa
    3b0e: 20 05 59     	jsr	$5905 <messagebox>
    3b11: aa           	tax
    3b12: d0 03        	bne	$3b17 <donehypclosefile3+0xf20>
    3b14: 4c 0b 23     	jmp	$230b <main+0x1ff>
    3b17: a9 01        	lda	#$1
    3b19: a0 46        	ldy	#$46
    3b1b: 48           	pha
    3b1c: 5a           	phy
    3b1d: a0 1e        	ldy	#$1e
    3b1f: b1 02        	lda	($2),y                  ; 0x2002 <__heap_default_limit+0x1002>
    3b21: 85 04        	sta	$4                      ; 0x2004 <__heap_default_limit+0x1004>
    3b23: c8           	iny
    3b24: b1 02        	lda	($2),y                  ; 0x2002 <__heap_default_limit+0x1002>
    3b26: 7a           	ply
    3b27: 85 05        	sta	$5                      ; 0x2005 <__heap_default_limit+0x1005>
    3b29: 68           	pla
    3b2a: 31 04        	and	($4),y                  ; 0x2004 <__heap_default_limit+0x1004>
    3b2c: 29 01        	and	#$1
    3b2e: f0 03        	beq	$3b33 <donehypclosefile3+0xf3c>
    3b30: 4c 9c 3b     	jmp	$3b9c <donehypfindfirst4+0x4d>
    3b33: a6 18        	ldx	$18                     ; 0x2018 <next_line+0x3>
    3b35: 86 04        	stx	$4                      ; 0x2004 <__heap_default_limit+0x1004>
    3b37: a6 19        	ldx	$19                     ; 0x2019 <next_line+0x4>
    3b39: 86 05        	stx	$5                      ; 0x2005 <__heap_default_limit+0x1005>
    3b3b: 20 f3 48     	jsr	$48f3 <hyppo_setname>
    3b3e: a2 00        	ldx	#$0
    3b40: a9 30        	lda	#$30
    3b42: 8d 40 d6     	sta	$d640                   ; 0xd640 <__heap_start+0x5626>
    3b45: b8           	clv
    3b46: 90 05        	bcc	$3b4d <errhypfindfirst4>
    3b48: 85 04        	sta	$4                      ; 0x2004 <__heap_default_limit+0x1004>
    3b4a: 4c 4f 3b     	jmp	$3b4f <donehypfindfirst4>

00003b4d <errhypfindfirst4>:
    3b4d: 85 04        	sta	$4                      ; 0x2004 <__heap_default_limit+0x1004>

00003b4f <donehypfindfirst4>:
    3b4f: ea           	nop
    3b50: a6 04        	ldx	$4                      ; 0x2004 <__heap_default_limit+0x1004>
    3b52: e0 84        	cpx	#$84
    3b54: b0 03        	bcs	$3b59 <donehypfindfirst4+0xa>
    3b56: 4c a0 43     	jmp	$43a0 <donehypfindfirst4+0x851>
    3b59: 4c 79 43     	jmp	$4379 <donehypfindfirst4+0x82a>
    3b5c: a9 27        	lda	#$27
    3b5e: 18           	clc
    3b5f: 65 1c        	adc	$1c                     ; 0x201c <next_line+0x7>
    3b61: 85 04        	sta	$4                      ; 0x2004 <__heap_default_limit+0x1004>
    3b63: a9 00        	lda	#$0
    3b65: 65 08        	adc	$8                      ; 0x2008 <__heap_default_limit+0x1008>
    3b67: 85 05        	sta	$5                      ; 0x2005 <__heap_default_limit+0x1005>
    3b69: b2 04        	lda	($4),z                  ; 0x2004 <__heap_default_limit+0x1004>
    3b6b: aa           	tax
    3b6c: b1 04        	lda	($4),y                  ; 0x2004 <__heap_default_limit+0x1004>
    3b6e: 86 04        	stx	$4                      ; 0x2004 <__heap_default_limit+0x1004>
    3b70: 85 05        	sta	$5                      ; 0x2005 <__heap_default_limit+0x1005>
    3b72: a9 0a        	lda	#$a
    3b74: 18           	clc
    3b75: 71 04        	adc	($4),y                  ; 0x2004 <__heap_default_limit+0x1004>
    3b77: 91 04        	sta	($4),y                  ; 0x2004 <__heap_default_limit+0x1004>
    3b79: 4c 0b 23     	jmp	$230b <main+0x1ff>
    3b7c: a0 18        	ldy	#$18
    3b7e: b1 02        	lda	($2),y                  ; 0x2002 <__heap_default_limit+0x1002>
    3b80: 85 18        	sta	$18                     ; 0x2018 <next_line+0x3>
    3b82: a0 1e        	ldy	#$1e
    3b84: b1 02        	lda	($2),y                  ; 0x2002 <__heap_default_limit+0x1002>
    3b86: 85 04        	sta	$4                      ; 0x2004 <__heap_default_limit+0x1004>
    3b88: c8           	iny
    3b89: b1 02        	lda	($2),y                  ; 0x2002 <__heap_default_limit+0x1002>
    3b8b: 85 05        	sta	$5                      ; 0x2005 <__heap_default_limit+0x1005>
    3b8d: b2 04        	lda	($4),z                  ; 0x2004 <__heap_default_limit+0x1004>
    3b8f: a6 18        	ldx	$18                     ; 0x2018 <next_line+0x3>
    3b91: 20 84 5f     	jsr	$5f84 <UpdateSectors>
    3b94: a5 18        	lda	$18                     ; 0x2018 <next_line+0x3>
    3b96: 20 e8 65     	jsr	$65e8 <Deselect>
    3b99: 4c 0b 23     	jmp	$230b <main+0x1ff>
    3b9c: a0 18        	ldy	#$18
    3b9e: b1 02        	lda	($2),y                  ; 0x2002 <__heap_default_limit+0x1002>
    3ba0: 85 18        	sta	$18                     ; 0x2018 <next_line+0x3>
    3ba2: 20 2e 66     	jsr	$662e <sizeselectcurrentifnone>
    3ba5: e0 ff        	cpx	#$ff
    3ba7: f0 03        	beq	$3bac <donehypfindfirst4+0x5d>
    3ba9: 4c c7 43     	jmp	$43c7 <donehyprmfile5+0x16>
    3bac: 4c b5 43     	jmp	$43b5 <donehyprmfile5+0x4>
    3baf: a9 28        	lda	#$28
    3bb1: a0 47        	ldy	#$47
    3bb3: 91 1a        	sta	($1a),y                 ; 0x201a <next_line+0x5>
    3bb5: b2 1a        	lda	($1a),z                 ; 0x201a <next_line+0x5>
    3bb7: 4c e7 2d     	jmp	$2de7 <donehypclosefile3+0x1f0>
    3bba: a9 00        	lda	#$0
    3bbc: a6 1f        	ldx	$1f                     ; 0x201f <next_line+0xa>
    3bbe: e0 01        	cpx	#$1
    3bc0: 2a           	rol
    3bc1: 85 04        	sta	$4                      ; 0x2004 <__heap_default_limit+0x1004>
    3bc3: 85 08        	sta	$8                      ; 0x2008 <__heap_default_limit+0x1008>
    3bc5: a6 21        	ldx	$21                     ; 0x2021 <_start>
    3bc7: e0 01        	cpx	#$1
    3bc9: 26 08        	rol	$8                      ; 0x2008 <__heap_default_limit+0x1008>
    3bcb: a6 16        	ldx	$16                     ; 0x2016 <next_line+0x1>
    3bcd: e0 01        	cpx	#$1
    3bcf: 26 08        	rol	$8                      ; 0x2008 <__heap_default_limit+0x1008>
    3bd1: a5 1e        	lda	$1e                     ; 0x201e <next_line+0x9>
    3bd3: 0a           	asl
    3bd4: 26 1b        	rol	$1b                     ; 0x201b <next_line+0x6>
    3bd6: 26 08        	rol	$8                      ; 0x2008 <__heap_default_limit+0x1008>
    3bd8: 38           	sec
    3bd9: e5 1c        	sbc	$1c                     ; 0x201c <next_line+0x7>
    3bdb: a0 17        	ldy	#$17
    3bdd: 91 02        	sta	($2),y                  ; 0x2002 <__heap_default_limit+0x1002>
    3bdf: a0 10        	ldy	#$10
    3be1: 91 02        	sta	($2),y                  ; 0x2002 <__heap_default_limit+0x1002>
    3be3: a5 1b        	lda	$1b                     ; 0x201b <next_line+0x6>
    3be5: e5 05        	sbc	$5                      ; 0x2005 <__heap_default_limit+0x1005>
    3be7: a0 16        	ldy	#$16
    3be9: 91 02        	sta	($2),y                  ; 0x2002 <__heap_default_limit+0x1002>
    3beb: a0 0f        	ldy	#$f
    3bed: 91 02        	sta	($2),y                  ; 0x2002 <__heap_default_limit+0x1002>
    3bef: a5 08        	lda	$8                      ; 0x2008 <__heap_default_limit+0x1008>
    3bf1: e5 04        	sbc	$4                      ; 0x2004 <__heap_default_limit+0x1004>
    3bf3: 09 08        	ora	#$8
    3bf5: a0 15        	ldy	#$15
    3bf7: 91 02        	sta	($2),y                  ; 0x2002 <__heap_default_limit+0x1002>
    3bf9: a0 0e        	ldy	#$e
    3bfb: 91 02        	sta	($2),y                  ; 0x2002 <__heap_default_limit+0x1002>
    3bfd: a2 70        	ldx	#$70
    3bff: 64 04        	stz	$4                      ; 0x2004 <__heap_default_limit+0x1004>
    3c01: 86 1e        	stx	$1e                     ; 0x201e <next_line+0x9>
    3c03: a6 1e        	ldx	$1e                     ; 0x201e <next_line+0x9>
    3c05: 86 05        	stx	$5                      ; 0x2005 <__heap_default_limit+0x1005>
    3c07: a5 04        	lda	$4                      ; 0x2004 <__heap_default_limit+0x1004>
    3c09: d0 03        	bne	$3c0e <donehypfindfirst4+0xbf>
    3c0b: 4c 02 3e     	jmp	$3e02 <donehypfindfirst4+0x2b3>
    3c0e: a6 04        	ldx	$4                      ; 0x2004 <__heap_default_limit+0x1004>
    3c10: 86 1f        	stx	$1f                     ; 0x201f <next_line+0xa>
    3c12: a2 ff        	ldx	#$ff
    3c14: c6 1e        	dec	$1e                     ; 0x201e <next_line+0x9>
    3c16: e4 1e        	cpx	$1e                     ; 0x201e <next_line+0x9>
    3c18: d0 02        	bne	$3c1c <donehypfindfirst4+0xcd>
    3c1a: c6 1f        	dec	$1f                     ; 0x201f <next_line+0xa>
    3c1c: 38           	sec
    3c1d: a0 20        	ldy	#$20
    3c1f: b1 02        	lda	($2),y                  ; 0x2002 <__heap_default_limit+0x1002>
    3c21: e5 1a        	sbc	$1a                     ; 0x201a <next_line+0x5>
    3c23: 85 06        	sta	$6                      ; 0x2006 <__heap_default_limit+0x1006>
    3c25: c8           	iny
    3c26: b1 02        	lda	($2),y                  ; 0x2002 <__heap_default_limit+0x1002>
    3c28: e5 17        	sbc	$17                     ; 0x2017 <next_line+0x2>
    3c2a: 85 07        	sta	$7                      ; 0x2007 <__heap_default_limit+0x1007>
    3c2c: a9 da        	lda	#$da
    3c2e: 18           	clc
    3c2f: 65 06        	adc	$6                      ; 0x2006 <__heap_default_limit+0x1006>
    3c31: aa           	tax
    3c32: a9 7b        	lda	#$7b
    3c34: 65 07        	adc	$7                      ; 0x2007 <__heap_default_limit+0x1007>
    3c36: a8           	tay
    3c37: 8a           	txa
    3c38: 18           	clc
    3c39: 65 05        	adc	$5                      ; 0x2005 <__heap_default_limit+0x1005>
    3c3b: aa           	tax
    3c3c: 98           	tya
    3c3d: 65 04        	adc	$4                      ; 0x2004 <__heap_default_limit+0x1004>
    3c3f: 86 04        	stx	$4                      ; 0x2004 <__heap_default_limit+0x1004>
    3c41: 85 05        	sta	$5                      ; 0x2005 <__heap_default_limit+0x1005>
    3c43: a2 ff        	ldx	#$ff
    3c45: c6 04        	dec	$4                      ; 0x2004 <__heap_default_limit+0x1004>
    3c47: e4 04        	cpx	$4                      ; 0x2004 <__heap_default_limit+0x1004>
    3c49: d0 02        	bne	$3c4d <donehypfindfirst4+0xfe>
    3c4b: c6 05        	dec	$5                      ; 0x2005 <__heap_default_limit+0x1005>
    3c4d: a9 01        	lda	#$1
    3c4f: 32 04        	and	($4),z                  ; 0x2004 <__heap_default_limit+0x1004>
    3c51: a6 1f        	ldx	$1f                     ; 0x201f <next_line+0xa>
    3c53: 86 04        	stx	$4                      ; 0x2004 <__heap_default_limit+0x1004>
    3c55: aa           	tax
    3c56: d0 03        	bne	$3c5b <donehypfindfirst4+0x10c>
    3c58: 4c 03 3c     	jmp	$3c03 <donehypfindfirst4+0xb4>
    3c5b: a6 1e        	ldx	$1e                     ; 0x201e <next_line+0x9>
    3c5d: a5 18        	lda	$18                     ; 0x2018 <next_line+0x3>
    3c5f: 20 eb 54     	jsr	$54eb <getdirententry>
    3c62: a6 18        	ldx	$18                     ; 0x2018 <next_line+0x3>
    3c64: 86 16        	stx	$16                     ; 0x2016 <next_line+0x1>
    3c66: a6 04        	ldx	$4                      ; 0x2004 <__heap_default_limit+0x1004>
    3c68: 86 18        	stx	$18                     ; 0x2018 <next_line+0x3>
    3c6a: a6 05        	ldx	$5                      ; 0x2005 <__heap_default_limit+0x1005>
    3c6c: 86 19        	stx	$19                     ; 0x2019 <next_line+0x4>
    3c6e: a2 f2        	ldx	#$f2
    3c70: 86 04        	stx	$4                      ; 0x2004 <__heap_default_limit+0x1004>
    3c72: a2 79        	ldx	#$79
    3c74: 86 05        	stx	$5                      ; 0x2005 <__heap_default_limit+0x1005>
    3c76: a2 c5        	ldx	#$c5
    3c78: 86 06        	stx	$6                      ; 0x2006 <__heap_default_limit+0x1006>
    3c7a: a2 73        	ldx	#$73
    3c7c: 86 07        	stx	$7                      ; 0x2007 <__heap_default_limit+0x1007>
    3c7e: a9 14        	lda	#$14
    3c80: 20 5c 5a     	jsr	$5a5c <progress>
    3c83: a9 00        	lda	#$0
    3c85: a0 02        	ldy	#$2
    3c87: 64 21        	stz	$21                     ; 0x2021 <_start>
    3c89: 91 18        	sta	($18),y                 ; 0x2018 <next_line+0x3>
    3c8b: a5 16        	lda	$16                     ; 0x2016 <next_line+0x1>
    3c8d: 20 75 4d     	jsr	$4d75 <GetBAM>
    3c90: a2 3f        	ldx	#$3f
    3c92: 86 04        	stx	$4                      ; 0x2004 <__heap_default_limit+0x1004>
    3c94: a2 78        	ldx	#$78
    3c96: 86 05        	stx	$5                      ; 0x2005 <__heap_default_limit+0x1005>
    3c98: a2 a2        	ldx	#$a2
    3c9a: 86 06        	stx	$6                      ; 0x2006 <__heap_default_limit+0x1006>
    3c9c: a2 76        	ldx	#$76
    3c9e: 86 07        	stx	$7                      ; 0x2007 <__heap_default_limit+0x1007>
    3ca0: a9 28        	lda	#$28
    3ca2: 20 5c 5a     	jsr	$5a5c <progress>
    3ca5: a0 1e        	ldy	#$1e
    3ca7: b1 02        	lda	($2),y                  ; 0x2002 <__heap_default_limit+0x1002>
    3ca9: 85 06        	sta	$6                      ; 0x2006 <__heap_default_limit+0x1006>
    3cab: c8           	iny
    3cac: b1 02        	lda	($2),y                  ; 0x2002 <__heap_default_limit+0x1002>
    3cae: 85 07        	sta	$7                      ; 0x2007 <__heap_default_limit+0x1007>
    3cb0: b2 06        	lda	($6),z                  ; 0x2006 <__heap_default_limit+0x1006>
    3cb2: 85 08        	sta	$8                      ; 0x2008 <__heap_default_limit+0x1008>
    3cb4: a0 47        	ldy	#$47
    3cb6: b1 06        	lda	($6),y                  ; 0x2006 <__heap_default_limit+0x1006>
    3cb8: a2 03        	ldx	#$3
    3cba: 48           	pha
    3cbb: 8a           	txa
    3cbc: a0 1a        	ldy	#$1a
    3cbe: 91 02        	sta	($2),y                  ; 0x2002 <__heap_default_limit+0x1002>
    3cc0: a2 08        	ldx	#$8
    3cc2: 8a           	txa
    3cc3: a0 1c        	ldy	#$1c
    3cc5: 91 02        	sta	($2),y                  ; 0x2002 <__heap_default_limit+0x1002>
    3cc7: 68           	pla
    3cc8: a0 00        	ldy	#$0
    3cca: 5a           	phy
    3ccb: a0 14        	ldy	#$14
    3ccd: 91 02        	sta	($2),y                  ; 0x2002 <__heap_default_limit+0x1002>
    3ccf: a0 19        	ldy	#$19
    3cd1: 91 02        	sta	($2),y                  ; 0x2002 <__heap_default_limit+0x1002>
    3cd3: 7a           	ply
    3cd4: 64 1c        	stz	$1c                     ; 0x201c <next_line+0x7>
    3cd6: 64 19        	stz	$19                     ; 0x2019 <next_line+0x4>
    3cd8: 64 1d        	stz	$1d                     ; 0x201d <next_line+0x8>
    3cda: a2 00        	ldx	#$0
    3cdc: 4c af 3d     	jmp	$3daf <donehypfindfirst4+0x260>
    3cdf: e4 1c        	cpx	$1c                     ; 0x201c <next_line+0x7>
    3ce1: 90 03        	bcc	$3ce6 <donehypfindfirst4+0x197>
    3ce3: 4c c5 3d     	jmp	$3dc5 <donehypfindfirst4+0x276>
    3ce6: a5 08        	lda	$8                      ; 0x2008 <__heap_default_limit+0x1008>
    3ce8: 5a           	phy
    3ce9: a0 1b        	ldy	#$1b
    3ceb: 91 02        	sta	($2),y                  ; 0x2002 <__heap_default_limit+0x1002>
    3ced: 7a           	ply
    3cee: 84 04        	sty	$4                      ; 0x2004 <__heap_default_limit+0x1004>
    3cf0: 46 04        	lsr	$4                      ; 0x2004 <__heap_default_limit+0x1004>
    3cf2: a9 00        	lda	#$0
    3cf4: 6a           	ror
    3cf5: 46 04        	lsr	$4                      ; 0x2004 <__heap_default_limit+0x1004>
    3cf7: 6a           	ror
    3cf8: 84 13        	sty	$13                     ; 0x2013 <__heap_default_limit+0x1013>
    3cfa: 48           	pha
    3cfb: a5 04        	lda	$4                      ; 0x2004 <__heap_default_limit+0x1004>
    3cfd: a0 12        	ldy	#$12
    3cff: 91 02        	sta	($2),y                  ; 0x2002 <__heap_default_limit+0x1002>
    3d01: 68           	pla
    3d02: 46 04        	lsr	$4                      ; 0x2004 <__heap_default_limit+0x1004>
    3d04: a6 04        	ldx	$4                      ; 0x2004 <__heap_default_limit+0x1004>
    3d06: 86 05        	stx	$5                      ; 0x2005 <__heap_default_limit+0x1005>
    3d08: 6a           	ror
    3d09: 85 04        	sta	$4                      ; 0x2004 <__heap_default_limit+0x1004>
    3d0b: a9 00        	lda	#$0
    3d0d: 18           	clc
    3d0e: 65 04        	adc	$4                      ; 0x2004 <__heap_default_limit+0x1004>
    3d10: 85 0d        	sta	$d                      ; 0x200d <__heap_default_limit+0x100d>
    3d12: a0 17        	ldy	#$17
    3d14: b1 02        	lda	($2),y                  ; 0x2002 <__heap_default_limit+0x1002>
    3d16: 85 04        	sta	$4                      ; 0x2004 <__heap_default_limit+0x1004>
    3d18: a5 05        	lda	$5                      ; 0x2005 <__heap_default_limit+0x1005>
    3d1a: 65 04        	adc	$4                      ; 0x2004 <__heap_default_limit+0x1004>
    3d1c: 85 0c        	sta	$c                      ; 0x200c <__heap_default_limit+0x100c>
    3d1e: 88           	dey
    3d1f: b1 02        	lda	($2),y                  ; 0x2002 <__heap_default_limit+0x1002>
    3d21: 69 00        	adc	#$0
    3d23: aa           	tax
    3d24: 88           	dey
    3d25: b1 02        	lda	($2),y                  ; 0x2002 <__heap_default_limit+0x1002>
    3d27: 69 00        	adc	#$0
    3d29: 48           	pha
    3d2a: 8a           	txa
    3d2b: a0 11        	ldy	#$11
    3d2d: 91 02        	sta	($2),y                  ; 0x2002 <__heap_default_limit+0x1002>
    3d2f: a4 13        	ldy	$13                     ; 0x2013 <__heap_default_limit+0x1013>
    3d31: 68           	pla
    3d32: 86 04        	stx	$4                      ; 0x2004 <__heap_default_limit+0x1004>
    3d34: 85 18        	sta	$18                     ; 0x2018 <next_line+0x3>
    3d36: 85 05        	sta	$5                      ; 0x2005 <__heap_default_limit+0x1005>
    3d38: a2 c0        	ldx	#$c0
    3d3a: 86 06        	stx	$6                      ; 0x2006 <__heap_default_limit+0x1006>
    3d3c: a2 1b        	ldx	#$1b
    3d3e: 86 07        	stx	$7                      ; 0x2007 <__heap_default_limit+0x1007>
    3d40: 64 08        	stz	$8                      ; 0x2008 <__heap_default_limit+0x1008>
    3d42: 64 09        	stz	$9                      ; 0x2009 <__heap_default_limit+0x1009>
    3d44: a2 20        	ldx	#$20
    3d46: 86 0a        	stx	$a                      ; 0x200a <__heap_default_limit+0x100a>
    3d48: 64 0b        	stz	$b                      ; 0x200b <__heap_default_limit+0x100b>
    3d4a: a6 0c        	ldx	$c                      ; 0x200c <__heap_default_limit+0x100c>
    3d4c: 86 1b        	stx	$1b                     ; 0x201b <next_line+0x6>
    3d4e: a5 0d        	lda	$d                      ; 0x200d <__heap_default_limit+0x100d>
    3d50: 85 20        	sta	$20                     ; 0x2020 <next_line+0xb>
    3d52: 84 16        	sty	$16                     ; 0x2016 <next_line+0x1>
    3d54: 20 22 6a     	jsr	$6a22 <lcopy>
    3d57: a4 16        	ldy	$16                     ; 0x2016 <next_line+0x1>
    3d59: f0 13        	beq	$3d6e <donehypfindfirst4+0x21f>
    3d5b: 98           	tya
    3d5c: 29 07        	and	#$7
    3d5e: d0 0e        	bne	$3d6e <donehypfindfirst4+0x21f>
    3d60: 5a           	phy
    3d61: a5 19        	lda	$19                     ; 0x2019 <next_line+0x4>
    3d63: a0 19        	ldy	#$19
    3d65: 91 02        	sta	($2),y                  ; 0x2002 <__heap_default_limit+0x1002>
    3d67: a6 1d        	ldx	$1d                     ; 0x201d <next_line+0x8>
    3d69: 8a           	txa
    3d6a: c8           	iny
    3d6b: 91 02        	sta	($2),y                  ; 0x2002 <__heap_default_limit+0x1002>
    3d6d: 7a           	ply
    3d6e: ae c0 1b     	ldx	$1bc0                   ; 0x1bc0 <__heap_default_limit+0xbc0>
    3d71: f0 18        	beq	$3d8b <donehypfindfirst4+0x23c>
    3d73: 18           	clc
    3d74: 5a           	phy
    3d75: a0 1c        	ldy	#$1c
    3d77: b1 02        	lda	($2),y                  ; 0x2002 <__heap_default_limit+0x1002>
    3d79: 69 08        	adc	#$8
    3d7b: 91 02        	sta	($2),y                  ; 0x2002 <__heap_default_limit+0x1002>
    3d7d: 7a           	ply
    3d7e: a5 1c        	lda	$1c                     ; 0x201c <next_line+0x7>
    3d80: 69 00        	adc	#$0
    3d82: 85 1c        	sta	$1c                     ; 0x201c <next_line+0x7>
    3d84: ad c1 1b     	lda	$1bc1                   ; 0x1bc1 <__heap_default_limit+0xbc1>
    3d87: 85 1d        	sta	$1d                     ; 0x201d <next_line+0x8>
    3d89: 86 19        	stx	$19                     ; 0x2019 <next_line+0x4>
    3d8b: ae c2 1b     	ldx	$1bc2                   ; 0x1bc2 <__heap_default_limit+0xbc2>
    3d8e: 86 16        	stx	$16                     ; 0x2016 <next_line+0x1>
    3d90: d0 06        	bne	$3d98 <donehypfindfirst4+0x249>
    3d92: a9 01        	lda	#$1
    3d94: 25 30        	and	$30                     ; 0x2030 <__do_init_stack+0x1>
    3d96: f0 0c        	beq	$3da4 <donehypfindfirst4+0x255>
    3d98: a6 21        	ldx	$21                     ; 0x2021 <_start>
    3d9a: e4 1e        	cpx	$1e                     ; 0x201e <next_line+0x9>
    3d9c: d0 03        	bne	$3da1 <donehypfindfirst4+0x252>
    3d9e: 4c 0c 3e     	jmp	$3e0c <donehypfindfirst4+0x2bd>
    3da1: e8           	inx
    3da2: 86 21        	stx	$21                     ; 0x2021 <_start>
    3da4: a2 00        	ldx	#$0
    3da6: c8           	iny
    3da7: 5a           	phy
    3da8: a0 1b        	ldy	#$1b
    3daa: b1 02        	lda	($2),y                  ; 0x2002 <__heap_default_limit+0x1002>
    3dac: 7a           	ply
    3dad: 85 08        	sta	$8                      ; 0x2008 <__heap_default_limit+0x1008>
    3daf: e4 1c        	cpx	$1c                     ; 0x201c <next_line+0x7>
    3db1: f0 03        	beq	$3db6 <donehypfindfirst4+0x267>
    3db3: 4c df 3c     	jmp	$3cdf <donehypfindfirst4+0x190>
    3db6: 5a           	phy
    3db7: a0 1c        	ldy	#$1c
    3db9: b1 02        	lda	($2),y                  ; 0x2002 <__heap_default_limit+0x1002>
    3dbb: 7a           	ply
    3dbc: 85 04        	sta	$4                      ; 0x2004 <__heap_default_limit+0x1004>
    3dbe: c4 04        	cpy	$4                      ; 0x2004 <__heap_default_limit+0x1004>
    3dc0: b0 03        	bcs	$3dc5 <donehypfindfirst4+0x276>
    3dc2: 4c e6 3c     	jmp	$3ce6 <donehypfindfirst4+0x197>
    3dc5: a2 3f        	ldx	#$3f
    3dc7: 86 04        	stx	$4                      ; 0x2004 <__heap_default_limit+0x1004>
    3dc9: a2 78        	ldx	#$78
    3dcb: 86 05        	stx	$5                      ; 0x2005 <__heap_default_limit+0x1005>
    3dcd: a2 39        	ldx	#$39
    3dcf: 86 06        	stx	$6                      ; 0x2006 <__heap_default_limit+0x1006>
    3dd1: a2 72        	ldx	#$72
    3dd3: 86 07        	stx	$7                      ; 0x2007 <__heap_default_limit+0x1007>
    3dd5: a9 50        	lda	#$50
    3dd7: 20 5c 5a     	jsr	$5a5c <progress>
    3dda: a0 1e        	ldy	#$1e
    3ddc: b1 02        	lda	($2),y                  ; 0x2002 <__heap_default_limit+0x1002>
    3dde: 85 06        	sta	$6                      ; 0x2006 <__heap_default_limit+0x1006>
    3de0: c8           	iny
    3de1: b1 02        	lda	($2),y                  ; 0x2002 <__heap_default_limit+0x1002>
    3de3: 85 07        	sta	$7                      ; 0x2007 <__heap_default_limit+0x1007>
    3de5: b2 06        	lda	($6),z                  ; 0x2006 <__heap_default_limit+0x1006>
    3de7: 85 05        	sta	$5                      ; 0x2005 <__heap_default_limit+0x1005>
    3de9: a0 47        	ldy	#$47
    3deb: b1 06        	lda	($6),y                  ; 0x2006 <__heap_default_limit+0x1006>
    3ded: 85 04        	sta	$4                      ; 0x2004 <__heap_default_limit+0x1004>
    3def: a0 18        	ldy	#$18
    3df1: b1 02        	lda	($2),y                  ; 0x2002 <__heap_default_limit+0x1002>
    3df3: 85 18        	sta	$18                     ; 0x2018 <next_line+0x3>
    3df5: aa           	tax
    3df6: a5 05        	lda	$5                      ; 0x2005 <__heap_default_limit+0x1005>
    3df8: 20 ae 4d     	jsr	$4dae <PutBAM>
    3dfb: a6 1f        	ldx	$1f                     ; 0x201f <next_line+0xa>
    3dfd: 86 04        	stx	$4                      ; 0x2004 <__heap_default_limit+0x1004>
    3dff: 4c 03 3c     	jmp	$3c03 <donehypfindfirst4+0xb4>
    3e02: a5 05        	lda	$5                      ; 0x2005 <__heap_default_limit+0x1005>
    3e04: f0 03        	beq	$3e09 <donehypfindfirst4+0x2ba>
    3e06: 4c 0e 3c     	jmp	$3c0e <donehypfindfirst4+0xbf>
    3e09: 4c 82 3b     	jmp	$3b82 <donehypfindfirst4+0x33>
    3e0c: 9c c2 1b     	stz	$1bc2                   ; 0x1bc2 <__heap_default_limit+0xbc2>
    3e0f: a6 20        	ldx	$20                     ; 0x2020 <next_line+0xb>
    3e11: 86 06        	stx	$6                      ; 0x2006 <__heap_default_limit+0x1006>
    3e13: a6 1b        	ldx	$1b                     ; 0x201b <next_line+0x6>
    3e15: 86 07        	stx	$7                      ; 0x2007 <__heap_default_limit+0x1007>
    3e17: 64 04        	stz	$4                      ; 0x2004 <__heap_default_limit+0x1004>
    3e19: 64 05        	stz	$5                      ; 0x2005 <__heap_default_limit+0x1005>
    3e1b: a0 11        	ldy	#$11
    3e1d: b1 02        	lda	($2),y                  ; 0x2002 <__heap_default_limit+0x1002>
    3e1f: 85 08        	sta	$8                      ; 0x2008 <__heap_default_limit+0x1008>
    3e21: a6 18        	ldx	$18                     ; 0x2018 <next_line+0x3>
    3e23: 86 09        	stx	$9                      ; 0x2009 <__heap_default_limit+0x1009>
    3e25: a2 20        	ldx	#$20
    3e27: 86 0a        	stx	$a                      ; 0x200a <__heap_default_limit+0x100a>
    3e29: 64 0b        	stz	$b                      ; 0x200b <__heap_default_limit+0x100b>
    3e2b: a2 1b        	ldx	#$1b
    3e2d: a9 c0        	lda	#$c0
    3e2f: 20 22 6a     	jsr	$6a22 <lcopy>
    3e32: a0 12        	ldy	#$12
    3e34: b1 02        	lda	($2),y                  ; 0x2002 <__heap_default_limit+0x1002>
    3e36: 4a           	lsr
    3e37: 18           	clc
    3e38: 48           	pha
    3e39: a0 10        	ldy	#$10
    3e3b: b1 02        	lda	($2),y                  ; 0x2002 <__heap_default_limit+0x1002>
    3e3d: 85 04        	sta	$4                      ; 0x2004 <__heap_default_limit+0x1004>
    3e3f: 68           	pla
    3e40: 65 04        	adc	$4                      ; 0x2004 <__heap_default_limit+0x1004>
    3e42: 85 0c        	sta	$c                      ; 0x200c <__heap_default_limit+0x100c>
    3e44: 88           	dey
    3e45: b1 02        	lda	($2),y                  ; 0x2002 <__heap_default_limit+0x1002>
    3e47: 85 04        	sta	$4                      ; 0x2004 <__heap_default_limit+0x1004>
    3e49: a9 00        	lda	#$0
    3e4b: 65 04        	adc	$4                      ; 0x2004 <__heap_default_limit+0x1004>
    3e4d: aa           	tax
    3e4e: a9 00        	lda	#$0
    3e50: 48           	pha
    3e51: 88           	dey
    3e52: b1 02        	lda	($2),y                  ; 0x2002 <__heap_default_limit+0x1002>
    3e54: 85 04        	sta	$4                      ; 0x2004 <__heap_default_limit+0x1004>
    3e56: 68           	pla
    3e57: 65 04        	adc	$4                      ; 0x2004 <__heap_default_limit+0x1004>
    3e59: 86 04        	stx	$4                      ; 0x2004 <__heap_default_limit+0x1004>
    3e5b: 85 05        	sta	$5                      ; 0x2005 <__heap_default_limit+0x1005>
    3e5d: 64 06        	stz	$6                      ; 0x2006 <__heap_default_limit+0x1006>
    3e5f: a2 19        	ldx	#$19
    3e61: 86 07        	stx	$7                      ; 0x2007 <__heap_default_limit+0x1007>
    3e63: 64 08        	stz	$8                      ; 0x2008 <__heap_default_limit+0x1008>
    3e65: 64 09        	stz	$9                      ; 0x2009 <__heap_default_limit+0x1009>
    3e67: 64 0a        	stz	$a                      ; 0x200a <__heap_default_limit+0x100a>
    3e69: a2 01        	ldx	#$1
    3e6b: 86 0b        	stx	$b                      ; 0x200b <__heap_default_limit+0x100b>
    3e6d: a6 0c        	ldx	$c                      ; 0x200c <__heap_default_limit+0x100c>
    3e6f: a9 00        	lda	#$0
    3e71: 20 22 6a     	jsr	$6a22 <lcopy>
    3e74: a2 00        	ldx	#$0
    3e76: 86 04        	stx	$4                      ; 0x2004 <__heap_default_limit+0x1004>
    3e78: a2 19        	ldx	#$19
    3e7a: 86 05        	stx	$5                      ; 0x2005 <__heap_default_limit+0x1005>
    3e7c: a0 1a        	ldy	#$1a
    3e7e: b1 02        	lda	($2),y                  ; 0x2002 <__heap_default_limit+0x1002>
    3e80: 85 06        	sta	$6                      ; 0x2006 <__heap_default_limit+0x1006>
    3e82: 88           	dey
    3e83: b1 02        	lda	($2),y                  ; 0x2002 <__heap_default_limit+0x1002>
    3e85: aa           	tax
    3e86: a0 1b        	ldy	#$1b
    3e88: b1 02        	lda	($2),y                  ; 0x2002 <__heap_default_limit+0x1002>
    3e8a: 85 18        	sta	$18                     ; 0x2018 <next_line+0x3>
    3e8c: 20 24 4d     	jsr	$4d24 <PutOneSector>
    3e8f: a5 16        	lda	$16                     ; 0x2016 <next_line+0x1>
    3e91: 29 0f        	and	#$f
    3e93: c9 05        	cmp	#$5
    3e95: d0 06        	bne	$3e9d <donehypfindfirst4+0x34e>
    3e97: a0 00        	ldy	#$0
    3e99: 98           	tya
    3e9a: 4c b6 3f     	jmp	$3fb6 <donehypfindfirst4+0x467>
    3e9d: ae c3 1b     	ldx	$1bc3                   ; 0x1bc3 <__heap_default_limit+0xbc3>
    3ea0: 86 16        	stx	$16                     ; 0x2016 <next_line+0x1>
    3ea2: ae c4 1b     	ldx	$1bc4                   ; 0x1bc4 <__heap_default_limit+0xbc4>
    3ea5: 86 19        	stx	$19                     ; 0x2019 <next_line+0x4>
    3ea7: a2 00        	ldx	#$0
    3ea9: 86 04        	stx	$4                      ; 0x2004 <__heap_default_limit+0x1004>
    3eab: a2 17        	ldx	#$17
    3ead: 86 05        	stx	$5                      ; 0x2005 <__heap_default_limit+0x1005>
    3eaf: a2 01        	ldx	#$1
    3eb1: 86 06        	stx	$6                      ; 0x2006 <__heap_default_limit+0x1006>
    3eb3: a0 14        	ldy	#$14
    3eb5: b1 02        	lda	($2),y                  ; 0x2002 <__heap_default_limit+0x1002>
    3eb7: aa           	tax
    3eb8: a5 18        	lda	$18                     ; 0x2018 <next_line+0x3>
    3eba: 20 5d 4c     	jsr	$4c5d <GetOneSector>
    3ebd: c9 02        	cmp	#$2
    3ebf: 90 03        	bcc	$3ec4 <donehypfindfirst4+0x375>
    3ec1: 4c c5 3d     	jmp	$3dc5 <donehypfindfirst4+0x276>
    3ec4: ae 00 17     	ldx	$1700                   ; 0x1700 <__heap_default_limit+0x700>
    3ec7: ac 01 17     	ldy	$1701                   ; 0x1701 <__heap_default_limit+0x701>
    3eca: a9 00        	lda	#$0
    3ecc: 85 04        	sta	$4                      ; 0x2004 <__heap_default_limit+0x1004>
    3ece: a9 18        	lda	#$18
    3ed0: 85 05        	sta	$5                      ; 0x2005 <__heap_default_limit+0x1005>
    3ed2: 84 06        	sty	$6                      ; 0x2006 <__heap_default_limit+0x1006>
    3ed4: a0 1b        	ldy	#$1b
    3ed6: b1 02        	lda	($2),y                  ; 0x2002 <__heap_default_limit+0x1002>
    3ed8: 20 5d 4c     	jsr	$4c5d <GetOneSector>
    3edb: c9 02        	cmp	#$2
    3edd: a0 1b        	ldy	#$1b
    3edf: b1 02        	lda	($2),y                  ; 0x2002 <__heap_default_limit+0x1002>
    3ee1: a8           	tay
    3ee2: 90 03        	bcc	$3ee7 <donehypfindfirst4+0x398>
    3ee4: 4c c5 3d     	jmp	$3dc5 <donehypfindfirst4+0x276>
    3ee7: a6 16        	ldx	$16                     ; 0x2016 <next_line+0x1>
    3ee9: a5 19        	lda	$19                     ; 0x2019 <next_line+0x4>
    3eeb: 4c 27 3f     	jmp	$3f27 <donehypfindfirst4+0x3d8>
    3eee: a0 00        	ldy	#$0
    3ef0: 84 04        	sty	$4                      ; 0x2004 <__heap_default_limit+0x1004>
    3ef2: a0 19        	ldy	#$19
    3ef4: 84 05        	sty	$5                      ; 0x2005 <__heap_default_limit+0x1005>
    3ef6: 85 06        	sta	$6                      ; 0x2006 <__heap_default_limit+0x1006>
    3ef8: 86 16        	stx	$16                     ; 0x2016 <next_line+0x1>
    3efa: 85 18        	sta	$18                     ; 0x2018 <next_line+0x3>
    3efc: a0 1b        	ldy	#$1b
    3efe: b1 02        	lda	($2),y                  ; 0x2002 <__heap_default_limit+0x1002>
    3f00: 20 5d 4c     	jsr	$4c5d <GetOneSector>
    3f03: a2 00        	ldx	#$0
    3f05: 86 04        	stx	$4                      ; 0x2004 <__heap_default_limit+0x1004>
    3f07: a2 17        	ldx	#$17
    3f09: 86 05        	stx	$5                      ; 0x2005 <__heap_default_limit+0x1005>
    3f0b: a2 00        	ldx	#$0
    3f0d: 86 06        	stx	$6                      ; 0x2006 <__heap_default_limit+0x1006>
    3f0f: a2 18        	ldx	#$18
    3f11: 86 07        	stx	$7                      ; 0x2007 <__heap_default_limit+0x1007>
    3f13: 64 08        	stz	$8                      ; 0x2008 <__heap_default_limit+0x1008>
    3f15: a6 18        	ldx	$18                     ; 0x2018 <next_line+0x3>
    3f17: a5 16        	lda	$16                     ; 0x2016 <next_line+0x1>
    3f19: 20 a4 4e     	jsr	$4ea4 <BAMSectorUpdate>
    3f1c: a0 1b        	ldy	#$1b
    3f1e: b1 02        	lda	($2),y                  ; 0x2002 <__heap_default_limit+0x1002>
    3f20: a8           	tay
    3f21: ae 00 19     	ldx	$1900                   ; 0x1900 <__heap_default_limit+0x900>
    3f24: ad 01 19     	lda	$1901                   ; 0x1901 <__heap_default_limit+0x901>
    3f27: e0 00        	cpx	#$0
    3f29: f0 03        	beq	$3f2e <donehypfindfirst4+0x3df>
    3f2b: 4c ee 3e     	jmp	$3eee <donehypfindfirst4+0x39f>
    3f2e: a2 00        	ldx	#$0
    3f30: 86 04        	stx	$4                      ; 0x2004 <__heap_default_limit+0x1004>
    3f32: a2 17        	ldx	#$17
    3f34: 86 05        	stx	$5                      ; 0x2005 <__heap_default_limit+0x1005>
    3f36: a2 01        	ldx	#$1
    3f38: 86 06        	stx	$6                      ; 0x2006 <__heap_default_limit+0x1006>
    3f3a: 5a           	phy
    3f3b: a0 14        	ldy	#$14
    3f3d: b1 02        	lda	($2),y                  ; 0x2002 <__heap_default_limit+0x1002>
    3f3f: 7a           	ply
    3f40: aa           	tax
    3f41: 84 16        	sty	$16                     ; 0x2016 <next_line+0x1>
    3f43: 98           	tya
    3f44: 20 24 4d     	jsr	$4d24 <PutOneSector>
    3f47: ae 00 17     	ldx	$1700                   ; 0x1700 <__heap_default_limit+0x700>
    3f4a: ac 01 17     	ldy	$1701                   ; 0x1701 <__heap_default_limit+0x701>
    3f4d: a9 00        	lda	#$0
    3f4f: 85 04        	sta	$4                      ; 0x2004 <__heap_default_limit+0x1004>
    3f51: a9 18        	lda	#$18
    3f53: 85 05        	sta	$5                      ; 0x2005 <__heap_default_limit+0x1005>
    3f55: 84 06        	sty	$6                      ; 0x2006 <__heap_default_limit+0x1006>
    3f57: a5 16        	lda	$16                     ; 0x2016 <next_line+0x1>
    3f59: 20 24 4d     	jsr	$4d24 <PutOneSector>
    3f5c: 4c c5 3d     	jmp	$3dc5 <donehypfindfirst4+0x276>
    3f5f: cd df 1b     	cmp	$1bdf                   ; 0x1bdf <__heap_default_limit+0xbdf>
    3f62: 64 05        	stz	$5                      ; 0x2005 <__heap_default_limit+0x1005>
    3f64: 90 03        	bcc	$3f69 <donehypfindfirst4+0x41a>
    3f66: 4c c5 3d     	jmp	$3dc5 <donehypfindfirst4+0x276>
    3f69: a2 28        	ldx	#$28
    3f6b: 86 04        	stx	$4                      ; 0x2004 <__heap_default_limit+0x1004>
    3f6d: aa           	tax
    3f6e: 84 16        	sty	$16                     ; 0x2016 <next_line+0x1>
    3f70: 85 18        	sta	$18                     ; 0x2018 <next_line+0x3>
    3f72: 98           	tya
    3f73: 20 04 6c     	jsr	$6c04 <__udivhi3>
    3f76: aa           	tax
    3f77: 0a           	asl
    3f78: 0a           	asl
    3f79: 0a           	asl
    3f7a: 85 04        	sta	$4                      ; 0x2004 <__heap_default_limit+0x1004>
    3f7c: 0a           	asl
    3f7d: 0a           	asl
    3f7e: 18           	clc
    3f7f: 65 04        	adc	$4                      ; 0x2004 <__heap_default_limit+0x1004>
    3f81: 85 04        	sta	$4                      ; 0x2004 <__heap_default_limit+0x1004>
    3f83: a5 16        	lda	$16                     ; 0x2016 <next_line+0x1>
    3f85: 38           	sec
    3f86: e5 04        	sbc	$4                      ; 0x2004 <__heap_default_limit+0x1004>
    3f88: 85 04        	sta	$4                      ; 0x2004 <__heap_default_limit+0x1004>
    3f8a: 18           	clc
    3f8b: 8a           	txa
    3f8c: 6d c3 1b     	adc	$1bc3                   ; 0x1bc3 <__heap_default_limit+0xbc3>
    3f8f: a8           	tay
    3f90: 18           	clc
    3f91: a5 04        	lda	$4                      ; 0x2004 <__heap_default_limit+0x1004>
    3f93: 6d c4 1b     	adc	$1bc4                   ; 0x1bc4 <__heap_default_limit+0xbc4>
    3f96: a2 00        	ldx	#$0
    3f98: 86 04        	stx	$4                      ; 0x2004 <__heap_default_limit+0x1004>
    3f9a: a2 17        	ldx	#$17
    3f9c: 86 05        	stx	$5                      ; 0x2005 <__heap_default_limit+0x1005>
    3f9e: a2 00        	ldx	#$0
    3fa0: 86 06        	stx	$6                      ; 0x2006 <__heap_default_limit+0x1006>
    3fa2: a2 18        	ldx	#$18
    3fa4: 86 07        	stx	$7                      ; 0x2007 <__heap_default_limit+0x1007>
    3fa6: 64 08        	stz	$8                      ; 0x2008 <__heap_default_limit+0x1008>
    3fa8: aa           	tax
    3fa9: 98           	tya
    3faa: 20 a4 4e     	jsr	$4ea4 <BAMSectorUpdate>
    3fad: a4 16        	ldy	$16                     ; 0x2016 <next_line+0x1>
    3faf: a6 18        	ldx	$18                     ; 0x2018 <next_line+0x3>
    3fb1: c8           	iny
    3fb2: d0 01        	bne	$3fb5 <donehypfindfirst4+0x466>
    3fb4: e8           	inx
    3fb5: 8a           	txa
    3fb6: cd df 1b     	cmp	$1bdf                   ; 0x1bdf <__heap_default_limit+0xbdf>
    3fb9: f0 03        	beq	$3fbe <donehypfindfirst4+0x46f>
    3fbb: 4c 5f 3f     	jmp	$3f5f <donehypfindfirst4+0x410>
    3fbe: ae de 1b     	ldx	$1bde                   ; 0x1bde <__heap_default_limit+0xbde>
    3fc1: 86 04        	stx	$4                      ; 0x2004 <__heap_default_limit+0x1004>
    3fc3: c4 04        	cpy	$4                      ; 0x2004 <__heap_default_limit+0x1004>
    3fc5: 4c 62 3f     	jmp	$3f62 <donehypfindfirst4+0x413>
    3fc8: a6 1e        	ldx	$1e                     ; 0x201e <next_line+0x9>
    3fca: 86 04        	stx	$4                      ; 0x2004 <__heap_default_limit+0x1004>
    3fcc: 4c b4 40     	jmp	$40b4 <donehypfindfirst4+0x565>
    3fcf: c8           	iny
    3fd0: c0 51        	cpy	#$51
    3fd2: d0 03        	bne	$3fd7 <donehypfindfirst4+0x488>
    3fd4: 4c ea 48     	jmp	$48ea <donehypchdir9+0x223>
    3fd7: a9 01        	lda	#$1
    3fd9: 84 1d        	sty	$1d                     ; 0x201d <next_line+0x8>
    3fdb: c9 29        	cmp	#$29
    3fdd: b0 f0        	bcs	$3fcf <donehypfindfirst4+0x480>
    3fdf: a6 04        	ldx	$4                      ; 0x2004 <__heap_default_limit+0x1004>
    3fe1: 86 1e        	stx	$1e                     ; 0x201e <next_line+0x9>
    3fe3: 85 20        	sta	$20                     ; 0x2020 <next_line+0xb>
    3fe5: 85 18        	sta	$18                     ; 0x2018 <next_line+0x3>
    3fe7: c6 18        	dec	$18                     ; 0x2018 <next_line+0x3>
    3fe9: a9 02        	lda	#$2
    3feb: 25 30        	and	$30                     ; 0x2030 <__do_init_stack+0x1>
    3fed: f0 19        	beq	$4008 <donehypfindfirst4+0x4b9>
    3fef: a6 18        	ldx	$18                     ; 0x2018 <next_line+0x3>
    3ff1: 98           	tya
    3ff2: 20 a6 51     	jsr	$51a6 <isallocatedBAMtracksector>
    3ff5: a4 1d        	ldy	$1d                     ; 0x201d <next_line+0x8>
    3ff7: aa           	tax
    3ff8: d0 0e        	bne	$4008 <donehypfindfirst4+0x4b9>
    3ffa: a6 20        	ldx	$20                     ; 0x2020 <next_line+0xb>
    3ffc: 98           	tya
    3ffd: 20 a6 51     	jsr	$51a6 <isallocatedBAMtracksector>
    4000: a4 1d        	ldy	$1d                     ; 0x201d <next_line+0x8>
    4002: aa           	tax
    4003: d0 03        	bne	$4008 <donehypfindfirst4+0x4b9>
    4005: 4c c8 3f     	jmp	$3fc8 <donehypfindfirst4+0x479>
    4008: a6 18        	ldx	$18                     ; 0x2018 <next_line+0x3>
    400a: 98           	tya
    400b: 84 1c        	sty	$1c                     ; 0x201c <next_line+0x7>
    400d: 20 5f 54     	jsr	$545f <tracksectorstring>
    4010: a6 1e        	ldx	$1e                     ; 0x201e <next_line+0x9>
    4012: 86 04        	stx	$4                      ; 0x2004 <__heap_default_limit+0x1004>
    4014: 06 04        	asl	$4                      ; 0x2004 <__heap_default_limit+0x1004>
    4016: a5 1f        	lda	$1f                     ; 0x201f <next_line+0xa>
    4018: 2a           	rol
    4019: 06 04        	asl	$4                      ; 0x2004 <__heap_default_limit+0x1004>
    401b: 2a           	rol
    401c: a2 f2        	ldx	#$f2
    401e: 86 04        	stx	$4                      ; 0x2004 <__heap_default_limit+0x1004>
    4020: a2 79        	ldx	#$79
    4022: 86 05        	stx	$5                      ; 0x2005 <__heap_default_limit+0x1005>
    4024: a2 8a        	ldx	#$8a
    4026: 86 06        	stx	$6                      ; 0x2006 <__heap_default_limit+0x1006>
    4028: a2 7b        	ldx	#$7b
    402a: 86 07        	stx	$7                      ; 0x2007 <__heap_default_limit+0x1007>
    402c: 20 5c 5a     	jsr	$5a5c <progress>
    402f: a6 18        	ldx	$18                     ; 0x2018 <next_line+0x3>
    4031: 86 04        	stx	$4                      ; 0x2004 <__heap_default_limit+0x1004>
    4033: a6 1c        	ldx	$1c                     ; 0x201c <next_line+0x7>
    4035: a5 16        	lda	$16                     ; 0x2016 <next_line+0x1>
    4037: 20 ec 4a     	jsr	$4aec <ReadSector>
    403a: c9 02        	cmp	#$2
    403c: a2 01        	ldx	#$1
    403e: 90 03        	bcc	$4043 <donehypfindfirst4+0x4f4>
    4040: 4c 49 46     	jmp	$4649 <donehypd81dosattach7+0x14>
    4043: a0 fd        	ldy	#$fd
    4045: 84 04        	sty	$4                      ; 0x2004 <__heap_default_limit+0x1004>
    4047: a0 0f        	ldy	#$f
    4049: 84 05        	sty	$5                      ; 0x2005 <__heap_default_limit+0x1005>
    404b: 64 06        	stz	$6                      ; 0x2006 <__heap_default_limit+0x1006>
    404d: a0 19        	ldy	#$19
    404f: 84 07        	sty	$7                      ; 0x2007 <__heap_default_limit+0x1007>
    4051: 64 08        	stz	$8                      ; 0x2008 <__heap_default_limit+0x1008>
    4053: 64 09        	stz	$9                      ; 0x2009 <__heap_default_limit+0x1009>
    4055: 64 0a        	stz	$a                      ; 0x200a <__heap_default_limit+0x100a>
    4057: 86 0b        	stx	$b                      ; 0x200b <__heap_default_limit+0x100b>
    4059: a2 6c        	ldx	#$6c
    405b: a9 00        	lda	#$0
    405d: 20 22 6a     	jsr	$6a22 <lcopy>
    4060: a2 fd        	ldx	#$fd
    4062: 86 04        	stx	$4                      ; 0x2004 <__heap_default_limit+0x1004>
    4064: a2 0f        	ldx	#$f
    4066: 86 05        	stx	$5                      ; 0x2005 <__heap_default_limit+0x1005>
    4068: 64 06        	stz	$6                      ; 0x2006 <__heap_default_limit+0x1006>
    406a: a2 1a        	ldx	#$1a
    406c: 86 07        	stx	$7                      ; 0x2007 <__heap_default_limit+0x1007>
    406e: 64 08        	stz	$8                      ; 0x2008 <__heap_default_limit+0x1008>
    4070: 64 09        	stz	$9                      ; 0x2009 <__heap_default_limit+0x1009>
    4072: 64 0a        	stz	$a                      ; 0x200a <__heap_default_limit+0x100a>
    4074: a2 01        	ldx	#$1
    4076: 86 0b        	stx	$b                      ; 0x200b <__heap_default_limit+0x100b>
    4078: a2 6d        	ldx	#$6d
    407a: a9 00        	lda	#$0
    407c: 20 22 6a     	jsr	$6a22 <lcopy>
    407f: a5 1e        	lda	$1e                     ; 0x201e <next_line+0x9>
    4081: 18           	clc
    4082: 69 3c        	adc	#$3c
    4084: 85 07        	sta	$7                      ; 0x2007 <__heap_default_limit+0x1007>
    4086: a5 1f        	lda	$1f                     ; 0x201f <next_line+0xa>
    4088: 69 00        	adc	#$0
    408a: 85 08        	sta	$8                      ; 0x2008 <__heap_default_limit+0x1008>
    408c: a9 00        	lda	#$0
    408e: 69 08        	adc	#$8
    4090: 64 04        	stz	$4                      ; 0x2004 <__heap_default_limit+0x1004>
    4092: 64 05        	stz	$5                      ; 0x2005 <__heap_default_limit+0x1005>
    4094: 64 06        	stz	$6                      ; 0x2006 <__heap_default_limit+0x1006>
    4096: 85 09        	sta	$9                      ; 0x2009 <__heap_default_limit+0x1009>
    4098: 64 0a        	stz	$a                      ; 0x200a <__heap_default_limit+0x100a>
    409a: a2 02        	ldx	#$2
    409c: 86 0b        	stx	$b                      ; 0x200b <__heap_default_limit+0x100b>
    409e: a2 19        	ldx	#$19
    40a0: a9 00        	lda	#$0
    40a2: 20 22 6a     	jsr	$6a22 <lcopy>
    40a5: 18           	clc
    40a6: a5 1e        	lda	$1e                     ; 0x201e <next_line+0x9>
    40a8: 69 02        	adc	#$2
    40aa: 85 04        	sta	$4                      ; 0x2004 <__heap_default_limit+0x1004>
    40ac: a5 1f        	lda	$1f                     ; 0x201f <next_line+0xa>
    40ae: 69 00        	adc	#$0
    40b0: a4 1d        	ldy	$1d                     ; 0x201d <next_line+0x8>
    40b2: 85 1f        	sta	$1f                     ; 0x201f <next_line+0xa>
    40b4: 18           	clc
    40b5: a5 20        	lda	$20                     ; 0x2020 <next_line+0xb>
    40b7: 69 02        	adc	#$2
    40b9: 4c db 3f     	jmp	$3fdb <donehypfindfirst4+0x48c>
    40bc: a5 19        	lda	$19                     ; 0x2019 <next_line+0x4>
    40be: 4c 07 23     	jmp	$2307 <main+0x1fb>
    40c1: e0 0d        	cpx	#$d
    40c3: f0 03        	beq	$40c8 <donehypfindfirst4+0x579>
    40c5: 4c 0e 2b     	jmp	$2b0e <main+0xa02>
    40c8: a9 27        	lda	#$27
    40ca: 18           	clc
    40cb: 65 1c        	adc	$1c                     ; 0x201c <next_line+0x7>
    40cd: 85 04        	sta	$4                      ; 0x2004 <__heap_default_limit+0x1004>
    40cf: a9 00        	lda	#$0
    40d1: 65 08        	adc	$8                      ; 0x2008 <__heap_default_limit+0x1008>
    40d3: 85 05        	sta	$5                      ; 0x2005 <__heap_default_limit+0x1005>
    40d5: b2 04        	lda	($4),z                  ; 0x2004 <__heap_default_limit+0x1004>
    40d7: 85 18        	sta	$18                     ; 0x2018 <next_line+0x3>
    40d9: b1 04        	lda	($4),y                  ; 0x2004 <__heap_default_limit+0x1004>
    40db: 85 19        	sta	$19                     ; 0x2019 <next_line+0x4>
    40dd: b1 18        	lda	($18),y                 ; 0x2018 <next_line+0x3>
    40df: aa           	tax
    40e0: a0 18        	ldy	#$18
    40e2: b1 02        	lda	($2),y                  ; 0x2002 <__heap_default_limit+0x1002>
    40e4: a4 08        	ldy	$8                      ; 0x2008 <__heap_default_limit+0x1008>
    40e6: 84 17        	sty	$17                     ; 0x2017 <next_line+0x2>
    40e8: 20 eb 54     	jsr	$54eb <getdirententry>
    40eb: a9 00        	lda	#$0
    40ed: a6 1f        	ldx	$1f                     ; 0x201f <next_line+0xa>
    40ef: e0 01        	cpx	#$1
    40f1: 2a           	rol
    40f2: 85 06        	sta	$6                      ; 0x2006 <__heap_default_limit+0x1006>
    40f4: a6 21        	ldx	$21                     ; 0x2021 <_start>
    40f6: e0 01        	cpx	#$1
    40f8: 2a           	rol
    40f9: a6 16        	ldx	$16                     ; 0x2016 <next_line+0x1>
    40fb: e0 01        	cpx	#$1
    40fd: 2a           	rol
    40fe: 85 09        	sta	$9                      ; 0x2009 <__heap_default_limit+0x1009>
    4100: 06 1e        	asl	$1e                     ; 0x201e <next_line+0x9>
    4102: 26 1b        	rol	$1b                     ; 0x201b <next_line+0x6>
    4104: 26 09        	rol	$9                      ; 0x2009 <__heap_default_limit+0x1009>
    4106: 38           	sec
    4107: a5 1e        	lda	$1e                     ; 0x201e <next_line+0x9>
    4109: e5 1c        	sbc	$1c                     ; 0x201c <next_line+0x7>
    410b: 85 08        	sta	$8                      ; 0x2008 <__heap_default_limit+0x1008>
    410d: a5 1b        	lda	$1b                     ; 0x201b <next_line+0x6>
    410f: e5 17        	sbc	$17                     ; 0x2017 <next_line+0x2>
    4111: 85 07        	sta	$7                      ; 0x2007 <__heap_default_limit+0x1007>
    4113: a6 04        	ldx	$4                      ; 0x2004 <__heap_default_limit+0x1004>
    4115: 86 16        	stx	$16                     ; 0x2016 <next_line+0x1>
    4117: a6 05        	ldx	$5                      ; 0x2005 <__heap_default_limit+0x1005>
    4119: 86 17        	stx	$17                     ; 0x2017 <next_line+0x2>
    411b: a5 09        	lda	$9                      ; 0x2009 <__heap_default_limit+0x1009>
    411d: e5 06        	sbc	$6                      ; 0x2006 <__heap_default_limit+0x1006>
    411f: 85 06        	sta	$6                      ; 0x2006 <__heap_default_limit+0x1006>
    4121: a0 01        	ldy	#$1
    4123: b1 18        	lda	($18),y                 ; 0x2018 <next_line+0x3>
    4125: 4a           	lsr
    4126: 64 04        	stz	$4                      ; 0x2004 <__heap_default_limit+0x1004>
    4128: 66 04        	ror	$4                      ; 0x2004 <__heap_default_limit+0x1004>
    412a: 4a           	lsr
    412b: 85 05        	sta	$5                      ; 0x2005 <__heap_default_limit+0x1005>
    412d: 66 04        	ror	$4                      ; 0x2004 <__heap_default_limit+0x1004>
    412f: a9 00        	lda	#$0
    4131: 18           	clc
    4132: 65 04        	adc	$4                      ; 0x2004 <__heap_default_limit+0x1004>
    4134: a8           	tay
    4135: a5 08        	lda	$8                      ; 0x2008 <__heap_default_limit+0x1008>
    4137: 65 05        	adc	$5                      ; 0x2005 <__heap_default_limit+0x1005>
    4139: 85 05        	sta	$5                      ; 0x2005 <__heap_default_limit+0x1005>
    413b: a5 07        	lda	$7                      ; 0x2007 <__heap_default_limit+0x1007>
    413d: 69 00        	adc	#$0
    413f: aa           	tax
    4140: a5 06        	lda	$6                      ; 0x2006 <__heap_default_limit+0x1006>
    4142: 69 00        	adc	#$0
    4144: 85 04        	sta	$4                      ; 0x2004 <__heap_default_limit+0x1004>
    4146: 18           	clc
    4147: 98           	tya
    4148: 69 00        	adc	#$0
    414a: 85 0c        	sta	$c                      ; 0x200c <__heap_default_limit+0x100c>
    414c: a5 05        	lda	$5                      ; 0x2005 <__heap_default_limit+0x1005>
    414e: 69 1c        	adc	#$1c
    4150: a8           	tay
    4151: 8a           	txa
    4152: 69 00        	adc	#$0
    4154: aa           	tax
    4155: a5 04        	lda	$4                      ; 0x2004 <__heap_default_limit+0x1004>
    4157: 69 08        	adc	#$8
    4159: 86 04        	stx	$4                      ; 0x2004 <__heap_default_limit+0x1004>
    415b: 85 05        	sta	$5                      ; 0x2005 <__heap_default_limit+0x1005>
    415d: a2 dc        	ldx	#$dc
    415f: 86 06        	stx	$6                      ; 0x2006 <__heap_default_limit+0x1006>
    4161: a2 7c        	ldx	#$7c
    4163: 86 07        	stx	$7                      ; 0x2007 <__heap_default_limit+0x1007>
    4165: 64 08        	stz	$8                      ; 0x2008 <__heap_default_limit+0x1008>
    4167: 64 09        	stz	$9                      ; 0x2009 <__heap_default_limit+0x1009>
    4169: a2 40        	ldx	#$40
    416b: 86 0a        	stx	$a                      ; 0x200a <__heap_default_limit+0x100a>
    416d: 64 0b        	stz	$b                      ; 0x200b <__heap_default_limit+0x100b>
    416f: 5a           	phy
    4170: fa           	plx
    4171: a5 0c        	lda	$c                      ; 0x200c <__heap_default_limit+0x100c>
    4173: 20 22 6a     	jsr	$6a22 <lcopy>
    4176: a9 01        	lda	#$1
    4178: a0 46        	ldy	#$46
    417a: 31 18        	and	($18),y                 ; 0x2018 <next_line+0x3>
    417c: 29 01        	and	#$1
    417e: aa           	tax
    417f: a0 02        	ldy	#$2
    4181: b1 16        	lda	($16),y                 ; 0x2016 <next_line+0x1>
    4183: e0 00        	cpx	#$0
    4185: f0 03        	beq	$418a <donehypfindfirst4+0x63b>
    4187: 4c fb 44     	jmp	$44fb <donehyprmfile5+0x14a>
    418a: 29 10        	and	#$10
    418c: f0 03        	beq	$4191 <donehypfindfirst4+0x642>
    418e: 4c a3 46     	jmp	$46a3 <donehypd81dosattach8+0xd>
    4191: b2 18        	lda	($18),z                 ; 0x2018 <next_line+0x3>
    4193: f0 03        	beq	$4198 <donehypfindfirst4+0x649>
    4195: 4c 3c 48     	jmp	$483c <donehypchdir9+0x175>
    4198: 4c 35 48     	jmp	$4835 <donehypchdir9+0x16e>
    419b: a9 27        	lda	#$27
    419d: 18           	clc
    419e: 65 1c        	adc	$1c                     ; 0x201c <next_line+0x7>
    41a0: 85 04        	sta	$4                      ; 0x2004 <__heap_default_limit+0x1004>
    41a2: a9 00        	lda	#$0
    41a4: 65 08        	adc	$8                      ; 0x2008 <__heap_default_limit+0x1008>
    41a6: 85 05        	sta	$5                      ; 0x2005 <__heap_default_limit+0x1005>
    41a8: b2 04        	lda	($4),z                  ; 0x2004 <__heap_default_limit+0x1004>
    41aa: 85 06        	sta	$6                      ; 0x2006 <__heap_default_limit+0x1006>
    41ac: b1 04        	lda	($4),y                  ; 0x2004 <__heap_default_limit+0x1004>
    41ae: 85 07        	sta	$7                      ; 0x2007 <__heap_default_limit+0x1007>
    41b0: a9 01        	lda	#$1
    41b2: a0 46        	ldy	#$46
    41b4: 31 06        	and	($6),y                  ; 0x2006 <__heap_default_limit+0x1006>
    41b6: 29 01        	and	#$1
    41b8: f0 03        	beq	$41bd <donehypfindfirst4+0x66e>
    41ba: 4c 8d 44     	jmp	$448d <donehyprmfile5+0xdc>
    41bd: a2 8b        	ldx	#$8b
    41bf: 86 04        	stx	$4                      ; 0x2004 <__heap_default_limit+0x1004>
    41c1: a2 72        	ldx	#$72
    41c3: 86 05        	stx	$5                      ; 0x2005 <__heap_default_limit+0x1005>
    41c5: a2 0f        	ldx	#$f
    41c7: 86 06        	stx	$6                      ; 0x2006 <__heap_default_limit+0x1006>
    41c9: a2 78        	ldx	#$78
    41cb: 4c a1 2d     	jmp	$2da1 <donehypclosefile3+0x1aa>
    41ce: a2 4b        	ldx	#$4b
    41d0: 86 04        	stx	$4                      ; 0x2004 <__heap_default_limit+0x1004>
    41d2: a2 14        	ldx	#$14
    41d4: 86 05        	stx	$5                      ; 0x2005 <__heap_default_limit+0x1005>
    41d6: 84 06        	sty	$6                      ; 0x2006 <__heap_default_limit+0x1006>
    41d8: a2 04        	ldx	#$4
    41da: 8a           	txa
    41db: 20 7a 57     	jsr	$577a <mcbox>
    41de: a9 20        	lda	#$20
    41e0: 05 2b        	ora	$2b                     ; 0x202b <_start+0xa>
    41e2: 85 2b        	sta	$2b                     ; 0x202b <_start+0xa>
    41e4: a2 c8        	ldx	#$c8
    41e6: 86 04        	stx	$4                      ; 0x2004 <__heap_default_limit+0x1004>
    41e8: a2 71        	ldx	#$71
    41ea: 86 05        	stx	$5                      ; 0x2005 <__heap_default_limit+0x1005>
    41ec: a2 04        	ldx	#$4
    41ee: a9 06        	lda	#$6
    41f0: 20 64 57     	jsr	$5764 <mcputsxy>
    41f3: a2 e0        	ldx	#$e0
    41f5: 86 04        	stx	$4                      ; 0x2004 <__heap_default_limit+0x1004>
    41f7: a2 73        	ldx	#$73
    41f9: 86 05        	stx	$5                      ; 0x2005 <__heap_default_limit+0x1005>
    41fb: a2 04        	ldx	#$4
    41fd: a9 19        	lda	#$19
    41ff: 20 64 57     	jsr	$5764 <mcputsxy>
    4202: a2 44        	ldx	#$44
    4204: 86 04        	stx	$4                      ; 0x2004 <__heap_default_limit+0x1004>
    4206: a2 75        	ldx	#$75
    4208: 86 05        	stx	$5                      ; 0x2005 <__heap_default_limit+0x1005>
    420a: a2 04        	ldx	#$4
    420c: a9 2f        	lda	#$2f
    420e: 20 64 57     	jsr	$5764 <mcputsxy>
    4211: a9 df        	lda	#$df
    4213: 25 2b        	and	$2b                     ; 0x202b <_start+0xa>
    4215: 85 2b        	sta	$2b                     ; 0x202b <_start+0xa>
    4217: a2 7e        	ldx	#$7e
    4219: 86 04        	stx	$4                      ; 0x2004 <__heap_default_limit+0x1004>
    421b: a2 71        	ldx	#$71
    421d: 86 05        	stx	$5                      ; 0x2005 <__heap_default_limit+0x1005>
    421f: a5 04        	lda	$4                      ; 0x2004 <__heap_default_limit+0x1004>
    4221: a0 21        	ldy	#$21
    4223: 91 02        	sta	($2),y                  ; 0x2002 <__heap_default_limit+0x1002>
    4225: a5 05        	lda	$5                      ; 0x2005 <__heap_default_limit+0x1005>
    4227: c8           	iny
    4228: 91 02        	sta	($2),y                  ; 0x2002 <__heap_default_limit+0x1002>
    422a: 88           	dey
    422b: b1 02        	lda	($2),y                  ; 0x2002 <__heap_default_limit+0x1002>
    422d: 85 04        	sta	$4                      ; 0x2004 <__heap_default_limit+0x1004>
    422f: c8           	iny
    4230: b1 02        	lda	($2),y                  ; 0x2002 <__heap_default_limit+0x1002>
    4232: 85 05        	sta	$5                      ; 0x2005 <__heap_default_limit+0x1005>
    4234: a2 14        	ldx	#$14
    4236: a9 07        	lda	#$7
    4238: 20 64 57     	jsr	$5764 <mcputsxy>
    423b: a2 a8        	ldx	#$a8
    423d: 86 04        	stx	$4                      ; 0x2004 <__heap_default_limit+0x1004>
    423f: a2 73        	ldx	#$73
    4241: 86 05        	stx	$5                      ; 0x2005 <__heap_default_limit+0x1005>
    4243: 20 56 57     	jsr	$5756 <msprintf>
    4246: a0 21        	ldy	#$21
    4248: b1 02        	lda	($2),y                  ; 0x2002 <__heap_default_limit+0x1002>
    424a: 85 04        	sta	$4                      ; 0x2004 <__heap_default_limit+0x1004>
    424c: c8           	iny
    424d: b1 02        	lda	($2),y                  ; 0x2002 <__heap_default_limit+0x1002>
    424f: 85 05        	sta	$5                      ; 0x2005 <__heap_default_limit+0x1005>
    4251: 20 56 57     	jsr	$5756 <msprintf>
    4254: a2 c9        	ldx	#$c9
    4256: 86 04        	stx	$4                      ; 0x2004 <__heap_default_limit+0x1004>
    4258: a2 78        	ldx	#$78
    425a: 86 05        	stx	$5                      ; 0x2005 <__heap_default_limit+0x1005>
    425c: a2 14        	ldx	#$14
    425e: a9 34        	lda	#$34
    4260: 20 64 57     	jsr	$5764 <mcputsxy>
    4263: a0 00        	ldy	#$0
    4265: 4c 3c 2c     	jmp	$2c3c <donehypclosefile3+0x45>
    4268: a6 08        	ldx	$8                      ; 0x2008 <__heap_default_limit+0x1008>
    426a: 86 16        	stx	$16                     ; 0x2016 <next_line+0x1>
    426c: a2 77        	ldx	#$77
    426e: 86 04        	stx	$4                      ; 0x2004 <__heap_default_limit+0x1004>
    4270: a2 75        	ldx	#$75
    4272: 86 05        	stx	$5                      ; 0x2005 <__heap_default_limit+0x1005>
    4274: a2 92        	ldx	#$92
    4276: 86 06        	stx	$6                      ; 0x2006 <__heap_default_limit+0x1006>
    4278: a2 7a        	ldx	#$7a
    427a: 86 07        	stx	$7                      ; 0x2007 <__heap_default_limit+0x1007>
    427c: a2 7e        	ldx	#$7e
    427e: 86 08        	stx	$8                      ; 0x2008 <__heap_default_limit+0x1008>
    4280: a2 71        	ldx	#$71
    4282: 86 09        	stx	$9                      ; 0x2009 <__heap_default_limit+0x1009>
    4284: 64 0a        	stz	$a                      ; 0x200a <__heap_default_limit+0x100a>
    4286: 64 0b        	stz	$b                      ; 0x200b <__heap_default_limit+0x100b>
    4288: 64 0c        	stz	$c                      ; 0x200c <__heap_default_limit+0x100c>
    428a: a2 00        	ldx	#$0
    428c: 8a           	txa
    428d: 20 05 59     	jsr	$5905 <messagebox>
    4290: aa           	tax
    4291: d0 03        	bne	$4296 <donehypfindfirst4+0x747>
    4293: 4c 0b 23     	jmp	$230b <main+0x1ff>
    4296: a9 00        	lda	#$0
    4298: 8d 7f d6     	sta	$d67f                   ; 0xd67f <__heap_start+0x5665>
    429b: b8           	clv
    429c: a2 f2        	ldx	#$f2
    429e: 86 04        	stx	$4                      ; 0x2004 <__heap_default_limit+0x1004>
    42a0: a2 79        	ldx	#$79
    42a2: 86 05        	stx	$5                      ; 0x2005 <__heap_default_limit+0x1005>
    42a4: a2 c5        	ldx	#$c5
    42a6: 86 06        	stx	$6                      ; 0x2006 <__heap_default_limit+0x1006>
    42a8: a2 73        	ldx	#$73
    42aa: 86 07        	stx	$7                      ; 0x2007 <__heap_default_limit+0x1007>
    42ac: a9 1e        	lda	#$1e
    42ae: 20 5c 5a     	jsr	$5a5c <progress>
    42b1: a2 1e        	ldx	#$1e
    42b3: 86 04        	stx	$4                      ; 0x2004 <__heap_default_limit+0x1004>
    42b5: 64 05        	stz	$5                      ; 0x2005 <__heap_default_limit+0x1005>
    42b7: a2 84        	ldx	#$84
    42b9: a9 80        	lda	#$80
    42bb: 20 d9 6a     	jsr	$6ad9 <usleep>
    42be: a9 27        	lda	#$27
    42c0: 18           	clc
    42c1: 65 1c        	adc	$1c                     ; 0x201c <next_line+0x7>
    42c3: 85 04        	sta	$4                      ; 0x2004 <__heap_default_limit+0x1004>
    42c5: a9 00        	lda	#$0
    42c7: 65 16        	adc	$16                     ; 0x2016 <next_line+0x1>
    42c9: 85 05        	sta	$5                      ; 0x2005 <__heap_default_limit+0x1005>
    42cb: b2 04        	lda	($4),z                  ; 0x2004 <__heap_default_limit+0x1004>
    42cd: aa           	tax
    42ce: a0 01        	ldy	#$1
    42d0: b1 04        	lda	($4),y                  ; 0x2004 <__heap_default_limit+0x1004>
    42d2: 86 04        	stx	$4                      ; 0x2004 <__heap_default_limit+0x1004>
    42d4: 85 05        	sta	$5                      ; 0x2005 <__heap_default_limit+0x1005>
    42d6: 98           	tya
    42d7: a0 46        	ldy	#$46
    42d9: 11 04        	ora	($4),y                  ; 0x2004 <__heap_default_limit+0x1004>
    42db: 91 04        	sta	($4),y                  ; 0x2004 <__heap_default_limit+0x1004>
    42dd: a6 19        	ldx	$19                     ; 0x2019 <next_line+0x4>
    42df: 86 17        	stx	$17                     ; 0x2017 <next_line+0x2>
    42e1: a5 19        	lda	$19                     ; 0x2019 <next_line+0x4>
    42e3: 0a           	asl
    42e4: 85 06        	sta	$6                      ; 0x2006 <__heap_default_limit+0x1006>
    42e6: a9 00        	lda	#$0
    42e8: 2a           	rol
    42e9: 85 07        	sta	$7                      ; 0x2007 <__heap_default_limit+0x1007>
    42eb: a9 27        	lda	#$27
    42ed: 18           	clc
    42ee: 65 06        	adc	$6                      ; 0x2006 <__heap_default_limit+0x1006>
    42f0: 85 06        	sta	$6                      ; 0x2006 <__heap_default_limit+0x1006>
    42f2: a9 00        	lda	#$0
    42f4: 65 07        	adc	$7                      ; 0x2007 <__heap_default_limit+0x1007>
    42f6: 85 07        	sta	$7                      ; 0x2007 <__heap_default_limit+0x1007>
    42f8: b2 06        	lda	($6),z                  ; 0x2006 <__heap_default_limit+0x1006>
    42fa: 85 18        	sta	$18                     ; 0x2018 <next_line+0x3>
    42fc: a0 01        	ldy	#$1
    42fe: b1 06        	lda	($6),y                  ; 0x2006 <__heap_default_limit+0x1006>
    4300: 85 19        	sta	$19                     ; 0x2019 <next_line+0x4>
    4302: 98           	tya
    4303: a0 46        	ldy	#$46
    4305: 11 18        	ora	($18),y                 ; 0x2018 <next_line+0x3>
    4307: 91 18        	sta	($18),y                 ; 0x2018 <next_line+0x3>
    4309: a9 28        	lda	#$28
    430b: c8           	iny
    430c: 91 04        	sta	($4),y                  ; 0x2004 <__heap_default_limit+0x1004>
    430e: 91 18        	sta	($18),y                 ; 0x2018 <next_line+0x3>
    4310: b2 04        	lda	($4),z                  ; 0x2004 <__heap_default_limit+0x1004>
    4312: 48           	pha
    4313: a0 18        	ldy	#$18
    4315: b1 02        	lda	($2),y                  ; 0x2002 <__heap_default_limit+0x1002>
    4317: aa           	tax
    4318: 68           	pla
    4319: 20 84 5f     	jsr	$5f84 <UpdateSectors>
    431c: b2 18        	lda	($18),z                 ; 0x2018 <next_line+0x3>
    431e: a6 17        	ldx	$17                     ; 0x2017 <next_line+0x2>
    4320: 20 84 5f     	jsr	$5f84 <UpdateSectors>
    4323: 4c 0b 23     	jmp	$230b <main+0x1ff>
    4326: a9 27        	lda	#$27
    4328: 18           	clc
    4329: 65 1c        	adc	$1c                     ; 0x201c <next_line+0x7>
    432b: 85 04        	sta	$4                      ; 0x2004 <__heap_default_limit+0x1004>
    432d: a9 00        	lda	#$0
    432f: 65 08        	adc	$8                      ; 0x2008 <__heap_default_limit+0x1008>
    4331: 85 05        	sta	$5                      ; 0x2005 <__heap_default_limit+0x1005>
    4333: b2 04        	lda	($4),z                  ; 0x2004 <__heap_default_limit+0x1004>
    4335: 85 1c        	sta	$1c                     ; 0x201c <next_line+0x7>
    4337: b1 04        	lda	($4),y                  ; 0x2004 <__heap_default_limit+0x1004>
    4339: 85 1d        	sta	$1d                     ; 0x201d <next_line+0x8>
    433b: a9 01        	lda	#$1
    433d: a0 46        	ldy	#$46
    433f: 31 1c        	and	($1c),y                 ; 0x201c <next_line+0x7>
    4341: f0 2d        	beq	$4370 <donehypfindfirst4+0x821>
    4343: a5 19        	lda	$19                     ; 0x2019 <next_line+0x4>
    4345: 0a           	asl
    4346: 85 04        	sta	$4                      ; 0x2004 <__heap_default_limit+0x1004>
    4348: a9 00        	lda	#$0
    434a: 2a           	rol
    434b: 85 05        	sta	$5                      ; 0x2005 <__heap_default_limit+0x1005>
    434d: a9 27        	lda	#$27
    434f: 18           	clc
    4350: 65 04        	adc	$4                      ; 0x2004 <__heap_default_limit+0x1004>
    4352: 85 04        	sta	$4                      ; 0x2004 <__heap_default_limit+0x1004>
    4354: a9 00        	lda	#$0
    4356: 65 05        	adc	$5                      ; 0x2005 <__heap_default_limit+0x1005>
    4358: 85 05        	sta	$5                      ; 0x2005 <__heap_default_limit+0x1005>
    435a: b2 04        	lda	($4),z                  ; 0x2004 <__heap_default_limit+0x1004>
    435c: 85 1a        	sta	$1a                     ; 0x201a <next_line+0x5>
    435e: a0 01        	ldy	#$1
    4360: b1 04        	lda	($4),y                  ; 0x2004 <__heap_default_limit+0x1004>
    4362: 85 1b        	sta	$1b                     ; 0x201b <next_line+0x6>
    4364: 98           	tya
    4365: a0 46        	ldy	#$46
    4367: 31 1a        	and	($1a),y                 ; 0x201a <next_line+0x5>
    4369: 29 01        	and	#$1
    436b: f0 03        	beq	$4370 <donehypfindfirst4+0x821>
    436d: 4c 29 45     	jmp	$4529 <donehyprmfile5+0x178>
    4370: a2 aa        	ldx	#$aa
    4372: 86 04        	stx	$4                      ; 0x2004 <__heap_default_limit+0x1004>
    4374: a2 71        	ldx	#$71
    4376: 4c 99 2d     	jmp	$2d99 <donehypclosefile3+0x1a2>
    4379: a2 31        	ldx	#$31
    437b: 86 04        	stx	$4                      ; 0x2004 <__heap_default_limit+0x1004>
    437d: a2 75        	ldx	#$75
    437f: 86 05        	stx	$5                      ; 0x2005 <__heap_default_limit+0x1005>
    4381: a6 18        	ldx	$18                     ; 0x2018 <next_line+0x3>
    4383: 86 06        	stx	$6                      ; 0x2006 <__heap_default_limit+0x1006>
    4385: a6 19        	ldx	$19                     ; 0x2019 <next_line+0x4>
    4387: 86 07        	stx	$7                      ; 0x2007 <__heap_default_limit+0x1007>
    4389: a2 f4        	ldx	#$f4
    438b: 86 08        	stx	$8                      ; 0x2008 <__heap_default_limit+0x1008>
    438d: a2 73        	ldx	#$73
    438f: 86 09        	stx	$9                      ; 0x2009 <__heap_default_limit+0x1009>
    4391: 64 0a        	stz	$a                      ; 0x200a <__heap_default_limit+0x100a>
    4393: 64 0b        	stz	$b                      ; 0x200b <__heap_default_limit+0x100b>
    4395: 64 0c        	stz	$c                      ; 0x200c <__heap_default_limit+0x100c>
    4397: a2 00        	ldx	#$0
    4399: 8a           	txa
    439a: 20 05 59     	jsr	$5905 <messagebox>
    439d: 4c 7c 3b     	jmp	$3b7c <donehypfindfirst4+0x2d>
    43a0: a9 26        	lda	#$26
    43a2: 8d 40 d6     	sta	$d640                   ; 0xd640 <__heap_start+0x5626>
    43a5: b8           	clv
    43a6: 90 05        	bcc	$43ad <errhyprmfile5>
    43a8: 85 04        	sta	$4                      ; 0x2004 <__heap_default_limit+0x1004>
    43aa: 4c b1 43     	jmp	$43b1 <donehyprmfile5>

000043ad <errhyprmfile5>:
    43ad: a9 ff        	lda	#$ff
    43af: 85 04        	sta	$4                      ; 0x2004 <__heap_default_limit+0x1004>

000043b1 <donehyprmfile5>:
    43b1: ea           	nop
    43b2: 4c 7c 3b     	jmp	$3b7c <donehypfindfirst4+0x2d>
    43b5: 48           	pha
    43b6: a0 1c        	ldy	#$1c
    43b8: b1 02        	lda	($2),y                  ; 0x2002 <__heap_default_limit+0x1002>
    43ba: 85 05        	sta	$5                      ; 0x2005 <__heap_default_limit+0x1005>
    43bc: 68           	pla
    43bd: c9 ff        	cmp	#$ff
    43bf: d0 03        	bne	$43c4 <donehyprmfile5+0x13>
    43c1: 4c 82 3b     	jmp	$3b82 <donehypfindfirst4+0x33>
    43c4: 4c ba 3b     	jmp	$3bba <donehypfindfirst4+0x6b>
    43c7: a0 1c        	ldy	#$1c
    43c9: b1 02        	lda	($2),y                  ; 0x2002 <__heap_default_limit+0x1002>
    43cb: 85 05        	sta	$5                      ; 0x2005 <__heap_default_limit+0x1005>
    43cd: 4c ba 3b     	jmp	$3bba <donehypfindfirst4+0x6b>
    43d0: e0 11        	cpx	#$11
    43d2: f0 03        	beq	$43d7 <donehyprmfile5+0x26>
    43d4: 4c 15 2b     	jmp	$2b15 <main+0xa09>
    43d7: a9 27        	lda	#$27
    43d9: 18           	clc
    43da: 65 1c        	adc	$1c                     ; 0x201c <next_line+0x7>
    43dc: 85 04        	sta	$4                      ; 0x2004 <__heap_default_limit+0x1004>
    43de: a9 00        	lda	#$0
    43e0: 65 08        	adc	$8                      ; 0x2008 <__heap_default_limit+0x1008>
    43e2: 85 05        	sta	$5                      ; 0x2005 <__heap_default_limit+0x1005>
    43e4: b2 04        	lda	($4),z                  ; 0x2004 <__heap_default_limit+0x1004>
    43e6: aa           	tax
    43e7: b1 04        	lda	($4),y                  ; 0x2004 <__heap_default_limit+0x1004>
    43e9: 86 04        	stx	$4                      ; 0x2004 <__heap_default_limit+0x1004>
    43eb: 85 05        	sta	$5                      ; 0x2005 <__heap_default_limit+0x1005>
    43ed: b1 04        	lda	($4),y                  ; 0x2004 <__heap_default_limit+0x1004>
    43ef: 1a           	inc
    43f0: 4c 77 3b     	jmp	$3b77 <donehypfindfirst4+0x28>
    43f3: a0 18        	ldy	#$18
    43f5: b1 02        	lda	($2),y                  ; 0x2002 <__heap_default_limit+0x1002>
    43f7: 20 2e 66     	jsr	$662e <sizeselectcurrentifnone>
    43fa: 85 04        	sta	$4                      ; 0x2004 <__heap_default_limit+0x1004>
    43fc: 86 05        	stx	$5                      ; 0x2005 <__heap_default_limit+0x1005>
    43fe: 18           	clc
    43ff: a5 16        	lda	$16                     ; 0x2016 <next_line+0x1>
    4401: 69 44        	adc	#$44
    4403: 85 06        	sta	$6                      ; 0x2006 <__heap_default_limit+0x1006>
    4405: a5 1b        	lda	$1b                     ; 0x201b <next_line+0x6>
    4407: 69 00        	adc	#$0
    4409: 85 07        	sta	$7                      ; 0x2007 <__heap_default_limit+0x1007>
    440b: a0 01        	ldy	#$1
    440d: b1 06        	lda	($6),y                  ; 0x2006 <__heap_default_limit+0x1006>
    440f: c5 05        	cmp	$5                      ; 0x2005 <__heap_default_limit+0x1005>
    4411: f0 03        	beq	$4416 <donehyprmfile5+0x65>
    4413: 4c e3 44     	jmp	$44e3 <donehyprmfile5+0x132>
    4416: a0 44        	ldy	#$44
    4418: 5a           	phy
    4419: a0 1c        	ldy	#$1c
    441b: b1 02        	lda	($2),y                  ; 0x2002 <__heap_default_limit+0x1002>
    441d: 85 06        	sta	$6                      ; 0x2006 <__heap_default_limit+0x1006>
    441f: c8           	iny
    4420: b1 02        	lda	($2),y                  ; 0x2002 <__heap_default_limit+0x1002>
    4422: 7a           	ply
    4423: 85 07        	sta	$7                      ; 0x2007 <__heap_default_limit+0x1007>
    4425: b1 06        	lda	($6),y                  ; 0x2006 <__heap_default_limit+0x1006>
    4427: c5 04        	cmp	$4                      ; 0x2004 <__heap_default_limit+0x1004>
    4429: b0 03        	bcs	$442e <donehyprmfile5+0x7d>
    442b: 4c ea 44     	jmp	$44ea <donehyprmfile5+0x139>
    442e: a0 18        	ldy	#$18
    4430: b1 02        	lda	($2),y                  ; 0x2002 <__heap_default_limit+0x1002>
    4432: d0 03        	bne	$4437 <donehyprmfile5+0x86>
    4434: 4c db 46     	jmp	$46db <donehypchdir9+0x14>
    4437: a2 2c        	ldx	#$2c
    4439: 86 08        	stx	$8                      ; 0x2008 <__heap_default_limit+0x1008>
    443b: a2 78        	ldx	#$78
    443d: 4c e1 46     	jmp	$46e1 <donehypchdir9+0x1a>
    4440: e0 5f        	cpx	#$5f
    4442: d0 03        	bne	$4447 <donehyprmfile5+0x96>
    4444: 4c ce 2e     	jmp	$2ece <donehypclosefile3+0x2d7>
    4447: a5 20        	lda	$20                     ; 0x2020 <next_line+0xb>
    4449: a6 1d        	ldx	$1d                     ; 0x201d <next_line+0x8>
    444b: d0 04        	bne	$4451 <donehyprmfile5+0xa0>
    444d: c9 91        	cmp	#$91
    444f: f0 1b        	beq	$446c <donehyprmfile5+0xbb>
    4451: a6 1d        	ldx	$1d                     ; 0x201d <next_line+0x8>
    4453: d0 07        	bne	$445c <donehyprmfile5+0xab>
    4455: c9 9d        	cmp	#$9d
    4457: d0 03        	bne	$445c <donehyprmfile5+0xab>
    4459: 4c be 44     	jmp	$44be <donehyprmfile5+0x10d>
    445c: a6 1d        	ldx	$1d                     ; 0x201d <next_line+0x8>
    445e: e0 01        	cpx	#$1
    4460: f0 03        	beq	$4465 <donehyprmfile5+0xb4>
    4462: 4c 9f 44     	jmp	$449f <donehyprmfile5+0xee>
    4465: c9 91        	cmp	#$91
    4467: f0 03        	beq	$446c <donehyprmfile5+0xbb>
    4469: 4c 9f 44     	jmp	$449f <donehyprmfile5+0xee>
    446c: a9 27        	lda	#$27
    446e: 18           	clc
    446f: 65 1c        	adc	$1c                     ; 0x201c <next_line+0x7>
    4471: 85 04        	sta	$4                      ; 0x2004 <__heap_default_limit+0x1004>
    4473: a9 00        	lda	#$0
    4475: 65 08        	adc	$8                      ; 0x2008 <__heap_default_limit+0x1008>
    4477: 85 05        	sta	$5                      ; 0x2005 <__heap_default_limit+0x1005>
    4479: b2 04        	lda	($4),z                  ; 0x2004 <__heap_default_limit+0x1004>
    447b: aa           	tax
    447c: b1 04        	lda	($4),y                  ; 0x2004 <__heap_default_limit+0x1004>
    447e: 86 04        	stx	$4                      ; 0x2004 <__heap_default_limit+0x1004>
    4480: 85 05        	sta	$5                      ; 0x2005 <__heap_default_limit+0x1005>
    4482: b1 04        	lda	($4),y                  ; 0x2004 <__heap_default_limit+0x1004>
    4484: d0 03        	bne	$4489 <donehyprmfile5+0xd8>
    4486: 4c 0b 23     	jmp	$230b <main+0x1ff>
    4489: 3a           	dec
    448a: 4c 77 3b     	jmp	$3b77 <donehypfindfirst4+0x28>
    448d: a0 18        	ldy	#$18
    448f: b1 02        	lda	($2),y                  ; 0x2002 <__heap_default_limit+0x1002>
    4491: d0 03        	bne	$4496 <donehyprmfile5+0xe5>
    4493: 4c dc 45     	jmp	$45dc <donehypchdir6+0xd>
    4496: a2 8e        	ldx	#$8e
    4498: 86 06        	stx	$6                      ; 0x2006 <__heap_default_limit+0x1006>
    449a: a2 73        	ldx	#$73
    449c: 4c e2 45     	jmp	$45e2 <donehypchdir6+0x13>
    449f: a6 1d        	ldx	$1d                     ; 0x201d <next_line+0x8>
    44a1: e0 01        	cpx	#$1
    44a3: d0 07        	bne	$44ac <donehyprmfile5+0xfb>
    44a5: c9 94        	cmp	#$94
    44a7: d0 03        	bne	$44ac <donehyprmfile5+0xfb>
    44a9: 4c 9d 3a     	jmp	$3a9d <donehypclosefile3+0xea6>
    44ac: a6 1d        	ldx	$1d                     ; 0x201d <next_line+0x8>
    44ae: a5 20        	lda	$20                     ; 0x2020 <next_line+0xb>
    44b0: e0 01        	cpx	#$1
    44b2: f0 03        	beq	$44b7 <donehyprmfile5+0x106>
    44b4: 4c 82 45     	jmp	$4582 <donehyprmfile5+0x1d1>
    44b7: c9 9d        	cmp	#$9d
    44b9: f0 03        	beq	$44be <donehyprmfile5+0x10d>
    44bb: 4c 82 45     	jmp	$4582 <donehyprmfile5+0x1d1>
    44be: a9 27        	lda	#$27
    44c0: 18           	clc
    44c1: 65 1c        	adc	$1c                     ; 0x201c <next_line+0x7>
    44c3: 85 04        	sta	$4                      ; 0x2004 <__heap_default_limit+0x1004>
    44c5: a9 00        	lda	#$0
    44c7: 65 08        	adc	$8                      ; 0x2008 <__heap_default_limit+0x1008>
    44c9: 85 05        	sta	$5                      ; 0x2005 <__heap_default_limit+0x1005>
    44cb: b2 04        	lda	($4),z                  ; 0x2004 <__heap_default_limit+0x1004>
    44cd: aa           	tax
    44ce: b1 04        	lda	($4),y                  ; 0x2004 <__heap_default_limit+0x1004>
    44d0: 86 04        	stx	$4                      ; 0x2004 <__heap_default_limit+0x1004>
    44d2: 85 05        	sta	$5                      ; 0x2005 <__heap_default_limit+0x1005>
    44d4: b1 04        	lda	($4),y                  ; 0x2004 <__heap_default_limit+0x1004>
    44d6: c9 0b        	cmp	#$b
    44d8: b0 03        	bcs	$44dd <donehyprmfile5+0x12c>
    44da: 4c d6 46     	jmp	$46d6 <donehypchdir9+0xf>
    44dd: 18           	clc
    44de: 69 f6        	adc	#$f6
    44e0: 4c 77 3b     	jmp	$3b77 <donehypfindfirst4+0x28>
    44e3: c5 05        	cmp	$5                      ; 0x2005 <__heap_default_limit+0x1005>
    44e5: 90 03        	bcc	$44ea <donehyprmfile5+0x139>
    44e7: 4c 2e 44     	jmp	$442e <donehyprmfile5+0x7d>
    44ea: a2 e6        	ldx	#$e6
    44ec: 86 04        	stx	$4                      ; 0x2004 <__heap_default_limit+0x1004>
    44ee: a2 72        	ldx	#$72
    44f0: 86 05        	stx	$5                      ; 0x2005 <__heap_default_limit+0x1005>
    44f2: a2 93        	ldx	#$93
    44f4: 86 06        	stx	$6                      ; 0x2006 <__heap_default_limit+0x1006>
    44f6: a2 72        	ldx	#$72
    44f8: 4c a1 2d     	jmp	$2da1 <donehypclosefile3+0x1aa>
    44fb: 29 0f        	and	#$f
    44fd: c9 05        	cmp	#$5
    44ff: d0 09        	bne	$450a <donehyprmfile5+0x159>
    4501: b1 18        	lda	($18),y                 ; 0x2018 <next_line+0x3>
    4503: c9 ff        	cmp	#$ff
    4505: f0 03        	beq	$450a <donehyprmfile5+0x159>
    4507: 4c 0a 48     	jmp	$480a <donehypchdir9+0x143>
    450a: 20 75 67     	jsr	$6775 <sidbong>
    450d: a0 02        	ldy	#$2
    450f: b1 18        	lda	($18),y                 ; 0x2018 <next_line+0x3>
    4511: c9 ff        	cmp	#$ff
    4513: d0 03        	bne	$4518 <donehyprmfile5+0x167>
    4515: 4c 0b 23     	jmp	$230b <main+0x1ff>
    4518: a2 d5        	ldx	#$d5
    451a: 86 04        	stx	$4                      ; 0x2004 <__heap_default_limit+0x1004>
    451c: a2 74        	ldx	#$74
    451e: 86 05        	stx	$5                      ; 0x2005 <__heap_default_limit+0x1005>
    4520: a2 66        	ldx	#$66
    4522: 86 06        	stx	$6                      ; 0x2006 <__heap_default_limit+0x1006>
    4524: a2 79        	ldx	#$79
    4526: 4c a1 2d     	jmp	$2da1 <donehypclosefile3+0x1aa>
    4529: a2 c9        	ldx	#$c9
    452b: 86 04        	stx	$4                      ; 0x2004 <__heap_default_limit+0x1004>
    452d: a2 73        	ldx	#$73
    452f: 86 05        	stx	$5                      ; 0x2005 <__heap_default_limit+0x1005>
    4531: a2 f2        	ldx	#$f2
    4533: 86 06        	stx	$6                      ; 0x2006 <__heap_default_limit+0x1006>
    4535: a2 75        	ldx	#$75
    4537: 86 07        	stx	$7                      ; 0x2007 <__heap_default_limit+0x1007>
    4539: a2 7e        	ldx	#$7e
    453b: 86 08        	stx	$8                      ; 0x2008 <__heap_default_limit+0x1008>
    453d: a2 71        	ldx	#$71
    453f: 86 09        	stx	$9                      ; 0x2009 <__heap_default_limit+0x1009>
    4541: 64 0a        	stz	$a                      ; 0x200a <__heap_default_limit+0x100a>
    4543: 64 0b        	stz	$b                      ; 0x200b <__heap_default_limit+0x100b>
    4545: 64 0c        	stz	$c                      ; 0x200c <__heap_default_limit+0x100c>
    4547: a2 00        	ldx	#$0
    4549: 8a           	txa
    454a: 20 05 59     	jsr	$5905 <messagebox>
    454d: aa           	tax
    454e: d0 03        	bne	$4553 <donehyprmfile5+0x1a2>
    4550: 4c 0b 23     	jmp	$230b <main+0x1ff>
    4553: a0 18        	ldy	#$18
    4555: b1 02        	lda	($2),y                  ; 0x2002 <__heap_default_limit+0x1002>
    4557: 20 75 4d     	jsr	$4d75 <GetBAM>
    455a: b2 1c        	lda	($1c),z                 ; 0x201c <next_line+0x7>
    455c: 85 16        	sta	$16                     ; 0x2016 <next_line+0x1>
    455e: b2 1a        	lda	($1a),z                 ; 0x201a <next_line+0x5>
    4560: 85 17        	sta	$17                     ; 0x2017 <next_line+0x2>
    4562: a0 01        	ldy	#$1
    4564: 64 04        	stz	$4                      ; 0x2004 <__heap_default_limit+0x1004>
    4566: 64 1f        	stz	$1f                     ; 0x201f <next_line+0xa>
    4568: 4c d0 3f     	jmp	$3fd0 <donehypfindfirst4+0x481>
    456b: a0 1c        	ldy	#$1c
    456d: b1 02        	lda	($2),y                  ; 0x2002 <__heap_default_limit+0x1002>
    456f: 85 04        	sta	$4                      ; 0x2004 <__heap_default_limit+0x1004>
    4571: c8           	iny
    4572: b1 02        	lda	($2),y                  ; 0x2002 <__heap_default_limit+0x1002>
    4574: 85 05        	sta	$5                      ; 0x2005 <__heap_default_limit+0x1005>
    4576: b2 04        	lda	($4),z                  ; 0x2004 <__heap_default_limit+0x1004>
    4578: 48           	pha
    4579: a0 19        	ldy	#$19
    457b: b1 02        	lda	($2),y                  ; 0x2002 <__heap_default_limit+0x1002>
    457d: aa           	tax
    457e: 68           	pla
    457f: 4c 85 3a     	jmp	$3a85 <donehypclosefile3+0xe8e>
    4582: a6 1d        	ldx	$1d                     ; 0x201d <next_line+0x8>
    4584: e0 02        	cpx	#$2
    4586: d0 03        	bne	$458b <donehyprmfile5+0x1da>
    4588: 4c bc 47     	jmp	$47bc <donehypchdir9+0xf5>
    458b: a6 1d        	ldx	$1d                     ; 0x201d <next_line+0x8>
    458d: e0 04        	cpx	#$4
    458f: d0 03        	bne	$4594 <donehyprmfile5+0x1e3>
    4591: 4c 29 48     	jmp	$4829 <donehypchdir9+0x162>
    4594: a6 1d        	ldx	$1d                     ; 0x201d <next_line+0x8>
    4596: e0 02        	cpx	#$2
    4598: f0 03        	beq	$459d <donehyprmfile5+0x1ec>
    459a: 4c 8d 48     	jmp	$488d <donehypchdir9+0x1c6>
    459d: 4c 84 48     	jmp	$4884 <donehypchdir9+0x1bd>
    45a0: a5 04        	lda	$4                      ; 0x2004 <__heap_default_limit+0x1004>
    45a2: 18           	clc
    45a3: 69 05        	adc	#$5
    45a5: 85 18        	sta	$18                     ; 0x2018 <next_line+0x3>
    45a7: a5 05        	lda	$5                      ; 0x2005 <__heap_default_limit+0x1005>
    45a9: 69 00        	adc	#$0
    45ab: 85 19        	sta	$19                     ; 0x2019 <next_line+0x4>
    45ad: a6 18        	ldx	$18                     ; 0x2018 <next_line+0x3>
    45af: 86 04        	stx	$4                      ; 0x2004 <__heap_default_limit+0x1004>
    45b1: 85 05        	sta	$5                      ; 0x2005 <__heap_default_limit+0x1005>
    45b3: 20 f3 48     	jsr	$48f3 <hyppo_setname>
    45b6: a2 00        	ldx	#$0
    45b8: a9 34        	lda	#$34
    45ba: 8d 40 d6     	sta	$d640                   ; 0xd640 <__heap_start+0x5626>
    45bd: b8           	clv
    45be: 90 0b        	bcc	$45cb <errhypchdir6>
    45c0: a9 0c        	lda	#$c
    45c2: 8d 40 d6     	sta	$d640                   ; 0xd640 <__heap_start+0x5626>
    45c5: b8           	clv
    45c6: 85 04        	sta	$4                      ; 0x2004 <__heap_default_limit+0x1004>
    45c8: 4c cf 45     	jmp	$45cf <donehypchdir6>

000045cb <errhypchdir6>:
    45cb: a9 ff        	lda	#$ff
    45cd: 85 04        	sta	$4                      ; 0x2004 <__heap_default_limit+0x1004>

000045cf <donehypchdir6>:
    45cf: ea           	nop
    45d0: a6 04        	ldx	$4                      ; 0x2004 <__heap_default_limit+0x1004>
    45d2: e0 10        	cpx	#$10
    45d4: b0 03        	bcs	$45d9 <donehypchdir6+0xa>
    45d6: 4c f3 47     	jmp	$47f3 <donehypchdir9+0x12c>
    45d9: 4c c6 47     	jmp	$47c6 <donehypchdir9+0xff>
    45dc: a2 c1        	ldx	#$c1
    45de: 86 06        	stx	$6                      ; 0x2006 <__heap_default_limit+0x1006>
    45e0: a2 72        	ldx	#$72
    45e2: 86 07        	stx	$7                      ; 0x2007 <__heap_default_limit+0x1007>
    45e4: a2 00        	ldx	#$0
    45e6: a0 8b        	ldy	#$8b
    45e8: 84 04        	sty	$4                      ; 0x2004 <__heap_default_limit+0x1004>
    45ea: a0 72        	ldy	#$72
    45ec: 84 05        	sty	$5                      ; 0x2005 <__heap_default_limit+0x1005>
    45ee: a0 7e        	ldy	#$7e
    45f0: 84 08        	sty	$8                      ; 0x2008 <__heap_default_limit+0x1008>
    45f2: a0 71        	ldy	#$71
    45f4: 84 09        	sty	$9                      ; 0x2009 <__heap_default_limit+0x1009>
    45f6: 64 0a        	stz	$a                      ; 0x200a <__heap_default_limit+0x100a>
    45f8: 64 0b        	stz	$b                      ; 0x200b <__heap_default_limit+0x100b>
    45fa: 64 0c        	stz	$c                      ; 0x200c <__heap_default_limit+0x100c>
    45fc: 8a           	txa
    45fd: 20 05 59     	jsr	$5905 <messagebox>
    4600: aa           	tax
    4601: d0 03        	bne	$4606 <donehypchdir6+0x37>
    4603: 4c 0b 23     	jmp	$230b <main+0x1ff>
    4606: a5 19        	lda	$19                     ; 0x2019 <next_line+0x4>
    4608: 0a           	asl
    4609: 85 04        	sta	$4                      ; 0x2004 <__heap_default_limit+0x1004>
    460b: a9 00        	lda	#$0
    460d: 2a           	rol
    460e: 85 05        	sta	$5                      ; 0x2005 <__heap_default_limit+0x1005>
    4610: a9 27        	lda	#$27
    4612: 18           	clc
    4613: 65 04        	adc	$4                      ; 0x2004 <__heap_default_limit+0x1004>
    4615: 85 04        	sta	$4                      ; 0x2004 <__heap_default_limit+0x1004>
    4617: a9 00        	lda	#$0
    4619: 65 05        	adc	$5                      ; 0x2005 <__heap_default_limit+0x1005>
    461b: 85 05        	sta	$5                      ; 0x2005 <__heap_default_limit+0x1005>
    461d: a0 18        	ldy	#$18
    461f: b1 02        	lda	($2),y                  ; 0x2002 <__heap_default_limit+0x1002>
    4621: 09 80        	ora	#$80
    4623: aa           	tax
    4624: a9 4a        	lda	#$4a
    4626: 8d 40 d6     	sta	$d640                   ; 0xd640 <__heap_start+0x5626>
    4629: b8           	clv
    462a: 90 05        	bcc	$4631 <errhypd81dosattach7>
    462c: 85 06        	sta	$6                      ; 0x2006 <__heap_default_limit+0x1006>
    462e: 4c 35 46     	jmp	$4635 <donehypd81dosattach7>

00004631 <errhypd81dosattach7>:
    4631: a9 ff        	lda	#$ff
    4633: 85 06        	sta	$6                      ; 0x2006 <__heap_default_limit+0x1006>

00004635 <donehypd81dosattach7>:
    4635: ea b2 04     	lda	[$4],z                  ; 0x2004 <__heap_default_limit+0x1004>
    4638: 85 06        	sta	$6                      ; 0x2006 <__heap_default_limit+0x1006>
    463a: a0 01        	ldy	#$1
    463c: b1 04        	lda	($4),y                  ; 0x2004 <__heap_default_limit+0x1004>
    463e: 85 07        	sta	$7                      ; 0x2007 <__heap_default_limit+0x1007>
    4640: b2 06        	lda	($6),z                  ; 0x2006 <__heap_default_limit+0x1006>
    4642: 80 07        	bra	$464b <donehypd81dosattach7+0x16>
    4644: 91 18        	sta	($18),y                 ; 0x2018 <next_line+0x3>
    4646: 4c d1 46     	jmp	$46d1 <donehypchdir9+0xa>
    4649: b2 1a        	lda	($1a),z                 ; 0x201a <next_line+0x5>
    464b: a6 19        	ldx	$19                     ; 0x2019 <next_line+0x4>
    464d: 20 84 5f     	jsr	$5f84 <UpdateSectors>
    4650: 4c 0b 23     	jmp	$230b <main+0x1ff>
    4653: a0 20        	ldy	#$20
    4655: 91 02        	sta	($2),y                  ; 0x2002 <__heap_default_limit+0x1002>
    4657: a2 dc        	ldx	#$dc
    4659: 86 04        	stx	$4                      ; 0x2004 <__heap_default_limit+0x1004>
    465b: a2 7c        	ldx	#$7c
    465d: 86 05        	stx	$5                      ; 0x2005 <__heap_default_limit+0x1005>
    465f: a5 04        	lda	$4                      ; 0x2004 <__heap_default_limit+0x1004>
    4661: c8           	iny
    4662: 91 02        	sta	($2),y                  ; 0x2002 <__heap_default_limit+0x1002>
    4664: a5 05        	lda	$5                      ; 0x2005 <__heap_default_limit+0x1005>
    4666: c8           	iny
    4667: 91 02        	sta	($2),y                  ; 0x2002 <__heap_default_limit+0x1002>
    4669: 88           	dey
    466a: b1 02        	lda	($2),y                  ; 0x2002 <__heap_default_limit+0x1002>
    466c: 85 16        	sta	$16                     ; 0x2016 <next_line+0x1>
    466e: c8           	iny
    466f: b1 02        	lda	($2),y                  ; 0x2002 <__heap_default_limit+0x1002>
    4671: 85 17        	sta	$17                     ; 0x2017 <next_line+0x2>
    4673: 88           	dey
    4674: b1 02        	lda	($2),y                  ; 0x2002 <__heap_default_limit+0x1002>
    4676: 85 04        	sta	$4                      ; 0x2004 <__heap_default_limit+0x1004>
    4678: c8           	iny
    4679: b1 02        	lda	($2),y                  ; 0x2002 <__heap_default_limit+0x1002>
    467b: 85 05        	sta	$5                      ; 0x2005 <__heap_default_limit+0x1005>
    467d: 20 f3 48     	jsr	$48f3 <hyppo_setname>
    4680: a0 20        	ldy	#$20
    4682: b1 02        	lda	($2),y                  ; 0x2002 <__heap_default_limit+0x1002>
    4684: aa           	tax
    4685: a9 4a        	lda	#$4a
    4687: 8d 40 d6     	sta	$d640                   ; 0xd640 <__heap_start+0x5626>
    468a: b8           	clv
    468b: 90 05        	bcc	$4692 <errhypd81dosattach8>
    468d: 85 04        	sta	$4                      ; 0x2004 <__heap_default_limit+0x1004>
    468f: 4c 96 46     	jmp	$4696 <donehypd81dosattach8>

00004692 <errhypd81dosattach8>:
    4692: a9 ff        	lda	#$ff
    4694: 85 04        	sta	$4                      ; 0x2004 <__heap_default_limit+0x1004>

00004696 <donehypd81dosattach8>:
    4696: ea           	nop
    4697: a6 04        	ldx	$4                      ; 0x2004 <__heap_default_limit+0x1004>
    4699: e0 4b        	cpx	#$4b
    469b: b0 03        	bcs	$46a0 <donehypd81dosattach8+0xa>
    469d: 4c 5b 48     	jmp	$485b <donehypchdir9+0x194>
    46a0: 4c 42 48     	jmp	$4842 <donehypchdir9+0x17b>
    46a3: a2 dc        	ldx	#$dc
    46a5: 86 04        	stx	$4                      ; 0x2004 <__heap_default_limit+0x1004>
    46a7: a2 7c        	ldx	#$7c
    46a9: 86 05        	stx	$5                      ; 0x2005 <__heap_default_limit+0x1005>
    46ab: 20 f3 48     	jsr	$48f3 <hyppo_setname>
    46ae: a2 00        	ldx	#$0
    46b0: a9 34        	lda	#$34
    46b2: 8d 40 d6     	sta	$d640                   ; 0xd640 <__heap_start+0x5626>
    46b5: b8           	clv
    46b6: 90 0b        	bcc	$46c3 <errhypchdir9>
    46b8: a9 0c        	lda	#$c
    46ba: 8d 40 d6     	sta	$d640                   ; 0xd640 <__heap_start+0x5626>
    46bd: b8           	clv
    46be: 85 04        	sta	$4                      ; 0x2004 <__heap_default_limit+0x1004>
    46c0: 4c c7 46     	jmp	$46c7 <donehypchdir9>

000046c3 <errhypchdir9>:
    46c3: a9 ff        	lda	#$ff
    46c5: 85 04        	sta	$4                      ; 0x2004 <__heap_default_limit+0x1004>

000046c7 <donehypchdir9>:
    46c7: ea           	nop
    46c8: a6 04        	ldx	$4                      ; 0x2004 <__heap_default_limit+0x1004>
    46ca: e0 10        	cpx	#$10
    46cc: 90 03        	bcc	$46d1 <donehypchdir9+0xa>
    46ce: 4c 64 48     	jmp	$4864 <donehypchdir9+0x19d>
    46d1: b2 18        	lda	($18),z                 ; 0x2018 <next_line+0x3>
    46d3: 4c e7 2d     	jmp	$2de7 <donehypclosefile3+0x1f0>
    46d6: a9 00        	lda	#$0
    46d8: 4c 77 3b     	jmp	$3b77 <donehypfindfirst4+0x28>
    46db: a2 1e        	ldx	#$1e
    46dd: 86 08        	stx	$8                      ; 0x2008 <__heap_default_limit+0x1008>
    46df: a2 75        	ldx	#$75
    46e1: 86 09        	stx	$9                      ; 0x2009 <__heap_default_limit+0x1009>
    46e3: a5 18        	lda	$18                     ; 0x2018 <next_line+0x3>
    46e5: 18           	clc
    46e6: 69 05        	adc	#$5
    46e8: 85 06        	sta	$6                      ; 0x2006 <__heap_default_limit+0x1006>
    46ea: a5 19        	lda	$19                     ; 0x2019 <next_line+0x4>
    46ec: 69 00        	adc	#$0
    46ee: 85 07        	sta	$7                      ; 0x2007 <__heap_default_limit+0x1007>
    46f0: a2 e6        	ldx	#$e6
    46f2: 86 04        	stx	$4                      ; 0x2004 <__heap_default_limit+0x1004>
    46f4: a2 72        	ldx	#$72
    46f6: 86 05        	stx	$5                      ; 0x2005 <__heap_default_limit+0x1005>
    46f8: 64 0a        	stz	$a                      ; 0x200a <__heap_default_limit+0x100a>
    46fa: 64 0b        	stz	$b                      ; 0x200b <__heap_default_limit+0x100b>
    46fc: 64 0c        	stz	$c                      ; 0x200c <__heap_default_limit+0x100c>
    46fe: a2 00        	ldx	#$0
    4700: 8a           	txa
    4701: 20 05 59     	jsr	$5905 <messagebox>
    4704: aa           	tax
    4705: d0 03        	bne	$470a <donehypchdir9+0x43>
    4707: 4c 0b 23     	jmp	$230b <main+0x1ff>
    470a: a0 00        	ldy	#$0
    470c: a2 08        	ldx	#$8
    470e: 5a           	phy
    470f: a0 18        	ldy	#$18
    4711: b1 02        	lda	($2),y                  ; 0x2002 <__heap_default_limit+0x1002>
    4713: 7a           	ply
    4714: 64 04        	stz	$4                      ; 0x2004 <__heap_default_limit+0x1004>
    4716: 85 16        	sta	$16                     ; 0x2016 <next_line+0x1>
    4718: c9 00        	cmp	#$0
    471a: d0 03        	bne	$471f <donehypchdir9+0x58>
    471c: 4c 13 48     	jmp	$4813 <donehypchdir9+0x14c>
    471f: 5a           	phy
    4720: a9 00        	lda	#$0
    4722: a0 15        	ldy	#$15
    4724: 91 02        	sta	($2),y                  ; 0x2002 <__heap_default_limit+0x1002>
    4726: a0 1b        	ldy	#$1b
    4728: 91 02        	sta	($2),y                  ; 0x2002 <__heap_default_limit+0x1002>
    472a: 8a           	txa
    472b: a0 1a        	ldy	#$1a
    472d: 91 02        	sta	($2),y                  ; 0x2002 <__heap_default_limit+0x1002>
    472f: 7a           	ply
    4730: 38           	sec
    4731: 5a           	phy
    4732: a0 20        	ldy	#$20
    4734: b1 02        	lda	($2),y                  ; 0x2002 <__heap_default_limit+0x1002>
    4736: e5 1a        	sbc	$1a                     ; 0x201a <next_line+0x5>
    4738: 85 04        	sta	$4                      ; 0x2004 <__heap_default_limit+0x1004>
    473a: c8           	iny
    473b: b1 02        	lda	($2),y                  ; 0x2002 <__heap_default_limit+0x1002>
    473d: 7a           	ply
    473e: e5 17        	sbc	$17                     ; 0x2017 <next_line+0x2>
    4740: 85 05        	sta	$5                      ; 0x2005 <__heap_default_limit+0x1005>
    4742: a9 da        	lda	#$da
    4744: 18           	clc
    4745: 65 04        	adc	$4                      ; 0x2004 <__heap_default_limit+0x1004>
    4747: 85 04        	sta	$4                      ; 0x2004 <__heap_default_limit+0x1004>
    4749: a9 7b        	lda	#$7b
    474b: 65 05        	adc	$5                      ; 0x2005 <__heap_default_limit+0x1005>
    474d: 85 05        	sta	$5                      ; 0x2005 <__heap_default_limit+0x1005>
    474f: 4c 62 32     	jmp	$3262 <donehypclosefile3+0x66b>
    4752: 20 f8 56     	jsr	$56f8 <clrhome>
    4755: a2 f1        	ldx	#$f1
    4757: 86 04        	stx	$4                      ; 0x2004 <__heap_default_limit+0x1004>
    4759: a2 72        	ldx	#$72
    475b: 86 05        	stx	$5                      ; 0x2005 <__heap_default_limit+0x1005>
    475d: 20 56 57     	jsr	$5756 <msprintf>
    4760: a9 80        	lda	#$80
    4762: a2 84        	ldx	#$84
    4764: a0 1e        	ldy	#$1e
    4766: 84 04        	sty	$4                      ; 0x2004 <__heap_default_limit+0x1004>
    4768: 64 05        	stz	$5                      ; 0x2005 <__heap_default_limit+0x1005>
    476a: 20 d9 6a     	jsr	$6ad9 <usleep>
    476d: a2 00        	ldx	#$0
    476f: a9 7e        	lda	#$7e
    4771: 8d 40 d6     	sta	$d640                   ; 0xd640 <__heap_start+0x5626>
    4774: b8           	clv
    4775: 8a           	txa
    4776: 85 12        	sta	$12                     ; 0x2012 <__heap_default_limit+0x1012>
    4778: a8           	tay
    4779: b1 02        	lda	($2),y                  ; 0x2002 <__heap_default_limit+0x1002>
    477b: 85 21        	sta	$21                     ; 0x2021 <_start>
    477d: c8           	iny
    477e: b1 02        	lda	($2),y                  ; 0x2002 <__heap_default_limit+0x1002>
    4780: 85 20        	sta	$20                     ; 0x2020 <next_line+0xb>
    4782: c8           	iny
    4783: b1 02        	lda	($2),y                  ; 0x2002 <__heap_default_limit+0x1002>
    4785: 85 1f        	sta	$1f                     ; 0x201f <next_line+0xa>
    4787: c8           	iny
    4788: b1 02        	lda	($2),y                  ; 0x2002 <__heap_default_limit+0x1002>
    478a: 85 1e        	sta	$1e                     ; 0x201e <next_line+0x9>
    478c: c8           	iny
    478d: b1 02        	lda	($2),y                  ; 0x2002 <__heap_default_limit+0x1002>
    478f: 85 1d        	sta	$1d                     ; 0x201d <next_line+0x8>
    4791: c8           	iny
    4792: b1 02        	lda	($2),y                  ; 0x2002 <__heap_default_limit+0x1002>
    4794: 85 1c        	sta	$1c                     ; 0x201c <next_line+0x7>
    4796: c8           	iny
    4797: b1 02        	lda	($2),y                  ; 0x2002 <__heap_default_limit+0x1002>
    4799: 85 1b        	sta	$1b                     ; 0x201b <next_line+0x6>
    479b: c8           	iny
    479c: b1 02        	lda	($2),y                  ; 0x2002 <__heap_default_limit+0x1002>
    479e: 85 1a        	sta	$1a                     ; 0x201a <next_line+0x5>
    47a0: 7a           	ply
    47a1: 84 19        	sty	$19                     ; 0x2019 <next_line+0x4>
    47a3: 7a           	ply
    47a4: 84 18        	sty	$18                     ; 0x2018 <next_line+0x3>
    47a6: 7a           	ply
    47a7: 84 17        	sty	$17                     ; 0x2017 <next_line+0x2>
    47a9: 7a           	ply
    47aa: 84 16        	sty	$16                     ; 0x2016 <next_line+0x1>
    47ac: 18           	clc
    47ad: a5 02        	lda	$2                      ; 0x2002 <__heap_default_limit+0x1002>
    47af: 69 29        	adc	#$29
    47b1: 85 02        	sta	$2                      ; 0x2002 <__heap_default_limit+0x1002>
    47b3: a5 03        	lda	$3                      ; 0x2003 <__heap_default_limit+0x1003>
    47b5: 69 00        	adc	#$0
    47b7: 85 03        	sta	$3                      ; 0x2003 <__heap_default_limit+0x1003>
    47b9: a5 12        	lda	$12                     ; 0x2012 <__heap_default_limit+0x1012>
    47bb: 60           	rts
    47bc: c9 09        	cmp	#$9
    47be: f0 03        	beq	$47c3 <donehypchdir9+0xfc>
    47c0: 4c 8b 45     	jmp	$458b <donehyprmfile5+0x1da>
    47c3: 4c bc 40     	jmp	$40bc <donehypfindfirst4+0x56d>
    47c6: a2 46        	ldx	#$46
    47c8: 86 04        	stx	$4                      ; 0x2004 <__heap_default_limit+0x1004>
    47ca: a2 72        	ldx	#$72
    47cc: 86 05        	stx	$5                      ; 0x2005 <__heap_default_limit+0x1005>
    47ce: a2 c5        	ldx	#$c5
    47d0: 86 06        	stx	$6                      ; 0x2006 <__heap_default_limit+0x1006>
    47d2: a2 74        	ldx	#$74
    47d4: 86 07        	stx	$7                      ; 0x2007 <__heap_default_limit+0x1007>
    47d6: a6 18        	ldx	$18                     ; 0x2018 <next_line+0x3>
    47d8: 86 08        	stx	$8                      ; 0x2008 <__heap_default_limit+0x1008>
    47da: a6 19        	ldx	$19                     ; 0x2019 <next_line+0x4>
    47dc: 86 09        	stx	$9                      ; 0x2009 <__heap_default_limit+0x1009>
    47de: 64 0a        	stz	$a                      ; 0x200a <__heap_default_limit+0x100a>
    47e0: 64 0b        	stz	$b                      ; 0x200b <__heap_default_limit+0x100b>
    47e2: 64 0c        	stz	$c                      ; 0x200c <__heap_default_limit+0x100c>
    47e4: a2 00        	ldx	#$0
    47e6: 8a           	txa
    47e7: 20 05 59     	jsr	$5905 <messagebox>
    47ea: a0 18        	ldy	#$18
    47ec: b1 02        	lda	($2),y                  ; 0x2002 <__heap_default_limit+0x1002>
    47ee: 85 16        	sta	$16                     ; 0x2016 <next_line+0x1>
    47f0: 4c 34 2f     	jmp	$2f34 <donehypclosefile3+0x33d>
    47f3: b2 1a        	lda	($1a),z                 ; 0x201a <next_line+0x5>
    47f5: 48           	pha
    47f6: a0 18        	ldy	#$18
    47f8: b1 02        	lda	($2),y                  ; 0x2002 <__heap_default_limit+0x1002>
    47fa: 85 16        	sta	$16                     ; 0x2016 <next_line+0x1>
    47fc: 68           	pla
    47fd: a6 16        	ldx	$16                     ; 0x2016 <next_line+0x1>
    47ff: 20 84 5f     	jsr	$5f84 <UpdateSectors>
    4802: a5 16        	lda	$16                     ; 0x2016 <next_line+0x1>
    4804: 20 e8 65     	jsr	$65e8 <Deselect>
    4807: 4c 34 2f     	jmp	$2f34 <donehypclosefile3+0x33d>
    480a: a0 03        	ldy	#$3
    480c: b1 16        	lda	($16),y                 ; 0x2016 <next_line+0x1>
    480e: a0 47        	ldy	#$47
    4810: 4c 44 46     	jmp	$4644 <donehypd81dosattach7+0xf>
    4813: a0 0e        	ldy	#$e
    4815: a9 00        	lda	#$0
    4817: 5a           	phy
    4818: a0 15        	ldy	#$15
    481a: 91 02        	sta	($2),y                  ; 0x2002 <__heap_default_limit+0x1002>
    481c: 7a           	ply
    481d: 98           	tya
    481e: a0 1b        	ldy	#$1b
    4820: 91 02        	sta	($2),y                  ; 0x2002 <__heap_default_limit+0x1002>
    4822: a0 00        	ldy	#$0
    4824: 8a           	txa
    4825: 5a           	phy
    4826: 4c 2b 47     	jmp	$472b <donehypchdir9+0x64>
    4829: a6 20        	ldx	$20                     ; 0x2020 <next_line+0xb>
    482b: e0 15        	cpx	#$15
    482d: f0 03        	beq	$4832 <donehypchdir9+0x16b>
    482f: 4c 94 45     	jmp	$4594 <donehyprmfile5+0x1e3>
    4832: 4c af 2c     	jmp	$2caf <donehypclosefile3+0xb8>
    4835: 64 04        	stz	$4                      ; 0x2004 <__heap_default_limit+0x1004>
    4837: a9 00        	lda	#$0
    4839: 4c 53 46     	jmp	$4653 <donehypd81dosattach7+0x1e>
    483c: a2 01        	ldx	#$1
    483e: 8a           	txa
    483f: 4c 53 46     	jmp	$4653 <donehypd81dosattach7+0x1e>
    4842: a2 cc        	ldx	#$cc
    4844: 86 04        	stx	$4                      ; 0x2004 <__heap_default_limit+0x1004>
    4846: a2 72        	ldx	#$72
    4848: 86 05        	stx	$5                      ; 0x2005 <__heap_default_limit+0x1005>
    484a: a2 b4        	ldx	#$b4
    484c: 86 06        	stx	$6                      ; 0x2006 <__heap_default_limit+0x1006>
    484e: a2 7a        	ldx	#$7a
    4850: 86 07        	stx	$7                      ; 0x2007 <__heap_default_limit+0x1007>
    4852: a6 16        	ldx	$16                     ; 0x2016 <next_line+0x1>
    4854: 86 08        	stx	$8                      ; 0x2008 <__heap_default_limit+0x1008>
    4856: a6 17        	ldx	$17                     ; 0x2017 <next_line+0x2>
    4858: 4c d4 39     	jmp	$39d4 <donehypclosefile3+0xddd>
    485b: a9 01        	lda	#$1
    485d: a0 46        	ldy	#$46
    485f: 11 18        	ora	($18),y                 ; 0x2018 <next_line+0x3>
    4861: 4c 44 46     	jmp	$4644 <donehypd81dosattach7+0xf>
    4864: a5 16        	lda	$16                     ; 0x2016 <next_line+0x1>
    4866: 18           	clc
    4867: 69 05        	adc	#$5
    4869: 85 08        	sta	$8                      ; 0x2008 <__heap_default_limit+0x1008>
    486b: a5 17        	lda	$17                     ; 0x2017 <next_line+0x2>
    486d: 69 00        	adc	#$0
    486f: 85 09        	sta	$9                      ; 0x2009 <__heap_default_limit+0x1009>
    4871: a2 20        	ldx	#$20
    4873: 86 04        	stx	$4                      ; 0x2004 <__heap_default_limit+0x1004>
    4875: a2 7a        	ldx	#$7a
    4877: 86 05        	stx	$5                      ; 0x2005 <__heap_default_limit+0x1005>
    4879: a2 c5        	ldx	#$c5
    487b: 86 06        	stx	$6                      ; 0x2006 <__heap_default_limit+0x1006>
    487d: a2 74        	ldx	#$74
    487f: 86 07        	stx	$7                      ; 0x2007 <__heap_default_limit+0x1007>
    4881: 4c d6 39     	jmp	$39d6 <donehypclosefile3+0xddf>
    4884: a6 20        	ldx	$20                     ; 0x2020 <next_line+0xb>
    4886: e0 94        	cpx	#$94
    4888: d0 03        	bne	$488d <donehypchdir9+0x1c6>
    488a: 4c 9d 3a     	jmp	$3a9d <donehypclosefile3+0xea6>
    488d: a6 1d        	ldx	$1d                     ; 0x201d <next_line+0x8>
    488f: a5 20        	lda	$20                     ; 0x2020 <next_line+0xb>
    4891: e0 02        	cpx	#$2
    4893: d0 07        	bne	$489c <donehypchdir9+0x1d5>
    4895: c9 9d        	cmp	#$9d
    4897: d0 03        	bne	$489c <donehypchdir9+0x1d5>
    4899: 4c be 44     	jmp	$44be <donehyprmfile5+0x10d>
    489c: a6 1d        	ldx	$1d                     ; 0x201d <next_line+0x8>
    489e: 48           	pha
    489f: 5a           	phy
    48a0: a0 18        	ldy	#$18
    48a2: b1 02        	lda	($2),y                  ; 0x2002 <__heap_default_limit+0x1002>
    48a4: 7a           	ply
    48a5: 85 16        	sta	$16                     ; 0x2016 <next_line+0x1>
    48a7: 68           	pla
    48a8: e0 04        	cpx	#$4
    48aa: d0 29        	bne	$48d5 <donehypchdir9+0x20e>
    48ac: c9 12        	cmp	#$12
    48ae: d0 25        	bne	$48d5 <donehypchdir9+0x20e>
    48b0: a9 27        	lda	#$27
    48b2: 18           	clc
    48b3: 65 1c        	adc	$1c                     ; 0x201c <next_line+0x7>
    48b5: 85 04        	sta	$4                      ; 0x2004 <__heap_default_limit+0x1004>
    48b7: a9 00        	lda	#$0
    48b9: 65 08        	adc	$8                      ; 0x2008 <__heap_default_limit+0x1008>
    48bb: 85 05        	sta	$5                      ; 0x2005 <__heap_default_limit+0x1005>
    48bd: b2 04        	lda	($4),z                  ; 0x2004 <__heap_default_limit+0x1004>
    48bf: 85 06        	sta	$6                      ; 0x2006 <__heap_default_limit+0x1006>
    48c1: b1 04        	lda	($4),y                  ; 0x2004 <__heap_default_limit+0x1004>
    48c3: 85 07        	sta	$7                      ; 0x2007 <__heap_default_limit+0x1007>
    48c5: a9 01        	lda	#$1
    48c7: a0 46        	ldy	#$46
    48c9: 11 06        	ora	($6),y                  ; 0x2006 <__heap_default_limit+0x1006>
    48cb: 91 06        	sta	($6),y                  ; 0x2006 <__heap_default_limit+0x1006>
    48cd: a9 28        	lda	#$28
    48cf: c8           	iny
    48d0: 91 06        	sta	($6),y                  ; 0x2006 <__heap_default_limit+0x1006>
    48d2: 4c 81 3a     	jmp	$3a81 <donehypclosefile3+0xe8a>
    48d5: a6 1d        	ldx	$1d                     ; 0x201d <next_line+0x8>
    48d7: e0 02        	cpx	#$2
    48d9: f0 03        	beq	$48de <donehypchdir9+0x217>
    48db: 4c af 2c     	jmp	$2caf <donehypclosefile3+0xb8>
    48de: a6 20        	ldx	$20                     ; 0x2020 <next_line+0xb>
    48e0: e0 91        	cpx	#$91
    48e2: d0 03        	bne	$48e7 <donehypchdir9+0x220>
    48e4: 4c 6c 44     	jmp	$446c <donehyprmfile5+0xbb>
    48e7: 4c af 2c     	jmp	$2caf <donehypclosefile3+0xb8>
    48ea: a0 01        	ldy	#$1
    48ec: 64 1c        	stz	$1c                     ; 0x201c <next_line+0x7>
    48ee: 64 1d        	stz	$1d                     ; 0x201d <next_line+0x8>
    48f0: 4c 9a 2e     	jmp	$2e9a <donehypclosefile3+0x2a3>

000048f3 <hyppo_setname>:
    48f3: a6 04        	ldx	$4                      ; 0x2004 <__heap_default_limit+0x1004>
    48f5: 86 06        	stx	$6                      ; 0x2006 <__heap_default_limit+0x1006>
    48f7: a6 05        	ldx	$5                      ; 0x2005 <__heap_default_limit+0x1005>
    48f9: 86 07        	stx	$7                      ; 0x2007 <__heap_default_limit+0x1007>
    48fb: a2 1c        	ldx	#$1c
    48fd: a0 00        	ldy	#$0
    48ff: 84 04        	sty	$4                      ; 0x2004 <__heap_default_limit+0x1004>
    4901: a0 1c        	ldy	#$1c
    4903: 84 05        	sty	$5                      ; 0x2005 <__heap_default_limit+0x1005>
    4905: 86 2c        	stx	$2c                     ; 0x202c <_start+0xb>
    4907: 20 3a 6b     	jsr	$6b3a <strcpy>
    490a: a4 2c        	ldy	$2c                     ; 0x202c <_start+0xb>
    490c: a2 00        	ldx	#$0
    490e: a9 2e        	lda	#$2e
    4910: 8d 40 d6     	sta	$d640                   ; 0xd640 <__heap_start+0x5626>
    4913: b8           	clv
    4914: 90 07        	bcc	$491d <errhypsetnam10>
    4916: a9 00        	lda	#$0
    4918: 85 04        	sta	$4                      ; 0x2004 <__heap_default_limit+0x1004>
    491a: 4c 21 49     	jmp	$4921 <donehypsetnam10>

0000491d <errhypsetnam10>:
    491d: a9 ff        	lda	#$ff
    491f: 85 04        	sta	$4                      ; 0x2004 <__heap_default_limit+0x1004>

00004921 <donehypsetnam10>:
    4921: ea           	nop
    4922: 60           	rts

00004923 <getsfn>:
    4923: a2 00        	ldx	#$0
    4925: a0 00        	ldy	#$0
    4927: 80 0e        	bra	$4937 <getsfn+0x14>
    4929: c9 21        	cmp	#$21
    492b: 90 09        	bcc	$4936 <getsfn+0x13>
    492d: 84 04        	sty	$4                      ; 0x2004 <__heap_default_limit+0x1004>
    492f: e6 04        	inc	$4                      ; 0x2004 <__heap_default_limit+0x1004>
    4931: 99 41 1c     	sta	$1c41,y                 ; 0x1c41 <__heap_default_limit+0xc41>
    4934: a4 04        	ldy	$4                      ; 0x2004 <__heap_default_limit+0x1004>
    4936: e8           	inx
    4937: e0 08        	cpx	#$8
    4939: f0 07        	beq	$4942 <getsfn+0x1f>
    493b: bd 41 1b     	lda	$1b41,x                 ; 0x1b41 <__heap_default_limit+0xb41>
    493e: c9 20        	cmp	#$20
    4940: d0 e7        	bne	$4929 <getsfn+0x6>
    4942: 64 05        	stz	$5                      ; 0x2005 <__heap_default_limit+0x1005>
    4944: a9 2e        	lda	#$2e
    4946: 99 41 1c     	sta	$1c41,y                 ; 0x1c41 <__heap_default_limit+0xc41>
    4949: 98           	tya
    494a: 1a           	inc
    494b: a2 00        	ldx	#$0
    494d: 85 04        	sta	$4                      ; 0x2004 <__heap_default_limit+0x1004>
    494f: 80 10        	bra	$4961 <getsfn+0x3e>
    4951: c9 21        	cmp	#$21
    4953: 90 0b        	bcc	$4960 <getsfn+0x3d>
    4955: 84 06        	sty	$6                      ; 0x2006 <__heap_default_limit+0x1006>
    4957: a4 04        	ldy	$4                      ; 0x2004 <__heap_default_limit+0x1004>
    4959: 99 41 1c     	sta	$1c41,y                 ; 0x1c41 <__heap_default_limit+0xc41>
    495c: a4 06        	ldy	$6                      ; 0x2006 <__heap_default_limit+0x1006>
    495e: e6 04        	inc	$4                      ; 0x2004 <__heap_default_limit+0x1004>
    4960: e8           	inx
    4961: e0 03        	cpx	#$3
    4963: f0 07        	beq	$496c <getsfn+0x49>
    4965: bd 49 1b     	lda	$1b49,x                 ; 0x1b49 <__heap_default_limit+0xb49>
    4968: c9 20        	cmp	#$20
    496a: d0 e5        	bne	$4951 <getsfn+0x2e>
    496c: 98           	tya
    496d: 1a           	inc
    496e: d0 02        	bne	$4972 <getsfn+0x4f>
    4970: e6 05        	inc	$5                      ; 0x2005 <__heap_default_limit+0x1005>
    4972: a6 05        	ldx	$5                      ; 0x2005 <__heap_default_limit+0x1005>
    4974: d0 0a        	bne	$4980 <getsfn+0x5d>
    4976: a6 04        	ldx	$4                      ; 0x2004 <__heap_default_limit+0x1004>
    4978: c5 04        	cmp	$4                      ; 0x2004 <__heap_default_limit+0x1004>
    497a: d0 06        	bne	$4982 <getsfn+0x5f>
    497c: 5a           	phy
    497d: fa           	plx
    497e: 80 02        	bra	$4982 <getsfn+0x5f>
    4980: a6 04        	ldx	$4                      ; 0x2004 <__heap_default_limit+0x1004>
    4982: 9e 41 1c     	stz	$1c41,x                 ; 0x1c41 <__heap_default_limit+0xc41>
    4985: 60           	rts

00004986 <ShowAccess>:
    4986: a8           	tay
    4987: a5 05        	lda	$5                      ; 0x2005 <__heap_default_limit+0x1005>
    4989: c9 02        	cmp	#$2
    498b: f0 03        	beq	$4990 <ShowAccess+0xa>
    498d: 4c 37 4a     	jmp	$4a37 <ShowAccess+0xb1>
    4990: a9 f0        	lda	#$f0
    4992: 25 2b        	and	$2b                     ; 0x202b <_start+0xa>
    4994: 09 03        	ora	#$3
    4996: 85 2b        	sta	$2b                     ; 0x202b <_start+0xa>
    4998: a5 31        	lda	$31                     ; 0x2031 <__do_init_stack+0x2>
    499a: a2 16        	ldx	#$16
    499c: 64 05        	stz	$5                      ; 0x2005 <__heap_default_limit+0x1005>
    499e: 86 04        	stx	$4                      ; 0x2004 <__heap_default_limit+0x1004>
    49a0: a2 00        	ldx	#$0
    49a2: 20 d2 6b     	jsr	$6bd2 <__mulhi3>
    49a5: 18           	clc
    49a6: 69 1a        	adc	#$1a
    49a8: a8           	tay
    49a9: 85 5e        	sta	$5e                     ; 0x205e <lpstore+0x4>
    49ab: 8a           	txa
    49ac: 69 00        	adc	#$0
    49ae: 85 5d        	sta	$5d                     ; 0x205d <lpstore+0x3>
    49b0: ad 63 d0     	lda	$d063                   ; 0xd063 <__heap_start+0x5049>
    49b3: 29 07        	and	#$7
    49b5: 85 09        	sta	$9                      ; 0x2009 <__heap_default_limit+0x1009>
    49b7: ae 62 d0     	ldx	$d062                   ; 0xd062 <__heap_start+0x5048>
    49ba: 86 08        	stx	$8                      ; 0x2008 <__heap_default_limit+0x1008>
    49bc: ae 61 d0     	ldx	$d061                   ; 0xd061 <__heap_start+0x5047>
    49bf: 86 04        	stx	$4                      ; 0x2004 <__heap_default_limit+0x1004>
    49c1: ae 60 d0     	ldx	$d060                   ; 0xd060 <__heap_start+0x5046>
    49c4: 86 05        	stx	$5                      ; 0x2005 <__heap_default_limit+0x1005>
    49c6: 18           	clc
    49c7: 98           	tya
    49c8: 69 00        	adc	#$0
    49ca: 85 07        	sta	$7                      ; 0x2007 <__heap_default_limit+0x1007>
    49cc: a6 5d        	ldx	$5d                     ; 0x205d <lpstore+0x3>
    49ce: 8a           	txa
    49cf: 65 04        	adc	$4                      ; 0x2004 <__heap_default_limit+0x1004>
    49d1: aa           	tax
    49d2: a5 08        	lda	$8                      ; 0x2008 <__heap_default_limit+0x1008>
    49d4: 69 00        	adc	#$0
    49d6: 85 04        	sta	$4                      ; 0x2004 <__heap_default_limit+0x1004>
    49d8: a5 09        	lda	$9                      ; 0x2009 <__heap_default_limit+0x1009>
    49da: 69 00        	adc	#$0
    49dc: 85 06        	sta	$6                      ; 0x2006 <__heap_default_limit+0x1006>
    49de: a5 07        	lda	$7                      ; 0x2007 <__heap_default_limit+0x1007>
    49e0: 18           	clc
    49e1: 65 05        	adc	$5                      ; 0x2005 <__heap_default_limit+0x1005>
    49e3: a8           	tay
    49e4: 8a           	txa
    49e5: 69 00        	adc	#$0
    49e7: 85 09        	sta	$9                      ; 0x2009 <__heap_default_limit+0x1009>
    49e9: a5 04        	lda	$4                      ; 0x2004 <__heap_default_limit+0x1004>
    49eb: 69 00        	adc	#$0
    49ed: 85 04        	sta	$4                      ; 0x2004 <__heap_default_limit+0x1004>
    49ef: a5 06        	lda	$6                      ; 0x2006 <__heap_default_limit+0x1006>
    49f1: 69 00        	adc	#$0
    49f3: a2 20        	ldx	#$20
    49f5: 85 05        	sta	$5                      ; 0x2005 <__heap_default_limit+0x1005>
    49f7: 86 06        	stx	$6                      ; 0x2006 <__heap_default_limit+0x1006>
    49f9: a2 0c        	ldx	#$c
    49fb: 86 07        	stx	$7                      ; 0x2007 <__heap_default_limit+0x1007>
    49fd: 64 08        	stz	$8                      ; 0x2008 <__heap_default_limit+0x1008>
    49ff: a6 09        	ldx	$9                      ; 0x2009 <__heap_default_limit+0x1009>
    4a01: 98           	tya
    4a02: 20 89 6a     	jsr	$6a89 <lfill>
    4a05: a6 2b        	ldx	$2b                     ; 0x202b <_start+0xa>
    4a07: a0 f8        	ldy	#$f8
    4a09: a9 0f        	lda	#$f
    4a0b: 84 04        	sty	$4                      ; 0x2004 <__heap_default_limit+0x1004>
    4a0d: 85 05        	sta	$5                      ; 0x2005 <__heap_default_limit+0x1005>
    4a0f: 86 06        	stx	$6                      ; 0x2006 <__heap_default_limit+0x1006>
    4a11: a2 0c        	ldx	#$c
    4a13: 86 07        	stx	$7                      ; 0x2007 <__heap_default_limit+0x1007>
    4a15: 64 08        	stz	$8                      ; 0x2008 <__heap_default_limit+0x1008>
    4a17: a6 5d        	ldx	$5d                     ; 0x205d <lpstore+0x3>
    4a19: a5 5e        	lda	$5e                     ; 0x205e <lpstore+0x4>
    4a1b: 20 89 6a     	jsr	$6a89 <lfill>
    4a1e: a6 31        	ldx	$31                     ; 0x2031 <__do_init_stack+0x2>
    4a20: a0 5c        	ldy	#$5c
    4a22: a9 00        	lda	#$0
    4a24: 84 04        	sty	$4                      ; 0x2004 <__heap_default_limit+0x1004>
    4a26: 85 05        	sta	$5                      ; 0x2005 <__heap_default_limit+0x1005>
    4a28: a9 26        	lda	#$26
    4a2a: 20 0a 6d     	jsr	$6d0a <__udivmodqi4>
    4a2d: a6 5c        	ldx	$5c                     ; 0x205c <lpstore+0x2>
    4a2f: 18           	clc
    4a30: 69 16        	adc	#$16
    4a32: 85 34        	sta	$34                     ; 0x2034 <__do_init_stack+0x5>
    4a34: 86 33        	stx	$33                     ; 0x2033 <__do_init_stack+0x4>
    4a36: 60           	rts
    4a37: 85 5d        	sta	$5d                     ; 0x205d <lpstore+0x3>
    4a39: a9 04        	lda	#$4
    4a3b: 25 30        	and	$30                     ; 0x2030 <__do_init_stack+0x1>
    4a3d: d0 03        	bne	$4a42 <ShowAccess+0xbc>
    4a3f: 4c eb 4a     	jmp	$4aeb <ShowAccess+0x165>
    4a42: a5 2b        	lda	$2b                     ; 0x202b <_start+0xa>
    4a44: c0 00        	cpy	#$0
    4a46: f0 0c        	beq	$4a54 <ShowAccess+0xce>
    4a48: 84 60        	sty	$60                     ; 0x2060 <lpstore+0x6>
    4a4a: 86 5f        	stx	$5f                     ; 0x205f <lpstore+0x5>
    4a4c: a6 04        	ldx	$4                      ; 0x2004 <__heap_default_limit+0x1004>
    4a4e: 86 5e        	stx	$5e                     ; 0x205e <lpstore+0x4>
    4a50: a2 0d        	ldx	#$d
    4a52: 80 0a        	bra	$4a5e <ShowAccess+0xd8>
    4a54: 84 60        	sty	$60                     ; 0x2060 <lpstore+0x6>
    4a56: 86 5f        	stx	$5f                     ; 0x205f <lpstore+0x5>
    4a58: a6 04        	ldx	$4                      ; 0x2004 <__heap_default_limit+0x1004>
    4a5a: 86 5e        	stx	$5e                     ; 0x205e <lpstore+0x4>
    4a5c: a2 0f        	ldx	#$f
    4a5e: 86 04        	stx	$4                      ; 0x2004 <__heap_default_limit+0x1004>
    4a60: 29 d0        	and	#$d0
    4a62: 05 04        	ora	$4                      ; 0x2004 <__heap_default_limit+0x1004>
    4a64: 09 20        	ora	#$20
    4a66: 85 2b        	sta	$2b                     ; 0x202b <_start+0xa>
    4a68: a9 1a        	lda	#$1a
    4a6a: a2 16        	ldx	#$16
    4a6c: a0 b7        	ldy	#$b7
    4a6e: 84 04        	sty	$4                      ; 0x2004 <__heap_default_limit+0x1004>
    4a70: a0 72        	ldy	#$72
    4a72: 84 05        	sty	$5                      ; 0x2005 <__heap_default_limit+0x1005>
    4a74: 20 64 57     	jsr	$5764 <mcputsxy>
    4a77: a2 01        	ldx	#$1
    4a79: 64 04        	stz	$4                      ; 0x2004 <__heap_default_limit+0x1004>
    4a7b: 64 05        	stz	$5                      ; 0x2005 <__heap_default_limit+0x1005>
    4a7d: 86 06        	stx	$6                      ; 0x2006 <__heap_default_limit+0x1006>
    4a7f: ca           	dex
    4a80: a5 60        	lda	$60                     ; 0x2060 <lpstore+0x6>
    4a82: 20 e1 55     	jsr	$55e1 <csputdec>
    4a85: a9 f0        	lda	#$f0
    4a87: 25 2b        	and	$2b                     ; 0x202b <_start+0xa>
    4a89: 09 08        	ora	#$8
    4a8b: 85 2b        	sta	$2b                     ; 0x202b <_start+0xa>
    4a8d: a9 54        	lda	#$54
    4a8f: 20 bc 67     	jsr	$67bc <cputc>
    4a92: a2 02        	ldx	#$2
    4a94: 64 04        	stz	$4                      ; 0x2004 <__heap_default_limit+0x1004>
    4a96: 64 05        	stz	$5                      ; 0x2005 <__heap_default_limit+0x1005>
    4a98: 86 06        	stx	$6                      ; 0x2006 <__heap_default_limit+0x1006>
    4a9a: a2 00        	ldx	#$0
    4a9c: a5 5f        	lda	$5f                     ; 0x205f <lpstore+0x5>
    4a9e: 20 e1 55     	jsr	$55e1 <csputdec>
    4aa1: a9 f0        	lda	#$f0
    4aa3: 25 2b        	and	$2b                     ; 0x202b <_start+0xa>
    4aa5: 09 0e        	ora	#$e
    4aa7: 85 2b        	sta	$2b                     ; 0x202b <_start+0xa>
    4aa9: a9 53        	lda	#$53
    4aab: 20 bc 67     	jsr	$67bc <cputc>
    4aae: 64 04        	stz	$4                      ; 0x2004 <__heap_default_limit+0x1004>
    4ab0: 64 05        	stz	$5                      ; 0x2005 <__heap_default_limit+0x1005>
    4ab2: a2 02        	ldx	#$2
    4ab4: 86 06        	stx	$6                      ; 0x2006 <__heap_default_limit+0x1006>
    4ab6: a2 00        	ldx	#$0
    4ab8: a5 5e        	lda	$5e                     ; 0x205e <lpstore+0x4>
    4aba: 20 e1 55     	jsr	$55e1 <csputdec>
    4abd: a9 20        	lda	#$20
    4abf: 20 bc 67     	jsr	$67bc <cputc>
    4ac2: a9 f0        	lda	#$f0
    4ac4: 25 2b        	and	$2b                     ; 0x202b <_start+0xa>
    4ac6: a0 57        	ldy	#$57
    4ac8: a2 02        	ldx	#$2
    4aca: 86 04        	stx	$4                      ; 0x2004 <__heap_default_limit+0x1004>
    4acc: a6 5d        	ldx	$5d                     ; 0x205d <lpstore+0x3>
    4ace: e0 01        	cpx	#$1
    4ad0: f0 06        	beq	$4ad8 <ShowAccess+0x152>
    4ad2: a0 52        	ldy	#$52
    4ad4: a2 08        	ldx	#$8
    4ad6: 86 04        	stx	$4                      ; 0x2004 <__heap_default_limit+0x1004>
    4ad8: 05 04        	ora	$4                      ; 0x2004 <__heap_default_limit+0x1004>
    4ada: 85 2b        	sta	$2b                     ; 0x202b <_start+0xa>
    4adc: 98           	tya
    4add: 20 bc 67     	jsr	$67bc <cputc>
    4ae0: a9 20        	lda	#$20
    4ae2: 20 bc 67     	jsr	$67bc <cputc>
    4ae5: a9 df        	lda	#$df
    4ae7: 25 2b        	and	$2b                     ; 0x202b <_start+0xa>
    4ae9: 85 2b        	sta	$2b                     ; 0x202b <_start+0xa>
    4aeb: 60           	rts

00004aec <ReadSector>:
    4aec: 86 57        	stx	$57                     ; 0x2057 <fourbytes+0x1>
    4aee: 64 05        	stz	$5                      ; 0x2005 <__heap_default_limit+0x1005>
    4af0: a4 04        	ldy	$4                      ; 0x2004 <__heap_default_limit+0x1004>
    4af2: 84 59        	sty	$59                     ; 0x2059 <fourbytes+0x3>
    4af4: 85 58        	sta	$58                     ; 0x2058 <fourbytes+0x2>
    4af6: 20 86 49     	jsr	$4986 <ShowAccess>
    4af9: a5 57        	lda	$57                     ; 0x2057 <fourbytes+0x1>
    4afb: f0 17        	beq	$4b14 <ReadSector+0x28>
    4afd: a4 57        	ldy	$57                     ; 0x2057 <fourbytes+0x1>
    4aff: a6 59        	ldx	$59                     ; 0x2059 <fourbytes+0x3>
    4b01: e0 14        	cpx	#$14
    4b03: a2 01        	ldx	#$1
    4b05: b0 02        	bcs	$4b09 <ReadSector+0x1d>
    4b07: a2 00        	ldx	#$0
    4b09: 86 5a        	stx	$5a                     ; 0x205a <lpstore>
    4b0b: a5 58        	lda	$58                     ; 0x2058 <fourbytes+0x2>
    4b0d: b0 08        	bcs	$4b17 <ReadSector+0x2b>
    4b0f: 18           	clc
    4b10: 69 28        	adc	#$28
    4b12: 80 06        	bra	$4b1a <ReadSector+0x2e>
    4b14: a9 fc        	lda	#$fc
    4b16: 60           	rts
    4b17: 18           	clc
    4b18: 69 20        	adc	#$20
    4b1a: a6 2d        	ldx	$2d                     ; 0x202d <_start+0xc>
    4b1c: 5a           	phy
    4b1d: a4 59        	ldy	$59                     ; 0x2059 <fourbytes+0x3>
    4b1f: 84 04        	sty	$4                      ; 0x2004 <__heap_default_limit+0x1004>
    4b21: 46 04        	lsr	$4                      ; 0x2004 <__heap_default_limit+0x1004>
    4b23: a4 04        	ldy	$4                      ; 0x2004 <__heap_default_limit+0x1004>
    4b25: 84 58        	sty	$58                     ; 0x2058 <fourbytes+0x2>
    4b27: 7a           	ply
    4b28: 85 04        	sta	$4                      ; 0x2004 <__heap_default_limit+0x1004>
    4b2a: e4 04        	cpx	$4                      ; 0x2004 <__heap_default_limit+0x1004>
    4b2c: d0 11        	bne	$4b3f <ReadSector+0x53>
    4b2e: a6 2e        	ldx	$2e                     ; 0x202e <_start+0xd>
    4b30: 84 04        	sty	$4                      ; 0x2004 <__heap_default_limit+0x1004>
    4b32: e4 04        	cpx	$4                      ; 0x2004 <__heap_default_limit+0x1004>
    4b34: d0 09        	bne	$4b3f <ReadSector+0x53>
    4b36: a6 58        	ldx	$58                     ; 0x2058 <fourbytes+0x2>
    4b38: e4 2f        	cpx	$2f                     ; 0x202f <__do_init_stack>
    4b3a: d0 03        	bne	$4b3f <ReadSector+0x53>
    4b3c: 4c a4 4b     	jmp	$4ba4 <ReadSector+0xb8>
    4b3f: 85 5b        	sta	$5b                     ; 0x205b <lpstore+0x1>
    4b41: 8d 80 d0     	sta	$d080                   ; 0xd080 <__heap_start+0x5066>
    4b44: a2 20        	ldx	#$20
    4b46: 8e 81 d0     	stx	$d081                   ; 0xd081 <__heap_start+0x5067>
    4b49: ae 82 d0     	ldx	$d082                   ; 0xd082 <__heap_start+0x5068>
    4b4c: 30 fb        	bmi	$4b49 <ReadSector+0x5d>
    4b4e: a6 57        	ldx	$57                     ; 0x2057 <fourbytes+0x1>
    4b50: ca           	dex
    4b51: 8e 84 d0     	stx	$d084                   ; 0xd084 <__heap_start+0x506a>
    4b54: a2 14        	ldx	#$14
    4b56: a5 59        	lda	$59                     ; 0x2059 <fourbytes+0x3>
    4b58: 20 c5 6c     	jsr	$6cc5 <__umodqi3>
    4b5b: 4a           	lsr
    4b5c: 1a           	inc
    4b5d: 8d 85 d0     	sta	$d085                   ; 0xd085 <__heap_start+0x506b>
    4b60: a6 5a        	ldx	$5a                     ; 0x205a <lpstore>
    4b62: f0 04        	beq	$4b68 <ReadSector+0x7c>
    4b64: a2 01        	ldx	#$1
    4b66: 80 02        	bra	$4b6a <ReadSector+0x7e>
    4b68: a2 00        	ldx	#$0
    4b6a: 8e 86 d0     	stx	$d086                   ; 0xd086 <__heap_start+0x506c>
    4b6d: a2 41        	ldx	#$41
    4b6f: 8e 81 d0     	stx	$d081                   ; 0xd081 <__heap_start+0x5067>
    4b72: a4 57        	ldy	$57                     ; 0x2057 <fourbytes+0x1>
    4b74: ae 82 d0     	ldx	$d082                   ; 0xd082 <__heap_start+0x5068>
    4b77: 30 fb        	bmi	$4b74 <ReadSector+0x88>
    4b79: ad 82 d0     	lda	$d082                   ; 0xd082 <__heap_start+0x5068>
    4b7c: 29 18        	and	#$18
    4b7e: f0 12        	beq	$4b92 <ReadSector+0xa6>
    4b80: a2 40        	ldx	#$40
    4b82: 8e 80 d0     	stx	$d080                   ; 0xd080 <__heap_start+0x5066>
    4b85: a2 02        	ldx	#$2
    4b87: 8e 20 d0     	stx	$d020                   ; 0xd020 <__heap_start+0x5006>
    4b8a: 64 2e        	stz	$2e                     ; 0x202e <_start+0xd>
    4b8c: ae 82 d0     	ldx	$d082                   ; 0xd082 <__heap_start+0x5068>
    4b8f: a9 ff        	lda	#$ff
    4b91: 60           	rts
    4b92: ad 89 d6     	lda	$d689                   ; 0xd689 <__heap_start+0x566f>
    4b95: 29 7f        	and	#$7f
    4b97: 8d 89 d6     	sta	$d689                   ; 0xd689 <__heap_start+0x566f>
    4b9a: a5 5b        	lda	$5b                     ; 0x205b <lpstore+0x1>
    4b9c: 85 2d        	sta	$2d                     ; 0x202d <_start+0xc>
    4b9e: 84 2e        	sty	$2e                     ; 0x202e <_start+0xd>
    4ba0: a6 58        	ldx	$58                     ; 0x2058 <fourbytes+0x2>
    4ba2: 86 2f        	stx	$2f                     ; 0x202f <__do_init_stack>
    4ba4: a6 59        	ldx	$59                     ; 0x2059 <fourbytes+0x3>
    4ba6: 86 04        	stx	$4                      ; 0x2004 <__heap_default_limit+0x1004>
    4ba8: 85 06        	sta	$6                      ; 0x2006 <__heap_default_limit+0x1006>
    4baa: a5 59        	lda	$59                     ; 0x2059 <fourbytes+0x3>
    4bac: 29 01        	and	#$1
    4bae: 85 57        	sta	$57                     ; 0x2057 <fourbytes+0x1>
    4bb0: a2 02        	ldx	#$2
    4bb2: 86 05        	stx	$5                      ; 0x2005 <__heap_default_limit+0x1005>
    4bb4: 5a           	phy
    4bb5: fa           	plx
    4bb6: a5 06        	lda	$6                      ; 0x2006 <__heap_default_limit+0x1006>
    4bb8: 20 86 49     	jsr	$4986 <ShowAccess>
    4bbb: a5 57        	lda	$57                     ; 0x2057 <fourbytes+0x1>
    4bbd: 60           	rts

00004bbe <WriteSector>:
    4bbe: 86 51        	stx	$51                     ; 0x2051 <_fini+0x6>
    4bc0: a2 01        	ldx	#$1
    4bc2: a4 04        	ldy	$4                      ; 0x2004 <__heap_default_limit+0x1004>
    4bc4: 84 53        	sty	$53                     ; 0x2053 <_fini+0x8>
    4bc6: 86 05        	stx	$5                      ; 0x2005 <__heap_default_limit+0x1005>
    4bc8: a6 51        	ldx	$51                     ; 0x2051 <_fini+0x6>
    4bca: 85 52        	sta	$52                     ; 0x2052 <_fini+0x7>
    4bcc: 20 86 49     	jsr	$4986 <ShowAccess>
    4bcf: 64 2e        	stz	$2e                     ; 0x202e <_start+0xd>
    4bd1: a5 51        	lda	$51                     ; 0x2051 <_fini+0x6>
    4bd3: d0 03        	bne	$4bd8 <WriteSector+0x1a>
    4bd5: 4c 5c 4c     	jmp	$4c5c <WriteSector+0x9e>
    4bd8: a4 53        	ldy	$53                     ; 0x2053 <_fini+0x8>
    4bda: c0 14        	cpy	#$14
    4bdc: a2 01        	ldx	#$1
    4bde: b0 02        	bcs	$4be2 <WriteSector+0x24>
    4be0: a2 00        	ldx	#$0
    4be2: 86 54        	stx	$54                     ; 0x2054 <_fini+0x9>
    4be4: a5 52        	lda	$52                     ; 0x2052 <_fini+0x7>
    4be6: b0 05        	bcs	$4bed <WriteSector+0x2f>
    4be8: 18           	clc
    4be9: 69 28        	adc	#$28
    4beb: 80 03        	bra	$4bf0 <WriteSector+0x32>
    4bed: 18           	clc
    4bee: 69 20        	adc	#$20
    4bf0: 85 55        	sta	$55                     ; 0x2055 <_fini+0xa>
    4bf2: 8d 80 d0     	sta	$d080                   ; 0xd080 <__heap_start+0x5066>
    4bf5: a2 20        	ldx	#$20
    4bf7: 8e 81 d0     	stx	$d081                   ; 0xd081 <__heap_start+0x5067>
    4bfa: ae 82 d0     	ldx	$d082                   ; 0xd082 <__heap_start+0x5068>
    4bfd: 30 fb        	bmi	$4bfa <WriteSector+0x3c>
    4bff: a6 51        	ldx	$51                     ; 0x2051 <_fini+0x6>
    4c01: ca           	dex
    4c02: 8e 84 d0     	stx	$d084                   ; 0xd084 <__heap_start+0x506a>
    4c05: a2 14        	ldx	#$14
    4c07: 84 52        	sty	$52                     ; 0x2052 <_fini+0x7>
    4c09: 98           	tya
    4c0a: 20 c5 6c     	jsr	$6cc5 <__umodqi3>
    4c0d: 4a           	lsr
    4c0e: 1a           	inc
    4c0f: 8d 85 d0     	sta	$d085                   ; 0xd085 <__heap_start+0x506b>
    4c12: a6 54        	ldx	$54                     ; 0x2054 <_fini+0x9>
    4c14: f0 04        	beq	$4c1a <WriteSector+0x5c>
    4c16: a2 01        	ldx	#$1
    4c18: 80 02        	bra	$4c1c <WriteSector+0x5e>
    4c1a: a2 00        	ldx	#$0
    4c1c: 8e 86 d0     	stx	$d086                   ; 0xd086 <__heap_start+0x506c>
    4c1f: a2 84        	ldx	#$84
    4c21: 8e 81 d0     	stx	$d081                   ; 0xd081 <__heap_start+0x5067>
    4c24: a6 52        	ldx	$52                     ; 0x2052 <_fini+0x7>
    4c26: 86 04        	stx	$4                      ; 0x2004 <__heap_default_limit+0x1004>
    4c28: ae 82 d0     	ldx	$d082                   ; 0xd082 <__heap_start+0x5068>
    4c2b: 30 fb        	bmi	$4c28 <WriteSector+0x6a>
    4c2d: ad 83 d0     	lda	$d083                   ; 0xd083 <__heap_start+0x5069>
    4c30: 29 10        	and	#$10
    4c32: d0 f4        	bne	$4c28 <WriteSector+0x6a>
    4c34: ad 82 d0     	lda	$d082                   ; 0xd082 <__heap_start+0x5068>
    4c37: 29 18        	and	#$18
    4c39: f0 0e        	beq	$4c49 <WriteSector+0x8b>
    4c3b: a2 40        	ldx	#$40
    4c3d: 8e 80 d0     	stx	$d080                   ; 0xd080 <__heap_start+0x5066>
    4c40: a2 02        	ldx	#$2
    4c42: 8e 20 d0     	stx	$d020                   ; 0xd020 <__heap_start+0x5006>
    4c45: ae 82 d0     	ldx	$d082                   ; 0xd082 <__heap_start+0x5068>
    4c48: 60           	rts
    4c49: ad 89 d6     	lda	$d689                   ; 0xd689 <__heap_start+0x566f>
    4c4c: 29 7f        	and	#$7f
    4c4e: 8d 89 d6     	sta	$d689                   ; 0xd689 <__heap_start+0x566f>
    4c51: a2 02        	ldx	#$2
    4c53: 86 05        	stx	$5                      ; 0x2005 <__heap_default_limit+0x1005>
    4c55: a6 51        	ldx	$51                     ; 0x2051 <_fini+0x6>
    4c57: a5 55        	lda	$55                     ; 0x2055 <_fini+0xa>
    4c59: 20 86 49     	jsr	$4986 <ShowAccess>
    4c5c: 60           	rts

00004c5d <GetOneSector>:
    4c5d: a4 06        	ldy	$6                      ; 0x2006 <__heap_default_limit+0x1006>
    4c5f: 48           	pha
    4c60: a5 04        	lda	$4                      ; 0x2004 <__heap_default_limit+0x1004>
    4c62: 85 54        	sta	$54                     ; 0x2054 <_fini+0x9>
    4c64: a5 05        	lda	$5                      ; 0x2005 <__heap_default_limit+0x1005>
    4c66: 85 55        	sta	$55                     ; 0x2055 <_fini+0xa>
    4c68: 68           	pla
    4c69: 84 04        	sty	$4                      ; 0x2004 <__heap_default_limit+0x1004>
    4c6b: 20 ec 4a     	jsr	$4aec <ReadSector>
    4c6e: c9 02        	cmp	#$2
    4c70: b0 2d        	bcs	$4c9f <GetOneSector+0x42>
    4c72: a0 fd        	ldy	#$fd
    4c74: aa           	tax
    4c75: f0 06        	beq	$4c7d <GetOneSector+0x20>
    4c77: 85 56        	sta	$56                     ; 0x2056 <fourbytes>
    4c79: a2 6d        	ldx	#$6d
    4c7b: 80 04        	bra	$4c81 <GetOneSector+0x24>
    4c7d: 85 56        	sta	$56                     ; 0x2056 <fourbytes>
    4c7f: a2 6c        	ldx	#$6c
    4c81: a9 01        	lda	#$1
    4c83: 84 04        	sty	$4                      ; 0x2004 <__heap_default_limit+0x1004>
    4c85: a0 0f        	ldy	#$f
    4c87: 84 05        	sty	$5                      ; 0x2005 <__heap_default_limit+0x1005>
    4c89: a4 54        	ldy	$54                     ; 0x2054 <_fini+0x9>
    4c8b: 84 06        	sty	$6                      ; 0x2006 <__heap_default_limit+0x1006>
    4c8d: a4 55        	ldy	$55                     ; 0x2055 <_fini+0xa>
    4c8f: 84 07        	sty	$7                      ; 0x2007 <__heap_default_limit+0x1007>
    4c91: 64 08        	stz	$8                      ; 0x2008 <__heap_default_limit+0x1008>
    4c93: 64 09        	stz	$9                      ; 0x2009 <__heap_default_limit+0x1009>
    4c95: 64 0a        	stz	$a                      ; 0x200a <__heap_default_limit+0x100a>
    4c97: 85 0b        	sta	$b                      ; 0x200b <__heap_default_limit+0x100b>
    4c99: 3a           	dec
    4c9a: 20 22 6a     	jsr	$6a22 <lcopy>
    4c9d: a5 56        	lda	$56                     ; 0x2056 <fourbytes>
    4c9f: 60           	rts

00004ca0 <PutWholeSector>:
    4ca0: 85 49        	sta	$49                     ; 0x2049 <__after_main+0x1>
    4ca2: 86 4a        	stx	$4a                     ; 0x204a <__after_main+0x2>
    4ca4: a4 04        	ldy	$4                      ; 0x2004 <__heap_default_limit+0x1004>
    4ca6: 84 0c        	sty	$c                      ; 0x200c <__heap_default_limit+0x100c>
    4ca8: a4 05        	ldy	$5                      ; 0x2005 <__heap_default_limit+0x1005>
    4caa: 84 0d        	sty	$d                      ; 0x200d <__heap_default_limit+0x100d>
    4cac: a4 06        	ldy	$6                      ; 0x2006 <__heap_default_limit+0x1006>
    4cae: 84 4b        	sty	$4b                     ; 0x204b <_fini>
    4cb0: a5 06        	lda	$6                      ; 0x2006 <__heap_default_limit+0x1006>
    4cb2: 29 01        	and	#$1
    4cb4: 29 01        	and	#$1
    4cb6: d0 1f        	bne	$4cd7 <PutWholeSector+0x37>
    4cb8: a0 6c        	ldy	#$6c
    4cba: a9 fd        	lda	#$fd
    4cbc: a2 0f        	ldx	#$f
    4cbe: 64 04        	stz	$4                      ; 0x2004 <__heap_default_limit+0x1004>
    4cc0: 64 05        	stz	$5                      ; 0x2005 <__heap_default_limit+0x1005>
    4cc2: 64 06        	stz	$6                      ; 0x2006 <__heap_default_limit+0x1006>
    4cc4: 84 07        	sty	$7                      ; 0x2007 <__heap_default_limit+0x1007>
    4cc6: 85 08        	sta	$8                      ; 0x2008 <__heap_default_limit+0x1008>
    4cc8: 86 09        	stx	$9                      ; 0x2009 <__heap_default_limit+0x1009>
    4cca: 64 0a        	stz	$a                      ; 0x200a <__heap_default_limit+0x100a>
    4ccc: a2 02        	ldx	#$2
    4cce: 86 0b        	stx	$b                      ; 0x200b <__heap_default_limit+0x100b>
    4cd0: a6 0d        	ldx	$d                      ; 0x200d <__heap_default_limit+0x100d>
    4cd2: a5 0c        	lda	$c                      ; 0x200c <__heap_default_limit+0x100c>
    4cd4: 4c 14 4d     	jmp	$4d14 <PutWholeSector+0x74>
    4cd7: a4 06        	ldy	$6                      ; 0x2006 <__heap_default_limit+0x1006>
    4cd9: 84 04        	sty	$4                      ; 0x2004 <__heap_default_limit+0x1004>
    4cdb: a5 49        	lda	$49                     ; 0x2049 <__after_main+0x1>
    4cdd: a4 49        	ldy	$49                     ; 0x2049 <__after_main+0x1>
    4cdf: 84 4c        	sty	$4c                     ; 0x204c <_fini+0x1>
    4ce1: a4 4a        	ldy	$4a                     ; 0x204a <__after_main+0x2>
    4ce3: 84 4d        	sty	$4d                     ; 0x204d <_fini+0x2>
    4ce5: a4 0c        	ldy	$c                      ; 0x200c <__heap_default_limit+0x100c>
    4ce7: 84 49        	sty	$49                     ; 0x2049 <__after_main+0x1>
    4ce9: a4 0d        	ldy	$d                      ; 0x200d <__heap_default_limit+0x100d>
    4ceb: 84 4a        	sty	$4a                     ; 0x204a <__after_main+0x2>
    4ced: 20 ec 4a     	jsr	$4aec <ReadSector>
    4cf0: a0 6d        	ldy	#$6d
    4cf2: a9 fd        	lda	#$fd
    4cf4: a2 0f        	ldx	#$f
    4cf6: 64 04        	stz	$4                      ; 0x2004 <__heap_default_limit+0x1004>
    4cf8: 64 05        	stz	$5                      ; 0x2005 <__heap_default_limit+0x1005>
    4cfa: 64 06        	stz	$6                      ; 0x2006 <__heap_default_limit+0x1006>
    4cfc: 84 07        	sty	$7                      ; 0x2007 <__heap_default_limit+0x1007>
    4cfe: 85 08        	sta	$8                      ; 0x2008 <__heap_default_limit+0x1008>
    4d00: 86 09        	stx	$9                      ; 0x2009 <__heap_default_limit+0x1009>
    4d02: 64 0a        	stz	$a                      ; 0x200a <__heap_default_limit+0x100a>
    4d04: a2 01        	ldx	#$1
    4d06: 86 0b        	stx	$b                      ; 0x200b <__heap_default_limit+0x100b>
    4d08: a6 4a        	ldx	$4a                     ; 0x204a <__after_main+0x2>
    4d0a: a5 49        	lda	$49                     ; 0x2049 <__after_main+0x1>
    4d0c: a4 4d        	ldy	$4d                     ; 0x204d <_fini+0x2>
    4d0e: 84 4a        	sty	$4a                     ; 0x204a <__after_main+0x2>
    4d10: a4 4c        	ldy	$4c                     ; 0x204c <_fini+0x1>
    4d12: 84 49        	sty	$49                     ; 0x2049 <__after_main+0x1>
    4d14: 20 22 6a     	jsr	$6a22 <lcopy>
    4d17: a5 4b        	lda	$4b                     ; 0x204b <_fini>
    4d19: 29 fe        	and	#$fe
    4d1b: 85 04        	sta	$4                      ; 0x2004 <__heap_default_limit+0x1004>
    4d1d: a6 4a        	ldx	$4a                     ; 0x204a <__after_main+0x2>
    4d1f: a5 49        	lda	$49                     ; 0x2049 <__after_main+0x1>
    4d21: 4c be 4b     	jmp	$4bbe <WriteSector>

00004d24 <PutOneSector>:
    4d24: 85 4b        	sta	$4b                     ; 0x204b <_fini>
    4d26: 86 4c        	stx	$4c                     ; 0x204c <_fini+0x1>
    4d28: a6 06        	ldx	$6                      ; 0x2006 <__heap_default_limit+0x1006>
    4d2a: a4 04        	ldy	$4                      ; 0x2004 <__heap_default_limit+0x1004>
    4d2c: 84 4d        	sty	$4d                     ; 0x204d <_fini+0x2>
    4d2e: a4 05        	ldy	$5                      ; 0x2005 <__heap_default_limit+0x1005>
    4d30: 84 4e        	sty	$4e                     ; 0x204e <_fini+0x3>
    4d32: a5 06        	lda	$6                      ; 0x2006 <__heap_default_limit+0x1006>
    4d34: 29 01        	and	#$1
    4d36: 85 4f        	sta	$4f                     ; 0x204f <_fini+0x4>
    4d38: 86 50        	stx	$50                     ; 0x2050 <_fini+0x5>
    4d3a: 86 04        	stx	$4                      ; 0x2004 <__heap_default_limit+0x1004>
    4d3c: a6 4c        	ldx	$4c                     ; 0x204c <_fini+0x1>
    4d3e: a5 4b        	lda	$4b                     ; 0x204b <_fini>
    4d40: 20 ec 4a     	jsr	$4aec <ReadSector>
    4d43: 64 06        	stz	$6                      ; 0x2006 <__heap_default_limit+0x1006>
    4d45: a9 6c        	lda	#$6c
    4d47: a0 fd        	ldy	#$fd
    4d49: a6 4f        	ldx	$4f                     ; 0x204f <_fini+0x4>
    4d4b: f0 02        	beq	$4d4f <PutOneSector+0x2b>
    4d4d: a9 6d        	lda	#$6d
    4d4f: a2 01        	ldx	#$1
    4d51: 64 04        	stz	$4                      ; 0x2004 <__heap_default_limit+0x1004>
    4d53: 64 05        	stz	$5                      ; 0x2005 <__heap_default_limit+0x1005>
    4d55: 85 07        	sta	$7                      ; 0x2007 <__heap_default_limit+0x1007>
    4d57: 84 08        	sty	$8                      ; 0x2008 <__heap_default_limit+0x1008>
    4d59: a0 0f        	ldy	#$f
    4d5b: 84 09        	sty	$9                      ; 0x2009 <__heap_default_limit+0x1009>
    4d5d: 64 0a        	stz	$a                      ; 0x200a <__heap_default_limit+0x100a>
    4d5f: 86 0b        	stx	$b                      ; 0x200b <__heap_default_limit+0x100b>
    4d61: a6 4e        	ldx	$4e                     ; 0x204e <_fini+0x3>
    4d63: a5 4d        	lda	$4d                     ; 0x204d <_fini+0x2>
    4d65: 20 22 6a     	jsr	$6a22 <lcopy>
    4d68: a5 50        	lda	$50                     ; 0x2050 <_fini+0x5>
    4d6a: 29 fe        	and	#$fe
    4d6c: 85 04        	sta	$4                      ; 0x2004 <__heap_default_limit+0x1004>
    4d6e: a6 4c        	ldx	$4c                     ; 0x204c <_fini+0x1>
    4d70: a5 4b        	lda	$4b                     ; 0x204b <_fini>
    4d72: 4c be 4b     	jmp	$4bbe <WriteSector>

00004d75 <GetBAM>:
    4d75: 0a           	asl
    4d76: aa           	tax
    4d77: a9 00        	lda	#$0
    4d79: 2a           	rol
    4d7a: a8           	tay
    4d7b: a9 00        	lda	#$0
    4d7d: 2a           	rol
    4d7e: 85 04        	sta	$4                      ; 0x2004 <__heap_default_limit+0x1004>
    4d80: 8a           	txa
    4d81: 18           	clc
    4d82: 69 38        	adc	#$38
    4d84: 85 0c        	sta	$c                      ; 0x200c <__heap_default_limit+0x100c>
    4d86: 98           	tya
    4d87: 69 00        	adc	#$0
    4d89: 85 06        	sta	$6                      ; 0x2006 <__heap_default_limit+0x1006>
    4d8b: a5 04        	lda	$4                      ; 0x2004 <__heap_default_limit+0x1004>
    4d8d: 69 08        	adc	#$8
    4d8f: a2 17        	ldx	#$17
    4d91: a0 02        	ldy	#$2
    4d93: 48           	pha
    4d94: a5 06        	lda	$6                      ; 0x2006 <__heap_default_limit+0x1006>
    4d96: 85 04        	sta	$4                      ; 0x2004 <__heap_default_limit+0x1004>
    4d98: 68           	pla
    4d99: 85 05        	sta	$5                      ; 0x2005 <__heap_default_limit+0x1005>
    4d9b: 64 06        	stz	$6                      ; 0x2006 <__heap_default_limit+0x1006>
    4d9d: 86 07        	stx	$7                      ; 0x2007 <__heap_default_limit+0x1007>
    4d9f: 64 08        	stz	$8                      ; 0x2008 <__heap_default_limit+0x1008>
    4da1: 64 09        	stz	$9                      ; 0x2009 <__heap_default_limit+0x1009>
    4da3: 64 0a        	stz	$a                      ; 0x200a <__heap_default_limit+0x100a>
    4da5: 84 0b        	sty	$b                      ; 0x200b <__heap_default_limit+0x100b>
    4da7: a6 0c        	ldx	$c                      ; 0x200c <__heap_default_limit+0x100c>
    4da9: a9 00        	lda	#$0
    4dab: 4c 22 6a     	jmp	$6a22 <lcopy>

00004dae <PutBAM>:
    4dae: 85 4a        	sta	$4a                     ; 0x204a <__after_main+0x2>
    4db0: 86 49        	stx	$49                     ; 0x2049 <__after_main+0x1>
    4db2: a6 04        	ldx	$4                      ; 0x2004 <__heap_default_limit+0x1004>
    4db4: a0 00        	ldy	#$0
    4db6: 84 04        	sty	$4                      ; 0x2004 <__heap_default_limit+0x1004>
    4db8: a0 17        	ldy	#$17
    4dba: 84 05        	sty	$5                      ; 0x2005 <__heap_default_limit+0x1005>
    4dbc: a0 01        	ldy	#$1
    4dbe: 84 06        	sty	$6                      ; 0x2006 <__heap_default_limit+0x1006>
    4dc0: 20 24 4d     	jsr	$4d24 <PutOneSector>
    4dc3: ae 00 17     	ldx	$1700                   ; 0x1700 <__heap_default_limit+0x700>
    4dc6: ac 01 17     	ldy	$1701                   ; 0x1701 <__heap_default_limit+0x701>
    4dc9: a9 00        	lda	#$0
    4dcb: 85 04        	sta	$4                      ; 0x2004 <__heap_default_limit+0x1004>
    4dcd: a9 18        	lda	#$18
    4dcf: 85 05        	sta	$5                      ; 0x2005 <__heap_default_limit+0x1005>
    4dd1: 84 06        	sty	$6                      ; 0x2006 <__heap_default_limit+0x1006>
    4dd3: a5 4a        	lda	$4a                     ; 0x204a <__after_main+0x2>
    4dd5: 20 24 4d     	jsr	$4d24 <PutOneSector>
    4dd8: a6 49        	ldx	$49                     ; 0x2049 <__after_main+0x1>
    4dda: 86 04        	stx	$4                      ; 0x2004 <__heap_default_limit+0x1004>
    4ddc: 06 04        	asl	$4                      ; 0x2004 <__heap_default_limit+0x1004>
    4dde: a9 00        	lda	#$0
    4de0: 2a           	rol
    4de1: aa           	tax
    4de2: a9 00        	lda	#$0
    4de4: 2a           	rol
    4de5: a8           	tay
    4de6: a5 04        	lda	$4                      ; 0x2004 <__heap_default_limit+0x1004>
    4de8: 18           	clc
    4de9: 69 38        	adc	#$38
    4deb: 85 07        	sta	$7                      ; 0x2007 <__heap_default_limit+0x1007>
    4ded: 8a           	txa
    4dee: 69 00        	adc	#$0
    4df0: 85 08        	sta	$8                      ; 0x2008 <__heap_default_limit+0x1008>
    4df2: 98           	tya
    4df3: 69 08        	adc	#$8
    4df5: a2 02        	ldx	#$2
    4df7: 64 04        	stz	$4                      ; 0x2004 <__heap_default_limit+0x1004>
    4df9: 64 05        	stz	$5                      ; 0x2005 <__heap_default_limit+0x1005>
    4dfb: 64 06        	stz	$6                      ; 0x2006 <__heap_default_limit+0x1006>
    4dfd: 85 09        	sta	$9                      ; 0x2009 <__heap_default_limit+0x1009>
    4dff: 64 0a        	stz	$a                      ; 0x200a <__heap_default_limit+0x100a>
    4e01: 86 0b        	stx	$b                      ; 0x200b <__heap_default_limit+0x100b>
    4e03: a2 17        	ldx	#$17
    4e05: a9 00        	lda	#$0
    4e07: 4c 22 6a     	jmp	$6a22 <lcopy>

00004e0a <readblockchain>:
    4e0a: 85 4e        	sta	$4e                     ; 0x204e <_fini+0x3>
    4e0c: 86 4f        	stx	$4f                     ; 0x204f <_fini+0x4>
    4e0e: a6 04        	ldx	$4                      ; 0x2004 <__heap_default_limit+0x1004>
    4e10: 86 49        	stx	$49                     ; 0x2049 <__after_main+0x1>
    4e12: a6 05        	ldx	$5                      ; 0x2005 <__heap_default_limit+0x1005>
    4e14: 86 4a        	stx	$4a                     ; 0x204a <__after_main+0x2>
    4e16: a6 06        	ldx	$6                      ; 0x2006 <__heap_default_limit+0x1006>
    4e18: 86 4b        	stx	$4b                     ; 0x204b <_fini>
    4e1a: a6 07        	ldx	$7                      ; 0x2007 <__heap_default_limit+0x1007>
    4e1c: 86 4c        	stx	$4c                     ; 0x204c <_fini+0x1>
    4e1e: a6 08        	ldx	$8                      ; 0x2008 <__heap_default_limit+0x1008>
    4e20: 86 4d        	stx	$4d                     ; 0x204d <_fini+0x2>
    4e22: a6 09        	ldx	$9                      ; 0x2009 <__heap_default_limit+0x1009>
    4e24: a4 0a        	ldy	$a                      ; 0x200a <__heap_default_limit+0x100a>
    4e26: 84 52        	sty	$52                     ; 0x2052 <_fini+0x7>
    4e28: 64 50        	stz	$50                     ; 0x2050 <_fini+0x5>
    4e2a: a9 00        	lda	#$0
    4e2c: c5 4c        	cmp	$4c                     ; 0x204c <_fini+0x1>
    4e2e: d0 09        	bne	$4e39 <readblockchain+0x2f>
    4e30: a4 50        	ldy	$50                     ; 0x2050 <_fini+0x5>
    4e32: c4 4b        	cpy	$4b                     ; 0x204b <_fini>
    4e34: d0 03        	bne	$4e39 <readblockchain+0x2f>
    4e36: 4c 97 4e     	jmp	$4e97 <readblockchain+0x8d>
    4e39: 85 51        	sta	$51                     ; 0x2051 <_fini+0x6>
    4e3b: a0 00        	ldy	#$0
    4e3d: 84 04        	sty	$4                      ; 0x2004 <__heap_default_limit+0x1004>
    4e3f: a0 19        	ldy	#$19
    4e41: 84 05        	sty	$5                      ; 0x2005 <__heap_default_limit+0x1005>
    4e43: a4 52        	ldy	$52                     ; 0x2052 <_fini+0x7>
    4e45: 84 06        	sty	$6                      ; 0x2006 <__heap_default_limit+0x1006>
    4e47: a5 4d        	lda	$4d                     ; 0x204d <_fini+0x2>
    4e49: 20 5d 4c     	jsr	$4c5d <GetOneSector>
    4e4c: c9 02        	cmp	#$2
    4e4e: 90 03        	bcc	$4e53 <readblockchain+0x49>
    4e50: 4c a1 4e     	jmp	$4ea1 <readblockchain+0x97>
    4e53: ae 00 19     	ldx	$1900                   ; 0x1900 <__heap_default_limit+0x900>
    4e56: 86 53        	stx	$53                     ; 0x2053 <_fini+0x8>
    4e58: a9 00        	lda	#$0
    4e5a: 18           	clc
    4e5b: 65 4e        	adc	$4e                     ; 0x204e <_fini+0x3>
    4e5d: 85 06        	sta	$6                      ; 0x2006 <__heap_default_limit+0x1006>
    4e5f: a5 50        	lda	$50                     ; 0x2050 <_fini+0x5>
    4e61: 65 4f        	adc	$4f                     ; 0x204f <_fini+0x4>
    4e63: 85 07        	sta	$7                      ; 0x2007 <__heap_default_limit+0x1007>
    4e65: a5 51        	lda	$51                     ; 0x2051 <_fini+0x6>
    4e67: 65 49        	adc	$49                     ; 0x2049 <__after_main+0x1>
    4e69: 85 08        	sta	$8                      ; 0x2008 <__heap_default_limit+0x1008>
    4e6b: a9 00        	lda	#$0
    4e6d: 65 4a        	adc	$4a                     ; 0x204a <__after_main+0x2>
    4e6f: ae 01 19     	ldx	$1901                   ; 0x1901 <__heap_default_limit+0x901>
    4e72: 86 52        	stx	$52                     ; 0x2052 <_fini+0x7>
    4e74: 64 04        	stz	$4                      ; 0x2004 <__heap_default_limit+0x1004>
    4e76: 64 05        	stz	$5                      ; 0x2005 <__heap_default_limit+0x1005>
    4e78: 85 09        	sta	$9                      ; 0x2009 <__heap_default_limit+0x1009>
    4e7a: 64 0a        	stz	$a                      ; 0x200a <__heap_default_limit+0x100a>
    4e7c: a2 01        	ldx	#$1
    4e7e: 86 0b        	stx	$b                      ; 0x200b <__heap_default_limit+0x100b>
    4e80: a2 19        	ldx	#$19
    4e82: a9 00        	lda	#$0
    4e84: 20 22 6a     	jsr	$6a22 <lcopy>
    4e87: a5 51        	lda	$51                     ; 0x2051 <_fini+0x6>
    4e89: a6 53        	ldx	$53                     ; 0x2053 <_fini+0x8>
    4e8b: e6 50        	inc	$50                     ; 0x2050 <_fini+0x5>
    4e8d: d0 01        	bne	$4e90 <readblockchain+0x86>
    4e8f: 1a           	inc
    4e90: a4 53        	ldy	$53                     ; 0x2053 <_fini+0x8>
    4e92: f0 0a        	beq	$4e9e <readblockchain+0x94>
    4e94: 4c 2c 4e     	jmp	$4e2c <readblockchain+0x22>
    4e97: a9 fe        	lda	#$fe
    4e99: e0 00        	cpx	#$0
    4e9b: f0 01        	beq	$4e9e <readblockchain+0x94>
    4e9d: 60           	rts
    4e9e: a9 00        	lda	#$0
    4ea0: 60           	rts
    4ea1: a9 ff        	lda	#$ff
    4ea3: 60           	rts

00004ea4 <BAMSectorUpdate>:
    4ea4: a8           	tay
    4ea5: c9 29        	cmp	#$29
    4ea7: 90 0e        	bcc	$4eb7 <BAMSectorUpdate+0x13>
    4ea9: a4 06        	ldy	$6                      ; 0x2006 <__heap_default_limit+0x1006>
    4eab: 84 55        	sty	$55                     ; 0x2055 <_fini+0xa>
    4ead: a4 07        	ldy	$7                      ; 0x2007 <__heap_default_limit+0x1007>
    4eaf: 84 56        	sty	$56                     ; 0x2056 <fourbytes>
    4eb1: 18           	clc
    4eb2: 69 d8        	adc	#$d8
    4eb4: a8           	tay
    4eb5: 80 08        	bra	$4ebf <BAMSectorUpdate+0x1b>
    4eb7: a5 04        	lda	$4                      ; 0x2004 <__heap_default_limit+0x1004>
    4eb9: 85 55        	sta	$55                     ; 0x2055 <_fini+0xa>
    4ebb: a5 05        	lda	$5                      ; 0x2005 <__heap_default_limit+0x1005>
    4ebd: 85 56        	sta	$56                     ; 0x2056 <fourbytes>
    4ebf: 88           	dey
    4ec0: 84 05        	sty	$5                      ; 0x2005 <__heap_default_limit+0x1005>
    4ec2: a5 08        	lda	$8                      ; 0x2008 <__heap_default_limit+0x1008>
    4ec4: d0 03        	bne	$4ec9 <BAMSectorUpdate+0x25>
    4ec6: 4c 0d 4f     	jmp	$4f0d <BAMSectorUpdate+0x69>
    4ec9: da           	phx
    4eca: 7a           	ply
    4ecb: e0 08        	cpx	#$8
    4ecd: 90 03        	bcc	$4ed2 <BAMSectorUpdate+0x2e>
    4ecf: 4c 60 4f     	jmp	$4f60 <BAMSectorUpdate+0xbc>
    4ed2: a2 00        	ldx	#$0
    4ed4: 86 5b        	stx	$5b                     ; 0x205b <lpstore+0x1>
    4ed6: a5 05        	lda	$5                      ; 0x2005 <__heap_default_limit+0x1005>
    4ed8: 85 59        	sta	$59                     ; 0x2059 <fourbytes+0x3>
    4eda: 0a           	asl
    4edb: 85 04        	sta	$4                      ; 0x2004 <__heap_default_limit+0x1004>
    4edd: 8a           	txa
    4ede: 2a           	rol
    4edf: 85 05        	sta	$5                      ; 0x2005 <__heap_default_limit+0x1005>
    4ee1: a5 04        	lda	$4                      ; 0x2004 <__heap_default_limit+0x1004>
    4ee3: 0a           	asl
    4ee4: aa           	tax
    4ee5: a5 05        	lda	$5                      ; 0x2005 <__heap_default_limit+0x1005>
    4ee7: 2a           	rol
    4ee8: 85 06        	sta	$6                      ; 0x2006 <__heap_default_limit+0x1006>
    4eea: 18           	clc
    4eeb: 8a           	txa
    4eec: 65 04        	adc	$4                      ; 0x2004 <__heap_default_limit+0x1004>
    4eee: 85 04        	sta	$4                      ; 0x2004 <__heap_default_limit+0x1004>
    4ef0: a5 06        	lda	$6                      ; 0x2006 <__heap_default_limit+0x1006>
    4ef2: 65 05        	adc	$5                      ; 0x2005 <__heap_default_limit+0x1005>
    4ef4: 85 05        	sta	$5                      ; 0x2005 <__heap_default_limit+0x1005>
    4ef6: 18           	clc
    4ef7: a5 04        	lda	$4                      ; 0x2004 <__heap_default_limit+0x1004>
    4ef9: 65 55        	adc	$55                     ; 0x2055 <_fini+0xa>
    4efb: 85 04        	sta	$4                      ; 0x2004 <__heap_default_limit+0x1004>
    4efd: a5 05        	lda	$5                      ; 0x2005 <__heap_default_limit+0x1005>
    4eff: 65 56        	adc	$56                     ; 0x2056 <fourbytes>
    4f01: aa           	tax
    4f02: 18           	clc
    4f03: a5 04        	lda	$4                      ; 0x2004 <__heap_default_limit+0x1004>
    4f05: 69 11        	adc	#$11
    4f07: 85 57        	sta	$57                     ; 0x2057 <fourbytes+0x1>
    4f09: 8a           	txa
    4f0a: 4c 14 51     	jmp	$5114 <BAMSectorUpdate+0x270>
    4f0d: da           	phx
    4f0e: 7a           	ply
    4f0f: e0 08        	cpx	#$8
    4f11: 90 03        	bcc	$4f16 <BAMSectorUpdate+0x72>
    4f13: 4c be 4f     	jmp	$4fbe <BAMSectorUpdate+0x11a>
    4f16: 64 57        	stz	$57                     ; 0x2057 <fourbytes+0x1>
    4f18: a5 05        	lda	$5                      ; 0x2005 <__heap_default_limit+0x1005>
    4f1a: 85 59        	sta	$59                     ; 0x2059 <fourbytes+0x3>
    4f1c: 0a           	asl
    4f1d: 85 04        	sta	$4                      ; 0x2004 <__heap_default_limit+0x1004>
    4f1f: a9 00        	lda	#$0
    4f21: 2a           	rol
    4f22: 85 05        	sta	$5                      ; 0x2005 <__heap_default_limit+0x1005>
    4f24: a5 04        	lda	$4                      ; 0x2004 <__heap_default_limit+0x1004>
    4f26: 0a           	asl
    4f27: aa           	tax
    4f28: a5 05        	lda	$5                      ; 0x2005 <__heap_default_limit+0x1005>
    4f2a: 2a           	rol
    4f2b: 85 06        	sta	$6                      ; 0x2006 <__heap_default_limit+0x1006>
    4f2d: 18           	clc
    4f2e: 8a           	txa
    4f2f: 65 04        	adc	$4                      ; 0x2004 <__heap_default_limit+0x1004>
    4f31: 85 04        	sta	$4                      ; 0x2004 <__heap_default_limit+0x1004>
    4f33: a5 06        	lda	$6                      ; 0x2006 <__heap_default_limit+0x1006>
    4f35: 65 05        	adc	$5                      ; 0x2005 <__heap_default_limit+0x1005>
    4f37: 85 07        	sta	$7                      ; 0x2007 <__heap_default_limit+0x1007>
    4f39: 18           	clc
    4f3a: a5 04        	lda	$4                      ; 0x2004 <__heap_default_limit+0x1004>
    4f3c: 65 55        	adc	$55                     ; 0x2055 <_fini+0xa>
    4f3e: 85 06        	sta	$6                      ; 0x2006 <__heap_default_limit+0x1006>
    4f40: a6 55        	ldx	$55                     ; 0x2055 <_fini+0xa>
    4f42: 86 04        	stx	$4                      ; 0x2004 <__heap_default_limit+0x1004>
    4f44: a6 56        	ldx	$56                     ; 0x2056 <fourbytes>
    4f46: 86 05        	stx	$5                      ; 0x2005 <__heap_default_limit+0x1005>
    4f48: a6 04        	ldx	$4                      ; 0x2004 <__heap_default_limit+0x1004>
    4f4a: 86 5b        	stx	$5b                     ; 0x205b <lpstore+0x1>
    4f4c: a6 05        	ldx	$5                      ; 0x2005 <__heap_default_limit+0x1005>
    4f4e: 86 5c        	stx	$5c                     ; 0x205c <lpstore+0x2>
    4f50: a5 07        	lda	$7                      ; 0x2007 <__heap_default_limit+0x1007>
    4f52: 65 56        	adc	$56                     ; 0x2056 <fourbytes>
    4f54: aa           	tax
    4f55: 18           	clc
    4f56: a5 06        	lda	$6                      ; 0x2006 <__heap_default_limit+0x1006>
    4f58: 69 11        	adc	#$11
    4f5a: 85 55        	sta	$55                     ; 0x2055 <_fini+0xa>
    4f5c: 8a           	txa
    4f5d: 4c 58 51     	jmp	$5158 <BAMSectorUpdate+0x2b4>
    4f60: c0 10        	cpy	#$10
    4f62: a2 01        	ldx	#$1
    4f64: b0 02        	bcs	$4f68 <BAMSectorUpdate+0xc4>
    4f66: a2 00        	ldx	#$0
    4f68: 86 08        	stx	$8                      ; 0x2008 <__heap_default_limit+0x1008>
    4f6a: a5 55        	lda	$55                     ; 0x2055 <_fini+0xa>
    4f6c: 18           	clc
    4f6d: 69 10        	adc	#$10
    4f6f: 85 07        	sta	$7                      ; 0x2007 <__heap_default_limit+0x1007>
    4f71: a5 56        	lda	$56                     ; 0x2056 <fourbytes>
    4f73: 69 00        	adc	#$0
    4f75: 85 06        	sta	$6                      ; 0x2006 <__heap_default_limit+0x1006>
    4f77: a6 05        	ldx	$5                      ; 0x2005 <__heap_default_limit+0x1005>
    4f79: 86 59        	stx	$59                     ; 0x2059 <fourbytes+0x3>
    4f7b: 06 05        	asl	$5                      ; 0x2005 <__heap_default_limit+0x1005>
    4f7d: 64 04        	stz	$4                      ; 0x2004 <__heap_default_limit+0x1004>
    4f7f: 26 04        	rol	$4                      ; 0x2004 <__heap_default_limit+0x1004>
    4f81: a5 05        	lda	$5                      ; 0x2005 <__heap_default_limit+0x1005>
    4f83: 0a           	asl
    4f84: a6 04        	ldx	$4                      ; 0x2004 <__heap_default_limit+0x1004>
    4f86: 86 09        	stx	$9                      ; 0x2009 <__heap_default_limit+0x1009>
    4f88: 26 09        	rol	$9                      ; 0x2009 <__heap_default_limit+0x1009>
    4f8a: a6 09        	ldx	$9                      ; 0x2009 <__heap_default_limit+0x1009>
    4f8c: 86 0a        	stx	$a                      ; 0x200a <__heap_default_limit+0x100a>
    4f8e: a6 08        	ldx	$8                      ; 0x2008 <__heap_default_limit+0x1008>
    4f90: f0 03        	beq	$4f95 <BAMSectorUpdate+0xf1>
    4f92: 4c 22 50     	jmp	$5022 <BAMSectorUpdate+0x17e>
    4f95: a2 00        	ldx	#$0
    4f97: 86 5b        	stx	$5b                     ; 0x205b <lpstore+0x1>
    4f99: 18           	clc
    4f9a: aa           	tax
    4f9b: 98           	tya
    4f9c: 69 f8        	adc	#$f8
    4f9e: a8           	tay
    4f9f: 18           	clc
    4fa0: 8a           	txa
    4fa1: 65 05        	adc	$5                      ; 0x2005 <__heap_default_limit+0x1005>
    4fa3: 85 05        	sta	$5                      ; 0x2005 <__heap_default_limit+0x1005>
    4fa5: a5 09        	lda	$9                      ; 0x2009 <__heap_default_limit+0x1009>
    4fa7: 65 04        	adc	$4                      ; 0x2004 <__heap_default_limit+0x1004>
    4fa9: 85 04        	sta	$4                      ; 0x2004 <__heap_default_limit+0x1004>
    4fab: a5 07        	lda	$7                      ; 0x2007 <__heap_default_limit+0x1007>
    4fad: 18           	clc
    4fae: 65 05        	adc	$5                      ; 0x2005 <__heap_default_limit+0x1005>
    4fb0: aa           	tax
    4fb1: a5 06        	lda	$6                      ; 0x2006 <__heap_default_limit+0x1006>
    4fb3: 65 04        	adc	$4                      ; 0x2004 <__heap_default_limit+0x1004>
    4fb5: 85 04        	sta	$4                      ; 0x2004 <__heap_default_limit+0x1004>
    4fb7: 18           	clc
    4fb8: 8a           	txa
    4fb9: 69 02        	adc	#$2
    4fbb: 4c 10 51     	jmp	$5110 <BAMSectorUpdate+0x26c>
    4fbe: c0 10        	cpy	#$10
    4fc0: a2 01        	ldx	#$1
    4fc2: b0 02        	bcs	$4fc6 <BAMSectorUpdate+0x122>
    4fc4: a2 00        	ldx	#$0
    4fc6: 86 08        	stx	$8                      ; 0x2008 <__heap_default_limit+0x1008>
    4fc8: 64 57        	stz	$57                     ; 0x2057 <fourbytes+0x1>
    4fca: a5 55        	lda	$55                     ; 0x2055 <_fini+0xa>
    4fcc: 18           	clc
    4fcd: 69 10        	adc	#$10
    4fcf: 85 07        	sta	$7                      ; 0x2007 <__heap_default_limit+0x1007>
    4fd1: a5 56        	lda	$56                     ; 0x2056 <fourbytes>
    4fd3: 69 00        	adc	#$0
    4fd5: 85 06        	sta	$6                      ; 0x2006 <__heap_default_limit+0x1006>
    4fd7: a6 05        	ldx	$5                      ; 0x2005 <__heap_default_limit+0x1005>
    4fd9: 86 59        	stx	$59                     ; 0x2059 <fourbytes+0x3>
    4fdb: 06 05        	asl	$5                      ; 0x2005 <__heap_default_limit+0x1005>
    4fdd: 64 04        	stz	$4                      ; 0x2004 <__heap_default_limit+0x1004>
    4fdf: 26 04        	rol	$4                      ; 0x2004 <__heap_default_limit+0x1004>
    4fe1: a5 05        	lda	$5                      ; 0x2005 <__heap_default_limit+0x1005>
    4fe3: 0a           	asl
    4fe4: a6 04        	ldx	$4                      ; 0x2004 <__heap_default_limit+0x1004>
    4fe6: 86 09        	stx	$9                      ; 0x2009 <__heap_default_limit+0x1009>
    4fe8: 26 09        	rol	$9                      ; 0x2009 <__heap_default_limit+0x1009>
    4fea: a6 09        	ldx	$9                      ; 0x2009 <__heap_default_limit+0x1009>
    4fec: 86 0a        	stx	$a                      ; 0x200a <__heap_default_limit+0x100a>
    4fee: a6 08        	ldx	$8                      ; 0x2008 <__heap_default_limit+0x1008>
    4ff0: f0 03        	beq	$4ff5 <BAMSectorUpdate+0x151>
    4ff2: 4c 54 50     	jmp	$5054 <BAMSectorUpdate+0x1b0>
    4ff5: a6 55        	ldx	$55                     ; 0x2055 <_fini+0xa>
    4ff7: 86 5b        	stx	$5b                     ; 0x205b <lpstore+0x1>
    4ff9: a6 56        	ldx	$56                     ; 0x2056 <fourbytes>
    4ffb: 86 5c        	stx	$5c                     ; 0x205c <lpstore+0x2>
    4ffd: 18           	clc
    4ffe: aa           	tax
    4fff: 98           	tya
    5000: 69 f8        	adc	#$f8
    5002: a8           	tay
    5003: 18           	clc
    5004: 8a           	txa
    5005: 65 05        	adc	$5                      ; 0x2005 <__heap_default_limit+0x1005>
    5007: 85 05        	sta	$5                      ; 0x2005 <__heap_default_limit+0x1005>
    5009: a5 09        	lda	$9                      ; 0x2009 <__heap_default_limit+0x1009>
    500b: 65 04        	adc	$4                      ; 0x2004 <__heap_default_limit+0x1004>
    500d: 85 04        	sta	$4                      ; 0x2004 <__heap_default_limit+0x1004>
    500f: a5 07        	lda	$7                      ; 0x2007 <__heap_default_limit+0x1007>
    5011: 18           	clc
    5012: 65 05        	adc	$5                      ; 0x2005 <__heap_default_limit+0x1005>
    5014: aa           	tax
    5015: a5 06        	lda	$6                      ; 0x2006 <__heap_default_limit+0x1006>
    5017: 65 04        	adc	$4                      ; 0x2004 <__heap_default_limit+0x1004>
    5019: 85 04        	sta	$4                      ; 0x2004 <__heap_default_limit+0x1004>
    501b: 18           	clc
    501c: 8a           	txa
    501d: 69 02        	adc	#$2
    501f: 4c 54 51     	jmp	$5154 <BAMSectorUpdate+0x2b0>
    5022: 85 09        	sta	$9                      ; 0x2009 <__heap_default_limit+0x1009>
    5024: c0 18        	cpy	#$18
    5026: 90 03        	bcc	$502b <BAMSectorUpdate+0x187>
    5028: 4c 8a 50     	jmp	$508a <BAMSectorUpdate+0x1e6>
    502b: a2 00        	ldx	#$0
    502d: 86 5b        	stx	$5b                     ; 0x205b <lpstore+0x1>
    502f: 18           	clc
    5030: 98           	tya
    5031: 69 f0        	adc	#$f0
    5033: a8           	tay
    5034: a5 09        	lda	$9                      ; 0x2009 <__heap_default_limit+0x1009>
    5036: 18           	clc
    5037: 65 05        	adc	$5                      ; 0x2005 <__heap_default_limit+0x1005>
    5039: 85 05        	sta	$5                      ; 0x2005 <__heap_default_limit+0x1005>
    503b: a5 0a        	lda	$a                      ; 0x200a <__heap_default_limit+0x100a>
    503d: 65 04        	adc	$4                      ; 0x2004 <__heap_default_limit+0x1004>
    503f: 85 04        	sta	$4                      ; 0x2004 <__heap_default_limit+0x1004>
    5041: a5 07        	lda	$7                      ; 0x2007 <__heap_default_limit+0x1007>
    5043: 18           	clc
    5044: 65 05        	adc	$5                      ; 0x2005 <__heap_default_limit+0x1005>
    5046: aa           	tax
    5047: a5 06        	lda	$6                      ; 0x2006 <__heap_default_limit+0x1006>
    5049: 65 04        	adc	$4                      ; 0x2004 <__heap_default_limit+0x1004>
    504b: 85 04        	sta	$4                      ; 0x2004 <__heap_default_limit+0x1004>
    504d: 18           	clc
    504e: 8a           	txa
    504f: 69 03        	adc	#$3
    5051: 4c 10 51     	jmp	$5110 <BAMSectorUpdate+0x26c>
    5054: 85 09        	sta	$9                      ; 0x2009 <__heap_default_limit+0x1009>
    5056: c0 18        	cpy	#$18
    5058: 90 03        	bcc	$505d <BAMSectorUpdate+0x1b9>
    505a: 4c ba 50     	jmp	$50ba <BAMSectorUpdate+0x216>
    505d: a6 55        	ldx	$55                     ; 0x2055 <_fini+0xa>
    505f: 86 5b        	stx	$5b                     ; 0x205b <lpstore+0x1>
    5061: a6 56        	ldx	$56                     ; 0x2056 <fourbytes>
    5063: 86 5c        	stx	$5c                     ; 0x205c <lpstore+0x2>
    5065: 18           	clc
    5066: 98           	tya
    5067: 69 f0        	adc	#$f0
    5069: a8           	tay
    506a: a5 09        	lda	$9                      ; 0x2009 <__heap_default_limit+0x1009>
    506c: 18           	clc
    506d: 65 05        	adc	$5                      ; 0x2005 <__heap_default_limit+0x1005>
    506f: 85 05        	sta	$5                      ; 0x2005 <__heap_default_limit+0x1005>
    5071: a5 0a        	lda	$a                      ; 0x200a <__heap_default_limit+0x100a>
    5073: 65 04        	adc	$4                      ; 0x2004 <__heap_default_limit+0x1004>
    5075: 85 04        	sta	$4                      ; 0x2004 <__heap_default_limit+0x1004>
    5077: a5 07        	lda	$7                      ; 0x2007 <__heap_default_limit+0x1007>
    5079: 18           	clc
    507a: 65 05        	adc	$5                      ; 0x2005 <__heap_default_limit+0x1005>
    507c: aa           	tax
    507d: a5 06        	lda	$6                      ; 0x2006 <__heap_default_limit+0x1006>
    507f: 65 04        	adc	$4                      ; 0x2004 <__heap_default_limit+0x1004>
    5081: 85 04        	sta	$4                      ; 0x2004 <__heap_default_limit+0x1004>
    5083: 18           	clc
    5084: 8a           	txa
    5085: 69 03        	adc	#$3
    5087: 4c 54 51     	jmp	$5154 <BAMSectorUpdate+0x2b0>
    508a: a2 00        	ldx	#$0
    508c: 86 5b        	stx	$5b                     ; 0x205b <lpstore+0x1>
    508e: c0 20        	cpy	#$20
    5090: 90 03        	bcc	$5095 <BAMSectorUpdate+0x1f1>
    5092: 4c ee 50     	jmp	$50ee <BAMSectorUpdate+0x24a>
    5095: 18           	clc
    5096: 98           	tya
    5097: 69 e8        	adc	#$e8
    5099: a8           	tay
    509a: a5 09        	lda	$9                      ; 0x2009 <__heap_default_limit+0x1009>
    509c: 18           	clc
    509d: 65 05        	adc	$5                      ; 0x2005 <__heap_default_limit+0x1005>
    509f: 85 05        	sta	$5                      ; 0x2005 <__heap_default_limit+0x1005>
    50a1: a5 0a        	lda	$a                      ; 0x200a <__heap_default_limit+0x100a>
    50a3: 65 04        	adc	$4                      ; 0x2004 <__heap_default_limit+0x1004>
    50a5: 85 04        	sta	$4                      ; 0x2004 <__heap_default_limit+0x1004>
    50a7: a5 07        	lda	$7                      ; 0x2007 <__heap_default_limit+0x1007>
    50a9: 18           	clc
    50aa: 65 05        	adc	$5                      ; 0x2005 <__heap_default_limit+0x1005>
    50ac: aa           	tax
    50ad: a5 06        	lda	$6                      ; 0x2006 <__heap_default_limit+0x1006>
    50af: 65 04        	adc	$4                      ; 0x2004 <__heap_default_limit+0x1004>
    50b1: 85 04        	sta	$4                      ; 0x2004 <__heap_default_limit+0x1004>
    50b3: 18           	clc
    50b4: 8a           	txa
    50b5: 69 04        	adc	#$4
    50b7: 4c 10 51     	jmp	$5110 <BAMSectorUpdate+0x26c>
    50ba: a6 55        	ldx	$55                     ; 0x2055 <_fini+0xa>
    50bc: 86 5b        	stx	$5b                     ; 0x205b <lpstore+0x1>
    50be: a6 56        	ldx	$56                     ; 0x2056 <fourbytes>
    50c0: 86 5c        	stx	$5c                     ; 0x205c <lpstore+0x2>
    50c2: c0 20        	cpy	#$20
    50c4: 90 03        	bcc	$50c9 <BAMSectorUpdate+0x225>
    50c6: 4c 32 51     	jmp	$5132 <BAMSectorUpdate+0x28e>
    50c9: 18           	clc
    50ca: 98           	tya
    50cb: 69 e8        	adc	#$e8
    50cd: a8           	tay
    50ce: a5 09        	lda	$9                      ; 0x2009 <__heap_default_limit+0x1009>
    50d0: 18           	clc
    50d1: 65 05        	adc	$5                      ; 0x2005 <__heap_default_limit+0x1005>
    50d3: 85 05        	sta	$5                      ; 0x2005 <__heap_default_limit+0x1005>
    50d5: a5 0a        	lda	$a                      ; 0x200a <__heap_default_limit+0x100a>
    50d7: 65 04        	adc	$4                      ; 0x2004 <__heap_default_limit+0x1004>
    50d9: 85 04        	sta	$4                      ; 0x2004 <__heap_default_limit+0x1004>
    50db: a5 07        	lda	$7                      ; 0x2007 <__heap_default_limit+0x1007>
    50dd: 18           	clc
    50de: 65 05        	adc	$5                      ; 0x2005 <__heap_default_limit+0x1005>
    50e0: aa           	tax
    50e1: a5 06        	lda	$6                      ; 0x2006 <__heap_default_limit+0x1006>
    50e3: 65 04        	adc	$4                      ; 0x2004 <__heap_default_limit+0x1004>
    50e5: 85 04        	sta	$4                      ; 0x2004 <__heap_default_limit+0x1004>
    50e7: 18           	clc
    50e8: 8a           	txa
    50e9: 69 04        	adc	#$4
    50eb: 4c 54 51     	jmp	$5154 <BAMSectorUpdate+0x2b0>
    50ee: 18           	clc
    50ef: 98           	tya
    50f0: 69 e0        	adc	#$e0
    50f2: a8           	tay
    50f3: a5 09        	lda	$9                      ; 0x2009 <__heap_default_limit+0x1009>
    50f5: 18           	clc
    50f6: 65 05        	adc	$5                      ; 0x2005 <__heap_default_limit+0x1005>
    50f8: 85 05        	sta	$5                      ; 0x2005 <__heap_default_limit+0x1005>
    50fa: a5 0a        	lda	$a                      ; 0x200a <__heap_default_limit+0x100a>
    50fc: 65 04        	adc	$4                      ; 0x2004 <__heap_default_limit+0x1004>
    50fe: 85 04        	sta	$4                      ; 0x2004 <__heap_default_limit+0x1004>
    5100: a5 07        	lda	$7                      ; 0x2007 <__heap_default_limit+0x1007>
    5102: 18           	clc
    5103: 65 05        	adc	$5                      ; 0x2005 <__heap_default_limit+0x1005>
    5105: aa           	tax
    5106: a5 06        	lda	$6                      ; 0x2006 <__heap_default_limit+0x1006>
    5108: 65 04        	adc	$4                      ; 0x2004 <__heap_default_limit+0x1004>
    510a: 85 04        	sta	$4                      ; 0x2004 <__heap_default_limit+0x1004>
    510c: 18           	clc
    510d: 8a           	txa
    510e: 69 05        	adc	#$5
    5110: 85 57        	sta	$57                     ; 0x2057 <fourbytes+0x1>
    5112: a5 04        	lda	$4                      ; 0x2004 <__heap_default_limit+0x1004>
    5114: 69 00        	adc	#$0
    5116: 85 58        	sta	$58                     ; 0x2058 <fourbytes+0x2>
    5118: a9 01        	lda	#$1
    511a: a2 00        	ldx	#$0
    511c: 84 04        	sty	$4                      ; 0x2004 <__heap_default_limit+0x1004>
    511e: 20 bf 6b     	jsr	$6bbf <__ashlhi3>
    5121: a2 ff        	ldx	#$ff
    5123: 86 5a        	stx	$5a                     ; 0x205a <lpstore>
    5125: 49 ff        	eor	#$ff
    5127: 32 57        	and	($57),z                 ; 0x2057 <fourbytes+0x1>
    5129: 92 57        	sta	($57),z                 ; 0x2057 <fourbytes+0x1>
    512b: a6 5b        	ldx	$5b                     ; 0x205b <lpstore+0x1>
    512d: 86 57        	stx	$57                     ; 0x2057 <fourbytes+0x1>
    512f: 4c 74 51     	jmp	$5174 <BAMSectorUpdate+0x2d0>
    5132: 18           	clc
    5133: 98           	tya
    5134: 69 e0        	adc	#$e0
    5136: a8           	tay
    5137: a5 09        	lda	$9                      ; 0x2009 <__heap_default_limit+0x1009>
    5139: 18           	clc
    513a: 65 05        	adc	$5                      ; 0x2005 <__heap_default_limit+0x1005>
    513c: 85 05        	sta	$5                      ; 0x2005 <__heap_default_limit+0x1005>
    513e: a5 0a        	lda	$a                      ; 0x200a <__heap_default_limit+0x100a>
    5140: 65 04        	adc	$4                      ; 0x2004 <__heap_default_limit+0x1004>
    5142: 85 04        	sta	$4                      ; 0x2004 <__heap_default_limit+0x1004>
    5144: a5 07        	lda	$7                      ; 0x2007 <__heap_default_limit+0x1007>
    5146: 18           	clc
    5147: 65 05        	adc	$5                      ; 0x2005 <__heap_default_limit+0x1005>
    5149: aa           	tax
    514a: a5 06        	lda	$6                      ; 0x2006 <__heap_default_limit+0x1006>
    514c: 65 04        	adc	$4                      ; 0x2004 <__heap_default_limit+0x1004>
    514e: 85 04        	sta	$4                      ; 0x2004 <__heap_default_limit+0x1004>
    5150: 18           	clc
    5151: 8a           	txa
    5152: 69 05        	adc	#$5
    5154: 85 55        	sta	$55                     ; 0x2055 <_fini+0xa>
    5156: a5 04        	lda	$4                      ; 0x2004 <__heap_default_limit+0x1004>
    5158: 69 00        	adc	#$0
    515a: 85 56        	sta	$56                     ; 0x2056 <fourbytes>
    515c: a9 01        	lda	#$1
    515e: a2 00        	ldx	#$0
    5160: 84 04        	sty	$4                      ; 0x2004 <__heap_default_limit+0x1004>
    5162: a8           	tay
    5163: 84 5a        	sty	$5a                     ; 0x205a <lpstore>
    5165: 20 bf 6b     	jsr	$6bbf <__ashlhi3>
    5168: 12 55        	ora	($55),z                 ; 0x2055 <_fini+0xa>
    516a: 92 55        	sta	($55),z                 ; 0x2055 <_fini+0xa>
    516c: a6 5b        	ldx	$5b                     ; 0x205b <lpstore+0x1>
    516e: 86 55        	stx	$55                     ; 0x2055 <_fini+0xa>
    5170: a6 5c        	ldx	$5c                     ; 0x205c <lpstore+0x2>
    5172: 86 56        	stx	$56                     ; 0x2056 <fourbytes>
    5174: a6 59        	ldx	$59                     ; 0x2059 <fourbytes+0x3>
    5176: 86 04        	stx	$4                      ; 0x2004 <__heap_default_limit+0x1004>
    5178: 06 04        	asl	$4                      ; 0x2004 <__heap_default_limit+0x1004>
    517a: 26 57        	rol	$57                     ; 0x2057 <fourbytes+0x1>
    517c: a5 04        	lda	$4                      ; 0x2004 <__heap_default_limit+0x1004>
    517e: 0a           	asl
    517f: a6 57        	ldx	$57                     ; 0x2057 <fourbytes+0x1>
    5181: 86 05        	stx	$5                      ; 0x2005 <__heap_default_limit+0x1005>
    5183: 26 05        	rol	$5                      ; 0x2005 <__heap_default_limit+0x1005>
    5185: 18           	clc
    5186: 65 04        	adc	$4                      ; 0x2004 <__heap_default_limit+0x1004>
    5188: aa           	tax
    5189: a5 05        	lda	$5                      ; 0x2005 <__heap_default_limit+0x1005>
    518b: 65 57        	adc	$57                     ; 0x2057 <fourbytes+0x1>
    518d: 85 04        	sta	$4                      ; 0x2004 <__heap_default_limit+0x1004>
    518f: 18           	clc
    5190: 8a           	txa
    5191: 65 55        	adc	$55                     ; 0x2055 <_fini+0xa>
    5193: aa           	tax
    5194: a5 56        	lda	$56                     ; 0x2056 <fourbytes>
    5196: 65 04        	adc	$4                      ; 0x2004 <__heap_default_limit+0x1004>
    5198: 86 04        	stx	$4                      ; 0x2004 <__heap_default_limit+0x1004>
    519a: 85 05        	sta	$5                      ; 0x2005 <__heap_default_limit+0x1005>
    519c: a0 10        	ldy	#$10
    519e: 18           	clc
    519f: a5 5a        	lda	$5a                     ; 0x205a <lpstore>
    51a1: 71 04        	adc	($4),y                  ; 0x2004 <__heap_default_limit+0x1004>
    51a3: 91 04        	sta	($4),y                  ; 0x2004 <__heap_default_limit+0x1004>
    51a5: 60           	rts

000051a6 <isallocatedBAMtracksector>:
    51a6: 86 06        	stx	$6                      ; 0x2006 <__heap_default_limit+0x1006>
    51a8: aa           	tax
    51a9: ca           	dex
    51aa: 86 09        	stx	$9                      ; 0x2009 <__heap_default_limit+0x1009>
    51ac: e0 28        	cpx	#$28
    51ae: a2 01        	ldx	#$1
    51b0: 86 04        	stx	$4                      ; 0x2004 <__heap_default_limit+0x1004>
    51b2: a2 7b        	ldx	#$7b
    51b4: 86 05        	stx	$5                      ; 0x2005 <__heap_default_limit+0x1005>
    51b6: 90 0d        	bcc	$51c5 <isallocatedBAMtracksector+0x1f>
    51b8: 18           	clc
    51b9: 69 d7        	adc	#$d7
    51bb: a2 03        	ldx	#$3
    51bd: 86 04        	stx	$4                      ; 0x2004 <__heap_default_limit+0x1004>
    51bf: a2 7b        	ldx	#$7b
    51c1: 86 05        	stx	$5                      ; 0x2005 <__heap_default_limit+0x1005>
    51c3: 85 09        	sta	$9                      ; 0x2009 <__heap_default_limit+0x1009>
    51c5: b2 04        	lda	($4),z                  ; 0x2004 <__heap_default_limit+0x1004>
    51c7: 85 08        	sta	$8                      ; 0x2008 <__heap_default_limit+0x1008>
    51c9: a0 01        	ldy	#$1
    51cb: b1 04        	lda	($4),y                  ; 0x2004 <__heap_default_limit+0x1004>
    51cd: a6 06        	ldx	$6                      ; 0x2006 <__heap_default_limit+0x1006>
    51cf: e0 08        	cpx	#$8
    51d1: 90 03        	bcc	$51d6 <isallocatedBAMtracksector+0x30>
    51d3: 4c 18 52     	jmp	$5218 <isallocatedBAMtracksector+0x72>
    51d6: 64 04        	stz	$4                      ; 0x2004 <__heap_default_limit+0x1004>
    51d8: a6 09        	ldx	$9                      ; 0x2009 <__heap_default_limit+0x1009>
    51da: 86 05        	stx	$5                      ; 0x2005 <__heap_default_limit+0x1005>
    51dc: 06 05        	asl	$5                      ; 0x2005 <__heap_default_limit+0x1005>
    51de: 26 04        	rol	$4                      ; 0x2004 <__heap_default_limit+0x1004>
    51e0: a6 05        	ldx	$5                      ; 0x2005 <__heap_default_limit+0x1005>
    51e2: 86 07        	stx	$7                      ; 0x2007 <__heap_default_limit+0x1007>
    51e4: 06 07        	asl	$7                      ; 0x2007 <__heap_default_limit+0x1007>
    51e6: aa           	tax
    51e7: a4 04        	ldy	$4                      ; 0x2004 <__heap_default_limit+0x1004>
    51e9: 84 09        	sty	$9                      ; 0x2009 <__heap_default_limit+0x1009>
    51eb: 26 09        	rol	$9                      ; 0x2009 <__heap_default_limit+0x1009>
    51ed: 18           	clc
    51ee: a5 07        	lda	$7                      ; 0x2007 <__heap_default_limit+0x1007>
    51f0: 65 05        	adc	$5                      ; 0x2005 <__heap_default_limit+0x1005>
    51f2: 85 05        	sta	$5                      ; 0x2005 <__heap_default_limit+0x1005>
    51f4: a5 09        	lda	$9                      ; 0x2009 <__heap_default_limit+0x1009>
    51f6: 65 04        	adc	$4                      ; 0x2004 <__heap_default_limit+0x1004>
    51f8: 85 04        	sta	$4                      ; 0x2004 <__heap_default_limit+0x1004>
    51fa: a5 08        	lda	$8                      ; 0x2008 <__heap_default_limit+0x1008>
    51fc: 18           	clc
    51fd: 65 05        	adc	$5                      ; 0x2005 <__heap_default_limit+0x1005>
    51ff: a8           	tay
    5200: 8a           	txa
    5201: 65 04        	adc	$4                      ; 0x2004 <__heap_default_limit+0x1004>
    5203: 84 04        	sty	$4                      ; 0x2004 <__heap_default_limit+0x1004>
    5205: 85 05        	sta	$5                      ; 0x2005 <__heap_default_limit+0x1005>
    5207: a0 11        	ldy	#$11
    5209: b1 04        	lda	($4),y                  ; 0x2004 <__heap_default_limit+0x1004>
    520b: 85 49        	sta	$49                     ; 0x2049 <__after_main+0x1>
    520d: a9 01        	lda	#$1
    520f: a2 00        	ldx	#$0
    5211: a4 06        	ldy	$6                      ; 0x2006 <__heap_default_limit+0x1006>
    5213: 84 04        	sty	$4                      ; 0x2004 <__heap_default_limit+0x1004>
    5215: 4c a3 52     	jmp	$52a3 <isallocatedBAMtracksector+0xfd>
    5218: 85 07        	sta	$7                      ; 0x2007 <__heap_default_limit+0x1007>
    521a: a6 06        	ldx	$6                      ; 0x2006 <__heap_default_limit+0x1006>
    521c: e0 10        	cpx	#$10
    521e: 90 03        	bcc	$5223 <isallocatedBAMtracksector+0x7d>
    5220: 4c 5d 52     	jmp	$525d <isallocatedBAMtracksector+0xb7>
    5223: 64 04        	stz	$4                      ; 0x2004 <__heap_default_limit+0x1004>
    5225: a6 09        	ldx	$9                      ; 0x2009 <__heap_default_limit+0x1009>
    5227: 86 05        	stx	$5                      ; 0x2005 <__heap_default_limit+0x1005>
    5229: 06 05        	asl	$5                      ; 0x2005 <__heap_default_limit+0x1005>
    522b: 26 04        	rol	$4                      ; 0x2004 <__heap_default_limit+0x1004>
    522d: a5 05        	lda	$5                      ; 0x2005 <__heap_default_limit+0x1005>
    522f: 0a           	asl
    5230: a6 04        	ldx	$4                      ; 0x2004 <__heap_default_limit+0x1004>
    5232: 86 09        	stx	$9                      ; 0x2009 <__heap_default_limit+0x1009>
    5234: 26 09        	rol	$9                      ; 0x2009 <__heap_default_limit+0x1009>
    5236: 18           	clc
    5237: 65 05        	adc	$5                      ; 0x2005 <__heap_default_limit+0x1005>
    5239: 85 05        	sta	$5                      ; 0x2005 <__heap_default_limit+0x1005>
    523b: a5 09        	lda	$9                      ; 0x2009 <__heap_default_limit+0x1009>
    523d: 65 04        	adc	$4                      ; 0x2004 <__heap_default_limit+0x1004>
    523f: 85 04        	sta	$4                      ; 0x2004 <__heap_default_limit+0x1004>
    5241: a5 08        	lda	$8                      ; 0x2008 <__heap_default_limit+0x1008>
    5243: 18           	clc
    5244: 65 05        	adc	$5                      ; 0x2005 <__heap_default_limit+0x1005>
    5246: aa           	tax
    5247: a5 07        	lda	$7                      ; 0x2007 <__heap_default_limit+0x1007>
    5249: 65 04        	adc	$4                      ; 0x2004 <__heap_default_limit+0x1004>
    524b: 86 04        	stx	$4                      ; 0x2004 <__heap_default_limit+0x1004>
    524d: 85 05        	sta	$5                      ; 0x2005 <__heap_default_limit+0x1005>
    524f: a0 12        	ldy	#$12
    5251: b1 04        	lda	($4),y                  ; 0x2004 <__heap_default_limit+0x1004>
    5253: 85 49        	sta	$49                     ; 0x2049 <__after_main+0x1>
    5255: a5 06        	lda	$6                      ; 0x2006 <__heap_default_limit+0x1006>
    5257: 18           	clc
    5258: 69 f8        	adc	#$f8
    525a: 4c 9d 52     	jmp	$529d <isallocatedBAMtracksector+0xf7>
    525d: a6 06        	ldx	$6                      ; 0x2006 <__heap_default_limit+0x1006>
    525f: e0 18        	cpx	#$18
    5261: 90 03        	bcc	$5266 <isallocatedBAMtracksector+0xc0>
    5263: 4c b4 52     	jmp	$52b4 <isallocatedBAMtracksector+0x10e>
    5266: 64 04        	stz	$4                      ; 0x2004 <__heap_default_limit+0x1004>
    5268: a6 09        	ldx	$9                      ; 0x2009 <__heap_default_limit+0x1009>
    526a: 86 05        	stx	$5                      ; 0x2005 <__heap_default_limit+0x1005>
    526c: 06 05        	asl	$5                      ; 0x2005 <__heap_default_limit+0x1005>
    526e: 26 04        	rol	$4                      ; 0x2004 <__heap_default_limit+0x1004>
    5270: a5 05        	lda	$5                      ; 0x2005 <__heap_default_limit+0x1005>
    5272: 0a           	asl
    5273: a6 04        	ldx	$4                      ; 0x2004 <__heap_default_limit+0x1004>
    5275: 86 09        	stx	$9                      ; 0x2009 <__heap_default_limit+0x1009>
    5277: 26 09        	rol	$9                      ; 0x2009 <__heap_default_limit+0x1009>
    5279: 18           	clc
    527a: 65 05        	adc	$5                      ; 0x2005 <__heap_default_limit+0x1005>
    527c: 85 05        	sta	$5                      ; 0x2005 <__heap_default_limit+0x1005>
    527e: a5 09        	lda	$9                      ; 0x2009 <__heap_default_limit+0x1009>
    5280: 65 04        	adc	$4                      ; 0x2004 <__heap_default_limit+0x1004>
    5282: 85 04        	sta	$4                      ; 0x2004 <__heap_default_limit+0x1004>
    5284: a5 08        	lda	$8                      ; 0x2008 <__heap_default_limit+0x1008>
    5286: 18           	clc
    5287: 65 05        	adc	$5                      ; 0x2005 <__heap_default_limit+0x1005>
    5289: aa           	tax
    528a: a5 07        	lda	$7                      ; 0x2007 <__heap_default_limit+0x1007>
    528c: 65 04        	adc	$4                      ; 0x2004 <__heap_default_limit+0x1004>
    528e: 86 04        	stx	$4                      ; 0x2004 <__heap_default_limit+0x1004>
    5290: 85 05        	sta	$5                      ; 0x2005 <__heap_default_limit+0x1005>
    5292: a0 13        	ldy	#$13
    5294: b1 04        	lda	($4),y                  ; 0x2004 <__heap_default_limit+0x1004>
    5296: 85 49        	sta	$49                     ; 0x2049 <__after_main+0x1>
    5298: a5 06        	lda	$6                      ; 0x2006 <__heap_default_limit+0x1006>
    529a: 18           	clc
    529b: 69 f0        	adc	#$f0
    529d: a2 00        	ldx	#$0
    529f: 85 04        	sta	$4                      ; 0x2004 <__heap_default_limit+0x1004>
    52a1: a9 01        	lda	#$1
    52a3: 20 bf 6b     	jsr	$6bbf <__ashlhi3>
    52a6: a2 01        	ldx	#$1
    52a8: a4 49        	ldy	$49                     ; 0x2049 <__after_main+0x1>
    52aa: 84 04        	sty	$4                      ; 0x2004 <__heap_default_limit+0x1004>
    52ac: 25 04        	and	$4                      ; 0x2004 <__heap_default_limit+0x1004>
    52ae: f0 02        	beq	$52b2 <isallocatedBAMtracksector+0x10c>
    52b0: a2 00        	ldx	#$0
    52b2: 8a           	txa
    52b3: 60           	rts
    52b4: a6 06        	ldx	$6                      ; 0x2006 <__heap_default_limit+0x1006>
    52b6: e0 20        	cpx	#$20
    52b8: a2 01        	ldx	#$1
    52ba: b0 02        	bcs	$52be <isallocatedBAMtracksector+0x118>
    52bc: a2 00        	ldx	#$0
    52be: 86 0a        	stx	$a                      ; 0x200a <__heap_default_limit+0x100a>
    52c0: 64 04        	stz	$4                      ; 0x2004 <__heap_default_limit+0x1004>
    52c2: 18           	clc
    52c3: a6 09        	ldx	$9                      ; 0x2009 <__heap_default_limit+0x1009>
    52c5: 86 05        	stx	$5                      ; 0x2005 <__heap_default_limit+0x1005>
    52c7: a5 08        	lda	$8                      ; 0x2008 <__heap_default_limit+0x1008>
    52c9: 69 10        	adc	#$10
    52cb: aa           	tax
    52cc: a5 07        	lda	$7                      ; 0x2007 <__heap_default_limit+0x1007>
    52ce: 69 00        	adc	#$0
    52d0: a8           	tay
    52d1: 06 05        	asl	$5                      ; 0x2005 <__heap_default_limit+0x1005>
    52d3: 26 04        	rol	$4                      ; 0x2004 <__heap_default_limit+0x1004>
    52d5: a5 05        	lda	$5                      ; 0x2005 <__heap_default_limit+0x1005>
    52d7: 0a           	asl
    52d8: 5a           	phy
    52d9: a4 04        	ldy	$4                      ; 0x2004 <__heap_default_limit+0x1004>
    52db: 84 07        	sty	$7                      ; 0x2007 <__heap_default_limit+0x1007>
    52dd: 7a           	ply
    52de: 26 07        	rol	$7                      ; 0x2007 <__heap_default_limit+0x1007>
    52e0: e6 0a        	inc	$a                      ; 0x200a <__heap_default_limit+0x100a>
    52e2: c6 0a        	dec	$a                      ; 0x200a <__heap_default_limit+0x100a>
    52e4: d0 24        	bne	$530a <isallocatedBAMtracksector+0x164>
    52e6: 18           	clc
    52e7: 65 05        	adc	$5                      ; 0x2005 <__heap_default_limit+0x1005>
    52e9: 85 05        	sta	$5                      ; 0x2005 <__heap_default_limit+0x1005>
    52eb: a5 07        	lda	$7                      ; 0x2007 <__heap_default_limit+0x1007>
    52ed: 65 04        	adc	$4                      ; 0x2004 <__heap_default_limit+0x1004>
    52ef: 85 04        	sta	$4                      ; 0x2004 <__heap_default_limit+0x1004>
    52f1: 8a           	txa
    52f2: 18           	clc
    52f3: 65 05        	adc	$5                      ; 0x2005 <__heap_default_limit+0x1005>
    52f5: aa           	tax
    52f6: 98           	tya
    52f7: 65 04        	adc	$4                      ; 0x2004 <__heap_default_limit+0x1004>
    52f9: 86 04        	stx	$4                      ; 0x2004 <__heap_default_limit+0x1004>
    52fb: 85 05        	sta	$5                      ; 0x2005 <__heap_default_limit+0x1005>
    52fd: a0 04        	ldy	#$4
    52ff: b1 04        	lda	($4),y                  ; 0x2004 <__heap_default_limit+0x1004>
    5301: 85 49        	sta	$49                     ; 0x2049 <__after_main+0x1>
    5303: a5 06        	lda	$6                      ; 0x2006 <__heap_default_limit+0x1006>
    5305: 18           	clc
    5306: 69 e8        	adc	#$e8
    5308: 80 22        	bra	$532c <isallocatedBAMtracksector+0x186>
    530a: 18           	clc
    530b: 65 05        	adc	$5                      ; 0x2005 <__heap_default_limit+0x1005>
    530d: 85 05        	sta	$5                      ; 0x2005 <__heap_default_limit+0x1005>
    530f: a5 07        	lda	$7                      ; 0x2007 <__heap_default_limit+0x1007>
    5311: 65 04        	adc	$4                      ; 0x2004 <__heap_default_limit+0x1004>
    5313: 85 04        	sta	$4                      ; 0x2004 <__heap_default_limit+0x1004>
    5315: 8a           	txa
    5316: 18           	clc
    5317: 65 05        	adc	$5                      ; 0x2005 <__heap_default_limit+0x1005>
    5319: aa           	tax
    531a: 98           	tya
    531b: 65 04        	adc	$4                      ; 0x2004 <__heap_default_limit+0x1004>
    531d: 86 04        	stx	$4                      ; 0x2004 <__heap_default_limit+0x1004>
    531f: 85 05        	sta	$5                      ; 0x2005 <__heap_default_limit+0x1005>
    5321: a0 05        	ldy	#$5
    5323: b1 04        	lda	($4),y                  ; 0x2004 <__heap_default_limit+0x1004>
    5325: 85 49        	sta	$49                     ; 0x2049 <__after_main+0x1>
    5327: a5 06        	lda	$6                      ; 0x2006 <__heap_default_limit+0x1006>
    5329: 18           	clc
    532a: 69 e0        	adc	#$e0
    532c: a2 00        	ldx	#$0
    532e: 85 04        	sta	$4                      ; 0x2004 <__heap_default_limit+0x1004>
    5330: a9 01        	lda	#$1
    5332: 20 bf 6b     	jsr	$6bbf <__ashlhi3>
    5335: a6 49        	ldx	$49                     ; 0x2049 <__after_main+0x1>
    5337: 86 04        	stx	$4                      ; 0x2004 <__heap_default_limit+0x1004>
    5339: 25 04        	and	$4                      ; 0x2004 <__heap_default_limit+0x1004>
    533b: a2 01        	ldx	#$1
    533d: a8           	tay
    533e: f0 03        	beq	$5343 <isallocatedBAMtracksector+0x19d>
    5340: 4c b0 52     	jmp	$52b0 <isallocatedBAMtracksector+0x10a>
    5343: 4c b2 52     	jmp	$52b2 <isallocatedBAMtracksector+0x10c>

00005346 <findnextBAMtracksector>:
    5346: 85 4d        	sta	$4d                     ; 0x204d <_fini+0x2>
    5348: a6 04        	ldx	$4                      ; 0x2004 <__heap_default_limit+0x1004>
    534a: 86 49        	stx	$49                     ; 0x2049 <__after_main+0x1>
    534c: a6 05        	ldx	$5                      ; 0x2005 <__heap_default_limit+0x1005>
    534e: 86 4a        	stx	$4a                     ; 0x204a <__after_main+0x2>
    5350: a6 06        	ldx	$6                      ; 0x2006 <__heap_default_limit+0x1006>
    5352: 86 4b        	stx	$4b                     ; 0x204b <_fini>
    5354: a6 07        	ldx	$7                      ; 0x2007 <__heap_default_limit+0x1007>
    5356: 86 4c        	stx	$4c                     ; 0x204c <_fini+0x1>
    5358: 64 4e        	stz	$4e                     ; 0x204e <_fini+0x3>
    535a: a0 00        	ldy	#$0
    535c: c0 50        	cpy	#$50
    535e: d0 03        	bne	$5363 <findnextBAMtracksector+0x1d>
    5360: 4c 59 54     	jmp	$5459 <findnextBAMtracksector+0x113>
    5363: b9 09 7b     	lda	$7b09,y                 ; 0x7b09 <BAMsector+0x8>
    5366: a6 4d        	ldx	$4d                     ; 0x204d <_fini+0x2>
    5368: f0 01        	beq	$536b <findnextBAMtracksector+0x25>
    536a: 1a           	inc
    536b: c9 50        	cmp	#$50
    536d: a2 01        	ldx	#$1
    536f: 86 04        	stx	$4                      ; 0x2004 <__heap_default_limit+0x1004>
    5371: a2 7b        	ldx	#$7b
    5373: 86 05        	stx	$5                      ; 0x2005 <__heap_default_limit+0x1005>
    5375: 84 53        	sty	$53                     ; 0x2053 <_fini+0x8>
    5377: 90 06        	bcc	$537f <findnextBAMtracksector+0x39>
    5379: 64 52        	stz	$52                     ; 0x2052 <_fini+0x7>
    537b: a9 00        	lda	#$0
    537d: 80 15        	bra	$5394 <findnextBAMtracksector+0x4e>
    537f: c9 28        	cmp	#$28
    5381: b0 04        	bcs	$5387 <findnextBAMtracksector+0x41>
    5383: 85 52        	sta	$52                     ; 0x2052 <_fini+0x7>
    5385: 80 0d        	bra	$5394 <findnextBAMtracksector+0x4e>
    5387: 18           	clc
    5388: 85 52        	sta	$52                     ; 0x2052 <_fini+0x7>
    538a: 69 d8        	adc	#$d8
    538c: a2 03        	ldx	#$3
    538e: 86 04        	stx	$4                      ; 0x2004 <__heap_default_limit+0x1004>
    5390: a2 7b        	ldx	#$7b
    5392: 86 05        	stx	$5                      ; 0x2005 <__heap_default_limit+0x1005>
    5394: 0a           	asl
    5395: 85 06        	sta	$6                      ; 0x2006 <__heap_default_limit+0x1006>
    5397: a9 00        	lda	#$0
    5399: 2a           	rol
    539a: 85 07        	sta	$7                      ; 0x2007 <__heap_default_limit+0x1007>
    539c: a5 06        	lda	$6                      ; 0x2006 <__heap_default_limit+0x1006>
    539e: 0a           	asl
    539f: aa           	tax
    53a0: a5 07        	lda	$7                      ; 0x2007 <__heap_default_limit+0x1007>
    53a2: 2a           	rol
    53a3: a8           	tay
    53a4: 18           	clc
    53a5: 8a           	txa
    53a6: 65 06        	adc	$6                      ; 0x2006 <__heap_default_limit+0x1006>
    53a8: 85 06        	sta	$6                      ; 0x2006 <__heap_default_limit+0x1006>
    53aa: 98           	tya
    53ab: 65 07        	adc	$7                      ; 0x2007 <__heap_default_limit+0x1007>
    53ad: aa           	tax
    53ae: 18           	clc
    53af: a5 06        	lda	$6                      ; 0x2006 <__heap_default_limit+0x1006>
    53b1: 72 04        	adc	($4),z                  ; 0x2004 <__heap_default_limit+0x1004>
    53b3: 85 4f        	sta	$4f                     ; 0x204f <_fini+0x4>
    53b5: a0 01        	ldy	#$1
    53b7: 8a           	txa
    53b8: 71 04        	adc	($4),y                  ; 0x2004 <__heap_default_limit+0x1004>
    53ba: 85 50        	sta	$50                     ; 0x2050 <_fini+0x5>
    53bc: a2 00        	ldx	#$0
    53be: 4c 12 54     	jmp	$5412 <findnextBAMtracksector+0xcc>
    53c1: e0 10        	cpx	#$10
    53c3: b0 0f        	bcs	$53d4 <findnextBAMtracksector+0x8e>
    53c5: a0 12        	ldy	#$12
    53c7: b1 4f        	lda	($4f),y                 ; 0x204f <_fini+0x4>
    53c9: 85 51        	sta	$51                     ; 0x2051 <_fini+0x6>
    53cb: 18           	clc
    53cc: 86 54        	stx	$54                     ; 0x2054 <_fini+0x9>
    53ce: 8a           	txa
    53cf: 69 f8        	adc	#$f8
    53d1: 4c 02 54     	jmp	$5402 <findnextBAMtracksector+0xbc>
    53d4: e0 18        	cpx	#$18
    53d6: b0 0e        	bcs	$53e6 <findnextBAMtracksector+0xa0>
    53d8: a0 13        	ldy	#$13
    53da: b1 4f        	lda	($4f),y                 ; 0x204f <_fini+0x4>
    53dc: 85 51        	sta	$51                     ; 0x2051 <_fini+0x6>
    53de: 18           	clc
    53df: 86 54        	stx	$54                     ; 0x2054 <_fini+0x9>
    53e1: 8a           	txa
    53e2: 69 f0        	adc	#$f0
    53e4: 80 1c        	bra	$5402 <findnextBAMtracksector+0xbc>
    53e6: e0 20        	cpx	#$20
    53e8: 86 54        	stx	$54                     ; 0x2054 <_fini+0x9>
    53ea: b0 0c        	bcs	$53f8 <findnextBAMtracksector+0xb2>
    53ec: a0 14        	ldy	#$14
    53ee: b1 4f        	lda	($4f),y                 ; 0x204f <_fini+0x4>
    53f0: 85 51        	sta	$51                     ; 0x2051 <_fini+0x6>
    53f2: 18           	clc
    53f3: 8a           	txa
    53f4: 69 e8        	adc	#$e8
    53f6: 80 0a        	bra	$5402 <findnextBAMtracksector+0xbc>
    53f8: a0 15        	ldy	#$15
    53fa: b1 4f        	lda	($4f),y                 ; 0x204f <_fini+0x4>
    53fc: 85 51        	sta	$51                     ; 0x2051 <_fini+0x6>
    53fe: 18           	clc
    53ff: 8a           	txa
    5400: 69 e0        	adc	#$e0
    5402: 85 04        	sta	$4                      ; 0x2004 <__heap_default_limit+0x1004>
    5404: a2 00        	ldx	#$0
    5406: a9 01        	lda	#$1
    5408: 20 bf 6b     	jsr	$6bbf <__ashlhi3>
    540b: 25 51        	and	$51                     ; 0x2051 <_fini+0x6>
    540d: d0 20        	bne	$542f <findnextBAMtracksector+0xe9>
    540f: a6 54        	ldx	$54                     ; 0x2054 <_fini+0x9>
    5411: e8           	inx
    5412: e0 28        	cpx	#$28
    5414: f0 13        	beq	$5429 <findnextBAMtracksector+0xe3>
    5416: e0 08        	cpx	#$8
    5418: 90 03        	bcc	$541d <findnextBAMtracksector+0xd7>
    541a: 4c c1 53     	jmp	$53c1 <findnextBAMtracksector+0x7b>
    541d: a0 11        	ldy	#$11
    541f: 86 04        	stx	$4                      ; 0x2004 <__heap_default_limit+0x1004>
    5421: b1 4f        	lda	($4f),y                 ; 0x204f <_fini+0x4>
    5423: 85 51        	sta	$51                     ; 0x2051 <_fini+0x6>
    5425: 86 54        	stx	$54                     ; 0x2054 <_fini+0x9>
    5427: 80 db        	bra	$5404 <findnextBAMtracksector+0xbe>
    5429: a4 53        	ldy	$53                     ; 0x2053 <_fini+0x8>
    542b: c8           	iny
    542c: 4c 5c 53     	jmp	$535c <findnextBAMtracksector+0x16>
    542f: a2 01        	ldx	#$1
    5431: a4 52        	ldy	$52                     ; 0x2052 <_fini+0x7>
    5433: 84 4d        	sty	$4d                     ; 0x204d <_fini+0x2>
    5435: e6 4d        	inc	$4d                     ; 0x204d <_fini+0x2>
    5437: a0 00        	ldy	#$0
    5439: 84 04        	sty	$4                      ; 0x2004 <__heap_default_limit+0x1004>
    543b: a0 17        	ldy	#$17
    543d: 84 05        	sty	$5                      ; 0x2005 <__heap_default_limit+0x1005>
    543f: a0 00        	ldy	#$0
    5441: 84 06        	sty	$6                      ; 0x2006 <__heap_default_limit+0x1006>
    5443: a0 18        	ldy	#$18
    5445: 84 07        	sty	$7                      ; 0x2007 <__heap_default_limit+0x1007>
    5447: 86 08        	stx	$8                      ; 0x2008 <__heap_default_limit+0x1008>
    5449: a6 54        	ldx	$54                     ; 0x2054 <_fini+0x9>
    544b: a5 4d        	lda	$4d                     ; 0x204d <_fini+0x2>
    544d: 20 a4 4e     	jsr	$4ea4 <BAMSectorUpdate>
    5450: a5 4d        	lda	$4d                     ; 0x204d <_fini+0x2>
    5452: 92 49        	sta	($49),z                 ; 0x2049 <__after_main+0x1>
    5454: a5 54        	lda	$54                     ; 0x2054 <_fini+0x9>
    5456: 92 4b        	sta	($4b),z                 ; 0x204b <_fini>
    5458: 60           	rts
    5459: a9 ff        	lda	#$ff
    545b: 64 54        	stz	$54                     ; 0x2054 <_fini+0x9>
    545d: 80 f3        	bra	$5452 <findnextBAMtracksector+0x10c>

0000545f <tracksectorstring>:
    545f: 86 4b        	stx	$4b                     ; 0x204b <_fini>
    5461: a2 54        	ldx	#$54
    5463: 8e 8a 7b     	stx	$7b8a                   ; 0x7b8a <s>
    5466: a2 72        	ldx	#$72
    5468: 8e 8b 7b     	stx	$7b8b                   ; 0x7b8b <s+0x1>
    546b: a2 61        	ldx	#$61
    546d: 8e 8c 7b     	stx	$7b8c                   ; 0x7b8c <s+0x2>
    5470: a2 63        	ldx	#$63
    5472: 8e 8d 7b     	stx	$7b8d                   ; 0x7b8d <s+0x3>
    5475: a2 6b        	ldx	#$6b
    5477: 8e 8e 7b     	stx	$7b8e                   ; 0x7b8e <s+0x4>
    547a: a2 3a        	ldx	#$3a
    547c: 8e 8f 7b     	stx	$7b8f                   ; 0x7b8f <s+0x5>
    547f: a2 20        	ldx	#$20
    5481: 8e 90 7b     	stx	$7b90                   ; 0x7b90 <s+0x6>
    5484: a2 4a        	ldx	#$4a
    5486: a0 00        	ldy	#$0
    5488: 86 04        	stx	$4                      ; 0x2004 <__heap_default_limit+0x1004>
    548a: 84 05        	sty	$5                      ; 0x2005 <__heap_default_limit+0x1005>
    548c: a2 0a        	ldx	#$a
    548e: 20 0a 6d     	jsr	$6d0a <__udivmodqi4>
    5491: 18           	clc
    5492: 69 30        	adc	#$30
    5494: aa           	tax
    5495: a5 4a        	lda	$4a                     ; 0x204a <__after_main+0x2>
    5497: 8e 91 7b     	stx	$7b91                   ; 0x7b91 <s+0x7>
    549a: 09 30        	ora	#$30
    549c: 8d 92 7b     	sta	$7b92                   ; 0x7b92 <s+0x8>
    549f: a2 53        	ldx	#$53
    54a1: 8e 94 7b     	stx	$7b94                   ; 0x7b94 <s+0xa>
    54a4: a2 65        	ldx	#$65
    54a6: 8e 95 7b     	stx	$7b95                   ; 0x7b95 <s+0xb>
    54a9: a2 63        	ldx	#$63
    54ab: 8e 96 7b     	stx	$7b96                   ; 0x7b96 <s+0xc>
    54ae: a2 74        	ldx	#$74
    54b0: 8e 97 7b     	stx	$7b97                   ; 0x7b97 <s+0xd>
    54b3: a2 6f        	ldx	#$6f
    54b5: 8e 98 7b     	stx	$7b98                   ; 0x7b98 <s+0xe>
    54b8: a2 72        	ldx	#$72
    54ba: 8e 99 7b     	stx	$7b99                   ; 0x7b99 <s+0xf>
    54bd: a2 3a        	ldx	#$3a
    54bf: 8e 9a 7b     	stx	$7b9a                   ; 0x7b9a <s+0x10>
    54c2: a2 20        	ldx	#$20
    54c4: 8e 93 7b     	stx	$7b93                   ; 0x7b93 <s+0x9>
    54c7: 8e 9b 7b     	stx	$7b9b                   ; 0x7b9b <s+0x11>
    54ca: a2 49        	ldx	#$49
    54cc: a0 00        	ldy	#$0
    54ce: 86 04        	stx	$4                      ; 0x2004 <__heap_default_limit+0x1004>
    54d0: 84 05        	sty	$5                      ; 0x2005 <__heap_default_limit+0x1005>
    54d2: a2 0a        	ldx	#$a
    54d4: a5 4b        	lda	$4b                     ; 0x204b <_fini>
    54d6: 20 0a 6d     	jsr	$6d0a <__udivmodqi4>
    54d9: a6 49        	ldx	$49                     ; 0x2049 <__after_main+0x1>
    54db: 18           	clc
    54dc: 69 30        	adc	#$30
    54de: 8d 9c 7b     	sta	$7b9c                   ; 0x7b9c <s+0x12>
    54e1: 8a           	txa
    54e2: 09 30        	ora	#$30
    54e4: 8d 9d 7b     	sta	$7b9d                   ; 0x7b9d <s+0x13>
    54e7: 9c 9e 7b     	stz	$7b9e                   ; 0x7b9e <s+0x14>
    54ea: 60           	rts

000054eb <getdirententry>:
    54eb: 86 55        	stx	$55                     ; 0x2055 <_fini+0xa>
    54ed: 0a           	asl
    54ee: 85 04        	sta	$4                      ; 0x2004 <__heap_default_limit+0x1004>
    54f0: a0 00        	ldy	#$0
    54f2: 98           	tya
    54f3: 2a           	rol
    54f4: 85 05        	sta	$5                      ; 0x2005 <__heap_default_limit+0x1005>
    54f6: 98           	tya
    54f7: 2a           	rol
    54f8: 85 06        	sta	$6                      ; 0x2006 <__heap_default_limit+0x1006>
    54fa: a5 04        	lda	$4                      ; 0x2004 <__heap_default_limit+0x1004>
    54fc: 0a           	asl
    54fd: aa           	tax
    54fe: a5 05        	lda	$5                      ; 0x2005 <__heap_default_limit+0x1005>
    5500: 2a           	rol
    5501: 85 09        	sta	$9                      ; 0x2009 <__heap_default_limit+0x1009>
    5503: a5 06        	lda	$6                      ; 0x2006 <__heap_default_limit+0x1006>
    5505: 85 08        	sta	$8                      ; 0x2008 <__heap_default_limit+0x1008>
    5507: 26 08        	rol	$8                      ; 0x2008 <__heap_default_limit+0x1008>
    5509: 8a           	txa
    550a: 0a           	asl
    550b: 26 09        	rol	$9                      ; 0x2009 <__heap_default_limit+0x1009>
    550d: 26 08        	rol	$8                      ; 0x2008 <__heap_default_limit+0x1008>
    550f: 0a           	asl
    5510: 26 09        	rol	$9                      ; 0x2009 <__heap_default_limit+0x1009>
    5512: 26 08        	rol	$8                      ; 0x2008 <__heap_default_limit+0x1008>
    5514: 38           	sec
    5515: e5 04        	sbc	$4                      ; 0x2004 <__heap_default_limit+0x1004>
    5517: 85 56        	sta	$56                     ; 0x2056 <fourbytes>
    5519: a5 09        	lda	$9                      ; 0x2009 <__heap_default_limit+0x1009>
    551b: e5 05        	sbc	$5                      ; 0x2005 <__heap_default_limit+0x1005>
    551d: 85 57        	sta	$57                     ; 0x2057 <fourbytes+0x1>
    551f: a5 08        	lda	$8                      ; 0x2008 <__heap_default_limit+0x1008>
    5521: e5 06        	sbc	$6                      ; 0x2006 <__heap_default_limit+0x1006>
    5523: a2 08        	ldx	#$8
    5525: 86 5c        	stx	$5c                     ; 0x205c <lpstore+0x2>
    5527: 09 08        	ora	#$8
    5529: 85 58        	sta	$58                     ; 0x2058 <fourbytes+0x2>
    552b: 98           	tya
    552c: 64 5a        	stz	$5a                     ; 0x205a <lpstore>
    552e: aa           	tax
    552f: 86 04        	stx	$4                      ; 0x2004 <__heap_default_limit+0x1004>
    5531: c4 04        	cpy	$4                      ; 0x2004 <__heap_default_limit+0x1004>
    5533: d0 0a        	bne	$553f <getdirententry+0x54>
    5535: 86 5b        	stx	$5b                     ; 0x205b <lpstore+0x1>
    5537: a6 5c        	ldx	$5c                     ; 0x205c <lpstore+0x2>
    5539: 86 04        	stx	$4                      ; 0x2004 <__heap_default_limit+0x1004>
    553b: c5 04        	cmp	$4                      ; 0x2004 <__heap_default_limit+0x1004>
    553d: 80 06        	bra	$5545 <getdirententry+0x5a>
    553f: 86 5b        	stx	$5b                     ; 0x205b <lpstore+0x1>
    5541: 86 04        	stx	$4                      ; 0x2004 <__heap_default_limit+0x1004>
    5543: c4 04        	cpy	$4                      ; 0x2004 <__heap_default_limit+0x1004>
    5545: a2 00        	ldx	#$0
    5547: 86 04        	stx	$4                      ; 0x2004 <__heap_default_limit+0x1004>
    5549: a2 00        	ldx	#$0
    554b: 86 05        	stx	$5                      ; 0x2005 <__heap_default_limit+0x1005>
    554d: 90 03        	bcc	$5552 <getdirententry+0x67>
    554f: 4c cc 55     	jmp	$55cc <getdirententry+0xe1>
    5552: 85 59        	sta	$59                     ; 0x2059 <fourbytes+0x3>
    5554: 4a           	lsr
    5555: 64 04        	stz	$4                      ; 0x2004 <__heap_default_limit+0x1004>
    5557: 66 04        	ror	$4                      ; 0x2004 <__heap_default_limit+0x1004>
    5559: 4a           	lsr
    555a: 66 04        	ror	$4                      ; 0x2004 <__heap_default_limit+0x1004>
    555c: 4a           	lsr
    555d: 85 05        	sta	$5                      ; 0x2005 <__heap_default_limit+0x1005>
    555f: 66 04        	ror	$4                      ; 0x2004 <__heap_default_limit+0x1004>
    5561: a9 00        	lda	#$0
    5563: 18           	clc
    5564: 65 04        	adc	$4                      ; 0x2004 <__heap_default_limit+0x1004>
    5566: 85 0c        	sta	$c                      ; 0x200c <__heap_default_limit+0x100c>
    5568: a5 56        	lda	$56                     ; 0x2056 <fourbytes>
    556a: 65 05        	adc	$5                      ; 0x2005 <__heap_default_limit+0x1005>
    556c: 85 0d        	sta	$d                      ; 0x200d <__heap_default_limit+0x100d>
    556e: a5 57        	lda	$57                     ; 0x2057 <fourbytes+0x1>
    5570: 69 00        	adc	#$0
    5572: 85 04        	sta	$4                      ; 0x2004 <__heap_default_limit+0x1004>
    5574: a5 58        	lda	$58                     ; 0x2058 <fourbytes+0x2>
    5576: 69 00        	adc	#$0
    5578: 85 05        	sta	$5                      ; 0x2005 <__heap_default_limit+0x1005>
    557a: a2 c0        	ldx	#$c0
    557c: 86 06        	stx	$6                      ; 0x2006 <__heap_default_limit+0x1006>
    557e: a2 1b        	ldx	#$1b
    5580: 86 07        	stx	$7                      ; 0x2007 <__heap_default_limit+0x1007>
    5582: 64 08        	stz	$8                      ; 0x2008 <__heap_default_limit+0x1008>
    5584: 64 09        	stz	$9                      ; 0x2009 <__heap_default_limit+0x1009>
    5586: a2 20        	ldx	#$20
    5588: 86 0a        	stx	$a                      ; 0x200a <__heap_default_limit+0x100a>
    558a: 64 0b        	stz	$b                      ; 0x200b <__heap_default_limit+0x100b>
    558c: a6 0d        	ldx	$d                      ; 0x200d <__heap_default_limit+0x100d>
    558e: a5 0c        	lda	$c                      ; 0x200c <__heap_default_limit+0x100c>
    5590: 20 22 6a     	jsr	$6a22 <lcopy>
    5593: ae c0 1b     	ldx	$1bc0                   ; 0x1bc0 <__heap_default_limit+0xbc0>
    5596: f0 0d        	beq	$55a5 <getdirententry+0xba>
    5598: 18           	clc
    5599: a5 5c        	lda	$5c                     ; 0x205c <lpstore+0x2>
    559b: 69 08        	adc	#$8
    559d: 85 5c        	sta	$5c                     ; 0x205c <lpstore+0x2>
    559f: a5 5b        	lda	$5b                     ; 0x205b <lpstore+0x1>
    55a1: 69 00        	adc	#$0
    55a3: 85 5b        	sta	$5b                     ; 0x205b <lpstore+0x1>
    55a5: ae c2 1b     	ldx	$1bc2                   ; 0x1bc2 <__heap_default_limit+0xbc2>
    55a8: a0 00        	ldy	#$0
    55aa: 8a           	txa
    55ab: d0 06        	bne	$55b3 <getdirententry+0xc8>
    55ad: a9 01        	lda	#$1
    55af: 25 30        	and	$30                     ; 0x2030 <__do_init_stack+0x1>
    55b1: f0 09        	beq	$55bc <getdirententry+0xd1>
    55b3: a6 5a        	ldx	$5a                     ; 0x205a <lpstore>
    55b5: e4 55        	cpx	$55                     ; 0x2055 <_fini+0xa>
    55b7: f0 0b        	beq	$55c4 <getdirententry+0xd9>
    55b9: e8           	inx
    55ba: 86 5a        	stx	$5a                     ; 0x205a <lpstore>
    55bc: a5 59        	lda	$59                     ; 0x2059 <fourbytes+0x3>
    55be: 1a           	inc
    55bf: a6 5b        	ldx	$5b                     ; 0x205b <lpstore+0x1>
    55c1: 4c 2f 55     	jmp	$552f <getdirententry+0x44>
    55c4: a2 c0        	ldx	#$c0
    55c6: 86 04        	stx	$4                      ; 0x2004 <__heap_default_limit+0x1004>
    55c8: a2 1b        	ldx	#$1b
    55ca: 86 05        	stx	$5                      ; 0x2005 <__heap_default_limit+0x1005>
    55cc: 60           	rts

000055cd <strcopy>:
    55cd: a0 00        	ldy	#$0
    55cf: 80 03        	bra	$55d4 <strcopy+0x7>
    55d1: 91 06        	sta	($6),y                  ; 0x2006 <__heap_default_limit+0x1006>
    55d3: c8           	iny
    55d4: b1 04        	lda	($4),y                  ; 0x2004 <__heap_default_limit+0x1004>
    55d6: f0 04        	beq	$55dc <strcopy+0xf>
    55d8: c0 10        	cpy	#$10
    55da: 90 f5        	bcc	$55d1 <strcopy+0x4>
    55dc: a9 00        	lda	#$0
    55de: 91 06        	sta	($6),y                  ; 0x2006 <__heap_default_limit+0x1006>
    55e0: 60           	rts

000055e1 <csputdec>:
    55e1: 86 07        	stx	$7                      ; 0x2007 <__heap_default_limit+0x1007>
    55e3: a6 06        	ldx	$6                      ; 0x2006 <__heap_default_limit+0x1006>
    55e5: 86 61        	stx	$61                     ; 0x2061 <lpstore+0x7>
    55e7: a6 04        	ldx	$4                      ; 0x2004 <__heap_default_limit+0x1004>
    55e9: 86 67        	stx	$67                     ; 0x2067 <lpstore+0xd>
    55eb: a6 05        	ldx	$5                      ; 0x2005 <__heap_default_limit+0x1005>
    55ed: 86 68        	stx	$68                     ; 0x2068 <lpstore+0xe>
    55ef: 64 74        	stz	$74                     ; 0x2074 <lpstore+0x1a>
    55f1: a0 09        	ldy	#$9
    55f3: a2 75        	ldx	#$75
    55f5: 86 63        	stx	$63                     ; 0x2063 <lpstore+0x9>
    55f7: a2 00        	ldx	#$0
    55f9: 86 64        	stx	$64                     ; 0x2064 <lpstore+0xa>
    55fb: a6 07        	ldx	$7                      ; 0x2007 <__heap_default_limit+0x1007>
    55fd: 84 69        	sty	$69                     ; 0x2069 <lpstore+0xf>
    55ff: 48           	pha
    5600: a5 63        	lda	$63                     ; 0x2063 <lpstore+0x9>
    5602: 85 0a        	sta	$a                      ; 0x200a <__heap_default_limit+0x100a>
    5604: a5 64        	lda	$64                     ; 0x2064 <lpstore+0xa>
    5606: 85 0b        	sta	$b                      ; 0x200b <__heap_default_limit+0x100b>
    5608: 68           	pla
    5609: 84 62        	sty	$62                     ; 0x2062 <lpstore+0x8>
    560b: a0 0a        	ldy	#$a
    560d: 84 06        	sty	$6                      ; 0x2006 <__heap_default_limit+0x1006>
    560f: 64 07        	stz	$7                      ; 0x2007 <__heap_default_limit+0x1007>
    5611: 64 08        	stz	$8                      ; 0x2008 <__heap_default_limit+0x1008>
    5613: 64 09        	stz	$9                      ; 0x2009 <__heap_default_limit+0x1009>
    5615: 86 66        	stx	$66                     ; 0x2066 <lpstore+0xc>
    5617: 85 65        	sta	$65                     ; 0x2065 <lpstore+0xb>
    5619: 20 56 6e     	jsr	$6e56 <__udivmodsi4>
    561c: 85 07        	sta	$7                      ; 0x2007 <__heap_default_limit+0x1007>
    561e: a9 30        	lda	#$30
    5620: 05 75        	ora	$75                     ; 0x2075 <lprestore>
    5622: c6 62        	dec	$62                     ; 0x2062 <lpstore+0x8>
    5624: a4 69        	ldy	$69                     ; 0x2069 <lpstore+0xf>
    5626: 99 6a 00     	sta	$6a,y                   ; 0x6a <__rc31+0x49>
    5629: a5 68        	lda	$68                     ; 0x2068 <lpstore+0xe>
    562b: d0 0e        	bne	$563b <csputdec+0x5a>
    562d: a5 67        	lda	$67                     ; 0x2067 <lpstore+0xd>
    562f: d0 0e        	bne	$563f <csputdec+0x5e>
    5631: a5 66        	lda	$66                     ; 0x2066 <lpstore+0xc>
    5633: d0 0e        	bne	$5643 <csputdec+0x62>
    5635: a4 65        	ldy	$65                     ; 0x2065 <lpstore+0xb>
    5637: c0 0a        	cpy	#$a
    5639: 80 0c        	bra	$5647 <csputdec+0x66>
    563b: a4 68        	ldy	$68                     ; 0x2068 <lpstore+0xe>
    563d: 80 06        	bra	$5645 <csputdec+0x64>
    563f: a4 67        	ldy	$67                     ; 0x2067 <lpstore+0xd>
    5641: 80 02        	bra	$5645 <csputdec+0x64>
    5643: a4 66        	ldy	$66                     ; 0x2066 <lpstore+0xc>
    5645: c0 00        	cpy	#$0
    5647: a5 07        	lda	$7                      ; 0x2007 <__heap_default_limit+0x1007>
    5649: a4 04        	ldy	$4                      ; 0x2004 <__heap_default_limit+0x1004>
    564b: 84 67        	sty	$67                     ; 0x2067 <lpstore+0xd>
    564d: a4 05        	ldy	$5                      ; 0x2005 <__heap_default_limit+0x1005>
    564f: 84 68        	sty	$68                     ; 0x2068 <lpstore+0xe>
    5651: a4 62        	ldy	$62                     ; 0x2062 <lpstore+0x8>
    5653: 90 03        	bcc	$5658 <csputdec+0x77>
    5655: 4c fd 55     	jmp	$55fd <csputdec+0x1c>
    5658: 38           	sec
    5659: a9 0a        	lda	#$a
    565b: e5 61        	sbc	$61                     ; 0x2061 <lpstore+0x7>
    565d: 85 05        	sta	$5                      ; 0x2005 <__heap_default_limit+0x1005>
    565f: a9 00        	lda	#$0
    5661: e9 00        	sbc	#$0
    5663: 85 06        	sta	$6                      ; 0x2006 <__heap_default_limit+0x1006>
    5665: 80 1d        	bra	$5684 <csputdec+0xa3>
    5667: c9 00        	cmp	#$0
    5669: a9 00        	lda	#$0
    566b: b0 02        	bcs	$566f <csputdec+0x8e>
    566d: a9 01        	lda	#$1
    566f: c0 00        	cpy	#$0
    5671: f0 04        	beq	$5677 <csputdec+0x96>
    5673: 29 01        	and	#$1
    5675: 80 02        	bra	$5679 <csputdec+0x98>
    5677: a9 00        	lda	#$0
    5679: aa           	tax
    567a: f0 13        	beq	$568f <csputdec+0xae>
    567c: a9 20        	lda	#$20
    567e: 99 6a 00     	sta	$6a,y                   ; 0x6a <__rc31+0x49>
    5681: 88           	dey
    5682: a5 06        	lda	$6                      ; 0x2006 <__heap_default_limit+0x1006>
    5684: aa           	tax
    5685: d0 e0        	bne	$5667 <csputdec+0x86>
    5687: 84 04        	sty	$4                      ; 0x2004 <__heap_default_limit+0x1004>
    5689: a6 05        	ldx	$5                      ; 0x2005 <__heap_default_limit+0x1005>
    568b: e4 04        	cpx	$4                      ; 0x2004 <__heap_default_limit+0x1004>
    568d: 80 da        	bra	$5669 <csputdec+0x88>
    568f: a9 6a        	lda	#$6a
    5691: 18           	clc
    5692: 84 04        	sty	$4                      ; 0x2004 <__heap_default_limit+0x1004>
    5694: 65 04        	adc	$4                      ; 0x2004 <__heap_default_limit+0x1004>
    5696: 85 04        	sta	$4                      ; 0x2004 <__heap_default_limit+0x1004>
    5698: a9 00        	lda	#$0
    569a: 69 00        	adc	#$0
    569c: 85 05        	sta	$5                      ; 0x2005 <__heap_default_limit+0x1005>
    569e: e6 04        	inc	$4                      ; 0x2004 <__heap_default_limit+0x1004>
    56a0: d0 02        	bne	$56a4 <csputdec+0xc3>
    56a2: e6 05        	inc	$5                      ; 0x2005 <__heap_default_limit+0x1005>
    56a4: 4c 66 68     	jmp	$6866 <cputs>

000056a7 <asciitoscreencode_s>:
    56a7: a2 34        	ldx	#$34
    56a9: 86 06        	stx	$6                      ; 0x2006 <__heap_default_limit+0x1006>
    56ab: a2 03        	ldx	#$3
    56ad: 86 07        	stx	$7                      ; 0x2007 <__heap_default_limit+0x1007>
    56af: b2 04        	lda	($4),z                  ; 0x2004 <__heap_default_limit+0x1004>
    56b1: e6 04        	inc	$4                      ; 0x2004 <__heap_default_limit+0x1004>
    56b3: d0 02        	bne	$56b7 <asciitoscreencode_s+0x10>
    56b5: e6 05        	inc	$5                      ; 0x2005 <__heap_default_limit+0x1005>
    56b7: a0 20        	ldy	#$20
    56b9: c9 a0        	cmp	#$a0
    56bb: f0 11        	beq	$56ce <asciitoscreencode_s+0x27>
    56bd: aa           	tax
    56be: e0 c0        	cpx	#$c0
    56c0: 90 04        	bcc	$56c6 <asciitoscreencode_s+0x1f>
    56c2: 29 7f        	and	#$7f
    56c4: 80 07        	bra	$56cd <asciitoscreencode_s+0x26>
    56c6: c9 60        	cmp	#$60
    56c8: 90 12        	bcc	$56dc <asciitoscreencode_s+0x35>
    56ca: 18           	clc
    56cb: 69 a0        	adc	#$a0
    56cd: a8           	tay
    56ce: 98           	tya
    56cf: 92 06        	sta	($6),z                  ; 0x2006 <__heap_default_limit+0x1006>
    56d1: e6 06        	inc	$6                      ; 0x2006 <__heap_default_limit+0x1006>
    56d3: d0 02        	bne	$56d7 <asciitoscreencode_s+0x30>
    56d5: e6 07        	inc	$7                      ; 0x2007 <__heap_default_limit+0x1007>
    56d7: 98           	tya
    56d8: d0 d5        	bne	$56af <asciitoscreencode_s+0x8>
    56da: 80 0d        	bra	$56e9 <asciitoscreencode_s+0x42>
    56dc: a8           	tay
    56dd: 18           	clc
    56de: 69 a5        	adc	#$a5
    56e0: c9 05        	cmp	#$5
    56e2: b0 ea        	bcs	$56ce <asciitoscreencode_s+0x27>
    56e4: aa           	tax
    56e5: b4 22        	ldy	$22,x                   ; 0x2022 <_start+0x1>
    56e7: 80 e5        	bra	$56ce <asciitoscreencode_s+0x27>
    56e9: ae 34 03     	ldx	$334                    ; 0x334 <__basic_zp_end+0x2a4>
    56ec: f0 01        	beq	$56ef <asciitoscreencode_s+0x48>
    56ee: 60           	rts
    56ef: a2 20        	ldx	#$20
    56f1: 8e 34 03     	stx	$334                    ; 0x334 <__basic_zp_end+0x2a4>
    56f4: 9c 35 03     	stz	$335                    ; 0x335 <__basic_zp_end+0x2a5>
    56f7: 60           	rts

000056f8 <clrhome>:
    56f8: a6 31        	ldx	$31                     ; 0x2031 <__do_init_stack+0x2>
    56fa: a5 32        	lda	$32                     ; 0x2032 <__do_init_stack+0x3>
    56fc: 86 04        	stx	$4                      ; 0x2004 <__heap_default_limit+0x1004>
    56fe: 64 05        	stz	$5                      ; 0x2005 <__heap_default_limit+0x1005>
    5700: a2 00        	ldx	#$0
    5702: 20 d2 6b     	jsr	$6bd2 <__mulhi3>
    5705: a8           	tay
    5706: ad 54 d0     	lda	$d054                   ; 0xd054 <__heap_start+0x503a>
    5709: 29 01        	and	#$1
    570b: 85 04        	sta	$4                      ; 0x2004 <__heap_default_limit+0x1004>
    570d: 98           	tya
    570e: 20 bf 6b     	jsr	$6bbf <__ashlhi3>
    5711: 85 07        	sta	$7                      ; 0x2007 <__heap_default_limit+0x1007>
    5713: 85 49        	sta	$49                     ; 0x2049 <__after_main+0x1>
    5715: 86 08        	stx	$8                      ; 0x2008 <__heap_default_limit+0x1008>
    5717: 86 4a        	stx	$4a                     ; 0x204a <__after_main+0x2>
    5719: ad 63 d0     	lda	$d063                   ; 0xd063 <__heap_start+0x5049>
    571c: 29 07        	and	#$7
    571e: ae 62 d0     	ldx	$d062                   ; 0xd062 <__heap_start+0x5048>
    5721: ac 61 d0     	ldy	$d061                   ; 0xd061 <__heap_start+0x5047>
    5724: 84 09        	sty	$9                      ; 0x2009 <__heap_default_limit+0x1009>
    5726: ac 60 d0     	ldy	$d060                   ; 0xd060 <__heap_start+0x5046>
    5729: 86 04        	stx	$4                      ; 0x2004 <__heap_default_limit+0x1004>
    572b: 85 05        	sta	$5                      ; 0x2005 <__heap_default_limit+0x1005>
    572d: a2 20        	ldx	#$20
    572f: 86 06        	stx	$6                      ; 0x2006 <__heap_default_limit+0x1006>
    5731: a6 09        	ldx	$9                      ; 0x2009 <__heap_default_limit+0x1009>
    5733: 98           	tya
    5734: 20 89 6a     	jsr	$6a89 <lfill>
    5737: a6 2b        	ldx	$2b                     ; 0x202b <_start+0xa>
    5739: a0 f8        	ldy	#$f8
    573b: a9 0f        	lda	#$f
    573d: 84 04        	sty	$4                      ; 0x2004 <__heap_default_limit+0x1004>
    573f: 85 05        	sta	$5                      ; 0x2005 <__heap_default_limit+0x1005>
    5741: 86 06        	stx	$6                      ; 0x2006 <__heap_default_limit+0x1006>
    5743: a6 49        	ldx	$49                     ; 0x2049 <__after_main+0x1>
    5745: 86 07        	stx	$7                      ; 0x2007 <__heap_default_limit+0x1007>
    5747: a6 4a        	ldx	$4a                     ; 0x204a <__after_main+0x2>
    5749: 86 08        	stx	$8                      ; 0x2008 <__heap_default_limit+0x1008>
    574b: a2 00        	ldx	#$0
    574d: 8a           	txa
    574e: 20 89 6a     	jsr	$6a89 <lfill>
    5751: 64 33        	stz	$33                     ; 0x2033 <__do_init_stack+0x4>
    5753: 64 34        	stz	$34                     ; 0x2034 <__do_init_stack+0x5>
    5755: 60           	rts

00005756 <msprintf>:
    5756: 20 a7 56     	jsr	$56a7 <asciitoscreencode_s>
    5759: a2 34        	ldx	#$34
    575b: 86 04        	stx	$4                      ; 0x2004 <__heap_default_limit+0x1004>
    575d: a2 03        	ldx	#$3
    575f: 86 05        	stx	$5                      ; 0x2005 <__heap_default_limit+0x1005>
    5761: 4c 66 68     	jmp	$6866 <cputs>

00005764 <mcputsxy>:
    5764: 85 67        	sta	$67                     ; 0x2067 <lpstore+0xd>
    5766: 86 68        	stx	$68                     ; 0x2068 <lpstore+0xe>
    5768: 20 a7 56     	jsr	$56a7 <asciitoscreencode_s>
    576b: a2 34        	ldx	#$34
    576d: 86 04        	stx	$4                      ; 0x2004 <__heap_default_limit+0x1004>
    576f: a2 03        	ldx	#$3
    5771: 86 05        	stx	$5                      ; 0x2005 <__heap_default_limit+0x1005>
    5773: a6 68        	ldx	$68                     ; 0x2068 <lpstore+0xe>
    5775: a5 67        	lda	$67                     ; 0x2067 <lpstore+0xd>
    5777: 4c 6d 68     	jmp	$686d <cputsxy>

0000577a <mcbox>:
    577a: a8           	tay
    577b: 86 69        	stx	$69                     ; 0x2069 <lpstore+0xf>
    577d: a6 06        	ldx	$6                      ; 0x2006 <__heap_default_limit+0x1006>
    577f: 86 6d        	stx	$6d                     ; 0x206d <lpstore+0x13>
    5781: a6 04        	ldx	$4                      ; 0x2004 <__heap_default_limit+0x1004>
    5783: 38           	sec
    5784: 85 04        	sta	$4                      ; 0x2004 <__heap_default_limit+0x1004>
    5786: 8a           	txa
    5787: e5 04        	sbc	$4                      ; 0x2004 <__heap_default_limit+0x1004>
    5789: 85 67        	sta	$67                     ; 0x2067 <lpstore+0xd>
    578b: a9 f0        	lda	#$f0
    578d: 25 2b        	and	$2b                     ; 0x202b <_start+0xa>
    578f: 09 03        	ora	#$3
    5791: 85 2b        	sta	$2b                     ; 0x202b <_start+0xa>
    5793: 84 6e        	sty	$6e                     ; 0x206e <lpstore+0x14>
    5795: 84 6b        	sty	$6b                     ; 0x206b <lpstore+0x11>
    5797: a5 69        	lda	$69                     ; 0x2069 <lpstore+0xf>
    5799: 85 6f        	sta	$6f                     ; 0x206f <lpstore+0x15>
    579b: 86 70        	stx	$70                     ; 0x2070 <lpstore+0x16>
    579d: 86 68        	stx	$68                     ; 0x2068 <lpstore+0xe>
    579f: a6 05        	ldx	$5                      ; 0x2005 <__heap_default_limit+0x1005>
    57a1: 86 71        	stx	$71                     ; 0x2071 <lpstore+0x17>
    57a3: 86 6a        	stx	$6a                     ; 0x206a <lpstore+0x10>
    57a5: a2 6e        	ldx	#$6e
    57a7: a0 00        	ldy	#$0
    57a9: 86 04        	stx	$4                      ; 0x2004 <__heap_default_limit+0x1004>
    57ab: 84 05        	sty	$5                      ; 0x2005 <__heap_default_limit+0x1005>
    57ad: 20 48 69     	jsr	$6948 <fillrect>
    57b0: a2 70        	ldx	#$70
    57b2: 86 04        	stx	$4                      ; 0x2004 <__heap_default_limit+0x1004>
    57b4: a6 69        	ldx	$69                     ; 0x2069 <lpstore+0xf>
    57b6: a5 6b        	lda	$6b                     ; 0x206b <lpstore+0x11>
    57b8: 20 c5 67     	jsr	$67c5 <cputcxy>
    57bb: a2 6d        	ldx	#$6d
    57bd: 86 04        	stx	$4                      ; 0x2004 <__heap_default_limit+0x1004>
    57bf: a6 6a        	ldx	$6a                     ; 0x206a <lpstore+0x10>
    57c1: a5 6b        	lda	$6b                     ; 0x206b <lpstore+0x11>
    57c3: 20 c5 67     	jsr	$67c5 <cputcxy>
    57c6: a2 6e        	ldx	#$6e
    57c8: 86 04        	stx	$4                      ; 0x2004 <__heap_default_limit+0x1004>
    57ca: a6 69        	ldx	$69                     ; 0x2069 <lpstore+0xf>
    57cc: a5 68        	lda	$68                     ; 0x2068 <lpstore+0xe>
    57ce: 20 c5 67     	jsr	$67c5 <cputcxy>
    57d1: a2 7d        	ldx	#$7d
    57d3: 86 04        	stx	$4                      ; 0x2004 <__heap_default_limit+0x1004>
    57d5: a6 6a        	ldx	$6a                     ; 0x206a <lpstore+0x10>
    57d7: 86 6c        	stx	$6c                     ; 0x206c <lpstore+0x12>
    57d9: a4 68        	ldy	$68                     ; 0x2068 <lpstore+0xe>
    57db: 84 6a        	sty	$6a                     ; 0x206a <lpstore+0x10>
    57dd: a5 68        	lda	$68                     ; 0x2068 <lpstore+0xe>
    57df: 20 c5 67     	jsr	$67c5 <cputcxy>
    57e2: a5 67        	lda	$67                     ; 0x2067 <lpstore+0xd>
    57e4: c9 02        	cmp	#$2
    57e6: a6 67        	ldx	$67                     ; 0x2067 <lpstore+0xd>
    57e8: 86 73        	stx	$73                     ; 0x2073 <lpstore+0x19>
    57ea: b0 02        	bcs	$57ee <mcbox+0x74>
    57ec: a9 01        	lda	#$1
    57ee: a6 6b        	ldx	$6b                     ; 0x206b <lpstore+0x11>
    57f0: 86 68        	stx	$68                     ; 0x2068 <lpstore+0xe>
    57f2: 80 1c        	bra	$5810 <mcbox+0x96>
    57f4: e6 68        	inc	$68                     ; 0x2068 <lpstore+0xe>
    57f6: a2 40        	ldx	#$40
    57f8: 86 04        	stx	$4                      ; 0x2004 <__heap_default_limit+0x1004>
    57fa: a6 69        	ldx	$69                     ; 0x2069 <lpstore+0xf>
    57fc: 85 67        	sta	$67                     ; 0x2067 <lpstore+0xd>
    57fe: a5 68        	lda	$68                     ; 0x2068 <lpstore+0xe>
    5800: 20 c5 67     	jsr	$67c5 <cputcxy>
    5803: a2 40        	ldx	#$40
    5805: 86 04        	stx	$4                      ; 0x2004 <__heap_default_limit+0x1004>
    5807: a6 6c        	ldx	$6c                     ; 0x206c <lpstore+0x12>
    5809: a5 68        	lda	$68                     ; 0x2068 <lpstore+0xe>
    580b: 20 c5 67     	jsr	$67c5 <cputcxy>
    580e: a5 67        	lda	$67                     ; 0x2067 <lpstore+0xd>
    5810: 3a           	dec
    5811: d0 e1        	bne	$57f4 <mcbox+0x7a>
    5813: a5 69        	lda	$69                     ; 0x2069 <lpstore+0xf>
    5815: 1a           	inc
    5816: a6 6c        	ldx	$6c                     ; 0x206c <lpstore+0x12>
    5818: 86 68        	stx	$68                     ; 0x2068 <lpstore+0xe>
    581a: 85 72        	sta	$72                     ; 0x2072 <lpstore+0x18>
    581c: 80 1a        	bra	$5838 <mcbox+0xbe>
    581e: a2 5d        	ldx	#$5d
    5820: 86 04        	stx	$4                      ; 0x2004 <__heap_default_limit+0x1004>
    5822: 85 67        	sta	$67                     ; 0x2067 <lpstore+0xd>
    5824: aa           	tax
    5825: a5 6b        	lda	$6b                     ; 0x206b <lpstore+0x11>
    5827: 20 c5 67     	jsr	$67c5 <cputcxy>
    582a: a2 5d        	ldx	#$5d
    582c: 86 04        	stx	$4                      ; 0x2004 <__heap_default_limit+0x1004>
    582e: a6 67        	ldx	$67                     ; 0x2067 <lpstore+0xd>
    5830: a5 6a        	lda	$6a                     ; 0x206a <lpstore+0x10>
    5832: 20 c5 67     	jsr	$67c5 <cputcxy>
    5835: a5 67        	lda	$67                     ; 0x2067 <lpstore+0xd>
    5837: 1a           	inc
    5838: c5 68        	cmp	$68                     ; 0x2068 <lpstore+0xe>
    583a: 90 e2        	bcc	$581e <mcbox+0xa4>
    583c: a5 6d        	lda	$6d                     ; 0x206d <lpstore+0x13>
    583e: d0 03        	bne	$5843 <mcbox+0xc9>
    5840: 4c 04 59     	jmp	$5904 <mcbox+0x18a>
    5843: a6 6c        	ldx	$6c                     ; 0x206c <lpstore+0x12>
    5845: e4 32        	cpx	$32                     ; 0x2032 <__do_init_stack+0x3>
    5847: 90 03        	bcc	$584c <mcbox+0xd2>
    5849: 4c 04 59     	jmp	$5904 <mcbox+0x18a>
    584c: a6 31        	ldx	$31                     ; 0x2031 <__do_init_stack+0x2>
    584e: 86 04        	stx	$4                      ; 0x2004 <__heap_default_limit+0x1004>
    5850: a6 6a        	ldx	$6a                     ; 0x206a <lpstore+0x10>
    5852: e4 04        	cpx	$4                      ; 0x2004 <__heap_default_limit+0x1004>
    5854: 90 03        	bcc	$5859 <mcbox+0xdf>
    5856: 4c 04 59     	jmp	$5904 <mcbox+0x18a>
    5859: 64 05        	stz	$5                      ; 0x2005 <__heap_default_limit+0x1005>
    585b: a6 6c        	ldx	$6c                     ; 0x206c <lpstore+0x12>
    585d: a0 00        	ldy	#$0
    585f: e8           	inx
    5860: d0 01        	bne	$5863 <mcbox+0xe9>
    5862: c8           	iny
    5863: 8a           	txa
    5864: 84 6c        	sty	$6c                     ; 0x206c <lpstore+0x12>
    5866: a6 6c        	ldx	$6c                     ; 0x206c <lpstore+0x12>
    5868: 85 69        	sta	$69                     ; 0x2069 <lpstore+0xf>
    586a: 20 d2 6b     	jsr	$6bd2 <__mulhi3>
    586d: 85 04        	sta	$4                      ; 0x2004 <__heap_default_limit+0x1004>
    586f: 86 05        	stx	$5                      ; 0x2005 <__heap_default_limit+0x1005>
    5871: 64 08        	stz	$8                      ; 0x2008 <__heap_default_limit+0x1008>
    5873: 18           	clc
    5874: a5 6b        	lda	$6b                     ; 0x206b <lpstore+0x11>
    5876: 65 04        	adc	$4                      ; 0x2004 <__heap_default_limit+0x1004>
    5878: aa           	tax
    5879: a9 00        	lda	#$0
    587b: 65 05        	adc	$5                      ; 0x2005 <__heap_default_limit+0x1005>
    587d: 85 04        	sta	$4                      ; 0x2004 <__heap_default_limit+0x1004>
    587f: a9 00        	lda	#$0
    5881: 69 00        	adc	#$0
    5883: 85 05        	sta	$5                      ; 0x2005 <__heap_default_limit+0x1005>
    5885: a9 00        	lda	#$0
    5887: 69 00        	adc	#$0
    5889: 85 06        	sta	$6                      ; 0x2006 <__heap_default_limit+0x1006>
    588b: 18           	clc
    588c: 8a           	txa
    588d: 69 01        	adc	#$1
    588f: a8           	tay
    5890: a5 04        	lda	$4                      ; 0x2004 <__heap_default_limit+0x1004>
    5892: 69 00        	adc	#$0
    5894: 85 09        	sta	$9                      ; 0x2009 <__heap_default_limit+0x1009>
    5896: a5 05        	lda	$5                      ; 0x2005 <__heap_default_limit+0x1005>
    5898: 69 f8        	adc	#$f8
    589a: 85 04        	sta	$4                      ; 0x2004 <__heap_default_limit+0x1004>
    589c: a5 06        	lda	$6                      ; 0x2006 <__heap_default_limit+0x1006>
    589e: 69 0f        	adc	#$f
    58a0: a2 0b        	ldx	#$b
    58a2: 85 05        	sta	$5                      ; 0x2005 <__heap_default_limit+0x1005>
    58a4: 86 06        	stx	$6                      ; 0x2006 <__heap_default_limit+0x1006>
    58a6: a6 73        	ldx	$73                     ; 0x2073 <lpstore+0x19>
    58a8: 86 07        	stx	$7                      ; 0x2007 <__heap_default_limit+0x1007>
    58aa: a6 09        	ldx	$9                      ; 0x2009 <__heap_default_limit+0x1009>
    58ac: 98           	tya
    58ad: 20 89 6a     	jsr	$6a89 <lfill>
    58b0: a6 6a        	ldx	$6a                     ; 0x206a <lpstore+0x10>
    58b2: 86 68        	stx	$68                     ; 0x2068 <lpstore+0xe>
    58b4: e6 68        	inc	$68                     ; 0x2068 <lpstore+0xe>
    58b6: a6 72        	ldx	$72                     ; 0x2072 <lpstore+0x18>
    58b8: 86 67        	stx	$67                     ; 0x2067 <lpstore+0xd>
    58ba: 64 6a        	stz	$6a                     ; 0x206a <lpstore+0x10>
    58bc: 4c f4 58     	jmp	$58f4 <mcbox+0x17a>
    58bf: c0 00        	cpy	#$0
    58c1: b0 03        	bcs	$58c6 <mcbox+0x14c>
    58c3: 4c 04 59     	jmp	$5904 <mcbox+0x18a>
    58c6: a5 31        	lda	$31                     ; 0x2031 <__do_init_stack+0x2>
    58c8: a6 67        	ldx	$67                     ; 0x2067 <lpstore+0xd>
    58ca: 86 04        	stx	$4                      ; 0x2004 <__heap_default_limit+0x1004>
    58cc: 64 05        	stz	$5                      ; 0x2005 <__heap_default_limit+0x1005>
    58ce: a2 00        	ldx	#$0
    58d0: 20 d2 6b     	jsr	$6bd2 <__mulhi3>
    58d3: 18           	clc
    58d4: 65 68        	adc	$68                     ; 0x2068 <lpstore+0xe>
    58d6: a8           	tay
    58d7: 8a           	txa
    58d8: 65 6a        	adc	$6a                     ; 0x206a <lpstore+0x10>
    58da: 85 07        	sta	$7                      ; 0x2007 <__heap_default_limit+0x1007>
    58dc: a9 f8        	lda	#$f8
    58de: 69 00        	adc	#$0
    58e0: 85 04        	sta	$4                      ; 0x2004 <__heap_default_limit+0x1004>
    58e2: a9 0f        	lda	#$f
    58e4: 69 00        	adc	#$0
    58e6: 85 05        	sta	$5                      ; 0x2005 <__heap_default_limit+0x1005>
    58e8: a2 0b        	ldx	#$b
    58ea: 86 06        	stx	$6                      ; 0x2006 <__heap_default_limit+0x1006>
    58ec: a6 07        	ldx	$7                      ; 0x2007 <__heap_default_limit+0x1007>
    58ee: 98           	tya
    58ef: 20 90 20     	jsr	$2090 <lpoke>
    58f2: e6 67        	inc	$67                     ; 0x2067 <lpstore+0xd>
    58f4: a4 6c        	ldy	$6c                     ; 0x206c <lpstore+0x12>
    58f6: f0 03        	beq	$58fb <mcbox+0x181>
    58f8: 4c bf 58     	jmp	$58bf <mcbox+0x145>
    58fb: a6 69        	ldx	$69                     ; 0x2069 <lpstore+0xf>
    58fd: e4 67        	cpx	$67                     ; 0x2067 <lpstore+0xd>
    58ff: 90 03        	bcc	$5904 <mcbox+0x18a>
    5901: 4c c6 58     	jmp	$58c6 <mcbox+0x14c>
    5904: 60           	rts

00005905 <messagebox>:
    5905: 85 55        	sta	$55                     ; 0x2055 <_fini+0xa>
    5907: 86 56        	stx	$56                     ; 0x2056 <fourbytes>
    5909: a6 04        	ldx	$4                      ; 0x2004 <__heap_default_limit+0x1004>
    590b: 86 65        	stx	$65                     ; 0x2065 <lpstore+0xb>
    590d: a6 05        	ldx	$5                      ; 0x2005 <__heap_default_limit+0x1005>
    590f: 86 66        	stx	$66                     ; 0x2066 <lpstore+0xc>
    5911: a6 06        	ldx	$6                      ; 0x2006 <__heap_default_limit+0x1006>
    5913: 86 63        	stx	$63                     ; 0x2063 <lpstore+0x9>
    5915: a6 07        	ldx	$7                      ; 0x2007 <__heap_default_limit+0x1007>
    5917: 86 64        	stx	$64                     ; 0x2064 <lpstore+0xa>
    5919: a6 08        	ldx	$8                      ; 0x2008 <__heap_default_limit+0x1008>
    591b: 86 61        	stx	$61                     ; 0x2061 <lpstore+0x7>
    591d: a6 09        	ldx	$9                      ; 0x2009 <__heap_default_limit+0x1009>
    591f: 86 62        	stx	$62                     ; 0x2062 <lpstore+0x8>
    5921: a9 46        	lda	#$46
    5923: a2 0c        	ldx	#$c
    5925: a0 01        	ldy	#$1
    5927: 85 04        	sta	$4                      ; 0x2004 <__heap_default_limit+0x1004>
    5929: 86 05        	stx	$5                      ; 0x2005 <__heap_default_limit+0x1005>
    592b: 84 06        	sty	$6                      ; 0x2006 <__heap_default_limit+0x1006>
    592d: a2 04        	ldx	#$4
    592f: a9 0a        	lda	#$a
    5931: 20 7a 57     	jsr	$577a <mcbox>
    5934: a9 20        	lda	#$20
    5936: 05 2b        	ora	$2b                     ; 0x202b <_start+0xa>
    5938: 85 2b        	sta	$2b                     ; 0x202b <_start+0xa>
    593a: a9 0e        	lda	#$e
    593c: a2 c8        	ldx	#$c8
    593e: 86 04        	stx	$4                      ; 0x2004 <__heap_default_limit+0x1004>
    5940: a2 71        	ldx	#$71
    5942: 86 05        	stx	$5                      ; 0x2005 <__heap_default_limit+0x1005>
    5944: a2 04        	ldx	#$4
    5946: 20 64 57     	jsr	$5764 <mcputsxy>
    5949: a9 28        	lda	#$28
    594b: a2 44        	ldx	#$44
    594d: 86 04        	stx	$4                      ; 0x2004 <__heap_default_limit+0x1004>
    594f: a2 75        	ldx	#$75
    5951: 86 05        	stx	$5                      ; 0x2005 <__heap_default_limit+0x1005>
    5953: a2 04        	ldx	#$4
    5955: 20 64 57     	jsr	$5764 <mcputsxy>
    5958: a9 df        	lda	#$df
    595a: 25 2b        	and	$2b                     ; 0x202b <_start+0xa>
    595c: 85 2b        	sta	$2b                     ; 0x202b <_start+0xa>
    595e: a2 06        	ldx	#$6
    5960: a4 65        	ldy	$65                     ; 0x2065 <lpstore+0xb>
    5962: 84 04        	sty	$4                      ; 0x2004 <__heap_default_limit+0x1004>
    5964: a4 66        	ldy	$66                     ; 0x2066 <lpstore+0xc>
    5966: 84 05        	sty	$5                      ; 0x2005 <__heap_default_limit+0x1005>
    5968: a9 0c        	lda	#$c
    596a: 20 64 57     	jsr	$5764 <mcputsxy>
    596d: a2 07        	ldx	#$7
    596f: a4 63        	ldy	$63                     ; 0x2063 <lpstore+0x9>
    5971: 84 04        	sty	$4                      ; 0x2004 <__heap_default_limit+0x1004>
    5973: a4 64        	ldy	$64                     ; 0x2064 <lpstore+0xa>
    5975: 84 05        	sty	$5                      ; 0x2005 <__heap_default_limit+0x1005>
    5977: a9 0c        	lda	#$c
    5979: 20 64 57     	jsr	$5764 <mcputsxy>
    597c: a2 08        	ldx	#$8
    597e: a4 61        	ldy	$61                     ; 0x2061 <lpstore+0x7>
    5980: 84 04        	sty	$4                      ; 0x2004 <__heap_default_limit+0x1004>
    5982: a4 62        	ldy	$62                     ; 0x2062 <lpstore+0x8>
    5984: 84 05        	sty	$5                      ; 0x2005 <__heap_default_limit+0x1005>
    5986: a9 0c        	lda	#$c
    5988: 20 64 57     	jsr	$5764 <mcputsxy>
    598b: a6 55        	ldx	$55                     ; 0x2055 <_fini+0xa>
    598d: e0 03        	cpx	#$3
    598f: f0 03        	beq	$5994 <messagebox+0x8f>
    5991: 4c f5 59     	jmp	$59f5 <messagebox+0xf0>
    5994: a2 f9        	ldx	#$f9
    5996: 86 04        	stx	$4                      ; 0x2004 <__heap_default_limit+0x1004>
    5998: a2 76        	ldx	#$76
    599a: 86 05        	stx	$5                      ; 0x2005 <__heap_default_limit+0x1005>
    599c: 20 a7 56     	jsr	$56a7 <asciitoscreencode_s>
    599f: a2 34        	ldx	#$34
    59a1: 86 04        	stx	$4                      ; 0x2004 <__heap_default_limit+0x1004>
    59a3: a2 03        	ldx	#$3
    59a5: 86 05        	stx	$5                      ; 0x2005 <__heap_default_limit+0x1005>
    59a7: 20 66 68     	jsr	$6866 <cputs>
    59aa: a2 24        	ldx	#$24
    59ac: 86 57        	stx	$57                     ; 0x2057 <fourbytes+0x1>
    59ae: a2 57        	ldx	#$57
    59b0: a0 00        	ldy	#$0
    59b2: 86 04        	stx	$4                      ; 0x2004 <__heap_default_limit+0x1004>
    59b4: 84 05        	sty	$5                      ; 0x2005 <__heap_default_limit+0x1005>
    59b6: e6 04        	inc	$4                      ; 0x2004 <__heap_default_limit+0x1004>
    59b8: d0 02        	bne	$59bc <messagebox+0xb7>
    59ba: e6 05        	inc	$5                      ; 0x2005 <__heap_default_limit+0x1005>
    59bc: a9 30        	lda	#$30
    59be: a2 05        	ldx	#$5
    59c0: 64 06        	stz	$6                      ; 0x2006 <__heap_default_limit+0x1006>
    59c2: 20 3c 70     	jsr	$703c <__memset>
    59c5: 18           	clc
    59c6: a9 57        	lda	#$57
    59c8: 69 06        	adc	#$6
    59ca: 85 04        	sta	$4                      ; 0x2004 <__heap_default_limit+0x1004>
    59cc: a9 00        	lda	#$0
    59ce: 69 00        	adc	#$0
    59d0: 85 05        	sta	$5                      ; 0x2005 <__heap_default_limit+0x1005>
    59d2: a5 56        	lda	$56                     ; 0x2056 <fourbytes>
    59d4: 4a           	lsr
    59d5: 4a           	lsr
    59d6: 4a           	lsr
    59d7: 4a           	lsr
    59d8: 29 0f        	and	#$f
    59da: aa           	tax
    59db: bd 59 7b     	lda	$7b59,x                 ; 0x7b59 <hexDigits>
    59de: aa           	tax
    59df: 86 5e        	stx	$5e                     ; 0x205e <lpstore+0x4>
    59e1: a5 56        	lda	$56                     ; 0x2056 <fourbytes>
    59e3: 29 0f        	and	#$f
    59e5: aa           	tax
    59e6: bd 59 7b     	lda	$7b59,x                 ; 0x7b59 <hexDigits>
    59e9: aa           	tax
    59ea: 86 5f        	stx	$5f                     ; 0x205f <lpstore+0x5>
    59ec: 64 60        	stz	$60                     ; 0x2060 <lpstore+0x6>
    59ee: a2 24        	ldx	#$24
    59f0: 86 5d        	stx	$5d                     ; 0x205d <lpstore+0x3>
    59f2: 20 66 68     	jsr	$6866 <cputs>
    59f5: a9 20        	lda	#$20
    59f7: 05 2b        	ora	$2b                     ; 0x202b <_start+0xa>
    59f9: 85 2b        	sta	$2b                     ; 0x202b <_start+0xa>
    59fb: a9 0c        	lda	#$c
    59fd: a2 01        	ldx	#$1
    59ff: 86 04        	stx	$4                      ; 0x2004 <__heap_default_limit+0x1004>
    5a01: a2 74        	ldx	#$74
    5a03: 86 05        	stx	$5                      ; 0x2005 <__heap_default_limit+0x1005>
    5a05: a2 0a        	ldx	#$a
    5a07: 20 64 57     	jsr	$5764 <mcputsxy>
    5a0a: a9 3c        	lda	#$3c
    5a0c: a2 8f        	ldx	#$8f
    5a0e: 86 04        	stx	$4                      ; 0x2004 <__heap_default_limit+0x1004>
    5a10: a2 74        	ldx	#$74
    5a12: 86 05        	stx	$5                      ; 0x2005 <__heap_default_limit+0x1005>
    5a14: a2 0a        	ldx	#$a
    5a16: 20 64 57     	jsr	$5764 <mcputsxy>
    5a19: a9 df        	lda	#$df
    5a1b: 25 2b        	and	$2b                     ; 0x202b <_start+0xa>
    5a1d: 85 2b        	sta	$2b                     ; 0x202b <_start+0xa>
    5a1f: a6 55        	ldx	$55                     ; 0x2055 <_fini+0xa>
    5a21: e0 02        	cpx	#$2
    5a23: f0 31        	beq	$5a56 <messagebox+0x151>
    5a25: e0 01        	cpx	#$1
    5a27: d0 1e        	bne	$5a47 <messagebox+0x142>
    5a29: a9 02        	lda	#$2
    5a2b: a2 a8        	ldx	#$a8
    5a2d: 86 04        	stx	$4                      ; 0x2004 <__heap_default_limit+0x1004>
    5a2f: a2 73        	ldx	#$73
    5a31: 86 05        	stx	$5                      ; 0x2005 <__heap_default_limit+0x1005>
    5a33: a2 01        	ldx	#$1
    5a35: 20 64 57     	jsr	$5764 <mcputsxy>
    5a38: a9 3a        	lda	#$3a
    5a3a: a2 ee        	ldx	#$ee
    5a3c: 86 04        	stx	$4                      ; 0x2004 <__heap_default_limit+0x1004>
    5a3e: a2 74        	ldx	#$74
    5a40: 86 05        	stx	$5                      ; 0x2005 <__heap_default_limit+0x1005>
    5a42: a2 01        	ldx	#$1
    5a44: 20 64 57     	jsr	$5764 <mcputsxy>
    5a47: 20 f2 69     	jsr	$69f2 <cgetc>
    5a4a: c9 03        	cmp	#$3
    5a4c: f0 0b        	beq	$5a59 <messagebox+0x154>
    5a4e: c9 1b        	cmp	#$1b
    5a50: f0 07        	beq	$5a59 <messagebox+0x154>
    5a52: c9 0d        	cmp	#$d
    5a54: d0 f1        	bne	$5a47 <messagebox+0x142>
    5a56: a9 01        	lda	#$1
    5a58: 60           	rts
    5a59: a9 00        	lda	#$0
    5a5b: 60           	rts

00005a5c <progress>:
    5a5c: 85 4d        	sta	$4d                     ; 0x204d <_fini+0x2>
    5a5e: a6 04        	ldx	$4                      ; 0x2004 <__heap_default_limit+0x1004>
    5a60: 86 49        	stx	$49                     ; 0x2049 <__after_main+0x1>
    5a62: a6 05        	ldx	$5                      ; 0x2005 <__heap_default_limit+0x1005>
    5a64: 86 4a        	stx	$4a                     ; 0x204a <__after_main+0x2>
    5a66: a6 06        	ldx	$6                      ; 0x2006 <__heap_default_limit+0x1006>
    5a68: 86 4b        	stx	$4b                     ; 0x204b <_fini>
    5a6a: a6 07        	ldx	$7                      ; 0x2007 <__heap_default_limit+0x1007>
    5a6c: 86 4c        	stx	$4c                     ; 0x204c <_fini+0x1>
    5a6e: a2 05        	ldx	#$5
    5a70: 86 04        	stx	$4                      ; 0x2004 <__heap_default_limit+0x1004>
    5a72: a2 7b        	ldx	#$7b
    5a74: 86 05        	stx	$5                      ; 0x2005 <__heap_default_limit+0x1005>
    5a76: 20 48 69     	jsr	$6948 <fillrect>
    5a79: a2 06        	ldx	#$6
    5a7b: a4 49        	ldy	$49                     ; 0x2049 <__after_main+0x1>
    5a7d: 84 04        	sty	$4                      ; 0x2004 <__heap_default_limit+0x1004>
    5a7f: a4 4a        	ldy	$4a                     ; 0x204a <__after_main+0x2>
    5a81: 84 05        	sty	$5                      ; 0x2005 <__heap_default_limit+0x1005>
    5a83: a4 4d        	ldy	$4d                     ; 0x204d <_fini+0x2>
    5a85: 84 49        	sty	$49                     ; 0x2049 <__after_main+0x1>
    5a87: a9 0c        	lda	#$c
    5a89: 20 64 57     	jsr	$5764 <mcputsxy>
    5a8c: a2 07        	ldx	#$7
    5a8e: a4 4b        	ldy	$4b                     ; 0x204b <_fini>
    5a90: 84 04        	sty	$4                      ; 0x2004 <__heap_default_limit+0x1004>
    5a92: a4 4c        	ldy	$4c                     ; 0x204c <_fini+0x1>
    5a94: 84 05        	sty	$5                      ; 0x2005 <__heap_default_limit+0x1005>
    5a96: a9 0c        	lda	#$c
    5a98: 20 64 57     	jsr	$5764 <mcputsxy>
    5a9b: a2 09        	ldx	#$9
    5a9d: a0 a0        	ldy	#$a0
    5a9f: 84 04        	sty	$4                      ; 0x2004 <__heap_default_limit+0x1004>
    5aa1: a9 0c        	lda	#$c
    5aa3: 20 c5 67     	jsr	$67c5 <cputcxy>
    5aa6: a5 49        	lda	$49                     ; 0x2049 <__after_main+0x1>
    5aa8: 4a           	lsr
    5aa9: 85 4a        	sta	$4a                     ; 0x204a <__after_main+0x2>
    5aab: a2 00        	ldx	#$0
    5aad: 80 14        	bra	$5ac3 <progress+0x67>
    5aaf: 86 4b        	stx	$4b                     ; 0x204b <_fini>
    5ab1: a9 01        	lda	#$1
    5ab3: 29 01        	and	#$1
    5ab5: a2 a0        	ldx	#$a0
    5ab7: a8           	tay
    5ab8: d0 02        	bne	$5abc <progress+0x60>
    5aba: a2 7b        	ldx	#$7b
    5abc: 8a           	txa
    5abd: 20 bc 67     	jsr	$67bc <cputc>
    5ac0: a6 4b        	ldx	$4b                     ; 0x204b <_fini>
    5ac2: e8           	inx
    5ac3: e0 32        	cpx	#$32
    5ac5: f0 0a        	beq	$5ad1 <progress+0x75>
    5ac7: e4 4a        	cpx	$4a                     ; 0x204a <__after_main+0x2>
    5ac9: 90 e4        	bcc	$5aaf <progress+0x53>
    5acb: 86 4b        	stx	$4b                     ; 0x204b <_fini>
    5acd: a9 00        	lda	#$0
    5acf: 80 e2        	bra	$5ab3 <progress+0x57>
    5ad1: a9 65        	lda	#$65
    5ad3: 20 bc 67     	jsr	$67bc <cputc>
    5ad6: a2 7e        	ldx	#$7e
    5ad8: 86 04        	stx	$4                      ; 0x2004 <__heap_default_limit+0x1004>
    5ada: a2 71        	ldx	#$71
    5adc: 86 05        	stx	$5                      ; 0x2005 <__heap_default_limit+0x1005>
    5ade: 20 a7 56     	jsr	$56a7 <asciitoscreencode_s>
    5ae1: a2 34        	ldx	#$34
    5ae3: 86 04        	stx	$4                      ; 0x2004 <__heap_default_limit+0x1004>
    5ae5: a2 03        	ldx	#$3
    5ae7: 86 05        	stx	$5                      ; 0x2005 <__heap_default_limit+0x1005>
    5ae9: 20 66 68     	jsr	$6866 <cputs>
    5aec: 64 06        	stz	$6                      ; 0x2006 <__heap_default_limit+0x1006>
    5aee: 64 04        	stz	$4                      ; 0x2004 <__heap_default_limit+0x1004>
    5af0: 64 05        	stz	$5                      ; 0x2005 <__heap_default_limit+0x1005>
    5af2: a2 00        	ldx	#$0
    5af4: a5 49        	lda	$49                     ; 0x2049 <__after_main+0x1>
    5af6: 20 e1 55     	jsr	$55e1 <csputdec>
    5af9: a9 25        	lda	#$25
    5afb: 20 bc 67     	jsr	$67bc <cputc>
    5afe: a9 0c        	lda	#$c
    5b00: a2 db        	ldx	#$db
    5b02: 86 04        	stx	$4                      ; 0x2004 <__heap_default_limit+0x1004>
    5b04: a2 77        	ldx	#$77
    5b06: 86 05        	stx	$5                      ; 0x2005 <__heap_default_limit+0x1005>
    5b08: a2 0a        	ldx	#$a
    5b0a: 20 64 57     	jsr	$5764 <mcputsxy>
    5b0d: a9 3c        	lda	#$3c
    5b0f: a2 db        	ldx	#$db
    5b11: 86 04        	stx	$4                      ; 0x2004 <__heap_default_limit+0x1004>
    5b13: a2 77        	ldx	#$77
    5b15: 86 05        	stx	$5                      ; 0x2005 <__heap_default_limit+0x1005>
    5b17: a2 0a        	ldx	#$a
    5b19: 4c 64 57     	jmp	$5764 <mcputsxy>

00005b1c <shortcutprint>:
    5b1c: 85 4a        	sta	$4a                     ; 0x204a <__after_main+0x2>
    5b1e: a6 06        	ldx	$6                      ; 0x2006 <__heap_default_limit+0x1006>
    5b20: 86 4c        	stx	$4c                     ; 0x204c <_fini+0x1>
    5b22: a6 07        	ldx	$7                      ; 0x2007 <__heap_default_limit+0x1007>
    5b24: 86 4d        	stx	$4d                     ; 0x204d <_fini+0x2>
    5b26: a6 2b        	ldx	$2b                     ; 0x202b <_start+0xa>
    5b28: 86 4b        	stx	$4b                     ; 0x204b <_fini>
    5b2a: a9 f0        	lda	#$f0
    5b2c: 25 2b        	and	$2b                     ; 0x202b <_start+0xa>
    5b2e: 09 01        	ora	#$1
    5b30: 85 2b        	sta	$2b                     ; 0x202b <_start+0xa>
    5b32: 20 56 57     	jsr	$5756 <msprintf>
    5b35: a5 4a        	lda	$4a                     ; 0x204a <__after_main+0x2>
    5b37: f0 04        	beq	$5b3d <shortcutprint+0x21>
    5b39: a2 03        	ldx	#$3
    5b3b: 80 02        	bra	$5b3f <shortcutprint+0x23>
    5b3d: a2 0c        	ldx	#$c
    5b3f: 86 04        	stx	$4                      ; 0x2004 <__heap_default_limit+0x1004>
    5b41: a5 4b        	lda	$4b                     ; 0x204b <_fini>
    5b43: 29 d0        	and	#$d0
    5b45: 05 04        	ora	$4                      ; 0x2004 <__heap_default_limit+0x1004>
    5b47: 85 4a        	sta	$4a                     ; 0x204a <__after_main+0x2>
    5b49: 09 20        	ora	#$20
    5b4b: 85 2b        	sta	$2b                     ; 0x202b <_start+0xa>
    5b4d: a6 4c        	ldx	$4c                     ; 0x204c <_fini+0x1>
    5b4f: 86 04        	stx	$4                      ; 0x2004 <__heap_default_limit+0x1004>
    5b51: a6 4d        	ldx	$4d                     ; 0x204d <_fini+0x2>
    5b53: 86 05        	stx	$5                      ; 0x2005 <__heap_default_limit+0x1005>
    5b55: 20 56 57     	jsr	$5756 <msprintf>
    5b58: a6 4a        	ldx	$4a                     ; 0x204a <__after_main+0x2>
    5b5a: 86 2b        	stx	$2b                     ; 0x202b <_start+0xa>
    5b5c: 60           	rts

00005b5d <shortcuts>:
    5b5d: 64 33        	stz	$33                     ; 0x2033 <__do_init_stack+0x4>
    5b5f: a0 18        	ldy	#$18
    5b61: 84 34        	sty	$34                     ; 0x2034 <__do_init_stack+0x5>
    5b63: a8           	tay
    5b64: 29 14        	and	#$14
    5b66: d0 03        	bne	$5b6b <shortcuts+0xe>
    5b68: 4c 39 5c     	jmp	$5c39 <shortcuts+0xdc>
    5b6b: a2 32        	ldx	#$32
    5b6d: 86 04        	stx	$4                      ; 0x2004 <__heap_default_limit+0x1004>
    5b6f: a2 73        	ldx	#$73
    5b71: 86 05        	stx	$5                      ; 0x2005 <__heap_default_limit+0x1005>
    5b73: a2 7f        	ldx	#$7f
    5b75: 86 06        	stx	$6                      ; 0x2006 <__heap_default_limit+0x1006>
    5b77: a2 75        	ldx	#$75
    5b79: 86 07        	stx	$7                      ; 0x2007 <__heap_default_limit+0x1007>
    5b7b: a9 00        	lda	#$0
    5b7d: 20 1c 5b     	jsr	$5b1c <shortcutprint>
    5b80: a2 e3        	ldx	#$e3
    5b82: 86 04        	stx	$4                      ; 0x2004 <__heap_default_limit+0x1004>
    5b84: a2 72        	ldx	#$72
    5b86: 86 05        	stx	$5                      ; 0x2005 <__heap_default_limit+0x1005>
    5b88: a2 ba        	ldx	#$ba
    5b8a: 86 06        	stx	$6                      ; 0x2006 <__heap_default_limit+0x1006>
    5b8c: a2 72        	ldx	#$72
    5b8e: 86 07        	stx	$7                      ; 0x2007 <__heap_default_limit+0x1007>
    5b90: a9 00        	lda	#$0
    5b92: 20 1c 5b     	jsr	$5b1c <shortcutprint>
    5b95: a2 86        	ldx	#$86
    5b97: 86 04        	stx	$4                      ; 0x2004 <__heap_default_limit+0x1004>
    5b99: a2 75        	ldx	#$75
    5b9b: 86 05        	stx	$5                      ; 0x2005 <__heap_default_limit+0x1005>
    5b9d: a2 35        	ldx	#$35
    5b9f: 86 06        	stx	$6                      ; 0x2006 <__heap_default_limit+0x1006>
    5ba1: a2 73        	ldx	#$73
    5ba3: 86 07        	stx	$7                      ; 0x2007 <__heap_default_limit+0x1007>
    5ba5: a9 00        	lda	#$0
    5ba7: 20 1c 5b     	jsr	$5b1c <shortcutprint>
    5baa: a2 fe        	ldx	#$fe
    5bac: 86 04        	stx	$4                      ; 0x2004 <__heap_default_limit+0x1004>
    5bae: a2 73        	ldx	#$73
    5bb0: 86 05        	stx	$5                      ; 0x2005 <__heap_default_limit+0x1005>
    5bb2: a2 03        	ldx	#$3
    5bb4: 86 06        	stx	$6                      ; 0x2006 <__heap_default_limit+0x1006>
    5bb6: a2 75        	ldx	#$75
    5bb8: 86 07        	stx	$7                      ; 0x2007 <__heap_default_limit+0x1007>
    5bba: a9 00        	lda	#$0
    5bbc: 20 1c 5b     	jsr	$5b1c <shortcutprint>
    5bbf: a2 5d        	ldx	#$5d
    5bc1: 86 04        	stx	$4                      ; 0x2004 <__heap_default_limit+0x1004>
    5bc3: a2 71        	ldx	#$71
    5bc5: 86 05        	stx	$5                      ; 0x2005 <__heap_default_limit+0x1005>
    5bc7: a2 65        	ldx	#$65
    5bc9: 86 06        	stx	$6                      ; 0x2006 <__heap_default_limit+0x1006>
    5bcb: a2 72        	ldx	#$72
    5bcd: 86 07        	stx	$7                      ; 0x2007 <__heap_default_limit+0x1007>
    5bcf: a9 00        	lda	#$0
    5bd1: 20 1c 5b     	jsr	$5b1c <shortcutprint>
    5bd4: a2 9e        	ldx	#$9e
    5bd6: 86 04        	stx	$4                      ; 0x2004 <__heap_default_limit+0x1004>
    5bd8: a2 73        	ldx	#$73
    5bda: 86 05        	stx	$5                      ; 0x2005 <__heap_default_limit+0x1005>
    5bdc: a2 fc        	ldx	#$fc
    5bde: 86 06        	stx	$6                      ; 0x2006 <__heap_default_limit+0x1006>
    5be0: a2 77        	ldx	#$77
    5be2: 86 07        	stx	$7                      ; 0x2007 <__heap_default_limit+0x1007>
    5be4: a9 00        	lda	#$0
    5be6: 20 1c 5b     	jsr	$5b1c <shortcutprint>
    5be9: a2 e4        	ldx	#$e4
    5beb: 86 04        	stx	$4                      ; 0x2004 <__heap_default_limit+0x1004>
    5bed: a2 77        	ldx	#$77
    5bef: 86 05        	stx	$5                      ; 0x2005 <__heap_default_limit+0x1005>
    5bf1: a2 92        	ldx	#$92
    5bf3: 86 06        	stx	$6                      ; 0x2006 <__heap_default_limit+0x1006>
    5bf5: a2 71        	ldx	#$71
    5bf7: 86 07        	stx	$7                      ; 0x2007 <__heap_default_limit+0x1007>
    5bf9: a9 00        	lda	#$0
    5bfb: 20 1c 5b     	jsr	$5b1c <shortcutprint>
    5bfe: a2 55        	ldx	#$55
    5c00: 86 04        	stx	$4                      ; 0x2004 <__heap_default_limit+0x1004>
    5c02: a2 79        	ldx	#$79
    5c04: 86 05        	stx	$5                      ; 0x2005 <__heap_default_limit+0x1005>
    5c06: a2 71        	ldx	#$71
    5c08: 86 06        	stx	$6                      ; 0x2006 <__heap_default_limit+0x1006>
    5c0a: a2 77        	ldx	#$77
    5c0c: 86 07        	stx	$7                      ; 0x2007 <__heap_default_limit+0x1007>
    5c0e: a9 00        	lda	#$0
    5c10: 20 1c 5b     	jsr	$5b1c <shortcutprint>
    5c13: a2 17        	ldx	#$17
    5c15: 86 04        	stx	$4                      ; 0x2004 <__heap_default_limit+0x1004>
    5c17: a2 76        	ldx	#$76
    5c19: 86 05        	stx	$5                      ; 0x2005 <__heap_default_limit+0x1005>
    5c1b: a2 4a        	ldx	#$4a
    5c1d: 86 06        	stx	$6                      ; 0x2006 <__heap_default_limit+0x1006>
    5c1f: a2 78        	ldx	#$78
    5c21: 86 07        	stx	$7                      ; 0x2007 <__heap_default_limit+0x1007>
    5c23: a9 00        	lda	#$0
    5c25: 20 1c 5b     	jsr	$5b1c <shortcutprint>
    5c28: a2 60        	ldx	#$60
    5c2a: 86 04        	stx	$4                      ; 0x2004 <__heap_default_limit+0x1004>
    5c2c: a2 71        	ldx	#$71
    5c2e: 86 05        	stx	$5                      ; 0x2005 <__heap_default_limit+0x1005>
    5c30: a2 1a        	ldx	#$1a
    5c32: 86 06        	stx	$6                      ; 0x2006 <__heap_default_limit+0x1006>
    5c34: a2 76        	ldx	#$76
    5c36: 4c 03 5e     	jmp	$5e03 <shortcuts+0x2a6>
    5c39: 98           	tya
    5c3a: 29 08        	and	#$8
    5c3c: f0 03        	beq	$5c41 <shortcuts+0xe4>
    5c3e: 4c 06 5d     	jmp	$5d06 <shortcuts+0x1a9>
    5c41: 98           	tya
    5c42: 29 03        	and	#$3
    5c44: d0 03        	bne	$5c49 <shortcuts+0xec>
    5c46: 4c 13 5e     	jmp	$5e13 <shortcuts+0x2b6>
    5c49: a2 32        	ldx	#$32
    5c4b: 86 04        	stx	$4                      ; 0x2004 <__heap_default_limit+0x1004>
    5c4d: a2 73        	ldx	#$73
    5c4f: 86 05        	stx	$5                      ; 0x2005 <__heap_default_limit+0x1005>
    5c51: a2 ba        	ldx	#$ba
    5c53: 86 06        	stx	$6                      ; 0x2006 <__heap_default_limit+0x1006>
    5c55: a2 72        	ldx	#$72
    5c57: 86 07        	stx	$7                      ; 0x2007 <__heap_default_limit+0x1007>
    5c59: a9 01        	lda	#$1
    5c5b: 20 1c 5b     	jsr	$5b1c <shortcutprint>
    5c5e: a2 e3        	ldx	#$e3
    5c60: 86 04        	stx	$4                      ; 0x2004 <__heap_default_limit+0x1004>
    5c62: a2 72        	ldx	#$72
    5c64: 86 05        	stx	$5                      ; 0x2005 <__heap_default_limit+0x1005>
    5c66: a2 d4        	ldx	#$d4
    5c68: 86 06        	stx	$6                      ; 0x2006 <__heap_default_limit+0x1006>
    5c6a: a2 73        	ldx	#$73
    5c6c: 86 07        	stx	$7                      ; 0x2007 <__heap_default_limit+0x1007>
    5c6e: a9 00        	lda	#$0
    5c70: 20 1c 5b     	jsr	$5b1c <shortcutprint>
    5c73: a2 86        	ldx	#$86
    5c75: 86 04        	stx	$4                      ; 0x2004 <__heap_default_limit+0x1004>
    5c77: a2 75        	ldx	#$75
    5c79: 86 05        	stx	$5                      ; 0x2005 <__heap_default_limit+0x1005>
    5c7b: a2 03        	ldx	#$3
    5c7d: 86 06        	stx	$6                      ; 0x2006 <__heap_default_limit+0x1006>
    5c7f: a2 75        	ldx	#$75
    5c81: 86 07        	stx	$7                      ; 0x2007 <__heap_default_limit+0x1007>
    5c83: a9 00        	lda	#$0
    5c85: 20 1c 5b     	jsr	$5b1c <shortcutprint>
    5c88: a2 fe        	ldx	#$fe
    5c8a: 86 04        	stx	$4                      ; 0x2004 <__heap_default_limit+0x1004>
    5c8c: a2 73        	ldx	#$73
    5c8e: 86 05        	stx	$5                      ; 0x2005 <__heap_default_limit+0x1005>
    5c90: a2 d4        	ldx	#$d4
    5c92: 86 06        	stx	$6                      ; 0x2006 <__heap_default_limit+0x1006>
    5c94: a2 73        	ldx	#$73
    5c96: 86 07        	stx	$7                      ; 0x2007 <__heap_default_limit+0x1007>
    5c98: a9 00        	lda	#$0
    5c9a: 20 1c 5b     	jsr	$5b1c <shortcutprint>
    5c9d: a2 5d        	ldx	#$5d
    5c9f: 86 04        	stx	$4                      ; 0x2004 <__heap_default_limit+0x1004>
    5ca1: a2 71        	ldx	#$71
    5ca3: 86 05        	stx	$5                      ; 0x2005 <__heap_default_limit+0x1005>
    5ca5: a2 fc        	ldx	#$fc
    5ca7: 86 06        	stx	$6                      ; 0x2006 <__heap_default_limit+0x1006>
    5ca9: a2 77        	ldx	#$77
    5cab: 86 07        	stx	$7                      ; 0x2007 <__heap_default_limit+0x1007>
    5cad: a9 00        	lda	#$0
    5caf: 20 1c 5b     	jsr	$5b1c <shortcutprint>
    5cb2: a2 9e        	ldx	#$9e
    5cb4: 86 04        	stx	$4                      ; 0x2004 <__heap_default_limit+0x1004>
    5cb6: a2 73        	ldx	#$73
    5cb8: 86 05        	stx	$5                      ; 0x2005 <__heap_default_limit+0x1005>
    5cba: a2 d4        	ldx	#$d4
    5cbc: 86 06        	stx	$6                      ; 0x2006 <__heap_default_limit+0x1006>
    5cbe: a2 73        	ldx	#$73
    5cc0: 86 07        	stx	$7                      ; 0x2007 <__heap_default_limit+0x1007>
    5cc2: a9 00        	lda	#$0
    5cc4: 20 1c 5b     	jsr	$5b1c <shortcutprint>
    5cc7: a2 e4        	ldx	#$e4
    5cc9: 86 04        	stx	$4                      ; 0x2004 <__heap_default_limit+0x1004>
    5ccb: a2 77        	ldx	#$77
    5ccd: 86 05        	stx	$5                      ; 0x2005 <__heap_default_limit+0x1005>
    5ccf: a2 71        	ldx	#$71
    5cd1: 86 06        	stx	$6                      ; 0x2006 <__heap_default_limit+0x1006>
    5cd3: a2 77        	ldx	#$77
    5cd5: 86 07        	stx	$7                      ; 0x2007 <__heap_default_limit+0x1007>
    5cd7: a9 01        	lda	#$1
    5cd9: 20 1c 5b     	jsr	$5b1c <shortcutprint>
    5cdc: a2 55        	ldx	#$55
    5cde: 86 04        	stx	$4                      ; 0x2004 <__heap_default_limit+0x1004>
    5ce0: a2 79        	ldx	#$79
    5ce2: 86 05        	stx	$5                      ; 0x2005 <__heap_default_limit+0x1005>
    5ce4: a2 d4        	ldx	#$d4
    5ce6: 86 06        	stx	$6                      ; 0x2006 <__heap_default_limit+0x1006>
    5ce8: a2 73        	ldx	#$73
    5cea: 86 07        	stx	$7                      ; 0x2007 <__heap_default_limit+0x1007>
    5cec: a9 00        	lda	#$0
    5cee: 20 1c 5b     	jsr	$5b1c <shortcutprint>
    5cf1: a2 17        	ldx	#$17
    5cf3: 86 04        	stx	$4                      ; 0x2004 <__heap_default_limit+0x1004>
    5cf5: a2 76        	ldx	#$76
    5cf7: 86 05        	stx	$5                      ; 0x2005 <__heap_default_limit+0x1005>
    5cf9: a2 5f        	ldx	#$5f
    5cfb: 86 06        	stx	$6                      ; 0x2006 <__heap_default_limit+0x1006>
    5cfd: a2 79        	ldx	#$79
    5cff: 86 07        	stx	$7                      ; 0x2007 <__heap_default_limit+0x1007>
    5d01: a9 01        	lda	#$1
    5d03: 4c f2 5d     	jmp	$5df2 <shortcuts+0x295>
    5d06: a9 01        	lda	#$1
    5d08: 86 49        	stx	$49                     ; 0x2049 <__after_main+0x1>
    5d0a: a2 32        	ldx	#$32
    5d0c: 86 04        	stx	$4                      ; 0x2004 <__heap_default_limit+0x1004>
    5d0e: a2 73        	ldx	#$73
    5d10: 86 05        	stx	$5                      ; 0x2005 <__heap_default_limit+0x1005>
    5d12: a2 37        	ldx	#$37
    5d14: 86 06        	stx	$6                      ; 0x2006 <__heap_default_limit+0x1006>
    5d16: a2 75        	ldx	#$75
    5d18: 86 07        	stx	$7                      ; 0x2007 <__heap_default_limit+0x1007>
    5d1a: 20 1c 5b     	jsr	$5b1c <shortcutprint>
    5d1d: a2 e3        	ldx	#$e3
    5d1f: 86 04        	stx	$4                      ; 0x2004 <__heap_default_limit+0x1004>
    5d21: a2 72        	ldx	#$72
    5d23: 86 05        	stx	$5                      ; 0x2005 <__heap_default_limit+0x1005>
    5d25: a2 d4        	ldx	#$d4
    5d27: 86 06        	stx	$6                      ; 0x2006 <__heap_default_limit+0x1006>
    5d29: a2 73        	ldx	#$73
    5d2b: 86 07        	stx	$7                      ; 0x2007 <__heap_default_limit+0x1007>
    5d2d: a9 00        	lda	#$0
    5d2f: 20 1c 5b     	jsr	$5b1c <shortcutprint>
    5d32: a2 86        	ldx	#$86
    5d34: 86 04        	stx	$4                      ; 0x2004 <__heap_default_limit+0x1004>
    5d36: a2 75        	ldx	#$75
    5d38: 86 05        	stx	$5                      ; 0x2005 <__heap_default_limit+0x1005>
    5d3a: a2 20        	ldx	#$20
    5d3c: 86 06        	stx	$6                      ; 0x2006 <__heap_default_limit+0x1006>
    5d3e: a2 76        	ldx	#$76
    5d40: 86 07        	stx	$7                      ; 0x2007 <__heap_default_limit+0x1007>
    5d42: a9 01        	lda	#$1
    5d44: 20 1c 5b     	jsr	$5b1c <shortcutprint>
    5d47: a2 fe        	ldx	#$fe
    5d49: 86 04        	stx	$4                      ; 0x2004 <__heap_default_limit+0x1004>
    5d4b: a2 73        	ldx	#$73
    5d4d: 86 05        	stx	$5                      ; 0x2005 <__heap_default_limit+0x1005>
    5d4f: a2 d4        	ldx	#$d4
    5d51: 86 06        	stx	$6                      ; 0x2006 <__heap_default_limit+0x1006>
    5d53: a2 73        	ldx	#$73
    5d55: 86 07        	stx	$7                      ; 0x2007 <__heap_default_limit+0x1007>
    5d57: a9 00        	lda	#$0
    5d59: 20 1c 5b     	jsr	$5b1c <shortcutprint>
    5d5c: a6 49        	ldx	$49                     ; 0x2049 <__after_main+0x1>
    5d5e: 86 04        	stx	$4                      ; 0x2004 <__heap_default_limit+0x1004>
    5d60: 06 04        	asl	$4                      ; 0x2004 <__heap_default_limit+0x1004>
    5d62: 64 05        	stz	$5                      ; 0x2005 <__heap_default_limit+0x1005>
    5d64: 26 05        	rol	$5                      ; 0x2005 <__heap_default_limit+0x1005>
    5d66: a9 27        	lda	#$27
    5d68: 18           	clc
    5d69: 65 04        	adc	$4                      ; 0x2004 <__heap_default_limit+0x1004>
    5d6b: 85 04        	sta	$4                      ; 0x2004 <__heap_default_limit+0x1004>
    5d6d: a9 00        	lda	#$0
    5d6f: 65 05        	adc	$5                      ; 0x2005 <__heap_default_limit+0x1005>
    5d71: 85 05        	sta	$5                      ; 0x2005 <__heap_default_limit+0x1005>
    5d73: b2 04        	lda	($4),z                  ; 0x2004 <__heap_default_limit+0x1004>
    5d75: aa           	tax
    5d76: a0 01        	ldy	#$1
    5d78: b1 04        	lda	($4),y                  ; 0x2004 <__heap_default_limit+0x1004>
    5d7a: 86 04        	stx	$4                      ; 0x2004 <__heap_default_limit+0x1004>
    5d7c: 85 05        	sta	$5                      ; 0x2005 <__heap_default_limit+0x1005>
    5d7e: a0 47        	ldy	#$47
    5d80: b1 04        	lda	($4),y                  ; 0x2004 <__heap_default_limit+0x1004>
    5d82: 85 04        	sta	$4                      ; 0x2004 <__heap_default_limit+0x1004>
    5d84: a9 01        	lda	#$1
    5d86: a6 04        	ldx	$4                      ; 0x2004 <__heap_default_limit+0x1004>
    5d88: e0 28        	cpx	#$28
    5d8a: f0 02        	beq	$5d8e <shortcuts+0x231>
    5d8c: a9 00        	lda	#$0
    5d8e: a2 5d        	ldx	#$5d
    5d90: 86 04        	stx	$4                      ; 0x2004 <__heap_default_limit+0x1004>
    5d92: a2 71        	ldx	#$71
    5d94: 86 05        	stx	$5                      ; 0x2005 <__heap_default_limit+0x1005>
    5d96: a2 a1        	ldx	#$a1
    5d98: 86 06        	stx	$6                      ; 0x2006 <__heap_default_limit+0x1006>
    5d9a: a2 73        	ldx	#$73
    5d9c: 86 07        	stx	$7                      ; 0x2007 <__heap_default_limit+0x1007>
    5d9e: 20 1c 5b     	jsr	$5b1c <shortcutprint>
    5da1: a2 9e        	ldx	#$9e
    5da3: 86 04        	stx	$4                      ; 0x2004 <__heap_default_limit+0x1004>
    5da5: a2 73        	ldx	#$73
    5da7: 86 05        	stx	$5                      ; 0x2005 <__heap_default_limit+0x1005>
    5da9: a2 d4        	ldx	#$d4
    5dab: 86 06        	stx	$6                      ; 0x2006 <__heap_default_limit+0x1006>
    5dad: a2 73        	ldx	#$73
    5daf: 86 07        	stx	$7                      ; 0x2007 <__heap_default_limit+0x1007>
    5db1: a9 00        	lda	#$0
    5db3: 20 1c 5b     	jsr	$5b1c <shortcutprint>
    5db6: a9 01        	lda	#$1
    5db8: a2 e4        	ldx	#$e4
    5dba: 86 04        	stx	$4                      ; 0x2004 <__heap_default_limit+0x1004>
    5dbc: a2 77        	ldx	#$77
    5dbe: 86 05        	stx	$5                      ; 0x2005 <__heap_default_limit+0x1005>
    5dc0: a2 b3        	ldx	#$b3
    5dc2: 86 06        	stx	$6                      ; 0x2006 <__heap_default_limit+0x1006>
    5dc4: a2 79        	ldx	#$79
    5dc6: 86 07        	stx	$7                      ; 0x2007 <__heap_default_limit+0x1007>
    5dc8: 20 1c 5b     	jsr	$5b1c <shortcutprint>
    5dcb: a2 55        	ldx	#$55
    5dcd: 86 04        	stx	$4                      ; 0x2004 <__heap_default_limit+0x1004>
    5dcf: a2 79        	ldx	#$79
    5dd1: 86 05        	stx	$5                      ; 0x2005 <__heap_default_limit+0x1005>
    5dd3: a2 58        	ldx	#$58
    5dd5: 86 06        	stx	$6                      ; 0x2006 <__heap_default_limit+0x1006>
    5dd7: a2 79        	ldx	#$79
    5dd9: 86 07        	stx	$7                      ; 0x2007 <__heap_default_limit+0x1007>
    5ddb: a9 00        	lda	#$0
    5ddd: 20 1c 5b     	jsr	$5b1c <shortcutprint>
    5de0: a2 17        	ldx	#$17
    5de2: 86 04        	stx	$4                      ; 0x2004 <__heap_default_limit+0x1004>
    5de4: a2 76        	ldx	#$76
    5de6: 86 05        	stx	$5                      ; 0x2005 <__heap_default_limit+0x1005>
    5de8: a2 d4        	ldx	#$d4
    5dea: 86 06        	stx	$6                      ; 0x2006 <__heap_default_limit+0x1006>
    5dec: a2 73        	ldx	#$73
    5dee: 86 07        	stx	$7                      ; 0x2007 <__heap_default_limit+0x1007>
    5df0: a9 00        	lda	#$0
    5df2: 20 1c 5b     	jsr	$5b1c <shortcutprint>
    5df5: a2 60        	ldx	#$60
    5df7: 86 04        	stx	$4                      ; 0x2004 <__heap_default_limit+0x1004>
    5df9: a2 71        	ldx	#$71
    5dfb: 86 05        	stx	$5                      ; 0x2005 <__heap_default_limit+0x1005>
    5dfd: a2 3e        	ldx	#$3e
    5dff: 86 06        	stx	$6                      ; 0x2006 <__heap_default_limit+0x1006>
    5e01: a2 75        	ldx	#$75
    5e03: 86 07        	stx	$7                      ; 0x2007 <__heap_default_limit+0x1007>
    5e05: a9 00        	lda	#$0
    5e07: 20 1c 5b     	jsr	$5b1c <shortcutprint>
    5e0a: a9 f0        	lda	#$f0
    5e0c: 25 2b        	and	$2b                     ; 0x202b <_start+0xa>
    5e0e: 09 03        	ora	#$3
    5e10: 85 2b        	sta	$2b                     ; 0x202b <_start+0xa>
    5e12: 60           	rts
    5e13: a2 32        	ldx	#$32
    5e15: 86 04        	stx	$4                      ; 0x2004 <__heap_default_limit+0x1004>
    5e17: a2 73        	ldx	#$73
    5e19: 86 05        	stx	$5                      ; 0x2005 <__heap_default_limit+0x1005>
    5e1b: a2 7f        	ldx	#$7f
    5e1d: 86 06        	stx	$6                      ; 0x2006 <__heap_default_limit+0x1006>
    5e1f: a2 75        	ldx	#$75
    5e21: 86 07        	stx	$7                      ; 0x2007 <__heap_default_limit+0x1007>
    5e23: a9 01        	lda	#$1
    5e25: 20 1c 5b     	jsr	$5b1c <shortcutprint>
    5e28: a2 e3        	ldx	#$e3
    5e2a: 86 04        	stx	$4                      ; 0x2004 <__heap_default_limit+0x1004>
    5e2c: a2 72        	ldx	#$72
    5e2e: 86 05        	stx	$5                      ; 0x2005 <__heap_default_limit+0x1005>
    5e30: a2 ba        	ldx	#$ba
    5e32: 86 06        	stx	$6                      ; 0x2006 <__heap_default_limit+0x1006>
    5e34: a2 72        	ldx	#$72
    5e36: 86 07        	stx	$7                      ; 0x2007 <__heap_default_limit+0x1007>
    5e38: a9 01        	lda	#$1
    5e3a: 20 1c 5b     	jsr	$5b1c <shortcutprint>
    5e3d: a2 86        	ldx	#$86
    5e3f: 86 04        	stx	$4                      ; 0x2004 <__heap_default_limit+0x1004>
    5e41: a2 75        	ldx	#$75
    5e43: 86 05        	stx	$5                      ; 0x2005 <__heap_default_limit+0x1005>
    5e45: a2 35        	ldx	#$35
    5e47: 86 06        	stx	$6                      ; 0x2006 <__heap_default_limit+0x1006>
    5e49: a2 73        	ldx	#$73
    5e4b: 86 07        	stx	$7                      ; 0x2007 <__heap_default_limit+0x1007>
    5e4d: a9 00        	lda	#$0
    5e4f: 20 1c 5b     	jsr	$5b1c <shortcutprint>
    5e52: a2 fe        	ldx	#$fe
    5e54: 86 04        	stx	$4                      ; 0x2004 <__heap_default_limit+0x1004>
    5e56: a2 73        	ldx	#$73
    5e58: 86 05        	stx	$5                      ; 0x2005 <__heap_default_limit+0x1005>
    5e5a: a2 03        	ldx	#$3
    5e5c: 86 06        	stx	$6                      ; 0x2006 <__heap_default_limit+0x1006>
    5e5e: a2 75        	ldx	#$75
    5e60: 86 07        	stx	$7                      ; 0x2007 <__heap_default_limit+0x1007>
    5e62: a9 00        	lda	#$0
    5e64: 20 1c 5b     	jsr	$5b1c <shortcutprint>
    5e67: a2 5d        	ldx	#$5d
    5e69: 86 04        	stx	$4                      ; 0x2004 <__heap_default_limit+0x1004>
    5e6b: a2 71        	ldx	#$71
    5e6d: 86 05        	stx	$5                      ; 0x2005 <__heap_default_limit+0x1005>
    5e6f: a2 65        	ldx	#$65
    5e71: 86 06        	stx	$6                      ; 0x2006 <__heap_default_limit+0x1006>
    5e73: a2 72        	ldx	#$72
    5e75: 86 07        	stx	$7                      ; 0x2007 <__heap_default_limit+0x1007>
    5e77: a9 01        	lda	#$1
    5e79: 20 1c 5b     	jsr	$5b1c <shortcutprint>
    5e7c: a2 9e        	ldx	#$9e
    5e7e: 86 04        	stx	$4                      ; 0x2004 <__heap_default_limit+0x1004>
    5e80: a2 73        	ldx	#$73
    5e82: 86 05        	stx	$5                      ; 0x2005 <__heap_default_limit+0x1005>
    5e84: a2 fc        	ldx	#$fc
    5e86: 86 06        	stx	$6                      ; 0x2006 <__heap_default_limit+0x1006>
    5e88: a2 77        	ldx	#$77
    5e8a: 86 07        	stx	$7                      ; 0x2007 <__heap_default_limit+0x1007>
    5e8c: a9 00        	lda	#$0
    5e8e: 20 1c 5b     	jsr	$5b1c <shortcutprint>
    5e91: a2 e4        	ldx	#$e4
    5e93: 86 04        	stx	$4                      ; 0x2004 <__heap_default_limit+0x1004>
    5e95: a2 77        	ldx	#$77
    5e97: 86 05        	stx	$5                      ; 0x2005 <__heap_default_limit+0x1005>
    5e99: a2 92        	ldx	#$92
    5e9b: 86 06        	stx	$6                      ; 0x2006 <__heap_default_limit+0x1006>
    5e9d: a2 71        	ldx	#$71
    5e9f: 86 07        	stx	$7                      ; 0x2007 <__heap_default_limit+0x1007>
    5ea1: a9 00        	lda	#$0
    5ea3: 20 1c 5b     	jsr	$5b1c <shortcutprint>
    5ea6: a2 55        	ldx	#$55
    5ea8: 86 04        	stx	$4                      ; 0x2004 <__heap_default_limit+0x1004>
    5eaa: a2 79        	ldx	#$79
    5eac: 86 05        	stx	$5                      ; 0x2005 <__heap_default_limit+0x1005>
    5eae: a2 71        	ldx	#$71
    5eb0: 86 06        	stx	$6                      ; 0x2006 <__heap_default_limit+0x1006>
    5eb2: a2 77        	ldx	#$77
    5eb4: 86 07        	stx	$7                      ; 0x2007 <__heap_default_limit+0x1007>
    5eb6: a9 01        	lda	#$1
    5eb8: 20 1c 5b     	jsr	$5b1c <shortcutprint>
    5ebb: a2 17        	ldx	#$17
    5ebd: 86 04        	stx	$4                      ; 0x2004 <__heap_default_limit+0x1004>
    5ebf: a2 76        	ldx	#$76
    5ec1: 86 05        	stx	$5                      ; 0x2005 <__heap_default_limit+0x1005>
    5ec3: a2 4a        	ldx	#$4a
    5ec5: 86 06        	stx	$6                      ; 0x2006 <__heap_default_limit+0x1006>
    5ec7: a2 78        	ldx	#$78
    5ec9: 86 07        	stx	$7                      ; 0x2007 <__heap_default_limit+0x1007>
    5ecb: a9 01        	lda	#$1
    5ecd: 20 1c 5b     	jsr	$5b1c <shortcutprint>
    5ed0: a2 60        	ldx	#$60
    5ed2: 86 04        	stx	$4                      ; 0x2004 <__heap_default_limit+0x1004>
    5ed4: a2 71        	ldx	#$71
    5ed6: 86 05        	stx	$5                      ; 0x2005 <__heap_default_limit+0x1005>
    5ed8: a2 1a        	ldx	#$1a
    5eda: 86 06        	stx	$6                      ; 0x2006 <__heap_default_limit+0x1006>
    5edc: a2 76        	ldx	#$76
    5ede: 86 07        	stx	$7                      ; 0x2007 <__heap_default_limit+0x1007>
    5ee0: a9 01        	lda	#$1
    5ee2: 4c 07 5e     	jmp	$5e07 <shortcuts+0x2aa>

00005ee5 <optionstring>:
    5ee5: 86 08        	stx	$8                      ; 0x2008 <__heap_default_limit+0x1008>
    5ee7: a6 06        	ldx	$6                      ; 0x2006 <__heap_default_limit+0x1006>
    5ee9: 25 08        	and	$8                      ; 0x2008 <__heap_default_limit+0x1008>
    5eeb: f0 04        	beq	$5ef1 <optionstring+0xc>
    5eed: a0 2a        	ldy	#$2a
    5eef: 80 02        	bra	$5ef3 <optionstring+0xe>
    5ef1: a0 6f        	ldy	#$6f
    5ef3: 8c 8a 7b     	sty	$7b8a                   ; 0x7b8a <s>
    5ef6: a0 20        	ldy	#$20
    5ef8: 8c 8b 7b     	sty	$7b8b                   ; 0x7b8b <s+0x1>
    5efb: a9 3e        	lda	#$3e
    5efd: e4 07        	cpx	$7                      ; 0x2007 <__heap_default_limit+0x1007>
    5eff: f0 02        	beq	$5f03 <optionstring+0x1e>
    5f01: a9 20        	lda	#$20
    5f03: 8d 8c 7b     	sta	$7b8c                   ; 0x7b8c <s+0x2>
    5f06: 8c 8d 7b     	sty	$7b8d                   ; 0x7b8d <s+0x3>
    5f09: a0 00        	ldy	#$0
    5f0b: 80 04        	bra	$5f11 <optionstring+0x2c>
    5f0d: 99 8e 7b     	sta	$7b8e,y                 ; 0x7b8e <s+0x4>
    5f10: c8           	iny
    5f11: b1 04        	lda	($4),y                  ; 0x2004 <__heap_default_limit+0x1004>
    5f13: f0 04        	beq	$5f19 <optionstring+0x34>
    5f15: c0 28        	cpy	#$28
    5f17: 90 f4        	bcc	$5f0d <optionstring+0x28>
    5f19: 38           	sec
    5f1a: a9 10        	lda	#$10
    5f1c: 84 04        	sty	$4                      ; 0x2004 <__heap_default_limit+0x1004>
    5f1e: e5 04        	sbc	$4                      ; 0x2004 <__heap_default_limit+0x1004>
    5f20: 90 04        	bcc	$5f26 <optionstring+0x41>
    5f22: 85 05        	sta	$5                      ; 0x2005 <__heap_default_limit+0x1005>
    5f24: 80 02        	bra	$5f28 <optionstring+0x43>
    5f26: 64 05        	stz	$5                      ; 0x2005 <__heap_default_limit+0x1005>
    5f28: 64 04        	stz	$4                      ; 0x2004 <__heap_default_limit+0x1004>
    5f2a: 80 13        	bra	$5f3f <optionstring+0x5a>
    5f2c: a9 8e        	lda	#$8e
    5f2e: 18           	clc
    5f2f: 65 04        	adc	$4                      ; 0x2004 <__heap_default_limit+0x1004>
    5f31: 85 08        	sta	$8                      ; 0x2008 <__heap_default_limit+0x1008>
    5f33: a9 7b        	lda	#$7b
    5f35: 69 00        	adc	#$0
    5f37: 85 09        	sta	$9                      ; 0x2009 <__heap_default_limit+0x1009>
    5f39: a9 20        	lda	#$20
    5f3b: 91 08        	sta	($8),y                  ; 0x2008 <__heap_default_limit+0x1008>
    5f3d: e6 04        	inc	$4                      ; 0x2004 <__heap_default_limit+0x1004>
    5f3f: a5 05        	lda	$5                      ; 0x2005 <__heap_default_limit+0x1005>
    5f41: c5 04        	cmp	$4                      ; 0x2004 <__heap_default_limit+0x1004>
    5f43: d0 e7        	bne	$5f2c <optionstring+0x47>
    5f45: c0 11        	cpy	#$11
    5f47: b0 02        	bcs	$5f4b <optionstring+0x66>
    5f49: a0 10        	ldy	#$10
    5f4b: 84 04        	sty	$4                      ; 0x2004 <__heap_default_limit+0x1004>
    5f4d: 98           	tya
    5f4e: 18           	clc
    5f4f: 69 04        	adc	#$4
    5f51: a8           	tay
    5f52: a9 20        	lda	#$20
    5f54: 99 8a 7b     	sta	$7b8a,y                 ; 0x7b8a <s>
    5f57: 18           	clc
    5f58: a5 04        	lda	$4                      ; 0x2004 <__heap_default_limit+0x1004>
    5f5a: 69 05        	adc	#$5
    5f5c: a8           	tay
    5f5d: a9 3c        	lda	#$3c
    5f5f: e4 07        	cpx	$7                      ; 0x2007 <__heap_default_limit+0x1007>
    5f61: f0 02        	beq	$5f65 <optionstring+0x80>
    5f63: a9 20        	lda	#$20
    5f65: 99 8a 7b     	sta	$7b8a,y                 ; 0x7b8a <s>
    5f68: 18           	clc
    5f69: a5 04        	lda	$4                      ; 0x2004 <__heap_default_limit+0x1004>
    5f6b: 69 06        	adc	#$6
    5f6d: aa           	tax
    5f6e: 9e 8a 7b     	stz	$7b8a,x                 ; 0x7b8a <s>
    5f71: a5 07        	lda	$7                      ; 0x2007 <__heap_default_limit+0x1007>
    5f73: 18           	clc
    5f74: 69 06        	adc	#$6
    5f76: a2 8a        	ldx	#$8a
    5f78: 86 04        	stx	$4                      ; 0x2004 <__heap_default_limit+0x1004>
    5f7a: a2 7b        	ldx	#$7b
    5f7c: 86 05        	stx	$5                      ; 0x2005 <__heap_default_limit+0x1005>
    5f7e: aa           	tax
    5f7f: a9 0c        	lda	#$c
    5f81: 4c 64 57     	jmp	$5764 <mcputsxy>

00005f84 <UpdateSectors>:
    5f84: 48           	pha
    5f85: 18           	clc
    5f86: a5 02        	lda	$2                      ; 0x2002 <__heap_default_limit+0x1002>
    5f88: 69 f1        	adc	#$f1
    5f8a: 85 02        	sta	$2                      ; 0x2002 <__heap_default_limit+0x1002>
    5f8c: a5 03        	lda	$3                      ; 0x2003 <__heap_default_limit+0x1003>
    5f8e: 69 ff        	adc	#$ff
    5f90: 85 03        	sta	$3                      ; 0x2003 <__heap_default_limit+0x1003>
    5f92: 68           	pla
    5f93: a4 16        	ldy	$16                     ; 0x2016 <next_line+0x1>
    5f95: 5a           	phy
    5f96: a4 17        	ldy	$17                     ; 0x2017 <next_line+0x2>
    5f98: 5a           	phy
    5f99: a4 18        	ldy	$18                     ; 0x2018 <next_line+0x3>
    5f9b: 5a           	phy
    5f9c: a4 19        	ldy	$19                     ; 0x2019 <next_line+0x4>
    5f9e: 5a           	phy
    5f9f: 48           	pha
    5fa0: a5 1a        	lda	$1a                     ; 0x201a <next_line+0x5>
    5fa2: a0 07        	ldy	#$7
    5fa4: 91 02        	sta	($2),y                  ; 0x2002 <__heap_default_limit+0x1002>
    5fa6: a5 1b        	lda	$1b                     ; 0x201b <next_line+0x6>
    5fa8: 88           	dey
    5fa9: 91 02        	sta	($2),y                  ; 0x2002 <__heap_default_limit+0x1002>
    5fab: a5 1c        	lda	$1c                     ; 0x201c <next_line+0x7>
    5fad: 88           	dey
    5fae: 91 02        	sta	($2),y                  ; 0x2002 <__heap_default_limit+0x1002>
    5fb0: a5 1d        	lda	$1d                     ; 0x201d <next_line+0x8>
    5fb2: 88           	dey
    5fb3: 91 02        	sta	($2),y                  ; 0x2002 <__heap_default_limit+0x1002>
    5fb5: a5 1e        	lda	$1e                     ; 0x201e <next_line+0x9>
    5fb7: 88           	dey
    5fb8: 91 02        	sta	($2),y                  ; 0x2002 <__heap_default_limit+0x1002>
    5fba: a5 1f        	lda	$1f                     ; 0x201f <next_line+0xa>
    5fbc: 88           	dey
    5fbd: 91 02        	sta	($2),y                  ; 0x2002 <__heap_default_limit+0x1002>
    5fbf: a5 20        	lda	$20                     ; 0x2020 <next_line+0xb>
    5fc1: 88           	dey
    5fc2: 91 02        	sta	($2),y                  ; 0x2002 <__heap_default_limit+0x1002>
    5fc4: a5 21        	lda	$21                     ; 0x2021 <_start>
    5fc6: 88           	dey
    5fc7: 91 02        	sta	($2),y                  ; 0x2002 <__heap_default_limit+0x1002>
    5fc9: 68           	pla
    5fca: 85 16        	sta	$16                     ; 0x2016 <next_line+0x1>
    5fcc: 86 1e        	stx	$1e                     ; 0x201e <next_line+0x9>
    5fce: 98           	tya
    5fcf: 86 17        	stx	$17                     ; 0x2017 <next_line+0x2>
    5fd1: 06 17        	asl	$17                     ; 0x2017 <next_line+0x2>
    5fd3: 48           	pha
    5fd4: 1a           	inc
    5fd5: b0 02        	bcs	$5fd9 <UpdateSectors+0x55>
    5fd7: a9 00        	lda	#$0
    5fd9: a0 09        	ldy	#$9
    5fdb: 91 02        	sta	($2),y                  ; 0x2002 <__heap_default_limit+0x1002>
    5fdd: 68           	pla
    5fde: 2a           	rol
    5fdf: 85 04        	sta	$4                      ; 0x2004 <__heap_default_limit+0x1004>
    5fe1: a9 27        	lda	#$27
    5fe3: 18           	clc
    5fe4: 65 17        	adc	$17                     ; 0x2017 <next_line+0x2>
    5fe6: aa           	tax
    5fe7: a9 00        	lda	#$0
    5fe9: 65 04        	adc	$4                      ; 0x2004 <__heap_default_limit+0x1004>
    5feb: a4 17        	ldy	$17                     ; 0x2017 <next_line+0x2>
    5fed: 84 06        	sty	$6                      ; 0x2006 <__heap_default_limit+0x1006>
    5fef: 06 06        	asl	$6                      ; 0x2006 <__heap_default_limit+0x1006>
    5ff1: 48           	pha
    5ff2: a9 01        	lda	#$1
    5ff4: b0 02        	bcs	$5ff8 <UpdateSectors+0x74>
    5ff6: a9 00        	lda	#$0
    5ff8: a0 08        	ldy	#$8
    5ffa: 91 02        	sta	($2),y                  ; 0x2002 <__heap_default_limit+0x1002>
    5ffc: a4 04        	ldy	$4                      ; 0x2004 <__heap_default_limit+0x1004>
    5ffe: 84 07        	sty	$7                      ; 0x2007 <__heap_default_limit+0x1007>
    6000: 26 07        	rol	$7                      ; 0x2007 <__heap_default_limit+0x1007>
    6002: 06 06        	asl	$6                      ; 0x2006 <__heap_default_limit+0x1006>
    6004: a9 01        	lda	#$1
    6006: b0 02        	bcs	$600a <UpdateSectors+0x86>
    6008: a9 00        	lda	#$0
    600a: a0 0a        	ldy	#$a
    600c: 91 02        	sta	($2),y                  ; 0x2002 <__heap_default_limit+0x1002>
    600e: 26 07        	rol	$7                      ; 0x2007 <__heap_default_limit+0x1007>
    6010: 06 06        	asl	$6                      ; 0x2006 <__heap_default_limit+0x1006>
    6012: a9 01        	lda	#$1
    6014: b0 02        	bcs	$6018 <UpdateSectors+0x94>
    6016: a9 00        	lda	#$0
    6018: a0 0b        	ldy	#$b
    601a: 91 02        	sta	($2),y                  ; 0x2002 <__heap_default_limit+0x1002>
    601c: 68           	pla
    601d: 26 07        	rol	$7                      ; 0x2007 <__heap_default_limit+0x1007>
    601f: a4 07        	ldy	$7                      ; 0x2007 <__heap_default_limit+0x1007>
    6021: 84 21        	sty	$21                     ; 0x2021 <_start>
    6023: 86 04        	stx	$4                      ; 0x2004 <__heap_default_limit+0x1004>
    6025: 85 05        	sta	$5                      ; 0x2005 <__heap_default_limit+0x1005>
    6027: a0 01        	ldy	#$1
    6029: b1 04        	lda	($4),y                  ; 0x2004 <__heap_default_limit+0x1004>
    602b: aa           	tax
    602c: b2 04        	lda	($4),z                  ; 0x2004 <__heap_default_limit+0x1004>
    602e: 85 1c        	sta	$1c                     ; 0x201c <next_line+0x7>
    6030: 85 07        	sta	$7                      ; 0x2007 <__heap_default_limit+0x1007>
    6032: 86 1d        	stx	$1d                     ; 0x201d <next_line+0x8>
    6034: a0 46        	ldy	#$46
    6036: a9 01        	lda	#$1
    6038: 31 1c        	and	($1c),y                 ; 0x201c <next_line+0x7>
    603a: a0 0d        	ldy	#$d
    603c: 91 02        	sta	($2),y                  ; 0x2002 <__heap_default_limit+0x1002>
    603e: 86 08        	stx	$8                      ; 0x2008 <__heap_default_limit+0x1008>
    6040: a4 06        	ldy	$6                      ; 0x2006 <__heap_default_limit+0x1006>
    6042: 84 1f        	sty	$1f                     ; 0x201f <next_line+0xa>
    6044: 86 20        	stx	$20                     ; 0x2020 <next_line+0xb>
    6046: a6 07        	ldx	$7                      ; 0x2007 <__heap_default_limit+0x1007>
    6048: 86 1a        	stx	$1a                     ; 0x201a <next_line+0x5>
    604a: a5 07        	lda	$7                      ; 0x2007 <__heap_default_limit+0x1007>
    604c: a0 0e        	ldy	#$e
    604e: 91 02        	sta	($2),y                  ; 0x2002 <__heap_default_limit+0x1002>
    6050: 88           	dey
    6051: b1 02        	lda	($2),y                  ; 0x2002 <__heap_default_limit+0x1002>
    6053: d0 03        	bne	$6058 <UpdateSectors+0xd4>
    6055: 4c 66 61     	jmp	$6166 <donegetproc11+0xe2>
    6058: a2 00        	ldx	#$0
    605a: 86 18        	stx	$18                     ; 0x2018 <next_line+0x3>
    605c: a2 17        	ldx	#$17
    605e: 86 19        	stx	$19                     ; 0x2019 <next_line+0x4>
    6060: a0 1c        	ldy	#$1c
    6062: 84 2c        	sty	$2c                     ; 0x202c <_start+0xb>
    6064: 18           	clc
    6065: a5 07        	lda	$7                      ; 0x2007 <__heap_default_limit+0x1007>
    6067: 69 03        	adc	#$3
    6069: 85 04        	sta	$4                      ; 0x2004 <__heap_default_limit+0x1004>
    606b: a5 08        	lda	$8                      ; 0x2008 <__heap_default_limit+0x1008>
    606d: 69 00        	adc	#$0
    606f: 85 05        	sta	$5                      ; 0x2005 <__heap_default_limit+0x1005>
    6071: a2 00        	ldx	#$0
    6073: a9 48        	lda	#$48
    6075: 8d 40 d6     	sta	$d640                   ; 0xd640 <__heap_start+0x5626>
    6078: b8           	clv
    6079: 90 05        	bcc	$6080 <errgetproc11>
    607b: 85 06        	sta	$6                      ; 0x2006 <__heap_default_limit+0x1006>
    607d: 4c 84 60     	jmp	$6084 <donegetproc11>

00006080 <errgetproc11>:
    6080: a9 ff        	lda	#$ff
    6082: 85 06        	sta	$6                      ; 0x2006 <__heap_default_limit+0x1006>

00006084 <donegetproc11>:
    6084: ea           	nop
    6085: a5 16        	lda	$16                     ; 0x2016 <next_line+0x1>
    6087: f0 13        	beq	$609c <donegetproc11+0x18>
    6089: a0 00        	ldy	#$0
    608b: 80 03        	bra	$6090 <donegetproc11+0xc>
    608d: 91 04        	sta	($4),y                  ; 0x2004 <__heap_default_limit+0x1004>
    608f: c8           	iny
    6090: b9 35 1c     	lda	$1c35,y                 ; 0x1c35 <__heap_default_limit+0xc35>
    6093: f0 18        	beq	$60ad <donegetproc11+0x29>
    6095: cc 14 1c     	cpy	$1c14                   ; 0x1c14 <__heap_default_limit+0xc14>
    6098: 90 f3        	bcc	$608d <donegetproc11+0x9>
    609a: 80 11        	bra	$60ad <donegetproc11+0x29>
    609c: a0 00        	ldy	#$0
    609e: 80 03        	bra	$60a3 <donegetproc11+0x1f>
    60a0: 91 04        	sta	($4),y                  ; 0x2004 <__heap_default_limit+0x1004>
    60a2: c8           	iny
    60a3: b9 15 1c     	lda	$1c15,y                 ; 0x1c15 <__heap_default_limit+0xc15>
    60a6: f0 05        	beq	$60ad <donegetproc11+0x29>
    60a8: cc 13 1c     	cpy	$1c13                   ; 0x1c13 <__heap_default_limit+0xc13>
    60ab: 90 f3        	bcc	$60a0 <donegetproc11+0x1c>
    60ad: 84 04        	sty	$4                      ; 0x2004 <__heap_default_limit+0x1004>
    60af: a0 0e        	ldy	#$e
    60b1: b1 02        	lda	($2),y                  ; 0x2002 <__heap_default_limit+0x1002>
    60b3: 18           	clc
    60b4: 65 04        	adc	$4                      ; 0x2004 <__heap_default_limit+0x1004>
    60b6: 85 04        	sta	$4                      ; 0x2004 <__heap_default_limit+0x1004>
    60b8: a5 20        	lda	$20                     ; 0x2020 <next_line+0xb>
    60ba: 69 00        	adc	#$0
    60bc: 85 05        	sta	$5                      ; 0x2005 <__heap_default_limit+0x1005>
    60be: a0 03        	ldy	#$3
    60c0: a9 00        	lda	#$0
    60c2: 91 04        	sta	($4),y                  ; 0x2004 <__heap_default_limit+0x1004>
    60c4: 64 06        	stz	$6                      ; 0x2006 <__heap_default_limit+0x1006>
    60c6: a5 1f        	lda	$1f                     ; 0x201f <next_line+0xa>
    60c8: 18           	clc
    60c9: 65 1e        	adc	$1e                     ; 0x201e <next_line+0x9>
    60cb: 85 04        	sta	$4                      ; 0x2004 <__heap_default_limit+0x1004>
    60cd: a5 21        	lda	$21                     ; 0x2021 <_start>
    60cf: 69 00        	adc	#$0
    60d1: 85 05        	sta	$5                      ; 0x2005 <__heap_default_limit+0x1005>
    60d3: a9 ba        	lda	#$ba
    60d5: 18           	clc
    60d6: 65 04        	adc	$4                      ; 0x2004 <__heap_default_limit+0x1004>
    60d8: 85 1a        	sta	$1a                     ; 0x201a <next_line+0x5>
    60da: a9 7c        	lda	#$7c
    60dc: 65 05        	adc	$5                      ; 0x2005 <__heap_default_limit+0x1005>
    60de: 85 1b        	sta	$1b                     ; 0x201b <next_line+0x6>
    60e0: a0 47        	ldy	#$47
    60e2: b1 1c        	lda	($1c),y                 ; 0x201c <next_line+0x7>
    60e4: a2 00        	ldx	#$0
    60e6: 86 04        	stx	$4                      ; 0x2004 <__heap_default_limit+0x1004>
    60e8: a2 17        	ldx	#$17
    60ea: 86 05        	stx	$5                      ; 0x2005 <__heap_default_limit+0x1005>
    60ec: aa           	tax
    60ed: a5 16        	lda	$16                     ; 0x2016 <next_line+0x1>
    60ef: 20 5d 4c     	jsr	$4c5d <GetOneSector>
    60f2: c9 02        	cmp	#$2
    60f4: b0 18        	bcs	$610e <donegetproc11+0x8a>
    60f6: a0 00        	ldy	#$0
    60f8: 80 03        	bra	$60fd <donegetproc11+0x79>
    60fa: 91 1a        	sta	($1a),y                 ; 0x201a <next_line+0x5>
    60fc: c8           	iny
    60fd: b9 04 17     	lda	$1704,y                 ; 0x1704 <__heap_default_limit+0x704>
    6100: c9 a0        	cmp	#$a0
    6102: f0 04        	beq	$6108 <donegetproc11+0x84>
    6104: c0 10        	cpy	#$10
    6106: 90 f2        	bcc	$60fa <donegetproc11+0x76>
    6108: a9 00        	lda	#$0
    610a: 91 1a        	sta	($1a),y                 ; 0x201a <next_line+0x5>
    610c: 80 13        	bra	$6121 <donegetproc11+0x9d>
    610e: a2 52        	ldx	#$52
    6110: 86 04        	stx	$4                      ; 0x2004 <__heap_default_limit+0x1004>
    6112: a2 71        	ldx	#$71
    6114: 86 05        	stx	$5                      ; 0x2005 <__heap_default_limit+0x1005>
    6116: a6 1a        	ldx	$1a                     ; 0x201a <next_line+0x5>
    6118: 86 06        	stx	$6                      ; 0x2006 <__heap_default_limit+0x1006>
    611a: a6 1b        	ldx	$1b                     ; 0x201b <next_line+0x6>
    611c: 86 07        	stx	$7                      ; 0x2007 <__heap_default_limit+0x1007>
    611e: 20 cd 55     	jsr	$55cd <strcopy>
    6121: a0 47        	ldy	#$47
    6123: b1 1c        	lda	($1c),y                 ; 0x201c <next_line+0x7>
    6125: 85 09        	sta	$9                      ; 0x2009 <__heap_default_limit+0x1009>
    6127: a5 1e        	lda	$1e                     ; 0x201e <next_line+0x9>
    6129: f0 04        	beq	$612f <donegetproc11+0xab>
    612b: a2 3a        	ldx	#$3a
    612d: 80 02        	bra	$6131 <donegetproc11+0xad>
    612f: a2 38        	ldx	#$38
    6131: 64 07        	stz	$7                      ; 0x2007 <__heap_default_limit+0x1007>
    6133: a9 01        	lda	#$1
    6135: 64 04        	stz	$4                      ; 0x2004 <__heap_default_limit+0x1004>
    6137: a0 08        	ldy	#$8
    6139: 84 05        	sty	$5                      ; 0x2005 <__heap_default_limit+0x1005>
    613b: a0 02        	ldy	#$2
    613d: 84 06        	sty	$6                      ; 0x2006 <__heap_default_limit+0x1006>
    613f: a4 16        	ldy	$16                     ; 0x2016 <next_line+0x1>
    6141: 84 08        	sty	$8                      ; 0x2008 <__heap_default_limit+0x1008>
    6143: 85 0a        	sta	$a                      ; 0x200a <__heap_default_limit+0x100a>
    6145: 3a           	dec
    6146: 20 0a 4e     	jsr	$4e0a <readblockchain>
    6149: c9 02        	cmp	#$2
    614b: b0 03        	bcs	$6150 <donegetproc11+0xcc>
    614d: 4c 08 64     	jmp	$6408 <donehypreaddir14+0x16a>
    6150: a0 46        	ldy	#$46
    6152: a9 fe        	lda	#$fe
    6154: 31 1c        	and	($1c),y                 ; 0x201c <next_line+0x7>
    6156: 91 1c        	sta	($1c),y                 ; 0x201c <next_line+0x7>
    6158: a6 1f        	ldx	$1f                     ; 0x201f <next_line+0xa>
    615a: 86 06        	stx	$6                      ; 0x2006 <__heap_default_limit+0x1006>
    615c: a6 20        	ldx	$20                     ; 0x2020 <next_line+0xb>
    615e: 86 08        	stx	$8                      ; 0x2008 <__heap_default_limit+0x1008>
    6160: a0 0e        	ldy	#$e
    6162: b1 02        	lda	($2),y                  ; 0x2002 <__heap_default_limit+0x1002>
    6164: 85 1a        	sta	$1a                     ; 0x201a <next_line+0x5>
    6166: a6 08        	ldx	$8                      ; 0x2008 <__heap_default_limit+0x1008>
    6168: 86 16        	stx	$16                     ; 0x2016 <next_line+0x1>
    616a: a5 06        	lda	$6                      ; 0x2006 <__heap_default_limit+0x1006>
    616c: 18           	clc
    616d: 65 1e        	adc	$1e                     ; 0x201e <next_line+0x9>
    616f: 85 04        	sta	$4                      ; 0x2004 <__heap_default_limit+0x1004>
    6171: a5 21        	lda	$21                     ; 0x2021 <_start>
    6173: 69 00        	adc	#$0
    6175: 85 05        	sta	$5                      ; 0x2005 <__heap_default_limit+0x1005>
    6177: a9 ba        	lda	#$ba
    6179: 18           	clc
    617a: 65 04        	adc	$4                      ; 0x2004 <__heap_default_limit+0x1004>
    617c: 85 06        	sta	$6                      ; 0x2006 <__heap_default_limit+0x1006>
    617e: a9 7c        	lda	#$7c
    6180: 65 05        	adc	$5                      ; 0x2005 <__heap_default_limit+0x1005>
    6182: 85 07        	sta	$7                      ; 0x2007 <__heap_default_limit+0x1007>
    6184: a2 ff        	ldx	#$ff
    6186: 8a           	txa
    6187: a0 0c        	ldy	#$c
    6189: 91 02        	sta	($2),y                  ; 0x2002 <__heap_default_limit+0x1002>
    618b: a2 1d        	ldx	#$1d
    618d: 86 04        	stx	$4                      ; 0x2004 <__heap_default_limit+0x1004>
    618f: a2 72        	ldx	#$72
    6191: 86 05        	stx	$5                      ; 0x2005 <__heap_default_limit+0x1005>
    6193: 20 cd 55     	jsr	$55cd <strcopy>
    6196: a5 1a        	lda	$1a                     ; 0x201a <next_line+0x5>
    6198: 18           	clc
    6199: 69 03        	adc	#$3
    619b: 85 06        	sta	$6                      ; 0x2006 <__heap_default_limit+0x1006>
    619d: a5 16        	lda	$16                     ; 0x2016 <next_line+0x1>
    619f: 69 00        	adc	#$0
    61a1: 85 07        	sta	$7                      ; 0x2007 <__heap_default_limit+0x1007>
    61a3: a2 1d        	ldx	#$1d
    61a5: 86 04        	stx	$4                      ; 0x2004 <__heap_default_limit+0x1004>
    61a7: a2 72        	ldx	#$72
    61a9: 86 05        	stx	$5                      ; 0x2005 <__heap_default_limit+0x1005>
    61ab: 20 cd 55     	jsr	$55cd <strcopy>
    61ae: a2 00        	ldx	#$0
    61b0: a9 04        	lda	#$4
    61b2: 8d 40 d6     	sta	$d640                   ; 0xd640 <__heap_start+0x5626>
    61b5: b8           	clv
    61b6: 90 05        	bcc	$61bd <errgetcurdrv12>
    61b8: 85 04        	sta	$4                      ; 0x2004 <__heap_default_limit+0x1004>
    61ba: 4c c1 61     	jmp	$61c1 <donegetcurdrv12>

000061bd <errgetcurdrv12>:
    61bd: a9 ff        	lda	#$ff
    61bf: 85 04        	sta	$4                      ; 0x2004 <__heap_default_limit+0x1004>

000061c1 <donegetcurdrv12>:
    61c1: ea           	nop
    61c2: a6 04        	ldx	$4                      ; 0x2004 <__heap_default_limit+0x1004>
    61c4: e0 ff        	cpx	#$ff
    61c6: d0 03        	bne	$61cb <donegetcurdrv12+0xa>
    61c8: 4c 65 65     	jmp	$6565 <donehypclosedir15+0x1>
    61cb: a2 00        	ldx	#$0
    61cd: a9 12        	lda	#$12
    61cf: 8d 40 d6     	sta	$d640                   ; 0xd640 <__heap_start+0x5626>
    61d2: b8           	clv
    61d3: 90 05        	bcc	$61da <errhypopendir13>
    61d5: 85 04        	sta	$4                      ; 0x2004 <__heap_default_limit+0x1004>
    61d7: 4c de 61     	jmp	$61de <donehypopendir13>

000061da <errhypopendir13>:
    61da: a9 ff        	lda	#$ff
    61dc: 85 04        	sta	$4                      ; 0x2004 <__heap_default_limit+0x1004>

000061de <donehypopendir13>:
    61de: ea           	nop
    61df: a6 04        	ldx	$4                      ; 0x2004 <__heap_default_limit+0x1004>
    61e1: e0 84        	cpx	#$84
    61e3: d0 03        	bne	$61e8 <donehypopendir13+0xa>
    61e5: 4c 65 65     	jmp	$6565 <donehypclosedir15+0x1>
    61e8: a4 20        	ldy	$20                     ; 0x2020 <next_line+0xb>
    61ea: e0 87        	cpx	#$87
    61ec: d0 03        	bne	$61f1 <donehypopendir13+0x13>
    61ee: 4c 48 65     	jmp	$6548 <donehypreaddir14+0x2aa>
    61f1: 98           	tya
    61f2: e0 ff        	cpx	#$ff
    61f4: d0 03        	bne	$61f9 <donehypopendir13+0x1b>
    61f6: 4c 67 65     	jmp	$6567 <donehypclosedir15+0x3>
    61f9: 86 1e        	stx	$1e                     ; 0x201e <next_line+0x9>
    61fb: a9 00        	lda	#$0
    61fd: 48           	pha
    61fe: a0 09        	ldy	#$9
    6200: b1 02        	lda	($2),y                  ; 0x2002 <__heap_default_limit+0x1002>
    6202: c9 01        	cmp	#$1
    6204: 68           	pla
    6205: 2a           	rol
    6206: 85 04        	sta	$4                      ; 0x2004 <__heap_default_limit+0x1004>
    6208: a9 00        	lda	#$0
    620a: 2a           	rol
    620b: 85 05        	sta	$5                      ; 0x2005 <__heap_default_limit+0x1005>
    620d: a6 04        	ldx	$4                      ; 0x2004 <__heap_default_limit+0x1004>
    620f: 86 08        	stx	$8                      ; 0x2008 <__heap_default_limit+0x1008>
    6211: 48           	pha
    6212: 88           	dey
    6213: b1 02        	lda	($2),y                  ; 0x2002 <__heap_default_limit+0x1002>
    6215: c9 01        	cmp	#$1
    6217: 68           	pla
    6218: 26 08        	rol	$8                      ; 0x2008 <__heap_default_limit+0x1008>
    621a: 85 09        	sta	$9                      ; 0x2009 <__heap_default_limit+0x1009>
    621c: 26 09        	rol	$9                      ; 0x2009 <__heap_default_limit+0x1009>
    621e: a0 0a        	ldy	#$a
    6220: b1 02        	lda	($2),y                  ; 0x2002 <__heap_default_limit+0x1002>
    6222: c9 01        	cmp	#$1
    6224: 26 08        	rol	$8                      ; 0x2008 <__heap_default_limit+0x1008>
    6226: 26 09        	rol	$9                      ; 0x2009 <__heap_default_limit+0x1009>
    6228: c8           	iny
    6229: b1 02        	lda	($2),y                  ; 0x2002 <__heap_default_limit+0x1002>
    622b: c9 01        	cmp	#$1
    622d: 26 08        	rol	$8                      ; 0x2008 <__heap_default_limit+0x1008>
    622f: 26 09        	rol	$9                      ; 0x2009 <__heap_default_limit+0x1009>
    6231: 38           	sec
    6232: a5 1f        	lda	$1f                     ; 0x201f <next_line+0xa>
    6234: e5 17        	sbc	$17                     ; 0x2017 <next_line+0x2>
    6236: c8           	iny
    6237: 91 02        	sta	($2),y                  ; 0x2002 <__heap_default_limit+0x1002>
    6239: a5 08        	lda	$8                      ; 0x2008 <__heap_default_limit+0x1008>
    623b: e5 04        	sbc	$4                      ; 0x2004 <__heap_default_limit+0x1004>
    623d: 88           	dey
    623e: 91 02        	sta	($2),y                  ; 0x2002 <__heap_default_limit+0x1002>
    6240: a5 09        	lda	$9                      ; 0x2009 <__heap_default_limit+0x1009>
    6242: e5 05        	sbc	$5                      ; 0x2005 <__heap_default_limit+0x1005>
    6244: 88           	dey
    6245: 91 02        	sta	($2),y                  ; 0x2002 <__heap_default_limit+0x1002>
    6247: 09 08        	ora	#$8
    6249: 88           	dey
    624a: 91 02        	sta	($2),y                  ; 0x2002 <__heap_default_limit+0x1002>
    624c: a2 ff        	ldx	#$ff
    624e: a0 00        	ldy	#$0
    6250: 64 16        	stz	$16                     ; 0x2016 <next_line+0x1>
    6252: 84 04        	sty	$4                      ; 0x2004 <__heap_default_limit+0x1004>
    6254: a9 01        	lda	#$1
    6256: 86 21        	stx	$21                     ; 0x2021 <_start>
    6258: e0 00        	cpx	#$0
    625a: f0 02        	beq	$625e <donehypopendir13+0x80>
    625c: a9 00        	lda	#$0
    625e: a6 16        	ldx	$16                     ; 0x2016 <next_line+0x1>
    6260: e0 70        	cpx	#$70
    6262: a2 01        	ldx	#$1
    6264: a0 01        	ldy	#$1
    6266: b0 01        	bcs	$6269 <donehypopendir13+0x8b>
    6268: a8           	tay
    6269: a5 04        	lda	$4                      ; 0x2004 <__heap_default_limit+0x1004>
    626b: c9 85        	cmp	#$85
    626d: f0 02        	beq	$6271 <donehypopendir13+0x93>
    626f: a2 00        	ldx	#$0
    6271: a9 01        	lda	#$1
    6273: c0 00        	cpy	#$0
    6275: d0 01        	bne	$6278 <donehypopendir13+0x9a>
    6277: 8a           	txa
    6278: aa           	tax
    6279: f0 03        	beq	$627e <donehypopendir13+0xa0>
    627b: 4c 4b 65     	jmp	$654b <donehypreaddir14+0x2ad>
    627e: a4 1e        	ldy	$1e                     ; 0x201e <next_line+0x9>
    6280: da           	phx
    6281: a2 00        	ldx	#$0
    6283: 8a           	txa

00006284 <hypreaddirloop14>:
    6284: 9d 00 1b     	sta	$1b00,x                 ; 0x1b00 <__heap_default_limit+0xb00>
    6287: ca           	dex
    6288: d0 fa        	bne	$6284 <hypreaddirloop14>
    628a: fa           	plx
    628b: 98           	tya
    628c: aa           	tax
    628d: a0 1b        	ldy	#$1b
    628f: a9 14        	lda	#$14
    6291: 8d 40 d6     	sta	$d640                   ; 0xd640 <__heap_start+0x5626>
    6294: b8           	clv
    6295: 90 05        	bcc	$629c <errhypreaddir14>
    6297: 86 04        	stx	$4                      ; 0x2004 <__heap_default_limit+0x1004>
    6299: 4c 9e 62     	jmp	$629e <donehypreaddir14>

0000629c <errhypreaddir14>:
    629c: 85 04        	sta	$4                      ; 0x2004 <__heap_default_limit+0x1004>

0000629e <donehypreaddir14>:
    629e: ea           	nop
    629f: ae 40 1b     	ldx	$1b40                   ; 0x1b40 <__heap_default_limit+0xb40>
    62a2: e0 40        	cpx	#$40
    62a4: a0 3f        	ldy	#$3f
    62a6: 84 06        	sty	$6                      ; 0x2006 <__heap_default_limit+0x1006>
    62a8: a0 1b        	ldy	#$1b
    62aa: 84 07        	sty	$7                      ; 0x2007 <__heap_default_limit+0x1007>
    62ac: b0 0f        	bcs	$62bd <donehypreaddir14+0x1f>
    62ae: 86 05        	stx	$5                      ; 0x2005 <__heap_default_limit+0x1005>
    62b0: a9 00        	lda	#$0
    62b2: 18           	clc
    62b3: 65 05        	adc	$5                      ; 0x2005 <__heap_default_limit+0x1005>
    62b5: 85 06        	sta	$6                      ; 0x2006 <__heap_default_limit+0x1006>
    62b7: a9 1b        	lda	#$1b
    62b9: 69 00        	adc	#$0
    62bb: 85 07        	sta	$7                      ; 0x2007 <__heap_default_limit+0x1007>
    62bd: a4 04        	ldy	$4                      ; 0x2004 <__heap_default_limit+0x1004>
    62bf: a9 00        	lda	#$0
    62c1: 92 06        	sta	($6),z                  ; 0x2006 <__heap_default_limit+0x1006>
    62c3: c0 85        	cpy	#$85
    62c5: f0 04        	beq	$62cb <donehypreaddir14+0x2d>
    62c7: c0 ff        	cpy	#$ff
    62c9: d0 0e        	bne	$62d9 <donehypreaddir14+0x3b>
    62cb: a2 20        	ldx	#$20
    62cd: 8e 6e 7b     	stx	$7b6e                   ; 0x7b6e <direntryblock2+0x5>
    62d0: 9c 6f 7b     	stz	$7b6f                   ; 0x7b6f <direntryblock2+0x6>
    62d3: a6 21        	ldx	$21                     ; 0x2021 <_start>
    62d5: ca           	dex
    62d6: 4c 52 62     	jmp	$6252 <donehypopendir13+0x74>
    62d9: a9 10        	lda	#$10
    62db: 2d 56 1b     	and	$1b56                   ; 0x1b56 <__heap_default_limit+0xb56>
    62de: d0 1b        	bne	$62fb <donehypreaddir14+0x5d>
    62e0: ae 49 1b     	ldx	$1b49                   ; 0x1b49 <__heap_default_limit+0xb49>
    62e3: e0 64        	cpx	#$64
    62e5: f0 04        	beq	$62eb <donehypreaddir14+0x4d>
    62e7: e0 44        	cpx	#$44
    62e9: d0 e0        	bne	$62cb <donehypreaddir14+0x2d>
    62eb: ae 4a 1b     	ldx	$1b4a                   ; 0x1b4a <__heap_default_limit+0xb4a>
    62ee: e0 38        	cpx	#$38
    62f0: d0 d9        	bne	$62cb <donehypreaddir14+0x2d>
    62f2: ae 4b 1b     	ldx	$1b4b                   ; 0x1b4b <__heap_default_limit+0xb4b>
    62f5: e0 31        	cpx	#$31
    62f7: d0 d2        	bne	$62cb <donehypreaddir14+0x2d>
    62f9: 80 0e        	bra	$6309 <donehypreaddir14+0x6b>
    62fb: ae 41 1b     	ldx	$1b41                   ; 0x1b41 <__heap_default_limit+0xb41>
    62fe: e0 2e        	cpx	#$2e
    6300: d0 07        	bne	$6309 <donehypreaddir14+0x6b>
    6302: ae 42 1b     	ldx	$1b42                   ; 0x1b42 <__heap_default_limit+0xb42>
    6305: e0 20        	cpx	#$20
    6307: f0 d7        	beq	$62e0 <donehypreaddir14+0x42>
    6309: 84 18        	sty	$18                     ; 0x2018 <next_line+0x3>
    630b: 20 23 49     	jsr	$4923 <getsfn>
    630e: 20 23 49     	jsr	$4923 <getsfn>
    6311: a2 6e        	ldx	#$6e
    6313: 86 04        	stx	$4                      ; 0x2004 <__heap_default_limit+0x1004>
    6315: a2 7b        	ldx	#$7b
    6317: 86 05        	stx	$5                      ; 0x2005 <__heap_default_limit+0x1005>
    6319: a2 41        	ldx	#$41
    631b: 86 06        	stx	$6                      ; 0x2006 <__heap_default_limit+0x1006>
    631d: a2 1c        	ldx	#$1c
    631f: 86 07        	stx	$7                      ; 0x2007 <__heap_default_limit+0x1007>
    6321: 20 3a 6b     	jsr	$6b3a <strcpy>
    6324: ae 4e 1b     	ldx	$1b4e                   ; 0x1b4e <__heap_default_limit+0xb4e>
    6327: ac 50 1b     	ldy	$1b50                   ; 0x1b50 <__heap_default_limit+0xb50>
    632a: a9 80        	lda	#$80
    632c: 0d 51 1b     	ora	$1b51                   ; 0x1b51 <__heap_default_limit+0xb51>
    632f: 8d 69 7b     	sta	$7b69                   ; 0x7b69 <direntryblock2>
    6332: 8c 6a 7b     	sty	$7b6a                   ; 0x7b6a <direntryblock2+0x1>
    6335: a9 80        	lda	#$80
    6337: 0d 4f 1b     	ora	$1b4f                   ; 0x1b4f <__heap_default_limit+0xb4f>
    633a: 8d 6c 7b     	sta	$7b6c                   ; 0x7b6c <direntryblock2+0x3>
    633d: 8e 6d 7b     	stx	$7b6d                   ; 0x7b6d <direntryblock2+0x4>
    6340: a9 40        	lda	#$40
    6342: 0d 56 1b     	ora	$1b56                   ; 0x1b56 <__heap_default_limit+0xb56>
    6345: 8d 6b 7b     	sta	$7b6b                   ; 0x7b6b <direntryblock2+0x2>
    6348: ae 53 1b     	ldx	$1b53                   ; 0x1b53 <__heap_default_limit+0xb53>
    634b: 86 04        	stx	$4                      ; 0x2004 <__heap_default_limit+0x1004>
    634d: ae 54 1b     	ldx	$1b54                   ; 0x1b54 <__heap_default_limit+0xb54>
    6350: 86 05        	stx	$5                      ; 0x2005 <__heap_default_limit+0x1005>
    6352: ad 55 1b     	lda	$1b55                   ; 0x1b55 <__heap_default_limit+0xb55>
    6355: 4a           	lsr
    6356: 66 05        	ror	$5                      ; 0x2005 <__heap_default_limit+0x1005>
    6358: 66 04        	ror	$4                      ; 0x2004 <__heap_default_limit+0x1004>
    635a: 4a           	lsr
    635b: a5 05        	lda	$5                      ; 0x2005 <__heap_default_limit+0x1005>
    635d: 6a           	ror
    635e: 66 04        	ror	$4                      ; 0x2004 <__heap_default_limit+0x1004>
    6360: a6 04        	ldx	$4                      ; 0x2004 <__heap_default_limit+0x1004>
    6362: 8e 87 7b     	stx	$7b87                   ; 0x7b87 <direntryblock2+0x1e>
    6365: 8d 88 7b     	sta	$7b88                   ; 0x7b88 <direntryblock2+0x1f>
    6368: a6 16        	ldx	$16                     ; 0x2016 <next_line+0x1>
    636a: 86 1f        	stx	$1f                     ; 0x201f <next_line+0xa>
    636c: a5 16        	lda	$16                     ; 0x2016 <next_line+0x1>
    636e: 4a           	lsr
    636f: 64 04        	stz	$4                      ; 0x2004 <__heap_default_limit+0x1004>
    6371: 66 04        	ror	$4                      ; 0x2004 <__heap_default_limit+0x1004>
    6373: 4a           	lsr
    6374: 66 04        	ror	$4                      ; 0x2004 <__heap_default_limit+0x1004>
    6376: 4a           	lsr
    6377: 85 16        	sta	$16                     ; 0x2016 <next_line+0x1>
    6379: 66 04        	ror	$4                      ; 0x2004 <__heap_default_limit+0x1004>
    637b: a6 04        	ldx	$4                      ; 0x2004 <__heap_default_limit+0x1004>
    637d: 86 17        	stx	$17                     ; 0x2017 <next_line+0x2>
    637f: a9 00        	lda	#$0
    6381: 18           	clc
    6382: 65 04        	adc	$4                      ; 0x2004 <__heap_default_limit+0x1004>
    6384: 85 06        	sta	$6                      ; 0x2006 <__heap_default_limit+0x1006>
    6386: a0 0c        	ldy	#$c
    6388: b1 02        	lda	($2),y                  ; 0x2002 <__heap_default_limit+0x1002>
    638a: 85 1b        	sta	$1b                     ; 0x201b <next_line+0x6>
    638c: 65 16        	adc	$16                     ; 0x2016 <next_line+0x1>
    638e: 85 07        	sta	$7                      ; 0x2007 <__heap_default_limit+0x1007>
    6390: 88           	dey
    6391: b1 02        	lda	($2),y                  ; 0x2002 <__heap_default_limit+0x1002>
    6393: 85 1a        	sta	$1a                     ; 0x201a <next_line+0x5>
    6395: 69 00        	adc	#$0
    6397: 85 08        	sta	$8                      ; 0x2008 <__heap_default_limit+0x1008>
    6399: a0 09        	ldy	#$9
    639b: b1 02        	lda	($2),y                  ; 0x2002 <__heap_default_limit+0x1002>
    639d: 69 00        	adc	#$0
    639f: 9c 89 7b     	stz	$7b89                   ; 0x7b89 <direntryblock2+0x20>
    63a2: 64 04        	stz	$4                      ; 0x2004 <__heap_default_limit+0x1004>
    63a4: 64 05        	stz	$5                      ; 0x2005 <__heap_default_limit+0x1005>
    63a6: 85 09        	sta	$9                      ; 0x2009 <__heap_default_limit+0x1009>
    63a8: a2 20        	ldx	#$20
    63aa: 86 0a        	stx	$a                      ; 0x200a <__heap_default_limit+0x100a>
    63ac: 64 0b        	stz	$b                      ; 0x200b <__heap_default_limit+0x100b>
    63ae: a2 7b        	ldx	#$7b
    63b0: a9 69        	lda	#$69
    63b2: 20 22 6a     	jsr	$6a22 <lcopy>
    63b5: 06 17        	asl	$17                     ; 0x2017 <next_line+0x2>
    63b7: 26 16        	rol	$16                     ; 0x2016 <next_line+0x1>
    63b9: a9 00        	lda	#$0
    63bb: 18           	clc
    63bc: 65 17        	adc	$17                     ; 0x2017 <next_line+0x2>
    63be: aa           	tax
    63bf: a5 1b        	lda	$1b                     ; 0x201b <next_line+0x6>
    63c1: 65 16        	adc	$16                     ; 0x2016 <next_line+0x1>
    63c3: a8           	tay
    63c4: a5 1a        	lda	$1a                     ; 0x201a <next_line+0x5>
    63c6: 69 00        	adc	#$0
    63c8: 85 07        	sta	$7                      ; 0x2007 <__heap_default_limit+0x1007>
    63ca: 5a           	phy
    63cb: a0 0a        	ldy	#$a
    63cd: b1 02        	lda	($2),y                  ; 0x2002 <__heap_default_limit+0x1002>
    63cf: 7a           	ply
    63d0: 69 00        	adc	#$0
    63d2: 85 04        	sta	$4                      ; 0x2004 <__heap_default_limit+0x1004>
    63d4: 18           	clc
    63d5: 8a           	txa
    63d6: 69 00        	adc	#$0
    63d8: 85 06        	sta	$6                      ; 0x2006 <__heap_default_limit+0x1006>
    63da: 98           	tya
    63db: 69 1c        	adc	#$1c
    63dd: aa           	tax
    63de: a5 07        	lda	$7                      ; 0x2007 <__heap_default_limit+0x1007>
    63e0: 69 00        	adc	#$0
    63e2: 85 08        	sta	$8                      ; 0x2008 <__heap_default_limit+0x1008>
    63e4: a5 04        	lda	$4                      ; 0x2004 <__heap_default_limit+0x1004>
    63e6: 69 08        	adc	#$8
    63e8: 86 07        	stx	$7                      ; 0x2007 <__heap_default_limit+0x1007>
    63ea: 64 04        	stz	$4                      ; 0x2004 <__heap_default_limit+0x1004>
    63ec: 64 05        	stz	$5                      ; 0x2005 <__heap_default_limit+0x1005>
    63ee: 85 09        	sta	$9                      ; 0x2009 <__heap_default_limit+0x1009>
    63f0: a2 40        	ldx	#$40
    63f2: 86 0a        	stx	$a                      ; 0x200a <__heap_default_limit+0x100a>
    63f4: 64 0b        	stz	$b                      ; 0x200b <__heap_default_limit+0x100b>
    63f6: a2 1b        	ldx	#$1b
    63f8: a9 00        	lda	#$0
    63fa: 20 22 6a     	jsr	$6a22 <lcopy>
    63fd: a4 18        	ldy	$18                     ; 0x2018 <next_line+0x3>
    63ff: e6 1f        	inc	$1f                     ; 0x201f <next_line+0xa>
    6401: a6 1f        	ldx	$1f                     ; 0x201f <next_line+0xa>
    6403: 86 16        	stx	$16                     ; 0x2016 <next_line+0x1>
    6405: 4c d3 62     	jmp	$62d3 <donehypreaddir14+0x35>
    6408: a5 1e        	lda	$1e                     ; 0x201e <next_line+0x9>
    640a: 20 75 4d     	jsr	$4d75 <GetBAM>
    640d: a0 10        	ldy	#$10
    640f: 64 06        	stz	$6                      ; 0x2006 <__heap_default_limit+0x1006>
    6411: 64 08        	stz	$8                      ; 0x2008 <__heap_default_limit+0x1008>
    6413: a5 20        	lda	$20                     ; 0x2020 <next_line+0xb>
    6415: a2 00        	ldx	#$0
    6417: 4c 64 64     	jmp	$6464 <donehypreaddir14+0x1c6>
    641a: 8a           	txa
    641b: 18           	clc
    641c: 69 d8        	adc	#$d8
    641e: 5a           	phy
    641f: a0 00        	ldy	#$0
    6421: 84 18        	sty	$18                     ; 0x2018 <next_line+0x3>
    6423: a0 18        	ldy	#$18
    6425: 84 19        	sty	$19                     ; 0x2019 <next_line+0x4>
    6427: 7a           	ply
    6428: 0a           	asl
    6429: 85 04        	sta	$4                      ; 0x2004 <__heap_default_limit+0x1004>
    642b: a9 00        	lda	#$0
    642d: 2a           	rol
    642e: 85 05        	sta	$5                      ; 0x2005 <__heap_default_limit+0x1005>
    6430: a5 04        	lda	$4                      ; 0x2004 <__heap_default_limit+0x1004>
    6432: 0a           	asl
    6433: 85 07        	sta	$7                      ; 0x2007 <__heap_default_limit+0x1007>
    6435: a5 05        	lda	$5                      ; 0x2005 <__heap_default_limit+0x1005>
    6437: 2a           	rol
    6438: 85 09        	sta	$9                      ; 0x2009 <__heap_default_limit+0x1009>
    643a: a5 07        	lda	$7                      ; 0x2007 <__heap_default_limit+0x1007>
    643c: 18           	clc
    643d: 65 04        	adc	$4                      ; 0x2004 <__heap_default_limit+0x1004>
    643f: 85 04        	sta	$4                      ; 0x2004 <__heap_default_limit+0x1004>
    6441: a5 09        	lda	$9                      ; 0x2009 <__heap_default_limit+0x1009>
    6443: 65 05        	adc	$5                      ; 0x2005 <__heap_default_limit+0x1005>
    6445: 85 05        	sta	$5                      ; 0x2005 <__heap_default_limit+0x1005>
    6447: a5 04        	lda	$4                      ; 0x2004 <__heap_default_limit+0x1004>
    6449: 18           	clc
    644a: 65 18        	adc	$18                     ; 0x2018 <next_line+0x3>
    644c: 85 04        	sta	$4                      ; 0x2004 <__heap_default_limit+0x1004>
    644e: a5 05        	lda	$5                      ; 0x2005 <__heap_default_limit+0x1005>
    6450: 65 19        	adc	$19                     ; 0x2019 <next_line+0x4>
    6452: 85 05        	sta	$5                      ; 0x2005 <__heap_default_limit+0x1005>
    6454: 18           	clc
    6455: a5 06        	lda	$6                      ; 0x2006 <__heap_default_limit+0x1006>
    6457: 71 04        	adc	($4),y                  ; 0x2004 <__heap_default_limit+0x1004>
    6459: 85 06        	sta	$6                      ; 0x2006 <__heap_default_limit+0x1006>
    645b: a5 08        	lda	$8                      ; 0x2008 <__heap_default_limit+0x1008>
    645d: 69 00        	adc	#$0
    645f: 85 08        	sta	$8                      ; 0x2008 <__heap_default_limit+0x1008>
    6461: e8           	inx
    6462: a5 20        	lda	$20                     ; 0x2020 <next_line+0xb>
    6464: e0 50        	cpx	#$50
    6466: f0 0f        	beq	$6477 <donehypreaddir14+0x1d9>
    6468: e0 28        	cpx	#$28
    646a: 90 03        	bcc	$646f <donehypreaddir14+0x1d1>
    646c: 4c 1a 64     	jmp	$641a <donehypreaddir14+0x17c>
    646f: 8a           	txa
    6470: e0 27        	cpx	#$27
    6472: f0 ed        	beq	$6461 <donehypreaddir14+0x1c3>
    6474: 4c 28 64     	jmp	$6428 <donehypreaddir14+0x18a>
    6477: 18           	clc
    6478: aa           	tax
    6479: a0 0e        	ldy	#$e
    647b: b1 02        	lda	($2),y                  ; 0x2002 <__heap_default_limit+0x1002>
    647d: 69 44        	adc	#$44
    647f: 85 09        	sta	$9                      ; 0x2009 <__heap_default_limit+0x1009>
    6481: 8a           	txa
    6482: 69 00        	adc	#$0
    6484: aa           	tax
    6485: a0 44        	ldy	#$44
    6487: a5 06        	lda	$6                      ; 0x2006 <__heap_default_limit+0x1006>
    6489: 91 1c        	sta	($1c),y                 ; 0x201c <next_line+0x7>
    648b: a9 00        	lda	#$0
    648d: 48           	pha
    648e: a0 09        	ldy	#$9
    6490: b1 02        	lda	($2),y                  ; 0x2002 <__heap_default_limit+0x1002>
    6492: c9 01        	cmp	#$1
    6494: 68           	pla
    6495: 2a           	rol
    6496: 64 04        	stz	$4                      ; 0x2004 <__heap_default_limit+0x1004>
    6498: 26 04        	rol	$4                      ; 0x2004 <__heap_default_limit+0x1004>
    649a: 85 05        	sta	$5                      ; 0x2005 <__heap_default_limit+0x1005>
    649c: a4 04        	ldy	$4                      ; 0x2004 <__heap_default_limit+0x1004>
    649e: 84 0b        	sty	$b                      ; 0x200b <__heap_default_limit+0x100b>
    64a0: 48           	pha
    64a1: a0 08        	ldy	#$8
    64a3: b1 02        	lda	($2),y                  ; 0x2002 <__heap_default_limit+0x1002>
    64a5: c9 01        	cmp	#$1
    64a7: 68           	pla
    64a8: 2a           	rol
    64a9: a4 04        	ldy	$4                      ; 0x2004 <__heap_default_limit+0x1004>
    64ab: 84 0a        	sty	$a                      ; 0x200a <__heap_default_limit+0x100a>
    64ad: 26 0a        	rol	$a                      ; 0x200a <__heap_default_limit+0x100a>
    64af: 48           	pha
    64b0: a0 0a        	ldy	#$a
    64b2: b1 02        	lda	($2),y                  ; 0x2002 <__heap_default_limit+0x1002>
    64b4: c9 01        	cmp	#$1
    64b6: 68           	pla
    64b7: 2a           	rol
    64b8: 26 0a        	rol	$a                      ; 0x200a <__heap_default_limit+0x100a>
    64ba: 48           	pha
    64bb: c8           	iny
    64bc: b1 02        	lda	($2),y                  ; 0x2002 <__heap_default_limit+0x1002>
    64be: c9 01        	cmp	#$1
    64c0: 68           	pla
    64c1: 2a           	rol
    64c2: a8           	tay
    64c3: 26 0a        	rol	$a                      ; 0x200a <__heap_default_limit+0x100a>
    64c5: 38           	sec
    64c6: a5 1f        	lda	$1f                     ; 0x201f <next_line+0xa>
    64c8: e5 17        	sbc	$17                     ; 0x2017 <next_line+0x2>
    64ca: 85 0c        	sta	$c                      ; 0x200c <__heap_default_limit+0x100c>
    64cc: 98           	tya
    64cd: e5 05        	sbc	$5                      ; 0x2005 <__heap_default_limit+0x1005>
    64cf: 85 04        	sta	$4                      ; 0x2004 <__heap_default_limit+0x1004>
    64d1: a5 0a        	lda	$a                      ; 0x200a <__heap_default_limit+0x100a>
    64d3: e5 0b        	sbc	$b                      ; 0x200b <__heap_default_limit+0x100b>
    64d5: 85 05        	sta	$5                      ; 0x2005 <__heap_default_limit+0x1005>
    64d7: a4 09        	ldy	$9                      ; 0x2009 <__heap_default_limit+0x1009>
    64d9: 84 06        	sty	$6                      ; 0x2006 <__heap_default_limit+0x1006>
    64db: 86 07        	stx	$7                      ; 0x2007 <__heap_default_limit+0x1007>
    64dd: a0 01        	ldy	#$1
    64df: a5 08        	lda	$8                      ; 0x2008 <__heap_default_limit+0x1008>
    64e1: 91 06        	sta	($6),y                  ; 0x2006 <__heap_default_limit+0x1006>
    64e3: 64 17        	stz	$17                     ; 0x2017 <next_line+0x2>
    64e5: a0 47        	ldy	#$47
    64e7: b1 1c        	lda	($1c),y                 ; 0x201c <next_line+0x7>
    64e9: 85 09        	sta	$9                      ; 0x2009 <__heap_default_limit+0x1009>
    64eb: a5 05        	lda	$5                      ; 0x2005 <__heap_default_limit+0x1005>
    64ed: 09 08        	ora	#$8
    64ef: a2 0e        	ldx	#$e
    64f1: a0 03        	ldy	#$3
    64f3: 85 05        	sta	$5                      ; 0x2005 <__heap_default_limit+0x1005>
    64f5: 86 06        	stx	$6                      ; 0x2006 <__heap_default_limit+0x1006>
    64f7: 64 07        	stz	$7                      ; 0x2007 <__heap_default_limit+0x1007>
    64f9: a6 16        	ldx	$16                     ; 0x2016 <next_line+0x1>
    64fb: 86 08        	stx	$8                      ; 0x2008 <__heap_default_limit+0x1008>
    64fd: 84 0a        	sty	$a                      ; 0x200a <__heap_default_limit+0x100a>
    64ff: a6 0c        	ldx	$c                      ; 0x200c <__heap_default_limit+0x100c>
    6501: a9 00        	lda	#$0
    6503: 20 0a 4e     	jsr	$4e0a <readblockchain>
    6506: c9 02        	cmp	#$2
    6508: 90 05        	bcc	$650f <donehypreaddir14+0x271>
    650a: a9 ff        	lda	#$ff
    650c: 4c a1 65     	jmp	$65a1 <donehypclosedir15+0x3d>
    650f: a2 70        	ldx	#$70
    6511: a9 71        	lda	#$71
    6513: a0 00        	ldy	#$0
    6515: 84 18        	sty	$18                     ; 0x2018 <next_line+0x3>
    6517: a0 00        	ldy	#$0
    6519: 84 19        	sty	$19                     ; 0x2019 <next_line+0x4>
    651b: 86 16        	stx	$16                     ; 0x2016 <next_line+0x1>
    651d: a6 17        	ldx	$17                     ; 0x2017 <next_line+0x2>
    651f: 30 e9        	bmi	$650a <donehypreaddir14+0x26c>
    6521: 3a           	dec
    6522: 85 1a        	sta	$1a                     ; 0x201a <next_line+0x5>
    6524: aa           	tax
    6525: a5 1e        	lda	$1e                     ; 0x201e <next_line+0x9>
    6527: 20 eb 54     	jsr	$54eb <getdirententry>
    652a: a6 05        	ldx	$5                      ; 0x2005 <__heap_default_limit+0x1005>
    652c: a0 ff        	ldy	#$ff
    652e: c6 16        	dec	$16                     ; 0x2016 <next_line+0x1>
    6530: c4 16        	cpy	$16                     ; 0x2016 <next_line+0x1>
    6532: d0 02        	bne	$6536 <donehypreaddir14+0x298>
    6534: c6 17        	dec	$17                     ; 0x2017 <next_line+0x2>
    6536: e4 19        	cpx	$19                     ; 0x2019 <next_line+0x4>
    6538: f0 03        	beq	$653d <donehypreaddir14+0x29f>
    653a: 4c 9f 65     	jmp	$659f <donehypclosedir15+0x3b>
    653d: a6 04        	ldx	$4                      ; 0x2004 <__heap_default_limit+0x1004>
    653f: a5 1a        	lda	$1a                     ; 0x201a <next_line+0x5>
    6541: e4 18        	cpx	$18                     ; 0x2018 <next_line+0x3>
    6543: f0 d8        	beq	$651d <donehypreaddir14+0x27f>
    6545: 4c a1 65     	jmp	$65a1 <donehypclosedir15+0x3d>
    6548: 98           	tya
    6549: 80 1c        	bra	$6567 <donehypclosedir15+0x3>
    654b: c6 16        	dec	$16                     ; 0x2016 <next_line+0x1>
    654d: a5 16        	lda	$16                     ; 0x2016 <next_line+0x1>
    654f: a0 0c        	ldy	#$c
    6551: 91 02        	sta	($2),y                  ; 0x2002 <__heap_default_limit+0x1002>
    6553: a6 1e        	ldx	$1e                     ; 0x201e <next_line+0x9>
    6555: a9 16        	lda	#$16
    6557: 8d 40 d6     	sta	$d640                   ; 0xd640 <__heap_start+0x5626>
    655a: b8           	clv
    655b: 90 05        	bcc	$6562 <errhypclosedir15>
    655d: 86 04        	stx	$4                      ; 0x2004 <__heap_default_limit+0x1004>
    655f: 4c 64 65     	jmp	$6564 <donehypclosedir15>

00006562 <errhypclosedir15>:
    6562: 85 04        	sta	$4                      ; 0x2004 <__heap_default_limit+0x1004>

00006564 <donehypclosedir15>:
    6564: ea           	nop
    6565: a5 20        	lda	$20                     ; 0x2020 <next_line+0xb>
    6567: a0 02        	ldy	#$2
    6569: aa           	tax
    656a: 5a           	phy
    656b: a0 0c        	ldy	#$c
    656d: b1 02        	lda	($2),y                  ; 0x2002 <__heap_default_limit+0x1002>
    656f: 7a           	ply
    6570: 91 1c        	sta	($1c),y                 ; 0x201c <next_line+0x7>
    6572: a0 44        	ldy	#$44
    6574: 18           	clc
    6575: 5a           	phy
    6576: a0 0e        	ldy	#$e
    6578: b1 02        	lda	($2),y                  ; 0x2002 <__heap_default_limit+0x1002>
    657a: 7a           	ply
    657b: 69 44        	adc	#$44
    657d: 85 04        	sta	$4                      ; 0x2004 <__heap_default_limit+0x1004>
    657f: 8a           	txa
    6580: 69 00        	adc	#$0
    6582: 85 05        	sta	$5                      ; 0x2005 <__heap_default_limit+0x1005>
    6584: a9 ff        	lda	#$ff
    6586: 91 1c        	sta	($1c),y                 ; 0x201c <next_line+0x7>
    6588: a0 01        	ldy	#$1
    658a: 91 04        	sta	($4),y                  ; 0x2004 <__heap_default_limit+0x1004>
    658c: a0 0d        	ldy	#$d
    658e: b1 02        	lda	($2),y                  ; 0x2002 <__heap_default_limit+0x1002>
    6590: f0 13        	beq	$65a5 <donehypclosedir15+0x41>
    6592: a9 fe        	lda	#$fe
    6594: a0 44        	ldy	#$44
    6596: 91 1c        	sta	($1c),y                 ; 0x201c <next_line+0x7>
    6598: 1a           	inc
    6599: a0 01        	ldy	#$1
    659b: 91 04        	sta	($4),y                  ; 0x2004 <__heap_default_limit+0x1004>
    659d: 80 06        	bra	$65a5 <donehypclosedir15+0x41>
    659f: a5 1a        	lda	$1a                     ; 0x201a <next_line+0x5>
    65a1: a0 02        	ldy	#$2
    65a3: 91 1c        	sta	($1c),y                 ; 0x201c <next_line+0x7>
    65a5: a0 00        	ldy	#$0
    65a7: b1 02        	lda	($2),y                  ; 0x2002 <__heap_default_limit+0x1002>
    65a9: 85 21        	sta	$21                     ; 0x2021 <_start>
    65ab: c8           	iny
    65ac: b1 02        	lda	($2),y                  ; 0x2002 <__heap_default_limit+0x1002>
    65ae: 85 20        	sta	$20                     ; 0x2020 <next_line+0xb>
    65b0: c8           	iny
    65b1: b1 02        	lda	($2),y                  ; 0x2002 <__heap_default_limit+0x1002>
    65b3: 85 1f        	sta	$1f                     ; 0x201f <next_line+0xa>
    65b5: c8           	iny
    65b6: b1 02        	lda	($2),y                  ; 0x2002 <__heap_default_limit+0x1002>
    65b8: 85 1e        	sta	$1e                     ; 0x201e <next_line+0x9>
    65ba: c8           	iny
    65bb: b1 02        	lda	($2),y                  ; 0x2002 <__heap_default_limit+0x1002>
    65bd: 85 1d        	sta	$1d                     ; 0x201d <next_line+0x8>
    65bf: c8           	iny
    65c0: b1 02        	lda	($2),y                  ; 0x2002 <__heap_default_limit+0x1002>
    65c2: 85 1c        	sta	$1c                     ; 0x201c <next_line+0x7>
    65c4: c8           	iny
    65c5: b1 02        	lda	($2),y                  ; 0x2002 <__heap_default_limit+0x1002>
    65c7: 85 1b        	sta	$1b                     ; 0x201b <next_line+0x6>
    65c9: c8           	iny
    65ca: b1 02        	lda	($2),y                  ; 0x2002 <__heap_default_limit+0x1002>
    65cc: 85 1a        	sta	$1a                     ; 0x201a <next_line+0x5>
    65ce: fa           	plx
    65cf: 86 19        	stx	$19                     ; 0x2019 <next_line+0x4>
    65d1: fa           	plx
    65d2: 86 18        	stx	$18                     ; 0x2018 <next_line+0x3>
    65d4: fa           	plx
    65d5: 86 17        	stx	$17                     ; 0x2017 <next_line+0x2>
    65d7: fa           	plx
    65d8: 86 16        	stx	$16                     ; 0x2016 <next_line+0x1>
    65da: 18           	clc
    65db: a5 02        	lda	$2                      ; 0x2002 <__heap_default_limit+0x1002>
    65dd: 69 0f        	adc	#$f
    65df: 85 02        	sta	$2                      ; 0x2002 <__heap_default_limit+0x1002>
    65e1: a5 03        	lda	$3                      ; 0x2003 <__heap_default_limit+0x1003>
    65e3: 69 00        	adc	#$0
    65e5: 85 03        	sta	$3                      ; 0x2003 <__heap_default_limit+0x1003>
    65e7: 60           	rts

000065e8 <Deselect>:
    65e8: 0a           	asl
    65e9: a0 00        	ldy	#$0
    65eb: 64 04        	stz	$4                      ; 0x2004 <__heap_default_limit+0x1004>
    65ed: 26 04        	rol	$4                      ; 0x2004 <__heap_default_limit+0x1004>
    65ef: 0a           	asl
    65f0: 26 04        	rol	$4                      ; 0x2004 <__heap_default_limit+0x1004>
    65f2: 0a           	asl
    65f3: 26 04        	rol	$4                      ; 0x2004 <__heap_default_limit+0x1004>
    65f5: 0a           	asl
    65f6: 85 05        	sta	$5                      ; 0x2005 <__heap_default_limit+0x1005>
    65f8: 26 04        	rol	$4                      ; 0x2004 <__heap_default_limit+0x1004>
    65fa: 0a           	asl
    65fb: a6 04        	ldx	$4                      ; 0x2004 <__heap_default_limit+0x1004>
    65fd: 86 07        	stx	$7                      ; 0x2007 <__heap_default_limit+0x1007>
    65ff: 26 07        	rol	$7                      ; 0x2007 <__heap_default_limit+0x1007>
    6601: 0a           	asl
    6602: 26 07        	rol	$7                      ; 0x2007 <__heap_default_limit+0x1007>
    6604: 0a           	asl
    6605: 26 07        	rol	$7                      ; 0x2007 <__heap_default_limit+0x1007>
    6607: 38           	sec
    6608: e5 05        	sbc	$5                      ; 0x2005 <__heap_default_limit+0x1005>
    660a: 85 05        	sta	$5                      ; 0x2005 <__heap_default_limit+0x1005>
    660c: a5 07        	lda	$7                      ; 0x2007 <__heap_default_limit+0x1007>
    660e: e5 04        	sbc	$4                      ; 0x2004 <__heap_default_limit+0x1004>
    6610: 85 04        	sta	$4                      ; 0x2004 <__heap_default_limit+0x1004>
    6612: a9 da        	lda	#$da
    6614: 18           	clc
    6615: 65 05        	adc	$5                      ; 0x2005 <__heap_default_limit+0x1005>
    6617: aa           	tax
    6618: a9 7b        	lda	#$7b
    661a: 65 04        	adc	$4                      ; 0x2004 <__heap_default_limit+0x1004>
    661c: 86 04        	stx	$4                      ; 0x2004 <__heap_default_limit+0x1004>
    661e: 85 05        	sta	$5                      ; 0x2005 <__heap_default_limit+0x1005>
    6620: 80 07        	bra	$6629 <Deselect+0x41>
    6622: a9 fe        	lda	#$fe
    6624: 31 04        	and	($4),y                  ; 0x2004 <__heap_default_limit+0x1004>
    6626: 91 04        	sta	($4),y                  ; 0x2004 <__heap_default_limit+0x1004>
    6628: c8           	iny
    6629: c0 70        	cpy	#$70
    662b: d0 f5        	bne	$6622 <Deselect+0x3a>
    662d: 60           	rts

0000662e <sizeselectcurrentifnone>:
    662e: 85 49        	sta	$49                     ; 0x2049 <__after_main+0x1>
    6630: 0a           	asl
    6631: aa           	tax
    6632: a9 00        	lda	#$0
    6634: 2a           	rol
    6635: 85 04        	sta	$4                      ; 0x2004 <__heap_default_limit+0x1004>
    6637: 8a           	txa
    6638: 86 4f        	stx	$4f                     ; 0x204f <_fini+0x4>
    663a: 0a           	asl
    663b: a6 04        	ldx	$4                      ; 0x2004 <__heap_default_limit+0x1004>
    663d: 86 50        	stx	$50                     ; 0x2050 <_fini+0x5>
    663f: 26 04        	rol	$4                      ; 0x2004 <__heap_default_limit+0x1004>
    6641: 0a           	asl
    6642: 26 04        	rol	$4                      ; 0x2004 <__heap_default_limit+0x1004>
    6644: 0a           	asl
    6645: 85 05        	sta	$5                      ; 0x2005 <__heap_default_limit+0x1005>
    6647: 26 04        	rol	$4                      ; 0x2004 <__heap_default_limit+0x1004>
    6649: a6 04        	ldx	$4                      ; 0x2004 <__heap_default_limit+0x1004>
    664b: 86 06        	stx	$6                      ; 0x2006 <__heap_default_limit+0x1006>
    664d: 0a           	asl
    664e: a6 04        	ldx	$4                      ; 0x2004 <__heap_default_limit+0x1004>
    6650: 86 07        	stx	$7                      ; 0x2007 <__heap_default_limit+0x1007>
    6652: 26 07        	rol	$7                      ; 0x2007 <__heap_default_limit+0x1007>
    6654: 0a           	asl
    6655: 26 07        	rol	$7                      ; 0x2007 <__heap_default_limit+0x1007>
    6657: 0a           	asl
    6658: 26 07        	rol	$7                      ; 0x2007 <__heap_default_limit+0x1007>
    665a: 38           	sec
    665b: 85 53        	sta	$53                     ; 0x2053 <_fini+0x8>
    665d: a6 05        	ldx	$5                      ; 0x2005 <__heap_default_limit+0x1005>
    665f: 86 51        	stx	$51                     ; 0x2051 <_fini+0x6>
    6661: e5 05        	sbc	$5                      ; 0x2005 <__heap_default_limit+0x1005>
    6663: 85 04        	sta	$4                      ; 0x2004 <__heap_default_limit+0x1004>
    6665: a6 07        	ldx	$7                      ; 0x2007 <__heap_default_limit+0x1007>
    6667: 86 54        	stx	$54                     ; 0x2054 <_fini+0x9>
    6669: a5 07        	lda	$7                      ; 0x2007 <__heap_default_limit+0x1007>
    666b: a6 06        	ldx	$6                      ; 0x2006 <__heap_default_limit+0x1006>
    666d: 86 52        	stx	$52                     ; 0x2052 <_fini+0x7>
    666f: e5 06        	sbc	$6                      ; 0x2006 <__heap_default_limit+0x1006>
    6671: 85 05        	sta	$5                      ; 0x2005 <__heap_default_limit+0x1005>
    6673: a9 da        	lda	#$da
    6675: 18           	clc
    6676: 65 04        	adc	$4                      ; 0x2004 <__heap_default_limit+0x1004>
    6678: 85 4b        	sta	$4b                     ; 0x204b <_fini>
    667a: a9 7b        	lda	#$7b
    667c: 65 05        	adc	$5                      ; 0x2005 <__heap_default_limit+0x1005>
    667e: 85 4c        	sta	$4c                     ; 0x204c <_fini+0x1>
    6680: a9 00        	lda	#$0
    6682: 64 4d        	stz	$4d                     ; 0x204d <_fini+0x2>
    6684: aa           	tax
    6685: a8           	tay
    6686: 80 03        	bra	$668b <sizeselectcurrentifnone+0x5d>
    6688: c8           	iny
    6689: a5 4a        	lda	$4a                     ; 0x204a <__after_main+0x2>
    668b: c0 70        	cpy	#$70
    668d: d0 03        	bne	$6692 <sizeselectcurrentifnone+0x64>
    668f: 4c f9 66     	jmp	$66f9 <sizeselectcurrentifnone+0xcb>
    6692: 85 4a        	sta	$4a                     ; 0x204a <__after_main+0x2>
    6694: a9 01        	lda	#$1
    6696: 31 4b        	and	($4b),y                 ; 0x204b <_fini>
    6698: f0 ee        	beq	$6688 <sizeselectcurrentifnone+0x5a>
    669a: 5a           	phy
    669b: fa           	plx
    669c: a5 49        	lda	$49                     ; 0x2049 <__after_main+0x1>
    669e: 84 4e        	sty	$4e                     ; 0x204e <_fini+0x3>
    66a0: 20 eb 54     	jsr	$54eb <getdirententry>
    66a3: a5 04        	lda	$4                      ; 0x2004 <__heap_default_limit+0x1004>
    66a5: 18           	clc
    66a6: 69 1e        	adc	#$1e
    66a8: 85 06        	sta	$6                      ; 0x2006 <__heap_default_limit+0x1006>
    66aa: a5 05        	lda	$5                      ; 0x2005 <__heap_default_limit+0x1005>
    66ac: 69 00        	adc	#$0
    66ae: 85 07        	sta	$7                      ; 0x2007 <__heap_default_limit+0x1007>
    66b0: 18           	clc
    66b1: a5 4a        	lda	$4a                     ; 0x204a <__after_main+0x2>
    66b3: a0 1e        	ldy	#$1e
    66b5: 71 04        	adc	($4),y                  ; 0x2004 <__heap_default_limit+0x1004>
    66b7: 85 4a        	sta	$4a                     ; 0x204a <__after_main+0x2>
    66b9: a5 4d        	lda	$4d                     ; 0x204d <_fini+0x2>
    66bb: a0 01        	ldy	#$1
    66bd: 71 06        	adc	($6),y                  ; 0x2006 <__heap_default_limit+0x1006>
    66bf: 85 4d        	sta	$4d                     ; 0x204d <_fini+0x2>
    66c1: a9 0f        	lda	#$f
    66c3: c8           	iny
    66c4: 31 04        	and	($4),y                  ; 0x2004 <__heap_default_limit+0x1004>
    66c6: a4 4e        	ldy	$4e                     ; 0x204e <_fini+0x3>
    66c8: a2 01        	ldx	#$1
    66ca: c9 05        	cmp	#$5
    66cc: f0 03        	beq	$66d1 <sizeselectcurrentifnone+0xa3>
    66ce: 4c 88 66     	jmp	$6688 <sizeselectcurrentifnone+0x5a>
    66d1: a9 00        	lda	#$0
    66d3: a2 60        	ldx	#$60
    66d5: 86 04        	stx	$4                      ; 0x2004 <__heap_default_limit+0x1004>
    66d7: a2 75        	ldx	#$75
    66d9: 86 05        	stx	$5                      ; 0x2005 <__heap_default_limit+0x1005>
    66db: a2 66        	ldx	#$66
    66dd: 86 06        	stx	$6                      ; 0x2006 <__heap_default_limit+0x1006>
    66df: a2 79        	ldx	#$79
    66e1: 86 07        	stx	$7                      ; 0x2007 <__heap_default_limit+0x1007>
    66e3: a2 7e        	ldx	#$7e
    66e5: 86 08        	stx	$8                      ; 0x2008 <__heap_default_limit+0x1008>
    66e7: a2 71        	ldx	#$71
    66e9: 86 09        	stx	$9                      ; 0x2009 <__heap_default_limit+0x1009>
    66eb: 64 0a        	stz	$a                      ; 0x200a <__heap_default_limit+0x100a>
    66ed: 64 0b        	stz	$b                      ; 0x200b <__heap_default_limit+0x100b>
    66ef: 64 0c        	stz	$c                      ; 0x200c <__heap_default_limit+0x100c>
    66f1: aa           	tax
    66f2: 20 05 59     	jsr	$5905 <messagebox>
    66f5: a9 ff        	lda	#$ff
    66f7: aa           	tax
    66f8: 60           	rts
    66f9: e0 00        	cpx	#$0
    66fb: f0 03        	beq	$6700 <sizeselectcurrentifnone+0xd2>
    66fd: a6 4d        	ldx	$4d                     ; 0x204d <_fini+0x2>
    66ff: 60           	rts
    6700: 85 4c        	sta	$4c                     ; 0x204c <_fini+0x1>
    6702: a9 27        	lda	#$27
    6704: a6 4f        	ldx	$4f                     ; 0x204f <_fini+0x4>
    6706: 86 04        	stx	$4                      ; 0x2004 <__heap_default_limit+0x1004>
    6708: 18           	clc
    6709: 65 04        	adc	$4                      ; 0x2004 <__heap_default_limit+0x1004>
    670b: a8           	tay
    670c: a6 50        	ldx	$50                     ; 0x2050 <_fini+0x5>
    670e: 86 04        	stx	$4                      ; 0x2004 <__heap_default_limit+0x1004>
    6710: a9 00        	lda	#$0
    6712: 65 04        	adc	$4                      ; 0x2004 <__heap_default_limit+0x1004>
    6714: 84 04        	sty	$4                      ; 0x2004 <__heap_default_limit+0x1004>
    6716: 85 05        	sta	$5                      ; 0x2005 <__heap_default_limit+0x1005>
    6718: b2 04        	lda	($4),z                  ; 0x2004 <__heap_default_limit+0x1004>
    671a: aa           	tax
    671b: a0 01        	ldy	#$1
    671d: b1 04        	lda	($4),y                  ; 0x2004 <__heap_default_limit+0x1004>
    671f: 86 04        	stx	$4                      ; 0x2004 <__heap_default_limit+0x1004>
    6721: 85 05        	sta	$5                      ; 0x2005 <__heap_default_limit+0x1005>
    6723: 38           	sec
    6724: a6 51        	ldx	$51                     ; 0x2051 <_fini+0x6>
    6726: 86 06        	stx	$6                      ; 0x2006 <__heap_default_limit+0x1006>
    6728: a5 53        	lda	$53                     ; 0x2053 <_fini+0x8>
    672a: e5 06        	sbc	$6                      ; 0x2006 <__heap_default_limit+0x1006>
    672c: 85 06        	sta	$6                      ; 0x2006 <__heap_default_limit+0x1006>
    672e: a6 52        	ldx	$52                     ; 0x2052 <_fini+0x7>
    6730: 86 07        	stx	$7                      ; 0x2007 <__heap_default_limit+0x1007>
    6732: a5 54        	lda	$54                     ; 0x2054 <_fini+0x9>
    6734: e5 07        	sbc	$7                      ; 0x2007 <__heap_default_limit+0x1007>
    6736: 85 07        	sta	$7                      ; 0x2007 <__heap_default_limit+0x1007>
    6738: a9 da        	lda	#$da
    673a: 18           	clc
    673b: 65 06        	adc	$6                      ; 0x2006 <__heap_default_limit+0x1006>
    673d: 85 06        	sta	$6                      ; 0x2006 <__heap_default_limit+0x1006>
    673f: a9 7b        	lda	#$7b
    6741: 65 07        	adc	$7                      ; 0x2007 <__heap_default_limit+0x1007>
    6743: 85 07        	sta	$7                      ; 0x2007 <__heap_default_limit+0x1007>
    6745: b1 04        	lda	($4),y                  ; 0x2004 <__heap_default_limit+0x1004>
    6747: a8           	tay
    6748: a9 01        	lda	#$1
    674a: 11 06        	ora	($6),y                  ; 0x2006 <__heap_default_limit+0x1006>
    674c: 91 06        	sta	($6),y                  ; 0x2006 <__heap_default_limit+0x1006>
    674e: 5a           	phy
    674f: fa           	plx
    6750: a5 49        	lda	$49                     ; 0x2049 <__after_main+0x1>
    6752: 20 eb 54     	jsr	$54eb <getdirententry>
    6755: a5 04        	lda	$4                      ; 0x2004 <__heap_default_limit+0x1004>
    6757: 18           	clc
    6758: 69 1e        	adc	#$1e
    675a: 85 06        	sta	$6                      ; 0x2006 <__heap_default_limit+0x1006>
    675c: a5 05        	lda	$5                      ; 0x2005 <__heap_default_limit+0x1005>
    675e: 69 00        	adc	#$0
    6760: 85 07        	sta	$7                      ; 0x2007 <__heap_default_limit+0x1007>
    6762: a5 4c        	lda	$4c                     ; 0x204c <_fini+0x1>
    6764: a0 1e        	ldy	#$1e
    6766: 18           	clc
    6767: 71 04        	adc	($4),y                  ; 0x2004 <__heap_default_limit+0x1004>
    6769: 85 04        	sta	$4                      ; 0x2004 <__heap_default_limit+0x1004>
    676b: a5 4d        	lda	$4d                     ; 0x204d <_fini+0x2>
    676d: a0 01        	ldy	#$1
    676f: 71 06        	adc	($6),y                  ; 0x2006 <__heap_default_limit+0x1006>
    6771: aa           	tax
    6772: a5 04        	lda	$4                      ; 0x2004 <__heap_default_limit+0x1004>
    6774: 60           	rts

00006775 <sidbong>:
    6775: a2 1f        	ldx	#$1f
    6777: 8e 02 d4     	stx	$d402                   ; 0xd402 <__heap_start+0x53e8>
    677a: 64 05        	stz	$5                      ; 0x2005 <__heap_default_limit+0x1005>
    677c: 9c 03 d4     	stz	$d403                   ; 0xd403 <__heap_start+0x53e9>
    677f: a9 09        	lda	#$9
    6781: 8d 05 d4     	sta	$d405                   ; 0xd405 <__heap_start+0x53eb>
    6784: a0 25        	ldy	#$25
    6786: 8c 00 d4     	sty	$d400                   ; 0xd400 <__heap_start+0x53e6>
    6789: a0 11        	ldy	#$11
    678b: 8c 01 d4     	sty	$d401                   ; 0xd401 <__heap_start+0x53e7>
    678e: 8c 04 d4     	sty	$d404                   ; 0xd404 <__heap_start+0x53ea>
    6791: 8e 42 d4     	stx	$d442                   ; 0xd442 <__heap_start+0x5428>
    6794: 9c 43 d4     	stz	$d443                   ; 0xd443 <__heap_start+0x5429>
    6797: 8d 45 d4     	sta	$d445                   ; 0xd445 <__heap_start+0x542b>
    679a: a2 9a        	ldx	#$9a
    679c: 8e 40 d4     	stx	$d440                   ; 0xd440 <__heap_start+0x5426>
    679f: a2 15        	ldx	#$15
    67a1: 8e 41 d4     	stx	$d441                   ; 0xd441 <__heap_start+0x5427>
    67a4: 8c 44 d4     	sty	$d444                   ; 0xd444 <__heap_start+0x542a>
    67a7: a9 40        	lda	#$40
    67a9: a2 0d        	ldx	#$d
    67ab: a0 03        	ldy	#$3
    67ad: 84 04        	sty	$4                      ; 0x2004 <__heap_default_limit+0x1004>
    67af: 20 d9 6a     	jsr	$6ad9 <usleep>
    67b2: a2 10        	ldx	#$10
    67b4: 8e 04 d4     	stx	$d404                   ; 0xd404 <__heap_start+0x53ea>
    67b7: 8e 44 d4     	stx	$d444                   ; 0xd444 <__heap_start+0x542a>
    67ba: 60           	rts

000067bb <escNOP>:
    67bb: 60           	rts

000067bc <cputc>:
    67bc: 85 04        	sta	$4                      ; 0x2004 <__heap_default_limit+0x1004>
    67be: a5 33        	lda	$33                     ; 0x2033 <__do_init_stack+0x4>
    67c0: a6 34        	ldx	$34                     ; 0x2034 <__do_init_stack+0x5>
    67c2: 4c c5 67     	jmp	$67c5 <cputcxy>

000067c5 <cputcxy>:
    67c5: 85 78        	sta	$78                     ; 0x2078 <lprestore+0x3>
    67c7: a4 04        	ldy	$4                      ; 0x2004 <__heap_default_limit+0x1004>
    67c9: 84 79        	sty	$79                     ; 0x2079 <lprestore+0x4>
    67cb: a5 31        	lda	$31                     ; 0x2031 <__do_init_stack+0x2>
    67cd: 86 77        	stx	$77                     ; 0x2077 <lprestore+0x2>
    67cf: 86 04        	stx	$4                      ; 0x2004 <__heap_default_limit+0x1004>
    67d1: 64 05        	stz	$5                      ; 0x2005 <__heap_default_limit+0x1005>
    67d3: a2 00        	ldx	#$0
    67d5: 64 75        	stz	$75                     ; 0x2075 <lprestore>
    67d7: 20 d2 6b     	jsr	$6bd2 <__mulhi3>
    67da: 18           	clc
    67db: 65 78        	adc	$78                     ; 0x2078 <lprestore+0x3>
    67dd: 85 76        	sta	$76                     ; 0x2076 <lprestore+0x1>
    67df: 8a           	txa
    67e0: 69 00        	adc	#$0
    67e2: 85 74        	sta	$74                     ; 0x2074 <lpstore+0x1a>
    67e4: ad 63 d0     	lda	$d063                   ; 0xd063 <__heap_start+0x5049>
    67e7: 29 07        	and	#$7
    67e9: a8           	tay
    67ea: ae 62 d0     	ldx	$d062                   ; 0xd062 <__heap_start+0x5048>
    67ed: 86 06        	stx	$6                      ; 0x2006 <__heap_default_limit+0x1006>
    67ef: ae 61 d0     	ldx	$d061                   ; 0xd061 <__heap_start+0x5047>
    67f2: 86 04        	stx	$4                      ; 0x2004 <__heap_default_limit+0x1004>
    67f4: ae 60 d0     	ldx	$d060                   ; 0xd060 <__heap_start+0x5046>
    67f7: 86 05        	stx	$5                      ; 0x2005 <__heap_default_limit+0x1005>
    67f9: a5 76        	lda	$76                     ; 0x2076 <lprestore+0x1>
    67fb: 18           	clc
    67fc: 69 00        	adc	#$0
    67fe: aa           	tax
    67ff: a5 74        	lda	$74                     ; 0x2074 <lpstore+0x1a>
    6801: 65 04        	adc	$4                      ; 0x2004 <__heap_default_limit+0x1004>
    6803: 85 07        	sta	$7                      ; 0x2007 <__heap_default_limit+0x1007>
    6805: a5 06        	lda	$6                      ; 0x2006 <__heap_default_limit+0x1006>
    6807: 69 00        	adc	#$0
    6809: 85 04        	sta	$4                      ; 0x2004 <__heap_default_limit+0x1004>
    680b: 98           	tya
    680c: 69 00        	adc	#$0
    680e: 85 06        	sta	$6                      ; 0x2006 <__heap_default_limit+0x1006>
    6810: 8a           	txa
    6811: 18           	clc
    6812: 65 05        	adc	$5                      ; 0x2005 <__heap_default_limit+0x1005>
    6814: a8           	tay
    6815: a5 07        	lda	$7                      ; 0x2007 <__heap_default_limit+0x1007>
    6817: 69 00        	adc	#$0
    6819: 85 07        	sta	$7                      ; 0x2007 <__heap_default_limit+0x1007>
    681b: a5 04        	lda	$4                      ; 0x2004 <__heap_default_limit+0x1004>
    681d: 69 00        	adc	#$0
    681f: 85 04        	sta	$4                      ; 0x2004 <__heap_default_limit+0x1004>
    6821: a5 06        	lda	$6                      ; 0x2006 <__heap_default_limit+0x1006>
    6823: 69 00        	adc	#$0
    6825: 85 05        	sta	$5                      ; 0x2005 <__heap_default_limit+0x1005>
    6827: a6 79        	ldx	$79                     ; 0x2079 <lprestore+0x4>
    6829: 86 06        	stx	$6                      ; 0x2006 <__heap_default_limit+0x1006>
    682b: a6 07        	ldx	$7                      ; 0x2007 <__heap_default_limit+0x1007>
    682d: 98           	tya
    682e: 20 90 20     	jsr	$2090 <lpoke>
    6831: a6 2b        	ldx	$2b                     ; 0x202b <_start+0xa>
    6833: a0 f8        	ldy	#$f8
    6835: a9 0f        	lda	#$f
    6837: 84 04        	sty	$4                      ; 0x2004 <__heap_default_limit+0x1004>
    6839: 85 05        	sta	$5                      ; 0x2005 <__heap_default_limit+0x1005>
    683b: 86 06        	stx	$6                      ; 0x2006 <__heap_default_limit+0x1006>
    683d: a6 74        	ldx	$74                     ; 0x2074 <lpstore+0x1a>
    683f: a5 76        	lda	$76                     ; 0x2076 <lprestore+0x1>
    6841: 20 90 20     	jsr	$2090 <lpoke>
    6844: a6 31        	ldx	$31                     ; 0x2031 <__do_init_stack+0x2>
    6846: ca           	dex
    6847: e0 ff        	cpx	#$ff
    6849: d0 02        	bne	$684d <cputcxy+0x88>
    684b: c6 75        	dec	$75                     ; 0x2075 <lprestore>
    684d: a5 75        	lda	$75                     ; 0x2075 <lprestore>
    684f: d0 0b        	bne	$685c <cputcxy+0x97>
    6851: e4 78        	cpx	$78                     ; 0x2078 <lprestore+0x3>
    6853: d0 07        	bne	$685c <cputcxy+0x97>
    6855: a4 77        	ldy	$77                     ; 0x2077 <lprestore+0x2>
    6857: c8           	iny
    6858: a2 00        	ldx	#$0
    685a: 80 05        	bra	$6861 <cputcxy+0x9c>
    685c: a4 77        	ldy	$77                     ; 0x2077 <lprestore+0x2>
    685e: a6 78        	ldx	$78                     ; 0x2078 <lprestore+0x3>
    6860: e8           	inx
    6861: 86 33        	stx	$33                     ; 0x2033 <__do_init_stack+0x4>
    6863: 84 34        	sty	$34                     ; 0x2034 <__do_init_stack+0x5>
    6865: 60           	rts

00006866 <cputs>:
    6866: a5 33        	lda	$33                     ; 0x2033 <__do_init_stack+0x4>
    6868: a6 34        	ldx	$34                     ; 0x2034 <__do_init_stack+0x5>
    686a: 4c 6d 68     	jmp	$686d <cputsxy>

0000686d <cputsxy>:
    686d: 85 7f        	sta	$7f                     ; 0x207f <lprestore+0xa>
    686f: 86 7e        	stx	$7e                     ; 0x207e <lprestore+0x9>
    6871: a6 04        	ldx	$4                      ; 0x2004 <__heap_default_limit+0x1004>
    6873: 86 06        	stx	$6                      ; 0x2006 <__heap_default_limit+0x1006>
    6875: a6 05        	ldx	$5                      ; 0x2005 <__heap_default_limit+0x1005>
    6877: 86 07        	stx	$7                      ; 0x2007 <__heap_default_limit+0x1007>
    6879: a6 06        	ldx	$6                      ; 0x2006 <__heap_default_limit+0x1006>
    687b: 86 7c        	stx	$7c                     ; 0x207c <lprestore+0x7>
    687d: a6 07        	ldx	$7                      ; 0x2007 <__heap_default_limit+0x1007>
    687f: 86 7d        	stx	$7d                     ; 0x207d <lprestore+0x8>
    6881: 20 78 6b     	jsr	$6b78 <strlen>
    6884: 85 7b        	sta	$7b                     ; 0x207b <lprestore+0x6>
    6886: a5 31        	lda	$31                     ; 0x2031 <__do_init_stack+0x2>
    6888: a6 7e        	ldx	$7e                     ; 0x207e <lprestore+0x9>
    688a: 86 04        	stx	$4                      ; 0x2004 <__heap_default_limit+0x1004>
    688c: 64 05        	stz	$5                      ; 0x2005 <__heap_default_limit+0x1005>
    688e: a2 00        	ldx	#$0
    6890: 20 d2 6b     	jsr	$6bd2 <__mulhi3>
    6893: 86 05        	stx	$5                      ; 0x2005 <__heap_default_limit+0x1005>
    6895: a6 7f        	ldx	$7f                     ; 0x207f <lprestore+0xa>
    6897: 86 04        	stx	$4                      ; 0x2004 <__heap_default_limit+0x1004>
    6899: 18           	clc
    689a: 65 04        	adc	$4                      ; 0x2004 <__heap_default_limit+0x1004>
    689c: a8           	tay
    689d: 85 81        	sta	$81                     ; 0x2081 <lprestore+0xc>
    689f: a5 05        	lda	$5                      ; 0x2005 <__heap_default_limit+0x1005>
    68a1: 69 00        	adc	#$0
    68a3: 85 80        	sta	$80                     ; 0x2080 <lprestore+0xb>
    68a5: ad 63 d0     	lda	$d063                   ; 0xd063 <__heap_start+0x5049>
    68a8: 29 07        	and	#$7
    68aa: 85 08        	sta	$8                      ; 0x2008 <__heap_default_limit+0x1008>
    68ac: ae 62 d0     	ldx	$d062                   ; 0xd062 <__heap_start+0x5048>
    68af: 86 07        	stx	$7                      ; 0x2007 <__heap_default_limit+0x1007>
    68b1: ae 61 d0     	ldx	$d061                   ; 0xd061 <__heap_start+0x5047>
    68b4: 86 04        	stx	$4                      ; 0x2004 <__heap_default_limit+0x1004>
    68b6: ae 60 d0     	ldx	$d060                   ; 0xd060 <__heap_start+0x5046>
    68b9: 86 05        	stx	$5                      ; 0x2005 <__heap_default_limit+0x1005>
    68bb: 18           	clc
    68bc: 98           	tya
    68bd: 69 00        	adc	#$0
    68bf: a8           	tay
    68c0: a6 80        	ldx	$80                     ; 0x2080 <lprestore+0xb>
    68c2: 8a           	txa
    68c3: 65 04        	adc	$4                      ; 0x2004 <__heap_default_limit+0x1004>
    68c5: 85 09        	sta	$9                      ; 0x2009 <__heap_default_limit+0x1009>
    68c7: a5 07        	lda	$7                      ; 0x2007 <__heap_default_limit+0x1007>
    68c9: 69 00        	adc	#$0
    68cb: 85 04        	sta	$4                      ; 0x2004 <__heap_default_limit+0x1004>
    68cd: a5 08        	lda	$8                      ; 0x2008 <__heap_default_limit+0x1008>
    68cf: 69 00        	adc	#$0
    68d1: aa           	tax
    68d2: 18           	clc
    68d3: 98           	tya
    68d4: 65 05        	adc	$5                      ; 0x2005 <__heap_default_limit+0x1005>
    68d6: 85 06        	sta	$6                      ; 0x2006 <__heap_default_limit+0x1006>
    68d8: a5 09        	lda	$9                      ; 0x2009 <__heap_default_limit+0x1009>
    68da: 69 00        	adc	#$0
    68dc: 85 07        	sta	$7                      ; 0x2007 <__heap_default_limit+0x1007>
    68de: a5 04        	lda	$4                      ; 0x2004 <__heap_default_limit+0x1004>
    68e0: 69 00        	adc	#$0
    68e2: 85 08        	sta	$8                      ; 0x2008 <__heap_default_limit+0x1008>
    68e4: 8a           	txa
    68e5: 69 00        	adc	#$0
    68e7: 64 04        	stz	$4                      ; 0x2004 <__heap_default_limit+0x1004>
    68e9: 64 05        	stz	$5                      ; 0x2005 <__heap_default_limit+0x1005>
    68eb: 85 09        	sta	$9                      ; 0x2009 <__heap_default_limit+0x1009>
    68ed: a6 7b        	ldx	$7b                     ; 0x207b <lprestore+0x6>
    68ef: 86 0a        	stx	$a                      ; 0x200a <__heap_default_limit+0x100a>
    68f1: 64 0b        	stz	$b                      ; 0x200b <__heap_default_limit+0x100b>
    68f3: a6 7c        	ldx	$7c                     ; 0x207c <lprestore+0x7>
    68f5: 86 0c        	stx	$c                      ; 0x200c <__heap_default_limit+0x100c>
    68f7: a6 7d        	ldx	$7d                     ; 0x207d <lprestore+0x8>
    68f9: a5 0c        	lda	$c                      ; 0x200c <__heap_default_limit+0x100c>
    68fb: 20 22 6a     	jsr	$6a22 <lcopy>
    68fe: a6 2b        	ldx	$2b                     ; 0x202b <_start+0xa>
    6900: a0 f8        	ldy	#$f8
    6902: a9 0f        	lda	#$f
    6904: 84 04        	sty	$4                      ; 0x2004 <__heap_default_limit+0x1004>
    6906: 85 05        	sta	$5                      ; 0x2005 <__heap_default_limit+0x1005>
    6908: 86 06        	stx	$6                      ; 0x2006 <__heap_default_limit+0x1006>
    690a: a6 7b        	ldx	$7b                     ; 0x207b <lprestore+0x6>
    690c: 86 07        	stx	$7                      ; 0x2007 <__heap_default_limit+0x1007>
    690e: 64 08        	stz	$8                      ; 0x2008 <__heap_default_limit+0x1008>
    6910: a6 80        	ldx	$80                     ; 0x2080 <lprestore+0xb>
    6912: a5 81        	lda	$81                     ; 0x2081 <lprestore+0xc>
    6914: 20 89 6a     	jsr	$6a89 <lfill>
    6917: a5 7b        	lda	$7b                     ; 0x207b <lprestore+0x6>
    6919: a6 7f        	ldx	$7f                     ; 0x207f <lprestore+0xa>
    691b: 86 04        	stx	$4                      ; 0x2004 <__heap_default_limit+0x1004>
    691d: 18           	clc
    691e: 65 04        	adc	$4                      ; 0x2004 <__heap_default_limit+0x1004>
    6920: 85 08        	sta	$8                      ; 0x2008 <__heap_default_limit+0x1008>
    6922: a9 00        	lda	#$0
    6924: 69 00        	adc	#$0
    6926: a6 31        	ldx	$31                     ; 0x2031 <__do_init_stack+0x2>
    6928: a0 79        	ldy	#$79
    692a: 84 06        	sty	$6                      ; 0x2006 <__heap_default_limit+0x1006>
    692c: a0 00        	ldy	#$0
    692e: 84 07        	sty	$7                      ; 0x2007 <__heap_default_limit+0x1007>
    6930: 86 04        	stx	$4                      ; 0x2004 <__heap_default_limit+0x1004>
    6932: 64 05        	stz	$5                      ; 0x2005 <__heap_default_limit+0x1005>
    6934: aa           	tax
    6935: a5 08        	lda	$8                      ; 0x2008 <__heap_default_limit+0x1008>
    6937: 20 7a 6d     	jsr	$6d7a <__udivmodhi4>
    693a: a6 79        	ldx	$79                     ; 0x2079 <lprestore+0x4>
    693c: 18           	clc
    693d: a4 7e        	ldy	$7e                     ; 0x207e <lprestore+0x9>
    693f: 84 04        	sty	$4                      ; 0x2004 <__heap_default_limit+0x1004>
    6941: 65 04        	adc	$4                      ; 0x2004 <__heap_default_limit+0x1004>
    6943: 85 34        	sta	$34                     ; 0x2034 <__do_init_stack+0x5>
    6945: 86 33        	stx	$33                     ; 0x2033 <__do_init_stack+0x4>
    6947: 60           	rts

00006948 <fillrect>:
    6948: a6 04        	ldx	$4                      ; 0x2004 <__heap_default_limit+0x1004>
    694a: 86 74        	stx	$74                     ; 0x2074 <lpstore+0x1a>
    694c: a6 05        	ldx	$5                      ; 0x2005 <__heap_default_limit+0x1005>
    694e: 86 75        	stx	$75                     ; 0x2075 <lprestore>
    6950: a0 02        	ldy	#$2
    6952: b1 04        	lda	($4),y                  ; 0x2004 <__heap_default_limit+0x1004>
    6954: 38           	sec
    6955: f2 04        	sbc	($4),z                  ; 0x2004 <__heap_default_limit+0x1004>
    6957: 85 77        	sta	$77                     ; 0x2077 <lprestore+0x2>
    6959: 88           	dey
    695a: b1 04        	lda	($4),y                  ; 0x2004 <__heap_default_limit+0x1004>
    695c: 85 76        	sta	$76                     ; 0x2076 <lprestore+0x1>
    695e: 4c e6 69     	jmp	$69e6 <fillrect+0x9e>
    6961: a5 31        	lda	$31                     ; 0x2031 <__do_init_stack+0x2>
    6963: a6 76        	ldx	$76                     ; 0x2076 <lprestore+0x1>
    6965: 86 04        	stx	$4                      ; 0x2004 <__heap_default_limit+0x1004>
    6967: 64 05        	stz	$5                      ; 0x2005 <__heap_default_limit+0x1005>
    6969: a2 00        	ldx	#$0
    696b: 20 d2 6b     	jsr	$6bd2 <__mulhi3>
    696e: 18           	clc
    696f: 72 74        	adc	($74),z                 ; 0x2074 <lpstore+0x1a>
    6971: 85 78        	sta	$78                     ; 0x2078 <lprestore+0x3>
    6973: 8a           	txa
    6974: 69 00        	adc	#$0
    6976: 85 79        	sta	$79                     ; 0x2079 <lprestore+0x4>
    6978: ad 63 d0     	lda	$d063                   ; 0xd063 <__heap_start+0x5049>
    697b: 29 07        	and	#$7
    697d: a8           	tay
    697e: ae 62 d0     	ldx	$d062                   ; 0xd062 <__heap_start+0x5048>
    6981: 86 07        	stx	$7                      ; 0x2007 <__heap_default_limit+0x1007>
    6983: ae 61 d0     	ldx	$d061                   ; 0xd061 <__heap_start+0x5047>
    6986: 86 04        	stx	$4                      ; 0x2004 <__heap_default_limit+0x1004>
    6988: ae 60 d0     	ldx	$d060                   ; 0xd060 <__heap_start+0x5046>
    698b: 86 05        	stx	$5                      ; 0x2005 <__heap_default_limit+0x1005>
    698d: a5 78        	lda	$78                     ; 0x2078 <lprestore+0x3>
    698f: 18           	clc
    6990: 69 00        	adc	#$0
    6992: 85 06        	sta	$6                      ; 0x2006 <__heap_default_limit+0x1006>
    6994: a5 79        	lda	$79                     ; 0x2079 <lprestore+0x4>
    6996: 65 04        	adc	$4                      ; 0x2004 <__heap_default_limit+0x1004>
    6998: 85 08        	sta	$8                      ; 0x2008 <__heap_default_limit+0x1008>
    699a: a5 07        	lda	$7                      ; 0x2007 <__heap_default_limit+0x1007>
    699c: 69 00        	adc	#$0
    699e: 85 04        	sta	$4                      ; 0x2004 <__heap_default_limit+0x1004>
    69a0: 98           	tya
    69a1: 69 00        	adc	#$0
    69a3: aa           	tax
    69a4: 18           	clc
    69a5: a5 06        	lda	$6                      ; 0x2006 <__heap_default_limit+0x1006>
    69a7: 65 05        	adc	$5                      ; 0x2005 <__heap_default_limit+0x1005>
    69a9: a8           	tay
    69aa: a5 08        	lda	$8                      ; 0x2008 <__heap_default_limit+0x1008>
    69ac: 69 00        	adc	#$0
    69ae: 85 09        	sta	$9                      ; 0x2009 <__heap_default_limit+0x1009>
    69b0: a5 04        	lda	$4                      ; 0x2004 <__heap_default_limit+0x1004>
    69b2: 69 00        	adc	#$0
    69b4: 85 04        	sta	$4                      ; 0x2004 <__heap_default_limit+0x1004>
    69b6: 8a           	txa
    69b7: 69 00        	adc	#$0
    69b9: 85 05        	sta	$5                      ; 0x2005 <__heap_default_limit+0x1005>
    69bb: a2 20        	ldx	#$20
    69bd: 86 06        	stx	$6                      ; 0x2006 <__heap_default_limit+0x1006>
    69bf: a6 77        	ldx	$77                     ; 0x2077 <lprestore+0x2>
    69c1: 86 07        	stx	$7                      ; 0x2007 <__heap_default_limit+0x1007>
    69c3: 64 08        	stz	$8                      ; 0x2008 <__heap_default_limit+0x1008>
    69c5: a6 09        	ldx	$9                      ; 0x2009 <__heap_default_limit+0x1009>
    69c7: 98           	tya
    69c8: 20 89 6a     	jsr	$6a89 <lfill>
    69cb: a2 f8        	ldx	#$f8
    69cd: 86 04        	stx	$4                      ; 0x2004 <__heap_default_limit+0x1004>
    69cf: a2 0f        	ldx	#$f
    69d1: 86 05        	stx	$5                      ; 0x2005 <__heap_default_limit+0x1005>
    69d3: a2 03        	ldx	#$3
    69d5: 86 06        	stx	$6                      ; 0x2006 <__heap_default_limit+0x1006>
    69d7: a6 77        	ldx	$77                     ; 0x2077 <lprestore+0x2>
    69d9: 86 07        	stx	$7                      ; 0x2007 <__heap_default_limit+0x1007>
    69db: 64 08        	stz	$8                      ; 0x2008 <__heap_default_limit+0x1008>
    69dd: a6 79        	ldx	$79                     ; 0x2079 <lprestore+0x4>
    69df: a5 78        	lda	$78                     ; 0x2078 <lprestore+0x3>
    69e1: 20 89 6a     	jsr	$6a89 <lfill>
    69e4: e6 76        	inc	$76                     ; 0x2076 <lprestore+0x1>
    69e6: a0 03        	ldy	#$3
    69e8: b1 74        	lda	($74),y                 ; 0x2074 <lpstore+0x1a>
    69ea: c5 76        	cmp	$76                     ; 0x2076 <lprestore+0x1>
    69ec: 90 03        	bcc	$69f1 <fillrect+0xa9>
    69ee: 4c 61 69     	jmp	$6961 <fillrect+0x19>
    69f1: 60           	rts

000069f2 <cgetc>:
    69f2: ad 10 d6     	lda	$d610                   ; 0xd610 <__heap_start+0x55f6>
    69f5: f0 fb        	beq	$69f2 <cgetc>
    69f7: 9c 10 d6     	stz	$d610                   ; 0xd610 <__heap_start+0x55f6>
    69fa: 60           	rts

000069fb <do_dma>:
    69fb: a2 00        	ldx	#$0
    69fd: a0 35        	ldy	#$35
    69ff: 84 04        	sty	$4                      ; 0x2004 <__heap_default_limit+0x1004>
    6a01: a0 00        	ldy	#$0
    6a03: 84 05        	sty	$5                      ; 0x2005 <__heap_default_limit+0x1005>
    6a05: a4 04        	ldy	$4                      ; 0x2004 <__heap_default_limit+0x1004>
    6a07: a9 47        	lda	#$47
    6a09: 8d 2f d0     	sta	$d02f                   ; 0xd02f <__heap_start+0x5015>
    6a0c: a9 53        	lda	#$53
    6a0e: 8d 2f d0     	sta	$d02f                   ; 0xd02f <__heap_start+0x5015>
    6a11: a9 41        	lda	#$41
    6a13: 85 00        	sta	$0                      ; 0x2000 <__heap_default_limit+0x1000>
    6a15: 9c 02 d7     	stz	$d702                   ; 0xd702 <__heap_start+0x56e8>
    6a18: 9c 04 d7     	stz	$d704                   ; 0xd704 <__heap_start+0x56ea>
    6a1b: 8e 01 d7     	stx	$d701                   ; 0xd701 <__heap_start+0x56e7>
    6a1e: 8c 05 d7     	sty	$d705                   ; 0xd705 <__heap_start+0x56eb>
    6a21: 60           	rts

00006a22 <lcopy>:
    6a22: 85 0c        	sta	$c                      ; 0x200c <__heap_default_limit+0x100c>
    6a24: 86 0d        	stx	$d                      ; 0x200d <__heap_default_limit+0x100d>
    6a26: a6 0a        	ldx	$a                      ; 0x200a <__heap_default_limit+0x100a>
    6a28: a4 0b        	ldy	$b                      ; 0x200b <__heap_default_limit+0x100b>
    6a2a: a9 0b        	lda	#$b
    6a2c: 85 35        	sta	$35                     ; 0x2035 <__do_init_stack+0x6>
    6a2e: a9 80        	lda	#$80
    6a30: 85 36        	sta	$36                     ; 0x2036 <__do_init_stack+0x7>
    6a32: 46 05        	lsr	$5                      ; 0x2005 <__heap_default_limit+0x1005>
    6a34: a5 04        	lda	$4                      ; 0x2004 <__heap_default_limit+0x1004>
    6a36: 6a           	ror
    6a37: 46 05        	lsr	$5                      ; 0x2005 <__heap_default_limit+0x1005>
    6a39: 6a           	ror
    6a3a: 46 05        	lsr	$5                      ; 0x2005 <__heap_default_limit+0x1005>
    6a3c: 6a           	ror
    6a3d: 46 05        	lsr	$5                      ; 0x2005 <__heap_default_limit+0x1005>
    6a3f: 6a           	ror
    6a40: 85 37        	sta	$37                     ; 0x2037 <__do_zero_bss>
    6a42: a9 81        	lda	#$81
    6a44: 85 38        	sta	$38                     ; 0x2038 <__do_zero_bss+0x1>
    6a46: 46 09        	lsr	$9                      ; 0x2009 <__heap_default_limit+0x1009>
    6a48: a5 08        	lda	$8                      ; 0x2008 <__heap_default_limit+0x1008>
    6a4a: 6a           	ror
    6a4b: 46 09        	lsr	$9                      ; 0x2009 <__heap_default_limit+0x1009>
    6a4d: 6a           	ror
    6a4e: 46 09        	lsr	$9                      ; 0x2009 <__heap_default_limit+0x1009>
    6a50: 6a           	ror
    6a51: 46 09        	lsr	$9                      ; 0x2009 <__heap_default_limit+0x1009>
    6a53: 6a           	ror
    6a54: 85 39        	sta	$39                     ; 0x2039 <__do_zero_bss+0x2>
    6a56: a9 85        	lda	#$85
    6a58: 85 3a        	sta	$3a                     ; 0x203a <__do_zero_zp_bss>
    6a5a: a9 01        	lda	#$1
    6a5c: 85 3b        	sta	$3b                     ; 0x203b <__do_zero_zp_bss+0x1>
    6a5e: 64 3c        	stz	$3c                     ; 0x203c <__do_zero_zp_bss+0x2>
    6a60: 64 46        	stz	$46                     ; 0x2046 <shift+0x6>
    6a62: 64 3d        	stz	$3d                     ; 0x203d <__do_copy_zp_data>
    6a64: 86 3e        	stx	$3e                     ; 0x203e <__do_copy_zp_data+0x1>
    6a66: 84 3f        	sty	$3f                     ; 0x203f <__do_copy_zp_data+0x2>
    6a68: 64 46        	stz	$46                     ; 0x2046 <shift+0x6>
    6a6a: a6 0c        	ldx	$c                      ; 0x200c <__heap_default_limit+0x100c>
    6a6c: 86 40        	stx	$40                     ; 0x2040 <shift>
    6a6e: a6 0d        	ldx	$d                      ; 0x200d <__heap_default_limit+0x100d>
    6a70: 86 41        	stx	$41                     ; 0x2041 <shift+0x1>
    6a72: a5 04        	lda	$4                      ; 0x2004 <__heap_default_limit+0x1004>
    6a74: 29 0f        	and	#$f
    6a76: 85 42        	sta	$42                     ; 0x2042 <shift+0x2>
    6a78: a6 06        	ldx	$6                      ; 0x2006 <__heap_default_limit+0x1006>
    6a7a: 86 43        	stx	$43                     ; 0x2043 <shift+0x3>
    6a7c: a6 07        	ldx	$7                      ; 0x2007 <__heap_default_limit+0x1007>
    6a7e: 86 44        	stx	$44                     ; 0x2044 <shift+0x4>
    6a80: a5 08        	lda	$8                      ; 0x2008 <__heap_default_limit+0x1008>
    6a82: 29 0f        	and	#$f
    6a84: 85 45        	sta	$45                     ; 0x2045 <shift+0x5>
    6a86: 4c fb 69     	jmp	$69fb <do_dma>

00006a89 <lfill>:
    6a89: 85 09        	sta	$9                      ; 0x2009 <__heap_default_limit+0x1009>
    6a8b: 86 0a        	stx	$a                      ; 0x200a <__heap_default_limit+0x100a>
    6a8d: a6 07        	ldx	$7                      ; 0x2007 <__heap_default_limit+0x1007>
    6a8f: a4 08        	ldy	$8                      ; 0x2008 <__heap_default_limit+0x1008>
    6a91: a9 0b        	lda	#$b
    6a93: 85 35        	sta	$35                     ; 0x2035 <__do_init_stack+0x6>
    6a95: a9 80        	lda	#$80
    6a97: 85 36        	sta	$36                     ; 0x2036 <__do_init_stack+0x7>
    6a99: 64 37        	stz	$37                     ; 0x2037 <__do_zero_bss>
    6a9b: 1a           	inc
    6a9c: 85 38        	sta	$38                     ; 0x2038 <__do_zero_bss+0x1>
    6a9e: 46 05        	lsr	$5                      ; 0x2005 <__heap_default_limit+0x1005>
    6aa0: a5 04        	lda	$4                      ; 0x2004 <__heap_default_limit+0x1004>
    6aa2: 6a           	ror
    6aa3: 46 05        	lsr	$5                      ; 0x2005 <__heap_default_limit+0x1005>
    6aa5: 6a           	ror
    6aa6: 46 05        	lsr	$5                      ; 0x2005 <__heap_default_limit+0x1005>
    6aa8: 6a           	ror
    6aa9: 46 05        	lsr	$5                      ; 0x2005 <__heap_default_limit+0x1005>
    6aab: 6a           	ror
    6aac: 85 39        	sta	$39                     ; 0x2039 <__do_zero_bss+0x2>
    6aae: a9 85        	lda	#$85
    6ab0: 85 3a        	sta	$3a                     ; 0x203a <__do_zero_zp_bss>
    6ab2: a9 01        	lda	#$1
    6ab4: 85 3b        	sta	$3b                     ; 0x203b <__do_zero_zp_bss+0x1>
    6ab6: 64 3c        	stz	$3c                     ; 0x203c <__do_zero_zp_bss+0x2>
    6ab8: a9 03        	lda	#$3
    6aba: 85 3d        	sta	$3d                     ; 0x203d <__do_copy_zp_data>
    6abc: 64 46        	stz	$46                     ; 0x2046 <shift+0x6>
    6abe: 86 3e        	stx	$3e                     ; 0x203e <__do_copy_zp_data+0x1>
    6ac0: 84 3f        	sty	$3f                     ; 0x203f <__do_copy_zp_data+0x2>
    6ac2: a6 06        	ldx	$6                      ; 0x2006 <__heap_default_limit+0x1006>
    6ac4: 86 40        	stx	$40                     ; 0x2040 <shift>
    6ac6: 64 41        	stz	$41                     ; 0x2041 <shift+0x1>
    6ac8: a6 09        	ldx	$9                      ; 0x2009 <__heap_default_limit+0x1009>
    6aca: 86 43        	stx	$43                     ; 0x2043 <shift+0x3>
    6acc: a6 0a        	ldx	$a                      ; 0x200a <__heap_default_limit+0x100a>
    6ace: 86 44        	stx	$44                     ; 0x2044 <shift+0x4>
    6ad0: a5 04        	lda	$4                      ; 0x2004 <__heap_default_limit+0x1004>
    6ad2: 29 0f        	and	#$f
    6ad4: 85 45        	sta	$45                     ; 0x2045 <shift+0x5>
    6ad6: 4c fb 69     	jmp	$69fb <do_dma>

00006ad9 <usleep>:
    6ad9: a8           	tay
    6ada: 86 06        	stx	$6                      ; 0x2006 <__heap_default_limit+0x1006>
    6adc: a5 05        	lda	$5                      ; 0x2005 <__heap_default_limit+0x1005>
    6ade: 4c 15 6b     	jmp	$6b15 <usleep+0x3c>
    6ae1: a6 04        	ldx	$4                      ; 0x2004 <__heap_default_limit+0x1004>
    6ae3: 80 02        	bra	$6ae7 <usleep+0xe>
    6ae5: a6 06        	ldx	$6                      ; 0x2006 <__heap_default_limit+0x1006>
    6ae7: e0 00        	cpx	#$0
    6ae9: b0 03        	bcs	$6aee <usleep+0x15>
    6aeb: 4c 34 6b     	jmp	$6b34 <usleep+0x5b>
    6aee: 85 07        	sta	$7                      ; 0x2007 <__heap_default_limit+0x1007>
    6af0: a6 06        	ldx	$6                      ; 0x2006 <__heap_default_limit+0x1006>
    6af2: 86 05        	stx	$5                      ; 0x2005 <__heap_default_limit+0x1005>
    6af4: ae 12 d0     	ldx	$d012                   ; 0xd012 <__heap_start+0x4ff8>
    6af7: 86 06        	stx	$6                      ; 0x2006 <__heap_default_limit+0x1006>
    6af9: ae 12 d0     	ldx	$d012                   ; 0xd012 <__heap_start+0x4ff8>
    6afc: e4 06        	cpx	$6                      ; 0x2006 <__heap_default_limit+0x1006>
    6afe: f0 f9        	beq	$6af9 <usleep+0x20>
    6b00: 18           	clc
    6b01: 98           	tya
    6b02: 69 c0        	adc	#$c0
    6b04: a8           	tay
    6b05: a5 05        	lda	$5                      ; 0x2005 <__heap_default_limit+0x1005>
    6b07: 69 ff        	adc	#$ff
    6b09: 85 06        	sta	$6                      ; 0x2006 <__heap_default_limit+0x1006>
    6b0b: a5 04        	lda	$4                      ; 0x2004 <__heap_default_limit+0x1004>
    6b0d: 69 ff        	adc	#$ff
    6b0f: 85 04        	sta	$4                      ; 0x2004 <__heap_default_limit+0x1004>
    6b11: a5 07        	lda	$7                      ; 0x2007 <__heap_default_limit+0x1007>
    6b13: 69 ff        	adc	#$ff
    6b15: aa           	tax
    6b16: d0 15        	bne	$6b2d <usleep+0x54>
    6b18: a6 04        	ldx	$4                      ; 0x2004 <__heap_default_limit+0x1004>
    6b1a: f0 03        	beq	$6b1f <usleep+0x46>
    6b1c: 4c e1 6a     	jmp	$6ae1 <usleep+0x8>
    6b1f: a6 06        	ldx	$6                      ; 0x2006 <__heap_default_limit+0x1006>
    6b21: f0 03        	beq	$6b26 <usleep+0x4d>
    6b23: 4c e5 6a     	jmp	$6ae5 <usleep+0xc>
    6b26: c0 41        	cpy	#$41
    6b28: 90 0a        	bcc	$6b34 <usleep+0x5b>
    6b2a: 4c ee 6a     	jmp	$6aee <usleep+0x15>
    6b2d: c9 00        	cmp	#$0
    6b2f: 90 03        	bcc	$6b34 <usleep+0x5b>
    6b31: 4c ee 6a     	jmp	$6aee <usleep+0x15>
    6b34: 60           	rts

00006b35 <exit>:
    6b35: 20 4b 20     	jsr	$204b <_fini>
    6b38: 80 fe        	bra	$6b38 <exit+0x3>

00006b3a <strcpy>:
    6b3a: b2 06        	lda	($6),z                  ; 0x2006 <__heap_default_limit+0x1006>
    6b3c: aa           	tax
    6b3d: b2 06        	lda	($6),z                  ; 0x2006 <__heap_default_limit+0x1006>
    6b3f: 92 04        	sta	($4),z                  ; 0x2004 <__heap_default_limit+0x1004>
    6b41: 8a           	txa
    6b42: d0 03        	bne	$6b47 <strcpy+0xd>
    6b44: 4c 77 6b     	jmp	$6b77 <strcpy+0x3d>
    6b47: a0 01        	ldy	#$1
    6b49: a6 04        	ldx	$4                      ; 0x2004 <__heap_default_limit+0x1004>
    6b4b: 86 08        	stx	$8                      ; 0x2008 <__heap_default_limit+0x1008>
    6b4d: a6 05        	ldx	$5                      ; 0x2005 <__heap_default_limit+0x1005>
    6b4f: 86 09        	stx	$9                      ; 0x2009 <__heap_default_limit+0x1009>
    6b51: a6 06        	ldx	$6                      ; 0x2006 <__heap_default_limit+0x1006>
    6b53: 86 0a        	stx	$a                      ; 0x200a <__heap_default_limit+0x100a>
    6b55: a6 07        	ldx	$7                      ; 0x2007 <__heap_default_limit+0x1007>
    6b57: 86 0b        	stx	$b                      ; 0x200b <__heap_default_limit+0x100b>
    6b59: e6 0a        	inc	$a                      ; 0x200a <__heap_default_limit+0x100a>
    6b5b: d0 02        	bne	$6b5f <strcpy+0x25>
    6b5d: e6 0b        	inc	$b                      ; 0x200b <__heap_default_limit+0x100b>
    6b5f: b1 06        	lda	($6),y                  ; 0x2006 <__heap_default_limit+0x1006>
    6b61: aa           	tax
    6b62: b1 06        	lda	($6),y                  ; 0x2006 <__heap_default_limit+0x1006>
    6b64: 91 08        	sta	($8),y                  ; 0x2008 <__heap_default_limit+0x1008>
    6b66: e6 08        	inc	$8                      ; 0x2008 <__heap_default_limit+0x1008>
    6b68: d0 02        	bne	$6b6c <strcpy+0x32>
    6b6a: e6 09        	inc	$9                      ; 0x2009 <__heap_default_limit+0x1009>
    6b6c: a5 0a        	lda	$a                      ; 0x200a <__heap_default_limit+0x100a>
    6b6e: 85 06        	sta	$6                      ; 0x2006 <__heap_default_limit+0x1006>
    6b70: a5 0b        	lda	$b                      ; 0x200b <__heap_default_limit+0x100b>
    6b72: 85 07        	sta	$7                      ; 0x2007 <__heap_default_limit+0x1007>
    6b74: 8a           	txa
    6b75: d0 e2        	bne	$6b59 <strcpy+0x1f>
    6b77: 60           	rts

00006b78 <strlen>:
    6b78: b2 04        	lda	($4),z                  ; 0x2004 <__heap_default_limit+0x1004>
    6b7a: d0 03        	bne	$6b7f <strlen+0x7>
    6b7c: 4c ad 6b     	jmp	$6bad <strlen+0x35>
    6b7f: 64 07        	stz	$7                      ; 0x2007 <__heap_default_limit+0x1007>
    6b81: a0 01        	ldy	#$1
    6b83: a9 00        	lda	#$0
    6b85: 64 06        	stz	$6                      ; 0x2006 <__heap_default_limit+0x1006>
    6b87: aa           	tax
    6b88: e6 06        	inc	$6                      ; 0x2006 <__heap_default_limit+0x1006>
    6b8a: d0 01        	bne	$6b8d <strlen+0x15>
    6b8c: e8           	inx
    6b8d: 18           	clc
    6b8e: 85 09        	sta	$9                      ; 0x2009 <__heap_default_limit+0x1009>
    6b90: a5 07        	lda	$7                      ; 0x2007 <__heap_default_limit+0x1007>
    6b92: 65 04        	adc	$4                      ; 0x2004 <__heap_default_limit+0x1004>
    6b94: 85 08        	sta	$8                      ; 0x2008 <__heap_default_limit+0x1008>
    6b96: a5 09        	lda	$9                      ; 0x2009 <__heap_default_limit+0x1009>
    6b98: 65 05        	adc	$5                      ; 0x2005 <__heap_default_limit+0x1005>
    6b9a: 85 09        	sta	$9                      ; 0x2009 <__heap_default_limit+0x1009>
    6b9c: b1 08        	lda	($8),y                  ; 0x2008 <__heap_default_limit+0x1008>
    6b9e: 85 08        	sta	$8                      ; 0x2008 <__heap_default_limit+0x1008>
    6ba0: a5 06        	lda	$6                      ; 0x2006 <__heap_default_limit+0x1006>
    6ba2: 85 07        	sta	$7                      ; 0x2007 <__heap_default_limit+0x1007>
    6ba4: 8a           	txa
    6ba5: e6 08        	inc	$8                      ; 0x2008 <__heap_default_limit+0x1008>
    6ba7: c6 08        	dec	$8                      ; 0x2008 <__heap_default_limit+0x1008>
    6ba9: d0 dd        	bne	$6b88 <strlen+0x10>
    6bab: 80 04        	bra	$6bb1 <strlen+0x39>
    6bad: 64 06        	stz	$6                      ; 0x2006 <__heap_default_limit+0x1006>
    6baf: a2 00        	ldx	#$0
    6bb1: a5 06        	lda	$6                      ; 0x2006 <__heap_default_limit+0x1006>
    6bb3: 60           	rts

00006bb4 <__ashlqi3>:
    6bb4: e0 00        	cpx	#$0
    6bb6: f0 06        	beq	$6bbe <__ashlqi3+0xa>
    6bb8: ca           	dex
    6bb9: 0a           	asl
    6bba: e0 00        	cpx	#$0
    6bbc: d0 fa        	bne	$6bb8 <__ashlqi3+0x4>
    6bbe: 60           	rts

00006bbf <__ashlhi3>:
    6bbf: 86 05        	stx	$5                      ; 0x2005 <__heap_default_limit+0x1005>
    6bc1: a6 04        	ldx	$4                      ; 0x2004 <__heap_default_limit+0x1004>
    6bc3: f0 0a        	beq	$6bcf <__ashlhi3+0x10>
    6bc5: a6 04        	ldx	$4                      ; 0x2004 <__heap_default_limit+0x1004>
    6bc7: ca           	dex
    6bc8: 0a           	asl
    6bc9: 26 05        	rol	$5                      ; 0x2005 <__heap_default_limit+0x1005>
    6bcb: e0 00        	cpx	#$0
    6bcd: d0 f8        	bne	$6bc7 <__ashlhi3+0x8>
    6bcf: a6 05        	ldx	$5                      ; 0x2005 <__heap_default_limit+0x1005>
    6bd1: 60           	rts

00006bd2 <__mulhi3>:
    6bd2: a4 05        	ldy	$5                      ; 0x2005 <__heap_default_limit+0x1005>
    6bd4: d0 04        	bne	$6bda <__mulhi3+0x8>
    6bd6: a4 04        	ldy	$4                      ; 0x2004 <__heap_default_limit+0x1004>
    6bd8: f0 25        	beq	$6bff <__mulhi3+0x2d>
    6bda: 85 06        	sta	$6                      ; 0x2006 <__heap_default_limit+0x1006>
    6bdc: 86 07        	stx	$7                      ; 0x2007 <__heap_default_limit+0x1007>
    6bde: a0 00        	ldy	#$0
    6be0: 98           	tya
    6be1: 46 05        	lsr	$5                      ; 0x2005 <__heap_default_limit+0x1005>
    6be3: 66 04        	ror	$4                      ; 0x2004 <__heap_default_limit+0x1004>
    6be5: 90 09        	bcc	$6bf0 <__mulhi3+0x1e>
    6be7: aa           	tax
    6be8: 98           	tya
    6be9: 18           	clc
    6bea: 65 06        	adc	$6                      ; 0x2006 <__heap_default_limit+0x1006>
    6bec: a8           	tay
    6bed: 8a           	txa
    6bee: 65 07        	adc	$7                      ; 0x2007 <__heap_default_limit+0x1007>
    6bf0: 06 06        	asl	$6                      ; 0x2006 <__heap_default_limit+0x1006>
    6bf2: 26 07        	rol	$7                      ; 0x2007 <__heap_default_limit+0x1007>
    6bf4: a6 05        	ldx	$5                      ; 0x2005 <__heap_default_limit+0x1005>
    6bf6: d0 e9        	bne	$6be1 <__mulhi3+0xf>
    6bf8: a6 04        	ldx	$4                      ; 0x2004 <__heap_default_limit+0x1004>
    6bfa: d0 e5        	bne	$6be1 <__mulhi3+0xf>
    6bfc: aa           	tax
    6bfd: 98           	tya
    6bfe: 60           	rts
    6bff: a0 00        	ldy	#$0
    6c01: 98           	tya
    6c02: 80 f8        	bra	$6bfc <__mulhi3+0x2a>

00006c04 <__udivhi3>:
    6c04: 64 06        	stz	$6                      ; 0x2006 <__heap_default_limit+0x1006>
    6c06: a4 05        	ldy	$5                      ; 0x2005 <__heap_default_limit+0x1005>
    6c08: d0 04        	bne	$6c0e <__udivhi3+0xa>
    6c0a: a4 04        	ldy	$4                      ; 0x2004 <__heap_default_limit+0x1004>
    6c0c: f0 0e        	beq	$6c1c <__udivhi3+0x18>
    6c0e: 85 09        	sta	$9                      ; 0x2009 <__heap_default_limit+0x1009>
    6c10: 8a           	txa
    6c11: e4 05        	cpx	$5                      ; 0x2005 <__heap_default_limit+0x1005>
    6c13: d0 0e        	bne	$6c23 <__udivhi3+0x1f>
    6c15: a5 09        	lda	$9                      ; 0x2009 <__heap_default_limit+0x1009>
    6c17: c5 04        	cmp	$4                      ; 0x2004 <__heap_default_limit+0x1004>
    6c19: 8a           	txa
    6c1a: b0 0b        	bcs	$6c27 <__udivhi3+0x23>
    6c1c: a2 00        	ldx	#$0
    6c1e: 86 49        	stx	$49                     ; 0x2049 <__after_main+0x1>
    6c20: 4c c0 6c     	jmp	$6cc0 <__udivhi3+0xbc>
    6c23: c5 05        	cmp	$5                      ; 0x2005 <__heap_default_limit+0x1005>
    6c25: 90 f5        	bcc	$6c1c <__udivhi3+0x18>
    6c27: a2 01        	ldx	#$1
    6c29: 86 49        	stx	$49                     ; 0x2049 <__after_main+0x1>
    6c2b: a6 05        	ldx	$5                      ; 0x2005 <__heap_default_limit+0x1005>
    6c2d: 10 03        	bpl	$6c32 <__udivhi3+0x2e>
    6c2f: 4c c0 6c     	jmp	$6cc0 <__udivhi3+0xbc>
    6c32: a2 00        	ldx	#$0
    6c34: a4 04        	ldy	$4                      ; 0x2004 <__heap_default_limit+0x1004>
    6c36: 84 07        	sty	$7                      ; 0x2007 <__heap_default_limit+0x1007>
    6c38: a4 05        	ldy	$5                      ; 0x2005 <__heap_default_limit+0x1005>
    6c3a: 84 08        	sty	$8                      ; 0x2008 <__heap_default_limit+0x1008>
    6c3c: 06 07        	asl	$7                      ; 0x2007 <__heap_default_limit+0x1007>
    6c3e: 26 08        	rol	$8                      ; 0x2008 <__heap_default_limit+0x1008>
    6c40: c5 08        	cmp	$8                      ; 0x2008 <__heap_default_limit+0x1008>
    6c42: d0 08        	bne	$6c4c <__udivhi3+0x48>
    6c44: a4 09        	ldy	$9                      ; 0x2009 <__heap_default_limit+0x1009>
    6c46: c4 07        	cpy	$7                      ; 0x2007 <__heap_default_limit+0x1007>
    6c48: 90 13        	bcc	$6c5d <__udivhi3+0x59>
    6c4a: 80 04        	bra	$6c50 <__udivhi3+0x4c>
    6c4c: c5 08        	cmp	$8                      ; 0x2008 <__heap_default_limit+0x1008>
    6c4e: 90 0d        	bcc	$6c5d <__udivhi3+0x59>
    6c50: e8           	inx
    6c51: a4 07        	ldy	$7                      ; 0x2007 <__heap_default_limit+0x1007>
    6c53: 84 04        	sty	$4                      ; 0x2004 <__heap_default_limit+0x1004>
    6c55: a4 08        	ldy	$8                      ; 0x2008 <__heap_default_limit+0x1008>
    6c57: 84 05        	sty	$5                      ; 0x2005 <__heap_default_limit+0x1005>
    6c59: 10 e1        	bpl	$6c3c <__udivhi3+0x38>
    6c5b: 80 08        	bra	$6c65 <__udivhi3+0x61>
    6c5d: a4 04        	ldy	$4                      ; 0x2004 <__heap_default_limit+0x1004>
    6c5f: 84 07        	sty	$7                      ; 0x2007 <__heap_default_limit+0x1007>
    6c61: a4 05        	ldy	$5                      ; 0x2005 <__heap_default_limit+0x1005>
    6c63: 84 08        	sty	$8                      ; 0x2008 <__heap_default_limit+0x1008>
    6c65: e0 00        	cpx	#$0
    6c67: d0 03        	bne	$6c6c <__udivhi3+0x68>
    6c69: 4c c0 6c     	jmp	$6cc0 <__udivhi3+0xbc>
    6c6c: 38           	sec
    6c6d: a8           	tay
    6c6e: a5 09        	lda	$9                      ; 0x2009 <__heap_default_limit+0x1009>
    6c70: e5 07        	sbc	$7                      ; 0x2007 <__heap_default_limit+0x1007>
    6c72: 85 04        	sta	$4                      ; 0x2004 <__heap_default_limit+0x1004>
    6c74: 98           	tya
    6c75: e5 08        	sbc	$8                      ; 0x2008 <__heap_default_limit+0x1008>
    6c77: a0 01        	ldy	#$1
    6c79: 84 49        	sty	$49                     ; 0x2049 <__after_main+0x1>
    6c7b: 64 06        	stz	$6                      ; 0x2006 <__heap_default_limit+0x1006>
    6c7d: 46 08        	lsr	$8                      ; 0x2008 <__heap_default_limit+0x1008>
    6c7f: 66 07        	ror	$7                      ; 0x2007 <__heap_default_limit+0x1007>
    6c81: a4 49        	ldy	$49                     ; 0x2049 <__after_main+0x1>
    6c83: 84 05        	sty	$5                      ; 0x2005 <__heap_default_limit+0x1005>
    6c85: 06 05        	asl	$5                      ; 0x2005 <__heap_default_limit+0x1005>
    6c87: a0 01        	ldy	#$1
    6c89: b0 02        	bcs	$6c8d <__udivhi3+0x89>
    6c8b: a0 00        	ldy	#$0
    6c8d: 84 09        	sty	$9                      ; 0x2009 <__heap_default_limit+0x1009>
    6c8f: a4 05        	ldy	$5                      ; 0x2005 <__heap_default_limit+0x1005>
    6c91: 84 49        	sty	$49                     ; 0x2049 <__after_main+0x1>
    6c93: c5 08        	cmp	$8                      ; 0x2008 <__heap_default_limit+0x1008>
    6c95: d0 23        	bne	$6cba <__udivhi3+0xb6>
    6c97: a4 04        	ldy	$4                      ; 0x2004 <__heap_default_limit+0x1004>
    6c99: c4 07        	cpy	$7                      ; 0x2007 <__heap_default_limit+0x1007>
    6c9b: 90 11        	bcc	$6cae <__udivhi3+0xaa>
    6c9d: a8           	tay
    6c9e: a5 49        	lda	$49                     ; 0x2049 <__after_main+0x1>
    6ca0: 09 01        	ora	#$1
    6ca2: 85 49        	sta	$49                     ; 0x2049 <__after_main+0x1>
    6ca4: 38           	sec
    6ca5: a5 04        	lda	$4                      ; 0x2004 <__heap_default_limit+0x1004>
    6ca7: e5 07        	sbc	$7                      ; 0x2007 <__heap_default_limit+0x1007>
    6ca9: 85 04        	sta	$4                      ; 0x2004 <__heap_default_limit+0x1004>
    6cab: 98           	tya
    6cac: e5 08        	sbc	$8                      ; 0x2008 <__heap_default_limit+0x1008>
    6cae: a4 09        	ldy	$9                      ; 0x2009 <__heap_default_limit+0x1009>
    6cb0: c0 01        	cpy	#$1
    6cb2: 26 06        	rol	$6                      ; 0x2006 <__heap_default_limit+0x1006>
    6cb4: ca           	dex
    6cb5: f0 09        	beq	$6cc0 <__udivhi3+0xbc>
    6cb7: 4c 7d 6c     	jmp	$6c7d <__udivhi3+0x79>
    6cba: c5 08        	cmp	$8                      ; 0x2008 <__heap_default_limit+0x1008>
    6cbc: b0 df        	bcs	$6c9d <__udivhi3+0x99>
    6cbe: 80 ee        	bra	$6cae <__udivhi3+0xaa>
    6cc0: a6 06        	ldx	$6                      ; 0x2006 <__heap_default_limit+0x1006>
    6cc2: a5 49        	lda	$49                     ; 0x2049 <__after_main+0x1>
    6cc4: 60           	rts

00006cc5 <__umodqi3>:
    6cc5: e0 00        	cpx	#$0
    6cc7: d0 03        	bne	$6ccc <__umodqi3+0x7>
    6cc9: 4c 09 6d     	jmp	$6d09 <__umodqi3+0x44>
    6ccc: 86 05        	stx	$5                      ; 0x2005 <__heap_default_limit+0x1005>
    6cce: c5 05        	cmp	$5                      ; 0x2005 <__heap_default_limit+0x1005>
    6cd0: b0 03        	bcs	$6cd5 <__umodqi3+0x10>
    6cd2: 4c 09 6d     	jmp	$6d09 <__umodqi3+0x44>
    6cd5: a6 05        	ldx	$5                      ; 0x2005 <__heap_default_limit+0x1005>
    6cd7: 30 15        	bmi	$6cee <__umodqi3+0x29>
    6cd9: a2 00        	ldx	#$0
    6cdb: a4 05        	ldy	$5                      ; 0x2005 <__heap_default_limit+0x1005>
    6cdd: 84 04        	sty	$4                      ; 0x2004 <__heap_default_limit+0x1004>
    6cdf: 06 04        	asl	$4                      ; 0x2004 <__heap_default_limit+0x1004>
    6ce1: c5 04        	cmp	$4                      ; 0x2004 <__heap_default_limit+0x1004>
    6ce3: 90 0d        	bcc	$6cf2 <__umodqi3+0x2d>
    6ce5: e8           	inx
    6ce6: a4 04        	ldy	$4                      ; 0x2004 <__heap_default_limit+0x1004>
    6ce8: 84 05        	sty	$5                      ; 0x2005 <__heap_default_limit+0x1005>
    6cea: 10 f3        	bpl	$6cdf <__umodqi3+0x1a>
    6cec: 80 08        	bra	$6cf6 <__umodqi3+0x31>
    6cee: 38           	sec
    6cef: e5 05        	sbc	$5                      ; 0x2005 <__heap_default_limit+0x1005>
    6cf1: 60           	rts
    6cf2: a4 05        	ldy	$5                      ; 0x2005 <__heap_default_limit+0x1005>
    6cf4: 84 04        	sty	$4                      ; 0x2004 <__heap_default_limit+0x1004>
    6cf6: 38           	sec
    6cf7: e5 04        	sbc	$4                      ; 0x2004 <__heap_default_limit+0x1004>
    6cf9: e0 00        	cpx	#$0
    6cfb: f0 0c        	beq	$6d09 <__umodqi3+0x44>
    6cfd: 46 04        	lsr	$4                      ; 0x2004 <__heap_default_limit+0x1004>
    6cff: c5 04        	cmp	$4                      ; 0x2004 <__heap_default_limit+0x1004>
    6d01: 90 03        	bcc	$6d06 <__umodqi3+0x41>
    6d03: 38           	sec
    6d04: e5 04        	sbc	$4                      ; 0x2004 <__heap_default_limit+0x1004>
    6d06: ca           	dex
    6d07: d0 f4        	bne	$6cfd <__umodqi3+0x38>
    6d09: 60           	rts

00006d0a <__udivmodqi4>:
    6d0a: a8           	tay
    6d0b: a9 00        	lda	#$0
    6d0d: e0 00        	cpx	#$0
    6d0f: f0 25        	beq	$6d36 <__udivmodqi4+0x2c>
    6d11: 86 07        	stx	$7                      ; 0x2007 <__heap_default_limit+0x1007>
    6d13: 84 08        	sty	$8                      ; 0x2008 <__heap_default_limit+0x1008>
    6d15: c4 07        	cpy	$7                      ; 0x2007 <__heap_default_limit+0x1007>
    6d17: b0 03        	bcs	$6d1c <__udivmodqi4+0x12>
    6d19: 4c 73 6d     	jmp	$6d73 <__udivmodqi4+0x69>
    6d1c: a5 07        	lda	$7                      ; 0x2007 <__heap_default_limit+0x1007>
    6d1e: 30 1b        	bmi	$6d3b <__udivmodqi4+0x31>
    6d20: a2 00        	ldx	#$0
    6d22: a5 07        	lda	$7                      ; 0x2007 <__heap_default_limit+0x1007>
    6d24: 85 06        	sta	$6                      ; 0x2006 <__heap_default_limit+0x1006>
    6d26: 98           	tya
    6d27: 06 06        	asl	$6                      ; 0x2006 <__heap_default_limit+0x1006>
    6d29: c5 06        	cmp	$6                      ; 0x2006 <__heap_default_limit+0x1006>
    6d2b: 90 17        	bcc	$6d44 <__udivmodqi4+0x3a>
    6d2d: e8           	inx
    6d2e: a4 06        	ldy	$6                      ; 0x2006 <__heap_default_limit+0x1006>
    6d30: 84 07        	sty	$7                      ; 0x2007 <__heap_default_limit+0x1007>
    6d32: 10 f3        	bpl	$6d27 <__udivmodqi4+0x1d>
    6d34: 80 12        	bra	$6d48 <__udivmodqi4+0x3e>
    6d36: 84 08        	sty	$8                      ; 0x2008 <__heap_default_limit+0x1008>
    6d38: 4c 73 6d     	jmp	$6d73 <__udivmodqi4+0x69>
    6d3b: 38           	sec
    6d3c: 98           	tya
    6d3d: e5 07        	sbc	$7                      ; 0x2007 <__heap_default_limit+0x1007>
    6d3f: 85 08        	sta	$8                      ; 0x2008 <__heap_default_limit+0x1008>
    6d41: 4c 71 6d     	jmp	$6d71 <__udivmodqi4+0x67>
    6d44: a4 07        	ldy	$7                      ; 0x2007 <__heap_default_limit+0x1007>
    6d46: 84 06        	sty	$6                      ; 0x2006 <__heap_default_limit+0x1006>
    6d48: 38           	sec
    6d49: e5 06        	sbc	$6                      ; 0x2006 <__heap_default_limit+0x1006>
    6d4b: 85 08        	sta	$8                      ; 0x2008 <__heap_default_limit+0x1008>
    6d4d: 8a           	txa
    6d4e: f0 21        	beq	$6d71 <__udivmodqi4+0x67>
    6d50: a9 01        	lda	#$1
    6d52: 46 06        	lsr	$6                      ; 0x2006 <__heap_default_limit+0x1006>
    6d54: 0a           	asl
    6d55: a8           	tay
    6d56: a5 08        	lda	$8                      ; 0x2008 <__heap_default_limit+0x1008>
    6d58: c5 06        	cmp	$6                      ; 0x2006 <__heap_default_limit+0x1006>
    6d5a: 90 0d        	bcc	$6d69 <__udivmodqi4+0x5f>
    6d5c: 85 07        	sta	$7                      ; 0x2007 <__heap_default_limit+0x1007>
    6d5e: 98           	tya
    6d5f: 09 01        	ora	#$1
    6d61: a8           	tay
    6d62: 38           	sec
    6d63: a5 07        	lda	$7                      ; 0x2007 <__heap_default_limit+0x1007>
    6d65: e5 06        	sbc	$6                      ; 0x2006 <__heap_default_limit+0x1006>
    6d67: 85 08        	sta	$8                      ; 0x2008 <__heap_default_limit+0x1008>
    6d69: ca           	dex
    6d6a: 98           	tya
    6d6b: e0 00        	cpx	#$0
    6d6d: d0 e3        	bne	$6d52 <__udivmodqi4+0x48>
    6d6f: 80 02        	bra	$6d73 <__udivmodqi4+0x69>
    6d71: a9 01        	lda	#$1
    6d73: aa           	tax
    6d74: a5 08        	lda	$8                      ; 0x2008 <__heap_default_limit+0x1008>
    6d76: 92 04        	sta	($4),z                  ; 0x2004 <__heap_default_limit+0x1004>
    6d78: 8a           	txa
    6d79: 60           	rts

00006d7a <__udivmodhi4>:
    6d7a: 86 0c        	stx	$c                      ; 0x200c <__heap_default_limit+0x100c>
    6d7c: 64 08        	stz	$8                      ; 0x2008 <__heap_default_limit+0x1008>
    6d7e: a4 05        	ldy	$5                      ; 0x2005 <__heap_default_limit+0x1005>
    6d80: d0 04        	bne	$6d86 <__udivmodhi4+0xc>
    6d82: a4 04        	ldy	$4                      ; 0x2004 <__heap_default_limit+0x1004>
    6d84: f0 08        	beq	$6d8e <__udivmodhi4+0x14>
    6d86: e4 05        	cpx	$5                      ; 0x2005 <__heap_default_limit+0x1005>
    6d88: d0 0d        	bne	$6d97 <__udivmodhi4+0x1d>
    6d8a: c5 04        	cmp	$4                      ; 0x2004 <__heap_default_limit+0x1004>
    6d8c: b0 0d        	bcs	$6d9b <__udivmodhi4+0x21>
    6d8e: a6 0c        	ldx	$c                      ; 0x200c <__heap_default_limit+0x100c>
    6d90: 86 04        	stx	$4                      ; 0x2004 <__heap_default_limit+0x1004>
    6d92: a2 00        	ldx	#$0
    6d94: 4c 40 6e     	jmp	$6e40 <__udivmodhi4+0xc6>
    6d97: e4 05        	cpx	$5                      ; 0x2005 <__heap_default_limit+0x1005>
    6d99: 90 f3        	bcc	$6d8e <__udivmodhi4+0x14>
    6d9b: a6 05        	ldx	$5                      ; 0x2005 <__heap_default_limit+0x1005>
    6d9d: 10 03        	bpl	$6da2 <__udivmodhi4+0x28>
    6d9f: 4c 33 6e     	jmp	$6e33 <__udivmodhi4+0xb9>
    6da2: a2 00        	ldx	#$0
    6da4: a4 04        	ldy	$4                      ; 0x2004 <__heap_default_limit+0x1004>
    6da6: 84 09        	sty	$9                      ; 0x2009 <__heap_default_limit+0x1009>
    6da8: a4 05        	ldy	$5                      ; 0x2005 <__heap_default_limit+0x1005>
    6daa: 84 0a        	sty	$a                      ; 0x200a <__heap_default_limit+0x100a>
    6dac: 06 09        	asl	$9                      ; 0x2009 <__heap_default_limit+0x1009>
    6dae: 26 0a        	rol	$a                      ; 0x200a <__heap_default_limit+0x100a>
    6db0: a4 0c        	ldy	$c                      ; 0x200c <__heap_default_limit+0x100c>
    6db2: c4 0a        	cpy	$a                      ; 0x200a <__heap_default_limit+0x100a>
    6db4: d0 06        	bne	$6dbc <__udivmodhi4+0x42>
    6db6: c5 09        	cmp	$9                      ; 0x2009 <__heap_default_limit+0x1009>
    6db8: b0 08        	bcs	$6dc2 <__udivmodhi4+0x48>
    6dba: 80 13        	bra	$6dcf <__udivmodhi4+0x55>
    6dbc: a4 0c        	ldy	$c                      ; 0x200c <__heap_default_limit+0x100c>
    6dbe: c4 0a        	cpy	$a                      ; 0x200a <__heap_default_limit+0x100a>
    6dc0: 90 0d        	bcc	$6dcf <__udivmodhi4+0x55>
    6dc2: e8           	inx
    6dc3: a4 09        	ldy	$9                      ; 0x2009 <__heap_default_limit+0x1009>
    6dc5: 84 04        	sty	$4                      ; 0x2004 <__heap_default_limit+0x1004>
    6dc7: a4 0a        	ldy	$a                      ; 0x200a <__heap_default_limit+0x100a>
    6dc9: 84 05        	sty	$5                      ; 0x2005 <__heap_default_limit+0x1005>
    6dcb: 10 df        	bpl	$6dac <__udivmodhi4+0x32>
    6dcd: 80 08        	bra	$6dd7 <__udivmodhi4+0x5d>
    6dcf: a4 04        	ldy	$4                      ; 0x2004 <__heap_default_limit+0x1004>
    6dd1: 84 09        	sty	$9                      ; 0x2009 <__heap_default_limit+0x1009>
    6dd3: a4 05        	ldy	$5                      ; 0x2005 <__heap_default_limit+0x1005>
    6dd5: 84 0a        	sty	$a                      ; 0x200a <__heap_default_limit+0x100a>
    6dd7: 38           	sec
    6dd8: e5 09        	sbc	$9                      ; 0x2009 <__heap_default_limit+0x1009>
    6dda: a8           	tay
    6ddb: a5 0c        	lda	$c                      ; 0x200c <__heap_default_limit+0x100c>
    6ddd: e5 0a        	sbc	$a                      ; 0x200a <__heap_default_limit+0x100a>
    6ddf: 85 04        	sta	$4                      ; 0x2004 <__heap_default_limit+0x1004>
    6de1: 8a           	txa
    6de2: d0 03        	bne	$6de7 <__udivmodhi4+0x6d>
    6de4: 4c 4f 6e     	jmp	$6e4f <__udivmodhi4+0xd5>
    6de7: a9 01        	lda	#$1
    6de9: 85 82        	sta	$82                     ; 0x2082 <lprestore+0xd>
    6deb: 64 08        	stz	$8                      ; 0x2008 <__heap_default_limit+0x1008>
    6ded: 98           	tya
    6dee: 46 0a        	lsr	$a                      ; 0x200a <__heap_default_limit+0x100a>
    6df0: 66 09        	ror	$9                      ; 0x2009 <__heap_default_limit+0x1009>
    6df2: a4 82        	ldy	$82                     ; 0x2082 <lprestore+0xd>
    6df4: 84 05        	sty	$5                      ; 0x2005 <__heap_default_limit+0x1005>
    6df6: 06 05        	asl	$5                      ; 0x2005 <__heap_default_limit+0x1005>
    6df8: a0 01        	ldy	#$1
    6dfa: b0 02        	bcs	$6dfe <__udivmodhi4+0x84>
    6dfc: a0 00        	ldy	#$0
    6dfe: 84 0b        	sty	$b                      ; 0x200b <__heap_default_limit+0x100b>
    6e00: a4 05        	ldy	$5                      ; 0x2005 <__heap_default_limit+0x1005>
    6e02: 84 82        	sty	$82                     ; 0x2082 <lprestore+0xd>
    6e04: a4 04        	ldy	$4                      ; 0x2004 <__heap_default_limit+0x1004>
    6e06: c4 0a        	cpy	$a                      ; 0x200a <__heap_default_limit+0x100a>
    6e08: d0 23        	bne	$6e2d <__udivmodhi4+0xb3>
    6e0a: c5 09        	cmp	$9                      ; 0x2009 <__heap_default_limit+0x1009>
    6e0c: 90 13        	bcc	$6e21 <__udivmodhi4+0xa7>
    6e0e: a8           	tay
    6e0f: a5 82        	lda	$82                     ; 0x2082 <lprestore+0xd>
    6e11: 09 01        	ora	#$1
    6e13: 85 82        	sta	$82                     ; 0x2082 <lprestore+0xd>
    6e15: 38           	sec
    6e16: 98           	tya
    6e17: e5 09        	sbc	$9                      ; 0x2009 <__heap_default_limit+0x1009>
    6e19: a8           	tay
    6e1a: a5 04        	lda	$4                      ; 0x2004 <__heap_default_limit+0x1004>
    6e1c: e5 0a        	sbc	$a                      ; 0x200a <__heap_default_limit+0x100a>
    6e1e: 85 04        	sta	$4                      ; 0x2004 <__heap_default_limit+0x1004>
    6e20: 98           	tya
    6e21: a4 0b        	ldy	$b                      ; 0x200b <__heap_default_limit+0x100b>
    6e23: c0 01        	cpy	#$1
    6e25: 26 08        	rol	$8                      ; 0x2008 <__heap_default_limit+0x1008>
    6e27: ca           	dex
    6e28: f0 18        	beq	$6e42 <__udivmodhi4+0xc8>
    6e2a: 4c ee 6d     	jmp	$6dee <__udivmodhi4+0x74>
    6e2d: c4 0a        	cpy	$a                      ; 0x200a <__heap_default_limit+0x100a>
    6e2f: b0 dd        	bcs	$6e0e <__udivmodhi4+0x94>
    6e31: 80 ee        	bra	$6e21 <__udivmodhi4+0xa7>
    6e33: 38           	sec
    6e34: e5 04        	sbc	$4                      ; 0x2004 <__heap_default_limit+0x1004>
    6e36: aa           	tax
    6e37: a5 0c        	lda	$c                      ; 0x200c <__heap_default_limit+0x100c>
    6e39: e5 05        	sbc	$5                      ; 0x2005 <__heap_default_limit+0x1005>
    6e3b: 85 04        	sta	$4                      ; 0x2004 <__heap_default_limit+0x1004>
    6e3d: 8a           	txa
    6e3e: a2 01        	ldx	#$1
    6e40: 86 82        	stx	$82                     ; 0x2082 <lprestore+0xd>
    6e42: 92 06        	sta	($6),z                  ; 0x2006 <__heap_default_limit+0x1006>
    6e44: a0 01        	ldy	#$1
    6e46: a5 04        	lda	$4                      ; 0x2004 <__heap_default_limit+0x1004>
    6e48: 91 06        	sta	($6),y                  ; 0x2006 <__heap_default_limit+0x1006>
    6e4a: a6 08        	ldx	$8                      ; 0x2008 <__heap_default_limit+0x1008>
    6e4c: a5 82        	lda	$82                     ; 0x2082 <lprestore+0xd>
    6e4e: 60           	rts
    6e4f: a2 01        	ldx	#$1
    6e51: 86 82        	stx	$82                     ; 0x2082 <lprestore+0xd>
    6e53: 98           	tya
    6e54: 80 ec        	bra	$6e42 <__udivmodhi4+0xc8>

00006e56 <__udivmodsi4>:
    6e56: da           	phx
    6e57: 7a           	ply
    6e58: a6 04        	ldx	$4                      ; 0x2004 <__heap_default_limit+0x1004>
    6e5a: 86 11        	stx	$11                     ; 0x2011 <__heap_default_limit+0x1011>
    6e5c: a6 05        	ldx	$5                      ; 0x2005 <__heap_default_limit+0x1005>
    6e5e: 64 0c        	stz	$c                      ; 0x200c <__heap_default_limit+0x100c>
    6e60: e6 09        	inc	$9                      ; 0x2009 <__heap_default_limit+0x1009>
    6e62: c6 09        	dec	$9                      ; 0x2009 <__heap_default_limit+0x1009>
    6e64: d0 15        	bne	$6e7b <__udivmodsi4+0x25>
    6e66: e6 08        	inc	$8                      ; 0x2008 <__heap_default_limit+0x1008>
    6e68: c6 08        	dec	$8                      ; 0x2008 <__heap_default_limit+0x1008>
    6e6a: d0 0f        	bne	$6e7b <__udivmodsi4+0x25>
    6e6c: e6 07        	inc	$7                      ; 0x2007 <__heap_default_limit+0x1007>
    6e6e: c6 07        	dec	$7                      ; 0x2007 <__heap_default_limit+0x1007>
    6e70: d0 09        	bne	$6e7b <__udivmodsi4+0x25>
    6e72: e6 06        	inc	$6                      ; 0x2006 <__heap_default_limit+0x1006>
    6e74: c6 06        	dec	$6                      ; 0x2006 <__heap_default_limit+0x1006>
    6e76: d0 03        	bne	$6e7b <__udivmodsi4+0x25>
    6e78: 4c 0b 70     	jmp	$700b <__udivmodsi4+0x1b5>
    6e7b: 84 05        	sty	$5                      ; 0x2005 <__heap_default_limit+0x1005>
    6e7d: 86 04        	stx	$4                      ; 0x2004 <__heap_default_limit+0x1004>
    6e7f: e4 09        	cpx	$9                      ; 0x2009 <__heap_default_limit+0x1009>
    6e81: d0 15        	bne	$6e98 <__udivmodsi4+0x42>
    6e83: a6 11        	ldx	$11                     ; 0x2011 <__heap_default_limit+0x1011>
    6e85: e4 08        	cpx	$8                      ; 0x2008 <__heap_default_limit+0x1008>
    6e87: d0 1e        	bne	$6ea7 <__udivmodsi4+0x51>
    6e89: a6 05        	ldx	$5                      ; 0x2005 <__heap_default_limit+0x1005>
    6e8b: e4 07        	cpx	$7                      ; 0x2007 <__heap_default_limit+0x1007>
    6e8d: f0 03        	beq	$6e92 <__udivmodsi4+0x3c>
    6e8f: 4c f3 6f     	jmp	$6ff3 <__udivmodsi4+0x19d>
    6e92: c5 06        	cmp	$6                      ; 0x2006 <__heap_default_limit+0x1006>
    6e94: 90 06        	bcc	$6e9c <__udivmodsi4+0x46>
    6e96: 80 13        	bra	$6eab <__udivmodsi4+0x55>
    6e98: e4 09        	cpx	$9                      ; 0x2009 <__heap_default_limit+0x1009>
    6e9a: b0 0f        	bcs	$6eab <__udivmodsi4+0x55>
    6e9c: 84 07        	sty	$7                      ; 0x2007 <__heap_default_limit+0x1007>
    6e9e: a6 04        	ldx	$4                      ; 0x2004 <__heap_default_limit+0x1004>
    6ea0: 86 06        	stx	$6                      ; 0x2006 <__heap_default_limit+0x1006>
    6ea2: a2 00        	ldx	#$0
    6ea4: 4c d6 6f     	jmp	$6fd6 <__udivmodsi4+0x180>
    6ea7: e4 08        	cpx	$8                      ; 0x2008 <__heap_default_limit+0x1008>
    6ea9: 90 f1        	bcc	$6e9c <__udivmodsi4+0x46>
    6eab: a6 09        	ldx	$9                      ; 0x2009 <__heap_default_limit+0x1009>
    6ead: 10 03        	bpl	$6eb2 <__udivmodsi4+0x5c>
    6eaf: 4c be 6f     	jmp	$6fbe <__udivmodsi4+0x168>
    6eb2: a2 00        	ldx	#$0
    6eb4: a4 06        	ldy	$6                      ; 0x2006 <__heap_default_limit+0x1006>
    6eb6: 84 0d        	sty	$d                      ; 0x200d <__heap_default_limit+0x100d>
    6eb8: a4 07        	ldy	$7                      ; 0x2007 <__heap_default_limit+0x1007>
    6eba: 84 0e        	sty	$e                      ; 0x200e <__heap_default_limit+0x100e>
    6ebc: a4 08        	ldy	$8                      ; 0x2008 <__heap_default_limit+0x1008>
    6ebe: 84 0f        	sty	$f                      ; 0x200f <__heap_default_limit+0x100f>
    6ec0: a4 09        	ldy	$9                      ; 0x2009 <__heap_default_limit+0x1009>
    6ec2: 84 10        	sty	$10                     ; 0x2010 <__heap_default_limit+0x1010>
    6ec4: 06 0d        	asl	$d                      ; 0x200d <__heap_default_limit+0x100d>
    6ec6: 26 0e        	rol	$e                      ; 0x200e <__heap_default_limit+0x100e>
    6ec8: 26 0f        	rol	$f                      ; 0x200f <__heap_default_limit+0x100f>
    6eca: 26 10        	rol	$10                     ; 0x2010 <__heap_default_limit+0x1010>
    6ecc: a4 04        	ldy	$4                      ; 0x2004 <__heap_default_limit+0x1004>
    6ece: c4 10        	cpy	$10                     ; 0x2010 <__heap_default_limit+0x1010>
    6ed0: d0 12        	bne	$6ee4 <__udivmodsi4+0x8e>
    6ed2: a4 11        	ldy	$11                     ; 0x2011 <__heap_default_limit+0x1011>
    6ed4: c4 0f        	cpy	$f                      ; 0x200f <__heap_default_limit+0x100f>
    6ed6: d0 12        	bne	$6eea <__udivmodsi4+0x94>
    6ed8: a4 05        	ldy	$5                      ; 0x2005 <__heap_default_limit+0x1005>
    6eda: c4 0e        	cpy	$e                      ; 0x200e <__heap_default_limit+0x100e>
    6edc: d0 12        	bne	$6ef0 <__udivmodsi4+0x9a>
    6ede: c5 0d        	cmp	$d                      ; 0x200d <__heap_default_limit+0x100d>
    6ee0: 90 28        	bcc	$6f0a <__udivmodsi4+0xb4>
    6ee2: 80 10        	bra	$6ef4 <__udivmodsi4+0x9e>
    6ee4: c4 10        	cpy	$10                     ; 0x2010 <__heap_default_limit+0x1010>
    6ee6: b0 0c        	bcs	$6ef4 <__udivmodsi4+0x9e>
    6ee8: 80 20        	bra	$6f0a <__udivmodsi4+0xb4>
    6eea: c4 0f        	cpy	$f                      ; 0x200f <__heap_default_limit+0x100f>
    6eec: 90 1c        	bcc	$6f0a <__udivmodsi4+0xb4>
    6eee: 80 04        	bra	$6ef4 <__udivmodsi4+0x9e>
    6ef0: c4 0e        	cpy	$e                      ; 0x200e <__heap_default_limit+0x100e>
    6ef2: 90 16        	bcc	$6f0a <__udivmodsi4+0xb4>
    6ef4: e8           	inx
    6ef5: a4 0d        	ldy	$d                      ; 0x200d <__heap_default_limit+0x100d>
    6ef7: 84 06        	sty	$6                      ; 0x2006 <__heap_default_limit+0x1006>
    6ef9: a4 0e        	ldy	$e                      ; 0x200e <__heap_default_limit+0x100e>
    6efb: 84 07        	sty	$7                      ; 0x2007 <__heap_default_limit+0x1007>
    6efd: a4 0f        	ldy	$f                      ; 0x200f <__heap_default_limit+0x100f>
    6eff: 84 08        	sty	$8                      ; 0x2008 <__heap_default_limit+0x1008>
    6f01: a4 10        	ldy	$10                     ; 0x2010 <__heap_default_limit+0x1010>
    6f03: 84 09        	sty	$9                      ; 0x2009 <__heap_default_limit+0x1009>
    6f05: 30 13        	bmi	$6f1a <__udivmodsi4+0xc4>
    6f07: 4c c4 6e     	jmp	$6ec4 <__udivmodsi4+0x6e>
    6f0a: a4 06        	ldy	$6                      ; 0x2006 <__heap_default_limit+0x1006>
    6f0c: 84 0d        	sty	$d                      ; 0x200d <__heap_default_limit+0x100d>
    6f0e: a4 07        	ldy	$7                      ; 0x2007 <__heap_default_limit+0x1007>
    6f10: 84 0e        	sty	$e                      ; 0x200e <__heap_default_limit+0x100e>
    6f12: a4 08        	ldy	$8                      ; 0x2008 <__heap_default_limit+0x1008>
    6f14: 84 0f        	sty	$f                      ; 0x200f <__heap_default_limit+0x100f>
    6f16: a4 09        	ldy	$9                      ; 0x2009 <__heap_default_limit+0x1009>
    6f18: 84 10        	sty	$10                     ; 0x2010 <__heap_default_limit+0x1010>
    6f1a: 38           	sec
    6f1b: e5 0d        	sbc	$d                      ; 0x200d <__heap_default_limit+0x100d>
    6f1d: 85 08        	sta	$8                      ; 0x2008 <__heap_default_limit+0x1008>
    6f1f: a5 05        	lda	$5                      ; 0x2005 <__heap_default_limit+0x1005>
    6f21: e5 0e        	sbc	$e                      ; 0x200e <__heap_default_limit+0x100e>
    6f23: 85 07        	sta	$7                      ; 0x2007 <__heap_default_limit+0x1007>
    6f25: a5 11        	lda	$11                     ; 0x2011 <__heap_default_limit+0x1011>
    6f27: e5 0f        	sbc	$f                      ; 0x200f <__heap_default_limit+0x100f>
    6f29: a8           	tay
    6f2a: a5 04        	lda	$4                      ; 0x2004 <__heap_default_limit+0x1004>
    6f2c: e5 10        	sbc	$10                     ; 0x2010 <__heap_default_limit+0x1010>
    6f2e: 85 06        	sta	$6                      ; 0x2006 <__heap_default_limit+0x1006>
    6f30: 8a           	txa
    6f31: d0 03        	bne	$6f36 <__udivmodsi4+0xe0>
    6f33: 4c fd 6f     	jmp	$6ffd <__udivmodsi4+0x1a7>
    6f36: a9 01        	lda	#$1
    6f38: 85 79        	sta	$79                     ; 0x2079 <lprestore+0x4>
    6f3a: 64 0c        	stz	$c                      ; 0x200c <__heap_default_limit+0x100c>
    6f3c: 64 04        	stz	$4                      ; 0x2004 <__heap_default_limit+0x1004>
    6f3e: 64 05        	stz	$5                      ; 0x2005 <__heap_default_limit+0x1005>
    6f40: 84 11        	sty	$11                     ; 0x2011 <__heap_default_limit+0x1011>
    6f42: a5 08        	lda	$8                      ; 0x2008 <__heap_default_limit+0x1008>
    6f44: 46 10        	lsr	$10                     ; 0x2010 <__heap_default_limit+0x1010>
    6f46: 66 0f        	ror	$f                      ; 0x200f <__heap_default_limit+0x100f>
    6f48: 66 0e        	ror	$e                      ; 0x200e <__heap_default_limit+0x100e>
    6f4a: 66 0d        	ror	$d                      ; 0x200d <__heap_default_limit+0x100d>
    6f4c: a4 79        	ldy	$79                     ; 0x2079 <lprestore+0x4>
    6f4e: 84 08        	sty	$8                      ; 0x2008 <__heap_default_limit+0x1008>
    6f50: 06 08        	asl	$8                      ; 0x2008 <__heap_default_limit+0x1008>
    6f52: a0 01        	ldy	#$1
    6f54: b0 02        	bcs	$6f58 <__udivmodsi4+0x102>
    6f56: a0 00        	ldy	#$0
    6f58: 84 09        	sty	$9                      ; 0x2009 <__heap_default_limit+0x1009>
    6f5a: a4 08        	ldy	$8                      ; 0x2008 <__heap_default_limit+0x1008>
    6f5c: 84 79        	sty	$79                     ; 0x2079 <lprestore+0x4>
    6f5e: a4 06        	ldy	$6                      ; 0x2006 <__heap_default_limit+0x1006>
    6f60: c4 10        	cpy	$10                     ; 0x2010 <__heap_default_limit+0x1010>
    6f62: d0 18        	bne	$6f7c <__udivmodsi4+0x126>
    6f64: a4 11        	ldy	$11                     ; 0x2011 <__heap_default_limit+0x1011>
    6f66: c4 0f        	cpy	$f                      ; 0x200f <__heap_default_limit+0x100f>
    6f68: f0 03        	beq	$6f6d <__udivmodsi4+0x117>
    6f6a: 4c b0 6f     	jmp	$6fb0 <__udivmodsi4+0x15a>
    6f6d: a4 07        	ldy	$7                      ; 0x2007 <__heap_default_limit+0x1007>
    6f6f: c4 0e        	cpy	$e                      ; 0x200e <__heap_default_limit+0x100e>
    6f71: f0 03        	beq	$6f76 <__udivmodsi4+0x120>
    6f73: 4c b7 6f     	jmp	$6fb7 <__udivmodsi4+0x161>
    6f76: c5 0d        	cmp	$d                      ; 0x200d <__heap_default_limit+0x100d>
    6f78: b0 06        	bcs	$6f80 <__udivmodsi4+0x12a>
    6f7a: 80 24        	bra	$6fa0 <__udivmodsi4+0x14a>
    6f7c: c4 10        	cpy	$10                     ; 0x2010 <__heap_default_limit+0x1010>
    6f7e: 90 20        	bcc	$6fa0 <__udivmodsi4+0x14a>
    6f80: 38           	sec
    6f81: e5 0d        	sbc	$d                      ; 0x200d <__heap_default_limit+0x100d>
    6f83: 85 08        	sta	$8                      ; 0x2008 <__heap_default_limit+0x1008>
    6f85: a5 07        	lda	$7                      ; 0x2007 <__heap_default_limit+0x1007>
    6f87: e5 0e        	sbc	$e                      ; 0x200e <__heap_default_limit+0x100e>
    6f89: 85 07        	sta	$7                      ; 0x2007 <__heap_default_limit+0x1007>
    6f8b: a5 11        	lda	$11                     ; 0x2011 <__heap_default_limit+0x1011>
    6f8d: e5 0f        	sbc	$f                      ; 0x200f <__heap_default_limit+0x100f>
    6f8f: a8           	tay
    6f90: a5 06        	lda	$6                      ; 0x2006 <__heap_default_limit+0x1006>
    6f92: e5 10        	sbc	$10                     ; 0x2010 <__heap_default_limit+0x1010>
    6f94: 85 06        	sta	$6                      ; 0x2006 <__heap_default_limit+0x1006>
    6f96: 84 11        	sty	$11                     ; 0x2011 <__heap_default_limit+0x1011>
    6f98: a5 79        	lda	$79                     ; 0x2079 <lprestore+0x4>
    6f9a: 09 01        	ora	#$1
    6f9c: 85 79        	sta	$79                     ; 0x2079 <lprestore+0x4>
    6f9e: a5 08        	lda	$8                      ; 0x2008 <__heap_default_limit+0x1008>
    6fa0: a4 09        	ldy	$9                      ; 0x2009 <__heap_default_limit+0x1009>
    6fa2: c0 01        	cpy	#$1
    6fa4: 26 0c        	rol	$c                      ; 0x200c <__heap_default_limit+0x100c>
    6fa6: 26 04        	rol	$4                      ; 0x2004 <__heap_default_limit+0x1004>
    6fa8: 26 05        	rol	$5                      ; 0x2005 <__heap_default_limit+0x1005>
    6faa: ca           	dex
    6fab: f0 2f        	beq	$6fdc <__udivmodsi4+0x186>
    6fad: 4c 44 6f     	jmp	$6f44 <__udivmodsi4+0xee>
    6fb0: c4 0f        	cpy	$f                      ; 0x200f <__heap_default_limit+0x100f>
    6fb2: 90 ec        	bcc	$6fa0 <__udivmodsi4+0x14a>
    6fb4: 4c 80 6f     	jmp	$6f80 <__udivmodsi4+0x12a>
    6fb7: c4 0e        	cpy	$e                      ; 0x200e <__heap_default_limit+0x100e>
    6fb9: 90 e5        	bcc	$6fa0 <__udivmodsi4+0x14a>
    6fbb: 4c 80 6f     	jmp	$6f80 <__udivmodsi4+0x12a>
    6fbe: 38           	sec
    6fbf: e5 06        	sbc	$6                      ; 0x2006 <__heap_default_limit+0x1006>
    6fc1: aa           	tax
    6fc2: 98           	tya
    6fc3: e5 07        	sbc	$7                      ; 0x2007 <__heap_default_limit+0x1007>
    6fc5: 85 07        	sta	$7                      ; 0x2007 <__heap_default_limit+0x1007>
    6fc7: a5 11        	lda	$11                     ; 0x2011 <__heap_default_limit+0x1011>
    6fc9: e5 08        	sbc	$8                      ; 0x2008 <__heap_default_limit+0x1008>
    6fcb: 85 11        	sta	$11                     ; 0x2011 <__heap_default_limit+0x1011>
    6fcd: a5 04        	lda	$4                      ; 0x2004 <__heap_default_limit+0x1004>
    6fcf: e5 09        	sbc	$9                      ; 0x2009 <__heap_default_limit+0x1009>
    6fd1: 85 06        	sta	$6                      ; 0x2006 <__heap_default_limit+0x1006>
    6fd3: 8a           	txa
    6fd4: a2 01        	ldx	#$1
    6fd6: 86 79        	stx	$79                     ; 0x2079 <lprestore+0x4>
    6fd8: 64 04        	stz	$4                      ; 0x2004 <__heap_default_limit+0x1004>
    6fda: 64 05        	stz	$5                      ; 0x2005 <__heap_default_limit+0x1005>
    6fdc: 92 0a        	sta	($a),z                  ; 0x200a <__heap_default_limit+0x100a>
    6fde: a0 01        	ldy	#$1
    6fe0: a5 07        	lda	$7                      ; 0x2007 <__heap_default_limit+0x1007>
    6fe2: 91 0a        	sta	($a),y                  ; 0x200a <__heap_default_limit+0x100a>
    6fe4: c8           	iny
    6fe5: a5 11        	lda	$11                     ; 0x2011 <__heap_default_limit+0x1011>
    6fe7: 91 0a        	sta	($a),y                  ; 0x200a <__heap_default_limit+0x100a>
    6fe9: c8           	iny
    6fea: a5 06        	lda	$6                      ; 0x2006 <__heap_default_limit+0x1006>
    6fec: 91 0a        	sta	($a),y                  ; 0x200a <__heap_default_limit+0x100a>
    6fee: a6 0c        	ldx	$c                      ; 0x200c <__heap_default_limit+0x100c>
    6ff0: a5 79        	lda	$79                     ; 0x2079 <lprestore+0x4>
    6ff2: 60           	rts
    6ff3: e4 07        	cpx	$7                      ; 0x2007 <__heap_default_limit+0x1007>
    6ff5: b0 03        	bcs	$6ffa <__udivmodsi4+0x1a4>
    6ff7: 4c 9c 6e     	jmp	$6e9c <__udivmodsi4+0x46>
    6ffa: 4c ab 6e     	jmp	$6eab <__udivmodsi4+0x55>
    6ffd: a2 01        	ldx	#$1
    6fff: 86 79        	stx	$79                     ; 0x2079 <lprestore+0x4>
    7001: 64 04        	stz	$4                      ; 0x2004 <__heap_default_limit+0x1004>
    7003: 64 05        	stz	$5                      ; 0x2005 <__heap_default_limit+0x1005>
    7005: 84 11        	sty	$11                     ; 0x2011 <__heap_default_limit+0x1011>
    7007: a5 08        	lda	$8                      ; 0x2008 <__heap_default_limit+0x1008>
    7009: 80 d1        	bra	$6fdc <__udivmodsi4+0x186>
    700b: 84 07        	sty	$7                      ; 0x2007 <__heap_default_limit+0x1007>
    700d: 4c a0 6e     	jmp	$6ea0 <__udivmodsi4+0x4a>

00007010 <memcpy>:
    7010: a8           	tay
    7011: 8a           	txa
    7012: d0 03        	bne	$7017 <memcpy+0x7>
    7014: 98           	tya
    7015: f0 24        	beq	$703b <memcpy+0x2b>
    7017: a5 04        	lda	$4                      ; 0x2004 <__heap_default_limit+0x1004>
    7019: 85 08        	sta	$8                      ; 0x2008 <__heap_default_limit+0x1008>
    701b: a5 05        	lda	$5                      ; 0x2005 <__heap_default_limit+0x1005>
    701d: 85 09        	sta	$9                      ; 0x2009 <__heap_default_limit+0x1009>
    701f: b2 06        	lda	($6),z                  ; 0x2006 <__heap_default_limit+0x1006>
    7021: 92 08        	sta	($8),z                  ; 0x2008 <__heap_default_limit+0x1008>
    7023: e6 08        	inc	$8                      ; 0x2008 <__heap_default_limit+0x1008>
    7025: d0 02        	bne	$7029 <memcpy+0x19>
    7027: e6 09        	inc	$9                      ; 0x2009 <__heap_default_limit+0x1009>
    7029: e6 06        	inc	$6                      ; 0x2006 <__heap_default_limit+0x1006>
    702b: d0 02        	bne	$702f <memcpy+0x1f>
    702d: e6 07        	inc	$7                      ; 0x2007 <__heap_default_limit+0x1007>
    702f: 88           	dey
    7030: c0 ff        	cpy	#$ff
    7032: d0 01        	bne	$7035 <memcpy+0x25>
    7034: ca           	dex
    7035: 8a           	txa
    7036: d0 e7        	bne	$701f <memcpy+0xf>
    7038: 98           	tya
    7039: d0 e4        	bne	$701f <memcpy+0xf>
    703b: 60           	rts

0000703c <__memset>:
    703c: a4 06        	ldy	$6                      ; 0x2006 <__heap_default_limit+0x1006>
    703e: d0 04        	bne	$7044 <__memset+0x8>
    7040: e0 00        	cpx	#$0
    7042: f0 17        	beq	$705b <__memset+0x1f>
    7044: 92 04        	sta	($4),z                  ; 0x2004 <__heap_default_limit+0x1004>
    7046: e6 04        	inc	$4                      ; 0x2004 <__heap_default_limit+0x1004>
    7048: d0 02        	bne	$704c <__memset+0x10>
    704a: e6 05        	inc	$5                      ; 0x2005 <__heap_default_limit+0x1005>
    704c: ca           	dex
    704d: e0 ff        	cpx	#$ff
    704f: d0 02        	bne	$7053 <__memset+0x17>
    7051: c6 06        	dec	$6                      ; 0x2006 <__heap_default_limit+0x1006>
    7053: a4 06        	ldy	$6                      ; 0x2006 <__heap_default_limit+0x1006>
    7055: d0 ed        	bne	$7044 <__memset+0x8>
    7057: e0 00        	cpx	#$0
    7059: d0 e9        	bne	$7044 <__memset+0x8>
    705b: 60           	rts
