
midnightmega.prg.elf:	file format elf32-mos

SYMBOL TABLE:
00002056 l       .text	00000000 fourbytes
0000205a l       .text	00000000 lpstore
00002075 l       .text	00000000 lprestore
00002015 l       .basic_header	00000000 next_line
0000fff0 l       *ABS*	00000000 PLOT
00000000 l    df *ABS*	00000000 zero-bss.c
00000000 l    df *ABS*	00000000 zero-zp-bss.c
00000000 l    df *ABS*	00000000 copy-zp-data.c
00000000 l    df *ABS*	00000000 ld-temp.o
0000d640 l       *ABS*	00000000 HTRAP00
0000d67f l       *ABS*	00000000 HTRAP3F
00002040 l       .text	00000000 shift
00000030 l     O .zp.bss	00000001 g_curScreenW
00000031 l     O .zp.bss	00000001 g_curScreenH
00007c98 l     O .bss	000002fd escapeCode
00006737 l     F .text	00000001 escNOP
0000002b l     O .zp.data	00000001 g_curTextColor
00005673 l     F .text	0000005e clrhome
000056df l     F .text	00000016 mcputsxy
000056d1 l     F .text	0000000e msprintf
00005ad8 l     F .text	00000388 shortcuts
00005880 l     F .text	00000157 messagebox
0000002f l     O .zp.bss	00000001 option.0
00000027 l     O .zp.data	00000004 midnight
000059d7 l     F .text	000000c0 progress
00005eff l     F .text	00000665 UpdateSectors
00006564 l     F .text	00000046 Deselect
0000002d l     O .zp.bss	00000001 lasttrack
00007b56 l     O .bss	000000e0 direntflags
000056f5 l     F .text	0000018b mcbox
00007c36 l     O .bss	00000022 disknames
00006738 l     F .text	00000009 cputc
00000032 l     O .zp.bss	00000001 g_curX
0000555c l     F .text	000000c6 csputdec
000066f1 l     F .text	00000046 sidbong
00005466 l     F .text	000000e2 getdirententry
00007b06 l     O .bss	00000050 s
000067e9 l     F .text	000000db cputsxy
00004cf0 l     F .text	00000039 GetBAM
0000699e l     F .text	00000067 lcopy
00004d29 l     F .text	0000005c PutBAM
00004c9f l     F .text	00000051 PutOneSector
00004bd8 l     F .text	00000043 GetOneSector
00004e1f l     F .text	00000302 BAMSectorUpdate
00006b80 l     F .text	000000c1 __udivhi3
00000033 l     O .zp.bss	00000001 g_curY
00006b30 l     F .text	0000000b __ashlqi3
00005e60 l     F .text	0000009f optionstring
0000696e l     F .text	00000009 cgetc
0000486c l     F .text	00000032 hyppo_setname
00002f5b l       .text	00000000 errhypfindfirst0
00002f5d l       .text	00000000 donehypfindfirst0
00002f7c l       .text	00000000 errhypopenfile1
00002f7e l       .text	00000000 donehypopenfile1
00002fa8 l       .text	00000000 errhypreadfile2
00002fac l       .text	00000000 donehypreadfile2
00002fcb l       .text	00000000 errhypclosefile3
00002fcf l       .text	00000000 donehypclosefile3
00006a05 l     F .text	00000050 lfill
000067e2 l     F .text	00000007 cputs
000053da l     F .text	0000008c tracksectorstring
00004c1b l     F .text	00000084 PutWholeSector
00005121 l     F .text	000001a0 isallocatedBAMtracksector
00004d85 l     F .text	0000009a readblockchain
000052c1 l     F .text	00000119 findnextBAMtracksector
00004a67 l     F .text	000000d2 ReadSector
00007c58 l     O .bss	00000040 lfnname
00006a55 l     F .text	0000005c usleep
000065aa l     F .text	00000147 sizeselectcurrentifnone
000043f2 l       .text	00000000 errhypd81detach4
000043f6 l       .text	00000000 donehypd81detach4
000045a5 l       .text	00000000 errhypchdir5
000045a9 l       .text	00000000 donehypchdir5
00004637 l       .text	00000000 errhypchdir6
0000463b l       .text	00000000 donehypchdir6
00004756 l       .text	00000000 errhyp1att7
0000475a l       .text	00000000 donehyp1att7
0000481b l       .text	00000000 errhyp0att8
0000481f l       .text	00000000 donehyp0att8
00007ae4 l     O .data	00000001 fnamehi.2
00006ab6 l     F .text	0000003e strcpy
00004898 l       .text	00000000 errhypsetnam9
0000489c l       .text	00000000 donehypsetnam9
0000489e l     F .text	00000063 getsfn
00004901 l     F .text	00000166 ShowAccess
00006b4e l     F .text	00000032 __mulhi3
00006c86 l     F .text	00000070 __udivmodqi4
0000002c l     O .zp.bss	00000001 lastdrive
0000002e l     O .zp.bss	00000001 lastdoublesector
00006c41 l     F .text	00000045 __umodqi3
00004b39 l     F .text	0000009f WriteSector
00006b3b l     F .text	00000013 __ashlhi3
00007a7c l     O .rodata	00000004 BAMsector
00005548 l     F .text	00000014 strcopy
00006dd2 l     F .text	000001ba __udivmodsi4
00005622 l     F .text	00000051 asciitoscreencode_s
000068c4 l     F .text	000000aa fillrect
00006741 l     F .text	000000a1 cputcxy
00007ad4 l     O .rodata	00000010 hexDigits
00005a97 l     F .text	00000041 shortcutprint
00005ffc l       .text	00000000 errgetproc10
00006000 l       .text	00000000 donegetproc10
00006139 l       .text	00000000 errgetcurdrv11
0000613d l       .text	00000000 donegetcurdrv11
00006156 l       .text	00000000 errhypopendir12
0000615a l       .text	00000000 donehypopendir12
00006200 l       .text	00000000 hypreaddirloop13
00006218 l       .text	00000000 errhypreaddir13
0000621a l       .text	00000000 donehypreaddir13
00007ae5 l     O .bss	00000021 direntryblock2
000064de l       .text	00000000 errhypclosedir14
000064e0 l       .text	00000000 donehypclosedir14
00006af4 l     F .text	0000003c strlen
00006cf6 l     F .text	000000dc __udivmodhi4
00006977 l     F .text	00000027 do_dma
00000034 l     O .zp.bss	00000014 dmalist
0000210c g     F .text	00002760 main
00002090 g       .text	00000000 lpoke
000020b1 g       .text	00000000 lpeek
00000007 g       *ABS*	00000000 __rc5
00000008 g       *ABS*	00000000 __rc6
00000009 g       *ABS*	00000000 __rc7
0000000a g       *ABS*	00000000 __rc8
00000004 g       *ABS*	00000000 __rc2
00000005 g       *ABS*	00000000 __rc3
00000006 g       *ABS*	00000000 __rc4
00002048 g       .text	00000000 __after_main
0000203d g       .text	00000000 __do_copy_zp_data
000020f5 g     F .text	00000017 __copy_zp_data
00002037 g       .text	00000000 __do_zero_bss
000020cf g     F .text	00000013 __zero_bss
0000203a g       .text	00000000 __do_zero_zp_bss
000020e2 g     F .text	00000013 __zero_zp_bss
0000202f g       .text	00000000 __do_init_stack
00006ab1 g     F .text	00000005 exit
0000204b g       .text	00000000 _fini
0000ff81  w      *ABS*	00000000 CINT
0000ff84  w      *ABS*	00000000 IOINIT
0000ff87  w      *ABS*	00000000 RAMTAS
0000ff8a  w      *ABS*	00000000 RESTOR
0000ff8d  w      *ABS*	00000000 VECTOR
0000ff90  w      *ABS*	00000000 SETMSG
0000ff93  w      *ABS*	00000000 SECOND
0000ff96  w      *ABS*	00000000 TKSA
0000ff99  w      *ABS*	00000000 MEMTOP
0000ff9c  w      *ABS*	00000000 MEMBOT
0000ff9f  w      *ABS*	00000000 SCNKEY
0000ffa2  w      *ABS*	00000000 SETTMO
0000ffa5  w      *ABS*	00000000 ACPTR
0000ffa8  w      *ABS*	00000000 CIOUT
0000ffab  w      *ABS*	00000000 UNTLK
0000ffae  w      *ABS*	00000000 UNLSN
0000ffb1  w      *ABS*	00000000 LISTEN
0000ffb4  w      *ABS*	00000000 TALK
0000ffb7  w      *ABS*	00000000 READST
0000ffba  w      *ABS*	00000000 SETLFS
0000ffbd  w      *ABS*	00000000 SETNAM
0000ffc0  w      *ABS*	00000000 OPEN
0000ffc3  w      *ABS*	00000000 CLOSE
0000ffc6  w      *ABS*	00000000 CHKIN
0000ffc9  w      *ABS*	00000000 CKOUT
0000ffc9  w      *ABS*	00000000 CHKOUT
0000ffcc  w      *ABS*	00000000 CLRCH
0000ffcc  w      *ABS*	00000000 CLRCHN
0000ffcf  w      *ABS*	00000000 BASIN
0000ffcf  w      *ABS*	00000000 CHRIN
0000ffd2  w      *ABS*	00000000 BSOUT
0000ffd2  w      *ABS*	00000000 CHROUT
0000ffd5  w      *ABS*	00000000 LOAD
0000ffd8  w      *ABS*	00000000 SAVE
0000ffdb  w      *ABS*	00000000 SETTIM
0000ffde  w      *ABS*	00000000 RDTIM
0000ffe1  w      *ABS*	00000000 STOP
0000ffe4  w      *ABS*	00000000 GETIN
0000ffe7  w      *ABS*	00000000 CLALL
0000ffea  w      *ABS*	00000000 UDTIM
0000ffed  w      *ABS*	00000000 SCREEN
0000fff3  w      *ABS*	00000000 IOBASE
0000ffc6 g       *ABS*	00000000 __CHKIN
0000ffc9 g       *ABS*	00000000 __CKOUT
0000ffc9 g       *ABS*	00000000 __CHKOUT
0000ffcc g       *ABS*	00000000 __CLRCH
0000ffcc g       *ABS*	00000000 __CLRCHN
0000ffcf g       *ABS*	00000000 __BASIN
0000ffcf g       *ABS*	00000000 __CHRIN
0000ffd2 g       *ABS*	00000000 __BSOUT
0000ffd2 g       *ABS*	00000000 __CHROUT
0000ffe1 g       *ABS*	00000000 __STOP
0000ffe4 g       *ABS*	00000000 __GETIN
0000ffe7 g       *ABS*	00000000 __CLALL
0000ffea g       *ABS*	00000000 __UDTIM
0000ff81 g       *ABS*	00000000 __CINT
0000ff84 g       *ABS*	00000000 __IOINIT
0000ff87 g       *ABS*	00000000 __RAMTAS
0000ff8a g       *ABS*	00000000 __RESTOR
0000ff8d g       *ABS*	00000000 __VECTOR
0000ff90 g       *ABS*	00000000 __SETMSG
0000ff93 g       *ABS*	00000000 __SECOND
0000ff96 g       *ABS*	00000000 __TKSA
0000ff99 g       *ABS*	00000000 __MEMTOP
0000ff9c g       *ABS*	00000000 __MEMBOT
0000ff9f g       *ABS*	00000000 __SCNKEY
0000ffa2 g       *ABS*	00000000 __SETTMO
0000ffa5 g       *ABS*	00000000 __ACPTR
0000ffa8 g       *ABS*	00000000 __CIOUT
0000ffab g       *ABS*	00000000 __UNTLK
0000ffae g       *ABS*	00000000 __UNLSN
0000ffb1 g       *ABS*	00000000 __LISTEN
0000ffb4 g       *ABS*	00000000 __TALK
0000ffb7 g       *ABS*	00000000 __READST
0000ffba g       *ABS*	00000000 __SETLFS
0000ffbd g       *ABS*	00000000 __SETNAM
0000ffc0 g       *ABS*	00000000 __OPEN
0000ffc3 g       *ABS*	00000000 __CLOSE
0000ffd5 g       *ABS*	00000000 __LOAD
0000ffd8 g       *ABS*	00000000 __SAVE
0000ffdb g       *ABS*	00000000 __SETTIM
0000ffde g       *ABS*	00000000 __RDTIM
0000ffed g       *ABS*	00000000 __SCREEN
0000fff3 g       *ABS*	00000000 __IOBASE
00001000  w      *ABS*	00000000 __heap_default_limit
00006f8c  w    F .text	0000002c memcpy
00006fb8  w    F .text	00000020 __memset
00002021 g       .text	00000000 _start
00000002 g       *ABS*	00000000 __basic_zp_start
00000002 g       *ABS*	00000000 __rc0
0000000c g       *ABS*	00000000 __rc10
0000000e g       *ABS*	00000000 __rc12
00000010 g       *ABS*	00000000 __rc14
00000012 g       *ABS*	00000000 __rc16
00000014 g       *ABS*	00000000 __rc18
00000016 g       *ABS*	00000000 __rc20
00000018 g       *ABS*	00000000 __rc22
0000001a g       *ABS*	00000000 __rc24
0000001c g       *ABS*	00000000 __rc26
0000001e g       *ABS*	00000000 __rc28
00000020 g       *ABS*	00000000 __rc30
00000021 g       *ABS*	00000000 __rc31
00000090 g       *ABS*	00000000 __basic_zp_end
0000001f g       *ABS*	00000000 __rc29
0000001d g       *ABS*	00000000 __rc27
0000001b g       *ABS*	00000000 __rc25
00000019 g       *ABS*	00000000 __rc23
00000017 g       *ABS*	00000000 __rc21
00000015 g       *ABS*	00000000 __rc19
00000013 g       *ABS*	00000000 __rc17
00000011 g       *ABS*	00000000 __rc15
0000000f g       *ABS*	00000000 __rc13
0000000d g       *ABS*	00000000 __rc11
0000000b g       *ABS*	00000000 __rc9
00000003 g       *ABS*	00000000 __rc1
00007f96 g       .noinit	00000000 __heap_start
00000022 g       .zp.data	00000000 __zp_data_start
00002017 g       *ABS*	00000000 __zp_data_load_start
0000000a g       *ABS*	00000000 __zp_data_size
0000002c g       .zp.bss	00000000 __zp_bss_start
0000001c g       *ABS*	00000000 __zp_bss_size
00002021 g       .text	00000000 _init
00006fd8 g       .text	00000000 __init_array_start
00006fd8 g       .text	00000000 __init_array_end
00006fd8 g       .text	00000000 __fini_array_start
00006fd8 g       .text	00000000 __fini_array_end
00007ae4 g       .data	00000000 __data_start
00007ae5 g       .data	00000000 __data_end
00007ae4 g       *ABS*	00000000 __data_load_start
00000001 g       *ABS*	00000000 __data_size
00007ae5 g       .bss	00000000 __bss_start
00007f95 g       .bss	00000000 __bss_end
000004b0 g       *ABS*	00000000 __bss_size
0000d000 g       *ABS*	00000000 __stack

Disassembly of section .text:

00002021 <_start>:
    2021: 78           	sei
    2022: a2 2f        	ldx	#$2f
    2024: 86 00        	stx	$0                      ; 0x2000 <__heap_default_limit+0x1000>
    2026: a2 3e        	ldx	#$3e
    2028: 86 01        	stx	$1                      ; 0x2001 <__heap_default_limit+0x1001>
    202a: a2 44        	ldx	#$44
    202c: 8e 30 d0     	stx	$d030                   ; 0xd030 <__heap_start+0x509a>

0000202f <__do_init_stack>:
    202f: a9 00        	lda	#$0
    2031: 85 02        	sta	$2                      ; 0x2002 <__heap_default_limit+0x1002>
    2033: a9 d0        	lda	#$d0
    2035: 85 03        	sta	$3                      ; 0x2003 <__heap_default_limit+0x1003>

00002037 <__do_zero_bss>:
    2037: 20 cf 20     	jsr	$20cf <__zero_bss>

0000203a <__do_zero_zp_bss>:
    203a: 20 e2 20     	jsr	$20e2 <__zero_zp_bss>

0000203d <__do_copy_zp_data>:
    203d: 20 f5 20     	jsr	$20f5 <__copy_zp_data>

00002040 <shift>:
    2040: a9 0e        	lda	#$e
    2042: 20 d2 ff     	jsr	$ffd2 <__heap_start+0x803c>
    2045: 20 0c 21     	jsr	$210c <main>

00002048 <__after_main>:
    2048: 4c b1 6a     	jmp	$6ab1 <exit>

0000204b <_fini>:
    204b: a2 3f        	ldx	#$3f
    204d: 86 01        	stx	$1                      ; 0x2001 <__heap_default_limit+0x1001>
    204f: a2 64        	ldx	#$64
    2051: 8e 30 d0     	stx	$d030                   ; 0xd030 <__heap_start+0x509a>
    2054: 58           	cli
    2055: 60           	rts

00002056 <fourbytes>:
    2056: 00           	brk
    2057: 00           	brk
    2058: 00           	brk
    2059: 00           	brk

0000205a <lpstore>:
    205a: 48           	pha
    205b: ad 07 00     	lda	$7                      ; 0x7 <__rc5>
    205e: 8d 56 20     	sta	$2056                   ; 0x2056 <fourbytes>
    2061: ad 08 00     	lda	$8                      ; 0x8 <__rc6>
    2064: 8d 57 20     	sta	$2057                   ; 0x2057 <fourbytes+0x1>
    2067: ad 09 00     	lda	$9                      ; 0x9 <__rc7>
    206a: 8d 58 20     	sta	$2058                   ; 0x2058 <fourbytes+0x2>
    206d: ad 0a 00     	lda	$a                      ; 0xa <__zp_data_size>
    2070: 8d 59 20     	sta	$2059                   ; 0x2059 <fourbytes+0x3>
    2073: 68           	pla
    2074: 60           	rts

00002075 <lprestore>:
    2075: 48           	pha
    2076: ad 56 20     	lda	$2056                   ; 0x2056 <fourbytes>
    2079: 8d 07 00     	sta	$7                      ; 0x7 <__rc5>
    207c: ad 57 20     	lda	$2057                   ; 0x2057 <fourbytes+0x1>
    207f: 8d 08 00     	sta	$8                      ; 0x8 <__rc6>
    2082: ad 58 20     	lda	$2058                   ; 0x2058 <fourbytes+0x2>
    2085: 8d 09 00     	sta	$9                      ; 0x9 <__rc7>
    2088: ad 59 20     	lda	$2059                   ; 0x2059 <fourbytes+0x3>
    208b: 8d 0a 00     	sta	$a                      ; 0xa <__zp_data_size>
    208e: 68           	pla
    208f: 60           	rts

00002090 <lpoke>:
    2090: 20 5a 20     	jsr	$205a <lpstore>
    2093: 8d 07 00     	sta	$7                      ; 0x7 <__rc5>
    2096: 8e 08 00     	stx	$8                      ; 0x8 <__rc6>
    2099: ad 04 00     	lda	$4                      ; 0x4 <__rc2>
    209c: 8d 09 00     	sta	$9                      ; 0x9 <__rc7>
    209f: ad 05 00     	lda	$5                      ; 0x5 <__rc3>
    20a2: 8d 0a 00     	sta	$a                      ; 0xa <__zp_data_size>
    20a5: ad 06 00     	lda	$6                      ; 0x6 <__rc4>
    20a8: a3 00        	ldz	#$0
    20aa: ea 92 07     	sta	[$7],z                  ; 0x2007 <__heap_default_limit+0x1007>
    20ad: 20 75 20     	jsr	$2075 <lprestore>
    20b0: 60           	rts

000020b1 <lpeek>:
    20b1: 20 5a 20     	jsr	$205a <lpstore>
    20b4: 8d 06 00     	sta	$6                      ; 0x6 <__rc4>
    20b7: 8e 07 00     	stx	$7                      ; 0x7 <__rc5>
    20ba: ad 04 00     	lda	$4                      ; 0x4 <__rc2>
    20bd: 8d 08 00     	sta	$8                      ; 0x8 <__rc6>
    20c0: ad 05 00     	lda	$5                      ; 0x5 <__rc3>
    20c3: 8d 09 00     	sta	$9                      ; 0x9 <__rc7>
    20c6: a3 00        	ldz	#$0
    20c8: ea b2 06     	lda	[$6],z                  ; 0x2006 <__heap_default_limit+0x1006>
    20cb: 20 75 20     	jsr	$2075 <lprestore>
    20ce: 60           	rts

000020cf <__zero_bss>:
    20cf: a2 b0        	ldx	#$b0
    20d1: a0 04        	ldy	#$4
    20d3: a9 e5        	lda	#$e5
    20d5: 85 04        	sta	$4                      ; 0x2004 <__heap_default_limit+0x1004>
    20d7: a9 7a        	lda	#$7a
    20d9: 85 05        	sta	$5                      ; 0x2005 <__heap_default_limit+0x1005>
    20db: a9 00        	lda	#$0
    20dd: 84 06        	sty	$6                      ; 0x2006 <__heap_default_limit+0x1006>
    20df: 4c b8 6f     	jmp	$6fb8 <__memset>

000020e2 <__zero_zp_bss>:
    20e2: a2 1c        	ldx	#$1c
    20e4: a0 00        	ldy	#$0
    20e6: a9 2c        	lda	#$2c
    20e8: 85 04        	sta	$4                      ; 0x2004 <__heap_default_limit+0x1004>
    20ea: a9 00        	lda	#$0
    20ec: 85 05        	sta	$5                      ; 0x2005 <__heap_default_limit+0x1005>
    20ee: a9 00        	lda	#$0
    20f0: 84 06        	sty	$6                      ; 0x2006 <__heap_default_limit+0x1006>
    20f2: 4c b8 6f     	jmp	$6fb8 <__memset>

000020f5 <__copy_zp_data>:
    20f5: a9 0a        	lda	#$a
    20f7: a2 00        	ldx	#$0
    20f9: a0 22        	ldy	#$22
    20fb: 84 04        	sty	$4                      ; 0x2004 <__heap_default_limit+0x1004>
    20fd: a0 00        	ldy	#$0
    20ff: 84 05        	sty	$5                      ; 0x2005 <__heap_default_limit+0x1005>
    2101: a0 17        	ldy	#$17
    2103: 84 06        	sty	$6                      ; 0x2006 <__heap_default_limit+0x1006>
    2105: a0 20        	ldy	#$20
    2107: 84 07        	sty	$7                      ; 0x2007 <__heap_default_limit+0x1007>
    2109: 4c 8c 6f     	jmp	$6f8c <memcpy>

0000210c <main>:
    210c: a2 47        	ldx	#$47
    210e: 8e 2f d0     	stx	$d02f                   ; 0xd02f <__heap_start+0x5099>
    2111: a2 53        	ldx	#$53
    2113: 8e 2f d0     	stx	$d02f                   ; 0xd02f <__heap_start+0x5099>
    2116: ad 5d d0     	lda	$d05d                   ; 0xd05d <__heap_start+0x50c7>
    2119: 29 7f        	and	#$7f
    211b: 8d 5d d0     	sta	$d05d                   ; 0xd05d <__heap_start+0x50c7>
    211e: 9c 68 d0     	stz	$d068                   ; 0xd068 <__heap_start+0x50d2>
    2121: a2 d8        	ldx	#$d8
    2123: 8e 69 d0     	stx	$d069                   ; 0xd069 <__heap_start+0x50d3>
    2126: a2 02        	ldx	#$2
    2128: 8e 6a d0     	stx	$d06a                   ; 0xd06a <__heap_start+0x50d4>
    212b: ac 31 d0     	ldy	$d031                   ; 0xd031 <__heap_start+0x509b>
    212e: a2 28        	ldx	#$28
    2130: 98           	tya
    2131: 10 02        	bpl	$2135 <main+0x29>
    2133: a2 50        	ldx	#$50
    2135: 86 30        	stx	$30                     ; 0x2030 <__do_init_stack+0x1>
    2137: ad 31 d0     	lda	$d031                   ; 0xd031 <__heap_start+0x509b>
    213a: 29 08        	and	#$8
    213c: f0 04        	beq	$2142 <main+0x36>
    213e: a2 32        	ldx	#$32
    2140: 80 02        	bra	$2144 <main+0x38>
    2142: a2 19        	ldx	#$19
    2144: 18           	clc
    2145: a5 02        	lda	$2                      ; 0x2002 <__heap_default_limit+0x1002>
    2147: 69 d5        	adc	#$d5
    2149: 85 02        	sta	$2                      ; 0x2002 <__heap_default_limit+0x1002>
    214b: a5 03        	lda	$3                      ; 0x2003 <__heap_default_limit+0x1003>
    214d: 69 ff        	adc	#$ff
    214f: 85 03        	sta	$3                      ; 0x2003 <__heap_default_limit+0x1003>
    2151: a4 16        	ldy	$16                     ; 0x2016 <next_line+0x1>
    2153: 5a           	phy
    2154: a4 17        	ldy	$17                     ; 0x2017 <next_line+0x2>
    2156: 5a           	phy
    2157: a4 18        	ldy	$18                     ; 0x2018 <next_line+0x3>
    2159: 5a           	phy
    215a: a4 19        	ldy	$19                     ; 0x2019 <next_line+0x4>
    215c: 5a           	phy
    215d: a5 1a        	lda	$1a                     ; 0x201a <next_line+0x5>
    215f: a0 07        	ldy	#$7
    2161: 91 02        	sta	($2),y                  ; 0x2002 <__heap_default_limit+0x1002>
    2163: a5 1b        	lda	$1b                     ; 0x201b <next_line+0x6>
    2165: 88           	dey
    2166: 91 02        	sta	($2),y                  ; 0x2002 <__heap_default_limit+0x1002>
    2168: a5 1c        	lda	$1c                     ; 0x201c <next_line+0x7>
    216a: 88           	dey
    216b: 91 02        	sta	($2),y                  ; 0x2002 <__heap_default_limit+0x1002>
    216d: a5 1d        	lda	$1d                     ; 0x201d <next_line+0x8>
    216f: 88           	dey
    2170: 91 02        	sta	($2),y                  ; 0x2002 <__heap_default_limit+0x1002>
    2172: a5 1e        	lda	$1e                     ; 0x201e <next_line+0x9>
    2174: 88           	dey
    2175: 91 02        	sta	($2),y                  ; 0x2002 <__heap_default_limit+0x1002>
    2177: a5 1f        	lda	$1f                     ; 0x201f <next_line+0xa>
    2179: 88           	dey
    217a: 91 02        	sta	($2),y                  ; 0x2002 <__heap_default_limit+0x1002>
    217c: a5 20        	lda	$20                     ; 0x2020 <next_line+0xb>
    217e: 88           	dey
    217f: 91 02        	sta	($2),y                  ; 0x2002 <__heap_default_limit+0x1002>
    2181: a5 21        	lda	$21                     ; 0x2021 <_start>
    2183: 88           	dey
    2184: 91 02        	sta	($2),y                  ; 0x2002 <__heap_default_limit+0x1002>
    2186: 86 31        	stx	$31                     ; 0x2031 <__do_init_stack+0x2>
    2188: 80 03        	bra	$218d <main+0x81>
    218a: 9c 10 d6     	stz	$d610                   ; 0xd610 <__heap_start+0x567a>
    218d: ae 10 d6     	ldx	$d610                   ; 0xd610 <__heap_start+0x567a>
    2190: d0 f8        	bne	$218a <main+0x7e>
    2192: a2 98        	ldx	#$98
    2194: 86 04        	stx	$4                      ; 0x2004 <__heap_default_limit+0x1004>
    2196: a2 7c        	ldx	#$7c
    2198: 86 05        	stx	$5                      ; 0x2005 <__heap_default_limit+0x1005>
    219a: a2 ff        	ldx	#$ff
    219c: a0 01        	ldy	#$1
    219e: 4c d1 21     	jmp	$21d1 <main+0xc5>
    21a1: a5 04        	lda	$4                      ; 0x2004 <__heap_default_limit+0x1004>
    21a3: 18           	clc
    21a4: 69 03        	adc	#$3
    21a6: 85 08        	sta	$8                      ; 0x2008 <__heap_default_limit+0x1008>
    21a8: a5 05        	lda	$5                      ; 0x2005 <__heap_default_limit+0x1005>
    21aa: 69 00        	adc	#$0
    21ac: 85 09        	sta	$9                      ; 0x2009 <__heap_default_limit+0x1009>
    21ae: a5 04        	lda	$4                      ; 0x2004 <__heap_default_limit+0x1004>
    21b0: 85 06        	sta	$6                      ; 0x2006 <__heap_default_limit+0x1006>
    21b2: a5 05        	lda	$5                      ; 0x2005 <__heap_default_limit+0x1005>
    21b4: 85 07        	sta	$7                      ; 0x2007 <__heap_default_limit+0x1007>
    21b6: a9 37        	lda	#$37
    21b8: 91 04        	sta	($4),y                  ; 0x2004 <__heap_default_limit+0x1004>
    21ba: a9 00        	lda	#$0
    21bc: 92 04        	sta	($4),z                  ; 0x2004 <__heap_default_limit+0x1004>
    21be: a5 08        	lda	$8                      ; 0x2008 <__heap_default_limit+0x1008>
    21c0: 85 04        	sta	$4                      ; 0x2004 <__heap_default_limit+0x1004>
    21c2: a5 09        	lda	$9                      ; 0x2009 <__heap_default_limit+0x1009>
    21c4: 85 05        	sta	$5                      ; 0x2005 <__heap_default_limit+0x1005>
    21c6: e6 06        	inc	$6                      ; 0x2006 <__heap_default_limit+0x1006>
    21c8: d0 02        	bne	$21cc <main+0xc0>
    21ca: e6 07        	inc	$7                      ; 0x2007 <__heap_default_limit+0x1007>
    21cc: a9 67        	lda	#$67
    21ce: 91 06        	sta	($6),y                  ; 0x2006 <__heap_default_limit+0x1006>
    21d0: ca           	dex
    21d1: 8a           	txa
    21d2: f0 03        	beq	$21d7 <main+0xcb>
    21d4: 4c a1 21     	jmp	$21a1 <main+0x95>
    21d7: a9 f0        	lda	#$f0
    21d9: 25 2b        	and	$2b                     ; 0x202b <_start+0xa>
    21db: 09 03        	ora	#$3
    21dd: 85 2b        	sta	$2b                     ; 0x202b <_start+0xa>
    21df: 9c 20 d0     	stz	$d020                   ; 0xd020 <__heap_start+0x508a>
    21e2: a2 06        	ldx	#$6
    21e4: 8e 21 d0     	stx	$d021                   ; 0xd021 <__heap_start+0x508b>
    21e7: ad 31 d0     	lda	$d031                   ; 0xd031 <__heap_start+0x509b>
    21ea: 09 80        	ora	#$80
    21ec: 8d 31 d0     	sta	$d031                   ; 0xd031 <__heap_start+0x509b>
    21ef: a2 50        	ldx	#$50
    21f1: 8e 4c d0     	stx	$d04c                   ; 0xd04c <__heap_start+0x50b6>
    21f4: ad 31 d0     	lda	$d031                   ; 0xd031 <__heap_start+0x509b>
    21f7: 29 f7        	and	#$f7
    21f9: 8d 31 d0     	sta	$d031                   ; 0xd031 <__heap_start+0x509b>
    21fc: 86 30        	stx	$30                     ; 0x2030 <__do_init_stack+0x1>
    21fe: a2 19        	ldx	#$19
    2200: 86 31        	stx	$31                     ; 0x2031 <__do_init_stack+0x2>
    2202: 20 73 56     	jsr	$5673 <clrhome>
    2205: a2 16        	ldx	#$16
    2207: a0 9e        	ldy	#$9e
    2209: 84 04        	sty	$4                      ; 0x2004 <__heap_default_limit+0x1004>
    220b: a0 70        	ldy	#$70
    220d: 84 05        	sty	$5                      ; 0x2005 <__heap_default_limit+0x1005>
    220f: a9 00        	lda	#$0
    2211: 20 df 56     	jsr	$56df <mcputsxy>
    2214: a2 c2        	ldx	#$c2
    2216: 86 04        	stx	$4                      ; 0x2004 <__heap_default_limit+0x1004>
    2218: a2 78        	ldx	#$78
    221a: 86 05        	stx	$5                      ; 0x2005 <__heap_default_limit+0x1005>
    221c: 20 d1 56     	jsr	$56d1 <msprintf>
    221f: a2 17        	ldx	#$17
    2221: a0 55        	ldy	#$55
    2223: 84 04        	sty	$4                      ; 0x2004 <__heap_default_limit+0x1004>
    2225: a0 76        	ldy	#$76
    2227: 84 05        	sty	$5                      ; 0x2005 <__heap_default_limit+0x1005>
    2229: a9 00        	lda	#$0
    222b: 20 df 56     	jsr	$56df <mcputsxy>
    222e: a9 14        	lda	#$14
    2230: a2 00        	ldx	#$0
    2232: 20 d8 5a     	jsr	$5ad8 <shortcuts>
    2235: a9 01        	lda	#$1
    2237: a2 d3        	ldx	#$d3
    2239: 86 04        	stx	$4                      ; 0x2004 <__heap_default_limit+0x1004>
    223b: a2 79        	ldx	#$79
    223d: 86 05        	stx	$5                      ; 0x2005 <__heap_default_limit+0x1005>
    223f: a2 1c        	ldx	#$1c
    2241: 86 06        	stx	$6                      ; 0x2006 <__heap_default_limit+0x1006>
    2243: a2 79        	ldx	#$79
    2245: 86 07        	stx	$7                      ; 0x2007 <__heap_default_limit+0x1007>
    2247: a2 ee        	ldx	#$ee
    2249: 86 08        	stx	$8                      ; 0x2008 <__heap_default_limit+0x1008>
    224b: a2 73        	ldx	#$73
    224d: 86 09        	stx	$9                      ; 0x2009 <__heap_default_limit+0x1009>
    224f: 64 0a        	stz	$a                      ; 0x200a <__heap_default_limit+0x100a>
    2251: 64 0b        	stz	$b                      ; 0x200b <__heap_default_limit+0x100b>
    2253: 64 0c        	stz	$c                      ; 0x200c <__heap_default_limit+0x100c>
    2255: a2 00        	ldx	#$0
    2257: 20 80 58     	jsr	$5880 <messagebox>
    225a: aa           	tax
    225b: d0 03        	bne	$2260 <main+0x154>
    225d: 4c 59 46     	jmp	$4659 <donehypchdir6+0x1e>
    2260: a2 06        	ldx	#$6
    2262: 86 2f        	stx	$2f                     ; 0x202f <__do_init_stack>
    2264: a2 28        	ldx	#$28
    2266: 8a           	txa
    2267: a0 23        	ldy	#$23
    2269: 91 02        	sta	($2),y                  ; 0x2002 <__heap_default_limit+0x1002>
    226b: a0 00        	ldy	#$0
    226d: 64 19        	stz	$19                     ; 0x2019 <next_line+0x4>
    226f: 4c ea 22     	jmp	$22ea <main+0x1de>
    2272: a6 19        	ldx	$19                     ; 0x2019 <next_line+0x4>
    2274: 84 18        	sty	$18                     ; 0x2018 <next_line+0x3>
    2276: b4 27        	ldy	$27,x                   ; 0x2027 <_start+0x6>
    2278: b5 28        	lda	$28,x                   ; 0x2028 <_start+0x7>
    227a: aa           	tax
    227b: 84 16        	sty	$16                     ; 0x2016 <next_line+0x1>
    227d: 86 17        	stx	$17                     ; 0x2017 <next_line+0x2>
    227f: a5 18        	lda	$18                     ; 0x2018 <next_line+0x3>
    2281: 92 16        	sta	($16),z                 ; 0x2016 <next_line+0x1>
    2283: 18           	clc
    2284: 98           	tya
    2285: 69 03        	adc	#$3
    2287: 85 04        	sta	$4                      ; 0x2004 <__heap_default_limit+0x1004>
    2289: 8a           	txa
    228a: 69 00        	adc	#$0
    228c: 85 05        	sta	$5                      ; 0x2005 <__heap_default_limit+0x1005>
    228e: a2 d2        	ldx	#$d2
    2290: 86 06        	stx	$6                      ; 0x2006 <__heap_default_limit+0x1006>
    2292: a2 73        	ldx	#$73
    2294: 86 07        	stx	$7                      ; 0x2007 <__heap_default_limit+0x1007>
    2296: a2 00        	ldx	#$0
    2298: a9 10        	lda	#$10
    229a: 20 8c 6f     	jsr	$6f8c <memcpy>
    229d: a9 28        	lda	#$28
    229f: a0 47        	ldy	#$47
    22a1: 91 16        	sta	($16),y                 ; 0x2016 <next_line+0x1>
    22a3: a0 01        	ldy	#$1
    22a5: a9 00        	lda	#$0
    22a7: 91 16        	sta	($16),y                 ; 0x2016 <next_line+0x1>
    22a9: 98           	tya
    22aa: a0 46        	ldy	#$46
    22ac: 11 16        	ora	($16),y                 ; 0x2016 <next_line+0x1>
    22ae: 91 16        	sta	($16),y                 ; 0x2016 <next_line+0x1>
    22b0: a2 46        	ldx	#$46
    22b2: 86 04        	stx	$4                      ; 0x2004 <__heap_default_limit+0x1004>
    22b4: a2 73        	ldx	#$73
    22b6: 86 05        	stx	$5                      ; 0x2005 <__heap_default_limit+0x1005>
    22b8: a2 1f        	ldx	#$1f
    22ba: 86 06        	stx	$6                      ; 0x2006 <__heap_default_limit+0x1006>
    22bc: a2 72        	ldx	#$72
    22be: 86 07        	stx	$7                      ; 0x2007 <__heap_default_limit+0x1007>
    22c0: a0 23        	ldy	#$23
    22c2: b1 02        	lda	($2),y                  ; 0x2002 <__heap_default_limit+0x1002>
    22c4: 85 1a        	sta	$1a                     ; 0x201a <next_line+0x5>
    22c6: 20 d7 59     	jsr	$59d7 <progress>
    22c9: b2 16        	lda	($16),z                 ; 0x2016 <next_line+0x1>
    22cb: a6 18        	ldx	$18                     ; 0x2018 <next_line+0x3>
    22cd: 20 ff 5e     	jsr	$5eff <UpdateSectors>
    22d0: a5 18        	lda	$18                     ; 0x2018 <next_line+0x3>
    22d2: 20 64 65     	jsr	$6564 <Deselect>
    22d5: a5 19        	lda	$19                     ; 0x2019 <next_line+0x4>
    22d7: a4 18        	ldy	$18                     ; 0x2018 <next_line+0x3>
    22d9: 18           	clc
    22da: 69 02        	adc	#$2
    22dc: 85 19        	sta	$19                     ; 0x2019 <next_line+0x4>
    22de: c8           	iny
    22df: 18           	clc
    22e0: a5 1a        	lda	$1a                     ; 0x201a <next_line+0x5>
    22e2: 69 28        	adc	#$28
    22e4: 5a           	phy
    22e5: a0 23        	ldy	#$23
    22e7: 91 02        	sta	($2),y                  ; 0x2002 <__heap_default_limit+0x1002>
    22e9: 7a           	ply
    22ea: c0 02        	cpy	#$2
    22ec: f0 03        	beq	$22f1 <main+0x1e5>
    22ee: 4c 72 22     	jmp	$2272 <main+0x166>
    22f1: 64 04        	stz	$4                      ; 0x2004 <__heap_default_limit+0x1004>
    22f3: a9 00        	lda	#$0
    22f5: a0 18        	ldy	#$18
    22f7: 91 02        	sta	($2),y                  ; 0x2002 <__heap_default_limit+0x1002>
    22f9: 9c 80 d0     	stz	$d080                   ; 0xd080 <__heap_start+0x50ea>
    22fc: 64 2d        	stz	$2d                     ; 0x202d <_start+0xc>
    22fe: a2 56        	ldx	#$56
    2300: 86 18        	stx	$18                     ; 0x2018 <next_line+0x3>
    2302: a2 7b        	ldx	#$7b
    2304: 86 19        	stx	$19                     ; 0x2019 <next_line+0x4>
    2306: a9 00        	lda	#$0
    2308: 64 04        	stz	$4                      ; 0x2004 <__heap_default_limit+0x1004>
    230a: 48           	pha
    230b: a9 00        	lda	#$0
    230d: a0 23        	ldy	#$23
    230f: 91 02        	sta	($2),y                  ; 0x2002 <__heap_default_limit+0x1002>
    2311: a0 21        	ldy	#$21
    2313: 91 02        	sta	($2),y                  ; 0x2002 <__heap_default_limit+0x1002>
    2315: 68           	pla
    2316: 64 20        	stz	$20                     ; 0x2020 <next_line+0xb>
    2318: 64 17        	stz	$17                     ; 0x2017 <next_line+0x2>
    231a: a6 17        	ldx	$17                     ; 0x2017 <next_line+0x2>
    231c: d0 09        	bne	$2327 <main+0x21b>
    231e: a6 20        	ldx	$20                     ; 0x2020 <next_line+0xb>
    2320: e0 02        	cpx	#$2
    2322: d0 03        	bne	$2327 <main+0x21b>
    2324: 4c 02 2c     	jmp	$2c02 <main+0xaf6>
    2327: 85 16        	sta	$16                     ; 0x2016 <next_line+0x1>
    2329: a0 21        	ldy	#$21
    232b: b1 02        	lda	($2),y                  ; 0x2002 <__heap_default_limit+0x1002>
    232d: aa           	tax
    232e: b4 27        	ldy	$27,x                   ; 0x2027 <_start+0x6>
    2330: b5 28        	lda	$28,x                   ; 0x2028 <_start+0x7>
    2332: aa           	tax
    2333: 84 1b        	sty	$1b                     ; 0x201b <next_line+0x6>
    2335: 84 1c        	sty	$1c                     ; 0x201c <next_line+0x7>
    2337: 86 1a        	stx	$1a                     ; 0x201a <next_line+0x5>
    2339: 86 1d        	stx	$1d                     ; 0x201d <next_line+0x8>
    233b: a0 02        	ldy	#$2
    233d: b1 1c        	lda	($1c),y                 ; 0x201c <next_line+0x7>
    233f: 88           	dey
    2340: d1 1c        	cmp	($1c),y                 ; 0x201c <next_line+0x7>
    2342: b0 02        	bcs	$2346 <main+0x23a>
    2344: 91 1c        	sta	($1c),y                 ; 0x201c <next_line+0x7>
    2346: a5 20        	lda	$20                     ; 0x2020 <next_line+0xb>
    2348: 0a           	asl
    2349: 0a           	asl
    234a: 0a           	asl
    234b: 85 04        	sta	$4                      ; 0x2004 <__heap_default_limit+0x1004>
    234d: 0a           	asl
    234e: 0a           	asl
    234f: 18           	clc
    2350: 65 04        	adc	$4                      ; 0x2004 <__heap_default_limit+0x1004>
    2352: 85 1f        	sta	$1f                     ; 0x201f <next_line+0xa>
    2354: 18           	clc
    2355: 69 27        	adc	#$27
    2357: 85 04        	sta	$4                      ; 0x2004 <__heap_default_limit+0x1004>
    2359: a2 17        	ldx	#$17
    235b: 86 05        	stx	$5                      ; 0x2005 <__heap_default_limit+0x1005>
    235d: 64 06        	stz	$6                      ; 0x2006 <__heap_default_limit+0x1006>
    235f: a2 00        	ldx	#$0
    2361: a5 1f        	lda	$1f                     ; 0x201f <next_line+0xa>
    2363: 20 f5 56     	jsr	$56f5 <mcbox>
    2366: a9 20        	lda	#$20
    2368: 05 2b        	ora	$2b                     ; 0x202b <_start+0xa>
    236a: 85 2b        	sta	$2b                     ; 0x202b <_start+0xa>
    236c: a6 1f        	ldx	$1f                     ; 0x201f <next_line+0xa>
    236e: 86 1e        	stx	$1e                     ; 0x201e <next_line+0x9>
    2370: a5 1f        	lda	$1f                     ; 0x201f <next_line+0xa>
    2372: 09 02        	ora	#$2
    2374: a2 fa        	ldx	#$fa
    2376: 86 04        	stx	$4                      ; 0x2004 <__heap_default_limit+0x1004>
    2378: a2 70        	ldx	#$70
    237a: 86 05        	stx	$5                      ; 0x2005 <__heap_default_limit+0x1005>
    237c: a2 00        	ldx	#$0
    237e: 85 1f        	sta	$1f                     ; 0x201f <next_line+0xa>
    2380: 20 df 56     	jsr	$56df <mcputsxy>
    2383: a0 23        	ldy	#$23
    2385: b1 02        	lda	($2),y                  ; 0x2002 <__heap_default_limit+0x1002>
    2387: 85 04        	sta	$4                      ; 0x2004 <__heap_default_limit+0x1004>
    2389: a9 36        	lda	#$36
    238b: 18           	clc
    238c: 65 04        	adc	$4                      ; 0x2004 <__heap_default_limit+0x1004>
    238e: 85 04        	sta	$4                      ; 0x2004 <__heap_default_limit+0x1004>
    2390: a9 7c        	lda	#$7c
    2392: 69 00        	adc	#$0
    2394: 85 05        	sta	$5                      ; 0x2005 <__heap_default_limit+0x1005>
    2396: 20 d1 56     	jsr	$56d1 <msprintf>
    2399: a9 20        	lda	#$20
    239b: 20 38 67     	jsr	$6738 <cputc>
    239e: a9 01        	lda	#$1
    23a0: a0 46        	ldy	#$46
    23a2: 31 1c        	and	($1c),y                 ; 0x201c <next_line+0x7>
    23a4: f0 25        	beq	$23cb <main+0x2bf>
    23a6: a5 32        	lda	$32                     ; 0x2032 <__do_init_stack+0x3>
    23a8: 1a           	inc
    23a9: a2 fa        	ldx	#$fa
    23ab: 86 04        	stx	$4                      ; 0x2004 <__heap_default_limit+0x1004>
    23ad: a2 70        	ldx	#$70
    23af: 86 05        	stx	$5                      ; 0x2005 <__heap_default_limit+0x1005>
    23b1: a2 00        	ldx	#$0
    23b3: 20 df 56     	jsr	$56df <mcputsxy>
    23b6: 18           	clc
    23b7: a5 1b        	lda	$1b                     ; 0x201b <next_line+0x6>
    23b9: 69 03        	adc	#$3
    23bb: 85 04        	sta	$4                      ; 0x2004 <__heap_default_limit+0x1004>
    23bd: a5 1a        	lda	$1a                     ; 0x201a <next_line+0x5>
    23bf: 69 00        	adc	#$0
    23c1: 85 05        	sta	$5                      ; 0x2005 <__heap_default_limit+0x1005>
    23c3: 20 d1 56     	jsr	$56d1 <msprintf>
    23c6: a9 20        	lda	#$20
    23c8: 20 38 67     	jsr	$6738 <cputc>
    23cb: a2 8a        	ldx	#$8a
    23cd: 86 04        	stx	$4                      ; 0x2004 <__heap_default_limit+0x1004>
    23cf: a2 75        	ldx	#$75
    23d1: 86 05        	stx	$5                      ; 0x2005 <__heap_default_limit+0x1005>
    23d3: a2 17        	ldx	#$17
    23d5: a5 1f        	lda	$1f                     ; 0x201f <next_line+0xa>
    23d7: 20 df 56     	jsr	$56df <mcputsxy>
    23da: b2 1c        	lda	($1c),z                 ; 0x201c <next_line+0x7>
    23dc: 64 04        	stz	$4                      ; 0x2004 <__heap_default_limit+0x1004>
    23de: 64 05        	stz	$5                      ; 0x2005 <__heap_default_limit+0x1005>
    23e0: 64 06        	stz	$6                      ; 0x2006 <__heap_default_limit+0x1006>
    23e2: a2 00        	ldx	#$0
    23e4: 20 5c 55     	jsr	$555c <csputdec>
    23e7: a0 02        	ldy	#$2
    23e9: b1 1c        	lda	($1c),y                 ; 0x201c <next_line+0x7>
    23eb: c9 ff        	cmp	#$ff
    23ed: d0 03        	bne	$23f2 <main+0x2e6>
    23ef: 4c 29 24     	jmp	$2429 <main+0x31d>
    23f2: a9 20        	lda	#$20
    23f4: 20 38 67     	jsr	$6738 <cputc>
    23f7: 18           	clc
    23f8: a5 1b        	lda	$1b                     ; 0x201b <next_line+0x6>
    23fa: 69 44        	adc	#$44
    23fc: aa           	tax
    23fd: a5 1a        	lda	$1a                     ; 0x201a <next_line+0x5>
    23ff: 69 00        	adc	#$0
    2401: 86 1f        	stx	$1f                     ; 0x201f <next_line+0xa>
    2403: 86 04        	stx	$4                      ; 0x2004 <__heap_default_limit+0x1004>
    2405: 85 21        	sta	$21                     ; 0x2021 <_start>
    2407: 85 05        	sta	$5                      ; 0x2005 <__heap_default_limit+0x1005>
    2409: a0 44        	ldy	#$44
    240b: b1 1c        	lda	($1c),y                 ; 0x201c <next_line+0x7>
    240d: aa           	tax
    240e: a0 01        	ldy	#$1
    2410: b1 04        	lda	($4),y                  ; 0x2004 <__heap_default_limit+0x1004>
    2412: c9 ff        	cmp	#$ff
    2414: d0 2a        	bne	$2440 <main+0x334>
    2416: 5a           	phy
    2417: a0 00        	ldy	#$0
    2419: 84 06        	sty	$6                      ; 0x2006 <__heap_default_limit+0x1006>
    241b: a0 00        	ldy	#$0
    241d: 84 07        	sty	$7                      ; 0x2007 <__heap_default_limit+0x1007>
    241f: 7a           	ply
    2420: 86 04        	stx	$4                      ; 0x2004 <__heap_default_limit+0x1004>
    2422: e0 ff        	cpx	#$ff
    2424: d0 24        	bne	$244a <main+0x33e>
    2426: 4c f0 24     	jmp	$24f0 <main+0x3e4>
    2429: 18           	clc
    242a: a5 1e        	lda	$1e                     ; 0x201e <next_line+0x9>
    242c: 69 11        	adc	#$11
    242e: a2 96        	ldx	#$96
    2430: 86 04        	stx	$4                      ; 0x2004 <__heap_default_limit+0x1004>
    2432: a2 70        	ldx	#$70
    2434: 86 05        	stx	$5                      ; 0x2005 <__heap_default_limit+0x1005>
    2436: a2 03        	ldx	#$3
    2438: 20 df 56     	jsr	$56df <mcputsxy>
    243b: a4 16        	ldy	$16                     ; 0x2016 <next_line+0x1>
    243d: 4c b7 27     	jmp	$27b7 <main+0x6ab>
    2440: 86 04        	stx	$4                      ; 0x2004 <__heap_default_limit+0x1004>
    2442: a2 00        	ldx	#$0
    2444: 86 06        	stx	$6                      ; 0x2006 <__heap_default_limit+0x1006>
    2446: a2 00        	ldx	#$0
    2448: 86 07        	stx	$7                      ; 0x2007 <__heap_default_limit+0x1007>
    244a: aa           	tax
    244b: e0 ff        	cpx	#$ff
    244d: f0 03        	beq	$2452 <main+0x346>
    244f: 4c a3 24     	jmp	$24a3 <main+0x397>
    2452: a6 04        	ldx	$4                      ; 0x2004 <__heap_default_limit+0x1004>
    2454: e0 fe        	cpx	#$fe
    2456: f0 03        	beq	$245b <main+0x34f>
    2458: 4c a3 24     	jmp	$24a3 <main+0x397>
    245b: a2 00        	ldx	#$0
    245d: 86 1a        	stx	$1a                     ; 0x201a <next_line+0x5>
    245f: a2 00        	ldx	#$0
    2461: 86 1b        	stx	$1b                     ; 0x201b <next_line+0x6>
    2463: a9 e0        	lda	#$e0
    2465: 25 2b        	and	$2b                     ; 0x202b <_start+0xa>
    2467: 09 18        	ora	#$18
    2469: 85 2b        	sta	$2b                     ; 0x202b <_start+0xa>
    246b: a5 1e        	lda	$1e                     ; 0x201e <next_line+0x9>
    246d: 18           	clc
    246e: 69 0c        	adc	#$c
    2470: a2 ae        	ldx	#$ae
    2472: 86 04        	stx	$4                      ; 0x2004 <__heap_default_limit+0x1004>
    2474: a2 74        	ldx	#$74
    2476: 86 05        	stx	$5                      ; 0x2005 <__heap_default_limit+0x1005>
    2478: a2 17        	ldx	#$17
    247a: 20 df 56     	jsr	$56df <mcputsxy>
    247d: a9 ef        	lda	#$ef
    247f: 25 2b        	and	$2b                     ; 0x202b <_start+0xa>
    2481: 85 2b        	sta	$2b                     ; 0x202b <_start+0xa>
    2483: 20 f1 66     	jsr	$66f1 <sidbong>
    2486: a6 1f        	ldx	$1f                     ; 0x201f <next_line+0xa>
    2488: 86 04        	stx	$4                      ; 0x2004 <__heap_default_limit+0x1004>
    248a: a6 21        	ldx	$21                     ; 0x2021 <_start>
    248c: 86 05        	stx	$5                      ; 0x2005 <__heap_default_limit+0x1005>
    248e: a9 ff        	lda	#$ff
    2490: a0 44        	ldy	#$44
    2492: 91 1c        	sta	($1c),y                 ; 0x201c <next_line+0x7>
    2494: a0 01        	ldy	#$1
    2496: 91 04        	sta	($4),y                  ; 0x2004 <__heap_default_limit+0x1004>
    2498: a2 00        	ldx	#$0
    249a: 86 06        	stx	$6                      ; 0x2006 <__heap_default_limit+0x1006>
    249c: a2 00        	ldx	#$0
    249e: 86 07        	stx	$7                      ; 0x2007 <__heap_default_limit+0x1007>
    24a0: 4c f0 24     	jmp	$24f0 <main+0x3e4>
    24a3: a5 1e        	lda	$1e                     ; 0x201e <next_line+0x9>
    24a5: 18           	clc
    24a6: 69 0c        	adc	#$c
    24a8: a2 fa        	ldx	#$fa
    24aa: 86 04        	stx	$4                      ; 0x2004 <__heap_default_limit+0x1004>
    24ac: a2 70        	ldx	#$70
    24ae: 86 05        	stx	$5                      ; 0x2005 <__heap_default_limit+0x1005>
    24b0: a2 17        	ldx	#$17
    24b2: a0 00        	ldy	#$0
    24b4: 84 1a        	sty	$1a                     ; 0x201a <next_line+0x5>
    24b6: a0 00        	ldy	#$0
    24b8: 84 1b        	sty	$1b                     ; 0x201b <next_line+0x6>
    24ba: 20 df 56     	jsr	$56df <mcputsxy>
    24bd: a6 1f        	ldx	$1f                     ; 0x201f <next_line+0xa>
    24bf: 86 04        	stx	$4                      ; 0x2004 <__heap_default_limit+0x1004>
    24c1: a6 21        	ldx	$21                     ; 0x2021 <_start>
    24c3: 86 05        	stx	$5                      ; 0x2005 <__heap_default_limit+0x1005>
    24c5: a0 44        	ldy	#$44
    24c7: b1 1c        	lda	($1c),y                 ; 0x201c <next_line+0x7>
    24c9: 85 07        	sta	$7                      ; 0x2007 <__heap_default_limit+0x1007>
    24cb: a0 01        	ldy	#$1
    24cd: b1 04        	lda	($4),y                  ; 0x2004 <__heap_default_limit+0x1004>
    24cf: 64 04        	stz	$4                      ; 0x2004 <__heap_default_limit+0x1004>
    24d1: 64 05        	stz	$5                      ; 0x2005 <__heap_default_limit+0x1005>
    24d3: 64 06        	stz	$6                      ; 0x2006 <__heap_default_limit+0x1006>
    24d5: aa           	tax
    24d6: a5 07        	lda	$7                      ; 0x2007 <__heap_default_limit+0x1007>
    24d8: 20 5c 55     	jsr	$555c <csputdec>
    24db: a2 22        	ldx	#$22
    24dd: 86 04        	stx	$4                      ; 0x2004 <__heap_default_limit+0x1004>
    24df: a2 76        	ldx	#$76
    24e1: 86 05        	stx	$5                      ; 0x2005 <__heap_default_limit+0x1005>
    24e3: 20 d1 56     	jsr	$56d1 <msprintf>
    24e6: a2 00        	ldx	#$0
    24e8: 86 06        	stx	$6                      ; 0x2006 <__heap_default_limit+0x1006>
    24ea: a2 00        	ldx	#$0
    24ec: 86 07        	stx	$7                      ; 0x2007 <__heap_default_limit+0x1007>
    24ee: a0 01        	ldy	#$1
    24f0: a9 df        	lda	#$df
    24f2: 25 2b        	and	$2b                     ; 0x202b <_start+0xa>
    24f4: 85 0a        	sta	$a                      ; 0x200a <__heap_default_limit+0x100a>
    24f6: 85 2b        	sta	$2b                     ; 0x202b <_start+0xa>
    24f8: b1 1c        	lda	($1c),y                 ; 0x201c <next_line+0x7>
    24fa: a0 1d        	ldy	#$1d
    24fc: 91 02        	sta	($2),y                  ; 0x2002 <__heap_default_limit+0x1002>
    24fe: aa           	tax
    24ff: a0 02        	ldy	#$2
    2501: b1 1c        	lda	($1c),y                 ; 0x201c <next_line+0x7>
    2503: a0 1b        	ldy	#$1b
    2505: 91 02        	sta	($2),y                  ; 0x2002 <__heap_default_limit+0x1002>
    2507: e0 15        	cpx	#$15
    2509: 64 1a        	stz	$1a                     ; 0x201a <next_line+0x5>
    250b: 64 1b        	stz	$1b                     ; 0x201b <next_line+0x6>
    250d: a9 00        	lda	#$0
    250f: 90 0a        	bcc	$251b <main+0x40f>
    2511: 18           	clc
    2512: 8a           	txa
    2513: 69 eb        	adc	#$eb
    2515: 85 1b        	sta	$1b                     ; 0x201b <next_line+0x6>
    2517: a9 00        	lda	#$0
    2519: 69 ff        	adc	#$ff
    251b: aa           	tax
    251c: a5 1b        	lda	$1b                     ; 0x201b <next_line+0x6>
    251e: 18           	clc
    251f: 65 18        	adc	$18                     ; 0x2018 <next_line+0x3>
    2521: 85 08        	sta	$8                      ; 0x2008 <__heap_default_limit+0x1008>
    2523: 8a           	txa
    2524: a0 1f        	ldy	#$1f
    2526: 91 02        	sta	($2),y                  ; 0x2002 <__heap_default_limit+0x1002>
    2528: 65 19        	adc	$19                     ; 0x2019 <next_line+0x4>
    252a: 85 09        	sta	$9                      ; 0x2009 <__heap_default_limit+0x1009>
    252c: a5 08        	lda	$8                      ; 0x2008 <__heap_default_limit+0x1008>
    252e: a0 19        	ldy	#$19
    2530: 91 02        	sta	($2),y                  ; 0x2002 <__heap_default_limit+0x1002>
    2532: a5 09        	lda	$9                      ; 0x2009 <__heap_default_limit+0x1009>
    2534: c8           	iny
    2535: 91 02        	sta	($2),y                  ; 0x2002 <__heap_default_limit+0x1002>
    2537: a5 1e        	lda	$1e                     ; 0x201e <next_line+0x9>
    2539: 09 01        	ora	#$1
    253b: a0 1c        	ldy	#$1c
    253d: 91 02        	sta	($2),y                  ; 0x2002 <__heap_default_limit+0x1002>
    253f: a5 0a        	lda	$a                      ; 0x200a <__heap_default_limit+0x100a>
    2541: a4 16        	ldy	$16                     ; 0x2016 <next_line+0x1>
    2543: a6 1a        	ldx	$1a                     ; 0x201a <next_line+0x5>
    2545: e0 16        	cpx	#$16
    2547: d0 03        	bne	$254c <main+0x440>
    2549: 4c b3 27     	jmp	$27b3 <main+0x6a7>
    254c: 86 04        	stx	$4                      ; 0x2004 <__heap_default_limit+0x1004>
    254e: a5 1b        	lda	$1b                     ; 0x201b <next_line+0x6>
    2550: 18           	clc
    2551: 65 04        	adc	$4                      ; 0x2004 <__heap_default_limit+0x1004>
    2553: a2 01        	ldx	#$1
    2555: b0 02        	bcs	$2559 <main+0x44d>
    2557: a2 00        	ldx	#$0
    2559: 86 1e        	stx	$1e                     ; 0x201e <next_line+0x9>
    255b: 85 21        	sta	$21                     ; 0x2021 <_start>
    255d: aa           	tax
    255e: a5 20        	lda	$20                     ; 0x2020 <next_line+0xb>
    2560: a4 06        	ldy	$6                      ; 0x2006 <__heap_default_limit+0x1006>
    2562: 84 1c        	sty	$1c                     ; 0x201c <next_line+0x7>
    2564: a4 07        	ldy	$7                      ; 0x2007 <__heap_default_limit+0x1007>
    2566: 84 1d        	sty	$1d                     ; 0x201d <next_line+0x8>
    2568: 20 66 54     	jsr	$5466 <getdirententry>
    256b: a6 1c        	ldx	$1c                     ; 0x201c <next_line+0x7>
    256d: 86 06        	stx	$6                      ; 0x2006 <__heap_default_limit+0x1006>
    256f: a6 1d        	ldx	$1d                     ; 0x201d <next_line+0x8>
    2571: 86 07        	stx	$7                      ; 0x2007 <__heap_default_limit+0x1007>
    2573: a6 04        	ldx	$4                      ; 0x2004 <__heap_default_limit+0x1004>
    2575: 86 18        	stx	$18                     ; 0x2018 <next_line+0x3>
    2577: a6 05        	ldx	$5                      ; 0x2005 <__heap_default_limit+0x1005>
    2579: 86 19        	stx	$19                     ; 0x2019 <next_line+0x4>
    257b: a6 19        	ldx	$19                     ; 0x2019 <next_line+0x4>
    257d: e4 07        	cpx	$7                      ; 0x2007 <__heap_default_limit+0x1007>
    257f: d0 11        	bne	$2592 <main+0x486>
    2581: a6 18        	ldx	$18                     ; 0x2018 <next_line+0x3>
    2583: a4 16        	ldy	$16                     ; 0x2016 <next_line+0x1>
    2585: 5a           	phy
    2586: a0 1f        	ldy	#$1f
    2588: b1 02        	lda	($2),y                  ; 0x2002 <__heap_default_limit+0x1002>
    258a: 7a           	ply
    258b: e4 06        	cpx	$6                      ; 0x2006 <__heap_default_limit+0x1006>
    258d: d0 07        	bne	$2596 <main+0x48a>
    258f: 4c b1 27     	jmp	$27b1 <main+0x6a5>
    2592: a0 1f        	ldy	#$1f
    2594: b1 02        	lda	($2),y                  ; 0x2002 <__heap_default_limit+0x1002>
    2596: a6 1e        	ldx	$1e                     ; 0x201e <next_line+0x9>
    2598: e0 01        	cpx	#$1
    259a: 69 00        	adc	#$0
    259c: 85 1e        	sta	$1e                     ; 0x201e <next_line+0x9>
    259e: a2 00        	ldx	#$0
    25a0: e4 1e        	cpx	$1e                     ; 0x201e <next_line+0x9>
    25a2: d0 08        	bne	$25ac <main+0x4a0>
    25a4: a0 1b        	ldy	#$1b
    25a6: b1 02        	lda	($2),y                  ; 0x2002 <__heap_default_limit+0x1002>
    25a8: c5 21        	cmp	$21                     ; 0x2021 <_start>
    25aa: 80 02        	bra	$25ae <main+0x4a2>
    25ac: e4 1e        	cpx	$1e                     ; 0x201e <next_line+0x9>
    25ae: a4 16        	ldy	$16                     ; 0x2016 <next_line+0x1>
    25b0: b0 03        	bcs	$25b5 <main+0x4a9>
    25b2: 4c b1 27     	jmp	$27b1 <main+0x6a5>
    25b5: a5 1e        	lda	$1e                     ; 0x201e <next_line+0x9>
    25b7: d0 0f        	bne	$25c8 <main+0x4bc>
    25b9: a0 1d        	ldy	#$1d
    25bb: b1 02        	lda	($2),y                  ; 0x2002 <__heap_default_limit+0x1002>
    25bd: 85 04        	sta	$4                      ; 0x2004 <__heap_default_limit+0x1004>
    25bf: a6 21        	ldx	$21                     ; 0x2021 <_start>
    25c1: e4 04        	cpx	$4                      ; 0x2004 <__heap_default_limit+0x1004>
    25c3: d0 03        	bne	$25c8 <main+0x4bc>
    25c5: 4c eb 27     	jmp	$27eb <main+0x6df>
    25c8: a9 01        	lda	#$1
    25ca: 29 01        	and	#$1
    25cc: a2 20        	ldx	#$20
    25ce: a8           	tay
    25cf: d0 02        	bne	$25d3 <main+0x4c7>
    25d1: a2 3e        	ldx	#$3e
    25d3: 8e 06 7b     	stx	$7b06                   ; 0x7b06 <s>
    25d6: a2 20        	ldx	#$20
    25d8: 8e 07 7b     	stx	$7b07                   ; 0x7b07 <s+0x1>
    25db: a0 00        	ldy	#$0
    25dd: 80 04        	bra	$25e3 <main+0x4d7>
    25df: 99 08 7b     	sta	$7b08,y                 ; 0x7b08 <s+0x2>
    25e2: c8           	iny
    25e3: 84 06        	sty	$6                      ; 0x2006 <__heap_default_limit+0x1006>
    25e5: 98           	tya
    25e6: 18           	clc
    25e7: 65 18        	adc	$18                     ; 0x2018 <next_line+0x3>
    25e9: 85 04        	sta	$4                      ; 0x2004 <__heap_default_limit+0x1004>
    25eb: a5 19        	lda	$19                     ; 0x2019 <next_line+0x4>
    25ed: 69 00        	adc	#$0
    25ef: 85 05        	sta	$5                      ; 0x2005 <__heap_default_limit+0x1005>
    25f1: a0 05        	ldy	#$5
    25f3: b1 04        	lda	($4),y                  ; 0x2004 <__heap_default_limit+0x1004>
    25f5: c9 a0        	cmp	#$a0
    25f7: f0 0f        	beq	$2608 <main+0x4fc>
    25f9: aa           	tax
    25fa: f0 0c        	beq	$2608 <main+0x4fc>
    25fc: a4 06        	ldy	$6                      ; 0x2006 <__heap_default_limit+0x1006>
    25fe: c0 10        	cpy	#$10
    2600: d0 dd        	bne	$25df <main+0x4d3>
    2602: a2 10        	ldx	#$10
    2604: a9 12        	lda	#$12
    2606: 80 07        	bra	$260f <main+0x503>
    2608: 18           	clc
    2609: a6 06        	ldx	$6                      ; 0x2006 <__heap_default_limit+0x1006>
    260b: a5 06        	lda	$6                      ; 0x2006 <__heap_default_limit+0x1006>
    260d: 69 02        	adc	#$2
    260f: a8           	tay
    2610: 18           	clc
    2611: 69 10        	adc	#$10
    2613: 86 04        	stx	$4                      ; 0x2004 <__heap_default_limit+0x1004>
    2615: 38           	sec
    2616: e5 04        	sbc	$4                      ; 0x2004 <__heap_default_limit+0x1004>
    2618: 85 05        	sta	$5                      ; 0x2005 <__heap_default_limit+0x1005>
    261a: 18           	clc
    261b: 8a           	txa
    261c: 69 f0        	adc	#$f0
    261e: 85 04        	sta	$4                      ; 0x2004 <__heap_default_limit+0x1004>
    2620: 5a           	phy
    2621: fa           	plx
    2622: a5 05        	lda	$5                      ; 0x2005 <__heap_default_limit+0x1005>
    2624: 80 0c        	bra	$2632 <main+0x526>
    2626: c8           	iny
    2627: a9 20        	lda	#$20
    2629: 9d 06 7b     	sta	$7b06,x                 ; 0x7b06 <s>
    262c: a5 05        	lda	$5                      ; 0x2005 <__heap_default_limit+0x1005>
    262e: e6 04        	inc	$4                      ; 0x2004 <__heap_default_limit+0x1004>
    2630: 5a           	phy
    2631: fa           	plx
    2632: e6 04        	inc	$4                      ; 0x2004 <__heap_default_limit+0x1004>
    2634: c6 04        	dec	$4                      ; 0x2004 <__heap_default_limit+0x1004>
    2636: d0 ee        	bne	$2626 <main+0x51a>
    2638: aa           	tax
    2639: e8           	inx
    263a: a8           	tay
    263b: 85 04        	sta	$4                      ; 0x2004 <__heap_default_limit+0x1004>
    263d: a9 20        	lda	#$20
    263f: 99 06 7b     	sta	$7b06,y                 ; 0x7b06 <s>
    2642: a5 04        	lda	$4                      ; 0x2004 <__heap_default_limit+0x1004>
    2644: 18           	clc
    2645: 69 02        	adc	#$2
    2647: a8           	tay
    2648: a9 5d        	lda	#$5d
    264a: 9d 06 7b     	sta	$7b06,x                 ; 0x7b06 <s>
    264d: a5 04        	lda	$4                      ; 0x2004 <__heap_default_limit+0x1004>
    264f: 18           	clc
    2650: 69 03        	adc	#$3
    2652: 85 06        	sta	$6                      ; 0x2006 <__heap_default_limit+0x1006>
    2654: a9 20        	lda	#$20
    2656: 99 06 7b     	sta	$7b06,y                 ; 0x7b06 <s>
    2659: a0 02        	ldy	#$2
    265b: b1 18        	lda	($18),y                 ; 0x2018 <next_line+0x3>
    265d: aa           	tax
    265e: 29 40        	and	#$40
    2660: d0 2b        	bne	$268d <main+0x581>
    2662: 8a           	txa
    2663: 29 0f        	and	#$f
    2665: 85 07        	sta	$7                      ; 0x2007 <__heap_default_limit+0x1007>
    2667: a5 04        	lda	$4                      ; 0x2004 <__heap_default_limit+0x1004>
    2669: 18           	clc
    266a: 69 04        	adc	#$4
    266c: a8           	tay
    266d: a5 04        	lda	$4                      ; 0x2004 <__heap_default_limit+0x1004>
    266f: 18           	clc
    2670: 69 05        	adc	#$5
    2672: 85 04        	sta	$4                      ; 0x2004 <__heap_default_limit+0x1004>
    2674: a2 00        	ldx	#$0
    2676: a9 ff        	lda	#$ff
    2678: c6 07        	dec	$7                      ; 0x2007 <__heap_default_limit+0x1007>
    267a: c5 07        	cmp	$7                      ; 0x2007 <__heap_default_limit+0x1007>
    267c: d0 03        	bne	$2681 <main+0x575>
    267e: 4c f0 27     	jmp	$27f0 <main+0x6e4>
    2681: a5 07        	lda	$7                      ; 0x2007 <__heap_default_limit+0x1007>
    2683: e0 00        	cpx	#$0
    2685: f0 03        	beq	$268a <main+0x57e>
    2687: 4c fd 27     	jmp	$27fd <main+0x6f1>
    268a: 4c f4 27     	jmp	$27f4 <main+0x6e8>
    268d: 8a           	txa
    268e: 29 bf        	and	#$bf
    2690: a8           	tay
    2691: a5 04        	lda	$4                      ; 0x2004 <__heap_default_limit+0x1004>
    2693: 18           	clc
    2694: 69 04        	adc	#$4
    2696: 85 07        	sta	$7                      ; 0x2007 <__heap_default_limit+0x1007>
    2698: a5 04        	lda	$4                      ; 0x2004 <__heap_default_limit+0x1004>
    269a: 18           	clc
    269b: 69 05        	adc	#$5
    269d: aa           	tax
    269e: c0 10        	cpy	#$10
    26a0: f0 03        	beq	$26a5 <main+0x599>
    26a2: 4c 19 28     	jmp	$2819 <main+0x70d>
    26a5: 4c 06 28     	jmp	$2806 <main+0x6fa>
    26a8: a6 06        	ldx	$6                      ; 0x2006 <__heap_default_limit+0x1006>
    26aa: 9d 06 7b     	sta	$7b06,x                 ; 0x7b06 <s>
    26ad: a9 45        	lda	#$45
    26af: 99 06 7b     	sta	$7b06,y                 ; 0x7b06 <s>
    26b2: a9 4c        	lda	#$4c
    26b4: a6 04        	ldx	$4                      ; 0x2004 <__heap_default_limit+0x1004>
    26b6: 9d 06 7b     	sta	$7b06,x                 ; 0x7b06 <s>
    26b9: a5 05        	lda	$5                      ; 0x2005 <__heap_default_limit+0x1005>
    26bb: 18           	clc
    26bc: 69 06        	adc	#$6
    26be: aa           	tax
    26bf: a5 05        	lda	$5                      ; 0x2005 <__heap_default_limit+0x1005>
    26c1: 18           	clc
    26c2: 69 07        	adc	#$7
    26c4: a8           	tay
    26c5: a9 20        	lda	#$20
    26c7: 9d 06 7b     	sta	$7b06,x                 ; 0x7b06 <s>
    26ca: a5 05        	lda	$5                      ; 0x2005 <__heap_default_limit+0x1005>
    26cc: 18           	clc
    26cd: 69 08        	adc	#$8
    26cf: aa           	tax
    26d0: a9 5d        	lda	#$5d
    26d2: 99 06 7b     	sta	$7b06,y                 ; 0x7b06 <s>
    26d5: 18           	clc
    26d6: a5 05        	lda	$5                      ; 0x2005 <__heap_default_limit+0x1005>
    26d8: 69 09        	adc	#$9
    26da: a8           	tay
    26db: a9 20        	lda	#$20
    26dd: 9d 06 7b     	sta	$7b06,x                 ; 0x7b06 <s>
    26e0: 5a           	phy
    26e1: fa           	plx
    26e2: 9e 06 7b     	stz	$7b06,x                 ; 0x7b06 <s>
    26e5: a2 07        	ldx	#$7
    26e7: 86 04        	stx	$4                      ; 0x2004 <__heap_default_limit+0x1004>
    26e9: a9 01        	lda	#$1
    26eb: a4 1a        	ldy	$1a                     ; 0x201a <next_line+0x5>
    26ed: 48           	pha
    26ee: 5a           	phy
    26ef: a0 19        	ldy	#$19
    26f1: b1 02        	lda	($2),y                  ; 0x2002 <__heap_default_limit+0x1002>
    26f3: 85 06        	sta	$6                      ; 0x2006 <__heap_default_limit+0x1006>
    26f5: c8           	iny
    26f6: b1 02        	lda	($2),y                  ; 0x2002 <__heap_default_limit+0x1002>
    26f8: 7a           	ply
    26f9: 85 07        	sta	$7                      ; 0x2007 <__heap_default_limit+0x1007>
    26fb: 68           	pla
    26fc: 31 06        	and	($6),y                  ; 0x2006 <__heap_default_limit+0x1006>
    26fe: 29 01        	and	#$1
    2700: d0 0f        	bne	$2711 <main+0x605>
    2702: a0 02        	ldy	#$2
    2704: b1 18        	lda	($18),y                 ; 0x2018 <next_line+0x3>
    2706: d0 03        	bne	$270b <main+0x5ff>
    2708: 4c 37 28     	jmp	$2837 <main+0x72b>
    270b: a2 03        	ldx	#$3
    270d: 86 04        	stx	$4                      ; 0x2004 <__heap_default_limit+0x1004>
    270f: a4 1a        	ldy	$1a                     ; 0x201a <next_line+0x5>
    2711: a9 f0        	lda	#$f0
    2713: 25 2b        	and	$2b                     ; 0x202b <_start+0xa>
    2715: 05 04        	ora	$4                      ; 0x2004 <__heap_default_limit+0x1004>
    2717: a6 1e        	ldx	$1e                     ; 0x201e <next_line+0x9>
    2719: d0 13        	bne	$272e <main+0x622>
    271b: 48           	pha
    271c: 5a           	phy
    271d: a0 1d        	ldy	#$1d
    271f: b1 02        	lda	($2),y                  ; 0x2002 <__heap_default_limit+0x1002>
    2721: 7a           	ply
    2722: 85 04        	sta	$4                      ; 0x2004 <__heap_default_limit+0x1004>
    2724: 68           	pla
    2725: a6 21        	ldx	$21                     ; 0x2021 <_start>
    2727: e4 04        	cpx	$4                      ; 0x2004 <__heap_default_limit+0x1004>
    2729: d0 03        	bne	$272e <main+0x622>
    272b: 4c 28 28     	jmp	$2828 <main+0x71c>
    272e: 29 df        	and	#$df
    2730: 85 2b        	sta	$2b                     ; 0x202b <_start+0xa>
    2732: c8           	iny
    2733: a2 06        	ldx	#$6
    2735: 86 04        	stx	$4                      ; 0x2004 <__heap_default_limit+0x1004>
    2737: a2 7b        	ldx	#$7b
    2739: 86 05        	stx	$5                      ; 0x2005 <__heap_default_limit+0x1005>
    273b: 84 1a        	sty	$1a                     ; 0x201a <next_line+0x5>
    273d: 5a           	phy
    273e: fa           	plx
    273f: a0 1c        	ldy	#$1c
    2741: b1 02        	lda	($2),y                  ; 0x2002 <__heap_default_limit+0x1002>
    2743: 20 e9 67     	jsr	$67e9 <cputsxy>
    2746: a5 18        	lda	$18                     ; 0x2018 <next_line+0x3>
    2748: 18           	clc
    2749: 69 1e        	adc	#$1e
    274b: 85 04        	sta	$4                      ; 0x2004 <__heap_default_limit+0x1004>
    274d: a5 19        	lda	$19                     ; 0x2019 <next_line+0x4>
    274f: 69 00        	adc	#$0
    2751: 85 05        	sta	$5                      ; 0x2005 <__heap_default_limit+0x1005>
    2753: a0 1e        	ldy	#$1e
    2755: b1 18        	lda	($18),y                 ; 0x2018 <next_line+0x3>
    2757: 85 06        	sta	$6                      ; 0x2006 <__heap_default_limit+0x1006>
    2759: a0 01        	ldy	#$1
    275b: b1 04        	lda	($4),y                  ; 0x2004 <__heap_default_limit+0x1004>
    275d: d0 07        	bne	$2766 <main+0x65a>
    275f: a6 06        	ldx	$6                      ; 0x2006 <__heap_default_limit+0x1006>
    2761: d0 03        	bne	$2766 <main+0x65a>
    2763: 4c 54 30     	jmp	$3054 <donehypclosefile3+0x85>
    2766: a4 06        	ldy	$6                      ; 0x2006 <__heap_default_limit+0x1006>
    2768: 64 04        	stz	$4                      ; 0x2004 <__heap_default_limit+0x1004>
    276a: 64 05        	stz	$5                      ; 0x2005 <__heap_default_limit+0x1005>
    276c: a2 05        	ldx	#$5
    276e: 86 06        	stx	$6                      ; 0x2006 <__heap_default_limit+0x1006>
    2770: aa           	tax
    2771: 98           	tya
    2772: 20 5c 55     	jsr	$555c <csputdec>
    2775: a5 1e        	lda	$1e                     ; 0x201e <next_line+0x9>
    2777: d0 0f        	bne	$2788 <main+0x67c>
    2779: a0 1d        	ldy	#$1d
    277b: b1 02        	lda	($2),y                  ; 0x2002 <__heap_default_limit+0x1002>
    277d: 85 04        	sta	$4                      ; 0x2004 <__heap_default_limit+0x1004>
    277f: a6 21        	ldx	$21                     ; 0x2021 <_start>
    2781: e4 04        	cpx	$4                      ; 0x2004 <__heap_default_limit+0x1004>
    2783: d0 03        	bne	$2788 <main+0x67c>
    2785: 4c 32 28     	jmp	$2832 <main+0x726>
    2788: a9 01        	lda	#$1
    278a: 29 01        	and	#$1
    278c: 85 18        	sta	$18                     ; 0x2018 <next_line+0x3>
    278e: a9 20        	lda	#$20
    2790: 20 38 67     	jsr	$6738 <cputc>
    2793: a9 20        	lda	#$20
    2795: a6 18        	ldx	$18                     ; 0x2018 <next_line+0x3>
    2797: d0 02        	bne	$279b <main+0x68f>
    2799: a9 3c        	lda	#$3c
    279b: 20 38 67     	jsr	$6738 <cputc>
    279e: a9 f0        	lda	#$f0
    27a0: 25 2b        	and	$2b                     ; 0x202b <_start+0xa>
    27a2: 09 03        	ora	#$3
    27a4: 85 2b        	sta	$2b                     ; 0x202b <_start+0xa>
    27a6: a6 1c        	ldx	$1c                     ; 0x201c <next_line+0x7>
    27a8: 86 06        	stx	$6                      ; 0x2006 <__heap_default_limit+0x1006>
    27aa: a6 1d        	ldx	$1d                     ; 0x201d <next_line+0x8>
    27ac: 86 07        	stx	$7                      ; 0x2007 <__heap_default_limit+0x1007>
    27ae: 4c 41 25     	jmp	$2541 <main+0x435>
    27b1: a5 2b        	lda	$2b                     ; 0x202b <_start+0xa>
    27b3: 29 df        	and	#$df
    27b5: 85 2b        	sta	$2b                     ; 0x202b <_start+0xa>
    27b7: 18           	clc
    27b8: 5a           	phy
    27b9: a0 21        	ldy	#$21
    27bb: b1 02        	lda	($2),y                  ; 0x2002 <__heap_default_limit+0x1002>
    27bd: 69 02        	adc	#$2
    27bf: 91 02        	sta	($2),y                  ; 0x2002 <__heap_default_limit+0x1002>
    27c1: 18           	clc
    27c2: a0 23        	ldy	#$23
    27c4: b1 02        	lda	($2),y                  ; 0x2002 <__heap_default_limit+0x1002>
    27c6: 69 11        	adc	#$11
    27c8: 91 02        	sta	($2),y                  ; 0x2002 <__heap_default_limit+0x1002>
    27ca: 7a           	ply
    27cb: 84 04        	sty	$4                      ; 0x2004 <__heap_default_limit+0x1004>
    27cd: a9 c6        	lda	#$c6
    27cf: 18           	clc
    27d0: 65 04        	adc	$4                      ; 0x2004 <__heap_default_limit+0x1004>
    27d2: 85 18        	sta	$18                     ; 0x2018 <next_line+0x3>
    27d4: a9 7b        	lda	#$7b
    27d6: 69 00        	adc	#$0
    27d8: 85 19        	sta	$19                     ; 0x2019 <next_line+0x4>
    27da: a5 16        	lda	$16                     ; 0x2016 <next_line+0x1>
    27dc: 18           	clc
    27dd: 69 70        	adc	#$70
    27df: e6 20        	inc	$20                     ; 0x2020 <next_line+0xb>
    27e1: f0 03        	beq	$27e6 <main+0x6da>
    27e3: 4c 1a 23     	jmp	$231a <main+0x20e>
    27e6: e6 17        	inc	$17                     ; 0x2017 <next_line+0x2>
    27e8: 4c 1a 23     	jmp	$231a <main+0x20e>
    27eb: a9 00        	lda	#$0
    27ed: 4c ca 25     	jmp	$25ca <main+0x4be>
    27f0: ca           	dex
    27f1: 4c 81 26     	jmp	$2681 <main+0x575>
    27f4: c9 05        	cmp	#$5
    27f6: 90 09        	bcc	$2801 <main+0x6f5>
    27f8: a9 44        	lda	#$44
    27fa: 4c a8 26     	jmp	$26a8 <main+0x59c>
    27fd: e0 00        	cpx	#$0
    27ff: b0 f7        	bcs	$27f8 <main+0x6ec>
    2801: 0a           	asl
    2802: aa           	tax
    2803: 7c d8 6f     	jmp	($6fd8,x)               ; 0x6fd8 <__zp_data_load_start+0x4fc1>
    2806: a9 44        	lda	#$44
    2808: a4 06        	ldy	$6                      ; 0x2006 <__heap_default_limit+0x1006>
    280a: 99 06 7b     	sta	$7b06,y                 ; 0x7b06 <s>
    280d: a9 49        	lda	#$49
    280f: a4 07        	ldy	$7                      ; 0x2007 <__heap_default_limit+0x1007>
    2811: 99 06 7b     	sta	$7b06,y                 ; 0x7b06 <s>
    2814: a9 52        	lda	#$52
    2816: 4c b6 26     	jmp	$26b6 <main+0x5aa>
    2819: a9 20        	lda	#$20
    281b: a4 06        	ldy	$6                      ; 0x2006 <__heap_default_limit+0x1006>
    281d: 99 06 7b     	sta	$7b06,y                 ; 0x7b06 <s>
    2820: a4 07        	ldy	$7                      ; 0x2007 <__heap_default_limit+0x1007>
    2822: 99 06 7b     	sta	$7b06,y                 ; 0x7b06 <s>
    2825: 4c b6 26     	jmp	$26b6 <main+0x5aa>
    2828: a6 17        	ldx	$17                     ; 0x2017 <next_line+0x2>
    282a: f0 03        	beq	$282f <main+0x723>
    282c: 4c 2e 27     	jmp	$272e <main+0x622>
    282f: 4c 62 30     	jmp	$3062 <donehypclosefile3+0x93>
    2832: a9 00        	lda	#$0
    2834: 4c 8a 27     	jmp	$278a <main+0x67e>
    2837: a2 0c        	ldx	#$c
    2839: 4c 0d 27     	jmp	$270d <main+0x601>
    283c: a6 1e        	ldx	$1e                     ; 0x201e <next_line+0x9>
    283e: 86 05        	stx	$5                      ; 0x2005 <__heap_default_limit+0x1005>
    2840: a5 04        	lda	$4                      ; 0x2004 <__heap_default_limit+0x1004>
    2842: d0 03        	bne	$2847 <main+0x73b>
    2844: 4c 3b 2a     	jmp	$2a3b <main+0x92f>
    2847: a6 04        	ldx	$4                      ; 0x2004 <__heap_default_limit+0x1004>
    2849: 86 1f        	stx	$1f                     ; 0x201f <next_line+0xa>
    284b: a2 ff        	ldx	#$ff
    284d: c6 1e        	dec	$1e                     ; 0x201e <next_line+0x9>
    284f: e4 1e        	cpx	$1e                     ; 0x201e <next_line+0x9>
    2851: d0 02        	bne	$2855 <main+0x749>
    2853: c6 1f        	dec	$1f                     ; 0x201f <next_line+0xa>
    2855: a0 21        	ldy	#$21
    2857: b1 02        	lda	($2),y                  ; 0x2002 <__heap_default_limit+0x1002>
    2859: 38           	sec
    285a: e5 1a        	sbc	$1a                     ; 0x201a <next_line+0x5>
    285c: 85 06        	sta	$6                      ; 0x2006 <__heap_default_limit+0x1006>
    285e: a0 23        	ldy	#$23
    2860: b1 02        	lda	($2),y                  ; 0x2002 <__heap_default_limit+0x1002>
    2862: e5 17        	sbc	$17                     ; 0x2017 <next_line+0x2>
    2864: 85 07        	sta	$7                      ; 0x2007 <__heap_default_limit+0x1007>
    2866: a9 56        	lda	#$56
    2868: 18           	clc
    2869: 65 06        	adc	$6                      ; 0x2006 <__heap_default_limit+0x1006>
    286b: aa           	tax
    286c: a9 7b        	lda	#$7b
    286e: 65 07        	adc	$7                      ; 0x2007 <__heap_default_limit+0x1007>
    2870: a8           	tay
    2871: 8a           	txa
    2872: 18           	clc
    2873: 65 05        	adc	$5                      ; 0x2005 <__heap_default_limit+0x1005>
    2875: aa           	tax
    2876: 98           	tya
    2877: 65 04        	adc	$4                      ; 0x2004 <__heap_default_limit+0x1004>
    2879: 86 04        	stx	$4                      ; 0x2004 <__heap_default_limit+0x1004>
    287b: 85 05        	sta	$5                      ; 0x2005 <__heap_default_limit+0x1005>
    287d: a2 ff        	ldx	#$ff
    287f: c6 04        	dec	$4                      ; 0x2004 <__heap_default_limit+0x1004>
    2881: e4 04        	cpx	$4                      ; 0x2004 <__heap_default_limit+0x1004>
    2883: d0 02        	bne	$2887 <main+0x77b>
    2885: c6 05        	dec	$5                      ; 0x2005 <__heap_default_limit+0x1005>
    2887: a9 01        	lda	#$1
    2889: 32 04        	and	($4),z                  ; 0x2004 <__heap_default_limit+0x1004>
    288b: a6 1f        	ldx	$1f                     ; 0x201f <next_line+0xa>
    288d: 86 04        	stx	$4                      ; 0x2004 <__heap_default_limit+0x1004>
    288f: aa           	tax
    2890: d0 03        	bne	$2895 <main+0x789>
    2892: 4c 3c 28     	jmp	$283c <main+0x730>
    2895: a6 1e        	ldx	$1e                     ; 0x201e <next_line+0x9>
    2897: a0 18        	ldy	#$18
    2899: b1 02        	lda	($2),y                  ; 0x2002 <__heap_default_limit+0x1002>
    289b: 85 16        	sta	$16                     ; 0x2016 <next_line+0x1>
    289d: 20 66 54     	jsr	$5466 <getdirententry>
    28a0: a6 04        	ldx	$4                      ; 0x2004 <__heap_default_limit+0x1004>
    28a2: 86 18        	stx	$18                     ; 0x2018 <next_line+0x3>
    28a4: a6 05        	ldx	$5                      ; 0x2005 <__heap_default_limit+0x1005>
    28a6: 86 19        	stx	$19                     ; 0x2019 <next_line+0x4>
    28a8: a2 90        	ldx	#$90
    28aa: 86 04        	stx	$4                      ; 0x2004 <__heap_default_limit+0x1004>
    28ac: a2 79        	ldx	#$79
    28ae: 86 05        	stx	$5                      ; 0x2005 <__heap_default_limit+0x1005>
    28b0: a2 56        	ldx	#$56
    28b2: 86 06        	stx	$6                      ; 0x2006 <__heap_default_limit+0x1006>
    28b4: a2 73        	ldx	#$73
    28b6: 86 07        	stx	$7                      ; 0x2007 <__heap_default_limit+0x1007>
    28b8: a9 14        	lda	#$14
    28ba: 20 d7 59     	jsr	$59d7 <progress>
    28bd: a9 00        	lda	#$0
    28bf: a0 02        	ldy	#$2
    28c1: 64 1d        	stz	$1d                     ; 0x201d <next_line+0x8>
    28c3: 91 18        	sta	($18),y                 ; 0x2018 <next_line+0x3>
    28c5: a5 16        	lda	$16                     ; 0x2016 <next_line+0x1>
    28c7: 20 f0 4c     	jsr	$4cf0 <GetBAM>
    28ca: a2 dd        	ldx	#$dd
    28cc: 86 04        	stx	$4                      ; 0x2004 <__heap_default_limit+0x1004>
    28ce: a2 77        	ldx	#$77
    28d0: 86 05        	stx	$5                      ; 0x2005 <__heap_default_limit+0x1005>
    28d2: a2 40        	ldx	#$40
    28d4: 86 06        	stx	$6                      ; 0x2006 <__heap_default_limit+0x1006>
    28d6: a2 76        	ldx	#$76
    28d8: 86 07        	stx	$7                      ; 0x2007 <__heap_default_limit+0x1007>
    28da: a9 28        	lda	#$28
    28dc: 20 d7 59     	jsr	$59d7 <progress>
    28df: a0 1f        	ldy	#$1f
    28e1: b1 02        	lda	($2),y                  ; 0x2002 <__heap_default_limit+0x1002>
    28e3: 85 06        	sta	$6                      ; 0x2006 <__heap_default_limit+0x1006>
    28e5: c8           	iny
    28e6: b1 02        	lda	($2),y                  ; 0x2002 <__heap_default_limit+0x1002>
    28e8: 85 07        	sta	$7                      ; 0x2007 <__heap_default_limit+0x1007>
    28ea: b2 06        	lda	($6),z                  ; 0x2006 <__heap_default_limit+0x1006>
    28ec: 85 08        	sta	$8                      ; 0x2008 <__heap_default_limit+0x1008>
    28ee: a0 47        	ldy	#$47
    28f0: b1 06        	lda	($6),y                  ; 0x2006 <__heap_default_limit+0x1006>
    28f2: a2 03        	ldx	#$3
    28f4: 48           	pha
    28f5: 8a           	txa
    28f6: a0 1b        	ldy	#$1b
    28f8: 91 02        	sta	($2),y                  ; 0x2002 <__heap_default_limit+0x1002>
    28fa: a2 08        	ldx	#$8
    28fc: 8a           	txa
    28fd: a0 1d        	ldy	#$1d
    28ff: 91 02        	sta	($2),y                  ; 0x2002 <__heap_default_limit+0x1002>
    2901: 68           	pla
    2902: a0 00        	ldy	#$0
    2904: 5a           	phy
    2905: a0 14        	ldy	#$14
    2907: 91 02        	sta	($2),y                  ; 0x2002 <__heap_default_limit+0x1002>
    2909: a0 19        	ldy	#$19
    290b: 91 02        	sta	($2),y                  ; 0x2002 <__heap_default_limit+0x1002>
    290d: 7a           	ply
    290e: 64 1c        	stz	$1c                     ; 0x201c <next_line+0x7>
    2910: 64 19        	stz	$19                     ; 0x2019 <next_line+0x4>
    2912: 64 20        	stz	$20                     ; 0x2020 <next_line+0xb>
    2914: a2 00        	ldx	#$0
    2916: 4c ea 29     	jmp	$29ea <main+0x8de>
    2919: e4 1c        	cpx	$1c                     ; 0x201c <next_line+0x7>
    291b: 90 03        	bcc	$2920 <main+0x814>
    291d: 4c 00 2a     	jmp	$2a00 <main+0x8f4>
    2920: a5 08        	lda	$8                      ; 0x2008 <__heap_default_limit+0x1008>
    2922: 5a           	phy
    2923: a0 1c        	ldy	#$1c
    2925: 91 02        	sta	($2),y                  ; 0x2002 <__heap_default_limit+0x1002>
    2927: 7a           	ply
    2928: 84 04        	sty	$4                      ; 0x2004 <__heap_default_limit+0x1004>
    292a: 46 04        	lsr	$4                      ; 0x2004 <__heap_default_limit+0x1004>
    292c: a9 00        	lda	#$0
    292e: 6a           	ror
    292f: 46 04        	lsr	$4                      ; 0x2004 <__heap_default_limit+0x1004>
    2931: 6a           	ror
    2932: 84 13        	sty	$13                     ; 0x2013 <__heap_default_limit+0x1013>
    2934: 48           	pha
    2935: a5 04        	lda	$4                      ; 0x2004 <__heap_default_limit+0x1004>
    2937: a0 12        	ldy	#$12
    2939: 91 02        	sta	($2),y                  ; 0x2002 <__heap_default_limit+0x1002>
    293b: 68           	pla
    293c: 46 04        	lsr	$4                      ; 0x2004 <__heap_default_limit+0x1004>
    293e: a6 04        	ldx	$4                      ; 0x2004 <__heap_default_limit+0x1004>
    2940: 86 05        	stx	$5                      ; 0x2005 <__heap_default_limit+0x1005>
    2942: 6a           	ror
    2943: 85 04        	sta	$4                      ; 0x2004 <__heap_default_limit+0x1004>
    2945: a9 00        	lda	#$0
    2947: 18           	clc
    2948: 65 04        	adc	$4                      ; 0x2004 <__heap_default_limit+0x1004>
    294a: 85 0d        	sta	$d                      ; 0x200d <__heap_default_limit+0x100d>
    294c: a0 17        	ldy	#$17
    294e: b1 02        	lda	($2),y                  ; 0x2002 <__heap_default_limit+0x1002>
    2950: 85 04        	sta	$4                      ; 0x2004 <__heap_default_limit+0x1004>
    2952: a5 05        	lda	$5                      ; 0x2005 <__heap_default_limit+0x1005>
    2954: 65 04        	adc	$4                      ; 0x2004 <__heap_default_limit+0x1004>
    2956: 85 0c        	sta	$c                      ; 0x200c <__heap_default_limit+0x100c>
    2958: 88           	dey
    2959: b1 02        	lda	($2),y                  ; 0x2002 <__heap_default_limit+0x1002>
    295b: 69 00        	adc	#$0
    295d: aa           	tax
    295e: 88           	dey
    295f: b1 02        	lda	($2),y                  ; 0x2002 <__heap_default_limit+0x1002>
    2961: 69 00        	adc	#$0
    2963: 48           	pha
    2964: 8a           	txa
    2965: a0 11        	ldy	#$11
    2967: 91 02        	sta	($2),y                  ; 0x2002 <__heap_default_limit+0x1002>
    2969: a4 13        	ldy	$13                     ; 0x2013 <__heap_default_limit+0x1013>
    296b: 68           	pla
    296c: 86 04        	stx	$4                      ; 0x2004 <__heap_default_limit+0x1004>
    296e: 85 18        	sta	$18                     ; 0x2018 <next_line+0x3>
    2970: 85 05        	sta	$5                      ; 0x2005 <__heap_default_limit+0x1005>
    2972: a2 c0        	ldx	#$c0
    2974: 86 06        	stx	$6                      ; 0x2006 <__heap_default_limit+0x1006>
    2976: a2 1b        	ldx	#$1b
    2978: 86 07        	stx	$7                      ; 0x2007 <__heap_default_limit+0x1007>
    297a: 64 08        	stz	$8                      ; 0x2008 <__heap_default_limit+0x1008>
    297c: 64 09        	stz	$9                      ; 0x2009 <__heap_default_limit+0x1009>
    297e: a2 20        	ldx	#$20
    2980: 86 0a        	stx	$a                      ; 0x200a <__heap_default_limit+0x100a>
    2982: 64 0b        	stz	$b                      ; 0x200b <__heap_default_limit+0x100b>
    2984: a6 0c        	ldx	$c                      ; 0x200c <__heap_default_limit+0x100c>
    2986: 86 1b        	stx	$1b                     ; 0x201b <next_line+0x6>
    2988: a5 0d        	lda	$d                      ; 0x200d <__heap_default_limit+0x100d>
    298a: 85 21        	sta	$21                     ; 0x2021 <_start>
    298c: 84 16        	sty	$16                     ; 0x2016 <next_line+0x1>
    298e: 20 9e 69     	jsr	$699e <lcopy>
    2991: a4 16        	ldy	$16                     ; 0x2016 <next_line+0x1>
    2993: f0 14        	beq	$29a9 <main+0x89d>
    2995: 98           	tya
    2996: 29 07        	and	#$7
    2998: d0 0f        	bne	$29a9 <main+0x89d>
    299a: 5a           	phy
    299b: a5 19        	lda	$19                     ; 0x2019 <next_line+0x4>
    299d: a0 19        	ldy	#$19
    299f: 91 02        	sta	($2),y                  ; 0x2002 <__heap_default_limit+0x1002>
    29a1: a6 20        	ldx	$20                     ; 0x2020 <next_line+0xb>
    29a3: 8a           	txa
    29a4: a0 1b        	ldy	#$1b
    29a6: 91 02        	sta	($2),y                  ; 0x2002 <__heap_default_limit+0x1002>
    29a8: 7a           	ply
    29a9: ae c0 1b     	ldx	$1bc0                   ; 0x1bc0 <__heap_default_limit+0xbc0>
    29ac: f0 18        	beq	$29c6 <main+0x8ba>
    29ae: 18           	clc
    29af: 5a           	phy
    29b0: a0 1d        	ldy	#$1d
    29b2: b1 02        	lda	($2),y                  ; 0x2002 <__heap_default_limit+0x1002>
    29b4: 69 08        	adc	#$8
    29b6: 91 02        	sta	($2),y                  ; 0x2002 <__heap_default_limit+0x1002>
    29b8: 7a           	ply
    29b9: a5 1c        	lda	$1c                     ; 0x201c <next_line+0x7>
    29bb: 69 00        	adc	#$0
    29bd: 85 1c        	sta	$1c                     ; 0x201c <next_line+0x7>
    29bf: ad c1 1b     	lda	$1bc1                   ; 0x1bc1 <__heap_default_limit+0xbc1>
    29c2: 85 20        	sta	$20                     ; 0x2020 <next_line+0xb>
    29c4: 86 19        	stx	$19                     ; 0x2019 <next_line+0x4>
    29c6: ae c2 1b     	ldx	$1bc2                   ; 0x1bc2 <__heap_default_limit+0xbc2>
    29c9: 86 16        	stx	$16                     ; 0x2016 <next_line+0x1>
    29cb: d0 06        	bne	$29d3 <main+0x8c7>
    29cd: a9 01        	lda	#$1
    29cf: 25 2f        	and	$2f                     ; 0x202f <__do_init_stack>
    29d1: f0 0c        	beq	$29df <main+0x8d3>
    29d3: a6 1d        	ldx	$1d                     ; 0x201d <next_line+0x8>
    29d5: e4 1e        	cpx	$1e                     ; 0x201e <next_line+0x9>
    29d7: d0 03        	bne	$29dc <main+0x8d0>
    29d9: 4c 45 2a     	jmp	$2a45 <main+0x939>
    29dc: e8           	inx
    29dd: 86 1d        	stx	$1d                     ; 0x201d <next_line+0x8>
    29df: a2 00        	ldx	#$0
    29e1: c8           	iny
    29e2: 5a           	phy
    29e3: a0 1c        	ldy	#$1c
    29e5: b1 02        	lda	($2),y                  ; 0x2002 <__heap_default_limit+0x1002>
    29e7: 7a           	ply
    29e8: 85 08        	sta	$8                      ; 0x2008 <__heap_default_limit+0x1008>
    29ea: e4 1c        	cpx	$1c                     ; 0x201c <next_line+0x7>
    29ec: f0 03        	beq	$29f1 <main+0x8e5>
    29ee: 4c 19 29     	jmp	$2919 <main+0x80d>
    29f1: 5a           	phy
    29f2: a0 1d        	ldy	#$1d
    29f4: b1 02        	lda	($2),y                  ; 0x2002 <__heap_default_limit+0x1002>
    29f6: 7a           	ply
    29f7: 85 04        	sta	$4                      ; 0x2004 <__heap_default_limit+0x1004>
    29f9: c4 04        	cpy	$4                      ; 0x2004 <__heap_default_limit+0x1004>
    29fb: b0 03        	bcs	$2a00 <main+0x8f4>
    29fd: 4c 20 29     	jmp	$2920 <main+0x814>
    2a00: a2 dd        	ldx	#$dd
    2a02: 86 04        	stx	$4                      ; 0x2004 <__heap_default_limit+0x1004>
    2a04: a2 77        	ldx	#$77
    2a06: 86 05        	stx	$5                      ; 0x2005 <__heap_default_limit+0x1005>
    2a08: a2 e1        	ldx	#$e1
    2a0a: 86 06        	stx	$6                      ; 0x2006 <__heap_default_limit+0x1006>
    2a0c: a2 71        	ldx	#$71
    2a0e: 86 07        	stx	$7                      ; 0x2007 <__heap_default_limit+0x1007>
    2a10: a9 50        	lda	#$50
    2a12: 20 d7 59     	jsr	$59d7 <progress>
    2a15: a0 1f        	ldy	#$1f
    2a17: b1 02        	lda	($2),y                  ; 0x2002 <__heap_default_limit+0x1002>
    2a19: 85 06        	sta	$6                      ; 0x2006 <__heap_default_limit+0x1006>
    2a1b: c8           	iny
    2a1c: b1 02        	lda	($2),y                  ; 0x2002 <__heap_default_limit+0x1002>
    2a1e: 85 07        	sta	$7                      ; 0x2007 <__heap_default_limit+0x1007>
    2a20: b2 06        	lda	($6),z                  ; 0x2006 <__heap_default_limit+0x1006>
    2a22: 85 05        	sta	$5                      ; 0x2005 <__heap_default_limit+0x1005>
    2a24: a0 47        	ldy	#$47
    2a26: b1 06        	lda	($6),y                  ; 0x2006 <__heap_default_limit+0x1006>
    2a28: 85 04        	sta	$4                      ; 0x2004 <__heap_default_limit+0x1004>
    2a2a: a0 18        	ldy	#$18
    2a2c: b1 02        	lda	($2),y                  ; 0x2002 <__heap_default_limit+0x1002>
    2a2e: aa           	tax
    2a2f: a5 05        	lda	$5                      ; 0x2005 <__heap_default_limit+0x1005>
    2a31: 20 29 4d     	jsr	$4d29 <PutBAM>
    2a34: a6 1f        	ldx	$1f                     ; 0x201f <next_line+0xa>
    2a36: 86 04        	stx	$4                      ; 0x2004 <__heap_default_limit+0x1004>
    2a38: 4c 3c 28     	jmp	$283c <main+0x730>
    2a3b: a5 05        	lda	$5                      ; 0x2005 <__heap_default_limit+0x1005>
    2a3d: f0 03        	beq	$2a42 <main+0x936>
    2a3f: 4c 47 28     	jmp	$2847 <main+0x73b>
    2a42: 4c 4f 44     	jmp	$444f <donehypd81detach4+0x59>
    2a45: 9c c2 1b     	stz	$1bc2                   ; 0x1bc2 <__heap_default_limit+0xbc2>
    2a48: a6 21        	ldx	$21                     ; 0x2021 <_start>
    2a4a: 86 06        	stx	$6                      ; 0x2006 <__heap_default_limit+0x1006>
    2a4c: a6 1b        	ldx	$1b                     ; 0x201b <next_line+0x6>
    2a4e: 86 07        	stx	$7                      ; 0x2007 <__heap_default_limit+0x1007>
    2a50: 64 04        	stz	$4                      ; 0x2004 <__heap_default_limit+0x1004>
    2a52: 64 05        	stz	$5                      ; 0x2005 <__heap_default_limit+0x1005>
    2a54: a0 11        	ldy	#$11
    2a56: b1 02        	lda	($2),y                  ; 0x2002 <__heap_default_limit+0x1002>
    2a58: 85 08        	sta	$8                      ; 0x2008 <__heap_default_limit+0x1008>
    2a5a: a6 18        	ldx	$18                     ; 0x2018 <next_line+0x3>
    2a5c: 86 09        	stx	$9                      ; 0x2009 <__heap_default_limit+0x1009>
    2a5e: a2 20        	ldx	#$20
    2a60: 86 0a        	stx	$a                      ; 0x200a <__heap_default_limit+0x100a>
    2a62: 64 0b        	stz	$b                      ; 0x200b <__heap_default_limit+0x100b>
    2a64: a2 1b        	ldx	#$1b
    2a66: a9 c0        	lda	#$c0
    2a68: 20 9e 69     	jsr	$699e <lcopy>
    2a6b: a0 12        	ldy	#$12
    2a6d: b1 02        	lda	($2),y                  ; 0x2002 <__heap_default_limit+0x1002>
    2a6f: 4a           	lsr
    2a70: 18           	clc
    2a71: 48           	pha
    2a72: a0 10        	ldy	#$10
    2a74: b1 02        	lda	($2),y                  ; 0x2002 <__heap_default_limit+0x1002>
    2a76: 85 04        	sta	$4                      ; 0x2004 <__heap_default_limit+0x1004>
    2a78: 68           	pla
    2a79: 65 04        	adc	$4                      ; 0x2004 <__heap_default_limit+0x1004>
    2a7b: 85 0c        	sta	$c                      ; 0x200c <__heap_default_limit+0x100c>
    2a7d: 88           	dey
    2a7e: b1 02        	lda	($2),y                  ; 0x2002 <__heap_default_limit+0x1002>
    2a80: 85 04        	sta	$4                      ; 0x2004 <__heap_default_limit+0x1004>
    2a82: a9 00        	lda	#$0
    2a84: 65 04        	adc	$4                      ; 0x2004 <__heap_default_limit+0x1004>
    2a86: aa           	tax
    2a87: a9 00        	lda	#$0
    2a89: 48           	pha
    2a8a: 88           	dey
    2a8b: b1 02        	lda	($2),y                  ; 0x2002 <__heap_default_limit+0x1002>
    2a8d: 85 04        	sta	$4                      ; 0x2004 <__heap_default_limit+0x1004>
    2a8f: 68           	pla
    2a90: 65 04        	adc	$4                      ; 0x2004 <__heap_default_limit+0x1004>
    2a92: 86 04        	stx	$4                      ; 0x2004 <__heap_default_limit+0x1004>
    2a94: 85 05        	sta	$5                      ; 0x2005 <__heap_default_limit+0x1005>
    2a96: 64 06        	stz	$6                      ; 0x2006 <__heap_default_limit+0x1006>
    2a98: a2 19        	ldx	#$19
    2a9a: 86 07        	stx	$7                      ; 0x2007 <__heap_default_limit+0x1007>
    2a9c: 64 08        	stz	$8                      ; 0x2008 <__heap_default_limit+0x1008>
    2a9e: 64 09        	stz	$9                      ; 0x2009 <__heap_default_limit+0x1009>
    2aa0: 64 0a        	stz	$a                      ; 0x200a <__heap_default_limit+0x100a>
    2aa2: a2 01        	ldx	#$1
    2aa4: 86 0b        	stx	$b                      ; 0x200b <__heap_default_limit+0x100b>
    2aa6: a6 0c        	ldx	$c                      ; 0x200c <__heap_default_limit+0x100c>
    2aa8: a9 00        	lda	#$0
    2aaa: 20 9e 69     	jsr	$699e <lcopy>
    2aad: a2 00        	ldx	#$0
    2aaf: 86 04        	stx	$4                      ; 0x2004 <__heap_default_limit+0x1004>
    2ab1: a2 19        	ldx	#$19
    2ab3: 86 05        	stx	$5                      ; 0x2005 <__heap_default_limit+0x1005>
    2ab5: a0 1b        	ldy	#$1b
    2ab7: b1 02        	lda	($2),y                  ; 0x2002 <__heap_default_limit+0x1002>
    2ab9: 85 06        	sta	$6                      ; 0x2006 <__heap_default_limit+0x1006>
    2abb: a0 19        	ldy	#$19
    2abd: b1 02        	lda	($2),y                  ; 0x2002 <__heap_default_limit+0x1002>
    2abf: aa           	tax
    2ac0: a0 1c        	ldy	#$1c
    2ac2: b1 02        	lda	($2),y                  ; 0x2002 <__heap_default_limit+0x1002>
    2ac4: 85 18        	sta	$18                     ; 0x2018 <next_line+0x3>
    2ac6: 20 9f 4c     	jsr	$4c9f <PutOneSector>
    2ac9: a5 16        	lda	$16                     ; 0x2016 <next_line+0x1>
    2acb: 29 0f        	and	#$f
    2acd: c9 05        	cmp	#$5
    2acf: d0 06        	bne	$2ad7 <main+0x9cb>
    2ad1: a0 00        	ldy	#$0
    2ad3: 98           	tya
    2ad4: 4c f0 2b     	jmp	$2bf0 <main+0xae4>
    2ad7: ae c3 1b     	ldx	$1bc3                   ; 0x1bc3 <__heap_default_limit+0xbc3>
    2ada: 86 16        	stx	$16                     ; 0x2016 <next_line+0x1>
    2adc: ae c4 1b     	ldx	$1bc4                   ; 0x1bc4 <__heap_default_limit+0xbc4>
    2adf: 86 19        	stx	$19                     ; 0x2019 <next_line+0x4>
    2ae1: a2 00        	ldx	#$0
    2ae3: 86 04        	stx	$4                      ; 0x2004 <__heap_default_limit+0x1004>
    2ae5: a2 17        	ldx	#$17
    2ae7: 86 05        	stx	$5                      ; 0x2005 <__heap_default_limit+0x1005>
    2ae9: a2 01        	ldx	#$1
    2aeb: 86 06        	stx	$6                      ; 0x2006 <__heap_default_limit+0x1006>
    2aed: a0 14        	ldy	#$14
    2aef: b1 02        	lda	($2),y                  ; 0x2002 <__heap_default_limit+0x1002>
    2af1: aa           	tax
    2af2: a5 18        	lda	$18                     ; 0x2018 <next_line+0x3>
    2af4: 20 d8 4b     	jsr	$4bd8 <GetOneSector>
    2af7: c9 02        	cmp	#$2
    2af9: 90 03        	bcc	$2afe <main+0x9f2>
    2afb: 4c 00 2a     	jmp	$2a00 <main+0x8f4>
    2afe: ae 00 17     	ldx	$1700                   ; 0x1700 <__heap_default_limit+0x700>
    2b01: ac 01 17     	ldy	$1701                   ; 0x1701 <__heap_default_limit+0x701>
    2b04: a9 00        	lda	#$0
    2b06: 85 04        	sta	$4                      ; 0x2004 <__heap_default_limit+0x1004>
    2b08: a9 18        	lda	#$18
    2b0a: 85 05        	sta	$5                      ; 0x2005 <__heap_default_limit+0x1005>
    2b0c: 84 06        	sty	$6                      ; 0x2006 <__heap_default_limit+0x1006>
    2b0e: a0 1c        	ldy	#$1c
    2b10: b1 02        	lda	($2),y                  ; 0x2002 <__heap_default_limit+0x1002>
    2b12: 20 d8 4b     	jsr	$4bd8 <GetOneSector>
    2b15: c9 02        	cmp	#$2
    2b17: a0 1c        	ldy	#$1c
    2b19: b1 02        	lda	($2),y                  ; 0x2002 <__heap_default_limit+0x1002>
    2b1b: a8           	tay
    2b1c: 90 03        	bcc	$2b21 <main+0xa15>
    2b1e: 4c 00 2a     	jmp	$2a00 <main+0x8f4>
    2b21: a6 16        	ldx	$16                     ; 0x2016 <next_line+0x1>
    2b23: a5 19        	lda	$19                     ; 0x2019 <next_line+0x4>
    2b25: 4c 61 2b     	jmp	$2b61 <main+0xa55>
    2b28: a0 00        	ldy	#$0
    2b2a: 84 04        	sty	$4                      ; 0x2004 <__heap_default_limit+0x1004>
    2b2c: a0 19        	ldy	#$19
    2b2e: 84 05        	sty	$5                      ; 0x2005 <__heap_default_limit+0x1005>
    2b30: 85 06        	sta	$6                      ; 0x2006 <__heap_default_limit+0x1006>
    2b32: 86 16        	stx	$16                     ; 0x2016 <next_line+0x1>
    2b34: 85 18        	sta	$18                     ; 0x2018 <next_line+0x3>
    2b36: a0 1c        	ldy	#$1c
    2b38: b1 02        	lda	($2),y                  ; 0x2002 <__heap_default_limit+0x1002>
    2b3a: 20 d8 4b     	jsr	$4bd8 <GetOneSector>
    2b3d: a2 00        	ldx	#$0
    2b3f: 86 04        	stx	$4                      ; 0x2004 <__heap_default_limit+0x1004>
    2b41: a2 17        	ldx	#$17
    2b43: 86 05        	stx	$5                      ; 0x2005 <__heap_default_limit+0x1005>
    2b45: a2 00        	ldx	#$0
    2b47: 86 06        	stx	$6                      ; 0x2006 <__heap_default_limit+0x1006>
    2b49: a2 18        	ldx	#$18
    2b4b: 86 07        	stx	$7                      ; 0x2007 <__heap_default_limit+0x1007>
    2b4d: 64 08        	stz	$8                      ; 0x2008 <__heap_default_limit+0x1008>
    2b4f: a6 18        	ldx	$18                     ; 0x2018 <next_line+0x3>
    2b51: a5 16        	lda	$16                     ; 0x2016 <next_line+0x1>
    2b53: 20 1f 4e     	jsr	$4e1f <BAMSectorUpdate>
    2b56: a0 1c        	ldy	#$1c
    2b58: b1 02        	lda	($2),y                  ; 0x2002 <__heap_default_limit+0x1002>
    2b5a: a8           	tay
    2b5b: ae 00 19     	ldx	$1900                   ; 0x1900 <__heap_default_limit+0x900>
    2b5e: ad 01 19     	lda	$1901                   ; 0x1901 <__heap_default_limit+0x901>
    2b61: e0 00        	cpx	#$0
    2b63: f0 03        	beq	$2b68 <main+0xa5c>
    2b65: 4c 28 2b     	jmp	$2b28 <main+0xa1c>
    2b68: a2 00        	ldx	#$0
    2b6a: 86 04        	stx	$4                      ; 0x2004 <__heap_default_limit+0x1004>
    2b6c: a2 17        	ldx	#$17
    2b6e: 86 05        	stx	$5                      ; 0x2005 <__heap_default_limit+0x1005>
    2b70: a2 01        	ldx	#$1
    2b72: 86 06        	stx	$6                      ; 0x2006 <__heap_default_limit+0x1006>
    2b74: 5a           	phy
    2b75: a0 14        	ldy	#$14
    2b77: b1 02        	lda	($2),y                  ; 0x2002 <__heap_default_limit+0x1002>
    2b79: 7a           	ply
    2b7a: aa           	tax
    2b7b: 84 16        	sty	$16                     ; 0x2016 <next_line+0x1>
    2b7d: 98           	tya
    2b7e: 20 9f 4c     	jsr	$4c9f <PutOneSector>
    2b81: ae 00 17     	ldx	$1700                   ; 0x1700 <__heap_default_limit+0x700>
    2b84: ac 01 17     	ldy	$1701                   ; 0x1701 <__heap_default_limit+0x701>
    2b87: a9 00        	lda	#$0
    2b89: 85 04        	sta	$4                      ; 0x2004 <__heap_default_limit+0x1004>
    2b8b: a9 18        	lda	#$18
    2b8d: 85 05        	sta	$5                      ; 0x2005 <__heap_default_limit+0x1005>
    2b8f: 84 06        	sty	$6                      ; 0x2006 <__heap_default_limit+0x1006>
    2b91: a5 16        	lda	$16                     ; 0x2016 <next_line+0x1>
    2b93: 20 9f 4c     	jsr	$4c9f <PutOneSector>
    2b96: 4c 00 2a     	jmp	$2a00 <main+0x8f4>
    2b99: cd df 1b     	cmp	$1bdf                   ; 0x1bdf <__heap_default_limit+0xbdf>
    2b9c: 64 05        	stz	$5                      ; 0x2005 <__heap_default_limit+0x1005>
    2b9e: 90 03        	bcc	$2ba3 <main+0xa97>
    2ba0: 4c 00 2a     	jmp	$2a00 <main+0x8f4>
    2ba3: a2 28        	ldx	#$28
    2ba5: 86 04        	stx	$4                      ; 0x2004 <__heap_default_limit+0x1004>
    2ba7: aa           	tax
    2ba8: 84 16        	sty	$16                     ; 0x2016 <next_line+0x1>
    2baa: 85 18        	sta	$18                     ; 0x2018 <next_line+0x3>
    2bac: 98           	tya
    2bad: 20 80 6b     	jsr	$6b80 <__udivhi3>
    2bb0: aa           	tax
    2bb1: 0a           	asl
    2bb2: 0a           	asl
    2bb3: 0a           	asl
    2bb4: 85 04        	sta	$4                      ; 0x2004 <__heap_default_limit+0x1004>
    2bb6: 0a           	asl
    2bb7: 0a           	asl
    2bb8: 18           	clc
    2bb9: 65 04        	adc	$4                      ; 0x2004 <__heap_default_limit+0x1004>
    2bbb: 85 04        	sta	$4                      ; 0x2004 <__heap_default_limit+0x1004>
    2bbd: 38           	sec
    2bbe: a5 16        	lda	$16                     ; 0x2016 <next_line+0x1>
    2bc0: e5 04        	sbc	$4                      ; 0x2004 <__heap_default_limit+0x1004>
    2bc2: 85 04        	sta	$4                      ; 0x2004 <__heap_default_limit+0x1004>
    2bc4: 18           	clc
    2bc5: 8a           	txa
    2bc6: 6d c3 1b     	adc	$1bc3                   ; 0x1bc3 <__heap_default_limit+0xbc3>
    2bc9: a8           	tay
    2bca: 18           	clc
    2bcb: a5 04        	lda	$4                      ; 0x2004 <__heap_default_limit+0x1004>
    2bcd: 6d c4 1b     	adc	$1bc4                   ; 0x1bc4 <__heap_default_limit+0xbc4>
    2bd0: a2 00        	ldx	#$0
    2bd2: 86 04        	stx	$4                      ; 0x2004 <__heap_default_limit+0x1004>
    2bd4: a2 17        	ldx	#$17
    2bd6: 86 05        	stx	$5                      ; 0x2005 <__heap_default_limit+0x1005>
    2bd8: a2 00        	ldx	#$0
    2bda: 86 06        	stx	$6                      ; 0x2006 <__heap_default_limit+0x1006>
    2bdc: a2 18        	ldx	#$18
    2bde: 86 07        	stx	$7                      ; 0x2007 <__heap_default_limit+0x1007>
    2be0: 64 08        	stz	$8                      ; 0x2008 <__heap_default_limit+0x1008>
    2be2: aa           	tax
    2be3: 98           	tya
    2be4: 20 1f 4e     	jsr	$4e1f <BAMSectorUpdate>
    2be7: a4 16        	ldy	$16                     ; 0x2016 <next_line+0x1>
    2be9: a6 18        	ldx	$18                     ; 0x2018 <next_line+0x3>
    2beb: c8           	iny
    2bec: d0 01        	bne	$2bef <main+0xae3>
    2bee: e8           	inx
    2bef: 8a           	txa
    2bf0: cd df 1b     	cmp	$1bdf                   ; 0x1bdf <__heap_default_limit+0xbdf>
    2bf3: f0 03        	beq	$2bf8 <main+0xaec>
    2bf5: 4c 99 2b     	jmp	$2b99 <main+0xa8d>
    2bf8: ae de 1b     	ldx	$1bde                   ; 0x1bde <__heap_default_limit+0xbde>
    2bfb: 86 04        	stx	$4                      ; 0x2004 <__heap_default_limit+0x1004>
    2bfd: c4 04        	cpy	$4                      ; 0x2004 <__heap_default_limit+0x1004>
    2bff: 4c 9c 2b     	jmp	$2b9c <main+0xa90>
    2c02: a9 00        	lda	#$0
    2c04: 48           	pha
    2c05: a0 18        	ldy	#$18
    2c07: b1 02        	lda	($2),y                  ; 0x2002 <__heap_default_limit+0x1002>
    2c09: 85 1f        	sta	$1f                     ; 0x201f <next_line+0xa>
    2c0b: 68           	pla
    2c0c: a6 04        	ldx	$4                      ; 0x2004 <__heap_default_limit+0x1004>
    2c0e: 86 1d        	stx	$1d                     ; 0x201d <next_line+0x8>
    2c10: a6 1f        	ldx	$1f                     ; 0x201f <next_line+0xa>
    2c12: 20 d8 5a     	jsr	$5ad8 <shortcuts>
    2c15: a0 01        	ldy	#$1
    2c17: ae 10 d6     	ldx	$d610                   ; 0xd610 <__heap_start+0x567a>
    2c1a: d0 0b        	bne	$2c27 <main+0xb1b>
    2c1c: ad 11 d6     	lda	$d611                   ; 0xd611 <__heap_start+0x567b>
    2c1f: 85 04        	sta	$4                      ; 0x2004 <__heap_default_limit+0x1004>
    2c21: c5 1d        	cmp	$1d                     ; 0x201d <next_line+0x8>
    2c23: f0 f2        	beq	$2c17 <main+0xb0b>
    2c25: 80 e5        	bra	$2c0c <main+0xb00>
    2c27: 86 21        	stx	$21                     ; 0x2021 <_start>
    2c29: 8a           	txa
    2c2a: 38           	sec
    2c2b: e9 f1        	sbc	#$f1
    2c2d: aa           	tax
    2c2e: a5 1d        	lda	$1d                     ; 0x201d <next_line+0x8>
    2c30: 5a           	phy
    2c31: a0 01        	ldy	#$1
    2c33: b0 02        	bcs	$2c37 <main+0xb2b>
    2c35: a0 00        	ldy	#$0
    2c37: 84 08        	sty	$8                      ; 0x2008 <__heap_default_limit+0x1008>
    2c39: e9 00        	sbc	#$0
    2c3b: 85 09        	sta	$9                      ; 0x2009 <__heap_default_limit+0x1009>
    2c3d: a4 1f        	ldy	$1f                     ; 0x201f <next_line+0xa>
    2c3f: 84 1c        	sty	$1c                     ; 0x201c <next_line+0x7>
    2c41: 06 1c        	asl	$1c                     ; 0x201c <next_line+0x7>
    2c43: 64 1b        	stz	$1b                     ; 0x201b <next_line+0x6>
    2c45: 26 1b        	rol	$1b                     ; 0x201b <next_line+0x6>
    2c47: a0 01        	ldy	#$1
    2c49: b0 02        	bcs	$2c4d <main+0xb41>
    2c4b: a0 00        	ldy	#$0
    2c4d: 84 1e        	sty	$1e                     ; 0x201e <next_line+0x9>
    2c4f: a4 1c        	ldy	$1c                     ; 0x201c <next_line+0x7>
    2c51: 84 1a        	sty	$1a                     ; 0x201a <next_line+0x5>
    2c53: 06 1a        	asl	$1a                     ; 0x201a <next_line+0x5>
    2c55: a4 1b        	ldy	$1b                     ; 0x201b <next_line+0x6>
    2c57: 84 17        	sty	$17                     ; 0x2017 <next_line+0x2>
    2c59: 26 17        	rol	$17                     ; 0x2017 <next_line+0x2>
    2c5b: a0 01        	ldy	#$1
    2c5d: b0 02        	bcs	$2c61 <main+0xb55>
    2c5f: a0 00        	ldy	#$0
    2c61: 84 18        	sty	$18                     ; 0x2018 <next_line+0x3>
    2c63: 06 1a        	asl	$1a                     ; 0x201a <next_line+0x5>
    2c65: 26 17        	rol	$17                     ; 0x2017 <next_line+0x2>
    2c67: a0 01        	ldy	#$1
    2c69: b0 02        	bcs	$2c6d <main+0xb61>
    2c6b: a0 00        	ldy	#$0
    2c6d: 84 19        	sty	$19                     ; 0x2019 <next_line+0x4>
    2c6f: a4 1a        	ldy	$1a                     ; 0x201a <next_line+0x5>
    2c71: 84 16        	sty	$16                     ; 0x2016 <next_line+0x1>
    2c73: a4 17        	ldy	$17                     ; 0x2017 <next_line+0x2>
    2c75: 84 20        	sty	$20                     ; 0x2020 <next_line+0xb>
    2c77: 06 1a        	asl	$1a                     ; 0x201a <next_line+0x5>
    2c79: 26 17        	rol	$17                     ; 0x2017 <next_line+0x2>
    2c7b: a5 1a        	lda	$1a                     ; 0x201a <next_line+0x5>
    2c7d: a4 17        	ldy	$17                     ; 0x2017 <next_line+0x2>
    2c7f: 84 04        	sty	$4                      ; 0x2004 <__heap_default_limit+0x1004>
    2c81: 7a           	ply
    2c82: 0a           	asl
    2c83: 26 04        	rol	$4                      ; 0x2004 <__heap_default_limit+0x1004>
    2c85: 0a           	asl
    2c86: 26 04        	rol	$4                      ; 0x2004 <__heap_default_limit+0x1004>
    2c88: 0a           	asl
    2c89: 5a           	phy
    2c8a: a0 21        	ldy	#$21
    2c8c: 91 02        	sta	($2),y                  ; 0x2002 <__heap_default_limit+0x1002>
    2c8e: 26 04        	rol	$4                      ; 0x2004 <__heap_default_limit+0x1004>
    2c90: a5 04        	lda	$4                      ; 0x2004 <__heap_default_limit+0x1004>
    2c92: a0 23        	ldy	#$23
    2c94: 91 02        	sta	($2),y                  ; 0x2002 <__heap_default_limit+0x1002>
    2c96: 9c 10 d6     	stz	$d610                   ; 0xd610 <__heap_start+0x567a>
    2c99: 64 32        	stz	$32                     ; 0x2032 <__do_init_stack+0x3>
    2c9b: 64 33        	stz	$33                     ; 0x2033 <__do_init_stack+0x4>
    2c9d: 9c 20 d0     	stz	$d020                   ; 0xd020 <__heap_start+0x508a>
    2ca0: a5 1f        	lda	$1f                     ; 0x201f <next_line+0xa>
    2ca2: 49 01        	eor	#$1
    2ca4: a0 1f        	ldy	#$1f
    2ca6: 91 02        	sta	($2),y                  ; 0x2002 <__heap_default_limit+0x1002>
    2ca8: 7a           	ply
    2ca9: a5 09        	lda	$9                      ; 0x2009 <__heap_default_limit+0x1009>
    2cab: f0 03        	beq	$2cb0 <main+0xba4>
    2cad: 4c 5e 2e     	jmp	$2e5e <main+0xd52>
    2cb0: 8a           	txa
    2cb1: e0 19        	cpx	#$19
    2cb3: 90 03        	bcc	$2cb8 <main+0xbac>
    2cb5: 4c 68 2e     	jmp	$2e68 <main+0xd5c>
    2cb8: 0a           	asl
    2cb9: aa           	tax
    2cba: 7c ee 6f     	jmp	($6fee,x)               ; 0x6fee <__zp_data_load_start+0x4fd7>
    2cbd: a2 00        	ldx	#$0
    2cbf: a9 14        	lda	#$14
    2cc1: 20 d8 5a     	jsr	$5ad8 <shortcuts>
    2cc4: 64 16        	stz	$16                     ; 0x2016 <next_line+0x1>
    2cc6: 4c 0f 2d     	jmp	$2d0f <main+0xc03>
    2cc9: e6 16        	inc	$16                     ; 0x2016 <next_line+0x1>
    2ccb: 4c 0f 2d     	jmp	$2d0f <main+0xc03>
    2cce: 20 f1 66     	jsr	$66f1 <sidbong>
    2cd1: a2 27        	ldx	#$27
    2cd3: 86 04        	stx	$4                      ; 0x2004 <__heap_default_limit+0x1004>
    2cd5: a2 75        	ldx	#$75
    2cd7: 86 05        	stx	$5                      ; 0x2005 <__heap_default_limit+0x1005>
    2cd9: a2 16        	ldx	#$16
    2cdb: 86 06        	stx	$6                      ; 0x2006 <__heap_default_limit+0x1006>
    2cdd: a2 77        	ldx	#$77
    2cdf: 86 07        	stx	$7                      ; 0x2007 <__heap_default_limit+0x1007>
    2ce1: a2 c7        	ldx	#$c7
    2ce3: 86 08        	stx	$8                      ; 0x2008 <__heap_default_limit+0x1008>
    2ce5: a2 72        	ldx	#$72
    2ce7: 86 09        	stx	$9                      ; 0x2009 <__heap_default_limit+0x1009>
    2ce9: 64 0a        	stz	$a                      ; 0x200a <__heap_default_limit+0x100a>
    2ceb: 64 0b        	stz	$b                      ; 0x200b <__heap_default_limit+0x100b>
    2ced: 64 0c        	stz	$c                      ; 0x200c <__heap_default_limit+0x100c>
    2cef: a2 00        	ldx	#$0
    2cf1: 8a           	txa
    2cf2: 20 80 58     	jsr	$5880 <messagebox>
    2cf5: 80 18        	bra	$2d0f <main+0xc03>
    2cf7: 64 16        	stz	$16                     ; 0x2016 <next_line+0x1>
    2cf9: a5 17        	lda	$17                     ; 0x2017 <next_line+0x2>
    2cfb: f0 12        	beq	$2d0f <main+0xc03>
    2cfd: a6 17        	ldx	$17                     ; 0x2017 <next_line+0x2>
    2cff: ca           	dex
    2d00: 86 16        	stx	$16                     ; 0x2016 <next_line+0x1>
    2d02: 80 0b        	bra	$2d0f <main+0xc03>
    2d04: a6 16        	ldx	$16                     ; 0x2016 <next_line+0x1>
    2d06: a9 01        	lda	#$1
    2d08: 20 30 6b     	jsr	$6b30 <__ashlqi3>
    2d0b: 45 2f        	eor	$2f                     ; 0x202f <__do_init_stack>
    2d0d: 85 2f        	sta	$2f                     ; 0x202f <__do_init_stack>
    2d0f: a2 46        	ldx	#$46
    2d11: 86 04        	stx	$4                      ; 0x2004 <__heap_default_limit+0x1004>
    2d13: a2 14        	ldx	#$14
    2d15: 86 05        	stx	$5                      ; 0x2005 <__heap_default_limit+0x1005>
    2d17: a2 01        	ldx	#$1
    2d19: 86 06        	stx	$6                      ; 0x2006 <__heap_default_limit+0x1006>
    2d1b: a2 04        	ldx	#$4
    2d1d: a9 0a        	lda	#$a
    2d1f: 20 f5 56     	jsr	$56f5 <mcbox>
    2d22: a9 20        	lda	#$20
    2d24: 05 2b        	ora	$2b                     ; 0x202b <_start+0xa>
    2d26: 85 2b        	sta	$2b                     ; 0x202b <_start+0xa>
    2d28: a2 70        	ldx	#$70
    2d2a: 86 04        	stx	$4                      ; 0x2004 <__heap_default_limit+0x1004>
    2d2c: a2 71        	ldx	#$71
    2d2e: 86 05        	stx	$5                      ; 0x2005 <__heap_default_limit+0x1005>
    2d30: a2 04        	ldx	#$4
    2d32: a9 0e        	lda	#$e
    2d34: 20 df 56     	jsr	$56df <mcputsxy>
    2d37: a2 1f        	ldx	#$1f
    2d39: 86 04        	stx	$4                      ; 0x2004 <__heap_default_limit+0x1004>
    2d3b: a2 74        	ldx	#$74
    2d3d: 86 05        	stx	$5                      ; 0x2005 <__heap_default_limit+0x1005>
    2d3f: a2 04        	ldx	#$4
    2d41: a9 1f        	lda	#$1f
    2d43: 20 df 56     	jsr	$56df <mcputsxy>
    2d46: a2 e2        	ldx	#$e2
    2d48: 86 04        	stx	$4                      ; 0x2004 <__heap_default_limit+0x1004>
    2d4a: a2 74        	ldx	#$74
    2d4c: 86 05        	stx	$5                      ; 0x2005 <__heap_default_limit+0x1005>
    2d4e: a2 04        	ldx	#$4
    2d50: a9 28        	lda	#$28
    2d52: 20 df 56     	jsr	$56df <mcputsxy>
    2d55: a9 df        	lda	#$df
    2d57: 25 2b        	and	$2b                     ; 0x202b <_start+0xa>
    2d59: 85 2b        	sta	$2b                     ; 0x202b <_start+0xa>
    2d5b: a2 27        	ldx	#$27
    2d5d: 86 04        	stx	$4                      ; 0x2004 <__heap_default_limit+0x1004>
    2d5f: a2 74        	ldx	#$74
    2d61: 86 05        	stx	$5                      ; 0x2005 <__heap_default_limit+0x1005>
    2d63: a2 10        	ldx	#$10
    2d65: a9 17        	lda	#$17
    2d67: 20 df 56     	jsr	$56df <mcputsxy>
    2d6a: a9 20        	lda	#$20
    2d6c: 05 2b        	ora	$2b                     ; 0x202b <_start+0xa>
    2d6e: 85 2b        	sta	$2b                     ; 0x202b <_start+0xa>
    2d70: a2 88        	ldx	#$88
    2d72: 86 04        	stx	$4                      ; 0x2004 <__heap_default_limit+0x1004>
    2d74: a2 73        	ldx	#$73
    2d76: 86 05        	stx	$5                      ; 0x2005 <__heap_default_limit+0x1005>
    2d78: a2 12        	ldx	#$12
    2d7a: a9 24        	lda	#$24
    2d7c: 20 df 56     	jsr	$56df <mcputsxy>
    2d7f: a9 df        	lda	#$df
    2d81: 25 2b        	and	$2b                     ; 0x202b <_start+0xa>
    2d83: 85 2b        	sta	$2b                     ; 0x202b <_start+0xa>
    2d85: a6 16        	ldx	$16                     ; 0x2016 <next_line+0x1>
    2d87: e0 05        	cpx	#$5
    2d89: 90 02        	bcc	$2d8d <main+0xc81>
    2d8b: a2 04        	ldx	#$4
    2d8d: a5 2f        	lda	$2f                     ; 0x202f <__do_init_stack>
    2d8f: a0 e3        	ldy	#$e3
    2d91: 84 04        	sty	$4                      ; 0x2004 <__heap_default_limit+0x1004>
    2d93: a0 72        	ldy	#$72
    2d95: 84 05        	sty	$5                      ; 0x2005 <__heap_default_limit+0x1005>
    2d97: 86 06        	stx	$6                      ; 0x2006 <__heap_default_limit+0x1006>
    2d99: 64 07        	stz	$7                      ; 0x2007 <__heap_default_limit+0x1007>
    2d9b: 86 16        	stx	$16                     ; 0x2016 <next_line+0x1>
    2d9d: a2 01        	ldx	#$1
    2d9f: 20 60 5e     	jsr	$5e60 <optionstring>
    2da2: a5 2f        	lda	$2f                     ; 0x202f <__do_init_stack>
    2da4: a2 ef        	ldx	#$ef
    2da6: 86 04        	stx	$4                      ; 0x2004 <__heap_default_limit+0x1004>
    2da8: a2 77        	ldx	#$77
    2daa: 86 05        	stx	$5                      ; 0x2005 <__heap_default_limit+0x1005>
    2dac: a6 16        	ldx	$16                     ; 0x2016 <next_line+0x1>
    2dae: 86 06        	stx	$6                      ; 0x2006 <__heap_default_limit+0x1006>
    2db0: a2 01        	ldx	#$1
    2db2: 86 07        	stx	$7                      ; 0x2007 <__heap_default_limit+0x1007>
    2db4: e8           	inx
    2db5: 20 60 5e     	jsr	$5e60 <optionstring>
    2db8: a5 2f        	lda	$2f                     ; 0x202f <__do_init_stack>
    2dba: a2 e0        	ldx	#$e0
    2dbc: 86 04        	stx	$4                      ; 0x2004 <__heap_default_limit+0x1004>
    2dbe: a2 70        	ldx	#$70
    2dc0: 86 05        	stx	$5                      ; 0x2005 <__heap_default_limit+0x1005>
    2dc2: a6 16        	ldx	$16                     ; 0x2016 <next_line+0x1>
    2dc4: 86 06        	stx	$6                      ; 0x2006 <__heap_default_limit+0x1006>
    2dc6: a2 02        	ldx	#$2
    2dc8: 86 07        	stx	$7                      ; 0x2007 <__heap_default_limit+0x1007>
    2dca: a2 04        	ldx	#$4
    2dcc: 20 60 5e     	jsr	$5e60 <optionstring>
    2dcf: a5 2f        	lda	$2f                     ; 0x202f <__do_init_stack>
    2dd1: a2 a9        	ldx	#$a9
    2dd3: 86 04        	stx	$4                      ; 0x2004 <__heap_default_limit+0x1004>
    2dd5: a2 72        	ldx	#$72
    2dd7: 86 05        	stx	$5                      ; 0x2005 <__heap_default_limit+0x1005>
    2dd9: 48           	pha
    2dda: a5 04        	lda	$4                      ; 0x2004 <__heap_default_limit+0x1004>
    2ddc: a0 23        	ldy	#$23
    2dde: 91 02        	sta	($2),y                  ; 0x2002 <__heap_default_limit+0x1002>
    2de0: a5 05        	lda	$5                      ; 0x2005 <__heap_default_limit+0x1005>
    2de2: c8           	iny
    2de3: 91 02        	sta	($2),y                  ; 0x2002 <__heap_default_limit+0x1002>
    2de5: 88           	dey
    2de6: b1 02        	lda	($2),y                  ; 0x2002 <__heap_default_limit+0x1002>
    2de8: 85 04        	sta	$4                      ; 0x2004 <__heap_default_limit+0x1004>
    2dea: c8           	iny
    2deb: b1 02        	lda	($2),y                  ; 0x2002 <__heap_default_limit+0x1002>
    2ded: 85 05        	sta	$5                      ; 0x2005 <__heap_default_limit+0x1005>
    2def: 68           	pla
    2df0: a6 16        	ldx	$16                     ; 0x2016 <next_line+0x1>
    2df2: 86 06        	stx	$6                      ; 0x2006 <__heap_default_limit+0x1006>
    2df4: a2 03        	ldx	#$3
    2df6: 86 07        	stx	$7                      ; 0x2007 <__heap_default_limit+0x1007>
    2df8: a2 08        	ldx	#$8
    2dfa: 20 60 5e     	jsr	$5e60 <optionstring>
    2dfd: a5 2f        	lda	$2f                     ; 0x202f <__do_init_stack>
    2dff: 48           	pha
    2e00: a0 23        	ldy	#$23
    2e02: b1 02        	lda	($2),y                  ; 0x2002 <__heap_default_limit+0x1002>
    2e04: 85 04        	sta	$4                      ; 0x2004 <__heap_default_limit+0x1004>
    2e06: c8           	iny
    2e07: b1 02        	lda	($2),y                  ; 0x2002 <__heap_default_limit+0x1002>
    2e09: 85 05        	sta	$5                      ; 0x2005 <__heap_default_limit+0x1005>
    2e0b: 68           	pla
    2e0c: a6 16        	ldx	$16                     ; 0x2016 <next_line+0x1>
    2e0e: 86 17        	stx	$17                     ; 0x2017 <next_line+0x2>
    2e10: a6 16        	ldx	$16                     ; 0x2016 <next_line+0x1>
    2e12: 86 06        	stx	$6                      ; 0x2006 <__heap_default_limit+0x1006>
    2e14: a2 04        	ldx	#$4
    2e16: 86 07        	stx	$7                      ; 0x2007 <__heap_default_limit+0x1007>
    2e18: a2 10        	ldx	#$10
    2e1a: 20 60 5e     	jsr	$5e60 <optionstring>
    2e1d: 20 6e 69     	jsr	$696e <cgetc>
    2e20: c9 91        	cmp	#$91
    2e22: d0 03        	bne	$2e27 <main+0xd1b>
    2e24: 4c f7 2c     	jmp	$2cf7 <main+0xbeb>
    2e27: c9 9d        	cmp	#$9d
    2e29: d0 03        	bne	$2e2e <main+0xd22>
    2e2b: 4c f7 2c     	jmp	$2cf7 <main+0xbeb>
    2e2e: c9 03        	cmp	#$3
    2e30: d0 03        	bne	$2e35 <main+0xd29>
    2e32: 4c ce 2c     	jmp	$2cce <main+0xbc2>
    2e35: c9 11        	cmp	#$11
    2e37: d0 03        	bne	$2e3c <main+0xd30>
    2e39: 4c c9 2c     	jmp	$2cc9 <main+0xbbd>
    2e3c: c9 1b        	cmp	#$1b
    2e3e: d0 03        	bne	$2e43 <main+0xd37>
    2e40: 4c ce 2c     	jmp	$2cce <main+0xbc2>
    2e43: c9 1d        	cmp	#$1d
    2e45: d0 03        	bne	$2e4a <main+0xd3e>
    2e47: 4c c9 2c     	jmp	$2cc9 <main+0xbbd>
    2e4a: c9 20        	cmp	#$20
    2e4c: d0 03        	bne	$2e51 <main+0xd45>
    2e4e: 4c 04 2d     	jmp	$2d04 <main+0xbf8>
    2e51: c9 0d        	cmp	#$d
    2e53: d0 03        	bne	$2e58 <main+0xd4c>
    2e55: 4c ff 35     	jmp	$35ff <donehypclosefile3+0x630>
    2e58: 20 f1 66     	jsr	$66f1 <sidbong>
    2e5b: 4c 0f 2d     	jmp	$2d0f <main+0xc03>
    2e5e: a5 09        	lda	$9                      ; 0x2009 <__heap_default_limit+0x1009>
    2e60: c9 00        	cmp	#$0
    2e62: 8a           	txa
    2e63: b0 03        	bcs	$2e68 <main+0xd5c>
    2e65: 4c b8 2c     	jmp	$2cb8 <main+0xbac>
    2e68: a5 1d        	lda	$1d                     ; 0x201d <next_line+0x8>
    2e6a: 5a           	phy
    2e6b: a4 08        	ldy	$8                      ; 0x2008 <__heap_default_limit+0x1008>
    2e6d: c0 01        	cpy	#$1
    2e6f: 7a           	ply
    2e70: e9 01        	sbc	#$1
    2e72: f0 03        	beq	$2e77 <main+0xd6b>
    2e74: 4c f7 2e     	jmp	$2ef7 <main+0xdeb>
    2e77: e0 0a        	cpx	#$a
    2e79: b0 03        	bcs	$2e7e <main+0xd72>
    2e7b: 4c fe 2e     	jmp	$2efe <main+0xdf2>
    2e7e: a5 1d        	lda	$1d                     ; 0x201d <next_line+0x8>
    2e80: 5a           	phy
    2e81: a4 08        	ldy	$8                      ; 0x2008 <__heap_default_limit+0x1008>
    2e83: c0 01        	cpy	#$1
    2e85: 7a           	ply
    2e86: e9 02        	sbc	#$2
    2e88: f0 03        	beq	$2e8d <main+0xd81>
    2e8a: 4c 7a 30     	jmp	$307a <donehypclosefile3+0xab>
    2e8d: 8a           	txa
    2e8e: e0 0a        	cpx	#$a
    2e90: b0 03        	bcs	$2e95 <main+0xd89>
    2e92: 4c 82 30     	jmp	$3082 <donehypclosefile3+0xb3>
    2e95: a5 21        	lda	$21                     ; 0x2021 <_start>
    2e97: 38           	sec
    2e98: e9 1b        	sbc	#$1b
    2e9a: aa           	tax
    2e9b: a5 1d        	lda	$1d                     ; 0x201d <next_line+0x8>
    2e9d: e9 00        	sbc	#$0
    2e9f: f0 03        	beq	$2ea4 <main+0xd98>
    2ea1: 4c 1d 32     	jmp	$321d <donehypclosefile3+0x24e>
    2ea4: 8a           	txa
    2ea5: e0 06        	cpx	#$6
    2ea7: b0 03        	bcs	$2eac <main+0xda0>
    2ea9: 4c 25 32     	jmp	$3225 <donehypclosefile3+0x256>
    2eac: a5 21        	lda	$21                     ; 0x2021 <_start>
    2eae: 38           	sec
    2eaf: e9 f2        	sbc	#$f2
    2eb1: aa           	tax
    2eb2: a5 1d        	lda	$1d                     ; 0x201d <next_line+0x8>
    2eb4: e9 08        	sbc	#$8
    2eb6: f0 03        	beq	$2ebb <main+0xdaf>
    2eb8: 4c f9 36     	jmp	$36f9 <donehypclosefile3+0x72a>
    2ebb: 8a           	txa
    2ebc: e0 07        	cpx	#$7
    2ebe: b0 03        	bcs	$2ec3 <main+0xdb7>
    2ec0: 4c 01 37     	jmp	$3701 <donehypclosefile3+0x732>
    2ec3: a5 1d        	lda	$1d                     ; 0x201d <next_line+0x8>
    2ec5: d0 09        	bne	$2ed0 <main+0xdc4>
    2ec7: a6 21        	ldx	$21                     ; 0x2021 <_start>
    2ec9: e0 03        	cpx	#$3
    2ecb: d0 03        	bne	$2ed0 <main+0xdc4>
    2ecd: 4c 2a 32     	jmp	$322a <donehypclosefile3+0x25b>
    2ed0: a5 1d        	lda	$1d                     ; 0x201d <next_line+0x8>
    2ed2: d0 09        	bne	$2edd <main+0xdd1>
    2ed4: a6 21        	ldx	$21                     ; 0x2021 <_start>
    2ed6: e0 09        	cpx	#$9
    2ed8: d0 03        	bne	$2edd <main+0xdd1>
    2eda: 4c d7 3f     	jmp	$3fd7 <donehypclosefile3+0x1008>
    2edd: a6 21        	ldx	$21                     ; 0x2021 <_start>
    2edf: a5 1d        	lda	$1d                     ; 0x201d <next_line+0x8>
    2ee1: d0 03        	bne	$2ee6 <main+0xdda>
    2ee3: 4c de 3f     	jmp	$3fde <donehypclosefile3+0x100f>
    2ee6: a5 1d        	lda	$1d                     ; 0x201d <next_line+0x8>
    2ee8: d0 03        	bne	$2eed <main+0xde1>
    2eea: 4c b3 42     	jmp	$42b3 <donehypclosefile3+0x12e4>
    2eed: a5 1d        	lda	$1d                     ; 0x201d <next_line+0x8>
    2eef: f0 03        	beq	$2ef4 <main+0xde8>
    2ef1: 4c 52 43     	jmp	$4352 <donehypclosefile3+0x1383>
    2ef4: 4c 4b 43     	jmp	$434b <donehypclosefile3+0x137c>
    2ef7: c9 00        	cmp	#$0
    2ef9: 90 03        	bcc	$2efe <main+0xdf2>
    2efb: 4c 7e 2e     	jmp	$2e7e <main+0xd72>
    2efe: 8a           	txa
    2eff: 0a           	asl
    2f00: aa           	tax
    2f01: 7c 20 70     	jmp	($7020,x)               ; 0x7020 <__zp_data_load_start+0x5009>
    2f04: 84 17        	sty	$17                     ; 0x2017 <next_line+0x2>
    2f06: a0 00        	ldy	#$0
    2f08: 84 18        	sty	$18                     ; 0x2018 <next_line+0x3>
    2f0a: a0 1c        	ldy	#$1c
    2f0c: 84 19        	sty	$19                     ; 0x2019 <next_line+0x4>
    2f0e: a0 00        	ldy	#$0
    2f10: 84 04        	sty	$4                      ; 0x2004 <__heap_default_limit+0x1004>
    2f12: a0 1c        	ldy	#$1c
    2f14: 84 05        	sty	$5                      ; 0x2005 <__heap_default_limit+0x1005>
    2f16: a0 2a        	ldy	#$2a
    2f18: 84 06        	sty	$6                      ; 0x2006 <__heap_default_limit+0x1006>
    2f1a: a0 78        	ldy	#$78
    2f1c: 84 07        	sty	$7                      ; 0x2007 <__heap_default_limit+0x1007>
    2f1e: a9 0b        	lda	#$b
    2f20: 20 8c 6f     	jsr	$6f8c <memcpy>
    2f23: a2 0a        	ldx	#$a
    2f25: 8a           	txa
    2f26: a0 23        	ldy	#$23
    2f28: 91 02        	sta	($2),y                  ; 0x2002 <__heap_default_limit+0x1002>
    2f2a: a2 00        	ldx	#$0
    2f2c: 86 04        	stx	$4                      ; 0x2004 <__heap_default_limit+0x1004>
    2f2e: a2 1c        	ldx	#$1c
    2f30: 86 05        	stx	$5                      ; 0x2005 <__heap_default_limit+0x1005>
    2f32: 20 6c 48     	jsr	$486c <hyppo_setname>
    2f35: 18           	clc
    2f36: a0 23        	ldy	#$23
    2f38: b1 02        	lda	($2),y                  ; 0x2002 <__heap_default_limit+0x1002>
    2f3a: 69 06        	adc	#$6
    2f3c: a2 00        	ldx	#$0
    2f3e: 86 04        	stx	$4                      ; 0x2004 <__heap_default_limit+0x1004>
    2f40: a2 1c        	ldx	#$1c
    2f42: 86 05        	stx	$5                      ; 0x2005 <__heap_default_limit+0x1005>
    2f44: 85 16        	sta	$16                     ; 0x2016 <next_line+0x1>
    2f46: aa           	tax
    2f47: a9 11        	lda	#$11
    2f49: 20 df 56     	jsr	$56df <mcputsxy>
    2f4c: a2 00        	ldx	#$0
    2f4e: a9 30        	lda	#$30
    2f50: 8d 40 d6     	sta	$d640                   ; 0xd640 <__heap_start+0x56aa>
    2f53: b8           	clv
    2f54: 90 05        	bcc	$2f5b <errhypfindfirst0>
    2f56: 85 04        	sta	$4                      ; 0x2004 <__heap_default_limit+0x1004>
    2f58: 4c 5d 2f     	jmp	$2f5d <donehypfindfirst0>

00002f5b <errhypfindfirst0>:
    2f5b: 85 04        	sta	$4                      ; 0x2004 <__heap_default_limit+0x1004>

00002f5d <donehypfindfirst0>:
    2f5d: ea           	nop
    2f5e: a6 04        	ldx	$4                      ; 0x2004 <__heap_default_limit+0x1004>
    2f60: a0 57        	ldy	#$57
    2f62: 84 04        	sty	$4                      ; 0x2004 <__heap_default_limit+0x1004>
    2f64: a0 78        	ldy	#$78
    2f66: 84 05        	sty	$5                      ; 0x2005 <__heap_default_limit+0x1005>
    2f68: e0 88        	cpx	#$88
    2f6a: d0 03        	bne	$2f6f <donehypfindfirst0+0x12>
    2f6c: 4c 0a 30     	jmp	$300a <donehypclosefile3+0x3b>
    2f6f: a9 18        	lda	#$18
    2f71: 8d 40 d6     	sta	$d640                   ; 0xd640 <__heap_start+0x56aa>
    2f74: b8           	clv
    2f75: 90 05        	bcc	$2f7c <errhypopenfile1>
    2f77: 85 04        	sta	$4                      ; 0x2004 <__heap_default_limit+0x1004>
    2f79: 4c 7e 2f     	jmp	$2f7e <donehypopenfile1>

00002f7c <errhypopenfile1>:
    2f7c: 85 04        	sta	$4                      ; 0x2004 <__heap_default_limit+0x1004>

00002f7e <donehypopenfile1>:
    2f7e: ea           	nop
    2f7f: a6 04        	ldx	$4                      ; 0x2004 <__heap_default_limit+0x1004>
    2f81: e0 84        	cpx	#$84
    2f83: f0 0d        	beq	$2f92 <donehypopenfile1+0x14>
    2f85: e0 86        	cpx	#$86
    2f87: d0 12        	bne	$2f9b <donehypopenfile1+0x1d>
    2f89: a2 85        	ldx	#$85
    2f8b: 86 04        	stx	$4                      ; 0x2004 <__heap_default_limit+0x1004>
    2f8d: a2 77        	ldx	#$77
    2f8f: 4c 08 30     	jmp	$3008 <donehypclosefile3+0x39>
    2f92: a2 35        	ldx	#$35
    2f94: 86 04        	stx	$4                      ; 0x2004 <__heap_default_limit+0x1004>
    2f96: a2 78        	ldx	#$78
    2f98: 4c 08 30     	jmp	$3008 <donehypclosefile3+0x39>
    2f9b: a9 1a        	lda	#$1a
    2f9d: 8d 40 d6     	sta	$d640                   ; 0xd640 <__heap_start+0x56aa>
    2fa0: b8           	clv
    2fa1: 90 05        	bcc	$2fa8 <errhypreadfile2>
    2fa3: 85 04        	sta	$4                      ; 0x2004 <__heap_default_limit+0x1004>
    2fa5: 4c ac 2f     	jmp	$2fac <donehypreadfile2>

00002fa8 <errhypreadfile2>:
    2fa8: a9 ff        	lda	#$ff
    2faa: 85 04        	sta	$4                      ; 0x2004 <__heap_default_limit+0x1004>

00002fac <donehypreadfile2>:
    2fac: ea           	nop
    2fad: a4 04        	ldy	$4                      ; 0x2004 <__heap_default_limit+0x1004>
    2faf: a9 ba        	lda	#$ba
    2fb1: 85 04        	sta	$4                      ; 0x2004 <__heap_default_limit+0x1004>
    2fb3: a9 79        	lda	#$79
    2fb5: 85 05        	sta	$5                      ; 0x2005 <__heap_default_limit+0x1005>
    2fb7: c0 89        	cpy	#$89
    2fb9: d0 03        	bne	$2fbe <donehypreadfile2+0x12>
    2fbb: 4c 0a 30     	jmp	$300a <donehypclosefile3+0x3b>
    2fbe: a9 20        	lda	#$20
    2fc0: 8d 40 d6     	sta	$d640                   ; 0xd640 <__heap_start+0x56aa>
    2fc3: b8           	clv
    2fc4: 90 05        	bcc	$2fcb <errhypclosefile3>
    2fc6: 85 04        	sta	$4                      ; 0x2004 <__heap_default_limit+0x1004>
    2fc8: 4c cf 2f     	jmp	$2fcf <donehypclosefile3>

00002fcb <errhypclosefile3>:
    2fcb: a9 ff        	lda	#$ff
    2fcd: 85 04        	sta	$4                      ; 0x2004 <__heap_default_limit+0x1004>

00002fcf <donehypclosefile3>:
    2fcf: ea           	nop
    2fd0: 64 04        	stz	$4                      ; 0x2004 <__heap_default_limit+0x1004>
    2fd2: 64 05        	stz	$5                      ; 0x2005 <__heap_default_limit+0x1005>
    2fd4: 64 06        	stz	$6                      ; 0x2006 <__heap_default_limit+0x1006>
    2fd6: 64 07        	stz	$7                      ; 0x2007 <__heap_default_limit+0x1007>
    2fd8: a2 01        	ldx	#$1
    2fda: 86 08        	stx	$8                      ; 0x2008 <__heap_default_limit+0x1008>
    2fdc: a2 19        	ldx	#$19
    2fde: a9 00        	lda	#$0
    2fe0: 20 05 6a     	jsr	$6a05 <lfill>
    2fe3: a2 fd        	ldx	#$fd
    2fe5: 86 04        	stx	$4                      ; 0x2004 <__heap_default_limit+0x1004>
    2fe7: a2 0f        	ldx	#$f
    2fe9: 86 05        	stx	$5                      ; 0x2005 <__heap_default_limit+0x1005>
    2feb: 64 06        	stz	$6                      ; 0x2006 <__heap_default_limit+0x1006>
    2fed: a2 19        	ldx	#$19
    2fef: 86 07        	stx	$7                      ; 0x2007 <__heap_default_limit+0x1007>
    2ff1: 64 08        	stz	$8                      ; 0x2008 <__heap_default_limit+0x1008>
    2ff3: 64 09        	stz	$9                      ; 0x2009 <__heap_default_limit+0x1009>
    2ff5: 64 0a        	stz	$a                      ; 0x200a <__heap_default_limit+0x100a>
    2ff7: a2 01        	ldx	#$1
    2ff9: 86 0b        	stx	$b                      ; 0x200b <__heap_default_limit+0x100b>
    2ffb: a2 6e        	ldx	#$6e
    2ffd: a9 16        	lda	#$16
    2fff: 20 9e 69     	jsr	$699e <lcopy>
    3002: a2 00        	ldx	#$0
    3004: 86 04        	stx	$4                      ; 0x2004 <__heap_default_limit+0x1004>
    3006: a2 19        	ldx	#$19
    3008: 86 05        	stx	$5                      ; 0x2005 <__heap_default_limit+0x1005>
    300a: a6 16        	ldx	$16                     ; 0x2016 <next_line+0x1>
    300c: a9 1e        	lda	#$1e
    300e: 20 df 56     	jsr	$56df <mcputsxy>
    3011: a4 17        	ldy	$17                     ; 0x2017 <next_line+0x2>
    3013: c8           	iny
    3014: a2 00        	ldx	#$0
    3016: c0 0a        	cpy	#$a
    3018: d0 03        	bne	$301d <donehypclosefile3+0x4e>
    301a: 4c 04 2f     	jmp	$2f04 <main+0xdf8>
    301d: c0 0b        	cpy	#$b
    301f: d0 03        	bne	$3024 <donehypclosefile3+0x55>
    3021: 4c 99 35     	jmp	$3599 <donehypclosefile3+0x5ca>
    3024: a9 00        	lda	#$0
    3026: 85 18        	sta	$18                     ; 0x2018 <next_line+0x3>
    3028: a9 1c        	lda	#$1c
    302a: 85 19        	sta	$19                     ; 0x2019 <next_line+0x4>
    302c: a9 00        	lda	#$0
    302e: 85 04        	sta	$4                      ; 0x2004 <__heap_default_limit+0x1004>
    3030: a9 1c        	lda	#$1c
    3032: 85 05        	sta	$5                      ; 0x2005 <__heap_default_limit+0x1005>
    3034: a9 b6        	lda	#$b6
    3036: 85 06        	sta	$6                      ; 0x2006 <__heap_default_limit+0x1006>
    3038: a9 78        	lda	#$78
    303a: 85 07        	sta	$7                      ; 0x2007 <__heap_default_limit+0x1007>
    303c: a9 0c        	lda	#$c
    303e: 84 16        	sty	$16                     ; 0x2016 <next_line+0x1>
    3040: 20 8c 6f     	jsr	$6f8c <memcpy>
    3043: 18           	clc
    3044: a5 16        	lda	$16                     ; 0x2016 <next_line+0x1>
    3046: 69 30        	adc	#$30
    3048: 8d 06 1c     	sta	$1c06                   ; 0x1c06 <__heap_default_limit+0xc06>
    304b: a6 16        	ldx	$16                     ; 0x2016 <next_line+0x1>
    304d: 86 17        	stx	$17                     ; 0x2017 <next_line+0x2>
    304f: a5 16        	lda	$16                     ; 0x2016 <next_line+0x1>
    3051: 4c 26 2f     	jmp	$2f26 <main+0xe1a>
    3054: a2 4a        	ldx	#$4a
    3056: 86 04        	stx	$4                      ; 0x2004 <__heap_default_limit+0x1004>
    3058: a2 78        	ldx	#$78
    305a: 86 05        	stx	$5                      ; 0x2005 <__heap_default_limit+0x1005>
    305c: 20 e2 67     	jsr	$67e2 <cputs>
    305f: 4c 75 27     	jmp	$2775 <main+0x669>
    3062: 48           	pha
    3063: 5a           	phy
    3064: a0 18        	ldy	#$18
    3066: b1 02        	lda	($2),y                  ; 0x2002 <__heap_default_limit+0x1002>
    3068: 7a           	ply
    3069: 85 04        	sta	$4                      ; 0x2004 <__heap_default_limit+0x1004>
    306b: 68           	pla
    306c: a6 20        	ldx	$20                     ; 0x2020 <next_line+0xb>
    306e: e4 04        	cpx	$4                      ; 0x2004 <__heap_default_limit+0x1004>
    3070: f0 03        	beq	$3075 <donehypclosefile3+0xa6>
    3072: 4c 2e 27     	jmp	$272e <main+0x622>
    3075: 09 20        	ora	#$20
    3077: 4c 30 27     	jmp	$2730 <main+0x624>
    307a: c9 00        	cmp	#$0
    307c: 8a           	txa
    307d: 90 03        	bcc	$3082 <donehypclosefile3+0xb3>
    307f: 4c 95 2e     	jmp	$2e95 <main+0xd89>
    3082: 0a           	asl
    3083: aa           	tax
    3084: 7c 34 70     	jmp	($7034,x)               ; 0x7034 <__zp_data_load_start+0x501d>
    3087: 20 f1 66     	jsr	$66f1 <sidbong>
    308a: 4c f9 22     	jmp	$22f9 <main+0x1ed>
    308d: a9 27        	lda	#$27
    308f: 18           	clc
    3090: 65 1c        	adc	$1c                     ; 0x201c <next_line+0x7>
    3092: 85 04        	sta	$4                      ; 0x2004 <__heap_default_limit+0x1004>
    3094: a9 00        	lda	#$0
    3096: 65 1b        	adc	$1b                     ; 0x201b <next_line+0x6>
    3098: 85 05        	sta	$5                      ; 0x2005 <__heap_default_limit+0x1005>
    309a: b2 04        	lda	($4),z                  ; 0x2004 <__heap_default_limit+0x1004>
    309c: 85 08        	sta	$8                      ; 0x2008 <__heap_default_limit+0x1008>
    309e: b1 04        	lda	($4),y                  ; 0x2004 <__heap_default_limit+0x1004>
    30a0: 85 09        	sta	$9                      ; 0x2009 <__heap_default_limit+0x1009>
    30a2: a9 01        	lda	#$1
    30a4: a0 46        	ldy	#$46
    30a6: 31 08        	and	($8),y                  ; 0x2008 <__heap_default_limit+0x1008>
    30a8: d0 03        	bne	$30ad <donehypclosefile3+0xde>
    30aa: 4c f7 30     	jmp	$30f7 <donehypclosefile3+0x128>
    30ad: a0 18        	ldy	#$18
    30af: b1 02        	lda	($2),y                  ; 0x2002 <__heap_default_limit+0x1002>
    30b1: 49 01        	eor	#$1
    30b3: a0 1c        	ldy	#$1c
    30b5: 91 02        	sta	($2),y                  ; 0x2002 <__heap_default_limit+0x1002>
    30b7: 0a           	asl
    30b8: 85 04        	sta	$4                      ; 0x2004 <__heap_default_limit+0x1004>
    30ba: a9 00        	lda	#$0
    30bc: 2a           	rol
    30bd: 85 05        	sta	$5                      ; 0x2005 <__heap_default_limit+0x1005>
    30bf: a9 27        	lda	#$27
    30c1: 18           	clc
    30c2: 65 04        	adc	$4                      ; 0x2004 <__heap_default_limit+0x1004>
    30c4: 85 04        	sta	$4                      ; 0x2004 <__heap_default_limit+0x1004>
    30c6: a9 00        	lda	#$0
    30c8: 65 05        	adc	$5                      ; 0x2005 <__heap_default_limit+0x1005>
    30ca: 85 05        	sta	$5                      ; 0x2005 <__heap_default_limit+0x1005>
    30cc: b2 04        	lda	($4),z                  ; 0x2004 <__heap_default_limit+0x1004>
    30ce: aa           	tax
    30cf: a0 01        	ldy	#$1
    30d1: b1 04        	lda	($4),y                  ; 0x2004 <__heap_default_limit+0x1004>
    30d3: 86 06        	stx	$6                      ; 0x2006 <__heap_default_limit+0x1006>
    30d5: a0 1b        	ldy	#$1b
    30d7: 91 02        	sta	($2),y                  ; 0x2002 <__heap_default_limit+0x1002>
    30d9: 85 07        	sta	$7                      ; 0x2007 <__heap_default_limit+0x1007>
    30db: a9 01        	lda	#$1
    30dd: a0 46        	ldy	#$46
    30df: 48           	pha
    30e0: 5a           	phy
    30e1: a5 06        	lda	$6                      ; 0x2006 <__heap_default_limit+0x1006>
    30e3: a0 1d        	ldy	#$1d
    30e5: 91 02        	sta	($2),y                  ; 0x2002 <__heap_default_limit+0x1002>
    30e7: a5 07        	lda	$7                      ; 0x2007 <__heap_default_limit+0x1007>
    30e9: c8           	iny
    30ea: 91 02        	sta	($2),y                  ; 0x2002 <__heap_default_limit+0x1002>
    30ec: 7a           	ply
    30ed: 68           	pla
    30ee: 31 06        	and	($6),y                  ; 0x2006 <__heap_default_limit+0x1006>
    30f0: 29 01        	and	#$1
    30f2: f0 03        	beq	$30f7 <donehypclosefile3+0x128>
    30f4: 4c aa 36     	jmp	$36aa <donehypclosefile3+0x6db>
    30f7: a2 fc        	ldx	#$fc
    30f9: 86 04        	stx	$4                      ; 0x2004 <__heap_default_limit+0x1004>
    30fb: a2 70        	ldx	#$70
    30fd: 86 05        	stx	$5                      ; 0x2005 <__heap_default_limit+0x1005>
    30ff: a2 28        	ldx	#$28
    3101: 86 06        	stx	$6                      ; 0x2006 <__heap_default_limit+0x1006>
    3103: a2 71        	ldx	#$71
    3105: 86 07        	stx	$7                      ; 0x2007 <__heap_default_limit+0x1007>
    3107: a2 fa        	ldx	#$fa
    3109: 86 08        	stx	$8                      ; 0x2008 <__heap_default_limit+0x1008>
    310b: a2 70        	ldx	#$70
    310d: 86 09        	stx	$9                      ; 0x2009 <__heap_default_limit+0x1009>
    310f: 64 0a        	stz	$a                      ; 0x200a <__heap_default_limit+0x100a>
    3111: 64 0b        	stz	$b                      ; 0x200b <__heap_default_limit+0x100b>
    3113: 64 0c        	stz	$c                      ; 0x200c <__heap_default_limit+0x100c>
    3115: a2 00        	ldx	#$0
    3117: 8a           	txa
    3118: 20 80 58     	jsr	$5880 <messagebox>
    311b: 4c f9 22     	jmp	$22f9 <main+0x1ed>
    311e: ae 11 d6     	ldx	$d611                   ; 0xd611 <__heap_start+0x567b>
    3121: e0 01        	cpx	#$1
    3123: d0 03        	bne	$3128 <donehypclosefile3+0x159>
    3125: 4c 59 46     	jmp	$4659 <donehypchdir6+0x1e>
    3128: ae 11 d6     	ldx	$d611                   ; 0xd611 <__heap_start+0x567b>
    312b: e0 02        	cpx	#$2
    312d: f0 03        	beq	$3132 <donehypclosefile3+0x163>
    312f: 4c f9 22     	jmp	$22f9 <main+0x1ed>
    3132: 4c 59 46     	jmp	$4659 <donehypchdir6+0x1e>
    3135: a9 27        	lda	#$27
    3137: 18           	clc
    3138: 65 1c        	adc	$1c                     ; 0x201c <next_line+0x7>
    313a: 85 04        	sta	$4                      ; 0x2004 <__heap_default_limit+0x1004>
    313c: a9 00        	lda	#$0
    313e: 65 1b        	adc	$1b                     ; 0x201b <next_line+0x6>
    3140: 85 05        	sta	$5                      ; 0x2005 <__heap_default_limit+0x1005>
    3142: b2 04        	lda	($4),z                  ; 0x2004 <__heap_default_limit+0x1004>
    3144: 85 06        	sta	$6                      ; 0x2006 <__heap_default_limit+0x1006>
    3146: b1 04        	lda	($4),y                  ; 0x2004 <__heap_default_limit+0x1004>
    3148: 85 07        	sta	$7                      ; 0x2007 <__heap_default_limit+0x1007>
    314a: a9 01        	lda	#$1
    314c: a0 46        	ldy	#$46
    314e: 51 06        	eor	($6),y                  ; 0x2006 <__heap_default_limit+0x1006>
    3150: 91 06        	sta	($6),y                  ; 0x2006 <__heap_default_limit+0x1006>
    3152: a9 28        	lda	#$28
    3154: a0 47        	ldy	#$47
    3156: 91 06        	sta	($6),y                  ; 0x2006 <__heap_default_limit+0x1006>
    3158: b2 06        	lda	($6),z                  ; 0x2006 <__heap_default_limit+0x1006>
    315a: a6 1f        	ldx	$1f                     ; 0x201f <next_line+0xa>
    315c: 20 ff 5e     	jsr	$5eff <UpdateSectors>
    315f: a5 1f        	lda	$1f                     ; 0x201f <next_line+0xa>
    3161: 20 64 65     	jsr	$6564 <Deselect>
    3164: 4c f9 22     	jmp	$22f9 <main+0x1ed>
    3167: a6 18        	ldx	$18                     ; 0x2018 <next_line+0x3>
    3169: 98           	tya
    316a: 20 da 53     	jsr	$53da <tracksectorstring>
    316d: a6 19        	ldx	$19                     ; 0x2019 <next_line+0x4>
    316f: 86 04        	stx	$4                      ; 0x2004 <__heap_default_limit+0x1004>
    3171: 06 04        	asl	$4                      ; 0x2004 <__heap_default_limit+0x1004>
    3173: a5 1c        	lda	$1c                     ; 0x201c <next_line+0x7>
    3175: 2a           	rol
    3176: 06 04        	asl	$4                      ; 0x2004 <__heap_default_limit+0x1004>
    3178: 2a           	rol
    3179: 18           	clc
    317a: 69 32        	adc	#$32
    317c: a2 dd        	ldx	#$dd
    317e: 86 04        	stx	$4                      ; 0x2004 <__heap_default_limit+0x1004>
    3180: a2 77        	ldx	#$77
    3182: 86 05        	stx	$5                      ; 0x2005 <__heap_default_limit+0x1005>
    3184: a2 06        	ldx	#$6
    3186: 86 06        	stx	$6                      ; 0x2006 <__heap_default_limit+0x1006>
    3188: a2 7b        	ldx	#$7b
    318a: 86 07        	stx	$7                      ; 0x2007 <__heap_default_limit+0x1007>
    318c: 20 d7 59     	jsr	$59d7 <progress>
    318f: a5 19        	lda	$19                     ; 0x2019 <next_line+0x4>
    3191: 18           	clc
    3192: 69 3c        	adc	#$3c
    3194: a8           	tay
    3195: a5 1c        	lda	$1c                     ; 0x201c <next_line+0x7>
    3197: 69 00        	adc	#$0
    3199: 85 04        	sta	$4                      ; 0x2004 <__heap_default_limit+0x1004>
    319b: a9 00        	lda	#$0
    319d: 69 08        	adc	#$8
    319f: 85 05        	sta	$5                      ; 0x2005 <__heap_default_limit+0x1005>
    31a1: 64 06        	stz	$6                      ; 0x2006 <__heap_default_limit+0x1006>
    31a3: a2 19        	ldx	#$19
    31a5: 86 07        	stx	$7                      ; 0x2007 <__heap_default_limit+0x1007>
    31a7: 64 08        	stz	$8                      ; 0x2008 <__heap_default_limit+0x1008>
    31a9: 64 09        	stz	$9                      ; 0x2009 <__heap_default_limit+0x1009>
    31ab: 64 0a        	stz	$a                      ; 0x200a <__heap_default_limit+0x100a>
    31ad: a2 02        	ldx	#$2
    31af: 86 0b        	stx	$b                      ; 0x200b <__heap_default_limit+0x100b>
    31b1: 5a           	phy
    31b2: fa           	plx
    31b3: a9 00        	lda	#$0
    31b5: 20 9e 69     	jsr	$699e <lcopy>
    31b8: a2 00        	ldx	#$0
    31ba: 86 04        	stx	$4                      ; 0x2004 <__heap_default_limit+0x1004>
    31bc: a2 19        	ldx	#$19
    31be: 86 05        	stx	$5                      ; 0x2005 <__heap_default_limit+0x1005>
    31c0: a6 18        	ldx	$18                     ; 0x2018 <next_line+0x3>
    31c2: 86 06        	stx	$6                      ; 0x2006 <__heap_default_limit+0x1006>
    31c4: a6 17        	ldx	$17                     ; 0x2017 <next_line+0x2>
    31c6: a5 16        	lda	$16                     ; 0x2016 <next_line+0x1>
    31c8: 20 1b 4c     	jsr	$4c1b <PutWholeSector>
    31cb: a4 17        	ldy	$17                     ; 0x2017 <next_line+0x2>
    31cd: 18           	clc
    31ce: a5 19        	lda	$19                     ; 0x2019 <next_line+0x4>
    31d0: 69 02        	adc	#$2
    31d2: 85 19        	sta	$19                     ; 0x2019 <next_line+0x4>
    31d4: a5 1c        	lda	$1c                     ; 0x201c <next_line+0x7>
    31d6: 69 00        	adc	#$0
    31d8: 85 1c        	sta	$1c                     ; 0x201c <next_line+0x7>
    31da: 18           	clc
    31db: a5 1d        	lda	$1d                     ; 0x201d <next_line+0x8>
    31dd: 69 02        	adc	#$2
    31df: c9 29        	cmp	#$29
    31e1: b0 2b        	bcs	$320e <donehypclosefile3+0x23f>
    31e3: 85 1d        	sta	$1d                     ; 0x201d <next_line+0x8>
    31e5: 85 18        	sta	$18                     ; 0x2018 <next_line+0x3>
    31e7: c6 18        	dec	$18                     ; 0x2018 <next_line+0x3>
    31e9: a9 02        	lda	#$2
    31eb: 25 2f        	and	$2f                     ; 0x202f <__do_init_stack>
    31ed: d0 03        	bne	$31f2 <donehypclosefile3+0x223>
    31ef: 4c 67 31     	jmp	$3167 <donehypclosefile3+0x198>
    31f2: a6 18        	ldx	$18                     ; 0x2018 <next_line+0x3>
    31f4: 98           	tya
    31f5: 20 21 51     	jsr	$5121 <isallocatedBAMtracksector>
    31f8: a4 17        	ldy	$17                     ; 0x2017 <next_line+0x2>
    31fa: aa           	tax
    31fb: f0 03        	beq	$3200 <donehypclosefile3+0x231>
    31fd: 4c 67 31     	jmp	$3167 <donehypclosefile3+0x198>
    3200: a6 1d        	ldx	$1d                     ; 0x201d <next_line+0x8>
    3202: 98           	tya
    3203: 20 21 51     	jsr	$5121 <isallocatedBAMtracksector>
    3206: a4 17        	ldy	$17                     ; 0x2017 <next_line+0x2>
    3208: aa           	tax
    3209: f0 cf        	beq	$31da <donehypclosefile3+0x20b>
    320b: 4c 67 31     	jmp	$3167 <donehypclosefile3+0x198>
    320e: c8           	iny
    320f: c0 51        	cpy	#$51
    3211: d0 03        	bne	$3216 <donehypclosefile3+0x247>
    3213: 4c fa 45     	jmp	$45fa <donehypchdir5+0x51>
    3216: a9 01        	lda	#$1
    3218: 84 17        	sty	$17                     ; 0x2017 <next_line+0x2>
    321a: 4c df 31     	jmp	$31df <donehypclosefile3+0x210>
    321d: c9 00        	cmp	#$0
    321f: 8a           	txa
    3220: 90 03        	bcc	$3225 <donehypclosefile3+0x256>
    3222: 4c ac 2e     	jmp	$2eac <main+0xda0>
    3225: 0a           	asl
    3226: aa           	tax
    3227: 7c e2 6f     	jmp	($6fe2,x)               ; 0x6fe2 <__zp_data_load_start+0x4fcb>
    322a: a9 27        	lda	#$27
    322c: 18           	clc
    322d: 65 1c        	adc	$1c                     ; 0x201c <next_line+0x7>
    322f: 85 04        	sta	$4                      ; 0x2004 <__heap_default_limit+0x1004>
    3231: a9 00        	lda	#$0
    3233: 65 1b        	adc	$1b                     ; 0x201b <next_line+0x6>
    3235: 85 05        	sta	$5                      ; 0x2005 <__heap_default_limit+0x1005>
    3237: b2 04        	lda	($4),z                  ; 0x2004 <__heap_default_limit+0x1004>
    3239: 85 1a        	sta	$1a                     ; 0x201a <next_line+0x5>
    323b: b1 04        	lda	($4),y                  ; 0x2004 <__heap_default_limit+0x1004>
    323d: 85 1b        	sta	$1b                     ; 0x201b <next_line+0x6>
    323f: a9 01        	lda	#$1
    3241: a0 46        	ldy	#$46
    3243: 31 1a        	and	($1a),y                 ; 0x201a <next_line+0x5>
    3245: 29 01        	and	#$1
    3247: f0 03        	beq	$324c <donehypclosefile3+0x27d>
    3249: 4c ce 3e     	jmp	$3ece <donehypclosefile3+0xeff>
    324c: 64 17        	stz	$17                     ; 0x2017 <next_line+0x2>
    324e: 64 1c        	stz	$1c                     ; 0x201c <next_line+0x7>
    3250: a2 00        	ldx	#$0
    3252: e4 1c        	cpx	$1c                     ; 0x201c <next_line+0x7>
    3254: d0 0b        	bne	$3261 <donehypclosefile3+0x292>
    3256: a0 02        	ldy	#$2
    3258: b1 1a        	lda	($1a),y                 ; 0x201a <next_line+0x5>
    325a: c5 17        	cmp	$17                     ; 0x2017 <next_line+0x2>
    325c: b0 0a        	bcs	$3268 <donehypclosefile3+0x299>
    325e: 4c f9 22     	jmp	$22f9 <main+0x1ed>
    3261: e4 1c        	cpx	$1c                     ; 0x201c <next_line+0x7>
    3263: b0 03        	bcs	$3268 <donehypclosefile3+0x299>
    3265: 4c f9 22     	jmp	$22f9 <main+0x1ed>
    3268: a6 17        	ldx	$17                     ; 0x2017 <next_line+0x2>
    326a: a5 1f        	lda	$1f                     ; 0x201f <next_line+0xa>
    326c: 20 66 54     	jsr	$5466 <getdirententry>
    326f: a9 10        	lda	#$10
    3271: a0 02        	ldy	#$2
    3273: 31 04        	and	($4),y                  ; 0x2004 <__heap_default_limit+0x1004>
    3275: f0 13        	beq	$328a <donehypclosefile3+0x2bb>
    3277: a0 05        	ldy	#$5
    3279: b1 04        	lda	($4),y                  ; 0x2004 <__heap_default_limit+0x1004>
    327b: c9 2e        	cmp	#$2e
    327d: d0 0b        	bne	$328a <donehypclosefile3+0x2bb>
    327f: a0 06        	ldy	#$6
    3281: b1 04        	lda	($4),y                  ; 0x2004 <__heap_default_limit+0x1004>
    3283: c9 2e        	cmp	#$2e
    3285: d0 03        	bne	$328a <donehypclosefile3+0x2bb>
    3287: 4c 7a 45     	jmp	$457a <donehypd81detach4+0x184>
    328a: e6 17        	inc	$17                     ; 0x2017 <next_line+0x2>
    328c: f0 03        	beq	$3291 <donehypclosefile3+0x2c2>
    328e: 4c 50 32     	jmp	$3250 <donehypclosefile3+0x281>
    3291: e6 1c        	inc	$1c                     ; 0x201c <next_line+0x7>
    3293: 4c 50 32     	jmp	$3250 <donehypclosefile3+0x281>
    3296: a2 00        	ldx	#$0
    3298: a9 14        	lda	#$14
    329a: 20 d8 5a     	jsr	$5ad8 <shortcuts>
    329d: 80 03        	bra	$32a2 <donehypclosefile3+0x2d3>
    329f: 20 f1 66     	jsr	$66f1 <sidbong>
    32a2: a2 4c        	ldx	#$4c
    32a4: 86 04        	stx	$4                      ; 0x2004 <__heap_default_limit+0x1004>
    32a6: a2 18        	ldx	#$18
    32a8: 86 05        	stx	$5                      ; 0x2005 <__heap_default_limit+0x1005>
    32aa: a2 01        	ldx	#$1
    32ac: 86 06        	stx	$6                      ; 0x2006 <__heap_default_limit+0x1006>
    32ae: ca           	dex
    32af: a9 04        	lda	#$4
    32b1: 20 f5 56     	jsr	$56f5 <mcbox>
    32b4: a9 20        	lda	#$20
    32b6: 05 2b        	ora	$2b                     ; 0x202b <_start+0xa>
    32b8: 85 2b        	sta	$2b                     ; 0x202b <_start+0xa>
    32ba: a2 70        	ldx	#$70
    32bc: 86 04        	stx	$4                      ; 0x2004 <__heap_default_limit+0x1004>
    32be: a2 71        	ldx	#$71
    32c0: 86 05        	stx	$5                      ; 0x2005 <__heap_default_limit+0x1005>
    32c2: a2 00        	ldx	#$0
    32c4: a9 0e        	lda	#$e
    32c6: 20 df 56     	jsr	$56df <mcputsxy>
    32c9: a2 8f        	ldx	#$8f
    32cb: 86 04        	stx	$4                      ; 0x2004 <__heap_default_limit+0x1004>
    32cd: a2 70        	ldx	#$70
    32cf: 86 05        	stx	$5                      ; 0x2005 <__heap_default_limit+0x1005>
    32d1: a2 00        	ldx	#$0
    32d3: a9 1f        	lda	#$1f
    32d5: 20 df 56     	jsr	$56df <mcputsxy>
    32d8: a2 e2        	ldx	#$e2
    32da: 86 04        	stx	$4                      ; 0x2004 <__heap_default_limit+0x1004>
    32dc: a2 74        	ldx	#$74
    32de: 86 05        	stx	$5                      ; 0x2005 <__heap_default_limit+0x1005>
    32e0: a2 00        	ldx	#$0
    32e2: a9 28        	lda	#$28
    32e4: 20 df 56     	jsr	$56df <mcputsxy>
    32e7: a9 df        	lda	#$df
    32e9: 25 2b        	and	$2b                     ; 0x202b <_start+0xa>
    32eb: 85 2b        	sta	$2b                     ; 0x202b <_start+0xa>
    32ed: a2 fa        	ldx	#$fa
    32ef: 86 04        	stx	$4                      ; 0x2004 <__heap_default_limit+0x1004>
    32f1: a2 70        	ldx	#$70
    32f3: 86 05        	stx	$5                      ; 0x2005 <__heap_default_limit+0x1005>
    32f5: a5 04        	lda	$4                      ; 0x2004 <__heap_default_limit+0x1004>
    32f7: a0 23        	ldy	#$23
    32f9: 91 02        	sta	($2),y                  ; 0x2002 <__heap_default_limit+0x1002>
    32fb: a5 05        	lda	$5                      ; 0x2005 <__heap_default_limit+0x1005>
    32fd: c8           	iny
    32fe: 91 02        	sta	($2),y                  ; 0x2002 <__heap_default_limit+0x1002>
    3300: 88           	dey
    3301: b1 02        	lda	($2),y                  ; 0x2002 <__heap_default_limit+0x1002>
    3303: 85 04        	sta	$4                      ; 0x2004 <__heap_default_limit+0x1004>
    3305: c8           	iny
    3306: b1 02        	lda	($2),y                  ; 0x2002 <__heap_default_limit+0x1002>
    3308: 85 05        	sta	$5                      ; 0x2005 <__heap_default_limit+0x1005>
    330a: a2 18        	ldx	#$18
    330c: a9 07        	lda	#$7
    330e: 20 df 56     	jsr	$56df <mcputsxy>
    3311: a2 39        	ldx	#$39
    3313: 86 04        	stx	$4                      ; 0x2004 <__heap_default_limit+0x1004>
    3315: a2 73        	ldx	#$73
    3317: 86 05        	stx	$5                      ; 0x2005 <__heap_default_limit+0x1005>
    3319: 20 d1 56     	jsr	$56d1 <msprintf>
    331c: a0 23        	ldy	#$23
    331e: b1 02        	lda	($2),y                  ; 0x2002 <__heap_default_limit+0x1002>
    3320: 85 04        	sta	$4                      ; 0x2004 <__heap_default_limit+0x1004>
    3322: c8           	iny
    3323: b1 02        	lda	($2),y                  ; 0x2002 <__heap_default_limit+0x1002>
    3325: 85 05        	sta	$5                      ; 0x2005 <__heap_default_limit+0x1005>
    3327: 20 d1 56     	jsr	$56d1 <msprintf>
    332a: a2 67        	ldx	#$67
    332c: 86 04        	stx	$4                      ; 0x2004 <__heap_default_limit+0x1004>
    332e: a2 78        	ldx	#$78
    3330: 86 05        	stx	$5                      ; 0x2005 <__heap_default_limit+0x1005>
    3332: a2 18        	ldx	#$18
    3334: a9 34        	lda	#$34
    3336: 20 df 56     	jsr	$56df <mcputsxy>
    3339: a9 20        	lda	#$20
    333b: 05 2b        	ora	$2b                     ; 0x202b <_start+0xa>
    333d: 85 2b        	sta	$2b                     ; 0x202b <_start+0xa>
    333f: a2 14        	ldx	#$14
    3341: 86 04        	stx	$4                      ; 0x2004 <__heap_default_limit+0x1004>
    3343: a2 72        	ldx	#$72
    3345: 86 05        	stx	$5                      ; 0x2005 <__heap_default_limit+0x1005>
    3347: a2 02        	ldx	#$2
    3349: a9 06        	lda	#$6
    334b: 20 df 56     	jsr	$56df <mcputsxy>
    334e: a6 2b        	ldx	$2b                     ; 0x202b <_start+0xa>
    3350: 86 17        	stx	$17                     ; 0x2017 <next_line+0x2>
    3352: a9 df        	lda	#$df
    3354: 25 2b        	and	$2b                     ; 0x202b <_start+0xa>
    3356: 85 2b        	sta	$2b                     ; 0x202b <_start+0xa>
    3358: 85 16        	sta	$16                     ; 0x2016 <next_line+0x1>
    335a: a0 23        	ldy	#$23
    335c: b1 02        	lda	($2),y                  ; 0x2002 <__heap_default_limit+0x1002>
    335e: 85 04        	sta	$4                      ; 0x2004 <__heap_default_limit+0x1004>
    3360: c8           	iny
    3361: b1 02        	lda	($2),y                  ; 0x2002 <__heap_default_limit+0x1002>
    3363: 85 05        	sta	$5                      ; 0x2005 <__heap_default_limit+0x1005>
    3365: 20 d1 56     	jsr	$56d1 <msprintf>
    3368: a5 17        	lda	$17                     ; 0x2017 <next_line+0x2>
    336a: 09 20        	ora	#$20
    336c: 85 2b        	sta	$2b                     ; 0x202b <_start+0xa>
    336e: a2 1b        	ldx	#$1b
    3370: 86 04        	stx	$4                      ; 0x2004 <__heap_default_limit+0x1004>
    3372: a2 72        	ldx	#$72
    3374: 86 05        	stx	$5                      ; 0x2005 <__heap_default_limit+0x1005>
    3376: 20 d1 56     	jsr	$56d1 <msprintf>
    3379: a6 16        	ldx	$16                     ; 0x2016 <next_line+0x1>
    337b: 86 2b        	stx	$2b                     ; 0x202b <_start+0xa>
    337d: a2 40        	ldx	#$40
    337f: 86 04        	stx	$4                      ; 0x2004 <__heap_default_limit+0x1004>
    3381: a2 7a        	ldx	#$7a
    3383: 86 05        	stx	$5                      ; 0x2005 <__heap_default_limit+0x1005>
    3385: 20 d1 56     	jsr	$56d1 <msprintf>
    3388: a2 80        	ldx	#$80
    338a: 86 04        	stx	$4                      ; 0x2004 <__heap_default_limit+0x1004>
    338c: a2 71        	ldx	#$71
    338e: 86 05        	stx	$5                      ; 0x2005 <__heap_default_limit+0x1005>
    3390: a2 04        	ldx	#$4
    3392: a9 06        	lda	#$6
    3394: 20 df 56     	jsr	$56df <mcputsxy>
    3397: a2 38        	ldx	#$38
    3399: 86 04        	stx	$4                      ; 0x2004 <__heap_default_limit+0x1004>
    339b: a2 77        	ldx	#$77
    339d: 86 05        	stx	$5                      ; 0x2005 <__heap_default_limit+0x1005>
    339f: a2 05        	ldx	#$5
    33a1: a9 06        	lda	#$6
    33a3: 20 df 56     	jsr	$56df <mcputsxy>
    33a6: a9 20        	lda	#$20
    33a8: 05 2b        	ora	$2b                     ; 0x202b <_start+0xa>
    33aa: 85 2b        	sta	$2b                     ; 0x202b <_start+0xa>
    33ac: a2 a1        	ldx	#$a1
    33ae: 86 04        	stx	$4                      ; 0x2004 <__heap_default_limit+0x1004>
    33b0: a2 77        	ldx	#$77
    33b2: 86 05        	stx	$5                      ; 0x2005 <__heap_default_limit+0x1005>
    33b4: a2 07        	ldx	#$7
    33b6: a9 06        	lda	#$6
    33b8: 20 df 56     	jsr	$56df <mcputsxy>
    33bb: a6 2b        	ldx	$2b                     ; 0x202b <_start+0xa>
    33bd: 86 17        	stx	$17                     ; 0x2017 <next_line+0x2>
    33bf: a9 df        	lda	#$df
    33c1: 25 2b        	and	$2b                     ; 0x202b <_start+0xa>
    33c3: 85 2b        	sta	$2b                     ; 0x202b <_start+0xa>
    33c5: 85 16        	sta	$16                     ; 0x2016 <next_line+0x1>
    33c7: a0 23        	ldy	#$23
    33c9: b1 02        	lda	($2),y                  ; 0x2002 <__heap_default_limit+0x1002>
    33cb: 85 04        	sta	$4                      ; 0x2004 <__heap_default_limit+0x1004>
    33cd: c8           	iny
    33ce: b1 02        	lda	($2),y                  ; 0x2002 <__heap_default_limit+0x1002>
    33d0: 85 05        	sta	$5                      ; 0x2005 <__heap_default_limit+0x1005>
    33d2: 20 d1 56     	jsr	$56d1 <msprintf>
    33d5: a5 17        	lda	$17                     ; 0x2017 <next_line+0x2>
    33d7: 09 20        	ora	#$20
    33d9: 85 2b        	sta	$2b                     ; 0x202b <_start+0xa>
    33db: a2 a8        	ldx	#$a8
    33dd: 86 04        	stx	$4                      ; 0x2004 <__heap_default_limit+0x1004>
    33df: a2 77        	ldx	#$77
    33e1: 86 05        	stx	$5                      ; 0x2005 <__heap_default_limit+0x1005>
    33e3: 20 d1 56     	jsr	$56d1 <msprintf>
    33e6: a6 16        	ldx	$16                     ; 0x2016 <next_line+0x1>
    33e8: 86 2b        	stx	$2b                     ; 0x202b <_start+0xa>
    33ea: a2 7e        	ldx	#$7e
    33ec: 86 04        	stx	$4                      ; 0x2004 <__heap_default_limit+0x1004>
    33ee: a2 78        	ldx	#$78
    33f0: 86 05        	stx	$5                      ; 0x2005 <__heap_default_limit+0x1005>
    33f2: 20 d1 56     	jsr	$56d1 <msprintf>
    33f5: a2 f2        	ldx	#$f2
    33f7: 86 04        	stx	$4                      ; 0x2004 <__heap_default_limit+0x1004>
    33f9: a2 72        	ldx	#$72
    33fb: 86 05        	stx	$5                      ; 0x2005 <__heap_default_limit+0x1005>
    33fd: a2 08        	ldx	#$8
    33ff: a9 06        	lda	#$6
    3401: 20 df 56     	jsr	$56df <mcputsxy>
    3404: a6 2b        	ldx	$2b                     ; 0x202b <_start+0xa>
    3406: 86 16        	stx	$16                     ; 0x2016 <next_line+0x1>
    3408: a9 40        	lda	#$40
    340a: 05 2b        	ora	$2b                     ; 0x202b <_start+0xa>
    340c: 85 2b        	sta	$2b                     ; 0x202b <_start+0xa>
    340e: a2 d9        	ldx	#$d9
    3410: 86 04        	stx	$4                      ; 0x2004 <__heap_default_limit+0x1004>
    3412: a2 72        	ldx	#$72
    3414: 86 05        	stx	$5                      ; 0x2005 <__heap_default_limit+0x1005>
    3416: 20 d1 56     	jsr	$56d1 <msprintf>
    3419: a5 16        	lda	$16                     ; 0x2016 <next_line+0x1>
    341b: 29 bf        	and	#$bf
    341d: 85 2b        	sta	$2b                     ; 0x202b <_start+0xa>
    341f: a2 0e        	ldx	#$e
    3421: 86 04        	stx	$4                      ; 0x2004 <__heap_default_limit+0x1004>
    3423: a2 78        	ldx	#$78
    3425: 86 05        	stx	$5                      ; 0x2005 <__heap_default_limit+0x1005>
    3427: 20 d1 56     	jsr	$56d1 <msprintf>
    342a: a2 c5        	ldx	#$c5
    342c: 86 04        	stx	$4                      ; 0x2004 <__heap_default_limit+0x1004>
    342e: a2 75        	ldx	#$75
    3430: 86 05        	stx	$5                      ; 0x2005 <__heap_default_limit+0x1005>
    3432: a2 09        	ldx	#$9
    3434: a9 06        	lda	#$6
    3436: 20 df 56     	jsr	$56df <mcputsxy>
    3439: a9 20        	lda	#$20
    343b: 05 2b        	ora	$2b                     ; 0x202b <_start+0xa>
    343d: 85 2b        	sta	$2b                     ; 0x202b <_start+0xa>
    343f: a0 23        	ldy	#$23
    3441: b1 02        	lda	($2),y                  ; 0x2002 <__heap_default_limit+0x1002>
    3443: 85 04        	sta	$4                      ; 0x2004 <__heap_default_limit+0x1004>
    3445: c8           	iny
    3446: b1 02        	lda	($2),y                  ; 0x2002 <__heap_default_limit+0x1002>
    3448: 85 05        	sta	$5                      ; 0x2005 <__heap_default_limit+0x1005>
    344a: a2 0b        	ldx	#$b
    344c: a9 06        	lda	#$6
    344e: 20 df 56     	jsr	$56df <mcputsxy>
    3451: a9 1f        	lda	#$1f
    3453: 20 38 67     	jsr	$6738 <cputc>
    3456: a0 23        	ldy	#$23
    3458: b1 02        	lda	($2),y                  ; 0x2002 <__heap_default_limit+0x1002>
    345a: 85 04        	sta	$4                      ; 0x2004 <__heap_default_limit+0x1004>
    345c: c8           	iny
    345d: b1 02        	lda	($2),y                  ; 0x2002 <__heap_default_limit+0x1002>
    345f: 85 05        	sta	$5                      ; 0x2005 <__heap_default_limit+0x1005>
    3461: 20 d1 56     	jsr	$56d1 <msprintf>
    3464: a6 2b        	ldx	$2b                     ; 0x202b <_start+0xa>
    3466: 86 16        	stx	$16                     ; 0x2016 <next_line+0x1>
    3468: a9 df        	lda	#$df
    346a: 25 2b        	and	$2b                     ; 0x202b <_start+0xa>
    346c: 85 2b        	sta	$2b                     ; 0x202b <_start+0xa>
    346e: a2 e3        	ldx	#$e3
    3470: 86 04        	stx	$4                      ; 0x2004 <__heap_default_limit+0x1004>
    3472: a2 75        	ldx	#$75
    3474: 86 05        	stx	$5                      ; 0x2005 <__heap_default_limit+0x1005>
    3476: 20 d1 56     	jsr	$56d1 <msprintf>
    3479: a5 16        	lda	$16                     ; 0x2016 <next_line+0x1>
    347b: 09 20        	ora	#$20
    347d: 85 2b        	sta	$2b                     ; 0x202b <_start+0xa>
    347f: a2 08        	ldx	#$8
    3481: 86 04        	stx	$4                      ; 0x2004 <__heap_default_limit+0x1004>
    3483: a2 7a        	ldx	#$7a
    3485: 86 05        	stx	$5                      ; 0x2005 <__heap_default_limit+0x1005>
    3487: a2 0c        	ldx	#$c
    3489: a9 06        	lda	#$6
    348b: 20 df 56     	jsr	$56df <mcputsxy>
    348e: a9 df        	lda	#$df
    3490: 25 2b        	and	$2b                     ; 0x202b <_start+0xa>
    3492: 85 2b        	sta	$2b                     ; 0x202b <_start+0xa>
    3494: a2 58        	ldx	#$58
    3496: 86 04        	stx	$4                      ; 0x2004 <__heap_default_limit+0x1004>
    3498: a2 79        	ldx	#$79
    349a: 86 05        	stx	$5                      ; 0x2005 <__heap_default_limit+0x1005>
    349c: 20 d1 56     	jsr	$56d1 <msprintf>
    349f: a2 99        	ldx	#$99
    34a1: 86 04        	stx	$4                      ; 0x2004 <__heap_default_limit+0x1004>
    34a3: a2 76        	ldx	#$76
    34a5: 86 05        	stx	$5                      ; 0x2005 <__heap_default_limit+0x1005>
    34a7: a2 0e        	ldx	#$e
    34a9: a9 06        	lda	#$6
    34ab: 20 df 56     	jsr	$56df <mcputsxy>
    34ae: a2 4b        	ldx	#$4b
    34b0: 86 04        	stx	$4                      ; 0x2004 <__heap_default_limit+0x1004>
    34b2: a2 75        	ldx	#$75
    34b4: 86 05        	stx	$5                      ; 0x2005 <__heap_default_limit+0x1005>
    34b6: a2 0f        	ldx	#$f
    34b8: a9 06        	lda	#$6
    34ba: 20 df 56     	jsr	$56df <mcputsxy>
    34bd: a2 56        	ldx	#$56
    34bf: 86 04        	stx	$4                      ; 0x2004 <__heap_default_limit+0x1004>
    34c1: a2 70        	ldx	#$70
    34c3: 86 05        	stx	$5                      ; 0x2005 <__heap_default_limit+0x1005>
    34c5: a2 10        	ldx	#$10
    34c7: a9 06        	lda	#$6
    34c9: 20 df 56     	jsr	$56df <mcputsxy>
    34cc: a9 20        	lda	#$20
    34ce: 05 2b        	ora	$2b                     ; 0x202b <_start+0xa>
    34d0: 85 2b        	sta	$2b                     ; 0x202b <_start+0xa>
    34d2: a2 8b        	ldx	#$8b
    34d4: 86 04        	stx	$4                      ; 0x2004 <__heap_default_limit+0x1004>
    34d6: a2 79        	ldx	#$79
    34d8: 86 05        	stx	$5                      ; 0x2005 <__heap_default_limit+0x1005>
    34da: a2 12        	ldx	#$12
    34dc: a9 06        	lda	#$6
    34de: 20 df 56     	jsr	$56df <mcputsxy>
    34e1: a6 2b        	ldx	$2b                     ; 0x202b <_start+0xa>
    34e3: 86 17        	stx	$17                     ; 0x2017 <next_line+0x2>
    34e5: a9 df        	lda	#$df
    34e7: 25 2b        	and	$2b                     ; 0x202b <_start+0xa>
    34e9: 85 2b        	sta	$2b                     ; 0x202b <_start+0xa>
    34eb: 85 16        	sta	$16                     ; 0x2016 <next_line+0x1>
    34ed: a2 91        	ldx	#$91
    34ef: 86 04        	stx	$4                      ; 0x2004 <__heap_default_limit+0x1004>
    34f1: a2 73        	ldx	#$73
    34f3: 86 05        	stx	$5                      ; 0x2005 <__heap_default_limit+0x1005>
    34f5: 20 d1 56     	jsr	$56d1 <msprintf>
    34f8: a5 17        	lda	$17                     ; 0x2017 <next_line+0x2>
    34fa: 09 20        	ora	#$20
    34fc: 85 2b        	sta	$2b                     ; 0x202b <_start+0xa>
    34fe: 85 17        	sta	$17                     ; 0x2017 <next_line+0x2>
    3500: a2 4f        	ldx	#$4f
    3502: 86 04        	stx	$4                      ; 0x2004 <__heap_default_limit+0x1004>
    3504: a2 78        	ldx	#$78
    3506: 86 05        	stx	$5                      ; 0x2005 <__heap_default_limit+0x1005>
    3508: 20 d1 56     	jsr	$56d1 <msprintf>
    350b: a6 16        	ldx	$16                     ; 0x2016 <next_line+0x1>
    350d: 86 2b        	stx	$2b                     ; 0x202b <_start+0xa>
    350f: a0 23        	ldy	#$23
    3511: b1 02        	lda	($2),y                  ; 0x2002 <__heap_default_limit+0x1002>
    3513: 85 04        	sta	$4                      ; 0x2004 <__heap_default_limit+0x1004>
    3515: c8           	iny
    3516: b1 02        	lda	($2),y                  ; 0x2002 <__heap_default_limit+0x1002>
    3518: 85 05        	sta	$5                      ; 0x2005 <__heap_default_limit+0x1005>
    351a: 20 d1 56     	jsr	$56d1 <msprintf>
    351d: a6 17        	ldx	$17                     ; 0x2017 <next_line+0x2>
    351f: 86 2b        	stx	$2b                     ; 0x202b <_start+0xa>
    3521: a2 6c        	ldx	#$6c
    3523: 86 04        	stx	$4                      ; 0x2004 <__heap_default_limit+0x1004>
    3525: a2 73        	ldx	#$73
    3527: 86 05        	stx	$5                      ; 0x2005 <__heap_default_limit+0x1005>
    3529: 20 d1 56     	jsr	$56d1 <msprintf>
    352c: a6 16        	ldx	$16                     ; 0x2016 <next_line+0x1>
    352e: 86 2b        	stx	$2b                     ; 0x202b <_start+0xa>
    3530: a2 de        	ldx	#$de
    3532: 86 04        	stx	$4                      ; 0x2004 <__heap_default_limit+0x1004>
    3534: a2 76        	ldx	#$76
    3536: 86 05        	stx	$5                      ; 0x2005 <__heap_default_limit+0x1005>
    3538: 20 d1 56     	jsr	$56d1 <msprintf>
    353b: a2 94        	ldx	#$94
    353d: 86 04        	stx	$4                      ; 0x2004 <__heap_default_limit+0x1004>
    353f: a2 73        	ldx	#$73
    3541: 86 05        	stx	$5                      ; 0x2005 <__heap_default_limit+0x1005>
    3543: a2 13        	ldx	#$13
    3545: a9 06        	lda	#$6
    3547: 20 df 56     	jsr	$56df <mcputsxy>
    354a: a2 1c        	ldx	#$1c
    354c: 86 04        	stx	$4                      ; 0x2004 <__heap_default_limit+0x1004>
    354e: a2 73        	ldx	#$73
    3550: 86 05        	stx	$5                      ; 0x2005 <__heap_default_limit+0x1005>
    3552: a2 14        	ldx	#$14
    3554: a9 06        	lda	#$6
    3556: 20 df 56     	jsr	$56df <mcputsxy>
    3559: a9 20        	lda	#$20
    355b: 05 2b        	ora	$2b                     ; 0x202b <_start+0xa>
    355d: 85 2b        	sta	$2b                     ; 0x202b <_start+0xa>
    355f: a2 88        	ldx	#$88
    3561: 86 04        	stx	$4                      ; 0x2004 <__heap_default_limit+0x1004>
    3563: a2 73        	ldx	#$73
    3565: 86 05        	stx	$5                      ; 0x2005 <__heap_default_limit+0x1005>
    3567: a2 16        	ldx	#$16
    3569: a9 24        	lda	#$24
    356b: 20 df 56     	jsr	$56df <mcputsxy>
    356e: a9 df        	lda	#$df
    3570: 25 2b        	and	$2b                     ; 0x202b <_start+0xa>
    3572: 85 2b        	sta	$2b                     ; 0x202b <_start+0xa>
    3574: 20 6e 69     	jsr	$696e <cgetc>
    3577: c9 03        	cmp	#$3
    3579: d0 03        	bne	$357e <donehypclosefile3+0x5af>
    357b: 4c f9 22     	jmp	$22f9 <main+0x1ed>
    357e: c9 0d        	cmp	#$d
    3580: d0 03        	bne	$3585 <donehypclosefile3+0x5b6>
    3582: 4c f9 22     	jmp	$22f9 <main+0x1ed>
    3585: c9 1b        	cmp	#$1b
    3587: d0 03        	bne	$358c <donehypclosefile3+0x5bd>
    3589: 4c f9 22     	jmp	$22f9 <main+0x1ed>
    358c: c9 20        	cmp	#$20
    358e: f0 03        	beq	$3593 <donehypclosefile3+0x5c4>
    3590: 4c 9f 32     	jmp	$329f <donehypclosefile3+0x2d0>
    3593: 4c f9 22     	jmp	$22f9 <main+0x1ed>
    3596: 20 f1 66     	jsr	$66f1 <sidbong>
    3599: 20 6e 69     	jsr	$696e <cgetc>
    359c: c9 03        	cmp	#$3
    359e: d0 03        	bne	$35a3 <donehypclosefile3+0x5d4>
    35a0: 4c f9 22     	jmp	$22f9 <main+0x1ed>
    35a3: c9 0d        	cmp	#$d
    35a5: d0 03        	bne	$35aa <donehypclosefile3+0x5db>
    35a7: 4c f9 22     	jmp	$22f9 <main+0x1ed>
    35aa: c9 1b        	cmp	#$1b
    35ac: d0 03        	bne	$35b1 <donehypclosefile3+0x5e2>
    35ae: 4c f9 22     	jmp	$22f9 <main+0x1ed>
    35b1: c9 20        	cmp	#$20
    35b3: d0 e1        	bne	$3596 <donehypclosefile3+0x5c7>
    35b5: 4c f9 22     	jmp	$22f9 <main+0x1ed>
    35b8: a9 43        	lda	#$43
    35ba: a6 06        	ldx	$6                      ; 0x2006 <__heap_default_limit+0x1006>
    35bc: 9d 06 7b     	sta	$7b06,x                 ; 0x7b06 <s>
    35bf: 3a           	dec
    35c0: 99 06 7b     	sta	$7b06,y                 ; 0x7b06 <s>
    35c3: a9 4d        	lda	#$4d
    35c5: 4c b4 26     	jmp	$26b4 <main+0x5a8>
    35c8: a9 55        	lda	#$55
    35ca: a6 06        	ldx	$6                      ; 0x2006 <__heap_default_limit+0x1006>
    35cc: 9d 06 7b     	sta	$7b06,x                 ; 0x7b06 <s>
    35cf: a9 53        	lda	#$53
    35d1: 99 06 7b     	sta	$7b06,y                 ; 0x7b06 <s>
    35d4: 3a           	dec
    35d5: 4c b4 26     	jmp	$26b4 <main+0x5a8>
    35d8: a9 52        	lda	#$52
    35da: 4c a8 26     	jmp	$26a8 <main+0x59c>
    35dd: a9 53        	lda	#$53
    35df: a6 06        	ldx	$6                      ; 0x2006 <__heap_default_limit+0x1006>
    35e1: 9d 06 7b     	sta	$7b06,x                 ; 0x7b06 <s>
    35e4: a9 45        	lda	#$45
    35e6: 99 06 7b     	sta	$7b06,y                 ; 0x7b06 <s>
    35e9: a9 51        	lda	#$51
    35eb: 4c b4 26     	jmp	$26b4 <main+0x5a8>
    35ee: a9 50        	lda	#$50
    35f0: a6 06        	ldx	$6                      ; 0x2006 <__heap_default_limit+0x1006>
    35f2: 9d 06 7b     	sta	$7b06,x                 ; 0x7b06 <s>
    35f5: a9 52        	lda	#$52
    35f7: 99 06 7b     	sta	$7b06,y                 ; 0x7b06 <s>
    35fa: a9 47        	lda	#$47
    35fc: 4c b4 26     	jmp	$26b4 <main+0x5a8>
    35ff: a2 fa        	ldx	#$fa
    3601: 86 04        	stx	$4                      ; 0x2004 <__heap_default_limit+0x1004>
    3603: a2 70        	ldx	#$70
    3605: 86 05        	stx	$5                      ; 0x2005 <__heap_default_limit+0x1005>
    3607: a5 04        	lda	$4                      ; 0x2004 <__heap_default_limit+0x1004>
    3609: a0 23        	ldy	#$23
    360b: 91 02        	sta	($2),y                  ; 0x2002 <__heap_default_limit+0x1002>
    360d: a5 05        	lda	$5                      ; 0x2005 <__heap_default_limit+0x1005>
    360f: c8           	iny
    3610: 91 02        	sta	($2),y                  ; 0x2002 <__heap_default_limit+0x1002>
    3612: 88           	dey
    3613: b1 02        	lda	($2),y                  ; 0x2002 <__heap_default_limit+0x1002>
    3615: 85 04        	sta	$4                      ; 0x2004 <__heap_default_limit+0x1004>
    3617: c8           	iny
    3618: b1 02        	lda	($2),y                  ; 0x2002 <__heap_default_limit+0x1002>
    361a: 85 05        	sta	$5                      ; 0x2005 <__heap_default_limit+0x1005>
    361c: 88           	dey
    361d: b1 02        	lda	($2),y                  ; 0x2002 <__heap_default_limit+0x1002>
    361f: 85 06        	sta	$6                      ; 0x2006 <__heap_default_limit+0x1006>
    3621: c8           	iny
    3622: b1 02        	lda	($2),y                  ; 0x2002 <__heap_default_limit+0x1002>
    3624: 85 07        	sta	$7                      ; 0x2007 <__heap_default_limit+0x1007>
    3626: 88           	dey
    3627: b1 02        	lda	($2),y                  ; 0x2002 <__heap_default_limit+0x1002>
    3629: 85 08        	sta	$8                      ; 0x2008 <__heap_default_limit+0x1008>
    362b: c8           	iny
    362c: b1 02        	lda	($2),y                  ; 0x2002 <__heap_default_limit+0x1002>
    362e: 85 09        	sta	$9                      ; 0x2009 <__heap_default_limit+0x1009>
    3630: 64 0a        	stz	$a                      ; 0x200a <__heap_default_limit+0x100a>
    3632: 64 0b        	stz	$b                      ; 0x200b <__heap_default_limit+0x100b>
    3634: 64 0c        	stz	$c                      ; 0x200c <__heap_default_limit+0x100c>
    3636: a2 00        	ldx	#$0
    3638: a9 02        	lda	#$2
    363a: 20 80 58     	jsr	$5880 <messagebox>
    363d: a2 90        	ldx	#$90
    363f: 86 04        	stx	$4                      ; 0x2004 <__heap_default_limit+0x1004>
    3641: a2 79        	ldx	#$79
    3643: 86 05        	stx	$5                      ; 0x2005 <__heap_default_limit+0x1005>
    3645: a2 56        	ldx	#$56
    3647: 86 06        	stx	$6                      ; 0x2006 <__heap_default_limit+0x1006>
    3649: a2 73        	ldx	#$73
    364b: 86 07        	stx	$7                      ; 0x2007 <__heap_default_limit+0x1007>
    364d: a9 14        	lda	#$14
    364f: 20 d7 59     	jsr	$59d7 <progress>
    3652: a9 27        	lda	#$27
    3654: 18           	clc
    3655: 65 1c        	adc	$1c                     ; 0x201c <next_line+0x7>
    3657: 85 04        	sta	$4                      ; 0x2004 <__heap_default_limit+0x1004>
    3659: a9 00        	lda	#$0
    365b: 65 1b        	adc	$1b                     ; 0x201b <next_line+0x6>
    365d: 85 05        	sta	$5                      ; 0x2005 <__heap_default_limit+0x1005>
    365f: b2 04        	lda	($4),z                  ; 0x2004 <__heap_default_limit+0x1004>
    3661: aa           	tax
    3662: a0 01        	ldy	#$1
    3664: b1 04        	lda	($4),y                  ; 0x2004 <__heap_default_limit+0x1004>
    3666: 86 04        	stx	$4                      ; 0x2004 <__heap_default_limit+0x1004>
    3668: 85 05        	sta	$5                      ; 0x2005 <__heap_default_limit+0x1005>
    366a: b2 04        	lda	($4),z                  ; 0x2004 <__heap_default_limit+0x1004>
    366c: a6 1f        	ldx	$1f                     ; 0x201f <next_line+0xa>
    366e: 20 ff 5e     	jsr	$5eff <UpdateSectors>
    3671: a5 1f        	lda	$1f                     ; 0x201f <next_line+0xa>
    3673: 20 64 65     	jsr	$6564 <Deselect>
    3676: a5 1f        	lda	$1f                     ; 0x201f <next_line+0xa>
    3678: 49 01        	eor	#$1
    367a: 85 16        	sta	$16                     ; 0x2016 <next_line+0x1>
    367c: 0a           	asl
    367d: 85 04        	sta	$4                      ; 0x2004 <__heap_default_limit+0x1004>
    367f: a9 00        	lda	#$0
    3681: 2a           	rol
    3682: 85 05        	sta	$5                      ; 0x2005 <__heap_default_limit+0x1005>
    3684: a9 27        	lda	#$27
    3686: 18           	clc
    3687: 65 04        	adc	$4                      ; 0x2004 <__heap_default_limit+0x1004>
    3689: 85 04        	sta	$4                      ; 0x2004 <__heap_default_limit+0x1004>
    368b: a9 00        	lda	#$0
    368d: 65 05        	adc	$5                      ; 0x2005 <__heap_default_limit+0x1005>
    368f: 85 05        	sta	$5                      ; 0x2005 <__heap_default_limit+0x1005>
    3691: b2 04        	lda	($4),z                  ; 0x2004 <__heap_default_limit+0x1004>
    3693: 85 06        	sta	$6                      ; 0x2006 <__heap_default_limit+0x1006>
    3695: a0 01        	ldy	#$1
    3697: b1 04        	lda	($4),y                  ; 0x2004 <__heap_default_limit+0x1004>
    3699: 85 07        	sta	$7                      ; 0x2007 <__heap_default_limit+0x1007>
    369b: b2 06        	lda	($6),z                  ; 0x2006 <__heap_default_limit+0x1006>
    369d: a6 16        	ldx	$16                     ; 0x2016 <next_line+0x1>
    369f: 20 ff 5e     	jsr	$5eff <UpdateSectors>
    36a2: a5 16        	lda	$16                     ; 0x2016 <next_line+0x1>
    36a4: 20 64 65     	jsr	$6564 <Deselect>
    36a7: 4c f9 22     	jmp	$22f9 <main+0x1ed>
    36aa: 86 1f        	stx	$1f                     ; 0x201f <next_line+0xa>
    36ac: a5 08        	lda	$8                      ; 0x2008 <__heap_default_limit+0x1008>
    36ae: a0 1f        	ldy	#$1f
    36b0: 91 02        	sta	($2),y                  ; 0x2002 <__heap_default_limit+0x1002>
    36b2: a5 09        	lda	$9                      ; 0x2009 <__heap_default_limit+0x1009>
    36b4: c8           	iny
    36b5: 91 02        	sta	($2),y                  ; 0x2002 <__heap_default_limit+0x1002>
    36b7: a0 01        	ldy	#$1
    36b9: b1 08        	lda	($8),y                  ; 0x2008 <__heap_default_limit+0x1008>
    36bb: aa           	tax
    36bc: a0 18        	ldy	#$18
    36be: b1 02        	lda	($2),y                  ; 0x2002 <__heap_default_limit+0x1002>
    36c0: 20 66 54     	jsr	$5466 <getdirententry>
    36c3: a6 04        	ldx	$4                      ; 0x2004 <__heap_default_limit+0x1004>
    36c5: 86 06        	stx	$6                      ; 0x2006 <__heap_default_limit+0x1006>
    36c7: a6 05        	ldx	$5                      ; 0x2005 <__heap_default_limit+0x1005>
    36c9: 86 07        	stx	$7                      ; 0x2007 <__heap_default_limit+0x1007>
    36cb: a0 02        	ldy	#$2
    36cd: b1 04        	lda	($4),y                  ; 0x2004 <__heap_default_limit+0x1004>
    36cf: a8           	tay
    36d0: 29 0f        	and	#$f
    36d2: f0 07        	beq	$36db <donehypclosefile3+0x70c>
    36d4: c9 05        	cmp	#$5
    36d6: f0 03        	beq	$36db <donehypclosefile3+0x70c>
    36d8: 4c d9 3e     	jmp	$3ed9 <donehypclosefile3+0xf0a>
    36db: a5 06        	lda	$6                      ; 0x2006 <__heap_default_limit+0x1006>
    36dd: 18           	clc
    36de: 69 05        	adc	#$5
    36e0: 85 06        	sta	$6                      ; 0x2006 <__heap_default_limit+0x1006>
    36e2: a5 07        	lda	$7                      ; 0x2007 <__heap_default_limit+0x1007>
    36e4: 69 00        	adc	#$0
    36e6: 85 07        	sta	$7                      ; 0x2007 <__heap_default_limit+0x1007>
    36e8: a2 1c        	ldx	#$1c
    36ea: 86 04        	stx	$4                      ; 0x2004 <__heap_default_limit+0x1004>
    36ec: a2 78        	ldx	#$78
    36ee: 86 05        	stx	$5                      ; 0x2005 <__heap_default_limit+0x1005>
    36f0: a2 e2        	ldx	#$e2
    36f2: 86 08        	stx	$8                      ; 0x2008 <__heap_default_limit+0x1008>
    36f4: a2 73        	ldx	#$73
    36f6: 4c 0d 31     	jmp	$310d <donehypclosefile3+0x13e>
    36f9: c9 00        	cmp	#$0
    36fb: 8a           	txa
    36fc: 90 03        	bcc	$3701 <donehypclosefile3+0x732>
    36fe: 4c c3 2e     	jmp	$2ec3 <main+0xdb7>
    3701: 0a           	asl
    3702: aa           	tax
    3703: 7c 48 70     	jmp	($7048,x)               ; 0x7048 <__zp_data_load_start+0x5031>
    3706: c0 70        	cpy	#$70
    3708: d0 03        	bne	$370d <donehypclosefile3+0x73e>
    370a: 4c c3 46     	jmp	$46c3 <donehypchdir6+0x88>
    370d: a9 01        	lda	#$1
    370f: 31 04        	and	($4),y                  ; 0x2004 <__heap_default_limit+0x1004>
    3711: d0 03        	bne	$3716 <donehypclosefile3+0x747>
    3713: 4c b9 3d     	jmp	$3db9 <donehypclosefile3+0xdea>
    3716: 5a           	phy
    3717: a5 04        	lda	$4                      ; 0x2004 <__heap_default_limit+0x1004>
    3719: a0 12        	ldy	#$12
    371b: 91 02        	sta	($2),y                  ; 0x2002 <__heap_default_limit+0x1002>
    371d: a5 05        	lda	$5                      ; 0x2005 <__heap_default_limit+0x1005>
    371f: c8           	iny
    3720: 91 02        	sta	($2),y                  ; 0x2002 <__heap_default_limit+0x1002>
    3722: 7a           	ply
    3723: 98           	tya
    3724: 5a           	phy
    3725: a0 11        	ldy	#$11
    3727: 91 02        	sta	($2),y                  ; 0x2002 <__heap_default_limit+0x1002>
    3729: 7a           	ply
    372a: 5a           	phy
    372b: fa           	plx
    372c: a0 18        	ldy	#$18
    372e: b1 02        	lda	($2),y                  ; 0x2002 <__heap_default_limit+0x1002>
    3730: 20 66 54     	jsr	$5466 <getdirententry>
    3733: a6 04        	ldx	$4                      ; 0x2004 <__heap_default_limit+0x1004>
    3735: 86 16        	stx	$16                     ; 0x2016 <next_line+0x1>
    3737: a6 05        	ldx	$5                      ; 0x2005 <__heap_default_limit+0x1005>
    3739: 86 17        	stx	$17                     ; 0x2017 <next_line+0x2>
    373b: a2 90        	ldx	#$90
    373d: 86 04        	stx	$4                      ; 0x2004 <__heap_default_limit+0x1004>
    373f: a2 79        	ldx	#$79
    3741: 86 05        	stx	$5                      ; 0x2005 <__heap_default_limit+0x1005>
    3743: a5 04        	lda	$4                      ; 0x2004 <__heap_default_limit+0x1004>
    3745: a0 23        	ldy	#$23
    3747: 91 02        	sta	($2),y                  ; 0x2002 <__heap_default_limit+0x1002>
    3749: a5 05        	lda	$5                      ; 0x2005 <__heap_default_limit+0x1005>
    374b: c8           	iny
    374c: 91 02        	sta	($2),y                  ; 0x2002 <__heap_default_limit+0x1002>
    374e: 88           	dey
    374f: b1 02        	lda	($2),y                  ; 0x2002 <__heap_default_limit+0x1002>
    3751: 85 04        	sta	$4                      ; 0x2004 <__heap_default_limit+0x1004>
    3753: c8           	iny
    3754: b1 02        	lda	($2),y                  ; 0x2002 <__heap_default_limit+0x1002>
    3756: 85 05        	sta	$5                      ; 0x2005 <__heap_default_limit+0x1005>
    3758: a2 e7        	ldx	#$e7
    375a: 86 06        	stx	$6                      ; 0x2006 <__heap_default_limit+0x1006>
    375c: a2 78        	ldx	#$78
    375e: 86 07        	stx	$7                      ; 0x2007 <__heap_default_limit+0x1007>
    3760: a9 14        	lda	#$14
    3762: 20 d7 59     	jsr	$59d7 <progress>
    3765: a0 1f        	ldy	#$1f
    3767: b1 02        	lda	($2),y                  ; 0x2002 <__heap_default_limit+0x1002>
    3769: 85 04        	sta	$4                      ; 0x2004 <__heap_default_limit+0x1004>
    376b: c8           	iny
    376c: b1 02        	lda	($2),y                  ; 0x2002 <__heap_default_limit+0x1002>
    376e: 85 05        	sta	$5                      ; 0x2005 <__heap_default_limit+0x1005>
    3770: b2 04        	lda	($4),z                  ; 0x2004 <__heap_default_limit+0x1004>
    3772: 85 08        	sta	$8                      ; 0x2008 <__heap_default_limit+0x1008>
    3774: a0 03        	ldy	#$3
    3776: b1 16        	lda	($16),y                 ; 0x2016 <next_line+0x1>
    3778: 85 09        	sta	$9                      ; 0x2009 <__heap_default_limit+0x1009>
    377a: a5 16        	lda	$16                     ; 0x2016 <next_line+0x1>
    377c: a0 21        	ldy	#$21
    377e: 91 02        	sta	($2),y                  ; 0x2002 <__heap_default_limit+0x1002>
    3780: a5 17        	lda	$17                     ; 0x2017 <next_line+0x2>
    3782: c8           	iny
    3783: 91 02        	sta	($2),y                  ; 0x2002 <__heap_default_limit+0x1002>
    3785: a0 04        	ldy	#$4
    3787: b1 16        	lda	($16),y                 ; 0x2016 <next_line+0x1>
    3789: 64 04        	stz	$4                      ; 0x2004 <__heap_default_limit+0x1004>
    378b: a2 08        	ldx	#$8
    378d: 86 05        	stx	$5                      ; 0x2005 <__heap_default_limit+0x1005>
    378f: a2 80        	ldx	#$80
    3791: 86 06        	stx	$6                      ; 0x2006 <__heap_default_limit+0x1006>
    3793: a2 0c        	ldx	#$c
    3795: 86 07        	stx	$7                      ; 0x2007 <__heap_default_limit+0x1007>
    3797: 85 0a        	sta	$a                      ; 0x200a <__heap_default_limit+0x100a>
    3799: a2 3c        	ldx	#$3c
    379b: a9 00        	lda	#$0
    379d: 20 85 4d     	jsr	$4d85 <readblockchain>
    37a0: a0 23        	ldy	#$23
    37a2: b1 02        	lda	($2),y                  ; 0x2002 <__heap_default_limit+0x1002>
    37a4: 85 04        	sta	$4                      ; 0x2004 <__heap_default_limit+0x1004>
    37a6: c8           	iny
    37a7: b1 02        	lda	($2),y                  ; 0x2002 <__heap_default_limit+0x1002>
    37a9: 85 05        	sta	$5                      ; 0x2005 <__heap_default_limit+0x1005>
    37ab: a2 56        	ldx	#$56
    37ad: 86 06        	stx	$6                      ; 0x2006 <__heap_default_limit+0x1006>
    37af: a2 73        	ldx	#$73
    37b1: 86 07        	stx	$7                      ; 0x2007 <__heap_default_limit+0x1007>
    37b3: a9 1e        	lda	#$1e
    37b5: 20 d7 59     	jsr	$59d7 <progress>
    37b8: a0 1c        	ldy	#$1c
    37ba: b1 02        	lda	($2),y                  ; 0x2002 <__heap_default_limit+0x1002>
    37bc: 20 f0 4c     	jsr	$4cf0 <GetBAM>
    37bf: a2 dd        	ldx	#$dd
    37c1: 86 04        	stx	$4                      ; 0x2004 <__heap_default_limit+0x1004>
    37c3: a2 77        	ldx	#$77
    37c5: 86 05        	stx	$5                      ; 0x2005 <__heap_default_limit+0x1005>
    37c7: a2 41        	ldx	#$41
    37c9: 86 06        	stx	$6                      ; 0x2006 <__heap_default_limit+0x1006>
    37cb: a2 71        	ldx	#$71
    37cd: 86 07        	stx	$7                      ; 0x2007 <__heap_default_limit+0x1007>
    37cf: a9 28        	lda	#$28
    37d1: 20 d7 59     	jsr	$59d7 <progress>
    37d4: a0 1d        	ldy	#$1d
    37d6: b1 02        	lda	($2),y                  ; 0x2002 <__heap_default_limit+0x1002>
    37d8: 85 04        	sta	$4                      ; 0x2004 <__heap_default_limit+0x1004>
    37da: c8           	iny
    37db: b1 02        	lda	($2),y                  ; 0x2002 <__heap_default_limit+0x1002>
    37dd: 85 05        	sta	$5                      ; 0x2005 <__heap_default_limit+0x1005>
    37df: b2 04        	lda	($4),z                  ; 0x2004 <__heap_default_limit+0x1004>
    37e1: a0 16        	ldy	#$16
    37e3: 91 02        	sta	($2),y                  ; 0x2002 <__heap_default_limit+0x1002>
    37e5: 18           	clc
    37e6: a5 02        	lda	$2                      ; 0x2002 <__heap_default_limit+0x1002>
    37e8: 69 28        	adc	#$28
    37ea: 85 1a        	sta	$1a                     ; 0x201a <next_line+0x5>
    37ec: a5 03        	lda	$3                      ; 0x2003 <__heap_default_limit+0x1003>
    37ee: 69 00        	adc	#$0
    37f0: 85 1b        	sta	$1b                     ; 0x201b <next_line+0x6>
    37f2: a9 00        	lda	#$0
    37f4: 92 1a        	sta	($1a),z                 ; 0x201a <next_line+0x5>
    37f6: 18           	clc
    37f7: a5 02        	lda	$2                      ; 0x2002 <__heap_default_limit+0x1002>
    37f9: 69 27        	adc	#$27
    37fb: 85 1c        	sta	$1c                     ; 0x201c <next_line+0x7>
    37fd: a5 03        	lda	$3                      ; 0x2003 <__heap_default_limit+0x1003>
    37ff: 69 00        	adc	#$0
    3801: 85 1d        	sta	$1d                     ; 0x201d <next_line+0x8>
    3803: a9 ff        	lda	#$ff
    3805: aa           	tax
    3806: 48           	pha
    3807: 8a           	txa
    3808: a0 23        	ldy	#$23
    380a: 91 02        	sta	($2),y                  ; 0x2002 <__heap_default_limit+0x1002>
    380c: 68           	pla
    380d: 92 1c        	sta	($1c),z                 ; 0x201c <next_line+0x7>
    380f: 18           	clc
    3810: a5 02        	lda	$2                      ; 0x2002 <__heap_default_limit+0x1002>
    3812: 69 26        	adc	#$26
    3814: 85 1e        	sta	$1e                     ; 0x201e <next_line+0x9>
    3816: a5 03        	lda	$3                      ; 0x2003 <__heap_default_limit+0x1003>
    3818: 69 00        	adc	#$0
    381a: 85 1f        	sta	$1f                     ; 0x201f <next_line+0xa>
    381c: a6 1e        	ldx	$1e                     ; 0x201e <next_line+0x9>
    381e: 86 04        	stx	$4                      ; 0x2004 <__heap_default_limit+0x1004>
    3820: 85 05        	sta	$5                      ; 0x2005 <__heap_default_limit+0x1005>
    3822: 18           	clc
    3823: a5 02        	lda	$2                      ; 0x2002 <__heap_default_limit+0x1002>
    3825: 69 25        	adc	#$25
    3827: 85 20        	sta	$20                     ; 0x2020 <next_line+0xb>
    3829: a5 03        	lda	$3                      ; 0x2003 <__heap_default_limit+0x1003>
    382b: 69 00        	adc	#$0
    382d: 85 21        	sta	$21                     ; 0x2021 <_start>
    382f: a6 20        	ldx	$20                     ; 0x2020 <next_line+0xb>
    3831: 86 06        	stx	$6                      ; 0x2006 <__heap_default_limit+0x1006>
    3833: 85 07        	sta	$7                      ; 0x2007 <__heap_default_limit+0x1007>
    3835: a9 00        	lda	#$0
    3837: 20 c1 52     	jsr	$52c1 <findnextBAMtracksector>
    383a: b2 1e        	lda	($1e),z                 ; 0x201e <next_line+0x9>
    383c: aa           	tax
    383d: b2 20        	lda	($20),z                 ; 0x2020 <next_line+0xb>
    383f: 64 20        	stz	$20                     ; 0x2020 <next_line+0xb>
    3841: 64 17        	stz	$17                     ; 0x2017 <next_line+0x2>
    3843: a0 17        	ldy	#$17
    3845: 91 02        	sta	($2),y                  ; 0x2002 <__heap_default_limit+0x1002>
    3847: 85 1e        	sta	$1e                     ; 0x201e <next_line+0x9>
    3849: 8a           	txa
    384a: 86 21        	stx	$21                     ; 0x2021 <_start>
    384c: a0 00        	ldy	#$0
    384e: 4c fc 38     	jmp	$38fc <donehypclosefile3+0x92d>
    3851: c0 0c        	cpy	#$c
    3853: 90 03        	bcc	$3858 <donehypclosefile3+0x889>
    3855: 4c 0c 39     	jmp	$390c <donehypclosefile3+0x93d>
    3858: 85 16        	sta	$16                     ; 0x2016 <next_line+0x1>
    385a: 18           	clc
    385b: a5 20        	lda	$20                     ; 0x2020 <next_line+0xb>
    385d: 69 3c        	adc	#$3c
    385f: 85 0c        	sta	$c                      ; 0x200c <__heap_default_limit+0x100c>
    3861: 84 1f        	sty	$1f                     ; 0x201f <next_line+0xa>
    3863: 98           	tya
    3864: 69 00        	adc	#$0
    3866: 85 04        	sta	$4                      ; 0x2004 <__heap_default_limit+0x1004>
    3868: a9 00        	lda	#$0
    386a: 69 08        	adc	#$8
    386c: 85 05        	sta	$5                      ; 0x2005 <__heap_default_limit+0x1005>
    386e: 64 06        	stz	$6                      ; 0x2006 <__heap_default_limit+0x1006>
    3870: a2 19        	ldx	#$19
    3872: 86 07        	stx	$7                      ; 0x2007 <__heap_default_limit+0x1007>
    3874: 64 08        	stz	$8                      ; 0x2008 <__heap_default_limit+0x1008>
    3876: 64 09        	stz	$9                      ; 0x2009 <__heap_default_limit+0x1009>
    3878: 64 0a        	stz	$a                      ; 0x200a <__heap_default_limit+0x100a>
    387a: a2 01        	ldx	#$1
    387c: 86 0b        	stx	$b                      ; 0x200b <__heap_default_limit+0x100b>
    387e: a6 0c        	ldx	$c                      ; 0x200c <__heap_default_limit+0x100c>
    3880: a9 00        	lda	#$0
    3882: 20 9e 69     	jsr	$699e <lcopy>
    3885: ae 00 19     	ldx	$1900                   ; 0x1900 <__heap_default_limit+0x900>
    3888: d0 03        	bne	$388d <donehypclosefile3+0x8be>
    388a: 4c d0 38     	jmp	$38d0 <donehypclosefile3+0x901>
    388d: a6 1a        	ldx	$1a                     ; 0x201a <next_line+0x5>
    388f: 86 04        	stx	$4                      ; 0x2004 <__heap_default_limit+0x1004>
    3891: a6 1b        	ldx	$1b                     ; 0x201b <next_line+0x6>
    3893: 86 05        	stx	$5                      ; 0x2005 <__heap_default_limit+0x1005>
    3895: a6 1c        	ldx	$1c                     ; 0x201c <next_line+0x7>
    3897: 86 06        	stx	$6                      ; 0x2006 <__heap_default_limit+0x1006>
    3899: a6 1d        	ldx	$1d                     ; 0x201d <next_line+0x8>
    389b: 86 07        	stx	$7                      ; 0x2007 <__heap_default_limit+0x1007>
    389d: a9 00        	lda	#$0
    389f: 20 c1 52     	jsr	$52c1 <findnextBAMtracksector>
    38a2: b2 1a        	lda	($1a),z                 ; 0x201a <next_line+0x5>
    38a4: 85 17        	sta	$17                     ; 0x2017 <next_line+0x2>
    38a6: b2 1a        	lda	($1a),z                 ; 0x201a <next_line+0x5>
    38a8: 8d 00 19     	sta	$1900                   ; 0x1900 <__heap_default_limit+0x900>
    38ab: b2 1c        	lda	($1c),z                 ; 0x201c <next_line+0x7>
    38ad: a0 23        	ldy	#$23
    38af: 91 02        	sta	($2),y                  ; 0x2002 <__heap_default_limit+0x1002>
    38b1: b2 1c        	lda	($1c),z                 ; 0x201c <next_line+0x7>
    38b3: 8d 01 19     	sta	$1901                   ; 0x1901 <__heap_default_limit+0x901>
    38b6: a5 17        	lda	$17                     ; 0x2017 <next_line+0x2>
    38b8: f0 14        	beq	$38ce <donehypclosefile3+0x8ff>
    38ba: a6 16        	ldx	$16                     ; 0x2016 <next_line+0x1>
    38bc: e4 17        	cpx	$17                     ; 0x2017 <next_line+0x2>
    38be: d0 10        	bne	$38d0 <donehypclosefile3+0x901>
    38c0: b1 02        	lda	($2),y                  ; 0x2002 <__heap_default_limit+0x1002>
    38c2: 45 1e        	eor	$1e                     ; 0x201e <next_line+0x9>
    38c4: c9 02        	cmp	#$2
    38c6: 90 03        	bcc	$38cb <donehypclosefile3+0x8fc>
    38c8: 4c 3d 3a     	jmp	$3a3d <donehypclosefile3+0xa6e>
    38cb: 4c b6 39     	jmp	$39b6 <donehypclosefile3+0x9e7>
    38ce: 64 17        	stz	$17                     ; 0x2017 <next_line+0x2>
    38d0: a2 00        	ldx	#$0
    38d2: 86 04        	stx	$4                      ; 0x2004 <__heap_default_limit+0x1004>
    38d4: a2 19        	ldx	#$19
    38d6: 86 05        	stx	$5                      ; 0x2005 <__heap_default_limit+0x1005>
    38d8: a6 1e        	ldx	$1e                     ; 0x201e <next_line+0x9>
    38da: 86 06        	stx	$6                      ; 0x2006 <__heap_default_limit+0x1006>
    38dc: a6 16        	ldx	$16                     ; 0x2016 <next_line+0x1>
    38de: a0 16        	ldy	#$16
    38e0: b1 02        	lda	($2),y                  ; 0x2002 <__heap_default_limit+0x1002>
    38e2: 20 9f 4c     	jsr	$4c9f <PutOneSector>
    38e5: ae 00 19     	ldx	$1900                   ; 0x1900 <__heap_default_limit+0x900>
    38e8: a4 1f        	ldy	$1f                     ; 0x201f <next_line+0xa>
    38ea: 8a           	txa
    38eb: f0 1f        	beq	$390c <donehypclosefile3+0x93d>
    38ed: e6 20        	inc	$20                     ; 0x2020 <next_line+0xb>
    38ef: d0 01        	bne	$38f2 <donehypclosefile3+0x923>
    38f1: c8           	iny
    38f2: 5a           	phy
    38f3: a0 23        	ldy	#$23
    38f5: b1 02        	lda	($2),y                  ; 0x2002 <__heap_default_limit+0x1002>
    38f7: 7a           	ply
    38f8: 85 1e        	sta	$1e                     ; 0x201e <next_line+0x9>
    38fa: a5 17        	lda	$17                     ; 0x2017 <next_line+0x2>
    38fc: c0 0c        	cpy	#$c
    38fe: f0 03        	beq	$3903 <donehypclosefile3+0x934>
    3900: 4c 51 38     	jmp	$3851 <donehypclosefile3+0x882>
    3903: a6 20        	ldx	$20                     ; 0x2020 <next_line+0xb>
    3905: e0 80        	cpx	#$80
    3907: b0 03        	bcs	$390c <donehypclosefile3+0x93d>
    3909: 4c 58 38     	jmp	$3858 <donehypclosefile3+0x889>
    390c: a5 17        	lda	$17                     ; 0x2017 <next_line+0x2>
    390e: d0 03        	bne	$3913 <donehypclosefile3+0x944>
    3910: 4c 47 39     	jmp	$3947 <donehypclosefile3+0x978>
    3913: c0 0c        	cpy	#$c
    3915: f0 03        	beq	$391a <donehypclosefile3+0x94b>
    3917: 4c ac 39     	jmp	$39ac <donehypclosefile3+0x9dd>
    391a: a6 20        	ldx	$20                     ; 0x2020 <next_line+0xb>
    391c: e0 80        	cpx	#$80
    391e: 90 27        	bcc	$3947 <donehypclosefile3+0x978>
    3920: a2 d9        	ldx	#$d9
    3922: 86 04        	stx	$4                      ; 0x2004 <__heap_default_limit+0x1004>
    3924: a2 78        	ldx	#$78
    3926: 86 05        	stx	$5                      ; 0x2005 <__heap_default_limit+0x1005>
    3928: a2 75        	ldx	#$75
    392a: 86 06        	stx	$6                      ; 0x2006 <__heap_default_limit+0x1006>
    392c: a2 70        	ldx	#$70
    392e: 86 07        	stx	$7                      ; 0x2007 <__heap_default_limit+0x1007>
    3930: a2 2b        	ldx	#$2b
    3932: 86 08        	stx	$8                      ; 0x2008 <__heap_default_limit+0x1008>
    3934: a2 73        	ldx	#$73
    3936: 86 09        	stx	$9                      ; 0x2009 <__heap_default_limit+0x1009>
    3938: a2 0c        	ldx	#$c
    393a: 86 0a        	stx	$a                      ; 0x200a <__heap_default_limit+0x100a>
    393c: 64 0b        	stz	$b                      ; 0x200b <__heap_default_limit+0x100b>
    393e: 64 0c        	stz	$c                      ; 0x200c <__heap_default_limit+0x100c>
    3940: a2 80        	ldx	#$80
    3942: a9 03        	lda	#$3
    3944: 20 80 58     	jsr	$5880 <messagebox>
    3947: a0 03        	ldy	#$3
    3949: a5 21        	lda	$21                     ; 0x2021 <_start>
    394b: 48           	pha
    394c: 5a           	phy
    394d: a0 21        	ldy	#$21
    394f: b1 02        	lda	($2),y                  ; 0x2002 <__heap_default_limit+0x1002>
    3951: 85 06        	sta	$6                      ; 0x2006 <__heap_default_limit+0x1006>
    3953: c8           	iny
    3954: b1 02        	lda	($2),y                  ; 0x2002 <__heap_default_limit+0x1002>
    3956: 7a           	ply
    3957: 85 07        	sta	$7                      ; 0x2007 <__heap_default_limit+0x1007>
    3959: 68           	pla
    395a: 91 06        	sta	($6),y                  ; 0x2006 <__heap_default_limit+0x1006>
    395c: a0 17        	ldy	#$17
    395e: b1 02        	lda	($2),y                  ; 0x2002 <__heap_default_limit+0x1002>
    3960: a0 04        	ldy	#$4
    3962: 91 06        	sta	($6),y                  ; 0x2006 <__heap_default_limit+0x1006>
    3964: a2 dd        	ldx	#$dd
    3966: 86 04        	stx	$4                      ; 0x2004 <__heap_default_limit+0x1004>
    3968: a2 77        	ldx	#$77
    396a: 86 05        	stx	$5                      ; 0x2005 <__heap_default_limit+0x1005>
    396c: a2 25        	ldx	#$25
    396e: 86 06        	stx	$6                      ; 0x2006 <__heap_default_limit+0x1006>
    3970: a2 7a        	ldx	#$7a
    3972: 86 07        	stx	$7                      ; 0x2007 <__heap_default_limit+0x1007>
    3974: a9 3c        	lda	#$3c
    3976: 20 d7 59     	jsr	$59d7 <progress>
    3979: a0 1d        	ldy	#$1d
    397b: b1 02        	lda	($2),y                  ; 0x2002 <__heap_default_limit+0x1002>
    397d: 85 06        	sta	$6                      ; 0x2006 <__heap_default_limit+0x1006>
    397f: c8           	iny
    3980: b1 02        	lda	($2),y                  ; 0x2002 <__heap_default_limit+0x1002>
    3982: 85 07        	sta	$7                      ; 0x2007 <__heap_default_limit+0x1007>
    3984: b2 06        	lda	($6),z                  ; 0x2006 <__heap_default_limit+0x1006>
    3986: a0 10        	ldy	#$10
    3988: 91 02        	sta	($2),y                  ; 0x2002 <__heap_default_limit+0x1002>
    398a: a0 47        	ldy	#$47
    398c: b1 06        	lda	($6),y                  ; 0x2006 <__heap_default_limit+0x1006>
    398e: a0 15        	ldy	#$15
    3990: 91 02        	sta	($2),y                  ; 0x2002 <__heap_default_limit+0x1002>
    3992: a2 03        	ldx	#$3
    3994: 8a           	txa
    3995: c8           	iny
    3996: 91 02        	sta	($2),y                  ; 0x2002 <__heap_default_limit+0x1002>
    3998: a2 08        	ldx	#$8
    399a: 8a           	txa
    399b: a0 23        	ldy	#$23
    399d: 91 02        	sta	($2),y                  ; 0x2002 <__heap_default_limit+0x1002>
    399f: 64 20        	stz	$20                     ; 0x2020 <next_line+0xb>
    39a1: 64 1c        	stz	$1c                     ; 0x201c <next_line+0x7>
    39a3: 64 1f        	stz	$1f                     ; 0x201f <next_line+0xa>
    39a5: a0 00        	ldy	#$0
    39a7: 64 05        	stz	$5                      ; 0x2005 <__heap_default_limit+0x1005>
    39a9: 4c 05 3b     	jmp	$3b05 <donehypclosefile3+0xb36>
    39ac: c0 0c        	cpy	#$c
    39ae: 90 03        	bcc	$39b3 <donehypclosefile3+0x9e4>
    39b0: 4c 20 39     	jmp	$3920 <donehypclosefile3+0x951>
    39b3: 4c 47 39     	jmp	$3947 <donehypclosefile3+0x978>
    39b6: a6 20        	ldx	$20                     ; 0x2020 <next_line+0xb>
    39b8: a4 1f        	ldy	$1f                     ; 0x201f <next_line+0xa>
    39ba: e8           	inx
    39bb: d0 01        	bne	$39be <donehypclosefile3+0x9ef>
    39bd: c8           	iny
    39be: 86 20        	stx	$20                     ; 0x2020 <next_line+0xb>
    39c0: 8a           	txa
    39c1: 18           	clc
    39c2: 69 3c        	adc	#$3c
    39c4: 85 0c        	sta	$c                      ; 0x200c <__heap_default_limit+0x100c>
    39c6: 84 1f        	sty	$1f                     ; 0x201f <next_line+0xa>
    39c8: 98           	tya
    39c9: 69 00        	adc	#$0
    39cb: 85 04        	sta	$4                      ; 0x2004 <__heap_default_limit+0x1004>
    39cd: a9 00        	lda	#$0
    39cf: 69 08        	adc	#$8
    39d1: 85 05        	sta	$5                      ; 0x2005 <__heap_default_limit+0x1005>
    39d3: 64 06        	stz	$6                      ; 0x2006 <__heap_default_limit+0x1006>
    39d5: a2 1a        	ldx	#$1a
    39d7: 86 07        	stx	$7                      ; 0x2007 <__heap_default_limit+0x1007>
    39d9: 64 08        	stz	$8                      ; 0x2008 <__heap_default_limit+0x1008>
    39db: 64 09        	stz	$9                      ; 0x2009 <__heap_default_limit+0x1009>
    39dd: 64 0a        	stz	$a                      ; 0x200a <__heap_default_limit+0x100a>
    39df: a2 01        	ldx	#$1
    39e1: 86 0b        	stx	$b                      ; 0x200b <__heap_default_limit+0x100b>
    39e3: a6 0c        	ldx	$c                      ; 0x200c <__heap_default_limit+0x100c>
    39e5: a9 00        	lda	#$0
    39e7: 20 9e 69     	jsr	$699e <lcopy>
    39ea: ae 00 1a     	ldx	$1a00                   ; 0x1a00 <__heap_default_limit+0xa00>
    39ed: a5 16        	lda	$16                     ; 0x2016 <next_line+0x1>
    39ef: 85 17        	sta	$17                     ; 0x2017 <next_line+0x2>
    39f1: e0 00        	cpx	#$0
    39f3: f0 2b        	beq	$3a20 <donehypclosefile3+0xa51>
    39f5: a6 1a        	ldx	$1a                     ; 0x201a <next_line+0x5>
    39f7: 86 04        	stx	$4                      ; 0x2004 <__heap_default_limit+0x1004>
    39f9: a6 1b        	ldx	$1b                     ; 0x201b <next_line+0x6>
    39fb: 86 05        	stx	$5                      ; 0x2005 <__heap_default_limit+0x1005>
    39fd: a6 1c        	ldx	$1c                     ; 0x201c <next_line+0x7>
    39ff: 86 06        	stx	$6                      ; 0x2006 <__heap_default_limit+0x1006>
    3a01: a6 1d        	ldx	$1d                     ; 0x201d <next_line+0x8>
    3a03: 86 07        	stx	$7                      ; 0x2007 <__heap_default_limit+0x1007>
    3a05: a9 00        	lda	#$0
    3a07: 20 c1 52     	jsr	$52c1 <findnextBAMtracksector>
    3a0a: b2 1a        	lda	($1a),z                 ; 0x201a <next_line+0x5>
    3a0c: 85 17        	sta	$17                     ; 0x2017 <next_line+0x2>
    3a0e: b2 1a        	lda	($1a),z                 ; 0x201a <next_line+0x5>
    3a10: 8d 00 1a     	sta	$1a00                   ; 0x1a00 <__heap_default_limit+0xa00>
    3a13: b2 1c        	lda	($1c),z                 ; 0x201c <next_line+0x7>
    3a15: a0 23        	ldy	#$23
    3a17: 91 02        	sta	($2),y                  ; 0x2002 <__heap_default_limit+0x1002>
    3a19: b2 1c        	lda	($1c),z                 ; 0x201c <next_line+0x7>
    3a1b: 8d 01 1a     	sta	$1a01                   ; 0x1a01 <__heap_default_limit+0xa01>
    3a1e: a5 16        	lda	$16                     ; 0x2016 <next_line+0x1>
    3a20: a2 00        	ldx	#$0
    3a22: 86 04        	stx	$4                      ; 0x2004 <__heap_default_limit+0x1004>
    3a24: a2 19        	ldx	#$19
    3a26: 86 05        	stx	$5                      ; 0x2005 <__heap_default_limit+0x1005>
    3a28: a6 1e        	ldx	$1e                     ; 0x201e <next_line+0x9>
    3a2a: 86 06        	stx	$6                      ; 0x2006 <__heap_default_limit+0x1006>
    3a2c: aa           	tax
    3a2d: a0 16        	ldy	#$16
    3a2f: b1 02        	lda	($2),y                  ; 0x2002 <__heap_default_limit+0x1002>
    3a31: 20 1b 4c     	jsr	$4c1b <PutWholeSector>
    3a34: ae 00 1a     	ldx	$1a00                   ; 0x1a00 <__heap_default_limit+0xa00>
    3a37: 8e 00 19     	stx	$1900                   ; 0x1900 <__heap_default_limit+0x900>
    3a3a: 4c e8 38     	jmp	$38e8 <donehypclosefile3+0x919>
    3a3d: a6 16        	ldx	$16                     ; 0x2016 <next_line+0x1>
    3a3f: 86 17        	stx	$17                     ; 0x2017 <next_line+0x2>
    3a41: 4c d0 38     	jmp	$38d0 <donehypclosefile3+0x901>
    3a44: 85 04        	sta	$4                      ; 0x2004 <__heap_default_limit+0x1004>
    3a46: e4 04        	cpx	$4                      ; 0x2004 <__heap_default_limit+0x1004>
    3a48: 90 03        	bcc	$3a4d <donehypclosefile3+0xa7e>
    3a4a: 4c 55 3b     	jmp	$3b55 <donehypclosefile3+0xb86>
    3a4d: 85 1b        	sta	$1b                     ; 0x201b <next_line+0x6>
    3a4f: 84 1a        	sty	$1a                     ; 0x201a <next_line+0x5>
    3a51: a0 14        	ldy	#$14
    3a53: b1 02        	lda	($2),y                  ; 0x2002 <__heap_default_limit+0x1002>
    3a55: 85 06        	sta	$6                      ; 0x2006 <__heap_default_limit+0x1006>
    3a57: 18           	clc
    3a58: 65 1e        	adc	$1e                     ; 0x201e <next_line+0x9>
    3a5a: 85 0c        	sta	$c                      ; 0x200c <__heap_default_limit+0x100c>
    3a5c: a0 1b        	ldy	#$1b
    3a5e: b1 02        	lda	($2),y                  ; 0x2002 <__heap_default_limit+0x1002>
    3a60: 65 08        	adc	$8                      ; 0x2008 <__heap_default_limit+0x1008>
    3a62: 85 0d        	sta	$d                      ; 0x200d <__heap_default_limit+0x100d>
    3a64: a5 06        	lda	$6                      ; 0x2006 <__heap_default_limit+0x1006>
    3a66: 69 00        	adc	#$0
    3a68: a8           	tay
    3a69: 5a           	phy
    3a6a: a0 19        	ldy	#$19
    3a6c: b1 02        	lda	($2),y                  ; 0x2002 <__heap_default_limit+0x1002>
    3a6e: 7a           	ply
    3a6f: 69 00        	adc	#$0
    3a71: 84 19        	sty	$19                     ; 0x2019 <next_line+0x4>
    3a73: 84 04        	sty	$4                      ; 0x2004 <__heap_default_limit+0x1004>
    3a75: 85 1d        	sta	$1d                     ; 0x201d <next_line+0x8>
    3a77: 85 05        	sta	$5                      ; 0x2005 <__heap_default_limit+0x1005>
    3a79: a0 e1        	ldy	#$e1
    3a7b: 84 06        	sty	$6                      ; 0x2006 <__heap_default_limit+0x1006>
    3a7d: a0 1b        	ldy	#$1b
    3a7f: 84 07        	sty	$7                      ; 0x2007 <__heap_default_limit+0x1007>
    3a81: 64 08        	stz	$8                      ; 0x2008 <__heap_default_limit+0x1008>
    3a83: 64 09        	stz	$9                      ; 0x2009 <__heap_default_limit+0x1009>
    3a85: a0 20        	ldy	#$20
    3a87: 84 0a        	sty	$a                      ; 0x200a <__heap_default_limit+0x100a>
    3a89: 64 0b        	stz	$b                      ; 0x200b <__heap_default_limit+0x100b>
    3a8b: a6 0d        	ldx	$d                      ; 0x200d <__heap_default_limit+0x100d>
    3a8d: 86 18        	stx	$18                     ; 0x2018 <next_line+0x3>
    3a8f: a5 0c        	lda	$c                      ; 0x200c <__heap_default_limit+0x100c>
    3a91: 85 17        	sta	$17                     ; 0x2017 <next_line+0x2>
    3a93: 20 9e 69     	jsr	$699e <lcopy>
    3a96: a5 1a        	lda	$1a                     ; 0x201a <next_line+0x5>
    3a98: 29 07        	and	#$7
    3a9a: f0 11        	beq	$3aad <donehypclosefile3+0xade>
    3a9c: a0 01        	ldy	#$1
    3a9e: 5a           	phy
    3a9f: a0 1f        	ldy	#$1f
    3aa1: b1 02        	lda	($2),y                  ; 0x2002 <__heap_default_limit+0x1002>
    3aa3: 85 06        	sta	$6                      ; 0x2006 <__heap_default_limit+0x1006>
    3aa5: c8           	iny
    3aa6: b1 02        	lda	($2),y                  ; 0x2002 <__heap_default_limit+0x1002>
    3aa8: 7a           	ply
    3aa9: 85 07        	sta	$7                      ; 0x2007 <__heap_default_limit+0x1007>
    3aab: 80 28        	bra	$3ad5 <donehypclosefile3+0xb06>
    3aad: a6 1a        	ldx	$1a                     ; 0x201a <next_line+0x5>
    3aaf: a0 01        	ldy	#$1
    3ab1: 5a           	phy
    3ab2: a0 1f        	ldy	#$1f
    3ab4: b1 02        	lda	($2),y                  ; 0x2002 <__heap_default_limit+0x1002>
    3ab6: 85 06        	sta	$6                      ; 0x2006 <__heap_default_limit+0x1006>
    3ab8: c8           	iny
    3ab9: b1 02        	lda	($2),y                  ; 0x2002 <__heap_default_limit+0x1002>
    3abb: 7a           	ply
    3abc: 85 07        	sta	$7                      ; 0x2007 <__heap_default_limit+0x1007>
    3abe: a5 1a        	lda	$1a                     ; 0x201a <next_line+0x5>
    3ac0: d0 03        	bne	$3ac5 <donehypclosefile3+0xaf6>
    3ac2: 4c bd 3d     	jmp	$3dbd <donehypclosefile3+0xdee>
    3ac5: 86 1f        	stx	$1f                     ; 0x201f <next_line+0xa>
    3ac7: 5a           	phy
    3ac8: a5 1c        	lda	$1c                     ; 0x201c <next_line+0x7>
    3aca: a0 15        	ldy	#$15
    3acc: 91 02        	sta	($2),y                  ; 0x2002 <__heap_default_limit+0x1002>
    3ace: a6 20        	ldx	$20                     ; 0x2020 <next_line+0xb>
    3ad0: 8a           	txa
    3ad1: c8           	iny
    3ad2: 91 02        	sta	($2),y                  ; 0x2002 <__heap_default_limit+0x1002>
    3ad4: 7a           	ply
    3ad5: ae e1 1b     	ldx	$1be1                   ; 0x1be1 <__heap_default_limit+0xbe1>
    3ad8: f0 1a        	beq	$3af4 <donehypclosefile3+0xb25>
    3ada: 18           	clc
    3adb: 86 1c        	stx	$1c                     ; 0x201c <next_line+0x7>
    3add: 5a           	phy
    3ade: a0 23        	ldy	#$23
    3ae0: b1 02        	lda	($2),y                  ; 0x2002 <__heap_default_limit+0x1002>
    3ae2: 69 08        	adc	#$8
    3ae4: 91 02        	sta	($2),y                  ; 0x2002 <__heap_default_limit+0x1002>
    3ae6: 7a           	ply
    3ae7: a5 1b        	lda	$1b                     ; 0x201b <next_line+0x6>
    3ae9: 69 00        	adc	#$0
    3aeb: 85 1b        	sta	$1b                     ; 0x201b <next_line+0x6>
    3aed: ae e2 1b     	ldx	$1be2                   ; 0x1be2 <__heap_default_limit+0xbe2>
    3af0: 86 20        	stx	$20                     ; 0x2020 <next_line+0xb>
    3af2: a6 1c        	ldx	$1c                     ; 0x201c <next_line+0x7>
    3af4: a9 0f        	lda	#$f
    3af6: 2d e3 1b     	and	$1be3                   ; 0x1be3 <__heap_default_limit+0xbe3>
    3af9: d0 03        	bne	$3afe <donehypclosefile3+0xb2f>
    3afb: 4c c2 3d     	jmp	$3dc2 <donehypclosefile3+0xdf3>
    3afe: a4 1a        	ldy	$1a                     ; 0x201a <next_line+0x5>
    3b00: c8           	iny
    3b01: a6 1b        	ldx	$1b                     ; 0x201b <next_line+0x6>
    3b03: 86 05        	stx	$5                      ; 0x2005 <__heap_default_limit+0x1005>
    3b05: 98           	tya
    3b06: 4a           	lsr
    3b07: a2 01        	ldx	#$1
    3b09: b0 02        	bcs	$3b0d <donehypclosefile3+0xb3e>
    3b0b: a2 00        	ldx	#$0
    3b0d: 86 06        	stx	$6                      ; 0x2006 <__heap_default_limit+0x1006>
    3b0f: 4a           	lsr
    3b10: a2 01        	ldx	#$1
    3b12: b0 02        	bcs	$3b16 <donehypclosefile3+0xb47>
    3b14: a2 00        	ldx	#$0
    3b16: 86 08        	stx	$8                      ; 0x2008 <__heap_default_limit+0x1008>
    3b18: 85 04        	sta	$4                      ; 0x2004 <__heap_default_limit+0x1004>
    3b1a: 64 1e        	stz	$1e                     ; 0x201e <next_line+0x9>
    3b1c: a6 06        	ldx	$6                      ; 0x2006 <__heap_default_limit+0x1006>
    3b1e: e0 01        	cpx	#$1
    3b20: 66 1e        	ror	$1e                     ; 0x201e <next_line+0x9>
    3b22: 46 04        	lsr	$4                      ; 0x2004 <__heap_default_limit+0x1004>
    3b24: 48           	pha
    3b25: a5 04        	lda	$4                      ; 0x2004 <__heap_default_limit+0x1004>
    3b27: 5a           	phy
    3b28: a0 17        	ldy	#$17
    3b2a: 91 02        	sta	($2),y                  ; 0x2002 <__heap_default_limit+0x1002>
    3b2c: 7a           	ply
    3b2d: 68           	pla
    3b2e: a6 08        	ldx	$8                      ; 0x2008 <__heap_default_limit+0x1008>
    3b30: e0 01        	cpx	#$1
    3b32: 66 1e        	ror	$1e                     ; 0x201e <next_line+0x9>
    3b34: 4a           	lsr
    3b35: 85 08        	sta	$8                      ; 0x2008 <__heap_default_limit+0x1008>
    3b37: 66 1e        	ror	$1e                     ; 0x201e <next_line+0x9>
    3b39: a2 00        	ldx	#$0
    3b3b: a5 05        	lda	$5                      ; 0x2005 <__heap_default_limit+0x1005>
    3b3d: e4 05        	cpx	$5                      ; 0x2005 <__heap_default_limit+0x1005>
    3b3f: f0 03        	beq	$3b44 <donehypclosefile3+0xb75>
    3b41: 4c 44 3a     	jmp	$3a44 <donehypclosefile3+0xa75>
    3b44: 48           	pha
    3b45: 5a           	phy
    3b46: a0 23        	ldy	#$23
    3b48: b1 02        	lda	($2),y                  ; 0x2002 <__heap_default_limit+0x1002>
    3b4a: 7a           	ply
    3b4b: 85 04        	sta	$4                      ; 0x2004 <__heap_default_limit+0x1004>
    3b4d: 68           	pla
    3b4e: c4 04        	cpy	$4                      ; 0x2004 <__heap_default_limit+0x1004>
    3b50: b0 03        	bcs	$3b55 <donehypclosefile3+0xb86>
    3b52: 4c 4d 3a     	jmp	$3a4d <donehypclosefile3+0xa7e>
    3b55: 18           	clc
    3b56: a5 02        	lda	$2                      ; 0x2002 <__heap_default_limit+0x1002>
    3b58: 69 2a        	adc	#$2a
    3b5a: 85 1a        	sta	$1a                     ; 0x201a <next_line+0x5>
    3b5c: a5 03        	lda	$3                      ; 0x2003 <__heap_default_limit+0x1003>
    3b5e: 69 00        	adc	#$0
    3b60: 85 1b        	sta	$1b                     ; 0x201b <next_line+0x6>
    3b62: a5 1c        	lda	$1c                     ; 0x201c <next_line+0x7>
    3b64: 92 1a        	sta	($1a),z                 ; 0x201a <next_line+0x5>
    3b66: 18           	clc
    3b67: a5 02        	lda	$2                      ; 0x2002 <__heap_default_limit+0x1002>
    3b69: 69 29        	adc	#$29
    3b6b: 85 1c        	sta	$1c                     ; 0x201c <next_line+0x7>
    3b6d: a5 03        	lda	$3                      ; 0x2003 <__heap_default_limit+0x1003>
    3b6f: 69 00        	adc	#$0
    3b71: 85 1d        	sta	$1d                     ; 0x201d <next_line+0x8>
    3b73: a5 20        	lda	$20                     ; 0x2020 <next_line+0xb>
    3b75: 92 1c        	sta	($1c),z                 ; 0x201c <next_line+0x7>
    3b77: 46 1f        	lsr	$1f                     ; 0x201f <next_line+0xa>
    3b79: a9 00        	lda	#$0
    3b7b: 6a           	ror
    3b7c: 46 1f        	lsr	$1f                     ; 0x201f <next_line+0xa>
    3b7e: 6a           	ror
    3b7f: a6 1f        	ldx	$1f                     ; 0x201f <next_line+0xa>
    3b81: 86 04        	stx	$4                      ; 0x2004 <__heap_default_limit+0x1004>
    3b83: 46 04        	lsr	$4                      ; 0x2004 <__heap_default_limit+0x1004>
    3b85: 6a           	ror
    3b86: 85 05        	sta	$5                      ; 0x2005 <__heap_default_limit+0x1005>
    3b88: a5 1e        	lda	$1e                     ; 0x201e <next_line+0x9>
    3b8a: a0 09        	ldy	#$9
    3b8c: 91 02        	sta	($2),y                  ; 0x2002 <__heap_default_limit+0x1002>
    3b8e: a0 14        	ldy	#$14
    3b90: b1 02        	lda	($2),y                  ; 0x2002 <__heap_default_limit+0x1002>
    3b92: 85 1e        	sta	$1e                     ; 0x201e <next_line+0x9>
    3b94: a0 0e        	ldy	#$e
    3b96: 91 02        	sta	($2),y                  ; 0x2002 <__heap_default_limit+0x1002>
    3b98: 48           	pha
    3b99: a0 21        	ldy	#$21
    3b9b: b1 02        	lda	($2),y                  ; 0x2002 <__heap_default_limit+0x1002>
    3b9d: 85 20        	sta	$20                     ; 0x2020 <next_line+0xb>
    3b9f: c8           	iny
    3ba0: b1 02        	lda	($2),y                  ; 0x2002 <__heap_default_limit+0x1002>
    3ba2: 85 21        	sta	$21                     ; 0x2021 <_start>
    3ba4: 68           	pla
    3ba5: 18           	clc
    3ba6: 65 05        	adc	$5                      ; 0x2005 <__heap_default_limit+0x1005>
    3ba8: 85 18        	sta	$18                     ; 0x2018 <next_line+0x3>
    3baa: a0 1b        	ldy	#$1b
    3bac: b1 02        	lda	($2),y                  ; 0x2002 <__heap_default_limit+0x1002>
    3bae: a0 0d        	ldy	#$d
    3bb0: 91 02        	sta	($2),y                  ; 0x2002 <__heap_default_limit+0x1002>
    3bb2: 65 04        	adc	$4                      ; 0x2004 <__heap_default_limit+0x1004>
    3bb4: 85 16        	sta	$16                     ; 0x2016 <next_line+0x1>
    3bb6: a5 1e        	lda	$1e                     ; 0x201e <next_line+0x9>
    3bb8: a0 08        	ldy	#$8
    3bba: 91 02        	sta	($2),y                  ; 0x2002 <__heap_default_limit+0x1002>
    3bbc: 69 00        	adc	#$0
    3bbe: 85 19        	sta	$19                     ; 0x2019 <next_line+0x4>
    3bc0: a0 19        	ldy	#$19
    3bc2: b1 02        	lda	($2),y                  ; 0x2002 <__heap_default_limit+0x1002>
    3bc4: a0 0c        	ldy	#$c
    3bc6: 91 02        	sta	($2),y                  ; 0x2002 <__heap_default_limit+0x1002>
    3bc8: 69 00        	adc	#$0
    3bca: 85 17        	sta	$17                     ; 0x2017 <next_line+0x2>
    3bcc: a6 19        	ldx	$19                     ; 0x2019 <next_line+0x4>
    3bce: 86 04        	stx	$4                      ; 0x2004 <__heap_default_limit+0x1004>
    3bd0: 85 05        	sta	$5                      ; 0x2005 <__heap_default_limit+0x1005>
    3bd2: a2 e1        	ldx	#$e1
    3bd4: 86 06        	stx	$6                      ; 0x2006 <__heap_default_limit+0x1006>
    3bd6: a2 1b        	ldx	#$1b
    3bd8: 86 07        	stx	$7                      ; 0x2007 <__heap_default_limit+0x1007>
    3bda: a5 08        	lda	$8                      ; 0x2008 <__heap_default_limit+0x1008>
    3bdc: 88           	dey
    3bdd: 91 02        	sta	($2),y                  ; 0x2002 <__heap_default_limit+0x1002>
    3bdf: 64 08        	stz	$8                      ; 0x2008 <__heap_default_limit+0x1008>
    3be1: 64 09        	stz	$9                      ; 0x2009 <__heap_default_limit+0x1009>
    3be3: a2 20        	ldx	#$20
    3be5: 86 0a        	stx	$a                      ; 0x200a <__heap_default_limit+0x100a>
    3be7: 64 0b        	stz	$b                      ; 0x200b <__heap_default_limit+0x100b>
    3be9: a6 16        	ldx	$16                     ; 0x2016 <next_line+0x1>
    3beb: a5 18        	lda	$18                     ; 0x2018 <next_line+0x3>
    3bed: 20 9e 69     	jsr	$699e <lcopy>
    3bf0: a6 1a        	ldx	$1a                     ; 0x201a <next_line+0x5>
    3bf2: 86 04        	stx	$4                      ; 0x2004 <__heap_default_limit+0x1004>
    3bf4: a6 1b        	ldx	$1b                     ; 0x201b <next_line+0x6>
    3bf6: 86 05        	stx	$5                      ; 0x2005 <__heap_default_limit+0x1005>
    3bf8: a6 1c        	ldx	$1c                     ; 0x201c <next_line+0x7>
    3bfa: 86 06        	stx	$6                      ; 0x2006 <__heap_default_limit+0x1006>
    3bfc: a6 1d        	ldx	$1d                     ; 0x201d <next_line+0x8>
    3bfe: 86 07        	stx	$7                      ; 0x2007 <__heap_default_limit+0x1007>
    3c00: a9 01        	lda	#$1
    3c02: 20 c1 52     	jsr	$52c1 <findnextBAMtracksector>
    3c05: b2 1a        	lda	($1a),z                 ; 0x201a <next_line+0x5>
    3c07: a0 0f        	ldy	#$f
    3c09: 91 02        	sta	($2),y                  ; 0x2002 <__heap_default_limit+0x1002>
    3c0b: b2 1a        	lda	($1a),z                 ; 0x201a <next_line+0x5>
    3c0d: 8d e1 1b     	sta	$1be1                   ; 0x1be1 <__heap_default_limit+0xbe1>
    3c10: b2 1c        	lda	($1c),z                 ; 0x201c <next_line+0x7>
    3c12: a0 0a        	ldy	#$a
    3c14: 91 02        	sta	($2),y                  ; 0x2002 <__heap_default_limit+0x1002>
    3c16: b2 1c        	lda	($1c),z                 ; 0x201c <next_line+0x7>
    3c18: 8d e2 1b     	sta	$1be2                   ; 0x1be2 <__heap_default_limit+0xbe2>
    3c1b: a6 18        	ldx	$18                     ; 0x2018 <next_line+0x3>
    3c1d: 86 06        	stx	$6                      ; 0x2006 <__heap_default_limit+0x1006>
    3c1f: a6 16        	ldx	$16                     ; 0x2016 <next_line+0x1>
    3c21: 86 07        	stx	$7                      ; 0x2007 <__heap_default_limit+0x1007>
    3c23: 64 04        	stz	$4                      ; 0x2004 <__heap_default_limit+0x1004>
    3c25: 64 05        	stz	$5                      ; 0x2005 <__heap_default_limit+0x1005>
    3c27: a6 19        	ldx	$19                     ; 0x2019 <next_line+0x4>
    3c29: 86 08        	stx	$8                      ; 0x2008 <__heap_default_limit+0x1008>
    3c2b: a6 17        	ldx	$17                     ; 0x2017 <next_line+0x2>
    3c2d: 86 09        	stx	$9                      ; 0x2009 <__heap_default_limit+0x1009>
    3c2f: a2 20        	ldx	#$20
    3c31: 86 0a        	stx	$a                      ; 0x200a <__heap_default_limit+0x100a>
    3c33: 64 0b        	stz	$b                      ; 0x200b <__heap_default_limit+0x100b>
    3c35: a2 1b        	ldx	#$1b
    3c37: a9 e1        	lda	#$e1
    3c39: 20 9e 69     	jsr	$699e <lcopy>
    3c3c: a6 1f        	ldx	$1f                     ; 0x201f <next_line+0xa>
    3c3e: 86 06        	stx	$6                      ; 0x2006 <__heap_default_limit+0x1006>
    3c40: 46 06        	lsr	$6                      ; 0x2006 <__heap_default_limit+0x1006>
    3c42: a9 00        	lda	#$0
    3c44: 18           	clc
    3c45: 65 1e        	adc	$1e                     ; 0x201e <next_line+0x9>
    3c47: a2 01        	ldx	#$1
    3c49: b0 02        	bcs	$3c4d <donehypclosefile3+0xc7e>
    3c4b: a2 00        	ldx	#$0
    3c4d: 86 1a        	stx	$1a                     ; 0x201a <next_line+0x5>
    3c4f: 85 1f        	sta	$1f                     ; 0x201f <next_line+0xa>
    3c51: a0 1b        	ldy	#$1b
    3c53: b1 02        	lda	($2),y                  ; 0x2002 <__heap_default_limit+0x1002>
    3c55: 85 1d        	sta	$1d                     ; 0x201d <next_line+0x8>
    3c57: a5 06        	lda	$6                      ; 0x2006 <__heap_default_limit+0x1006>
    3c59: 65 1d        	adc	$1d                     ; 0x201d <next_line+0x8>
    3c5b: 85 0c        	sta	$c                      ; 0x200c <__heap_default_limit+0x100c>
    3c5d: a9 00        	lda	#$0
    3c5f: 65 1e        	adc	$1e                     ; 0x201e <next_line+0x9>
    3c61: aa           	tax
    3c62: a9 00        	lda	#$0
    3c64: 48           	pha
    3c65: a0 19        	ldy	#$19
    3c67: b1 02        	lda	($2),y                  ; 0x2002 <__heap_default_limit+0x1002>
    3c69: 85 17        	sta	$17                     ; 0x2017 <next_line+0x2>
    3c6b: 68           	pla
    3c6c: 65 17        	adc	$17                     ; 0x2017 <next_line+0x2>
    3c6e: 86 04        	stx	$4                      ; 0x2004 <__heap_default_limit+0x1004>
    3c70: 85 05        	sta	$5                      ; 0x2005 <__heap_default_limit+0x1005>
    3c72: 64 06        	stz	$6                      ; 0x2006 <__heap_default_limit+0x1006>
    3c74: a2 19        	ldx	#$19
    3c76: 86 07        	stx	$7                      ; 0x2007 <__heap_default_limit+0x1007>
    3c78: 64 08        	stz	$8                      ; 0x2008 <__heap_default_limit+0x1008>
    3c7a: 64 09        	stz	$9                      ; 0x2009 <__heap_default_limit+0x1009>
    3c7c: 64 0a        	stz	$a                      ; 0x200a <__heap_default_limit+0x100a>
    3c7e: a2 01        	ldx	#$1
    3c80: 86 0b        	stx	$b                      ; 0x200b <__heap_default_limit+0x100b>
    3c82: a6 0c        	ldx	$c                      ; 0x200c <__heap_default_limit+0x100c>
    3c84: a5 1f        	lda	$1f                     ; 0x201f <next_line+0xa>
    3c86: 20 9e 69     	jsr	$699e <lcopy>
    3c89: a2 00        	ldx	#$0
    3c8b: 86 04        	stx	$4                      ; 0x2004 <__heap_default_limit+0x1004>
    3c8d: a2 19        	ldx	#$19
    3c8f: 86 05        	stx	$5                      ; 0x2005 <__heap_default_limit+0x1005>
    3c91: a5 04        	lda	$4                      ; 0x2004 <__heap_default_limit+0x1004>
    3c93: a0 23        	ldy	#$23
    3c95: 91 02        	sta	($2),y                  ; 0x2002 <__heap_default_limit+0x1002>
    3c97: a5 05        	lda	$5                      ; 0x2005 <__heap_default_limit+0x1005>
    3c99: c8           	iny
    3c9a: 91 02        	sta	($2),y                  ; 0x2002 <__heap_default_limit+0x1002>
    3c9c: 88           	dey
    3c9d: b1 02        	lda	($2),y                  ; 0x2002 <__heap_default_limit+0x1002>
    3c9f: 85 04        	sta	$4                      ; 0x2004 <__heap_default_limit+0x1004>
    3ca1: c8           	iny
    3ca2: b1 02        	lda	($2),y                  ; 0x2002 <__heap_default_limit+0x1002>
    3ca4: 85 05        	sta	$5                      ; 0x2005 <__heap_default_limit+0x1005>
    3ca6: a0 16        	ldy	#$16
    3ca8: b1 02        	lda	($2),y                  ; 0x2002 <__heap_default_limit+0x1002>
    3caa: 85 06        	sta	$6                      ; 0x2006 <__heap_default_limit+0x1006>
    3cac: 88           	dey
    3cad: b1 02        	lda	($2),y                  ; 0x2002 <__heap_default_limit+0x1002>
    3caf: aa           	tax
    3cb0: a0 10        	ldy	#$10
    3cb2: b1 02        	lda	($2),y                  ; 0x2002 <__heap_default_limit+0x1002>
    3cb4: 85 16        	sta	$16                     ; 0x2016 <next_line+0x1>
    3cb6: 20 9f 4c     	jsr	$4c9f <PutOneSector>
    3cb9: a0 0e        	ldy	#$e
    3cbb: b1 02        	lda	($2),y                  ; 0x2002 <__heap_default_limit+0x1002>
    3cbd: 18           	clc
    3cbe: 48           	pha
    3cbf: a0 09        	ldy	#$9
    3cc1: b1 02        	lda	($2),y                  ; 0x2002 <__heap_default_limit+0x1002>
    3cc3: 85 04        	sta	$4                      ; 0x2004 <__heap_default_limit+0x1004>
    3cc5: 68           	pla
    3cc6: 65 04        	adc	$4                      ; 0x2004 <__heap_default_limit+0x1004>
    3cc8: 85 18        	sta	$18                     ; 0x2018 <next_line+0x3>
    3cca: a0 0d        	ldy	#$d
    3ccc: b1 02        	lda	($2),y                  ; 0x2002 <__heap_default_limit+0x1002>
    3cce: 48           	pha
    3ccf: a0 0b        	ldy	#$b
    3cd1: b1 02        	lda	($2),y                  ; 0x2002 <__heap_default_limit+0x1002>
    3cd3: 85 04        	sta	$4                      ; 0x2004 <__heap_default_limit+0x1004>
    3cd5: 68           	pla
    3cd6: 65 04        	adc	$4                      ; 0x2004 <__heap_default_limit+0x1004>
    3cd8: 85 1c        	sta	$1c                     ; 0x201c <next_line+0x7>
    3cda: a0 08        	ldy	#$8
    3cdc: b1 02        	lda	($2),y                  ; 0x2002 <__heap_default_limit+0x1002>
    3cde: 69 00        	adc	#$0
    3ce0: 85 1b        	sta	$1b                     ; 0x201b <next_line+0x6>
    3ce2: a0 0c        	ldy	#$c
    3ce4: b1 02        	lda	($2),y                  ; 0x2002 <__heap_default_limit+0x1002>
    3ce6: 69 00        	adc	#$0
    3ce8: 85 19        	sta	$19                     ; 0x2019 <next_line+0x4>
    3cea: a6 1b        	ldx	$1b                     ; 0x201b <next_line+0x6>
    3cec: 86 04        	stx	$4                      ; 0x2004 <__heap_default_limit+0x1004>
    3cee: 85 05        	sta	$5                      ; 0x2005 <__heap_default_limit+0x1005>
    3cf0: 64 06        	stz	$6                      ; 0x2006 <__heap_default_limit+0x1006>
    3cf2: 64 07        	stz	$7                      ; 0x2007 <__heap_default_limit+0x1007>
    3cf4: a2 01        	ldx	#$1
    3cf6: 86 08        	stx	$8                      ; 0x2008 <__heap_default_limit+0x1008>
    3cf8: a6 1c        	ldx	$1c                     ; 0x201c <next_line+0x7>
    3cfa: a5 18        	lda	$18                     ; 0x2018 <next_line+0x3>
    3cfc: 20 05 6a     	jsr	$6a05 <lfill>
    3cff: a9 00        	lda	#$0
    3d01: 92 20        	sta	($20),z                 ; 0x2020 <next_line+0xb>
    3d03: 3a           	dec
    3d04: a0 01        	ldy	#$1
    3d06: 91 20        	sta	($20),y                 ; 0x2020 <next_line+0xb>
    3d08: a6 18        	ldx	$18                     ; 0x2018 <next_line+0x3>
    3d0a: 86 06        	stx	$6                      ; 0x2006 <__heap_default_limit+0x1006>
    3d0c: a6 1c        	ldx	$1c                     ; 0x201c <next_line+0x7>
    3d0e: 86 07        	stx	$7                      ; 0x2007 <__heap_default_limit+0x1007>
    3d10: 64 04        	stz	$4                      ; 0x2004 <__heap_default_limit+0x1004>
    3d12: 64 05        	stz	$5                      ; 0x2005 <__heap_default_limit+0x1005>
    3d14: 64 0b        	stz	$b                      ; 0x200b <__heap_default_limit+0x100b>
    3d16: a6 1b        	ldx	$1b                     ; 0x201b <next_line+0x6>
    3d18: 86 08        	stx	$8                      ; 0x2008 <__heap_default_limit+0x1008>
    3d1a: a6 19        	ldx	$19                     ; 0x2019 <next_line+0x4>
    3d1c: 86 09        	stx	$9                      ; 0x2009 <__heap_default_limit+0x1009>
    3d1e: a2 20        	ldx	#$20
    3d20: 86 0a        	stx	$a                      ; 0x200a <__heap_default_limit+0x100a>
    3d22: a6 21        	ldx	$21                     ; 0x2021 <_start>
    3d24: a5 20        	lda	$20                     ; 0x2020 <next_line+0xb>
    3d26: 20 9e 69     	jsr	$699e <lcopy>
    3d29: a0 17        	ldy	#$17
    3d2b: b1 02        	lda	($2),y                  ; 0x2002 <__heap_default_limit+0x1002>
    3d2d: a6 1a        	ldx	$1a                     ; 0x201a <next_line+0x5>
    3d2f: e0 01        	cpx	#$1
    3d31: 65 1d        	adc	$1d                     ; 0x201d <next_line+0x8>
    3d33: 85 0c        	sta	$c                      ; 0x200c <__heap_default_limit+0x100c>
    3d35: a9 00        	lda	#$0
    3d37: 65 1e        	adc	$1e                     ; 0x201e <next_line+0x9>
    3d39: 85 04        	sta	$4                      ; 0x2004 <__heap_default_limit+0x1004>
    3d3b: a9 00        	lda	#$0
    3d3d: 65 17        	adc	$17                     ; 0x2017 <next_line+0x2>
    3d3f: 85 05        	sta	$5                      ; 0x2005 <__heap_default_limit+0x1005>
    3d41: 64 06        	stz	$6                      ; 0x2006 <__heap_default_limit+0x1006>
    3d43: a2 19        	ldx	#$19
    3d45: 86 07        	stx	$7                      ; 0x2007 <__heap_default_limit+0x1007>
    3d47: 64 08        	stz	$8                      ; 0x2008 <__heap_default_limit+0x1008>
    3d49: 64 09        	stz	$9                      ; 0x2009 <__heap_default_limit+0x1009>
    3d4b: 64 0a        	stz	$a                      ; 0x200a <__heap_default_limit+0x100a>
    3d4d: a2 01        	ldx	#$1
    3d4f: 86 0b        	stx	$b                      ; 0x200b <__heap_default_limit+0x100b>
    3d51: a6 0c        	ldx	$c                      ; 0x200c <__heap_default_limit+0x100c>
    3d53: a5 1f        	lda	$1f                     ; 0x201f <next_line+0xa>
    3d55: 20 9e 69     	jsr	$699e <lcopy>
    3d58: a0 23        	ldy	#$23
    3d5a: b1 02        	lda	($2),y                  ; 0x2002 <__heap_default_limit+0x1002>
    3d5c: 85 04        	sta	$4                      ; 0x2004 <__heap_default_limit+0x1004>
    3d5e: c8           	iny
    3d5f: b1 02        	lda	($2),y                  ; 0x2002 <__heap_default_limit+0x1002>
    3d61: 85 05        	sta	$5                      ; 0x2005 <__heap_default_limit+0x1005>
    3d63: a0 0a        	ldy	#$a
    3d65: b1 02        	lda	($2),y                  ; 0x2002 <__heap_default_limit+0x1002>
    3d67: 85 06        	sta	$6                      ; 0x2006 <__heap_default_limit+0x1006>
    3d69: a0 0f        	ldy	#$f
    3d6b: b1 02        	lda	($2),y                  ; 0x2002 <__heap_default_limit+0x1002>
    3d6d: aa           	tax
    3d6e: a5 16        	lda	$16                     ; 0x2016 <next_line+0x1>
    3d70: 20 9f 4c     	jsr	$4c9f <PutOneSector>
    3d73: a2 dd        	ldx	#$dd
    3d75: 86 04        	stx	$4                      ; 0x2004 <__heap_default_limit+0x1004>
    3d77: a2 77        	ldx	#$77
    3d79: 86 05        	stx	$5                      ; 0x2005 <__heap_default_limit+0x1005>
    3d7b: a2 56        	ldx	#$56
    3d7d: 86 06        	stx	$6                      ; 0x2006 <__heap_default_limit+0x1006>
    3d7f: a2 73        	ldx	#$73
    3d81: 86 07        	stx	$7                      ; 0x2007 <__heap_default_limit+0x1007>
    3d83: a9 50        	lda	#$50
    3d85: 20 d7 59     	jsr	$59d7 <progress>
    3d88: a0 1d        	ldy	#$1d
    3d8a: b1 02        	lda	($2),y                  ; 0x2002 <__heap_default_limit+0x1002>
    3d8c: 85 06        	sta	$6                      ; 0x2006 <__heap_default_limit+0x1006>
    3d8e: c8           	iny
    3d8f: b1 02        	lda	($2),y                  ; 0x2002 <__heap_default_limit+0x1002>
    3d91: 85 07        	sta	$7                      ; 0x2007 <__heap_default_limit+0x1007>
    3d93: b2 06        	lda	($6),z                  ; 0x2006 <__heap_default_limit+0x1006>
    3d95: 85 05        	sta	$5                      ; 0x2005 <__heap_default_limit+0x1005>
    3d97: a0 47        	ldy	#$47
    3d99: b1 06        	lda	($6),y                  ; 0x2006 <__heap_default_limit+0x1006>
    3d9b: 85 04        	sta	$4                      ; 0x2004 <__heap_default_limit+0x1004>
    3d9d: a0 1c        	ldy	#$1c
    3d9f: b1 02        	lda	($2),y                  ; 0x2002 <__heap_default_limit+0x1002>
    3da1: aa           	tax
    3da2: a5 05        	lda	$5                      ; 0x2005 <__heap_default_limit+0x1005>
    3da4: 20 29 4d     	jsr	$4d29 <PutBAM>
    3da7: a0 11        	ldy	#$11
    3da9: b1 02        	lda	($2),y                  ; 0x2002 <__heap_default_limit+0x1002>
    3dab: a8           	tay
    3dac: 5a           	phy
    3dad: a0 12        	ldy	#$12
    3daf: b1 02        	lda	($2),y                  ; 0x2002 <__heap_default_limit+0x1002>
    3db1: 85 04        	sta	$4                      ; 0x2004 <__heap_default_limit+0x1004>
    3db3: c8           	iny
    3db4: b1 02        	lda	($2),y                  ; 0x2002 <__heap_default_limit+0x1002>
    3db6: 7a           	ply
    3db7: 85 05        	sta	$5                      ; 0x2005 <__heap_default_limit+0x1005>
    3db9: c8           	iny
    3dba: 4c 06 37     	jmp	$3706 <donehypclosefile3+0x737>
    3dbd: 64 1f        	stz	$1f                     ; 0x201f <next_line+0xa>
    3dbf: 4c d5 3a     	jmp	$3ad5 <donehypclosefile3+0xb06>
    3dc2: 5a           	phy
    3dc3: a5 06        	lda	$6                      ; 0x2006 <__heap_default_limit+0x1006>
    3dc5: a0 1f        	ldy	#$1f
    3dc7: 91 02        	sta	($2),y                  ; 0x2002 <__heap_default_limit+0x1002>
    3dc9: a5 07        	lda	$7                      ; 0x2007 <__heap_default_limit+0x1007>
    3dcb: c8           	iny
    3dcc: 91 02        	sta	($2),y                  ; 0x2002 <__heap_default_limit+0x1002>
    3dce: c8           	iny
    3dcf: b1 02        	lda	($2),y                  ; 0x2002 <__heap_default_limit+0x1002>
    3dd1: 85 0c        	sta	$c                      ; 0x200c <__heap_default_limit+0x100c>
    3dd3: c8           	iny
    3dd4: b1 02        	lda	($2),y                  ; 0x2002 <__heap_default_limit+0x1002>
    3dd6: 7a           	ply
    3dd7: 85 0d        	sta	$d                      ; 0x200d <__heap_default_limit+0x100d>
    3dd9: 8a           	txa
    3dda: 92 0c        	sta	($c),z                  ; 0x200c <__heap_default_limit+0x100c>
    3ddc: ad e2 1b     	lda	$1be2                   ; 0x1be2 <__heap_default_limit+0xbe2>
    3ddf: 91 0c        	sta	($c),y                  ; 0x200c <__heap_default_limit+0x100c>
    3de1: a6 17        	ldx	$17                     ; 0x2017 <next_line+0x2>
    3de3: 86 06        	stx	$6                      ; 0x2006 <__heap_default_limit+0x1006>
    3de5: a6 18        	ldx	$18                     ; 0x2018 <next_line+0x3>
    3de7: 86 07        	stx	$7                      ; 0x2007 <__heap_default_limit+0x1007>
    3de9: 64 04        	stz	$4                      ; 0x2004 <__heap_default_limit+0x1004>
    3deb: 64 05        	stz	$5                      ; 0x2005 <__heap_default_limit+0x1005>
    3ded: a6 19        	ldx	$19                     ; 0x2019 <next_line+0x4>
    3def: 86 08        	stx	$8                      ; 0x2008 <__heap_default_limit+0x1008>
    3df1: a6 1d        	ldx	$1d                     ; 0x201d <next_line+0x8>
    3df3: 86 09        	stx	$9                      ; 0x2009 <__heap_default_limit+0x1009>
    3df5: a2 20        	ldx	#$20
    3df7: 86 0a        	stx	$a                      ; 0x200a <__heap_default_limit+0x100a>
    3df9: 64 0b        	stz	$b                      ; 0x200b <__heap_default_limit+0x100b>
    3dfb: a6 0d        	ldx	$d                      ; 0x200d <__heap_default_limit+0x100d>
    3dfd: a5 0c        	lda	$c                      ; 0x200c <__heap_default_limit+0x100c>
    3dff: 20 9e 69     	jsr	$699e <lcopy>
    3e02: a9 00        	lda	#$0
    3e04: 18           	clc
    3e05: 48           	pha
    3e06: a0 14        	ldy	#$14
    3e08: b1 02        	lda	($2),y                  ; 0x2002 <__heap_default_limit+0x1002>
    3e0a: 85 06        	sta	$6                      ; 0x2006 <__heap_default_limit+0x1006>
    3e0c: 68           	pla
    3e0d: 65 06        	adc	$6                      ; 0x2006 <__heap_default_limit+0x1006>
    3e0f: a8           	tay
    3e10: 84 13        	sty	$13                     ; 0x2013 <__heap_default_limit+0x1013>
    3e12: a0 1b        	ldy	#$1b
    3e14: b1 02        	lda	($2),y                  ; 0x2002 <__heap_default_limit+0x1002>
    3e16: 85 04        	sta	$4                      ; 0x2004 <__heap_default_limit+0x1004>
    3e18: a0 17        	ldy	#$17
    3e1a: b1 02        	lda	($2),y                  ; 0x2002 <__heap_default_limit+0x1002>
    3e1c: 65 04        	adc	$4                      ; 0x2004 <__heap_default_limit+0x1004>
    3e1e: 85 0c        	sta	$c                      ; 0x200c <__heap_default_limit+0x100c>
    3e20: a9 00        	lda	#$0
    3e22: 65 06        	adc	$6                      ; 0x2006 <__heap_default_limit+0x1006>
    3e24: aa           	tax
    3e25: a9 00        	lda	#$0
    3e27: 48           	pha
    3e28: a0 19        	ldy	#$19
    3e2a: b1 02        	lda	($2),y                  ; 0x2002 <__heap_default_limit+0x1002>
    3e2c: a4 13        	ldy	$13                     ; 0x2013 <__heap_default_limit+0x1013>
    3e2e: 85 04        	sta	$4                      ; 0x2004 <__heap_default_limit+0x1004>
    3e30: 68           	pla
    3e31: 65 04        	adc	$4                      ; 0x2004 <__heap_default_limit+0x1004>
    3e33: 86 04        	stx	$4                      ; 0x2004 <__heap_default_limit+0x1004>
    3e35: 85 05        	sta	$5                      ; 0x2005 <__heap_default_limit+0x1005>
    3e37: 64 06        	stz	$6                      ; 0x2006 <__heap_default_limit+0x1006>
    3e39: a2 19        	ldx	#$19
    3e3b: 86 07        	stx	$7                      ; 0x2007 <__heap_default_limit+0x1007>
    3e3d: 64 08        	stz	$8                      ; 0x2008 <__heap_default_limit+0x1008>
    3e3f: 64 09        	stz	$9                      ; 0x2009 <__heap_default_limit+0x1009>
    3e41: 64 0a        	stz	$a                      ; 0x200a <__heap_default_limit+0x100a>
    3e43: a2 01        	ldx	#$1
    3e45: 86 0b        	stx	$b                      ; 0x200b <__heap_default_limit+0x100b>
    3e47: a6 0c        	ldx	$c                      ; 0x200c <__heap_default_limit+0x100c>
    3e49: 98           	tya
    3e4a: 20 9e 69     	jsr	$699e <lcopy>
    3e4d: a2 00        	ldx	#$0
    3e4f: 86 04        	stx	$4                      ; 0x2004 <__heap_default_limit+0x1004>
    3e51: a2 19        	ldx	#$19
    3e53: 86 05        	stx	$5                      ; 0x2005 <__heap_default_limit+0x1005>
    3e55: a0 16        	ldy	#$16
    3e57: b1 02        	lda	($2),y                  ; 0x2002 <__heap_default_limit+0x1002>
    3e59: 85 06        	sta	$6                      ; 0x2006 <__heap_default_limit+0x1006>
    3e5b: 88           	dey
    3e5c: b1 02        	lda	($2),y                  ; 0x2002 <__heap_default_limit+0x1002>
    3e5e: aa           	tax
    3e5f: a0 10        	ldy	#$10
    3e61: b1 02        	lda	($2),y                  ; 0x2002 <__heap_default_limit+0x1002>
    3e63: 4c 70 3d     	jmp	$3d70 <donehypclosefile3+0xda1>
    3e66: a9 27        	lda	#$27
    3e68: 18           	clc
    3e69: 65 1c        	adc	$1c                     ; 0x201c <next_line+0x7>
    3e6b: 85 04        	sta	$4                      ; 0x2004 <__heap_default_limit+0x1004>
    3e6d: a9 00        	lda	#$0
    3e6f: 65 1b        	adc	$1b                     ; 0x201b <next_line+0x6>
    3e71: 85 05        	sta	$5                      ; 0x2005 <__heap_default_limit+0x1005>
    3e73: b2 04        	lda	($4),z                  ; 0x2004 <__heap_default_limit+0x1004>
    3e75: aa           	tax
    3e76: b1 04        	lda	($4),y                  ; 0x2004 <__heap_default_limit+0x1004>
    3e78: 86 04        	stx	$4                      ; 0x2004 <__heap_default_limit+0x1004>
    3e7a: 85 05        	sta	$5                      ; 0x2005 <__heap_default_limit+0x1005>
    3e7c: 38           	sec
    3e7d: 5a           	phy
    3e7e: a0 21        	ldy	#$21
    3e80: b1 02        	lda	($2),y                  ; 0x2002 <__heap_default_limit+0x1002>
    3e82: e5 1a        	sbc	$1a                     ; 0x201a <next_line+0x5>
    3e84: 85 06        	sta	$6                      ; 0x2006 <__heap_default_limit+0x1006>
    3e86: a0 23        	ldy	#$23
    3e88: b1 02        	lda	($2),y                  ; 0x2002 <__heap_default_limit+0x1002>
    3e8a: 7a           	ply
    3e8b: e5 17        	sbc	$17                     ; 0x2017 <next_line+0x2>
    3e8d: 85 07        	sta	$7                      ; 0x2007 <__heap_default_limit+0x1007>
    3e8f: a9 56        	lda	#$56
    3e91: 18           	clc
    3e92: 65 06        	adc	$6                      ; 0x2006 <__heap_default_limit+0x1006>
    3e94: 85 06        	sta	$6                      ; 0x2006 <__heap_default_limit+0x1006>
    3e96: a9 7b        	lda	#$7b
    3e98: 65 07        	adc	$7                      ; 0x2007 <__heap_default_limit+0x1007>
    3e9a: 85 07        	sta	$7                      ; 0x2007 <__heap_default_limit+0x1007>
    3e9c: b1 04        	lda	($4),y                  ; 0x2004 <__heap_default_limit+0x1004>
    3e9e: a8           	tay
    3e9f: a9 01        	lda	#$1
    3ea1: 51 06        	eor	($6),y                  ; 0x2006 <__heap_default_limit+0x1006>
    3ea3: 91 06        	sta	($6),y                  ; 0x2006 <__heap_default_limit+0x1006>
    3ea5: c8           	iny
    3ea6: 98           	tya
    3ea7: a0 01        	ldy	#$1
    3ea9: 91 04        	sta	($4),y                  ; 0x2004 <__heap_default_limit+0x1004>
    3eab: 4c f9 22     	jmp	$22f9 <main+0x1ed>
    3eae: a9 27        	lda	#$27
    3eb0: 18           	clc
    3eb1: 65 1c        	adc	$1c                     ; 0x201c <next_line+0x7>
    3eb3: 85 04        	sta	$4                      ; 0x2004 <__heap_default_limit+0x1004>
    3eb5: a9 00        	lda	#$0
    3eb7: 65 1b        	adc	$1b                     ; 0x201b <next_line+0x6>
    3eb9: 85 05        	sta	$5                      ; 0x2005 <__heap_default_limit+0x1005>
    3ebb: b2 04        	lda	($4),z                  ; 0x2004 <__heap_default_limit+0x1004>
    3ebd: aa           	tax
    3ebe: b1 04        	lda	($4),y                  ; 0x2004 <__heap_default_limit+0x1004>
    3ec0: 86 04        	stx	$4                      ; 0x2004 <__heap_default_limit+0x1004>
    3ec2: 85 05        	sta	$5                      ; 0x2005 <__heap_default_limit+0x1005>
    3ec4: a9 0a        	lda	#$a
    3ec6: 18           	clc
    3ec7: 71 04        	adc	($4),y                  ; 0x2004 <__heap_default_limit+0x1004>
    3ec9: 91 04        	sta	($4),y                  ; 0x2004 <__heap_default_limit+0x1004>
    3ecb: 4c f9 22     	jmp	$22f9 <main+0x1ed>
    3ece: a9 28        	lda	#$28
    3ed0: a0 47        	ldy	#$47
    3ed2: 91 1a        	sta	($1a),y                 ; 0x201a <next_line+0x5>
    3ed4: b2 1a        	lda	($1a),z                 ; 0x201a <next_line+0x5>
    3ed6: 4c 5a 31     	jmp	$315a <donehypclosefile3+0x18b>
    3ed9: a5 1d        	lda	$1d                     ; 0x201d <next_line+0x8>
    3edb: d0 03        	bne	$3ee0 <donehypclosefile3+0xf11>
    3edd: 4c d8 42     	jmp	$42d8 <donehypclosefile3+0x1309>
    3ee0: 4c 33 43     	jmp	$4333 <donehypclosefile3+0x1364>
    3ee3: a6 1d        	ldx	$1d                     ; 0x201d <next_line+0x8>
    3ee5: 86 04        	stx	$4                      ; 0x2004 <__heap_default_limit+0x1004>
    3ee7: 4c cf 3f     	jmp	$3fcf <donehypclosefile3+0x1000>
    3eea: c8           	iny
    3eeb: c0 51        	cpy	#$51
    3eed: d0 03        	bne	$3ef2 <donehypclosefile3+0xf23>
    3eef: 4c 63 48     	jmp	$4863 <donehyp0att8+0x44>
    3ef2: a9 01        	lda	#$1
    3ef4: 84 1c        	sty	$1c                     ; 0x201c <next_line+0x7>
    3ef6: c9 29        	cmp	#$29
    3ef8: b0 f0        	bcs	$3eea <donehypclosefile3+0xf1b>
    3efa: a6 04        	ldx	$4                      ; 0x2004 <__heap_default_limit+0x1004>
    3efc: 86 1d        	stx	$1d                     ; 0x201d <next_line+0x8>
    3efe: 85 1f        	sta	$1f                     ; 0x201f <next_line+0xa>
    3f00: 85 18        	sta	$18                     ; 0x2018 <next_line+0x3>
    3f02: c6 18        	dec	$18                     ; 0x2018 <next_line+0x3>
    3f04: a9 02        	lda	#$2
    3f06: 25 2f        	and	$2f                     ; 0x202f <__do_init_stack>
    3f08: f0 19        	beq	$3f23 <donehypclosefile3+0xf54>
    3f0a: a6 18        	ldx	$18                     ; 0x2018 <next_line+0x3>
    3f0c: 98           	tya
    3f0d: 20 21 51     	jsr	$5121 <isallocatedBAMtracksector>
    3f10: a4 1c        	ldy	$1c                     ; 0x201c <next_line+0x7>
    3f12: aa           	tax
    3f13: d0 0e        	bne	$3f23 <donehypclosefile3+0xf54>
    3f15: a6 1f        	ldx	$1f                     ; 0x201f <next_line+0xa>
    3f17: 98           	tya
    3f18: 20 21 51     	jsr	$5121 <isallocatedBAMtracksector>
    3f1b: a4 1c        	ldy	$1c                     ; 0x201c <next_line+0x7>
    3f1d: aa           	tax
    3f1e: d0 03        	bne	$3f23 <donehypclosefile3+0xf54>
    3f20: 4c e3 3e     	jmp	$3ee3 <donehypclosefile3+0xf14>
    3f23: a6 18        	ldx	$18                     ; 0x2018 <next_line+0x3>
    3f25: 98           	tya
    3f26: 84 19        	sty	$19                     ; 0x2019 <next_line+0x4>
    3f28: 20 da 53     	jsr	$53da <tracksectorstring>
    3f2b: a6 1d        	ldx	$1d                     ; 0x201d <next_line+0x8>
    3f2d: 86 04        	stx	$4                      ; 0x2004 <__heap_default_limit+0x1004>
    3f2f: 06 04        	asl	$4                      ; 0x2004 <__heap_default_limit+0x1004>
    3f31: a5 1e        	lda	$1e                     ; 0x201e <next_line+0x9>
    3f33: 2a           	rol
    3f34: 06 04        	asl	$4                      ; 0x2004 <__heap_default_limit+0x1004>
    3f36: 2a           	rol
    3f37: a2 90        	ldx	#$90
    3f39: 86 04        	stx	$4                      ; 0x2004 <__heap_default_limit+0x1004>
    3f3b: a2 79        	ldx	#$79
    3f3d: 86 05        	stx	$5                      ; 0x2005 <__heap_default_limit+0x1005>
    3f3f: a2 06        	ldx	#$6
    3f41: 86 06        	stx	$6                      ; 0x2006 <__heap_default_limit+0x1006>
    3f43: a2 7b        	ldx	#$7b
    3f45: 86 07        	stx	$7                      ; 0x2007 <__heap_default_limit+0x1007>
    3f47: 20 d7 59     	jsr	$59d7 <progress>
    3f4a: a6 18        	ldx	$18                     ; 0x2018 <next_line+0x3>
    3f4c: 86 04        	stx	$4                      ; 0x2004 <__heap_default_limit+0x1004>
    3f4e: a6 19        	ldx	$19                     ; 0x2019 <next_line+0x4>
    3f50: a5 17        	lda	$17                     ; 0x2017 <next_line+0x2>
    3f52: 20 67 4a     	jsr	$4a67 <ReadSector>
    3f55: c9 02        	cmp	#$2
    3f57: a2 01        	ldx	#$1
    3f59: 90 03        	bcc	$3f5e <donehypclosefile3+0xf8f>
    3f5b: 4c fa 45     	jmp	$45fa <donehypchdir5+0x51>
    3f5e: a0 fd        	ldy	#$fd
    3f60: 84 04        	sty	$4                      ; 0x2004 <__heap_default_limit+0x1004>
    3f62: a0 0f        	ldy	#$f
    3f64: 84 05        	sty	$5                      ; 0x2005 <__heap_default_limit+0x1005>
    3f66: 64 06        	stz	$6                      ; 0x2006 <__heap_default_limit+0x1006>
    3f68: a0 19        	ldy	#$19
    3f6a: 84 07        	sty	$7                      ; 0x2007 <__heap_default_limit+0x1007>
    3f6c: 64 08        	stz	$8                      ; 0x2008 <__heap_default_limit+0x1008>
    3f6e: 64 09        	stz	$9                      ; 0x2009 <__heap_default_limit+0x1009>
    3f70: 64 0a        	stz	$a                      ; 0x200a <__heap_default_limit+0x100a>
    3f72: 86 0b        	stx	$b                      ; 0x200b <__heap_default_limit+0x100b>
    3f74: a2 6c        	ldx	#$6c
    3f76: a9 00        	lda	#$0
    3f78: 20 9e 69     	jsr	$699e <lcopy>
    3f7b: a2 fd        	ldx	#$fd
    3f7d: 86 04        	stx	$4                      ; 0x2004 <__heap_default_limit+0x1004>
    3f7f: a2 0f        	ldx	#$f
    3f81: 86 05        	stx	$5                      ; 0x2005 <__heap_default_limit+0x1005>
    3f83: 64 06        	stz	$6                      ; 0x2006 <__heap_default_limit+0x1006>
    3f85: a2 1a        	ldx	#$1a
    3f87: 86 07        	stx	$7                      ; 0x2007 <__heap_default_limit+0x1007>
    3f89: 64 08        	stz	$8                      ; 0x2008 <__heap_default_limit+0x1008>
    3f8b: 64 09        	stz	$9                      ; 0x2009 <__heap_default_limit+0x1009>
    3f8d: 64 0a        	stz	$a                      ; 0x200a <__heap_default_limit+0x100a>
    3f8f: a2 01        	ldx	#$1
    3f91: 86 0b        	stx	$b                      ; 0x200b <__heap_default_limit+0x100b>
    3f93: a2 6d        	ldx	#$6d
    3f95: a9 00        	lda	#$0
    3f97: 20 9e 69     	jsr	$699e <lcopy>
    3f9a: a5 1d        	lda	$1d                     ; 0x201d <next_line+0x8>
    3f9c: 18           	clc
    3f9d: 69 3c        	adc	#$3c
    3f9f: 85 07        	sta	$7                      ; 0x2007 <__heap_default_limit+0x1007>
    3fa1: a5 1e        	lda	$1e                     ; 0x201e <next_line+0x9>
    3fa3: 69 00        	adc	#$0
    3fa5: 85 08        	sta	$8                      ; 0x2008 <__heap_default_limit+0x1008>
    3fa7: a9 00        	lda	#$0
    3fa9: 69 08        	adc	#$8
    3fab: 64 04        	stz	$4                      ; 0x2004 <__heap_default_limit+0x1004>
    3fad: 64 05        	stz	$5                      ; 0x2005 <__heap_default_limit+0x1005>
    3faf: 64 06        	stz	$6                      ; 0x2006 <__heap_default_limit+0x1006>
    3fb1: 85 09        	sta	$9                      ; 0x2009 <__heap_default_limit+0x1009>
    3fb3: 64 0a        	stz	$a                      ; 0x200a <__heap_default_limit+0x100a>
    3fb5: a2 02        	ldx	#$2
    3fb7: 86 0b        	stx	$b                      ; 0x200b <__heap_default_limit+0x100b>
    3fb9: a2 19        	ldx	#$19
    3fbb: a9 00        	lda	#$0
    3fbd: 20 9e 69     	jsr	$699e <lcopy>
    3fc0: 18           	clc
    3fc1: a5 1d        	lda	$1d                     ; 0x201d <next_line+0x8>
    3fc3: 69 02        	adc	#$2
    3fc5: 85 04        	sta	$4                      ; 0x2004 <__heap_default_limit+0x1004>
    3fc7: a5 1e        	lda	$1e                     ; 0x201e <next_line+0x9>
    3fc9: 69 00        	adc	#$0
    3fcb: a4 1c        	ldy	$1c                     ; 0x201c <next_line+0x7>
    3fcd: 85 1e        	sta	$1e                     ; 0x201e <next_line+0x9>
    3fcf: 18           	clc
    3fd0: a5 1f        	lda	$1f                     ; 0x201f <next_line+0xa>
    3fd2: 69 02        	adc	#$2
    3fd4: 4c f6 3e     	jmp	$3ef6 <donehypclosefile3+0xf27>
    3fd7: a0 1f        	ldy	#$1f
    3fd9: b1 02        	lda	($2),y                  ; 0x2002 <__heap_default_limit+0x1002>
    3fdb: 4c f5 22     	jmp	$22f5 <main+0x1e9>
    3fde: e0 0d        	cpx	#$d
    3fe0: f0 03        	beq	$3fe5 <donehypclosefile3+0x1016>
    3fe2: 4c e6 2e     	jmp	$2ee6 <main+0xdda>
    3fe5: a9 27        	lda	#$27
    3fe7: 18           	clc
    3fe8: 65 1c        	adc	$1c                     ; 0x201c <next_line+0x7>
    3fea: 85 04        	sta	$4                      ; 0x2004 <__heap_default_limit+0x1004>
    3fec: a9 00        	lda	#$0
    3fee: 65 1b        	adc	$1b                     ; 0x201b <next_line+0x6>
    3ff0: 85 05        	sta	$5                      ; 0x2005 <__heap_default_limit+0x1005>
    3ff2: b2 04        	lda	($4),z                  ; 0x2004 <__heap_default_limit+0x1004>
    3ff4: 85 06        	sta	$6                      ; 0x2006 <__heap_default_limit+0x1006>
    3ff6: b1 04        	lda	($4),y                  ; 0x2004 <__heap_default_limit+0x1004>
    3ff8: 85 07        	sta	$7                      ; 0x2007 <__heap_default_limit+0x1007>
    3ffa: 5a           	phy
    3ffb: a5 06        	lda	$6                      ; 0x2006 <__heap_default_limit+0x1006>
    3ffd: a0 23        	ldy	#$23
    3fff: 91 02        	sta	($2),y                  ; 0x2002 <__heap_default_limit+0x1002>
    4001: a5 07        	lda	$7                      ; 0x2007 <__heap_default_limit+0x1007>
    4003: c8           	iny
    4004: 91 02        	sta	($2),y                  ; 0x2002 <__heap_default_limit+0x1002>
    4006: 7a           	ply
    4007: b1 06        	lda	($6),y                  ; 0x2006 <__heap_default_limit+0x1006>
    4009: aa           	tax
    400a: a5 1f        	lda	$1f                     ; 0x201f <next_line+0xa>
    400c: 20 66 54     	jsr	$5466 <getdirententry>
    400f: a9 00        	lda	#$0
    4011: a6 1e        	ldx	$1e                     ; 0x201e <next_line+0x9>
    4013: e0 01        	cpx	#$1
    4015: 2a           	rol
    4016: 85 06        	sta	$6                      ; 0x2006 <__heap_default_limit+0x1006>
    4018: a6 18        	ldx	$18                     ; 0x2018 <next_line+0x3>
    401a: e0 01        	cpx	#$1
    401c: 2a           	rol
    401d: a6 19        	ldx	$19                     ; 0x2019 <next_line+0x4>
    401f: e0 01        	cpx	#$1
    4021: a6 04        	ldx	$4                      ; 0x2004 <__heap_default_limit+0x1004>
    4023: 86 18        	stx	$18                     ; 0x2018 <next_line+0x3>
    4025: a6 05        	ldx	$5                      ; 0x2005 <__heap_default_limit+0x1005>
    4027: 86 19        	stx	$19                     ; 0x2019 <next_line+0x4>
    4029: 2a           	rol
    402a: aa           	tax
    402b: a5 16        	lda	$16                     ; 0x2016 <next_line+0x1>
    402d: 48           	pha
    402e: a0 23        	ldy	#$23
    4030: b1 02        	lda	($2),y                  ; 0x2002 <__heap_default_limit+0x1002>
    4032: 85 16        	sta	$16                     ; 0x2016 <next_line+0x1>
    4034: c8           	iny
    4035: b1 02        	lda	($2),y                  ; 0x2002 <__heap_default_limit+0x1002>
    4037: 85 17        	sta	$17                     ; 0x2017 <next_line+0x2>
    4039: 68           	pla
    403a: 0a           	asl
    403b: 26 20        	rol	$20                     ; 0x2020 <next_line+0xb>
    403d: 86 04        	stx	$4                      ; 0x2004 <__heap_default_limit+0x1004>
    403f: 26 04        	rol	$4                      ; 0x2004 <__heap_default_limit+0x1004>
    4041: 38           	sec
    4042: e5 1c        	sbc	$1c                     ; 0x201c <next_line+0x7>
    4044: aa           	tax
    4045: a5 20        	lda	$20                     ; 0x2020 <next_line+0xb>
    4047: e5 1b        	sbc	$1b                     ; 0x201b <next_line+0x6>
    4049: 85 07        	sta	$7                      ; 0x2007 <__heap_default_limit+0x1007>
    404b: a5 04        	lda	$4                      ; 0x2004 <__heap_default_limit+0x1004>
    404d: e5 06        	sbc	$6                      ; 0x2006 <__heap_default_limit+0x1006>
    404f: 85 06        	sta	$6                      ; 0x2006 <__heap_default_limit+0x1006>
    4051: a0 01        	ldy	#$1
    4053: b1 16        	lda	($16),y                 ; 0x2016 <next_line+0x1>
    4055: 4a           	lsr
    4056: 64 04        	stz	$4                      ; 0x2004 <__heap_default_limit+0x1004>
    4058: 66 04        	ror	$4                      ; 0x2004 <__heap_default_limit+0x1004>
    405a: 4a           	lsr
    405b: 85 05        	sta	$5                      ; 0x2005 <__heap_default_limit+0x1005>
    405d: 66 04        	ror	$4                      ; 0x2004 <__heap_default_limit+0x1004>
    405f: a9 00        	lda	#$0
    4061: 18           	clc
    4062: 65 04        	adc	$4                      ; 0x2004 <__heap_default_limit+0x1004>
    4064: a8           	tay
    4065: 8a           	txa
    4066: 65 05        	adc	$5                      ; 0x2005 <__heap_default_limit+0x1005>
    4068: 85 05        	sta	$5                      ; 0x2005 <__heap_default_limit+0x1005>
    406a: a5 07        	lda	$7                      ; 0x2007 <__heap_default_limit+0x1007>
    406c: 69 00        	adc	#$0
    406e: aa           	tax
    406f: a5 06        	lda	$6                      ; 0x2006 <__heap_default_limit+0x1006>
    4071: 69 00        	adc	#$0
    4073: 85 04        	sta	$4                      ; 0x2004 <__heap_default_limit+0x1004>
    4075: 18           	clc
    4076: 98           	tya
    4077: 69 00        	adc	#$0
    4079: 85 0c        	sta	$c                      ; 0x200c <__heap_default_limit+0x100c>
    407b: a5 05        	lda	$5                      ; 0x2005 <__heap_default_limit+0x1005>
    407d: 69 1c        	adc	#$1c
    407f: a8           	tay
    4080: 8a           	txa
    4081: 69 00        	adc	#$0
    4083: aa           	tax
    4084: a5 04        	lda	$4                      ; 0x2004 <__heap_default_limit+0x1004>
    4086: 69 08        	adc	#$8
    4088: 86 04        	stx	$4                      ; 0x2004 <__heap_default_limit+0x1004>
    408a: 85 05        	sta	$5                      ; 0x2005 <__heap_default_limit+0x1005>
    408c: a2 58        	ldx	#$58
    408e: 86 06        	stx	$6                      ; 0x2006 <__heap_default_limit+0x1006>
    4090: a2 7c        	ldx	#$7c
    4092: 86 07        	stx	$7                      ; 0x2007 <__heap_default_limit+0x1007>
    4094: 64 08        	stz	$8                      ; 0x2008 <__heap_default_limit+0x1008>
    4096: 64 09        	stz	$9                      ; 0x2009 <__heap_default_limit+0x1009>
    4098: a2 40        	ldx	#$40
    409a: 86 0a        	stx	$a                      ; 0x200a <__heap_default_limit+0x100a>
    409c: 64 0b        	stz	$b                      ; 0x200b <__heap_default_limit+0x100b>
    409e: 5a           	phy
    409f: fa           	plx
    40a0: a5 0c        	lda	$c                      ; 0x200c <__heap_default_limit+0x100c>
    40a2: 20 9e 69     	jsr	$699e <lcopy>
    40a5: a9 01        	lda	#$1
    40a7: a0 46        	ldy	#$46
    40a9: 31 16        	and	($16),y                 ; 0x2016 <next_line+0x1>
    40ab: 29 01        	and	#$1
    40ad: aa           	tax
    40ae: a0 02        	ldy	#$2
    40b0: b1 18        	lda	($18),y                 ; 0x2018 <next_line+0x3>
    40b2: e0 00        	cpx	#$0
    40b4: f0 03        	beq	$40b9 <donehypclosefile3+0x10ea>
    40b6: 4c 5f 44     	jmp	$445f <donehypd81detach4+0x69>
    40b9: 29 10        	and	#$10
    40bb: f0 03        	beq	$40c0 <donehypclosefile3+0x10f1>
    40bd: 4c 17 46     	jmp	$4617 <donehypchdir5+0x6e>
    40c0: b2 16        	lda	($16),z                 ; 0x2016 <next_line+0x1>
    40c2: 85 18        	sta	$18                     ; 0x2018 <next_line+0x3>
    40c4: a2 58        	ldx	#$58
    40c6: 86 04        	stx	$4                      ; 0x2004 <__heap_default_limit+0x1004>
    40c8: a2 7c        	ldx	#$7c
    40ca: 86 05        	stx	$5                      ; 0x2005 <__heap_default_limit+0x1005>
    40cc: 20 6c 48     	jsr	$486c <hyppo_setname>
    40cf: a5 18        	lda	$18                     ; 0x2018 <next_line+0x3>
    40d1: f0 03        	beq	$40d6 <donehypclosefile3+0x1107>
    40d3: 4c 45 47     	jmp	$4745 <donehypchdir6+0x10a>
    40d6: 4c 0a 48     	jmp	$480a <donehyp1att7+0xb0>
    40d9: a9 27        	lda	#$27
    40db: 18           	clc
    40dc: 65 1c        	adc	$1c                     ; 0x201c <next_line+0x7>
    40de: 85 04        	sta	$4                      ; 0x2004 <__heap_default_limit+0x1004>
    40e0: a9 00        	lda	#$0
    40e2: 65 1b        	adc	$1b                     ; 0x201b <next_line+0x6>
    40e4: 85 05        	sta	$5                      ; 0x2005 <__heap_default_limit+0x1005>
    40e6: b2 04        	lda	($4),z                  ; 0x2004 <__heap_default_limit+0x1004>
    40e8: 85 06        	sta	$6                      ; 0x2006 <__heap_default_limit+0x1006>
    40ea: b1 04        	lda	($4),y                  ; 0x2004 <__heap_default_limit+0x1004>
    40ec: 85 07        	sta	$7                      ; 0x2007 <__heap_default_limit+0x1007>
    40ee: a9 01        	lda	#$1
    40f0: a0 46        	ldy	#$46
    40f2: 31 06        	and	($6),y                  ; 0x2006 <__heap_default_limit+0x1006>
    40f4: 29 01        	and	#$1
    40f6: f0 03        	beq	$40fb <donehypclosefile3+0x112c>
    40f8: 4c 9a 43     	jmp	$439a <donehypclosefile3+0x13cb>
    40fb: a2 33        	ldx	#$33
    40fd: 86 04        	stx	$4                      ; 0x2004 <__heap_default_limit+0x1004>
    40ff: a2 72        	ldx	#$72
    4101: 86 05        	stx	$5                      ; 0x2005 <__heap_default_limit+0x1005>
    4103: a2 ad        	ldx	#$ad
    4105: 86 06        	stx	$6                      ; 0x2006 <__heap_default_limit+0x1006>
    4107: a2 77        	ldx	#$77
    4109: 4c 05 31     	jmp	$3105 <donehypclosefile3+0x136>
    410c: a2 4b        	ldx	#$4b
    410e: 86 04        	stx	$4                      ; 0x2004 <__heap_default_limit+0x1004>
    4110: a2 14        	ldx	#$14
    4112: 86 05        	stx	$5                      ; 0x2005 <__heap_default_limit+0x1005>
    4114: 84 06        	sty	$6                      ; 0x2006 <__heap_default_limit+0x1006>
    4116: a2 04        	ldx	#$4
    4118: 8a           	txa
    4119: 20 f5 56     	jsr	$56f5 <mcbox>
    411c: a9 20        	lda	#$20
    411e: 05 2b        	ora	$2b                     ; 0x202b <_start+0xa>
    4120: 85 2b        	sta	$2b                     ; 0x202b <_start+0xa>
    4122: a2 70        	ldx	#$70
    4124: 86 04        	stx	$4                      ; 0x2004 <__heap_default_limit+0x1004>
    4126: a2 71        	ldx	#$71
    4128: 86 05        	stx	$5                      ; 0x2005 <__heap_default_limit+0x1005>
    412a: a2 04        	ldx	#$4
    412c: a9 06        	lda	#$6
    412e: 20 df 56     	jsr	$56df <mcputsxy>
    4131: a2 71        	ldx	#$71
    4133: 86 04        	stx	$4                      ; 0x2004 <__heap_default_limit+0x1004>
    4135: a2 73        	ldx	#$73
    4137: 86 05        	stx	$5                      ; 0x2005 <__heap_default_limit+0x1005>
    4139: a2 04        	ldx	#$4
    413b: a9 19        	lda	#$19
    413d: 20 df 56     	jsr	$56df <mcputsxy>
    4140: a2 e2        	ldx	#$e2
    4142: 86 04        	stx	$4                      ; 0x2004 <__heap_default_limit+0x1004>
    4144: a2 74        	ldx	#$74
    4146: 86 05        	stx	$5                      ; 0x2005 <__heap_default_limit+0x1005>
    4148: a2 04        	ldx	#$4
    414a: a9 2f        	lda	#$2f
    414c: 20 df 56     	jsr	$56df <mcputsxy>
    414f: a9 df        	lda	#$df
    4151: 25 2b        	and	$2b                     ; 0x202b <_start+0xa>
    4153: 85 2b        	sta	$2b                     ; 0x202b <_start+0xa>
    4155: a2 fa        	ldx	#$fa
    4157: 86 04        	stx	$4                      ; 0x2004 <__heap_default_limit+0x1004>
    4159: a2 70        	ldx	#$70
    415b: 86 05        	stx	$5                      ; 0x2005 <__heap_default_limit+0x1005>
    415d: a5 04        	lda	$4                      ; 0x2004 <__heap_default_limit+0x1004>
    415f: a0 23        	ldy	#$23
    4161: 91 02        	sta	($2),y                  ; 0x2002 <__heap_default_limit+0x1002>
    4163: a5 05        	lda	$5                      ; 0x2005 <__heap_default_limit+0x1005>
    4165: c8           	iny
    4166: 91 02        	sta	($2),y                  ; 0x2002 <__heap_default_limit+0x1002>
    4168: 88           	dey
    4169: b1 02        	lda	($2),y                  ; 0x2002 <__heap_default_limit+0x1002>
    416b: 85 04        	sta	$4                      ; 0x2004 <__heap_default_limit+0x1004>
    416d: c8           	iny
    416e: b1 02        	lda	($2),y                  ; 0x2002 <__heap_default_limit+0x1002>
    4170: 85 05        	sta	$5                      ; 0x2005 <__heap_default_limit+0x1005>
    4172: a2 14        	ldx	#$14
    4174: a9 07        	lda	#$7
    4176: 20 df 56     	jsr	$56df <mcputsxy>
    4179: a2 39        	ldx	#$39
    417b: 86 04        	stx	$4                      ; 0x2004 <__heap_default_limit+0x1004>
    417d: a2 73        	ldx	#$73
    417f: 86 05        	stx	$5                      ; 0x2005 <__heap_default_limit+0x1005>
    4181: 20 d1 56     	jsr	$56d1 <msprintf>
    4184: a0 23        	ldy	#$23
    4186: b1 02        	lda	($2),y                  ; 0x2002 <__heap_default_limit+0x1002>
    4188: 85 04        	sta	$4                      ; 0x2004 <__heap_default_limit+0x1004>
    418a: c8           	iny
    418b: b1 02        	lda	($2),y                  ; 0x2002 <__heap_default_limit+0x1002>
    418d: 85 05        	sta	$5                      ; 0x2005 <__heap_default_limit+0x1005>
    418f: 20 d1 56     	jsr	$56d1 <msprintf>
    4192: a2 67        	ldx	#$67
    4194: 86 04        	stx	$4                      ; 0x2004 <__heap_default_limit+0x1004>
    4196: a2 78        	ldx	#$78
    4198: 86 05        	stx	$5                      ; 0x2005 <__heap_default_limit+0x1005>
    419a: a2 14        	ldx	#$14
    419c: a9 34        	lda	#$34
    419e: 20 df 56     	jsr	$56df <mcputsxy>
    41a1: a0 00        	ldy	#$0
    41a3: 4c 14 30     	jmp	$3014 <donehypclosefile3+0x45>
    41a6: a2 15        	ldx	#$15
    41a8: 86 04        	stx	$4                      ; 0x2004 <__heap_default_limit+0x1004>
    41aa: a2 75        	ldx	#$75
    41ac: 86 05        	stx	$5                      ; 0x2005 <__heap_default_limit+0x1005>
    41ae: a2 0d        	ldx	#$d
    41b0: 86 06        	stx	$6                      ; 0x2006 <__heap_default_limit+0x1006>
    41b2: a2 7a        	ldx	#$7a
    41b4: 86 07        	stx	$7                      ; 0x2007 <__heap_default_limit+0x1007>
    41b6: a2 fa        	ldx	#$fa
    41b8: 86 08        	stx	$8                      ; 0x2008 <__heap_default_limit+0x1008>
    41ba: a2 70        	ldx	#$70
    41bc: 86 09        	stx	$9                      ; 0x2009 <__heap_default_limit+0x1009>
    41be: 64 0a        	stz	$a                      ; 0x200a <__heap_default_limit+0x100a>
    41c0: 64 0b        	stz	$b                      ; 0x200b <__heap_default_limit+0x100b>
    41c2: 64 0c        	stz	$c                      ; 0x200c <__heap_default_limit+0x100c>
    41c4: a2 00        	ldx	#$0
    41c6: 8a           	txa
    41c7: 20 80 58     	jsr	$5880 <messagebox>
    41ca: aa           	tax
    41cb: d0 03        	bne	$41d0 <donehypclosefile3+0x1201>
    41cd: 4c f9 22     	jmp	$22f9 <main+0x1ed>
    41d0: a9 00        	lda	#$0
    41d2: 8d 7f d6     	sta	$d67f                   ; 0xd67f <__heap_start+0x56e9>
    41d5: b8           	clv
    41d6: a2 90        	ldx	#$90
    41d8: 86 04        	stx	$4                      ; 0x2004 <__heap_default_limit+0x1004>
    41da: a2 79        	ldx	#$79
    41dc: 86 05        	stx	$5                      ; 0x2005 <__heap_default_limit+0x1005>
    41de: a2 56        	ldx	#$56
    41e0: 86 06        	stx	$6                      ; 0x2006 <__heap_default_limit+0x1006>
    41e2: a2 73        	ldx	#$73
    41e4: 86 07        	stx	$7                      ; 0x2007 <__heap_default_limit+0x1007>
    41e6: a9 1e        	lda	#$1e
    41e8: 20 d7 59     	jsr	$59d7 <progress>
    41eb: a2 1e        	ldx	#$1e
    41ed: 86 04        	stx	$4                      ; 0x2004 <__heap_default_limit+0x1004>
    41ef: 64 05        	stz	$5                      ; 0x2005 <__heap_default_limit+0x1005>
    41f1: a2 84        	ldx	#$84
    41f3: a9 80        	lda	#$80
    41f5: 20 55 6a     	jsr	$6a55 <usleep>
    41f8: a9 27        	lda	#$27
    41fa: 18           	clc
    41fb: 65 1c        	adc	$1c                     ; 0x201c <next_line+0x7>
    41fd: 85 04        	sta	$4                      ; 0x2004 <__heap_default_limit+0x1004>
    41ff: a9 00        	lda	#$0
    4201: 65 1b        	adc	$1b                     ; 0x201b <next_line+0x6>
    4203: 85 05        	sta	$5                      ; 0x2005 <__heap_default_limit+0x1005>
    4205: b2 04        	lda	($4),z                  ; 0x2004 <__heap_default_limit+0x1004>
    4207: aa           	tax
    4208: a0 01        	ldy	#$1
    420a: b1 04        	lda	($4),y                  ; 0x2004 <__heap_default_limit+0x1004>
    420c: 86 04        	stx	$4                      ; 0x2004 <__heap_default_limit+0x1004>
    420e: 85 05        	sta	$5                      ; 0x2005 <__heap_default_limit+0x1005>
    4210: 98           	tya
    4211: a0 46        	ldy	#$46
    4213: 11 04        	ora	($4),y                  ; 0x2004 <__heap_default_limit+0x1004>
    4215: 91 04        	sta	($4),y                  ; 0x2004 <__heap_default_limit+0x1004>
    4217: a0 1f        	ldy	#$1f
    4219: b1 02        	lda	($2),y                  ; 0x2002 <__heap_default_limit+0x1002>
    421b: 85 1e        	sta	$1e                     ; 0x201e <next_line+0x9>
    421d: 0a           	asl
    421e: 85 06        	sta	$6                      ; 0x2006 <__heap_default_limit+0x1006>
    4220: a9 00        	lda	#$0
    4222: 2a           	rol
    4223: 85 07        	sta	$7                      ; 0x2007 <__heap_default_limit+0x1007>
    4225: a9 27        	lda	#$27
    4227: 18           	clc
    4228: 65 06        	adc	$6                      ; 0x2006 <__heap_default_limit+0x1006>
    422a: 85 06        	sta	$6                      ; 0x2006 <__heap_default_limit+0x1006>
    422c: a9 00        	lda	#$0
    422e: 65 07        	adc	$7                      ; 0x2007 <__heap_default_limit+0x1007>
    4230: 85 07        	sta	$7                      ; 0x2007 <__heap_default_limit+0x1007>
    4232: b2 06        	lda	($6),z                  ; 0x2006 <__heap_default_limit+0x1006>
    4234: 85 18        	sta	$18                     ; 0x2018 <next_line+0x3>
    4236: a0 01        	ldy	#$1
    4238: b1 06        	lda	($6),y                  ; 0x2006 <__heap_default_limit+0x1006>
    423a: 85 19        	sta	$19                     ; 0x2019 <next_line+0x4>
    423c: 98           	tya
    423d: a0 46        	ldy	#$46
    423f: 11 18        	ora	($18),y                 ; 0x2018 <next_line+0x3>
    4241: 91 18        	sta	($18),y                 ; 0x2018 <next_line+0x3>
    4243: a9 28        	lda	#$28
    4245: c8           	iny
    4246: 91 04        	sta	($4),y                  ; 0x2004 <__heap_default_limit+0x1004>
    4248: 91 18        	sta	($18),y                 ; 0x2018 <next_line+0x3>
    424a: b2 04        	lda	($4),z                  ; 0x2004 <__heap_default_limit+0x1004>
    424c: 48           	pha
    424d: a0 18        	ldy	#$18
    424f: b1 02        	lda	($2),y                  ; 0x2002 <__heap_default_limit+0x1002>
    4251: aa           	tax
    4252: 68           	pla
    4253: 20 ff 5e     	jsr	$5eff <UpdateSectors>
    4256: b2 18        	lda	($18),z                 ; 0x2018 <next_line+0x3>
    4258: 4c 01 44     	jmp	$4401 <donehypd81detach4+0xb>
    425b: a9 27        	lda	#$27
    425d: 18           	clc
    425e: 65 1c        	adc	$1c                     ; 0x201c <next_line+0x7>
    4260: 85 04        	sta	$4                      ; 0x2004 <__heap_default_limit+0x1004>
    4262: a9 00        	lda	#$0
    4264: 65 1b        	adc	$1b                     ; 0x201b <next_line+0x6>
    4266: 85 05        	sta	$5                      ; 0x2005 <__heap_default_limit+0x1005>
    4268: b2 04        	lda	($4),z                  ; 0x2004 <__heap_default_limit+0x1004>
    426a: 85 18        	sta	$18                     ; 0x2018 <next_line+0x3>
    426c: b1 04        	lda	($4),y                  ; 0x2004 <__heap_default_limit+0x1004>
    426e: 85 19        	sta	$19                     ; 0x2019 <next_line+0x4>
    4270: a9 01        	lda	#$1
    4272: a0 46        	ldy	#$46
    4274: 31 18        	and	($18),y                 ; 0x2018 <next_line+0x3>
    4276: d0 03        	bne	$427b <donehypclosefile3+0x12ac>
    4278: 4c aa 42     	jmp	$42aa <donehypclosefile3+0x12db>
    427b: a0 1f        	ldy	#$1f
    427d: b1 02        	lda	($2),y                  ; 0x2002 <__heap_default_limit+0x1002>
    427f: 0a           	asl
    4280: 85 04        	sta	$4                      ; 0x2004 <__heap_default_limit+0x1004>
    4282: a9 00        	lda	#$0
    4284: 2a           	rol
    4285: 85 05        	sta	$5                      ; 0x2005 <__heap_default_limit+0x1005>
    4287: a9 27        	lda	#$27
    4289: 18           	clc
    428a: 65 04        	adc	$4                      ; 0x2004 <__heap_default_limit+0x1004>
    428c: 85 04        	sta	$4                      ; 0x2004 <__heap_default_limit+0x1004>
    428e: a9 00        	lda	#$0
    4290: 65 05        	adc	$5                      ; 0x2005 <__heap_default_limit+0x1005>
    4292: 85 05        	sta	$5                      ; 0x2005 <__heap_default_limit+0x1005>
    4294: b2 04        	lda	($4),z                  ; 0x2004 <__heap_default_limit+0x1004>
    4296: 85 1a        	sta	$1a                     ; 0x201a <next_line+0x5>
    4298: a0 01        	ldy	#$1
    429a: b1 04        	lda	($4),y                  ; 0x2004 <__heap_default_limit+0x1004>
    429c: 85 1b        	sta	$1b                     ; 0x201b <next_line+0x6>
    429e: 98           	tya
    429f: a0 46        	ldy	#$46
    42a1: 31 1a        	and	($1a),y                 ; 0x201a <next_line+0x5>
    42a3: 29 01        	and	#$1
    42a5: f0 03        	beq	$42aa <donehypclosefile3+0x12db>
    42a7: 4c 1a 45     	jmp	$451a <donehypd81detach4+0x124>
    42aa: a2 52        	ldx	#$52
    42ac: 86 04        	stx	$4                      ; 0x2004 <__heap_default_limit+0x1004>
    42ae: a2 71        	ldx	#$71
    42b0: 4c fd 30     	jmp	$30fd <donehypclosefile3+0x12e>
    42b3: e0 11        	cpx	#$11
    42b5: f0 03        	beq	$42ba <donehypclosefile3+0x12eb>
    42b7: 4c ed 2e     	jmp	$2eed <main+0xde1>
    42ba: a9 27        	lda	#$27
    42bc: 18           	clc
    42bd: 65 1c        	adc	$1c                     ; 0x201c <next_line+0x7>
    42bf: 85 04        	sta	$4                      ; 0x2004 <__heap_default_limit+0x1004>
    42c1: a9 00        	lda	#$0
    42c3: 65 1b        	adc	$1b                     ; 0x201b <next_line+0x6>
    42c5: 85 05        	sta	$5                      ; 0x2005 <__heap_default_limit+0x1005>
    42c7: b2 04        	lda	($4),z                  ; 0x2004 <__heap_default_limit+0x1004>
    42c9: aa           	tax
    42ca: b1 04        	lda	($4),y                  ; 0x2004 <__heap_default_limit+0x1004>
    42cc: 86 04        	stx	$4                      ; 0x2004 <__heap_default_limit+0x1004>
    42ce: 85 05        	sta	$5                      ; 0x2005 <__heap_default_limit+0x1005>
    42d0: b1 04        	lda	($4),y                  ; 0x2004 <__heap_default_limit+0x1004>
    42d2: 1a           	inc
    42d3: 91 04        	sta	($4),y                  ; 0x2004 <__heap_default_limit+0x1004>
    42d5: 4c f9 22     	jmp	$22f9 <main+0x1ed>
    42d8: a6 21        	ldx	$21                     ; 0x2021 <_start>
    42da: e0 f5        	cpx	#$f5
    42dc: f0 03        	beq	$42e1 <donehypclosefile3+0x1312>
    42de: 4c 33 43     	jmp	$4333 <donehypclosefile3+0x1364>
    42e1: a6 04        	ldx	$4                      ; 0x2004 <__heap_default_limit+0x1004>
    42e3: 86 18        	stx	$18                     ; 0x2018 <next_line+0x3>
    42e5: a6 05        	ldx	$5                      ; 0x2005 <__heap_default_limit+0x1005>
    42e7: 86 19        	stx	$19                     ; 0x2019 <next_line+0x4>
    42e9: a0 18        	ldy	#$18
    42eb: b1 02        	lda	($2),y                  ; 0x2002 <__heap_default_limit+0x1002>
    42ed: 20 aa 65     	jsr	$65aa <sizeselectcurrentifnone>
    42f0: 85 04        	sta	$4                      ; 0x2004 <__heap_default_limit+0x1004>
    42f2: 86 05        	stx	$5                      ; 0x2005 <__heap_default_limit+0x1005>
    42f4: 18           	clc
    42f5: a5 1f        	lda	$1f                     ; 0x201f <next_line+0xa>
    42f7: 69 44        	adc	#$44
    42f9: aa           	tax
    42fa: a0 1b        	ldy	#$1b
    42fc: b1 02        	lda	($2),y                  ; 0x2002 <__heap_default_limit+0x1002>
    42fe: 69 00        	adc	#$0
    4300: 86 06        	stx	$6                      ; 0x2006 <__heap_default_limit+0x1006>
    4302: 85 07        	sta	$7                      ; 0x2007 <__heap_default_limit+0x1007>
    4304: a0 01        	ldy	#$1
    4306: b1 06        	lda	($6),y                  ; 0x2006 <__heap_default_limit+0x1006>
    4308: c5 05        	cmp	$5                      ; 0x2005 <__heap_default_limit+0x1005>
    430a: f0 03        	beq	$430f <donehypclosefile3+0x1340>
    430c: 4c e2 45     	jmp	$45e2 <donehypchdir5+0x39>
    430f: a0 44        	ldy	#$44
    4311: 5a           	phy
    4312: a0 1d        	ldy	#$1d
    4314: b1 02        	lda	($2),y                  ; 0x2002 <__heap_default_limit+0x1002>
    4316: 85 06        	sta	$6                      ; 0x2006 <__heap_default_limit+0x1006>
    4318: c8           	iny
    4319: b1 02        	lda	($2),y                  ; 0x2002 <__heap_default_limit+0x1002>
    431b: 7a           	ply
    431c: 85 07        	sta	$7                      ; 0x2007 <__heap_default_limit+0x1007>
    431e: b1 06        	lda	($6),y                  ; 0x2006 <__heap_default_limit+0x1006>
    4320: c5 04        	cmp	$4                      ; 0x2004 <__heap_default_limit+0x1004>
    4322: b0 03        	bcs	$4327 <donehypclosefile3+0x1358>
    4324: 4c e9 45     	jmp	$45e9 <donehypchdir5+0x40>
    4327: a0 18        	ldy	#$18
    4329: b1 02        	lda	($2),y                  ; 0x2002 <__heap_default_limit+0x1002>
    432b: f0 03        	beq	$4330 <donehypclosefile3+0x1361>
    432d: 4c e4 46     	jmp	$46e4 <donehypchdir6+0xa9>
    4330: 4c ac 47     	jmp	$47ac <donehyp1att7+0x52>
    4333: 98           	tya
    4334: d0 03        	bne	$4339 <donehypclosefile3+0x136a>
    4336: 4c f9 22     	jmp	$22f9 <main+0x1ed>
    4339: a0 18        	ldy	#$18
    433b: b1 02        	lda	($2),y                  ; 0x2002 <__heap_default_limit+0x1002>
    433d: d0 03        	bne	$4342 <donehypclosefile3+0x1373>
    433f: 4c 8d 44     	jmp	$448d <donehypd81detach4+0x97>
    4342: a2 30        	ldx	#$30
    4344: 86 08        	stx	$8                      ; 0x2008 <__heap_default_limit+0x1008>
    4346: a2 76        	ldx	#$76
    4348: 4c 93 44     	jmp	$4493 <donehypd81detach4+0x9d>
    434b: e0 5f        	cpx	#$5f
    434d: d0 03        	bne	$4352 <donehypclosefile3+0x1383>
    434f: 4c 2a 32     	jmp	$322a <donehypclosefile3+0x25b>
    4352: a5 21        	lda	$21                     ; 0x2021 <_start>
    4354: a6 1d        	ldx	$1d                     ; 0x201d <next_line+0x8>
    4356: d0 04        	bne	$435c <donehypclosefile3+0x138d>
    4358: c9 91        	cmp	#$91
    435a: f0 1b        	beq	$4377 <donehypclosefile3+0x13a8>
    435c: a6 1d        	ldx	$1d                     ; 0x201d <next_line+0x8>
    435e: d0 07        	bne	$4367 <donehypclosefile3+0x1398>
    4360: c9 9d        	cmp	#$9d
    4362: d0 03        	bne	$4367 <donehypclosefile3+0x1398>
    4364: 4c 28 44     	jmp	$4428 <donehypd81detach4+0x32>
    4367: a6 1d        	ldx	$1d                     ; 0x201d <next_line+0x8>
    4369: e0 01        	cpx	#$1
    436b: f0 03        	beq	$4370 <donehypclosefile3+0x13a1>
    436d: 4c 09 44     	jmp	$4409 <donehypd81detach4+0x13>
    4370: c9 91        	cmp	#$91
    4372: f0 03        	beq	$4377 <donehypclosefile3+0x13a8>
    4374: 4c 09 44     	jmp	$4409 <donehypd81detach4+0x13>
    4377: a9 27        	lda	#$27
    4379: 18           	clc
    437a: 65 1c        	adc	$1c                     ; 0x201c <next_line+0x7>
    437c: 85 04        	sta	$4                      ; 0x2004 <__heap_default_limit+0x1004>
    437e: a9 00        	lda	#$0
    4380: 65 1b        	adc	$1b                     ; 0x201b <next_line+0x6>
    4382: 85 05        	sta	$5                      ; 0x2005 <__heap_default_limit+0x1005>
    4384: b2 04        	lda	($4),z                  ; 0x2004 <__heap_default_limit+0x1004>
    4386: aa           	tax
    4387: b1 04        	lda	($4),y                  ; 0x2004 <__heap_default_limit+0x1004>
    4389: 86 04        	stx	$4                      ; 0x2004 <__heap_default_limit+0x1004>
    438b: 85 05        	sta	$5                      ; 0x2005 <__heap_default_limit+0x1005>
    438d: b1 04        	lda	($4),y                  ; 0x2004 <__heap_default_limit+0x1004>
    438f: d0 03        	bne	$4394 <donehypclosefile3+0x13c5>
    4391: 4c f9 22     	jmp	$22f9 <main+0x1ed>
    4394: 3a           	dec
    4395: 91 04        	sta	($4),y                  ; 0x2004 <__heap_default_limit+0x1004>
    4397: 4c f9 22     	jmp	$22f9 <main+0x1ed>
    439a: a2 33        	ldx	#$33
    439c: 86 04        	stx	$4                      ; 0x2004 <__heap_default_limit+0x1004>
    439e: a2 72        	ldx	#$72
    43a0: 86 05        	stx	$5                      ; 0x2005 <__heap_default_limit+0x1005>
    43a2: a2 91        	ldx	#$91
    43a4: 86 06        	stx	$6                      ; 0x2006 <__heap_default_limit+0x1006>
    43a6: a2 74        	ldx	#$74
    43a8: 86 07        	stx	$7                      ; 0x2007 <__heap_default_limit+0x1007>
    43aa: a2 fa        	ldx	#$fa
    43ac: 86 08        	stx	$8                      ; 0x2008 <__heap_default_limit+0x1008>
    43ae: a2 70        	ldx	#$70
    43b0: 86 09        	stx	$9                      ; 0x2009 <__heap_default_limit+0x1009>
    43b2: 64 0a        	stz	$a                      ; 0x200a <__heap_default_limit+0x100a>
    43b4: 64 0b        	stz	$b                      ; 0x200b <__heap_default_limit+0x100b>
    43b6: 64 0c        	stz	$c                      ; 0x200c <__heap_default_limit+0x100c>
    43b8: a2 00        	ldx	#$0
    43ba: 8a           	txa
    43bb: 20 80 58     	jsr	$5880 <messagebox>
    43be: a0 01        	ldy	#$1
    43c0: aa           	tax
    43c1: d0 03        	bne	$43c6 <donehypclosefile3+0x13f7>
    43c3: 4c f9 22     	jmp	$22f9 <main+0x1ed>
    43c6: 5a           	phy
    43c7: a0 1f        	ldy	#$1f
    43c9: b1 02        	lda	($2),y                  ; 0x2002 <__heap_default_limit+0x1002>
    43cb: 7a           	ply
    43cc: 85 1e        	sta	$1e                     ; 0x201e <next_line+0x9>
    43ce: 0a           	asl
    43cf: 85 04        	sta	$4                      ; 0x2004 <__heap_default_limit+0x1004>
    43d1: a9 00        	lda	#$0
    43d3: 2a           	rol
    43d4: 85 05        	sta	$5                      ; 0x2005 <__heap_default_limit+0x1005>
    43d6: a9 27        	lda	#$27
    43d8: 18           	clc
    43d9: 65 04        	adc	$4                      ; 0x2004 <__heap_default_limit+0x1004>
    43db: 85 04        	sta	$4                      ; 0x2004 <__heap_default_limit+0x1004>
    43dd: a9 00        	lda	#$0
    43df: 65 05        	adc	$5                      ; 0x2005 <__heap_default_limit+0x1005>
    43e1: 85 05        	sta	$5                      ; 0x2005 <__heap_default_limit+0x1005>
    43e3: a2 00        	ldx	#$0
    43e5: a9 42        	lda	#$42
    43e7: 8d 40 d6     	sta	$d640                   ; 0xd640 <__heap_start+0x56aa>
    43ea: b8           	clv
    43eb: 90 05        	bcc	$43f2 <errhypd81detach4>
    43ed: 85 06        	sta	$6                      ; 0x2006 <__heap_default_limit+0x1006>
    43ef: 4c f6 43     	jmp	$43f6 <donehypd81detach4>

000043f2 <errhypd81detach4>:
    43f2: a9 ff        	lda	#$ff
    43f4: 85 06        	sta	$6                      ; 0x2006 <__heap_default_limit+0x1006>

000043f6 <donehypd81detach4>:
    43f6: ea b2 04     	lda	[$4],z                  ; 0x2004 <__heap_default_limit+0x1004>
    43f9: 85 06        	sta	$6                      ; 0x2006 <__heap_default_limit+0x1006>
    43fb: b1 04        	lda	($4),y                  ; 0x2004 <__heap_default_limit+0x1004>
    43fd: 85 07        	sta	$7                      ; 0x2007 <__heap_default_limit+0x1007>
    43ff: b2 06        	lda	($6),z                  ; 0x2006 <__heap_default_limit+0x1006>
    4401: a6 1e        	ldx	$1e                     ; 0x201e <next_line+0x9>
    4403: 20 ff 5e     	jsr	$5eff <UpdateSectors>
    4406: 4c f9 22     	jmp	$22f9 <main+0x1ed>
    4409: a6 1d        	ldx	$1d                     ; 0x201d <next_line+0x8>
    440b: e0 01        	cpx	#$1
    440d: d0 07        	bne	$4416 <donehypd81detach4+0x20>
    440f: c9 94        	cmp	#$94
    4411: d0 03        	bne	$4416 <donehypd81detach4+0x20>
    4413: 4c 66 3e     	jmp	$3e66 <donehypclosefile3+0xe97>
    4416: a6 1d        	ldx	$1d                     ; 0x201d <next_line+0x8>
    4418: a5 21        	lda	$21                     ; 0x2021 <_start>
    441a: e0 01        	cpx	#$1
    441c: f0 03        	beq	$4421 <donehypd81detach4+0x2b>
    441e: 4c 5c 45     	jmp	$455c <donehypd81detach4+0x166>
    4421: c9 9d        	cmp	#$9d
    4423: f0 03        	beq	$4428 <donehypd81detach4+0x32>
    4425: 4c 5c 45     	jmp	$455c <donehypd81detach4+0x166>
    4428: a9 27        	lda	#$27
    442a: 18           	clc
    442b: 65 1c        	adc	$1c                     ; 0x201c <next_line+0x7>
    442d: 85 04        	sta	$4                      ; 0x2004 <__heap_default_limit+0x1004>
    442f: a9 00        	lda	#$0
    4431: 65 1b        	adc	$1b                     ; 0x201b <next_line+0x6>
    4433: 85 05        	sta	$5                      ; 0x2005 <__heap_default_limit+0x1005>
    4435: b2 04        	lda	($4),z                  ; 0x2004 <__heap_default_limit+0x1004>
    4437: aa           	tax
    4438: b1 04        	lda	($4),y                  ; 0x2004 <__heap_default_limit+0x1004>
    443a: 86 04        	stx	$4                      ; 0x2004 <__heap_default_limit+0x1004>
    443c: 85 05        	sta	$5                      ; 0x2005 <__heap_default_limit+0x1005>
    443e: b1 04        	lda	($4),y                  ; 0x2004 <__heap_default_limit+0x1004>
    4440: c9 0b        	cmp	#$b
    4442: b0 03        	bcs	$4447 <donehypd81detach4+0x51>
    4444: 4c 52 46     	jmp	$4652 <donehypchdir6+0x17>
    4447: 18           	clc
    4448: 69 f6        	adc	#$f6
    444a: 91 04        	sta	($4),y                  ; 0x2004 <__heap_default_limit+0x1004>
    444c: 4c f9 22     	jmp	$22f9 <main+0x1ed>
    444f: a0 1f        	ldy	#$1f
    4451: b1 02        	lda	($2),y                  ; 0x2002 <__heap_default_limit+0x1002>
    4453: 85 04        	sta	$4                      ; 0x2004 <__heap_default_limit+0x1004>
    4455: c8           	iny
    4456: b1 02        	lda	($2),y                  ; 0x2002 <__heap_default_limit+0x1002>
    4458: 85 05        	sta	$5                      ; 0x2005 <__heap_default_limit+0x1005>
    445a: b2 04        	lda	($4),z                  ; 0x2004 <__heap_default_limit+0x1004>
    445c: 4c 47 46     	jmp	$4647 <donehypchdir6+0xc>
    445f: 29 0f        	and	#$f
    4461: c9 05        	cmp	#$5
    4463: d0 09        	bne	$446e <donehypd81detach4+0x78>
    4465: b1 16        	lda	($16),y                 ; 0x2016 <next_line+0x1>
    4467: c9 ff        	cmp	#$ff
    4469: f0 03        	beq	$446e <donehypd81detach4+0x78>
    446b: 4c 5e 47     	jmp	$475e <donehyp1att7+0x4>
    446e: 20 f1 66     	jsr	$66f1 <sidbong>
    4471: a0 02        	ldy	#$2
    4473: b1 16        	lda	($16),y                 ; 0x2016 <next_line+0x1>
    4475: c9 ff        	cmp	#$ff
    4477: d0 03        	bne	$447c <donehypd81detach4+0x86>
    4479: 4c f9 22     	jmp	$22f9 <main+0x1ed>
    447c: a2 5c        	ldx	#$5c
    447e: 86 04        	stx	$4                      ; 0x2004 <__heap_default_limit+0x1004>
    4480: a2 74        	ldx	#$74
    4482: 86 05        	stx	$5                      ; 0x2005 <__heap_default_limit+0x1005>
    4484: a2 04        	ldx	#$4
    4486: 86 06        	stx	$6                      ; 0x2006 <__heap_default_limit+0x1006>
    4488: a2 79        	ldx	#$79
    448a: 4c 05 31     	jmp	$3105 <donehypclosefile3+0x136>
    448d: a2 d2        	ldx	#$d2
    448f: 86 08        	stx	$8                      ; 0x2008 <__heap_default_limit+0x1008>
    4491: a2 71        	ldx	#$71
    4493: 86 09        	stx	$9                      ; 0x2009 <__heap_default_limit+0x1009>
    4495: a5 06        	lda	$6                      ; 0x2006 <__heap_default_limit+0x1006>
    4497: 18           	clc
    4498: 69 05        	adc	#$5
    449a: 85 06        	sta	$6                      ; 0x2006 <__heap_default_limit+0x1006>
    449c: a5 07        	lda	$7                      ; 0x2007 <__heap_default_limit+0x1007>
    449e: 69 00        	adc	#$0
    44a0: 85 07        	sta	$7                      ; 0x2007 <__heap_default_limit+0x1007>
    44a2: a2 6f        	ldx	#$6f
    44a4: 86 04        	stx	$4                      ; 0x2004 <__heap_default_limit+0x1004>
    44a6: a2 7a        	ldx	#$7a
    44a8: 86 05        	stx	$5                      ; 0x2005 <__heap_default_limit+0x1005>
    44aa: 64 0a        	stz	$a                      ; 0x200a <__heap_default_limit+0x100a>
    44ac: 64 0b        	stz	$b                      ; 0x200b <__heap_default_limit+0x100b>
    44ae: 64 0c        	stz	$c                      ; 0x200c <__heap_default_limit+0x100c>
    44b0: a2 00        	ldx	#$0
    44b2: 8a           	txa
    44b3: 20 80 58     	jsr	$5880 <messagebox>
    44b6: aa           	tax
    44b7: d0 03        	bne	$44bc <donehypd81detach4+0xc6>
    44b9: 4c f9 22     	jmp	$22f9 <main+0x1ed>
    44bc: a0 18        	ldy	#$18
    44be: b1 02        	lda	($2),y                  ; 0x2002 <__heap_default_limit+0x1002>
    44c0: 20 aa 65     	jsr	$65aa <sizeselectcurrentifnone>
    44c3: e0 ff        	cpx	#$ff
    44c5: d0 07        	bne	$44ce <donehypd81detach4+0xd8>
    44c7: c9 ff        	cmp	#$ff
    44c9: d0 03        	bne	$44ce <donehypd81detach4+0xd8>
    44cb: 4c f9 22     	jmp	$22f9 <main+0x1ed>
    44ce: a9 00        	lda	#$0
    44d0: a6 1e        	ldx	$1e                     ; 0x201e <next_line+0x9>
    44d2: e0 01        	cpx	#$1
    44d4: 2a           	rol
    44d5: 85 04        	sta	$4                      ; 0x2004 <__heap_default_limit+0x1004>
    44d7: 85 08        	sta	$8                      ; 0x2008 <__heap_default_limit+0x1008>
    44d9: a6 18        	ldx	$18                     ; 0x2018 <next_line+0x3>
    44db: e0 01        	cpx	#$1
    44dd: 26 08        	rol	$8                      ; 0x2008 <__heap_default_limit+0x1008>
    44df: a6 19        	ldx	$19                     ; 0x2019 <next_line+0x4>
    44e1: e0 01        	cpx	#$1
    44e3: 26 08        	rol	$8                      ; 0x2008 <__heap_default_limit+0x1008>
    44e5: a5 16        	lda	$16                     ; 0x2016 <next_line+0x1>
    44e7: 0a           	asl
    44e8: 26 20        	rol	$20                     ; 0x2020 <next_line+0xb>
    44ea: 26 08        	rol	$8                      ; 0x2008 <__heap_default_limit+0x1008>
    44ec: 38           	sec
    44ed: e5 1c        	sbc	$1c                     ; 0x201c <next_line+0x7>
    44ef: a0 17        	ldy	#$17
    44f1: 91 02        	sta	($2),y                  ; 0x2002 <__heap_default_limit+0x1002>
    44f3: a0 10        	ldy	#$10
    44f5: 91 02        	sta	($2),y                  ; 0x2002 <__heap_default_limit+0x1002>
    44f7: a5 20        	lda	$20                     ; 0x2020 <next_line+0xb>
    44f9: e5 1b        	sbc	$1b                     ; 0x201b <next_line+0x6>
    44fb: a0 16        	ldy	#$16
    44fd: 91 02        	sta	($2),y                  ; 0x2002 <__heap_default_limit+0x1002>
    44ff: a0 0f        	ldy	#$f
    4501: 91 02        	sta	($2),y                  ; 0x2002 <__heap_default_limit+0x1002>
    4503: a5 08        	lda	$8                      ; 0x2008 <__heap_default_limit+0x1008>
    4505: e5 04        	sbc	$4                      ; 0x2004 <__heap_default_limit+0x1004>
    4507: 09 08        	ora	#$8
    4509: a0 15        	ldy	#$15
    450b: 91 02        	sta	($2),y                  ; 0x2002 <__heap_default_limit+0x1002>
    450d: a0 0e        	ldy	#$e
    450f: 91 02        	sta	($2),y                  ; 0x2002 <__heap_default_limit+0x1002>
    4511: a2 70        	ldx	#$70
    4513: 64 04        	stz	$4                      ; 0x2004 <__heap_default_limit+0x1004>
    4515: 86 1e        	stx	$1e                     ; 0x201e <next_line+0x9>
    4517: 4c 3c 28     	jmp	$283c <main+0x730>
    451a: a2 5a        	ldx	#$5a
    451c: 86 04        	stx	$4                      ; 0x2004 <__heap_default_limit+0x1004>
    451e: a2 73        	ldx	#$73
    4520: 86 05        	stx	$5                      ; 0x2005 <__heap_default_limit+0x1005>
    4522: a2 90        	ldx	#$90
    4524: 86 06        	stx	$6                      ; 0x2006 <__heap_default_limit+0x1006>
    4526: a2 75        	ldx	#$75
    4528: 86 07        	stx	$7                      ; 0x2007 <__heap_default_limit+0x1007>
    452a: a2 fa        	ldx	#$fa
    452c: 86 08        	stx	$8                      ; 0x2008 <__heap_default_limit+0x1008>
    452e: a2 70        	ldx	#$70
    4530: 86 09        	stx	$9                      ; 0x2009 <__heap_default_limit+0x1009>
    4532: 64 0a        	stz	$a                      ; 0x200a <__heap_default_limit+0x100a>
    4534: 64 0b        	stz	$b                      ; 0x200b <__heap_default_limit+0x100b>
    4536: 64 0c        	stz	$c                      ; 0x200c <__heap_default_limit+0x100c>
    4538: a2 00        	ldx	#$0
    453a: 8a           	txa
    453b: 20 80 58     	jsr	$5880 <messagebox>
    453e: aa           	tax
    453f: d0 03        	bne	$4544 <donehypd81detach4+0x14e>
    4541: 4c f9 22     	jmp	$22f9 <main+0x1ed>
    4544: a0 18        	ldy	#$18
    4546: b1 02        	lda	($2),y                  ; 0x2002 <__heap_default_limit+0x1002>
    4548: 20 f0 4c     	jsr	$4cf0 <GetBAM>
    454b: b2 18        	lda	($18),z                 ; 0x2018 <next_line+0x3>
    454d: 85 17        	sta	$17                     ; 0x2017 <next_line+0x2>
    454f: b2 1a        	lda	($1a),z                 ; 0x201a <next_line+0x5>
    4551: 85 16        	sta	$16                     ; 0x2016 <next_line+0x1>
    4553: a0 01        	ldy	#$1
    4555: 64 04        	stz	$4                      ; 0x2004 <__heap_default_limit+0x1004>
    4557: 64 1e        	stz	$1e                     ; 0x201e <next_line+0x9>
    4559: 4c eb 3e     	jmp	$3eeb <donehypclosefile3+0xf1c>
    455c: a6 1d        	ldx	$1d                     ; 0x201d <next_line+0x8>
    455e: e0 02        	cpx	#$2
    4560: d0 03        	bne	$4565 <donehypd81detach4+0x16f>
    4562: 4c 05 47     	jmp	$4705 <donehypchdir6+0xca>
    4565: a6 1d        	ldx	$1d                     ; 0x201d <next_line+0x8>
    4567: e0 04        	cpx	#$4
    4569: d0 03        	bne	$456e <donehypd81detach4+0x178>
    456b: 4c 80 47     	jmp	$4780 <donehyp1att7+0x26>
    456e: a6 1d        	ldx	$1d                     ; 0x201d <next_line+0x8>
    4570: e0 02        	cpx	#$2
    4572: f0 03        	beq	$4577 <donehypd81detach4+0x181>
    4574: 4c be 47     	jmp	$47be <donehyp1att7+0x64>
    4577: 4c b5 47     	jmp	$47b5 <donehyp1att7+0x5b>
    457a: a5 04        	lda	$4                      ; 0x2004 <__heap_default_limit+0x1004>
    457c: 18           	clc
    457d: 69 05        	adc	#$5
    457f: 85 18        	sta	$18                     ; 0x2018 <next_line+0x3>
    4581: a5 05        	lda	$5                      ; 0x2005 <__heap_default_limit+0x1005>
    4583: 69 00        	adc	#$0
    4585: 85 19        	sta	$19                     ; 0x2019 <next_line+0x4>
    4587: a6 18        	ldx	$18                     ; 0x2018 <next_line+0x3>
    4589: 86 04        	stx	$4                      ; 0x2004 <__heap_default_limit+0x1004>
    458b: 85 05        	sta	$5                      ; 0x2005 <__heap_default_limit+0x1005>
    458d: 20 6c 48     	jsr	$486c <hyppo_setname>
    4590: a2 00        	ldx	#$0
    4592: a9 34        	lda	#$34
    4594: 8d 40 d6     	sta	$d640                   ; 0xd640 <__heap_start+0x56aa>
    4597: b8           	clv
    4598: 90 0b        	bcc	$45a5 <errhypchdir5>
    459a: a9 0c        	lda	#$c
    459c: 8d 40 d6     	sta	$d640                   ; 0xd640 <__heap_start+0x56aa>
    459f: b8           	clv
    45a0: 85 04        	sta	$4                      ; 0x2004 <__heap_default_limit+0x1004>
    45a2: 4c a9 45     	jmp	$45a9 <donehypchdir5>

000045a5 <errhypchdir5>:
    45a5: a9 ff        	lda	#$ff
    45a7: 85 04        	sta	$4                      ; 0x2004 <__heap_default_limit+0x1004>

000045a9 <donehypchdir5>:
    45a9: ea           	nop
    45aa: a6 04        	ldx	$4                      ; 0x2004 <__heap_default_limit+0x1004>
    45ac: e0 10        	cpx	#$10
    45ae: b0 03        	bcs	$45b3 <donehypchdir5+0xa>
    45b0: 4c 36 47     	jmp	$4736 <donehypchdir6+0xfb>
    45b3: 4c 0f 47     	jmp	$470f <donehypchdir6+0xd4>
    45b6: 86 09        	stx	$9                      ; 0x2009 <__heap_default_limit+0x1009>
    45b8: a5 18        	lda	$18                     ; 0x2018 <next_line+0x3>
    45ba: 18           	clc
    45bb: 69 05        	adc	#$5
    45bd: 85 06        	sta	$6                      ; 0x2006 <__heap_default_limit+0x1006>
    45bf: a5 19        	lda	$19                     ; 0x2019 <next_line+0x4>
    45c1: 69 00        	adc	#$0
    45c3: 85 07        	sta	$7                      ; 0x2007 <__heap_default_limit+0x1007>
    45c5: a2 83        	ldx	#$83
    45c7: 86 04        	stx	$4                      ; 0x2004 <__heap_default_limit+0x1004>
    45c9: a2 72        	ldx	#$72
    45cb: 86 05        	stx	$5                      ; 0x2005 <__heap_default_limit+0x1005>
    45cd: 64 0a        	stz	$a                      ; 0x200a <__heap_default_limit+0x100a>
    45cf: 64 0b        	stz	$b                      ; 0x200b <__heap_default_limit+0x100b>
    45d1: 64 0c        	stz	$c                      ; 0x200c <__heap_default_limit+0x100c>
    45d3: a2 00        	ldx	#$0
    45d5: 8a           	txa
    45d6: 20 80 58     	jsr	$5880 <messagebox>
    45d9: aa           	tax
    45da: f0 03        	beq	$45df <donehypchdir5+0x36>
    45dc: 4c ed 46     	jmp	$46ed <donehypchdir6+0xb2>
    45df: 4c f9 22     	jmp	$22f9 <main+0x1ed>
    45e2: c5 05        	cmp	$5                      ; 0x2005 <__heap_default_limit+0x1005>
    45e4: 90 03        	bcc	$45e9 <donehypchdir5+0x40>
    45e6: 4c 27 43     	jmp	$4327 <donehypclosefile3+0x1358>
    45e9: a2 83        	ldx	#$83
    45eb: 86 04        	stx	$4                      ; 0x2004 <__heap_default_limit+0x1004>
    45ed: a2 72        	ldx	#$72
    45ef: 86 05        	stx	$5                      ; 0x2005 <__heap_default_limit+0x1005>
    45f1: a2 3b        	ldx	#$3b
    45f3: 86 06        	stx	$6                      ; 0x2006 <__heap_default_limit+0x1006>
    45f5: a2 72        	ldx	#$72
    45f7: 4c 05 31     	jmp	$3105 <donehypclosefile3+0x136>
    45fa: b2 1a        	lda	($1a),z                 ; 0x201a <next_line+0x5>
    45fc: 48           	pha
    45fd: a0 1f        	ldy	#$1f
    45ff: b1 02        	lda	($2),y                  ; 0x2002 <__heap_default_limit+0x1002>
    4601: aa           	tax
    4602: 68           	pla
    4603: 20 ff 5e     	jsr	$5eff <UpdateSectors>
    4606: 4c f9 22     	jmp	$22f9 <main+0x1ed>
    4609: a5 04        	lda	$4                      ; 0x2004 <__heap_default_limit+0x1004>
    460b: f0 03        	beq	$4610 <donehypchdir5+0x67>
    460d: 4c 67 47     	jmp	$4767 <donehyp1att7+0xd>
    4610: 4c 23 48     	jmp	$4823 <donehyp0att8+0x4>
    4613: 91 16        	sta	($16),y                 ; 0x2016 <next_line+0x1>
    4615: 80 2e        	bra	$4645 <donehypchdir6+0xa>
    4617: a2 58        	ldx	#$58
    4619: 86 04        	stx	$4                      ; 0x2004 <__heap_default_limit+0x1004>
    461b: a2 7c        	ldx	#$7c
    461d: 86 05        	stx	$5                      ; 0x2005 <__heap_default_limit+0x1005>
    461f: 20 6c 48     	jsr	$486c <hyppo_setname>
    4622: a2 00        	ldx	#$0
    4624: a9 34        	lda	#$34
    4626: 8d 40 d6     	sta	$d640                   ; 0xd640 <__heap_start+0x56aa>
    4629: b8           	clv
    462a: 90 0b        	bcc	$4637 <errhypchdir6>
    462c: a9 0c        	lda	#$c
    462e: 8d 40 d6     	sta	$d640                   ; 0xd640 <__heap_start+0x56aa>
    4631: b8           	clv
    4632: 85 04        	sta	$4                      ; 0x2004 <__heap_default_limit+0x1004>
    4634: 4c 3b 46     	jmp	$463b <donehypchdir6>

00004637 <errhypchdir6>:
    4637: a9 ff        	lda	#$ff
    4639: 85 04        	sta	$4                      ; 0x2004 <__heap_default_limit+0x1004>

0000463b <donehypchdir6>:
    463b: ea           	nop
    463c: a6 04        	ldx	$4                      ; 0x2004 <__heap_default_limit+0x1004>
    463e: e0 10        	cpx	#$10
    4640: 90 03        	bcc	$4645 <donehypchdir6+0xa>
    4642: 4c 8c 47     	jmp	$478c <donehyp1att7+0x32>
    4645: b2 16        	lda	($16),z                 ; 0x2016 <next_line+0x1>
    4647: 48           	pha
    4648: a0 18        	ldy	#$18
    464a: b1 02        	lda	($2),y                  ; 0x2002 <__heap_default_limit+0x1002>
    464c: 85 16        	sta	$16                     ; 0x2016 <next_line+0x1>
    464e: 68           	pla
    464f: 4c 9d 36     	jmp	$369d <donehypclosefile3+0x6ce>
    4652: a9 00        	lda	#$0
    4654: 91 04        	sta	($4),y                  ; 0x2004 <__heap_default_limit+0x1004>
    4656: 4c f9 22     	jmp	$22f9 <main+0x1ed>
    4659: 20 73 56     	jsr	$5673 <clrhome>
    465c: a2 8e        	ldx	#$8e
    465e: 86 04        	stx	$4                      ; 0x2004 <__heap_default_limit+0x1004>
    4660: a2 72        	ldx	#$72
    4662: 86 05        	stx	$5                      ; 0x2005 <__heap_default_limit+0x1005>
    4664: 20 d1 56     	jsr	$56d1 <msprintf>
    4667: a9 80        	lda	#$80
    4669: a2 84        	ldx	#$84
    466b: a0 1e        	ldy	#$1e
    466d: 84 04        	sty	$4                      ; 0x2004 <__heap_default_limit+0x1004>
    466f: 64 05        	stz	$5                      ; 0x2005 <__heap_default_limit+0x1005>
    4671: 20 55 6a     	jsr	$6a55 <usleep>
    4674: a2 00        	ldx	#$0
    4676: a9 7e        	lda	#$7e
    4678: 8d 40 d6     	sta	$d640                   ; 0xd640 <__heap_start+0x56aa>
    467b: b8           	clv
    467c: 8a           	txa
    467d: 85 12        	sta	$12                     ; 0x2012 <__heap_default_limit+0x1012>
    467f: a8           	tay
    4680: b1 02        	lda	($2),y                  ; 0x2002 <__heap_default_limit+0x1002>
    4682: 85 21        	sta	$21                     ; 0x2021 <_start>
    4684: c8           	iny
    4685: b1 02        	lda	($2),y                  ; 0x2002 <__heap_default_limit+0x1002>
    4687: 85 20        	sta	$20                     ; 0x2020 <next_line+0xb>
    4689: c8           	iny
    468a: b1 02        	lda	($2),y                  ; 0x2002 <__heap_default_limit+0x1002>
    468c: 85 1f        	sta	$1f                     ; 0x201f <next_line+0xa>
    468e: c8           	iny
    468f: b1 02        	lda	($2),y                  ; 0x2002 <__heap_default_limit+0x1002>
    4691: 85 1e        	sta	$1e                     ; 0x201e <next_line+0x9>
    4693: c8           	iny
    4694: b1 02        	lda	($2),y                  ; 0x2002 <__heap_default_limit+0x1002>
    4696: 85 1d        	sta	$1d                     ; 0x201d <next_line+0x8>
    4698: c8           	iny
    4699: b1 02        	lda	($2),y                  ; 0x2002 <__heap_default_limit+0x1002>
    469b: 85 1c        	sta	$1c                     ; 0x201c <next_line+0x7>
    469d: c8           	iny
    469e: b1 02        	lda	($2),y                  ; 0x2002 <__heap_default_limit+0x1002>
    46a0: 85 1b        	sta	$1b                     ; 0x201b <next_line+0x6>
    46a2: c8           	iny
    46a3: b1 02        	lda	($2),y                  ; 0x2002 <__heap_default_limit+0x1002>
    46a5: 85 1a        	sta	$1a                     ; 0x201a <next_line+0x5>
    46a7: 7a           	ply
    46a8: 84 19        	sty	$19                     ; 0x2019 <next_line+0x4>
    46aa: 7a           	ply
    46ab: 84 18        	sty	$18                     ; 0x2018 <next_line+0x3>
    46ad: 7a           	ply
    46ae: 84 17        	sty	$17                     ; 0x2017 <next_line+0x2>
    46b0: 7a           	ply
    46b1: 84 16        	sty	$16                     ; 0x2016 <next_line+0x1>
    46b3: 18           	clc
    46b4: a5 02        	lda	$2                      ; 0x2002 <__heap_default_limit+0x1002>
    46b6: 69 2b        	adc	#$2b
    46b8: 85 02        	sta	$2                      ; 0x2002 <__heap_default_limit+0x1002>
    46ba: a5 03        	lda	$3                      ; 0x2003 <__heap_default_limit+0x1003>
    46bc: 69 00        	adc	#$0
    46be: 85 03        	sta	$3                      ; 0x2003 <__heap_default_limit+0x1003>
    46c0: a5 12        	lda	$12                     ; 0x2012 <__heap_default_limit+0x1012>
    46c2: 60           	rts
    46c3: a0 1d        	ldy	#$1d
    46c5: b1 02        	lda	($2),y                  ; 0x2002 <__heap_default_limit+0x1002>
    46c7: 85 04        	sta	$4                      ; 0x2004 <__heap_default_limit+0x1004>
    46c9: c8           	iny
    46ca: b1 02        	lda	($2),y                  ; 0x2002 <__heap_default_limit+0x1002>
    46cc: 85 05        	sta	$5                      ; 0x2005 <__heap_default_limit+0x1005>
    46ce: b2 04        	lda	($4),z                  ; 0x2004 <__heap_default_limit+0x1004>
    46d0: 48           	pha
    46d1: a0 1c        	ldy	#$1c
    46d3: b1 02        	lda	($2),y                  ; 0x2002 <__heap_default_limit+0x1002>
    46d5: aa           	tax
    46d6: 68           	pla
    46d7: 20 ff 5e     	jsr	$5eff <UpdateSectors>
    46da: a0 18        	ldy	#$18
    46dc: b1 02        	lda	($2),y                  ; 0x2002 <__heap_default_limit+0x1002>
    46de: 20 64 65     	jsr	$6564 <Deselect>
    46e1: 4c f9 22     	jmp	$22f9 <main+0x1ed>
    46e4: a2 ca        	ldx	#$ca
    46e6: 86 08        	stx	$8                      ; 0x2008 <__heap_default_limit+0x1008>
    46e8: a2 77        	ldx	#$77
    46ea: 4c b6 45     	jmp	$45b6 <donehypchdir5+0xd>
    46ed: 64 06        	stz	$6                      ; 0x2006 <__heap_default_limit+0x1006>
    46ef: a2 08        	ldx	#$8
    46f1: a0 18        	ldy	#$18
    46f3: b1 02        	lda	($2),y                  ; 0x2002 <__heap_default_limit+0x1002>
    46f5: d0 03        	bne	$46fa <donehypchdir6+0xbf>
    46f7: 4c 2c 48     	jmp	$482c <donehyp0att8+0xd>
    46fa: 64 04        	stz	$4                      ; 0x2004 <__heap_default_limit+0x1004>
    46fc: a9 00        	lda	#$0
    46fe: a0 14        	ldy	#$14
    4700: 91 02        	sta	($2),y                  ; 0x2002 <__heap_default_limit+0x1002>
    4702: 4c 37 48     	jmp	$4837 <donehyp0att8+0x18>
    4705: c9 09        	cmp	#$9
    4707: f0 03        	beq	$470c <donehypchdir6+0xd1>
    4709: 4c 65 45     	jmp	$4565 <donehypd81detach4+0x16f>
    470c: 4c d7 3f     	jmp	$3fd7 <donehypclosefile3+0x1008>
    470f: a2 ee        	ldx	#$ee
    4711: 86 04        	stx	$4                      ; 0x2004 <__heap_default_limit+0x1004>
    4713: a2 71        	ldx	#$71
    4715: 86 05        	stx	$5                      ; 0x2005 <__heap_default_limit+0x1005>
    4717: a2 4c        	ldx	#$4c
    4719: 86 06        	stx	$6                      ; 0x2006 <__heap_default_limit+0x1006>
    471b: a2 74        	ldx	#$74
    471d: 86 07        	stx	$7                      ; 0x2007 <__heap_default_limit+0x1007>
    471f: a6 18        	ldx	$18                     ; 0x2018 <next_line+0x3>
    4721: 86 08        	stx	$8                      ; 0x2008 <__heap_default_limit+0x1008>
    4723: a6 19        	ldx	$19                     ; 0x2019 <next_line+0x4>
    4725: 86 09        	stx	$9                      ; 0x2009 <__heap_default_limit+0x1009>
    4727: 64 0a        	stz	$a                      ; 0x200a <__heap_default_limit+0x100a>
    4729: 64 0b        	stz	$b                      ; 0x200b <__heap_default_limit+0x100b>
    472b: 64 0c        	stz	$c                      ; 0x200c <__heap_default_limit+0x100c>
    472d: a2 00        	ldx	#$0
    472f: 8a           	txa
    4730: 20 80 58     	jsr	$5880 <messagebox>
    4733: 4c 8a 32     	jmp	$328a <donehypclosefile3+0x2bb>
    4736: b2 1a        	lda	($1a),z                 ; 0x201a <next_line+0x5>
    4738: a6 1f        	ldx	$1f                     ; 0x201f <next_line+0xa>
    473a: 20 ff 5e     	jsr	$5eff <UpdateSectors>
    473d: a5 1f        	lda	$1f                     ; 0x201f <next_line+0xa>
    473f: 20 64 65     	jsr	$6564 <Deselect>
    4742: 4c 8a 32     	jmp	$328a <donehypclosefile3+0x2bb>
    4745: a2 00        	ldx	#$0
    4747: a9 46        	lda	#$46
    4749: 8d 40 d6     	sta	$d640                   ; 0xd640 <__heap_start+0x56aa>
    474c: b8           	clv
    474d: 90 07        	bcc	$4756 <errhyp1att7>
    474f: a9 00        	lda	#$0
    4751: 85 04        	sta	$4                      ; 0x2004 <__heap_default_limit+0x1004>
    4753: 4c 5a 47     	jmp	$475a <donehyp1att7>

00004756 <errhyp1att7>:
    4756: a9 ff        	lda	#$ff
    4758: 85 04        	sta	$4                      ; 0x2004 <__heap_default_limit+0x1004>

0000475a <donehyp1att7>:
    475a: ea           	nop
    475b: 4c 09 46     	jmp	$4609 <donehypchdir5+0x60>
    475e: a0 03        	ldy	#$3
    4760: b1 18        	lda	($18),y                 ; 0x2018 <next_line+0x3>
    4762: a0 47        	ldy	#$47
    4764: 4c 13 46     	jmp	$4613 <donehypchdir5+0x6a>
    4767: a2 69        	ldx	#$69
    4769: 86 04        	stx	$4                      ; 0x2004 <__heap_default_limit+0x1004>
    476b: a2 72        	ldx	#$72
    476d: 86 05        	stx	$5                      ; 0x2005 <__heap_default_limit+0x1005>
    476f: a2 2f        	ldx	#$2f
    4771: 86 06        	stx	$6                      ; 0x2006 <__heap_default_limit+0x1006>
    4773: a2 7a        	ldx	#$7a
    4775: 86 07        	stx	$7                      ; 0x2007 <__heap_default_limit+0x1007>
    4777: a2 58        	ldx	#$58
    4779: 86 08        	stx	$8                      ; 0x2008 <__heap_default_limit+0x1008>
    477b: a2 7c        	ldx	#$7c
    477d: 4c 0d 31     	jmp	$310d <donehypclosefile3+0x13e>
    4780: a6 21        	ldx	$21                     ; 0x2021 <_start>
    4782: e0 15        	cpx	#$15
    4784: f0 03        	beq	$4789 <donehyp1att7+0x2f>
    4786: 4c 6e 45     	jmp	$456e <donehypd81detach4+0x178>
    4789: 4c 87 30     	jmp	$3087 <donehypclosefile3+0xb8>
    478c: a5 18        	lda	$18                     ; 0x2018 <next_line+0x3>
    478e: 18           	clc
    478f: 69 05        	adc	#$5
    4791: 85 08        	sta	$8                      ; 0x2008 <__heap_default_limit+0x1008>
    4793: a5 19        	lda	$19                     ; 0x2019 <next_line+0x4>
    4795: 69 00        	adc	#$0
    4797: 85 09        	sta	$9                      ; 0x2009 <__heap_default_limit+0x1009>
    4799: a2 9b        	ldx	#$9b
    479b: 86 04        	stx	$4                      ; 0x2004 <__heap_default_limit+0x1004>
    479d: a2 79        	ldx	#$79
    479f: 86 05        	stx	$5                      ; 0x2005 <__heap_default_limit+0x1005>
    47a1: a2 4c        	ldx	#$4c
    47a3: 86 06        	stx	$6                      ; 0x2006 <__heap_default_limit+0x1006>
    47a5: a2 74        	ldx	#$74
    47a7: 86 07        	stx	$7                      ; 0x2007 <__heap_default_limit+0x1007>
    47a9: 4c 0f 31     	jmp	$310f <donehypclosefile3+0x140>
    47ac: a2 c2        	ldx	#$c2
    47ae: 86 08        	stx	$8                      ; 0x2008 <__heap_default_limit+0x1008>
    47b0: a2 74        	ldx	#$74
    47b2: 4c b6 45     	jmp	$45b6 <donehypchdir5+0xd>
    47b5: a6 21        	ldx	$21                     ; 0x2021 <_start>
    47b7: e0 94        	cpx	#$94
    47b9: d0 03        	bne	$47be <donehyp1att7+0x64>
    47bb: 4c 66 3e     	jmp	$3e66 <donehypclosefile3+0xe97>
    47be: a6 1d        	ldx	$1d                     ; 0x201d <next_line+0x8>
    47c0: a5 21        	lda	$21                     ; 0x2021 <_start>
    47c2: e0 02        	cpx	#$2
    47c4: d0 07        	bne	$47cd <donehyp1att7+0x73>
    47c6: c9 9d        	cmp	#$9d
    47c8: d0 03        	bne	$47cd <donehyp1att7+0x73>
    47ca: 4c 28 44     	jmp	$4428 <donehypd81detach4+0x32>
    47cd: a6 1d        	ldx	$1d                     ; 0x201d <next_line+0x8>
    47cf: e0 04        	cpx	#$4
    47d1: d0 22        	bne	$47f5 <donehyp1att7+0x9b>
    47d3: c9 12        	cmp	#$12
    47d5: d0 1e        	bne	$47f5 <donehyp1att7+0x9b>
    47d7: a9 27        	lda	#$27
    47d9: 18           	clc
    47da: 65 1c        	adc	$1c                     ; 0x201c <next_line+0x7>
    47dc: 85 04        	sta	$4                      ; 0x2004 <__heap_default_limit+0x1004>
    47de: a9 00        	lda	#$0
    47e0: 65 1b        	adc	$1b                     ; 0x201b <next_line+0x6>
    47e2: 85 05        	sta	$5                      ; 0x2005 <__heap_default_limit+0x1005>
    47e4: b2 04        	lda	($4),z                  ; 0x2004 <__heap_default_limit+0x1004>
    47e6: 85 06        	sta	$6                      ; 0x2006 <__heap_default_limit+0x1006>
    47e8: b1 04        	lda	($4),y                  ; 0x2004 <__heap_default_limit+0x1004>
    47ea: 85 07        	sta	$7                      ; 0x2007 <__heap_default_limit+0x1007>
    47ec: a9 01        	lda	#$1
    47ee: a0 46        	ldy	#$46
    47f0: 11 06        	ora	($6),y                  ; 0x2006 <__heap_default_limit+0x1006>
    47f2: 4c 50 31     	jmp	$3150 <donehypclosefile3+0x181>
    47f5: a6 1d        	ldx	$1d                     ; 0x201d <next_line+0x8>
    47f7: e0 02        	cpx	#$2
    47f9: f0 03        	beq	$47fe <donehyp1att7+0xa4>
    47fb: 4c 87 30     	jmp	$3087 <donehypclosefile3+0xb8>
    47fe: a6 21        	ldx	$21                     ; 0x2021 <_start>
    4800: e0 91        	cpx	#$91
    4802: d0 03        	bne	$4807 <donehyp1att7+0xad>
    4804: 4c 77 43     	jmp	$4377 <donehypclosefile3+0x13a8>
    4807: 4c 87 30     	jmp	$3087 <donehypclosefile3+0xb8>
    480a: a2 00        	ldx	#$0
    480c: a9 40        	lda	#$40
    480e: 8d 40 d6     	sta	$d640                   ; 0xd640 <__heap_start+0x56aa>
    4811: b8           	clv
    4812: 90 07        	bcc	$481b <errhyp0att8>
    4814: a9 00        	lda	#$0
    4816: 85 04        	sta	$4                      ; 0x2004 <__heap_default_limit+0x1004>
    4818: 4c 1f 48     	jmp	$481f <donehyp0att8>

0000481b <errhyp0att8>:
    481b: a9 ff        	lda	#$ff
    481d: 85 04        	sta	$4                      ; 0x2004 <__heap_default_limit+0x1004>

0000481f <donehyp0att8>:
    481f: ea           	nop
    4820: 4c 09 46     	jmp	$4609 <donehypchdir5+0x60>
    4823: a9 01        	lda	#$1
    4825: a0 46        	ldy	#$46
    4827: 11 16        	ora	($16),y                 ; 0x2016 <next_line+0x1>
    4829: 4c 13 46     	jmp	$4613 <donehypchdir5+0x6a>
    482c: a0 0e        	ldy	#$e
    482e: a9 00        	lda	#$0
    4830: 5a           	phy
    4831: a0 14        	ldy	#$14
    4833: 91 02        	sta	($2),y                  ; 0x2002 <__heap_default_limit+0x1002>
    4835: 7a           	ply
    4836: 98           	tya
    4837: a0 1b        	ldy	#$1b
    4839: 91 02        	sta	($2),y                  ; 0x2002 <__heap_default_limit+0x1002>
    483b: 8a           	txa
    483c: a0 19        	ldy	#$19
    483e: 91 02        	sta	($2),y                  ; 0x2002 <__heap_default_limit+0x1002>
    4840: 38           	sec
    4841: a0 21        	ldy	#$21
    4843: b1 02        	lda	($2),y                  ; 0x2002 <__heap_default_limit+0x1002>
    4845: e5 1a        	sbc	$1a                     ; 0x201a <next_line+0x5>
    4847: 85 04        	sta	$4                      ; 0x2004 <__heap_default_limit+0x1004>
    4849: a0 23        	ldy	#$23
    484b: b1 02        	lda	($2),y                  ; 0x2002 <__heap_default_limit+0x1002>
    484d: e5 17        	sbc	$17                     ; 0x2017 <next_line+0x2>
    484f: 85 05        	sta	$5                      ; 0x2005 <__heap_default_limit+0x1005>
    4851: a9 56        	lda	#$56
    4853: 18           	clc
    4854: 65 04        	adc	$4                      ; 0x2004 <__heap_default_limit+0x1004>
    4856: 85 04        	sta	$4                      ; 0x2004 <__heap_default_limit+0x1004>
    4858: a9 7b        	lda	#$7b
    485a: 65 05        	adc	$5                      ; 0x2005 <__heap_default_limit+0x1005>
    485c: 85 05        	sta	$5                      ; 0x2005 <__heap_default_limit+0x1005>
    485e: a0 00        	ldy	#$0
    4860: 4c 06 37     	jmp	$3706 <donehypclosefile3+0x737>
    4863: a0 01        	ldy	#$1
    4865: 64 19        	stz	$19                     ; 0x2019 <next_line+0x4>
    4867: 64 1c        	stz	$1c                     ; 0x201c <next_line+0x7>
    4869: 4c 0f 32     	jmp	$320f <donehypclosefile3+0x240>

0000486c <hyppo_setname>:
    486c: a6 04        	ldx	$4                      ; 0x2004 <__heap_default_limit+0x1004>
    486e: 86 06        	stx	$6                      ; 0x2006 <__heap_default_limit+0x1006>
    4870: a6 05        	ldx	$5                      ; 0x2005 <__heap_default_limit+0x1005>
    4872: 86 07        	stx	$7                      ; 0x2007 <__heap_default_limit+0x1007>
    4874: a2 1c        	ldx	#$1c
    4876: a0 00        	ldy	#$0
    4878: 84 04        	sty	$4                      ; 0x2004 <__heap_default_limit+0x1004>
    487a: a0 1c        	ldy	#$1c
    487c: 84 05        	sty	$5                      ; 0x2005 <__heap_default_limit+0x1005>
    487e: 8e e4 7a     	stx	$7ae4                   ; 0x7ae4 <fnamehi.2>
    4881: 20 b6 6a     	jsr	$6ab6 <strcpy>
    4884: ac e4 7a     	ldy	$7ae4                   ; 0x7ae4 <fnamehi.2>
    4887: a2 00        	ldx	#$0
    4889: a9 2e        	lda	#$2e
    488b: 8d 40 d6     	sta	$d640                   ; 0xd640 <__heap_start+0x56aa>
    488e: b8           	clv
    488f: 90 07        	bcc	$4898 <errhypsetnam9>
    4891: a9 00        	lda	#$0
    4893: 85 04        	sta	$4                      ; 0x2004 <__heap_default_limit+0x1004>
    4895: 4c 9c 48     	jmp	$489c <donehypsetnam9>

00004898 <errhypsetnam9>:
    4898: a9 ff        	lda	#$ff
    489a: 85 04        	sta	$4                      ; 0x2004 <__heap_default_limit+0x1004>

0000489c <donehypsetnam9>:
    489c: ea           	nop
    489d: 60           	rts

0000489e <getsfn>:
    489e: a2 00        	ldx	#$0
    48a0: a0 00        	ldy	#$0
    48a2: 80 0e        	bra	$48b2 <getsfn+0x14>
    48a4: c9 21        	cmp	#$21
    48a6: 90 09        	bcc	$48b1 <getsfn+0x13>
    48a8: 84 04        	sty	$4                      ; 0x2004 <__heap_default_limit+0x1004>
    48aa: e6 04        	inc	$4                      ; 0x2004 <__heap_default_limit+0x1004>
    48ac: 99 41 1c     	sta	$1c41,y                 ; 0x1c41 <__heap_default_limit+0xc41>
    48af: a4 04        	ldy	$4                      ; 0x2004 <__heap_default_limit+0x1004>
    48b1: e8           	inx
    48b2: e0 08        	cpx	#$8
    48b4: f0 07        	beq	$48bd <getsfn+0x1f>
    48b6: bd 41 1b     	lda	$1b41,x                 ; 0x1b41 <__heap_default_limit+0xb41>
    48b9: c9 20        	cmp	#$20
    48bb: d0 e7        	bne	$48a4 <getsfn+0x6>
    48bd: 64 05        	stz	$5                      ; 0x2005 <__heap_default_limit+0x1005>
    48bf: a9 2e        	lda	#$2e
    48c1: 99 41 1c     	sta	$1c41,y                 ; 0x1c41 <__heap_default_limit+0xc41>
    48c4: 98           	tya
    48c5: 1a           	inc
    48c6: a2 00        	ldx	#$0
    48c8: 85 04        	sta	$4                      ; 0x2004 <__heap_default_limit+0x1004>
    48ca: 80 10        	bra	$48dc <getsfn+0x3e>
    48cc: c9 21        	cmp	#$21
    48ce: 90 0b        	bcc	$48db <getsfn+0x3d>
    48d0: 84 06        	sty	$6                      ; 0x2006 <__heap_default_limit+0x1006>
    48d2: a4 04        	ldy	$4                      ; 0x2004 <__heap_default_limit+0x1004>
    48d4: 99 41 1c     	sta	$1c41,y                 ; 0x1c41 <__heap_default_limit+0xc41>
    48d7: a4 06        	ldy	$6                      ; 0x2006 <__heap_default_limit+0x1006>
    48d9: e6 04        	inc	$4                      ; 0x2004 <__heap_default_limit+0x1004>
    48db: e8           	inx
    48dc: e0 03        	cpx	#$3
    48de: f0 07        	beq	$48e7 <getsfn+0x49>
    48e0: bd 49 1b     	lda	$1b49,x                 ; 0x1b49 <__heap_default_limit+0xb49>
    48e3: c9 20        	cmp	#$20
    48e5: d0 e5        	bne	$48cc <getsfn+0x2e>
    48e7: 98           	tya
    48e8: 1a           	inc
    48e9: d0 02        	bne	$48ed <getsfn+0x4f>
    48eb: e6 05        	inc	$5                      ; 0x2005 <__heap_default_limit+0x1005>
    48ed: a6 05        	ldx	$5                      ; 0x2005 <__heap_default_limit+0x1005>
    48ef: d0 0a        	bne	$48fb <getsfn+0x5d>
    48f1: a6 04        	ldx	$4                      ; 0x2004 <__heap_default_limit+0x1004>
    48f3: c5 04        	cmp	$4                      ; 0x2004 <__heap_default_limit+0x1004>
    48f5: d0 06        	bne	$48fd <getsfn+0x5f>
    48f7: 5a           	phy
    48f8: fa           	plx
    48f9: 80 02        	bra	$48fd <getsfn+0x5f>
    48fb: a6 04        	ldx	$4                      ; 0x2004 <__heap_default_limit+0x1004>
    48fd: 9e 41 1c     	stz	$1c41,x                 ; 0x1c41 <__heap_default_limit+0xc41>
    4900: 60           	rts

00004901 <ShowAccess>:
    4901: a8           	tay
    4902: a5 05        	lda	$5                      ; 0x2005 <__heap_default_limit+0x1005>
    4904: c9 02        	cmp	#$2
    4906: f0 03        	beq	$490b <ShowAccess+0xa>
    4908: 4c b2 49     	jmp	$49b2 <ShowAccess+0xb1>
    490b: a9 f0        	lda	#$f0
    490d: 25 2b        	and	$2b                     ; 0x202b <_start+0xa>
    490f: 09 03        	ora	#$3
    4911: 85 2b        	sta	$2b                     ; 0x202b <_start+0xa>
    4913: a5 30        	lda	$30                     ; 0x2030 <__do_init_stack+0x1>
    4915: a2 16        	ldx	#$16
    4917: 64 05        	stz	$5                      ; 0x2005 <__heap_default_limit+0x1005>
    4919: 86 04        	stx	$4                      ; 0x2004 <__heap_default_limit+0x1004>
    491b: a2 00        	ldx	#$0
    491d: 20 4e 6b     	jsr	$6b4e <__mulhi3>
    4920: 18           	clc
    4921: 69 1a        	adc	#$1a
    4923: a8           	tay
    4924: 85 5d        	sta	$5d                     ; 0x205d <lpstore+0x3>
    4926: 8a           	txa
    4927: 69 00        	adc	#$0
    4929: 85 5c        	sta	$5c                     ; 0x205c <lpstore+0x2>
    492b: ad 63 d0     	lda	$d063                   ; 0xd063 <__heap_start+0x50cd>
    492e: 29 07        	and	#$7
    4930: 85 09        	sta	$9                      ; 0x2009 <__heap_default_limit+0x1009>
    4932: ae 62 d0     	ldx	$d062                   ; 0xd062 <__heap_start+0x50cc>
    4935: 86 08        	stx	$8                      ; 0x2008 <__heap_default_limit+0x1008>
    4937: ae 61 d0     	ldx	$d061                   ; 0xd061 <__heap_start+0x50cb>
    493a: 86 04        	stx	$4                      ; 0x2004 <__heap_default_limit+0x1004>
    493c: ae 60 d0     	ldx	$d060                   ; 0xd060 <__heap_start+0x50ca>
    493f: 86 05        	stx	$5                      ; 0x2005 <__heap_default_limit+0x1005>
    4941: 18           	clc
    4942: 98           	tya
    4943: 69 00        	adc	#$0
    4945: 85 07        	sta	$7                      ; 0x2007 <__heap_default_limit+0x1007>
    4947: a6 5c        	ldx	$5c                     ; 0x205c <lpstore+0x2>
    4949: 8a           	txa
    494a: 65 04        	adc	$4                      ; 0x2004 <__heap_default_limit+0x1004>
    494c: aa           	tax
    494d: a5 08        	lda	$8                      ; 0x2008 <__heap_default_limit+0x1008>
    494f: 69 00        	adc	#$0
    4951: 85 04        	sta	$4                      ; 0x2004 <__heap_default_limit+0x1004>
    4953: a5 09        	lda	$9                      ; 0x2009 <__heap_default_limit+0x1009>
    4955: 69 00        	adc	#$0
    4957: 85 06        	sta	$6                      ; 0x2006 <__heap_default_limit+0x1006>
    4959: a5 07        	lda	$7                      ; 0x2007 <__heap_default_limit+0x1007>
    495b: 18           	clc
    495c: 65 05        	adc	$5                      ; 0x2005 <__heap_default_limit+0x1005>
    495e: a8           	tay
    495f: 8a           	txa
    4960: 69 00        	adc	#$0
    4962: 85 09        	sta	$9                      ; 0x2009 <__heap_default_limit+0x1009>
    4964: a5 04        	lda	$4                      ; 0x2004 <__heap_default_limit+0x1004>
    4966: 69 00        	adc	#$0
    4968: 85 04        	sta	$4                      ; 0x2004 <__heap_default_limit+0x1004>
    496a: a5 06        	lda	$6                      ; 0x2006 <__heap_default_limit+0x1006>
    496c: 69 00        	adc	#$0
    496e: a2 20        	ldx	#$20
    4970: 85 05        	sta	$5                      ; 0x2005 <__heap_default_limit+0x1005>
    4972: 86 06        	stx	$6                      ; 0x2006 <__heap_default_limit+0x1006>
    4974: a2 0c        	ldx	#$c
    4976: 86 07        	stx	$7                      ; 0x2007 <__heap_default_limit+0x1007>
    4978: 64 08        	stz	$8                      ; 0x2008 <__heap_default_limit+0x1008>
    497a: a6 09        	ldx	$9                      ; 0x2009 <__heap_default_limit+0x1009>
    497c: 98           	tya
    497d: 20 05 6a     	jsr	$6a05 <lfill>
    4980: a6 2b        	ldx	$2b                     ; 0x202b <_start+0xa>
    4982: a0 f8        	ldy	#$f8
    4984: a9 0f        	lda	#$f
    4986: 84 04        	sty	$4                      ; 0x2004 <__heap_default_limit+0x1004>
    4988: 85 05        	sta	$5                      ; 0x2005 <__heap_default_limit+0x1005>
    498a: 86 06        	stx	$6                      ; 0x2006 <__heap_default_limit+0x1006>
    498c: a2 0c        	ldx	#$c
    498e: 86 07        	stx	$7                      ; 0x2007 <__heap_default_limit+0x1007>
    4990: 64 08        	stz	$8                      ; 0x2008 <__heap_default_limit+0x1008>
    4992: a6 5c        	ldx	$5c                     ; 0x205c <lpstore+0x2>
    4994: a5 5d        	lda	$5d                     ; 0x205d <lpstore+0x3>
    4996: 20 05 6a     	jsr	$6a05 <lfill>
    4999: a6 30        	ldx	$30                     ; 0x2030 <__do_init_stack+0x1>
    499b: a0 5b        	ldy	#$5b
    499d: a9 00        	lda	#$0
    499f: 84 04        	sty	$4                      ; 0x2004 <__heap_default_limit+0x1004>
    49a1: 85 05        	sta	$5                      ; 0x2005 <__heap_default_limit+0x1005>
    49a3: a9 26        	lda	#$26
    49a5: 20 86 6c     	jsr	$6c86 <__udivmodqi4>
    49a8: a6 5b        	ldx	$5b                     ; 0x205b <lpstore+0x1>
    49aa: 18           	clc
    49ab: 69 16        	adc	#$16
    49ad: 85 33        	sta	$33                     ; 0x2033 <__do_init_stack+0x4>
    49af: 86 32        	stx	$32                     ; 0x2032 <__do_init_stack+0x3>
    49b1: 60           	rts
    49b2: 85 5c        	sta	$5c                     ; 0x205c <lpstore+0x2>
    49b4: a9 04        	lda	#$4
    49b6: 25 2f        	and	$2f                     ; 0x202f <__do_init_stack>
    49b8: d0 03        	bne	$49bd <ShowAccess+0xbc>
    49ba: 4c 66 4a     	jmp	$4a66 <ShowAccess+0x165>
    49bd: a5 2b        	lda	$2b                     ; 0x202b <_start+0xa>
    49bf: c0 00        	cpy	#$0
    49c1: f0 0c        	beq	$49cf <ShowAccess+0xce>
    49c3: 84 5f        	sty	$5f                     ; 0x205f <lpstore+0x5>
    49c5: 86 5e        	stx	$5e                     ; 0x205e <lpstore+0x4>
    49c7: a6 04        	ldx	$4                      ; 0x2004 <__heap_default_limit+0x1004>
    49c9: 86 5d        	stx	$5d                     ; 0x205d <lpstore+0x3>
    49cb: a2 0d        	ldx	#$d
    49cd: 80 0a        	bra	$49d9 <ShowAccess+0xd8>
    49cf: 84 5f        	sty	$5f                     ; 0x205f <lpstore+0x5>
    49d1: 86 5e        	stx	$5e                     ; 0x205e <lpstore+0x4>
    49d3: a6 04        	ldx	$4                      ; 0x2004 <__heap_default_limit+0x1004>
    49d5: 86 5d        	stx	$5d                     ; 0x205d <lpstore+0x3>
    49d7: a2 0f        	ldx	#$f
    49d9: 86 04        	stx	$4                      ; 0x2004 <__heap_default_limit+0x1004>
    49db: 29 d0        	and	#$d0
    49dd: 05 04        	ora	$4                      ; 0x2004 <__heap_default_limit+0x1004>
    49df: 09 20        	ora	#$20
    49e1: 85 2b        	sta	$2b                     ; 0x202b <_start+0xa>
    49e3: a9 1a        	lda	#$1a
    49e5: a2 16        	ldx	#$16
    49e7: a0 5f        	ldy	#$5f
    49e9: 84 04        	sty	$4                      ; 0x2004 <__heap_default_limit+0x1004>
    49eb: a0 72        	ldy	#$72
    49ed: 84 05        	sty	$5                      ; 0x2005 <__heap_default_limit+0x1005>
    49ef: 20 df 56     	jsr	$56df <mcputsxy>
    49f2: a2 01        	ldx	#$1
    49f4: 64 04        	stz	$4                      ; 0x2004 <__heap_default_limit+0x1004>
    49f6: 64 05        	stz	$5                      ; 0x2005 <__heap_default_limit+0x1005>
    49f8: 86 06        	stx	$6                      ; 0x2006 <__heap_default_limit+0x1006>
    49fa: ca           	dex
    49fb: a5 5f        	lda	$5f                     ; 0x205f <lpstore+0x5>
    49fd: 20 5c 55     	jsr	$555c <csputdec>
    4a00: a9 f0        	lda	#$f0
    4a02: 25 2b        	and	$2b                     ; 0x202b <_start+0xa>
    4a04: 09 08        	ora	#$8
    4a06: 85 2b        	sta	$2b                     ; 0x202b <_start+0xa>
    4a08: a9 54        	lda	#$54
    4a0a: 20 38 67     	jsr	$6738 <cputc>
    4a0d: a2 02        	ldx	#$2
    4a0f: 64 04        	stz	$4                      ; 0x2004 <__heap_default_limit+0x1004>
    4a11: 64 05        	stz	$5                      ; 0x2005 <__heap_default_limit+0x1005>
    4a13: 86 06        	stx	$6                      ; 0x2006 <__heap_default_limit+0x1006>
    4a15: a2 00        	ldx	#$0
    4a17: a5 5e        	lda	$5e                     ; 0x205e <lpstore+0x4>
    4a19: 20 5c 55     	jsr	$555c <csputdec>
    4a1c: a9 f0        	lda	#$f0
    4a1e: 25 2b        	and	$2b                     ; 0x202b <_start+0xa>
    4a20: 09 0e        	ora	#$e
    4a22: 85 2b        	sta	$2b                     ; 0x202b <_start+0xa>
    4a24: a9 53        	lda	#$53
    4a26: 20 38 67     	jsr	$6738 <cputc>
    4a29: 64 04        	stz	$4                      ; 0x2004 <__heap_default_limit+0x1004>
    4a2b: 64 05        	stz	$5                      ; 0x2005 <__heap_default_limit+0x1005>
    4a2d: a2 02        	ldx	#$2
    4a2f: 86 06        	stx	$6                      ; 0x2006 <__heap_default_limit+0x1006>
    4a31: a2 00        	ldx	#$0
    4a33: a5 5d        	lda	$5d                     ; 0x205d <lpstore+0x3>
    4a35: 20 5c 55     	jsr	$555c <csputdec>
    4a38: a9 20        	lda	#$20
    4a3a: 20 38 67     	jsr	$6738 <cputc>
    4a3d: a9 f0        	lda	#$f0
    4a3f: 25 2b        	and	$2b                     ; 0x202b <_start+0xa>
    4a41: a0 57        	ldy	#$57
    4a43: a2 02        	ldx	#$2
    4a45: 86 04        	stx	$4                      ; 0x2004 <__heap_default_limit+0x1004>
    4a47: a6 5c        	ldx	$5c                     ; 0x205c <lpstore+0x2>
    4a49: e0 01        	cpx	#$1
    4a4b: f0 06        	beq	$4a53 <ShowAccess+0x152>
    4a4d: a0 52        	ldy	#$52
    4a4f: a2 08        	ldx	#$8
    4a51: 86 04        	stx	$4                      ; 0x2004 <__heap_default_limit+0x1004>
    4a53: 05 04        	ora	$4                      ; 0x2004 <__heap_default_limit+0x1004>
    4a55: 85 2b        	sta	$2b                     ; 0x202b <_start+0xa>
    4a57: 98           	tya
    4a58: 20 38 67     	jsr	$6738 <cputc>
    4a5b: a9 20        	lda	#$20
    4a5d: 20 38 67     	jsr	$6738 <cputc>
    4a60: a9 df        	lda	#$df
    4a62: 25 2b        	and	$2b                     ; 0x202b <_start+0xa>
    4a64: 85 2b        	sta	$2b                     ; 0x202b <_start+0xa>
    4a66: 60           	rts

00004a67 <ReadSector>:
    4a67: 86 56        	stx	$56                     ; 0x2056 <fourbytes>
    4a69: 64 05        	stz	$5                      ; 0x2005 <__heap_default_limit+0x1005>
    4a6b: a4 04        	ldy	$4                      ; 0x2004 <__heap_default_limit+0x1004>
    4a6d: 84 58        	sty	$58                     ; 0x2058 <fourbytes+0x2>
    4a6f: 85 57        	sta	$57                     ; 0x2057 <fourbytes+0x1>
    4a71: 20 01 49     	jsr	$4901 <ShowAccess>
    4a74: a5 56        	lda	$56                     ; 0x2056 <fourbytes>
    4a76: f0 17        	beq	$4a8f <ReadSector+0x28>
    4a78: a4 56        	ldy	$56                     ; 0x2056 <fourbytes>
    4a7a: a6 58        	ldx	$58                     ; 0x2058 <fourbytes+0x2>
    4a7c: e0 14        	cpx	#$14
    4a7e: a2 01        	ldx	#$1
    4a80: b0 02        	bcs	$4a84 <ReadSector+0x1d>
    4a82: a2 00        	ldx	#$0
    4a84: 86 59        	stx	$59                     ; 0x2059 <fourbytes+0x3>
    4a86: a5 57        	lda	$57                     ; 0x2057 <fourbytes+0x1>
    4a88: b0 08        	bcs	$4a92 <ReadSector+0x2b>
    4a8a: 18           	clc
    4a8b: 69 28        	adc	#$28
    4a8d: 80 06        	bra	$4a95 <ReadSector+0x2e>
    4a8f: a9 fc        	lda	#$fc
    4a91: 60           	rts
    4a92: 18           	clc
    4a93: 69 20        	adc	#$20
    4a95: a6 2c        	ldx	$2c                     ; 0x202c <_start+0xb>
    4a97: 5a           	phy
    4a98: a4 58        	ldy	$58                     ; 0x2058 <fourbytes+0x2>
    4a9a: 84 04        	sty	$4                      ; 0x2004 <__heap_default_limit+0x1004>
    4a9c: 46 04        	lsr	$4                      ; 0x2004 <__heap_default_limit+0x1004>
    4a9e: a4 04        	ldy	$4                      ; 0x2004 <__heap_default_limit+0x1004>
    4aa0: 84 57        	sty	$57                     ; 0x2057 <fourbytes+0x1>
    4aa2: 7a           	ply
    4aa3: 85 04        	sta	$4                      ; 0x2004 <__heap_default_limit+0x1004>
    4aa5: e4 04        	cpx	$4                      ; 0x2004 <__heap_default_limit+0x1004>
    4aa7: d0 11        	bne	$4aba <ReadSector+0x53>
    4aa9: a6 2d        	ldx	$2d                     ; 0x202d <_start+0xc>
    4aab: 84 04        	sty	$4                      ; 0x2004 <__heap_default_limit+0x1004>
    4aad: e4 04        	cpx	$4                      ; 0x2004 <__heap_default_limit+0x1004>
    4aaf: d0 09        	bne	$4aba <ReadSector+0x53>
    4ab1: a6 57        	ldx	$57                     ; 0x2057 <fourbytes+0x1>
    4ab3: e4 2e        	cpx	$2e                     ; 0x202e <_start+0xd>
    4ab5: d0 03        	bne	$4aba <ReadSector+0x53>
    4ab7: 4c 1f 4b     	jmp	$4b1f <ReadSector+0xb8>
    4aba: 85 5a        	sta	$5a                     ; 0x205a <lpstore>
    4abc: 8d 80 d0     	sta	$d080                   ; 0xd080 <__heap_start+0x50ea>
    4abf: a2 20        	ldx	#$20
    4ac1: 8e 81 d0     	stx	$d081                   ; 0xd081 <__heap_start+0x50eb>
    4ac4: ae 82 d0     	ldx	$d082                   ; 0xd082 <__heap_start+0x50ec>
    4ac7: 30 fb        	bmi	$4ac4 <ReadSector+0x5d>
    4ac9: a6 56        	ldx	$56                     ; 0x2056 <fourbytes>
    4acb: ca           	dex
    4acc: 8e 84 d0     	stx	$d084                   ; 0xd084 <__heap_start+0x50ee>
    4acf: a2 14        	ldx	#$14
    4ad1: a5 58        	lda	$58                     ; 0x2058 <fourbytes+0x2>
    4ad3: 20 41 6c     	jsr	$6c41 <__umodqi3>
    4ad6: 4a           	lsr
    4ad7: 1a           	inc
    4ad8: 8d 85 d0     	sta	$d085                   ; 0xd085 <__heap_start+0x50ef>
    4adb: a6 59        	ldx	$59                     ; 0x2059 <fourbytes+0x3>
    4add: f0 04        	beq	$4ae3 <ReadSector+0x7c>
    4adf: a2 01        	ldx	#$1
    4ae1: 80 02        	bra	$4ae5 <ReadSector+0x7e>
    4ae3: a2 00        	ldx	#$0
    4ae5: 8e 86 d0     	stx	$d086                   ; 0xd086 <__heap_start+0x50f0>
    4ae8: a2 41        	ldx	#$41
    4aea: 8e 81 d0     	stx	$d081                   ; 0xd081 <__heap_start+0x50eb>
    4aed: a4 56        	ldy	$56                     ; 0x2056 <fourbytes>
    4aef: ae 82 d0     	ldx	$d082                   ; 0xd082 <__heap_start+0x50ec>
    4af2: 30 fb        	bmi	$4aef <ReadSector+0x88>
    4af4: ad 82 d0     	lda	$d082                   ; 0xd082 <__heap_start+0x50ec>
    4af7: 29 18        	and	#$18
    4af9: f0 12        	beq	$4b0d <ReadSector+0xa6>
    4afb: a2 40        	ldx	#$40
    4afd: 8e 80 d0     	stx	$d080                   ; 0xd080 <__heap_start+0x50ea>
    4b00: a2 02        	ldx	#$2
    4b02: 8e 20 d0     	stx	$d020                   ; 0xd020 <__heap_start+0x508a>
    4b05: 64 2d        	stz	$2d                     ; 0x202d <_start+0xc>
    4b07: ae 82 d0     	ldx	$d082                   ; 0xd082 <__heap_start+0x50ec>
    4b0a: a9 ff        	lda	#$ff
    4b0c: 60           	rts
    4b0d: ad 89 d6     	lda	$d689                   ; 0xd689 <__heap_start+0x56f3>
    4b10: 29 7f        	and	#$7f
    4b12: 8d 89 d6     	sta	$d689                   ; 0xd689 <__heap_start+0x56f3>
    4b15: a5 5a        	lda	$5a                     ; 0x205a <lpstore>
    4b17: 85 2c        	sta	$2c                     ; 0x202c <_start+0xb>
    4b19: 84 2d        	sty	$2d                     ; 0x202d <_start+0xc>
    4b1b: a6 57        	ldx	$57                     ; 0x2057 <fourbytes+0x1>
    4b1d: 86 2e        	stx	$2e                     ; 0x202e <_start+0xd>
    4b1f: a6 58        	ldx	$58                     ; 0x2058 <fourbytes+0x2>
    4b21: 86 04        	stx	$4                      ; 0x2004 <__heap_default_limit+0x1004>
    4b23: 85 06        	sta	$6                      ; 0x2006 <__heap_default_limit+0x1006>
    4b25: a5 58        	lda	$58                     ; 0x2058 <fourbytes+0x2>
    4b27: 29 01        	and	#$1
    4b29: 85 56        	sta	$56                     ; 0x2056 <fourbytes>
    4b2b: a2 02        	ldx	#$2
    4b2d: 86 05        	stx	$5                      ; 0x2005 <__heap_default_limit+0x1005>
    4b2f: 5a           	phy
    4b30: fa           	plx
    4b31: a5 06        	lda	$6                      ; 0x2006 <__heap_default_limit+0x1006>
    4b33: 20 01 49     	jsr	$4901 <ShowAccess>
    4b36: a5 56        	lda	$56                     ; 0x2056 <fourbytes>
    4b38: 60           	rts

00004b39 <WriteSector>:
    4b39: 86 50        	stx	$50                     ; 0x2050 <_fini+0x5>
    4b3b: a2 01        	ldx	#$1
    4b3d: a4 04        	ldy	$4                      ; 0x2004 <__heap_default_limit+0x1004>
    4b3f: 84 52        	sty	$52                     ; 0x2052 <_fini+0x7>
    4b41: 86 05        	stx	$5                      ; 0x2005 <__heap_default_limit+0x1005>
    4b43: a6 50        	ldx	$50                     ; 0x2050 <_fini+0x5>
    4b45: 85 51        	sta	$51                     ; 0x2051 <_fini+0x6>
    4b47: 20 01 49     	jsr	$4901 <ShowAccess>
    4b4a: 64 2d        	stz	$2d                     ; 0x202d <_start+0xc>
    4b4c: a5 50        	lda	$50                     ; 0x2050 <_fini+0x5>
    4b4e: d0 03        	bne	$4b53 <WriteSector+0x1a>
    4b50: 4c d7 4b     	jmp	$4bd7 <WriteSector+0x9e>
    4b53: a4 52        	ldy	$52                     ; 0x2052 <_fini+0x7>
    4b55: c0 14        	cpy	#$14
    4b57: a2 01        	ldx	#$1
    4b59: b0 02        	bcs	$4b5d <WriteSector+0x24>
    4b5b: a2 00        	ldx	#$0
    4b5d: 86 53        	stx	$53                     ; 0x2053 <_fini+0x8>
    4b5f: a5 51        	lda	$51                     ; 0x2051 <_fini+0x6>
    4b61: b0 05        	bcs	$4b68 <WriteSector+0x2f>
    4b63: 18           	clc
    4b64: 69 28        	adc	#$28
    4b66: 80 03        	bra	$4b6b <WriteSector+0x32>
    4b68: 18           	clc
    4b69: 69 20        	adc	#$20
    4b6b: 85 54        	sta	$54                     ; 0x2054 <_fini+0x9>
    4b6d: 8d 80 d0     	sta	$d080                   ; 0xd080 <__heap_start+0x50ea>
    4b70: a2 20        	ldx	#$20
    4b72: 8e 81 d0     	stx	$d081                   ; 0xd081 <__heap_start+0x50eb>
    4b75: ae 82 d0     	ldx	$d082                   ; 0xd082 <__heap_start+0x50ec>
    4b78: 30 fb        	bmi	$4b75 <WriteSector+0x3c>
    4b7a: a6 50        	ldx	$50                     ; 0x2050 <_fini+0x5>
    4b7c: ca           	dex
    4b7d: 8e 84 d0     	stx	$d084                   ; 0xd084 <__heap_start+0x50ee>
    4b80: a2 14        	ldx	#$14
    4b82: 84 51        	sty	$51                     ; 0x2051 <_fini+0x6>
    4b84: 98           	tya
    4b85: 20 41 6c     	jsr	$6c41 <__umodqi3>
    4b88: 4a           	lsr
    4b89: 1a           	inc
    4b8a: 8d 85 d0     	sta	$d085                   ; 0xd085 <__heap_start+0x50ef>
    4b8d: a6 53        	ldx	$53                     ; 0x2053 <_fini+0x8>
    4b8f: f0 04        	beq	$4b95 <WriteSector+0x5c>
    4b91: a2 01        	ldx	#$1
    4b93: 80 02        	bra	$4b97 <WriteSector+0x5e>
    4b95: a2 00        	ldx	#$0
    4b97: 8e 86 d0     	stx	$d086                   ; 0xd086 <__heap_start+0x50f0>
    4b9a: a2 84        	ldx	#$84
    4b9c: 8e 81 d0     	stx	$d081                   ; 0xd081 <__heap_start+0x50eb>
    4b9f: a6 51        	ldx	$51                     ; 0x2051 <_fini+0x6>
    4ba1: 86 04        	stx	$4                      ; 0x2004 <__heap_default_limit+0x1004>
    4ba3: ae 82 d0     	ldx	$d082                   ; 0xd082 <__heap_start+0x50ec>
    4ba6: 30 fb        	bmi	$4ba3 <WriteSector+0x6a>
    4ba8: ad 83 d0     	lda	$d083                   ; 0xd083 <__heap_start+0x50ed>
    4bab: 29 10        	and	#$10
    4bad: d0 f4        	bne	$4ba3 <WriteSector+0x6a>
    4baf: ad 82 d0     	lda	$d082                   ; 0xd082 <__heap_start+0x50ec>
    4bb2: 29 18        	and	#$18
    4bb4: f0 0e        	beq	$4bc4 <WriteSector+0x8b>
    4bb6: a2 40        	ldx	#$40
    4bb8: 8e 80 d0     	stx	$d080                   ; 0xd080 <__heap_start+0x50ea>
    4bbb: a2 02        	ldx	#$2
    4bbd: 8e 20 d0     	stx	$d020                   ; 0xd020 <__heap_start+0x508a>
    4bc0: ae 82 d0     	ldx	$d082                   ; 0xd082 <__heap_start+0x50ec>
    4bc3: 60           	rts
    4bc4: ad 89 d6     	lda	$d689                   ; 0xd689 <__heap_start+0x56f3>
    4bc7: 29 7f        	and	#$7f
    4bc9: 8d 89 d6     	sta	$d689                   ; 0xd689 <__heap_start+0x56f3>
    4bcc: a2 02        	ldx	#$2
    4bce: 86 05        	stx	$5                      ; 0x2005 <__heap_default_limit+0x1005>
    4bd0: a6 50        	ldx	$50                     ; 0x2050 <_fini+0x5>
    4bd2: a5 54        	lda	$54                     ; 0x2054 <_fini+0x9>
    4bd4: 20 01 49     	jsr	$4901 <ShowAccess>
    4bd7: 60           	rts

00004bd8 <GetOneSector>:
    4bd8: a4 06        	ldy	$6                      ; 0x2006 <__heap_default_limit+0x1006>
    4bda: 48           	pha
    4bdb: a5 04        	lda	$4                      ; 0x2004 <__heap_default_limit+0x1004>
    4bdd: 85 53        	sta	$53                     ; 0x2053 <_fini+0x8>
    4bdf: a5 05        	lda	$5                      ; 0x2005 <__heap_default_limit+0x1005>
    4be1: 85 54        	sta	$54                     ; 0x2054 <_fini+0x9>
    4be3: 68           	pla
    4be4: 84 04        	sty	$4                      ; 0x2004 <__heap_default_limit+0x1004>
    4be6: 20 67 4a     	jsr	$4a67 <ReadSector>
    4be9: c9 02        	cmp	#$2
    4beb: b0 2d        	bcs	$4c1a <GetOneSector+0x42>
    4bed: a0 fd        	ldy	#$fd
    4bef: aa           	tax
    4bf0: f0 06        	beq	$4bf8 <GetOneSector+0x20>
    4bf2: 85 55        	sta	$55                     ; 0x2055 <_fini+0xa>
    4bf4: a2 6d        	ldx	#$6d
    4bf6: 80 04        	bra	$4bfc <GetOneSector+0x24>
    4bf8: 85 55        	sta	$55                     ; 0x2055 <_fini+0xa>
    4bfa: a2 6c        	ldx	#$6c
    4bfc: a9 01        	lda	#$1
    4bfe: 84 04        	sty	$4                      ; 0x2004 <__heap_default_limit+0x1004>
    4c00: a0 0f        	ldy	#$f
    4c02: 84 05        	sty	$5                      ; 0x2005 <__heap_default_limit+0x1005>
    4c04: a4 53        	ldy	$53                     ; 0x2053 <_fini+0x8>
    4c06: 84 06        	sty	$6                      ; 0x2006 <__heap_default_limit+0x1006>
    4c08: a4 54        	ldy	$54                     ; 0x2054 <_fini+0x9>
    4c0a: 84 07        	sty	$7                      ; 0x2007 <__heap_default_limit+0x1007>
    4c0c: 64 08        	stz	$8                      ; 0x2008 <__heap_default_limit+0x1008>
    4c0e: 64 09        	stz	$9                      ; 0x2009 <__heap_default_limit+0x1009>
    4c10: 64 0a        	stz	$a                      ; 0x200a <__heap_default_limit+0x100a>
    4c12: 85 0b        	sta	$b                      ; 0x200b <__heap_default_limit+0x100b>
    4c14: 3a           	dec
    4c15: 20 9e 69     	jsr	$699e <lcopy>
    4c18: a5 55        	lda	$55                     ; 0x2055 <_fini+0xa>
    4c1a: 60           	rts

00004c1b <PutWholeSector>:
    4c1b: 85 48        	sta	$48                     ; 0x2048 <__after_main>
    4c1d: 86 49        	stx	$49                     ; 0x2049 <__after_main+0x1>
    4c1f: a4 04        	ldy	$4                      ; 0x2004 <__heap_default_limit+0x1004>
    4c21: 84 0c        	sty	$c                      ; 0x200c <__heap_default_limit+0x100c>
    4c23: a4 05        	ldy	$5                      ; 0x2005 <__heap_default_limit+0x1005>
    4c25: 84 0d        	sty	$d                      ; 0x200d <__heap_default_limit+0x100d>
    4c27: a4 06        	ldy	$6                      ; 0x2006 <__heap_default_limit+0x1006>
    4c29: 84 4a        	sty	$4a                     ; 0x204a <__after_main+0x2>
    4c2b: a5 06        	lda	$6                      ; 0x2006 <__heap_default_limit+0x1006>
    4c2d: 29 01        	and	#$1
    4c2f: 29 01        	and	#$1
    4c31: d0 1f        	bne	$4c52 <PutWholeSector+0x37>
    4c33: a0 6c        	ldy	#$6c
    4c35: a9 fd        	lda	#$fd
    4c37: a2 0f        	ldx	#$f
    4c39: 64 04        	stz	$4                      ; 0x2004 <__heap_default_limit+0x1004>
    4c3b: 64 05        	stz	$5                      ; 0x2005 <__heap_default_limit+0x1005>
    4c3d: 64 06        	stz	$6                      ; 0x2006 <__heap_default_limit+0x1006>
    4c3f: 84 07        	sty	$7                      ; 0x2007 <__heap_default_limit+0x1007>
    4c41: 85 08        	sta	$8                      ; 0x2008 <__heap_default_limit+0x1008>
    4c43: 86 09        	stx	$9                      ; 0x2009 <__heap_default_limit+0x1009>
    4c45: 64 0a        	stz	$a                      ; 0x200a <__heap_default_limit+0x100a>
    4c47: a2 02        	ldx	#$2
    4c49: 86 0b        	stx	$b                      ; 0x200b <__heap_default_limit+0x100b>
    4c4b: a6 0d        	ldx	$d                      ; 0x200d <__heap_default_limit+0x100d>
    4c4d: a5 0c        	lda	$c                      ; 0x200c <__heap_default_limit+0x100c>
    4c4f: 4c 8f 4c     	jmp	$4c8f <PutWholeSector+0x74>
    4c52: a4 06        	ldy	$6                      ; 0x2006 <__heap_default_limit+0x1006>
    4c54: 84 04        	sty	$4                      ; 0x2004 <__heap_default_limit+0x1004>
    4c56: a5 48        	lda	$48                     ; 0x2048 <__after_main>
    4c58: a4 48        	ldy	$48                     ; 0x2048 <__after_main>
    4c5a: 84 4b        	sty	$4b                     ; 0x204b <_fini>
    4c5c: a4 49        	ldy	$49                     ; 0x2049 <__after_main+0x1>
    4c5e: 84 4c        	sty	$4c                     ; 0x204c <_fini+0x1>
    4c60: a4 0c        	ldy	$c                      ; 0x200c <__heap_default_limit+0x100c>
    4c62: 84 48        	sty	$48                     ; 0x2048 <__after_main>
    4c64: a4 0d        	ldy	$d                      ; 0x200d <__heap_default_limit+0x100d>
    4c66: 84 49        	sty	$49                     ; 0x2049 <__after_main+0x1>
    4c68: 20 67 4a     	jsr	$4a67 <ReadSector>
    4c6b: a0 6d        	ldy	#$6d
    4c6d: a9 fd        	lda	#$fd
    4c6f: a2 0f        	ldx	#$f
    4c71: 64 04        	stz	$4                      ; 0x2004 <__heap_default_limit+0x1004>
    4c73: 64 05        	stz	$5                      ; 0x2005 <__heap_default_limit+0x1005>
    4c75: 64 06        	stz	$6                      ; 0x2006 <__heap_default_limit+0x1006>
    4c77: 84 07        	sty	$7                      ; 0x2007 <__heap_default_limit+0x1007>
    4c79: 85 08        	sta	$8                      ; 0x2008 <__heap_default_limit+0x1008>
    4c7b: 86 09        	stx	$9                      ; 0x2009 <__heap_default_limit+0x1009>
    4c7d: 64 0a        	stz	$a                      ; 0x200a <__heap_default_limit+0x100a>
    4c7f: a2 01        	ldx	#$1
    4c81: 86 0b        	stx	$b                      ; 0x200b <__heap_default_limit+0x100b>
    4c83: a6 49        	ldx	$49                     ; 0x2049 <__after_main+0x1>
    4c85: a5 48        	lda	$48                     ; 0x2048 <__after_main>
    4c87: a4 4c        	ldy	$4c                     ; 0x204c <_fini+0x1>
    4c89: 84 49        	sty	$49                     ; 0x2049 <__after_main+0x1>
    4c8b: a4 4b        	ldy	$4b                     ; 0x204b <_fini>
    4c8d: 84 48        	sty	$48                     ; 0x2048 <__after_main>
    4c8f: 20 9e 69     	jsr	$699e <lcopy>
    4c92: a5 4a        	lda	$4a                     ; 0x204a <__after_main+0x2>
    4c94: 29 fe        	and	#$fe
    4c96: 85 04        	sta	$4                      ; 0x2004 <__heap_default_limit+0x1004>
    4c98: a6 49        	ldx	$49                     ; 0x2049 <__after_main+0x1>
    4c9a: a5 48        	lda	$48                     ; 0x2048 <__after_main>
    4c9c: 4c 39 4b     	jmp	$4b39 <WriteSector>

00004c9f <PutOneSector>:
    4c9f: 85 4a        	sta	$4a                     ; 0x204a <__after_main+0x2>
    4ca1: 86 4b        	stx	$4b                     ; 0x204b <_fini>
    4ca3: a6 06        	ldx	$6                      ; 0x2006 <__heap_default_limit+0x1006>
    4ca5: a4 04        	ldy	$4                      ; 0x2004 <__heap_default_limit+0x1004>
    4ca7: 84 4c        	sty	$4c                     ; 0x204c <_fini+0x1>
    4ca9: a4 05        	ldy	$5                      ; 0x2005 <__heap_default_limit+0x1005>
    4cab: 84 4d        	sty	$4d                     ; 0x204d <_fini+0x2>
    4cad: a5 06        	lda	$6                      ; 0x2006 <__heap_default_limit+0x1006>
    4caf: 29 01        	and	#$1
    4cb1: 85 4e        	sta	$4e                     ; 0x204e <_fini+0x3>
    4cb3: 86 4f        	stx	$4f                     ; 0x204f <_fini+0x4>
    4cb5: 86 04        	stx	$4                      ; 0x2004 <__heap_default_limit+0x1004>
    4cb7: a6 4b        	ldx	$4b                     ; 0x204b <_fini>
    4cb9: a5 4a        	lda	$4a                     ; 0x204a <__after_main+0x2>
    4cbb: 20 67 4a     	jsr	$4a67 <ReadSector>
    4cbe: 64 06        	stz	$6                      ; 0x2006 <__heap_default_limit+0x1006>
    4cc0: a9 6c        	lda	#$6c
    4cc2: a0 fd        	ldy	#$fd
    4cc4: a6 4e        	ldx	$4e                     ; 0x204e <_fini+0x3>
    4cc6: f0 02        	beq	$4cca <PutOneSector+0x2b>
    4cc8: a9 6d        	lda	#$6d
    4cca: a2 01        	ldx	#$1
    4ccc: 64 04        	stz	$4                      ; 0x2004 <__heap_default_limit+0x1004>
    4cce: 64 05        	stz	$5                      ; 0x2005 <__heap_default_limit+0x1005>
    4cd0: 85 07        	sta	$7                      ; 0x2007 <__heap_default_limit+0x1007>
    4cd2: 84 08        	sty	$8                      ; 0x2008 <__heap_default_limit+0x1008>
    4cd4: a0 0f        	ldy	#$f
    4cd6: 84 09        	sty	$9                      ; 0x2009 <__heap_default_limit+0x1009>
    4cd8: 64 0a        	stz	$a                      ; 0x200a <__heap_default_limit+0x100a>
    4cda: 86 0b        	stx	$b                      ; 0x200b <__heap_default_limit+0x100b>
    4cdc: a6 4d        	ldx	$4d                     ; 0x204d <_fini+0x2>
    4cde: a5 4c        	lda	$4c                     ; 0x204c <_fini+0x1>
    4ce0: 20 9e 69     	jsr	$699e <lcopy>
    4ce3: a5 4f        	lda	$4f                     ; 0x204f <_fini+0x4>
    4ce5: 29 fe        	and	#$fe
    4ce7: 85 04        	sta	$4                      ; 0x2004 <__heap_default_limit+0x1004>
    4ce9: a6 4b        	ldx	$4b                     ; 0x204b <_fini>
    4ceb: a5 4a        	lda	$4a                     ; 0x204a <__after_main+0x2>
    4ced: 4c 39 4b     	jmp	$4b39 <WriteSector>

00004cf0 <GetBAM>:
    4cf0: 0a           	asl
    4cf1: aa           	tax
    4cf2: a9 00        	lda	#$0
    4cf4: 2a           	rol
    4cf5: a8           	tay
    4cf6: a9 00        	lda	#$0
    4cf8: 2a           	rol
    4cf9: 85 04        	sta	$4                      ; 0x2004 <__heap_default_limit+0x1004>
    4cfb: 8a           	txa
    4cfc: 18           	clc
    4cfd: 69 38        	adc	#$38
    4cff: 85 0c        	sta	$c                      ; 0x200c <__heap_default_limit+0x100c>
    4d01: 98           	tya
    4d02: 69 00        	adc	#$0
    4d04: 85 06        	sta	$6                      ; 0x2006 <__heap_default_limit+0x1006>
    4d06: a5 04        	lda	$4                      ; 0x2004 <__heap_default_limit+0x1004>
    4d08: 69 08        	adc	#$8
    4d0a: a2 17        	ldx	#$17
    4d0c: a0 02        	ldy	#$2
    4d0e: 48           	pha
    4d0f: a5 06        	lda	$6                      ; 0x2006 <__heap_default_limit+0x1006>
    4d11: 85 04        	sta	$4                      ; 0x2004 <__heap_default_limit+0x1004>
    4d13: 68           	pla
    4d14: 85 05        	sta	$5                      ; 0x2005 <__heap_default_limit+0x1005>
    4d16: 64 06        	stz	$6                      ; 0x2006 <__heap_default_limit+0x1006>
    4d18: 86 07        	stx	$7                      ; 0x2007 <__heap_default_limit+0x1007>
    4d1a: 64 08        	stz	$8                      ; 0x2008 <__heap_default_limit+0x1008>
    4d1c: 64 09        	stz	$9                      ; 0x2009 <__heap_default_limit+0x1009>
    4d1e: 64 0a        	stz	$a                      ; 0x200a <__heap_default_limit+0x100a>
    4d20: 84 0b        	sty	$b                      ; 0x200b <__heap_default_limit+0x100b>
    4d22: a6 0c        	ldx	$c                      ; 0x200c <__heap_default_limit+0x100c>
    4d24: a9 00        	lda	#$0
    4d26: 4c 9e 69     	jmp	$699e <lcopy>

00004d29 <PutBAM>:
    4d29: 85 49        	sta	$49                     ; 0x2049 <__after_main+0x1>
    4d2b: 86 48        	stx	$48                     ; 0x2048 <__after_main>
    4d2d: a6 04        	ldx	$4                      ; 0x2004 <__heap_default_limit+0x1004>
    4d2f: a0 00        	ldy	#$0
    4d31: 84 04        	sty	$4                      ; 0x2004 <__heap_default_limit+0x1004>
    4d33: a0 17        	ldy	#$17
    4d35: 84 05        	sty	$5                      ; 0x2005 <__heap_default_limit+0x1005>
    4d37: a0 01        	ldy	#$1
    4d39: 84 06        	sty	$6                      ; 0x2006 <__heap_default_limit+0x1006>
    4d3b: 20 9f 4c     	jsr	$4c9f <PutOneSector>
    4d3e: ae 00 17     	ldx	$1700                   ; 0x1700 <__heap_default_limit+0x700>
    4d41: ac 01 17     	ldy	$1701                   ; 0x1701 <__heap_default_limit+0x701>
    4d44: a9 00        	lda	#$0
    4d46: 85 04        	sta	$4                      ; 0x2004 <__heap_default_limit+0x1004>
    4d48: a9 18        	lda	#$18
    4d4a: 85 05        	sta	$5                      ; 0x2005 <__heap_default_limit+0x1005>
    4d4c: 84 06        	sty	$6                      ; 0x2006 <__heap_default_limit+0x1006>
    4d4e: a5 49        	lda	$49                     ; 0x2049 <__after_main+0x1>
    4d50: 20 9f 4c     	jsr	$4c9f <PutOneSector>
    4d53: a6 48        	ldx	$48                     ; 0x2048 <__after_main>
    4d55: 86 04        	stx	$4                      ; 0x2004 <__heap_default_limit+0x1004>
    4d57: 06 04        	asl	$4                      ; 0x2004 <__heap_default_limit+0x1004>
    4d59: a9 00        	lda	#$0
    4d5b: 2a           	rol
    4d5c: aa           	tax
    4d5d: a9 00        	lda	#$0
    4d5f: 2a           	rol
    4d60: a8           	tay
    4d61: a5 04        	lda	$4                      ; 0x2004 <__heap_default_limit+0x1004>
    4d63: 18           	clc
    4d64: 69 38        	adc	#$38
    4d66: 85 07        	sta	$7                      ; 0x2007 <__heap_default_limit+0x1007>
    4d68: 8a           	txa
    4d69: 69 00        	adc	#$0
    4d6b: 85 08        	sta	$8                      ; 0x2008 <__heap_default_limit+0x1008>
    4d6d: 98           	tya
    4d6e: 69 08        	adc	#$8
    4d70: a2 02        	ldx	#$2
    4d72: 64 04        	stz	$4                      ; 0x2004 <__heap_default_limit+0x1004>
    4d74: 64 05        	stz	$5                      ; 0x2005 <__heap_default_limit+0x1005>
    4d76: 64 06        	stz	$6                      ; 0x2006 <__heap_default_limit+0x1006>
    4d78: 85 09        	sta	$9                      ; 0x2009 <__heap_default_limit+0x1009>
    4d7a: 64 0a        	stz	$a                      ; 0x200a <__heap_default_limit+0x100a>
    4d7c: 86 0b        	stx	$b                      ; 0x200b <__heap_default_limit+0x100b>
    4d7e: a2 17        	ldx	#$17
    4d80: a9 00        	lda	#$0
    4d82: 4c 9e 69     	jmp	$699e <lcopy>

00004d85 <readblockchain>:
    4d85: 85 4d        	sta	$4d                     ; 0x204d <_fini+0x2>
    4d87: 86 4e        	stx	$4e                     ; 0x204e <_fini+0x3>
    4d89: a6 04        	ldx	$4                      ; 0x2004 <__heap_default_limit+0x1004>
    4d8b: 86 48        	stx	$48                     ; 0x2048 <__after_main>
    4d8d: a6 05        	ldx	$5                      ; 0x2005 <__heap_default_limit+0x1005>
    4d8f: 86 49        	stx	$49                     ; 0x2049 <__after_main+0x1>
    4d91: a6 06        	ldx	$6                      ; 0x2006 <__heap_default_limit+0x1006>
    4d93: 86 4a        	stx	$4a                     ; 0x204a <__after_main+0x2>
    4d95: a6 07        	ldx	$7                      ; 0x2007 <__heap_default_limit+0x1007>
    4d97: 86 4b        	stx	$4b                     ; 0x204b <_fini>
    4d99: a6 08        	ldx	$8                      ; 0x2008 <__heap_default_limit+0x1008>
    4d9b: 86 4c        	stx	$4c                     ; 0x204c <_fini+0x1>
    4d9d: a6 09        	ldx	$9                      ; 0x2009 <__heap_default_limit+0x1009>
    4d9f: a4 0a        	ldy	$a                      ; 0x200a <__heap_default_limit+0x100a>
    4da1: 84 51        	sty	$51                     ; 0x2051 <_fini+0x6>
    4da3: 64 4f        	stz	$4f                     ; 0x204f <_fini+0x4>
    4da5: a9 00        	lda	#$0
    4da7: c5 4b        	cmp	$4b                     ; 0x204b <_fini>
    4da9: d0 09        	bne	$4db4 <readblockchain+0x2f>
    4dab: a4 4f        	ldy	$4f                     ; 0x204f <_fini+0x4>
    4dad: c4 4a        	cpy	$4a                     ; 0x204a <__after_main+0x2>
    4daf: d0 03        	bne	$4db4 <readblockchain+0x2f>
    4db1: 4c 12 4e     	jmp	$4e12 <readblockchain+0x8d>
    4db4: 85 50        	sta	$50                     ; 0x2050 <_fini+0x5>
    4db6: a0 00        	ldy	#$0
    4db8: 84 04        	sty	$4                      ; 0x2004 <__heap_default_limit+0x1004>
    4dba: a0 19        	ldy	#$19
    4dbc: 84 05        	sty	$5                      ; 0x2005 <__heap_default_limit+0x1005>
    4dbe: a4 51        	ldy	$51                     ; 0x2051 <_fini+0x6>
    4dc0: 84 06        	sty	$6                      ; 0x2006 <__heap_default_limit+0x1006>
    4dc2: a5 4c        	lda	$4c                     ; 0x204c <_fini+0x1>
    4dc4: 20 d8 4b     	jsr	$4bd8 <GetOneSector>
    4dc7: c9 02        	cmp	#$2
    4dc9: 90 03        	bcc	$4dce <readblockchain+0x49>
    4dcb: 4c 1c 4e     	jmp	$4e1c <readblockchain+0x97>
    4dce: ae 00 19     	ldx	$1900                   ; 0x1900 <__heap_default_limit+0x900>
    4dd1: 86 52        	stx	$52                     ; 0x2052 <_fini+0x7>
    4dd3: a9 00        	lda	#$0
    4dd5: 18           	clc
    4dd6: 65 4d        	adc	$4d                     ; 0x204d <_fini+0x2>
    4dd8: 85 06        	sta	$6                      ; 0x2006 <__heap_default_limit+0x1006>
    4dda: a5 4f        	lda	$4f                     ; 0x204f <_fini+0x4>
    4ddc: 65 4e        	adc	$4e                     ; 0x204e <_fini+0x3>
    4dde: 85 07        	sta	$7                      ; 0x2007 <__heap_default_limit+0x1007>
    4de0: a5 50        	lda	$50                     ; 0x2050 <_fini+0x5>
    4de2: 65 48        	adc	$48                     ; 0x2048 <__after_main>
    4de4: 85 08        	sta	$8                      ; 0x2008 <__heap_default_limit+0x1008>
    4de6: a9 00        	lda	#$0
    4de8: 65 49        	adc	$49                     ; 0x2049 <__after_main+0x1>
    4dea: ae 01 19     	ldx	$1901                   ; 0x1901 <__heap_default_limit+0x901>
    4ded: 86 51        	stx	$51                     ; 0x2051 <_fini+0x6>
    4def: 64 04        	stz	$4                      ; 0x2004 <__heap_default_limit+0x1004>
    4df1: 64 05        	stz	$5                      ; 0x2005 <__heap_default_limit+0x1005>
    4df3: 85 09        	sta	$9                      ; 0x2009 <__heap_default_limit+0x1009>
    4df5: 64 0a        	stz	$a                      ; 0x200a <__heap_default_limit+0x100a>
    4df7: a2 01        	ldx	#$1
    4df9: 86 0b        	stx	$b                      ; 0x200b <__heap_default_limit+0x100b>
    4dfb: a2 19        	ldx	#$19
    4dfd: a9 00        	lda	#$0
    4dff: 20 9e 69     	jsr	$699e <lcopy>
    4e02: a5 50        	lda	$50                     ; 0x2050 <_fini+0x5>
    4e04: a6 52        	ldx	$52                     ; 0x2052 <_fini+0x7>
    4e06: e6 4f        	inc	$4f                     ; 0x204f <_fini+0x4>
    4e08: d0 01        	bne	$4e0b <readblockchain+0x86>
    4e0a: 1a           	inc
    4e0b: a4 52        	ldy	$52                     ; 0x2052 <_fini+0x7>
    4e0d: f0 0a        	beq	$4e19 <readblockchain+0x94>
    4e0f: 4c a7 4d     	jmp	$4da7 <readblockchain+0x22>
    4e12: a9 fe        	lda	#$fe
    4e14: e0 00        	cpx	#$0
    4e16: f0 01        	beq	$4e19 <readblockchain+0x94>
    4e18: 60           	rts
    4e19: a9 00        	lda	#$0
    4e1b: 60           	rts
    4e1c: a9 ff        	lda	#$ff
    4e1e: 60           	rts

00004e1f <BAMSectorUpdate>:
    4e1f: a8           	tay
    4e20: c9 29        	cmp	#$29
    4e22: 90 0e        	bcc	$4e32 <BAMSectorUpdate+0x13>
    4e24: a4 06        	ldy	$6                      ; 0x2006 <__heap_default_limit+0x1006>
    4e26: 84 54        	sty	$54                     ; 0x2054 <_fini+0x9>
    4e28: a4 07        	ldy	$7                      ; 0x2007 <__heap_default_limit+0x1007>
    4e2a: 84 55        	sty	$55                     ; 0x2055 <_fini+0xa>
    4e2c: 18           	clc
    4e2d: 69 d8        	adc	#$d8
    4e2f: a8           	tay
    4e30: 80 08        	bra	$4e3a <BAMSectorUpdate+0x1b>
    4e32: a5 04        	lda	$4                      ; 0x2004 <__heap_default_limit+0x1004>
    4e34: 85 54        	sta	$54                     ; 0x2054 <_fini+0x9>
    4e36: a5 05        	lda	$5                      ; 0x2005 <__heap_default_limit+0x1005>
    4e38: 85 55        	sta	$55                     ; 0x2055 <_fini+0xa>
    4e3a: 88           	dey
    4e3b: 84 05        	sty	$5                      ; 0x2005 <__heap_default_limit+0x1005>
    4e3d: a5 08        	lda	$8                      ; 0x2008 <__heap_default_limit+0x1008>
    4e3f: d0 03        	bne	$4e44 <BAMSectorUpdate+0x25>
    4e41: 4c 88 4e     	jmp	$4e88 <BAMSectorUpdate+0x69>
    4e44: da           	phx
    4e45: 7a           	ply
    4e46: e0 08        	cpx	#$8
    4e48: 90 03        	bcc	$4e4d <BAMSectorUpdate+0x2e>
    4e4a: 4c db 4e     	jmp	$4edb <BAMSectorUpdate+0xbc>
    4e4d: a2 00        	ldx	#$0
    4e4f: 86 5a        	stx	$5a                     ; 0x205a <lpstore>
    4e51: a5 05        	lda	$5                      ; 0x2005 <__heap_default_limit+0x1005>
    4e53: 85 58        	sta	$58                     ; 0x2058 <fourbytes+0x2>
    4e55: 0a           	asl
    4e56: 85 04        	sta	$4                      ; 0x2004 <__heap_default_limit+0x1004>
    4e58: 8a           	txa
    4e59: 2a           	rol
    4e5a: 85 05        	sta	$5                      ; 0x2005 <__heap_default_limit+0x1005>
    4e5c: a5 04        	lda	$4                      ; 0x2004 <__heap_default_limit+0x1004>
    4e5e: 0a           	asl
    4e5f: aa           	tax
    4e60: a5 05        	lda	$5                      ; 0x2005 <__heap_default_limit+0x1005>
    4e62: 2a           	rol
    4e63: 85 06        	sta	$6                      ; 0x2006 <__heap_default_limit+0x1006>
    4e65: 18           	clc
    4e66: 8a           	txa
    4e67: 65 04        	adc	$4                      ; 0x2004 <__heap_default_limit+0x1004>
    4e69: 85 04        	sta	$4                      ; 0x2004 <__heap_default_limit+0x1004>
    4e6b: a5 06        	lda	$6                      ; 0x2006 <__heap_default_limit+0x1006>
    4e6d: 65 05        	adc	$5                      ; 0x2005 <__heap_default_limit+0x1005>
    4e6f: 85 05        	sta	$5                      ; 0x2005 <__heap_default_limit+0x1005>
    4e71: 18           	clc
    4e72: a5 04        	lda	$4                      ; 0x2004 <__heap_default_limit+0x1004>
    4e74: 65 54        	adc	$54                     ; 0x2054 <_fini+0x9>
    4e76: 85 04        	sta	$4                      ; 0x2004 <__heap_default_limit+0x1004>
    4e78: a5 05        	lda	$5                      ; 0x2005 <__heap_default_limit+0x1005>
    4e7a: 65 55        	adc	$55                     ; 0x2055 <_fini+0xa>
    4e7c: aa           	tax
    4e7d: 18           	clc
    4e7e: a5 04        	lda	$4                      ; 0x2004 <__heap_default_limit+0x1004>
    4e80: 69 11        	adc	#$11
    4e82: 85 56        	sta	$56                     ; 0x2056 <fourbytes>
    4e84: 8a           	txa
    4e85: 4c 8f 50     	jmp	$508f <BAMSectorUpdate+0x270>
    4e88: da           	phx
    4e89: 7a           	ply
    4e8a: e0 08        	cpx	#$8
    4e8c: 90 03        	bcc	$4e91 <BAMSectorUpdate+0x72>
    4e8e: 4c 39 4f     	jmp	$4f39 <BAMSectorUpdate+0x11a>
    4e91: 64 56        	stz	$56                     ; 0x2056 <fourbytes>
    4e93: a5 05        	lda	$5                      ; 0x2005 <__heap_default_limit+0x1005>
    4e95: 85 58        	sta	$58                     ; 0x2058 <fourbytes+0x2>
    4e97: 0a           	asl
    4e98: 85 04        	sta	$4                      ; 0x2004 <__heap_default_limit+0x1004>
    4e9a: a9 00        	lda	#$0
    4e9c: 2a           	rol
    4e9d: 85 05        	sta	$5                      ; 0x2005 <__heap_default_limit+0x1005>
    4e9f: a5 04        	lda	$4                      ; 0x2004 <__heap_default_limit+0x1004>
    4ea1: 0a           	asl
    4ea2: aa           	tax
    4ea3: a5 05        	lda	$5                      ; 0x2005 <__heap_default_limit+0x1005>
    4ea5: 2a           	rol
    4ea6: 85 06        	sta	$6                      ; 0x2006 <__heap_default_limit+0x1006>
    4ea8: 18           	clc
    4ea9: 8a           	txa
    4eaa: 65 04        	adc	$4                      ; 0x2004 <__heap_default_limit+0x1004>
    4eac: 85 04        	sta	$4                      ; 0x2004 <__heap_default_limit+0x1004>
    4eae: a5 06        	lda	$6                      ; 0x2006 <__heap_default_limit+0x1006>
    4eb0: 65 05        	adc	$5                      ; 0x2005 <__heap_default_limit+0x1005>
    4eb2: 85 07        	sta	$7                      ; 0x2007 <__heap_default_limit+0x1007>
    4eb4: 18           	clc
    4eb5: a5 04        	lda	$4                      ; 0x2004 <__heap_default_limit+0x1004>
    4eb7: 65 54        	adc	$54                     ; 0x2054 <_fini+0x9>
    4eb9: 85 06        	sta	$6                      ; 0x2006 <__heap_default_limit+0x1006>
    4ebb: a6 54        	ldx	$54                     ; 0x2054 <_fini+0x9>
    4ebd: 86 04        	stx	$4                      ; 0x2004 <__heap_default_limit+0x1004>
    4ebf: a6 55        	ldx	$55                     ; 0x2055 <_fini+0xa>
    4ec1: 86 05        	stx	$5                      ; 0x2005 <__heap_default_limit+0x1005>
    4ec3: a6 04        	ldx	$4                      ; 0x2004 <__heap_default_limit+0x1004>
    4ec5: 86 5a        	stx	$5a                     ; 0x205a <lpstore>
    4ec7: a6 05        	ldx	$5                      ; 0x2005 <__heap_default_limit+0x1005>
    4ec9: 86 5b        	stx	$5b                     ; 0x205b <lpstore+0x1>
    4ecb: a5 07        	lda	$7                      ; 0x2007 <__heap_default_limit+0x1007>
    4ecd: 65 55        	adc	$55                     ; 0x2055 <_fini+0xa>
    4ecf: aa           	tax
    4ed0: 18           	clc
    4ed1: a5 06        	lda	$6                      ; 0x2006 <__heap_default_limit+0x1006>
    4ed3: 69 11        	adc	#$11
    4ed5: 85 54        	sta	$54                     ; 0x2054 <_fini+0x9>
    4ed7: 8a           	txa
    4ed8: 4c d3 50     	jmp	$50d3 <BAMSectorUpdate+0x2b4>
    4edb: c0 10        	cpy	#$10
    4edd: a2 01        	ldx	#$1
    4edf: b0 02        	bcs	$4ee3 <BAMSectorUpdate+0xc4>
    4ee1: a2 00        	ldx	#$0
    4ee3: 86 08        	stx	$8                      ; 0x2008 <__heap_default_limit+0x1008>
    4ee5: a5 54        	lda	$54                     ; 0x2054 <_fini+0x9>
    4ee7: 18           	clc
    4ee8: 69 10        	adc	#$10
    4eea: 85 07        	sta	$7                      ; 0x2007 <__heap_default_limit+0x1007>
    4eec: a5 55        	lda	$55                     ; 0x2055 <_fini+0xa>
    4eee: 69 00        	adc	#$0
    4ef0: 85 06        	sta	$6                      ; 0x2006 <__heap_default_limit+0x1006>
    4ef2: a6 05        	ldx	$5                      ; 0x2005 <__heap_default_limit+0x1005>
    4ef4: 86 58        	stx	$58                     ; 0x2058 <fourbytes+0x2>
    4ef6: 06 05        	asl	$5                      ; 0x2005 <__heap_default_limit+0x1005>
    4ef8: 64 04        	stz	$4                      ; 0x2004 <__heap_default_limit+0x1004>
    4efa: 26 04        	rol	$4                      ; 0x2004 <__heap_default_limit+0x1004>
    4efc: a5 05        	lda	$5                      ; 0x2005 <__heap_default_limit+0x1005>
    4efe: 0a           	asl
    4eff: a6 04        	ldx	$4                      ; 0x2004 <__heap_default_limit+0x1004>
    4f01: 86 09        	stx	$9                      ; 0x2009 <__heap_default_limit+0x1009>
    4f03: 26 09        	rol	$9                      ; 0x2009 <__heap_default_limit+0x1009>
    4f05: a6 09        	ldx	$9                      ; 0x2009 <__heap_default_limit+0x1009>
    4f07: 86 0a        	stx	$a                      ; 0x200a <__heap_default_limit+0x100a>
    4f09: a6 08        	ldx	$8                      ; 0x2008 <__heap_default_limit+0x1008>
    4f0b: f0 03        	beq	$4f10 <BAMSectorUpdate+0xf1>
    4f0d: 4c 9d 4f     	jmp	$4f9d <BAMSectorUpdate+0x17e>
    4f10: a2 00        	ldx	#$0
    4f12: 86 5a        	stx	$5a                     ; 0x205a <lpstore>
    4f14: 18           	clc
    4f15: aa           	tax
    4f16: 98           	tya
    4f17: 69 f8        	adc	#$f8
    4f19: a8           	tay
    4f1a: 18           	clc
    4f1b: 8a           	txa
    4f1c: 65 05        	adc	$5                      ; 0x2005 <__heap_default_limit+0x1005>
    4f1e: 85 05        	sta	$5                      ; 0x2005 <__heap_default_limit+0x1005>
    4f20: a5 09        	lda	$9                      ; 0x2009 <__heap_default_limit+0x1009>
    4f22: 65 04        	adc	$4                      ; 0x2004 <__heap_default_limit+0x1004>
    4f24: 85 04        	sta	$4                      ; 0x2004 <__heap_default_limit+0x1004>
    4f26: a5 07        	lda	$7                      ; 0x2007 <__heap_default_limit+0x1007>
    4f28: 18           	clc
    4f29: 65 05        	adc	$5                      ; 0x2005 <__heap_default_limit+0x1005>
    4f2b: aa           	tax
    4f2c: a5 06        	lda	$6                      ; 0x2006 <__heap_default_limit+0x1006>
    4f2e: 65 04        	adc	$4                      ; 0x2004 <__heap_default_limit+0x1004>
    4f30: 85 04        	sta	$4                      ; 0x2004 <__heap_default_limit+0x1004>
    4f32: 18           	clc
    4f33: 8a           	txa
    4f34: 69 02        	adc	#$2
    4f36: 4c 8b 50     	jmp	$508b <BAMSectorUpdate+0x26c>
    4f39: c0 10        	cpy	#$10
    4f3b: a2 01        	ldx	#$1
    4f3d: b0 02        	bcs	$4f41 <BAMSectorUpdate+0x122>
    4f3f: a2 00        	ldx	#$0
    4f41: 86 08        	stx	$8                      ; 0x2008 <__heap_default_limit+0x1008>
    4f43: 64 56        	stz	$56                     ; 0x2056 <fourbytes>
    4f45: a5 54        	lda	$54                     ; 0x2054 <_fini+0x9>
    4f47: 18           	clc
    4f48: 69 10        	adc	#$10
    4f4a: 85 07        	sta	$7                      ; 0x2007 <__heap_default_limit+0x1007>
    4f4c: a5 55        	lda	$55                     ; 0x2055 <_fini+0xa>
    4f4e: 69 00        	adc	#$0
    4f50: 85 06        	sta	$6                      ; 0x2006 <__heap_default_limit+0x1006>
    4f52: a6 05        	ldx	$5                      ; 0x2005 <__heap_default_limit+0x1005>
    4f54: 86 58        	stx	$58                     ; 0x2058 <fourbytes+0x2>
    4f56: 06 05        	asl	$5                      ; 0x2005 <__heap_default_limit+0x1005>
    4f58: 64 04        	stz	$4                      ; 0x2004 <__heap_default_limit+0x1004>
    4f5a: 26 04        	rol	$4                      ; 0x2004 <__heap_default_limit+0x1004>
    4f5c: a5 05        	lda	$5                      ; 0x2005 <__heap_default_limit+0x1005>
    4f5e: 0a           	asl
    4f5f: a6 04        	ldx	$4                      ; 0x2004 <__heap_default_limit+0x1004>
    4f61: 86 09        	stx	$9                      ; 0x2009 <__heap_default_limit+0x1009>
    4f63: 26 09        	rol	$9                      ; 0x2009 <__heap_default_limit+0x1009>
    4f65: a6 09        	ldx	$9                      ; 0x2009 <__heap_default_limit+0x1009>
    4f67: 86 0a        	stx	$a                      ; 0x200a <__heap_default_limit+0x100a>
    4f69: a6 08        	ldx	$8                      ; 0x2008 <__heap_default_limit+0x1008>
    4f6b: f0 03        	beq	$4f70 <BAMSectorUpdate+0x151>
    4f6d: 4c cf 4f     	jmp	$4fcf <BAMSectorUpdate+0x1b0>
    4f70: a6 54        	ldx	$54                     ; 0x2054 <_fini+0x9>
    4f72: 86 5a        	stx	$5a                     ; 0x205a <lpstore>
    4f74: a6 55        	ldx	$55                     ; 0x2055 <_fini+0xa>
    4f76: 86 5b        	stx	$5b                     ; 0x205b <lpstore+0x1>
    4f78: 18           	clc
    4f79: aa           	tax
    4f7a: 98           	tya
    4f7b: 69 f8        	adc	#$f8
    4f7d: a8           	tay
    4f7e: 18           	clc
    4f7f: 8a           	txa
    4f80: 65 05        	adc	$5                      ; 0x2005 <__heap_default_limit+0x1005>
    4f82: 85 05        	sta	$5                      ; 0x2005 <__heap_default_limit+0x1005>
    4f84: a5 09        	lda	$9                      ; 0x2009 <__heap_default_limit+0x1009>
    4f86: 65 04        	adc	$4                      ; 0x2004 <__heap_default_limit+0x1004>
    4f88: 85 04        	sta	$4                      ; 0x2004 <__heap_default_limit+0x1004>
    4f8a: a5 07        	lda	$7                      ; 0x2007 <__heap_default_limit+0x1007>
    4f8c: 18           	clc
    4f8d: 65 05        	adc	$5                      ; 0x2005 <__heap_default_limit+0x1005>
    4f8f: aa           	tax
    4f90: a5 06        	lda	$6                      ; 0x2006 <__heap_default_limit+0x1006>
    4f92: 65 04        	adc	$4                      ; 0x2004 <__heap_default_limit+0x1004>
    4f94: 85 04        	sta	$4                      ; 0x2004 <__heap_default_limit+0x1004>
    4f96: 18           	clc
    4f97: 8a           	txa
    4f98: 69 02        	adc	#$2
    4f9a: 4c cf 50     	jmp	$50cf <BAMSectorUpdate+0x2b0>
    4f9d: 85 09        	sta	$9                      ; 0x2009 <__heap_default_limit+0x1009>
    4f9f: c0 18        	cpy	#$18
    4fa1: 90 03        	bcc	$4fa6 <BAMSectorUpdate+0x187>
    4fa3: 4c 05 50     	jmp	$5005 <BAMSectorUpdate+0x1e6>
    4fa6: a2 00        	ldx	#$0
    4fa8: 86 5a        	stx	$5a                     ; 0x205a <lpstore>
    4faa: 18           	clc
    4fab: 98           	tya
    4fac: 69 f0        	adc	#$f0
    4fae: a8           	tay
    4faf: a5 09        	lda	$9                      ; 0x2009 <__heap_default_limit+0x1009>
    4fb1: 18           	clc
    4fb2: 65 05        	adc	$5                      ; 0x2005 <__heap_default_limit+0x1005>
    4fb4: 85 05        	sta	$5                      ; 0x2005 <__heap_default_limit+0x1005>
    4fb6: a5 0a        	lda	$a                      ; 0x200a <__heap_default_limit+0x100a>
    4fb8: 65 04        	adc	$4                      ; 0x2004 <__heap_default_limit+0x1004>
    4fba: 85 04        	sta	$4                      ; 0x2004 <__heap_default_limit+0x1004>
    4fbc: a5 07        	lda	$7                      ; 0x2007 <__heap_default_limit+0x1007>
    4fbe: 18           	clc
    4fbf: 65 05        	adc	$5                      ; 0x2005 <__heap_default_limit+0x1005>
    4fc1: aa           	tax
    4fc2: a5 06        	lda	$6                      ; 0x2006 <__heap_default_limit+0x1006>
    4fc4: 65 04        	adc	$4                      ; 0x2004 <__heap_default_limit+0x1004>
    4fc6: 85 04        	sta	$4                      ; 0x2004 <__heap_default_limit+0x1004>
    4fc8: 18           	clc
    4fc9: 8a           	txa
    4fca: 69 03        	adc	#$3
    4fcc: 4c 8b 50     	jmp	$508b <BAMSectorUpdate+0x26c>
    4fcf: 85 09        	sta	$9                      ; 0x2009 <__heap_default_limit+0x1009>
    4fd1: c0 18        	cpy	#$18
    4fd3: 90 03        	bcc	$4fd8 <BAMSectorUpdate+0x1b9>
    4fd5: 4c 35 50     	jmp	$5035 <BAMSectorUpdate+0x216>
    4fd8: a6 54        	ldx	$54                     ; 0x2054 <_fini+0x9>
    4fda: 86 5a        	stx	$5a                     ; 0x205a <lpstore>
    4fdc: a6 55        	ldx	$55                     ; 0x2055 <_fini+0xa>
    4fde: 86 5b        	stx	$5b                     ; 0x205b <lpstore+0x1>
    4fe0: 18           	clc
    4fe1: 98           	tya
    4fe2: 69 f0        	adc	#$f0
    4fe4: a8           	tay
    4fe5: a5 09        	lda	$9                      ; 0x2009 <__heap_default_limit+0x1009>
    4fe7: 18           	clc
    4fe8: 65 05        	adc	$5                      ; 0x2005 <__heap_default_limit+0x1005>
    4fea: 85 05        	sta	$5                      ; 0x2005 <__heap_default_limit+0x1005>
    4fec: a5 0a        	lda	$a                      ; 0x200a <__heap_default_limit+0x100a>
    4fee: 65 04        	adc	$4                      ; 0x2004 <__heap_default_limit+0x1004>
    4ff0: 85 04        	sta	$4                      ; 0x2004 <__heap_default_limit+0x1004>
    4ff2: a5 07        	lda	$7                      ; 0x2007 <__heap_default_limit+0x1007>
    4ff4: 18           	clc
    4ff5: 65 05        	adc	$5                      ; 0x2005 <__heap_default_limit+0x1005>
    4ff7: aa           	tax
    4ff8: a5 06        	lda	$6                      ; 0x2006 <__heap_default_limit+0x1006>
    4ffa: 65 04        	adc	$4                      ; 0x2004 <__heap_default_limit+0x1004>
    4ffc: 85 04        	sta	$4                      ; 0x2004 <__heap_default_limit+0x1004>
    4ffe: 18           	clc
    4fff: 8a           	txa
    5000: 69 03        	adc	#$3
    5002: 4c cf 50     	jmp	$50cf <BAMSectorUpdate+0x2b0>
    5005: a2 00        	ldx	#$0
    5007: 86 5a        	stx	$5a                     ; 0x205a <lpstore>
    5009: c0 20        	cpy	#$20
    500b: 90 03        	bcc	$5010 <BAMSectorUpdate+0x1f1>
    500d: 4c 69 50     	jmp	$5069 <BAMSectorUpdate+0x24a>
    5010: 18           	clc
    5011: 98           	tya
    5012: 69 e8        	adc	#$e8
    5014: a8           	tay
    5015: a5 09        	lda	$9                      ; 0x2009 <__heap_default_limit+0x1009>
    5017: 18           	clc
    5018: 65 05        	adc	$5                      ; 0x2005 <__heap_default_limit+0x1005>
    501a: 85 05        	sta	$5                      ; 0x2005 <__heap_default_limit+0x1005>
    501c: a5 0a        	lda	$a                      ; 0x200a <__heap_default_limit+0x100a>
    501e: 65 04        	adc	$4                      ; 0x2004 <__heap_default_limit+0x1004>
    5020: 85 04        	sta	$4                      ; 0x2004 <__heap_default_limit+0x1004>
    5022: a5 07        	lda	$7                      ; 0x2007 <__heap_default_limit+0x1007>
    5024: 18           	clc
    5025: 65 05        	adc	$5                      ; 0x2005 <__heap_default_limit+0x1005>
    5027: aa           	tax
    5028: a5 06        	lda	$6                      ; 0x2006 <__heap_default_limit+0x1006>
    502a: 65 04        	adc	$4                      ; 0x2004 <__heap_default_limit+0x1004>
    502c: 85 04        	sta	$4                      ; 0x2004 <__heap_default_limit+0x1004>
    502e: 18           	clc
    502f: 8a           	txa
    5030: 69 04        	adc	#$4
    5032: 4c 8b 50     	jmp	$508b <BAMSectorUpdate+0x26c>
    5035: a6 54        	ldx	$54                     ; 0x2054 <_fini+0x9>
    5037: 86 5a        	stx	$5a                     ; 0x205a <lpstore>
    5039: a6 55        	ldx	$55                     ; 0x2055 <_fini+0xa>
    503b: 86 5b        	stx	$5b                     ; 0x205b <lpstore+0x1>
    503d: c0 20        	cpy	#$20
    503f: 90 03        	bcc	$5044 <BAMSectorUpdate+0x225>
    5041: 4c ad 50     	jmp	$50ad <BAMSectorUpdate+0x28e>
    5044: 18           	clc
    5045: 98           	tya
    5046: 69 e8        	adc	#$e8
    5048: a8           	tay
    5049: a5 09        	lda	$9                      ; 0x2009 <__heap_default_limit+0x1009>
    504b: 18           	clc
    504c: 65 05        	adc	$5                      ; 0x2005 <__heap_default_limit+0x1005>
    504e: 85 05        	sta	$5                      ; 0x2005 <__heap_default_limit+0x1005>
    5050: a5 0a        	lda	$a                      ; 0x200a <__heap_default_limit+0x100a>
    5052: 65 04        	adc	$4                      ; 0x2004 <__heap_default_limit+0x1004>
    5054: 85 04        	sta	$4                      ; 0x2004 <__heap_default_limit+0x1004>
    5056: a5 07        	lda	$7                      ; 0x2007 <__heap_default_limit+0x1007>
    5058: 18           	clc
    5059: 65 05        	adc	$5                      ; 0x2005 <__heap_default_limit+0x1005>
    505b: aa           	tax
    505c: a5 06        	lda	$6                      ; 0x2006 <__heap_default_limit+0x1006>
    505e: 65 04        	adc	$4                      ; 0x2004 <__heap_default_limit+0x1004>
    5060: 85 04        	sta	$4                      ; 0x2004 <__heap_default_limit+0x1004>
    5062: 18           	clc
    5063: 8a           	txa
    5064: 69 04        	adc	#$4
    5066: 4c cf 50     	jmp	$50cf <BAMSectorUpdate+0x2b0>
    5069: 18           	clc
    506a: 98           	tya
    506b: 69 e0        	adc	#$e0
    506d: a8           	tay
    506e: a5 09        	lda	$9                      ; 0x2009 <__heap_default_limit+0x1009>
    5070: 18           	clc
    5071: 65 05        	adc	$5                      ; 0x2005 <__heap_default_limit+0x1005>
    5073: 85 05        	sta	$5                      ; 0x2005 <__heap_default_limit+0x1005>
    5075: a5 0a        	lda	$a                      ; 0x200a <__heap_default_limit+0x100a>
    5077: 65 04        	adc	$4                      ; 0x2004 <__heap_default_limit+0x1004>
    5079: 85 04        	sta	$4                      ; 0x2004 <__heap_default_limit+0x1004>
    507b: a5 07        	lda	$7                      ; 0x2007 <__heap_default_limit+0x1007>
    507d: 18           	clc
    507e: 65 05        	adc	$5                      ; 0x2005 <__heap_default_limit+0x1005>
    5080: aa           	tax
    5081: a5 06        	lda	$6                      ; 0x2006 <__heap_default_limit+0x1006>
    5083: 65 04        	adc	$4                      ; 0x2004 <__heap_default_limit+0x1004>
    5085: 85 04        	sta	$4                      ; 0x2004 <__heap_default_limit+0x1004>
    5087: 18           	clc
    5088: 8a           	txa
    5089: 69 05        	adc	#$5
    508b: 85 56        	sta	$56                     ; 0x2056 <fourbytes>
    508d: a5 04        	lda	$4                      ; 0x2004 <__heap_default_limit+0x1004>
    508f: 69 00        	adc	#$0
    5091: 85 57        	sta	$57                     ; 0x2057 <fourbytes+0x1>
    5093: a9 01        	lda	#$1
    5095: a2 00        	ldx	#$0
    5097: 84 04        	sty	$4                      ; 0x2004 <__heap_default_limit+0x1004>
    5099: 20 3b 6b     	jsr	$6b3b <__ashlhi3>
    509c: a2 ff        	ldx	#$ff
    509e: 86 59        	stx	$59                     ; 0x2059 <fourbytes+0x3>
    50a0: 49 ff        	eor	#$ff
    50a2: 32 56        	and	($56),z                 ; 0x2056 <fourbytes>
    50a4: 92 56        	sta	($56),z                 ; 0x2056 <fourbytes>
    50a6: a6 5a        	ldx	$5a                     ; 0x205a <lpstore>
    50a8: 86 56        	stx	$56                     ; 0x2056 <fourbytes>
    50aa: 4c ef 50     	jmp	$50ef <BAMSectorUpdate+0x2d0>
    50ad: 18           	clc
    50ae: 98           	tya
    50af: 69 e0        	adc	#$e0
    50b1: a8           	tay
    50b2: a5 09        	lda	$9                      ; 0x2009 <__heap_default_limit+0x1009>
    50b4: 18           	clc
    50b5: 65 05        	adc	$5                      ; 0x2005 <__heap_default_limit+0x1005>
    50b7: 85 05        	sta	$5                      ; 0x2005 <__heap_default_limit+0x1005>
    50b9: a5 0a        	lda	$a                      ; 0x200a <__heap_default_limit+0x100a>
    50bb: 65 04        	adc	$4                      ; 0x2004 <__heap_default_limit+0x1004>
    50bd: 85 04        	sta	$4                      ; 0x2004 <__heap_default_limit+0x1004>
    50bf: a5 07        	lda	$7                      ; 0x2007 <__heap_default_limit+0x1007>
    50c1: 18           	clc
    50c2: 65 05        	adc	$5                      ; 0x2005 <__heap_default_limit+0x1005>
    50c4: aa           	tax
    50c5: a5 06        	lda	$6                      ; 0x2006 <__heap_default_limit+0x1006>
    50c7: 65 04        	adc	$4                      ; 0x2004 <__heap_default_limit+0x1004>
    50c9: 85 04        	sta	$4                      ; 0x2004 <__heap_default_limit+0x1004>
    50cb: 18           	clc
    50cc: 8a           	txa
    50cd: 69 05        	adc	#$5
    50cf: 85 54        	sta	$54                     ; 0x2054 <_fini+0x9>
    50d1: a5 04        	lda	$4                      ; 0x2004 <__heap_default_limit+0x1004>
    50d3: 69 00        	adc	#$0
    50d5: 85 55        	sta	$55                     ; 0x2055 <_fini+0xa>
    50d7: a9 01        	lda	#$1
    50d9: a2 00        	ldx	#$0
    50db: 84 04        	sty	$4                      ; 0x2004 <__heap_default_limit+0x1004>
    50dd: a8           	tay
    50de: 84 59        	sty	$59                     ; 0x2059 <fourbytes+0x3>
    50e0: 20 3b 6b     	jsr	$6b3b <__ashlhi3>
    50e3: 12 54        	ora	($54),z                 ; 0x2054 <_fini+0x9>
    50e5: 92 54        	sta	($54),z                 ; 0x2054 <_fini+0x9>
    50e7: a6 5a        	ldx	$5a                     ; 0x205a <lpstore>
    50e9: 86 54        	stx	$54                     ; 0x2054 <_fini+0x9>
    50eb: a6 5b        	ldx	$5b                     ; 0x205b <lpstore+0x1>
    50ed: 86 55        	stx	$55                     ; 0x2055 <_fini+0xa>
    50ef: a6 58        	ldx	$58                     ; 0x2058 <fourbytes+0x2>
    50f1: 86 04        	stx	$4                      ; 0x2004 <__heap_default_limit+0x1004>
    50f3: 06 04        	asl	$4                      ; 0x2004 <__heap_default_limit+0x1004>
    50f5: 26 56        	rol	$56                     ; 0x2056 <fourbytes>
    50f7: a5 04        	lda	$4                      ; 0x2004 <__heap_default_limit+0x1004>
    50f9: 0a           	asl
    50fa: a6 56        	ldx	$56                     ; 0x2056 <fourbytes>
    50fc: 86 05        	stx	$5                      ; 0x2005 <__heap_default_limit+0x1005>
    50fe: 26 05        	rol	$5                      ; 0x2005 <__heap_default_limit+0x1005>
    5100: 18           	clc
    5101: 65 04        	adc	$4                      ; 0x2004 <__heap_default_limit+0x1004>
    5103: aa           	tax
    5104: a5 05        	lda	$5                      ; 0x2005 <__heap_default_limit+0x1005>
    5106: 65 56        	adc	$56                     ; 0x2056 <fourbytes>
    5108: 85 04        	sta	$4                      ; 0x2004 <__heap_default_limit+0x1004>
    510a: 18           	clc
    510b: 8a           	txa
    510c: 65 54        	adc	$54                     ; 0x2054 <_fini+0x9>
    510e: aa           	tax
    510f: a5 55        	lda	$55                     ; 0x2055 <_fini+0xa>
    5111: 65 04        	adc	$4                      ; 0x2004 <__heap_default_limit+0x1004>
    5113: 86 04        	stx	$4                      ; 0x2004 <__heap_default_limit+0x1004>
    5115: 85 05        	sta	$5                      ; 0x2005 <__heap_default_limit+0x1005>
    5117: a0 10        	ldy	#$10
    5119: 18           	clc
    511a: a5 59        	lda	$59                     ; 0x2059 <fourbytes+0x3>
    511c: 71 04        	adc	($4),y                  ; 0x2004 <__heap_default_limit+0x1004>
    511e: 91 04        	sta	($4),y                  ; 0x2004 <__heap_default_limit+0x1004>
    5120: 60           	rts

00005121 <isallocatedBAMtracksector>:
    5121: 86 06        	stx	$6                      ; 0x2006 <__heap_default_limit+0x1006>
    5123: aa           	tax
    5124: ca           	dex
    5125: 86 09        	stx	$9                      ; 0x2009 <__heap_default_limit+0x1009>
    5127: e0 28        	cpx	#$28
    5129: a2 7c        	ldx	#$7c
    512b: 86 04        	stx	$4                      ; 0x2004 <__heap_default_limit+0x1004>
    512d: a2 7a        	ldx	#$7a
    512f: 86 05        	stx	$5                      ; 0x2005 <__heap_default_limit+0x1005>
    5131: 90 0d        	bcc	$5140 <isallocatedBAMtracksector+0x1f>
    5133: 18           	clc
    5134: 69 d7        	adc	#$d7
    5136: a2 7e        	ldx	#$7e
    5138: 86 04        	stx	$4                      ; 0x2004 <__heap_default_limit+0x1004>
    513a: a2 7a        	ldx	#$7a
    513c: 86 05        	stx	$5                      ; 0x2005 <__heap_default_limit+0x1005>
    513e: 85 09        	sta	$9                      ; 0x2009 <__heap_default_limit+0x1009>
    5140: b2 04        	lda	($4),z                  ; 0x2004 <__heap_default_limit+0x1004>
    5142: 85 08        	sta	$8                      ; 0x2008 <__heap_default_limit+0x1008>
    5144: a0 01        	ldy	#$1
    5146: b1 04        	lda	($4),y                  ; 0x2004 <__heap_default_limit+0x1004>
    5148: a6 06        	ldx	$6                      ; 0x2006 <__heap_default_limit+0x1006>
    514a: e0 08        	cpx	#$8
    514c: 90 03        	bcc	$5151 <isallocatedBAMtracksector+0x30>
    514e: 4c 93 51     	jmp	$5193 <isallocatedBAMtracksector+0x72>
    5151: 64 04        	stz	$4                      ; 0x2004 <__heap_default_limit+0x1004>
    5153: a6 09        	ldx	$9                      ; 0x2009 <__heap_default_limit+0x1009>
    5155: 86 05        	stx	$5                      ; 0x2005 <__heap_default_limit+0x1005>
    5157: 06 05        	asl	$5                      ; 0x2005 <__heap_default_limit+0x1005>
    5159: 26 04        	rol	$4                      ; 0x2004 <__heap_default_limit+0x1004>
    515b: a6 05        	ldx	$5                      ; 0x2005 <__heap_default_limit+0x1005>
    515d: 86 07        	stx	$7                      ; 0x2007 <__heap_default_limit+0x1007>
    515f: 06 07        	asl	$7                      ; 0x2007 <__heap_default_limit+0x1007>
    5161: aa           	tax
    5162: a4 04        	ldy	$4                      ; 0x2004 <__heap_default_limit+0x1004>
    5164: 84 09        	sty	$9                      ; 0x2009 <__heap_default_limit+0x1009>
    5166: 26 09        	rol	$9                      ; 0x2009 <__heap_default_limit+0x1009>
    5168: 18           	clc
    5169: a5 07        	lda	$7                      ; 0x2007 <__heap_default_limit+0x1007>
    516b: 65 05        	adc	$5                      ; 0x2005 <__heap_default_limit+0x1005>
    516d: 85 05        	sta	$5                      ; 0x2005 <__heap_default_limit+0x1005>
    516f: a5 09        	lda	$9                      ; 0x2009 <__heap_default_limit+0x1009>
    5171: 65 04        	adc	$4                      ; 0x2004 <__heap_default_limit+0x1004>
    5173: 85 04        	sta	$4                      ; 0x2004 <__heap_default_limit+0x1004>
    5175: a5 08        	lda	$8                      ; 0x2008 <__heap_default_limit+0x1008>
    5177: 18           	clc
    5178: 65 05        	adc	$5                      ; 0x2005 <__heap_default_limit+0x1005>
    517a: a8           	tay
    517b: 8a           	txa
    517c: 65 04        	adc	$4                      ; 0x2004 <__heap_default_limit+0x1004>
    517e: 84 04        	sty	$4                      ; 0x2004 <__heap_default_limit+0x1004>
    5180: 85 05        	sta	$5                      ; 0x2005 <__heap_default_limit+0x1005>
    5182: a0 11        	ldy	#$11
    5184: b1 04        	lda	($4),y                  ; 0x2004 <__heap_default_limit+0x1004>
    5186: 85 48        	sta	$48                     ; 0x2048 <__after_main>
    5188: a9 01        	lda	#$1
    518a: a2 00        	ldx	#$0
    518c: a4 06        	ldy	$6                      ; 0x2006 <__heap_default_limit+0x1006>
    518e: 84 04        	sty	$4                      ; 0x2004 <__heap_default_limit+0x1004>
    5190: 4c 1e 52     	jmp	$521e <isallocatedBAMtracksector+0xfd>
    5193: 85 07        	sta	$7                      ; 0x2007 <__heap_default_limit+0x1007>
    5195: a6 06        	ldx	$6                      ; 0x2006 <__heap_default_limit+0x1006>
    5197: e0 10        	cpx	#$10
    5199: 90 03        	bcc	$519e <isallocatedBAMtracksector+0x7d>
    519b: 4c d8 51     	jmp	$51d8 <isallocatedBAMtracksector+0xb7>
    519e: 64 04        	stz	$4                      ; 0x2004 <__heap_default_limit+0x1004>
    51a0: a6 09        	ldx	$9                      ; 0x2009 <__heap_default_limit+0x1009>
    51a2: 86 05        	stx	$5                      ; 0x2005 <__heap_default_limit+0x1005>
    51a4: 06 05        	asl	$5                      ; 0x2005 <__heap_default_limit+0x1005>
    51a6: 26 04        	rol	$4                      ; 0x2004 <__heap_default_limit+0x1004>
    51a8: a5 05        	lda	$5                      ; 0x2005 <__heap_default_limit+0x1005>
    51aa: 0a           	asl
    51ab: a6 04        	ldx	$4                      ; 0x2004 <__heap_default_limit+0x1004>
    51ad: 86 09        	stx	$9                      ; 0x2009 <__heap_default_limit+0x1009>
    51af: 26 09        	rol	$9                      ; 0x2009 <__heap_default_limit+0x1009>
    51b1: 18           	clc
    51b2: 65 05        	adc	$5                      ; 0x2005 <__heap_default_limit+0x1005>
    51b4: 85 05        	sta	$5                      ; 0x2005 <__heap_default_limit+0x1005>
    51b6: a5 09        	lda	$9                      ; 0x2009 <__heap_default_limit+0x1009>
    51b8: 65 04        	adc	$4                      ; 0x2004 <__heap_default_limit+0x1004>
    51ba: 85 04        	sta	$4                      ; 0x2004 <__heap_default_limit+0x1004>
    51bc: a5 08        	lda	$8                      ; 0x2008 <__heap_default_limit+0x1008>
    51be: 18           	clc
    51bf: 65 05        	adc	$5                      ; 0x2005 <__heap_default_limit+0x1005>
    51c1: aa           	tax
    51c2: a5 07        	lda	$7                      ; 0x2007 <__heap_default_limit+0x1007>
    51c4: 65 04        	adc	$4                      ; 0x2004 <__heap_default_limit+0x1004>
    51c6: 86 04        	stx	$4                      ; 0x2004 <__heap_default_limit+0x1004>
    51c8: 85 05        	sta	$5                      ; 0x2005 <__heap_default_limit+0x1005>
    51ca: a0 12        	ldy	#$12
    51cc: b1 04        	lda	($4),y                  ; 0x2004 <__heap_default_limit+0x1004>
    51ce: 85 48        	sta	$48                     ; 0x2048 <__after_main>
    51d0: a5 06        	lda	$6                      ; 0x2006 <__heap_default_limit+0x1006>
    51d2: 18           	clc
    51d3: 69 f8        	adc	#$f8
    51d5: 4c 18 52     	jmp	$5218 <isallocatedBAMtracksector+0xf7>
    51d8: a6 06        	ldx	$6                      ; 0x2006 <__heap_default_limit+0x1006>
    51da: e0 18        	cpx	#$18
    51dc: 90 03        	bcc	$51e1 <isallocatedBAMtracksector+0xc0>
    51de: 4c 2f 52     	jmp	$522f <isallocatedBAMtracksector+0x10e>
    51e1: 64 04        	stz	$4                      ; 0x2004 <__heap_default_limit+0x1004>
    51e3: a6 09        	ldx	$9                      ; 0x2009 <__heap_default_limit+0x1009>
    51e5: 86 05        	stx	$5                      ; 0x2005 <__heap_default_limit+0x1005>
    51e7: 06 05        	asl	$5                      ; 0x2005 <__heap_default_limit+0x1005>
    51e9: 26 04        	rol	$4                      ; 0x2004 <__heap_default_limit+0x1004>
    51eb: a5 05        	lda	$5                      ; 0x2005 <__heap_default_limit+0x1005>
    51ed: 0a           	asl
    51ee: a6 04        	ldx	$4                      ; 0x2004 <__heap_default_limit+0x1004>
    51f0: 86 09        	stx	$9                      ; 0x2009 <__heap_default_limit+0x1009>
    51f2: 26 09        	rol	$9                      ; 0x2009 <__heap_default_limit+0x1009>
    51f4: 18           	clc
    51f5: 65 05        	adc	$5                      ; 0x2005 <__heap_default_limit+0x1005>
    51f7: 85 05        	sta	$5                      ; 0x2005 <__heap_default_limit+0x1005>
    51f9: a5 09        	lda	$9                      ; 0x2009 <__heap_default_limit+0x1009>
    51fb: 65 04        	adc	$4                      ; 0x2004 <__heap_default_limit+0x1004>
    51fd: 85 04        	sta	$4                      ; 0x2004 <__heap_default_limit+0x1004>
    51ff: a5 08        	lda	$8                      ; 0x2008 <__heap_default_limit+0x1008>
    5201: 18           	clc
    5202: 65 05        	adc	$5                      ; 0x2005 <__heap_default_limit+0x1005>
    5204: aa           	tax
    5205: a5 07        	lda	$7                      ; 0x2007 <__heap_default_limit+0x1007>
    5207: 65 04        	adc	$4                      ; 0x2004 <__heap_default_limit+0x1004>
    5209: 86 04        	stx	$4                      ; 0x2004 <__heap_default_limit+0x1004>
    520b: 85 05        	sta	$5                      ; 0x2005 <__heap_default_limit+0x1005>
    520d: a0 13        	ldy	#$13
    520f: b1 04        	lda	($4),y                  ; 0x2004 <__heap_default_limit+0x1004>
    5211: 85 48        	sta	$48                     ; 0x2048 <__after_main>
    5213: a5 06        	lda	$6                      ; 0x2006 <__heap_default_limit+0x1006>
    5215: 18           	clc
    5216: 69 f0        	adc	#$f0
    5218: a2 00        	ldx	#$0
    521a: 85 04        	sta	$4                      ; 0x2004 <__heap_default_limit+0x1004>
    521c: a9 01        	lda	#$1
    521e: 20 3b 6b     	jsr	$6b3b <__ashlhi3>
    5221: a2 01        	ldx	#$1
    5223: a4 48        	ldy	$48                     ; 0x2048 <__after_main>
    5225: 84 04        	sty	$4                      ; 0x2004 <__heap_default_limit+0x1004>
    5227: 25 04        	and	$4                      ; 0x2004 <__heap_default_limit+0x1004>
    5229: f0 02        	beq	$522d <isallocatedBAMtracksector+0x10c>
    522b: a2 00        	ldx	#$0
    522d: 8a           	txa
    522e: 60           	rts
    522f: a6 06        	ldx	$6                      ; 0x2006 <__heap_default_limit+0x1006>
    5231: e0 20        	cpx	#$20
    5233: a2 01        	ldx	#$1
    5235: b0 02        	bcs	$5239 <isallocatedBAMtracksector+0x118>
    5237: a2 00        	ldx	#$0
    5239: 86 0a        	stx	$a                      ; 0x200a <__heap_default_limit+0x100a>
    523b: 64 04        	stz	$4                      ; 0x2004 <__heap_default_limit+0x1004>
    523d: 18           	clc
    523e: a6 09        	ldx	$9                      ; 0x2009 <__heap_default_limit+0x1009>
    5240: 86 05        	stx	$5                      ; 0x2005 <__heap_default_limit+0x1005>
    5242: a5 08        	lda	$8                      ; 0x2008 <__heap_default_limit+0x1008>
    5244: 69 10        	adc	#$10
    5246: aa           	tax
    5247: a5 07        	lda	$7                      ; 0x2007 <__heap_default_limit+0x1007>
    5249: 69 00        	adc	#$0
    524b: a8           	tay
    524c: 06 05        	asl	$5                      ; 0x2005 <__heap_default_limit+0x1005>
    524e: 26 04        	rol	$4                      ; 0x2004 <__heap_default_limit+0x1004>
    5250: a5 05        	lda	$5                      ; 0x2005 <__heap_default_limit+0x1005>
    5252: 0a           	asl
    5253: 5a           	phy
    5254: a4 04        	ldy	$4                      ; 0x2004 <__heap_default_limit+0x1004>
    5256: 84 07        	sty	$7                      ; 0x2007 <__heap_default_limit+0x1007>
    5258: 7a           	ply
    5259: 26 07        	rol	$7                      ; 0x2007 <__heap_default_limit+0x1007>
    525b: e6 0a        	inc	$a                      ; 0x200a <__heap_default_limit+0x100a>
    525d: c6 0a        	dec	$a                      ; 0x200a <__heap_default_limit+0x100a>
    525f: d0 24        	bne	$5285 <isallocatedBAMtracksector+0x164>
    5261: 18           	clc
    5262: 65 05        	adc	$5                      ; 0x2005 <__heap_default_limit+0x1005>
    5264: 85 05        	sta	$5                      ; 0x2005 <__heap_default_limit+0x1005>
    5266: a5 07        	lda	$7                      ; 0x2007 <__heap_default_limit+0x1007>
    5268: 65 04        	adc	$4                      ; 0x2004 <__heap_default_limit+0x1004>
    526a: 85 04        	sta	$4                      ; 0x2004 <__heap_default_limit+0x1004>
    526c: 8a           	txa
    526d: 18           	clc
    526e: 65 05        	adc	$5                      ; 0x2005 <__heap_default_limit+0x1005>
    5270: aa           	tax
    5271: 98           	tya
    5272: 65 04        	adc	$4                      ; 0x2004 <__heap_default_limit+0x1004>
    5274: 86 04        	stx	$4                      ; 0x2004 <__heap_default_limit+0x1004>
    5276: 85 05        	sta	$5                      ; 0x2005 <__heap_default_limit+0x1005>
    5278: a0 04        	ldy	#$4
    527a: b1 04        	lda	($4),y                  ; 0x2004 <__heap_default_limit+0x1004>
    527c: 85 48        	sta	$48                     ; 0x2048 <__after_main>
    527e: a5 06        	lda	$6                      ; 0x2006 <__heap_default_limit+0x1006>
    5280: 18           	clc
    5281: 69 e8        	adc	#$e8
    5283: 80 22        	bra	$52a7 <isallocatedBAMtracksector+0x186>
    5285: 18           	clc
    5286: 65 05        	adc	$5                      ; 0x2005 <__heap_default_limit+0x1005>
    5288: 85 05        	sta	$5                      ; 0x2005 <__heap_default_limit+0x1005>
    528a: a5 07        	lda	$7                      ; 0x2007 <__heap_default_limit+0x1007>
    528c: 65 04        	adc	$4                      ; 0x2004 <__heap_default_limit+0x1004>
    528e: 85 04        	sta	$4                      ; 0x2004 <__heap_default_limit+0x1004>
    5290: 8a           	txa
    5291: 18           	clc
    5292: 65 05        	adc	$5                      ; 0x2005 <__heap_default_limit+0x1005>
    5294: aa           	tax
    5295: 98           	tya
    5296: 65 04        	adc	$4                      ; 0x2004 <__heap_default_limit+0x1004>
    5298: 86 04        	stx	$4                      ; 0x2004 <__heap_default_limit+0x1004>
    529a: 85 05        	sta	$5                      ; 0x2005 <__heap_default_limit+0x1005>
    529c: a0 05        	ldy	#$5
    529e: b1 04        	lda	($4),y                  ; 0x2004 <__heap_default_limit+0x1004>
    52a0: 85 48        	sta	$48                     ; 0x2048 <__after_main>
    52a2: a5 06        	lda	$6                      ; 0x2006 <__heap_default_limit+0x1006>
    52a4: 18           	clc
    52a5: 69 e0        	adc	#$e0
    52a7: a2 00        	ldx	#$0
    52a9: 85 04        	sta	$4                      ; 0x2004 <__heap_default_limit+0x1004>
    52ab: a9 01        	lda	#$1
    52ad: 20 3b 6b     	jsr	$6b3b <__ashlhi3>
    52b0: a6 48        	ldx	$48                     ; 0x2048 <__after_main>
    52b2: 86 04        	stx	$4                      ; 0x2004 <__heap_default_limit+0x1004>
    52b4: 25 04        	and	$4                      ; 0x2004 <__heap_default_limit+0x1004>
    52b6: a2 01        	ldx	#$1
    52b8: a8           	tay
    52b9: f0 03        	beq	$52be <isallocatedBAMtracksector+0x19d>
    52bb: 4c 2b 52     	jmp	$522b <isallocatedBAMtracksector+0x10a>
    52be: 4c 2d 52     	jmp	$522d <isallocatedBAMtracksector+0x10c>

000052c1 <findnextBAMtracksector>:
    52c1: 85 4c        	sta	$4c                     ; 0x204c <_fini+0x1>
    52c3: a6 04        	ldx	$4                      ; 0x2004 <__heap_default_limit+0x1004>
    52c5: 86 48        	stx	$48                     ; 0x2048 <__after_main>
    52c7: a6 05        	ldx	$5                      ; 0x2005 <__heap_default_limit+0x1005>
    52c9: 86 49        	stx	$49                     ; 0x2049 <__after_main+0x1>
    52cb: a6 06        	ldx	$6                      ; 0x2006 <__heap_default_limit+0x1006>
    52cd: 86 4a        	stx	$4a                     ; 0x204a <__after_main+0x2>
    52cf: a6 07        	ldx	$7                      ; 0x2007 <__heap_default_limit+0x1007>
    52d1: 86 4b        	stx	$4b                     ; 0x204b <_fini>
    52d3: 64 4d        	stz	$4d                     ; 0x204d <_fini+0x2>
    52d5: a0 00        	ldy	#$0
    52d7: c0 50        	cpy	#$50
    52d9: d0 03        	bne	$52de <findnextBAMtracksector+0x1d>
    52db: 4c d4 53     	jmp	$53d4 <findnextBAMtracksector+0x113>
    52de: b9 84 7a     	lda	$7a84,y                 ; 0x7a84 <BAMsector+0x8>
    52e1: a6 4c        	ldx	$4c                     ; 0x204c <_fini+0x1>
    52e3: f0 01        	beq	$52e6 <findnextBAMtracksector+0x25>
    52e5: 1a           	inc
    52e6: c9 50        	cmp	#$50
    52e8: a2 7c        	ldx	#$7c
    52ea: 86 04        	stx	$4                      ; 0x2004 <__heap_default_limit+0x1004>
    52ec: a2 7a        	ldx	#$7a
    52ee: 86 05        	stx	$5                      ; 0x2005 <__heap_default_limit+0x1005>
    52f0: 84 52        	sty	$52                     ; 0x2052 <_fini+0x7>
    52f2: 90 06        	bcc	$52fa <findnextBAMtracksector+0x39>
    52f4: 64 51        	stz	$51                     ; 0x2051 <_fini+0x6>
    52f6: a9 00        	lda	#$0
    52f8: 80 15        	bra	$530f <findnextBAMtracksector+0x4e>
    52fa: c9 28        	cmp	#$28
    52fc: b0 04        	bcs	$5302 <findnextBAMtracksector+0x41>
    52fe: 85 51        	sta	$51                     ; 0x2051 <_fini+0x6>
    5300: 80 0d        	bra	$530f <findnextBAMtracksector+0x4e>
    5302: 18           	clc
    5303: 85 51        	sta	$51                     ; 0x2051 <_fini+0x6>
    5305: 69 d8        	adc	#$d8
    5307: a2 7e        	ldx	#$7e
    5309: 86 04        	stx	$4                      ; 0x2004 <__heap_default_limit+0x1004>
    530b: a2 7a        	ldx	#$7a
    530d: 86 05        	stx	$5                      ; 0x2005 <__heap_default_limit+0x1005>
    530f: 0a           	asl
    5310: 85 06        	sta	$6                      ; 0x2006 <__heap_default_limit+0x1006>
    5312: a9 00        	lda	#$0
    5314: 2a           	rol
    5315: 85 07        	sta	$7                      ; 0x2007 <__heap_default_limit+0x1007>
    5317: a5 06        	lda	$6                      ; 0x2006 <__heap_default_limit+0x1006>
    5319: 0a           	asl
    531a: aa           	tax
    531b: a5 07        	lda	$7                      ; 0x2007 <__heap_default_limit+0x1007>
    531d: 2a           	rol
    531e: a8           	tay
    531f: 18           	clc
    5320: 8a           	txa
    5321: 65 06        	adc	$6                      ; 0x2006 <__heap_default_limit+0x1006>
    5323: 85 06        	sta	$6                      ; 0x2006 <__heap_default_limit+0x1006>
    5325: 98           	tya
    5326: 65 07        	adc	$7                      ; 0x2007 <__heap_default_limit+0x1007>
    5328: aa           	tax
    5329: 18           	clc
    532a: a5 06        	lda	$6                      ; 0x2006 <__heap_default_limit+0x1006>
    532c: 72 04        	adc	($4),z                  ; 0x2004 <__heap_default_limit+0x1004>
    532e: 85 4e        	sta	$4e                     ; 0x204e <_fini+0x3>
    5330: a0 01        	ldy	#$1
    5332: 8a           	txa
    5333: 71 04        	adc	($4),y                  ; 0x2004 <__heap_default_limit+0x1004>
    5335: 85 4f        	sta	$4f                     ; 0x204f <_fini+0x4>
    5337: a2 00        	ldx	#$0
    5339: 4c 8d 53     	jmp	$538d <findnextBAMtracksector+0xcc>
    533c: e0 10        	cpx	#$10
    533e: b0 0f        	bcs	$534f <findnextBAMtracksector+0x8e>
    5340: a0 12        	ldy	#$12
    5342: b1 4e        	lda	($4e),y                 ; 0x204e <_fini+0x3>
    5344: 85 50        	sta	$50                     ; 0x2050 <_fini+0x5>
    5346: 18           	clc
    5347: 86 53        	stx	$53                     ; 0x2053 <_fini+0x8>
    5349: 8a           	txa
    534a: 69 f8        	adc	#$f8
    534c: 4c 7d 53     	jmp	$537d <findnextBAMtracksector+0xbc>
    534f: e0 18        	cpx	#$18
    5351: b0 0e        	bcs	$5361 <findnextBAMtracksector+0xa0>
    5353: a0 13        	ldy	#$13
    5355: b1 4e        	lda	($4e),y                 ; 0x204e <_fini+0x3>
    5357: 85 50        	sta	$50                     ; 0x2050 <_fini+0x5>
    5359: 18           	clc
    535a: 86 53        	stx	$53                     ; 0x2053 <_fini+0x8>
    535c: 8a           	txa
    535d: 69 f0        	adc	#$f0
    535f: 80 1c        	bra	$537d <findnextBAMtracksector+0xbc>
    5361: e0 20        	cpx	#$20
    5363: 86 53        	stx	$53                     ; 0x2053 <_fini+0x8>
    5365: b0 0c        	bcs	$5373 <findnextBAMtracksector+0xb2>
    5367: a0 14        	ldy	#$14
    5369: b1 4e        	lda	($4e),y                 ; 0x204e <_fini+0x3>
    536b: 85 50        	sta	$50                     ; 0x2050 <_fini+0x5>
    536d: 18           	clc
    536e: 8a           	txa
    536f: 69 e8        	adc	#$e8
    5371: 80 0a        	bra	$537d <findnextBAMtracksector+0xbc>
    5373: a0 15        	ldy	#$15
    5375: b1 4e        	lda	($4e),y                 ; 0x204e <_fini+0x3>
    5377: 85 50        	sta	$50                     ; 0x2050 <_fini+0x5>
    5379: 18           	clc
    537a: 8a           	txa
    537b: 69 e0        	adc	#$e0
    537d: 85 04        	sta	$4                      ; 0x2004 <__heap_default_limit+0x1004>
    537f: a2 00        	ldx	#$0
    5381: a9 01        	lda	#$1
    5383: 20 3b 6b     	jsr	$6b3b <__ashlhi3>
    5386: 25 50        	and	$50                     ; 0x2050 <_fini+0x5>
    5388: d0 20        	bne	$53aa <findnextBAMtracksector+0xe9>
    538a: a6 53        	ldx	$53                     ; 0x2053 <_fini+0x8>
    538c: e8           	inx
    538d: e0 28        	cpx	#$28
    538f: f0 13        	beq	$53a4 <findnextBAMtracksector+0xe3>
    5391: e0 08        	cpx	#$8
    5393: 90 03        	bcc	$5398 <findnextBAMtracksector+0xd7>
    5395: 4c 3c 53     	jmp	$533c <findnextBAMtracksector+0x7b>
    5398: a0 11        	ldy	#$11
    539a: 86 04        	stx	$4                      ; 0x2004 <__heap_default_limit+0x1004>
    539c: b1 4e        	lda	($4e),y                 ; 0x204e <_fini+0x3>
    539e: 85 50        	sta	$50                     ; 0x2050 <_fini+0x5>
    53a0: 86 53        	stx	$53                     ; 0x2053 <_fini+0x8>
    53a2: 80 db        	bra	$537f <findnextBAMtracksector+0xbe>
    53a4: a4 52        	ldy	$52                     ; 0x2052 <_fini+0x7>
    53a6: c8           	iny
    53a7: 4c d7 52     	jmp	$52d7 <findnextBAMtracksector+0x16>
    53aa: a2 01        	ldx	#$1
    53ac: a4 51        	ldy	$51                     ; 0x2051 <_fini+0x6>
    53ae: 84 4c        	sty	$4c                     ; 0x204c <_fini+0x1>
    53b0: e6 4c        	inc	$4c                     ; 0x204c <_fini+0x1>
    53b2: a0 00        	ldy	#$0
    53b4: 84 04        	sty	$4                      ; 0x2004 <__heap_default_limit+0x1004>
    53b6: a0 17        	ldy	#$17
    53b8: 84 05        	sty	$5                      ; 0x2005 <__heap_default_limit+0x1005>
    53ba: a0 00        	ldy	#$0
    53bc: 84 06        	sty	$6                      ; 0x2006 <__heap_default_limit+0x1006>
    53be: a0 18        	ldy	#$18
    53c0: 84 07        	sty	$7                      ; 0x2007 <__heap_default_limit+0x1007>
    53c2: 86 08        	stx	$8                      ; 0x2008 <__heap_default_limit+0x1008>
    53c4: a6 53        	ldx	$53                     ; 0x2053 <_fini+0x8>
    53c6: a5 4c        	lda	$4c                     ; 0x204c <_fini+0x1>
    53c8: 20 1f 4e     	jsr	$4e1f <BAMSectorUpdate>
    53cb: a5 4c        	lda	$4c                     ; 0x204c <_fini+0x1>
    53cd: 92 48        	sta	($48),z                 ; 0x2048 <__after_main>
    53cf: a5 53        	lda	$53                     ; 0x2053 <_fini+0x8>
    53d1: 92 4a        	sta	($4a),z                 ; 0x204a <__after_main+0x2>
    53d3: 60           	rts
    53d4: a9 ff        	lda	#$ff
    53d6: 64 53        	stz	$53                     ; 0x2053 <_fini+0x8>
    53d8: 80 f3        	bra	$53cd <findnextBAMtracksector+0x10c>

000053da <tracksectorstring>:
    53da: 86 4a        	stx	$4a                     ; 0x204a <__after_main+0x2>
    53dc: a2 54        	ldx	#$54
    53de: 8e 06 7b     	stx	$7b06                   ; 0x7b06 <s>
    53e1: a2 72        	ldx	#$72
    53e3: 8e 07 7b     	stx	$7b07                   ; 0x7b07 <s+0x1>
    53e6: a2 61        	ldx	#$61
    53e8: 8e 08 7b     	stx	$7b08                   ; 0x7b08 <s+0x2>
    53eb: a2 63        	ldx	#$63
    53ed: 8e 09 7b     	stx	$7b09                   ; 0x7b09 <s+0x3>
    53f0: a2 6b        	ldx	#$6b
    53f2: 8e 0a 7b     	stx	$7b0a                   ; 0x7b0a <s+0x4>
    53f5: a2 3a        	ldx	#$3a
    53f7: 8e 0b 7b     	stx	$7b0b                   ; 0x7b0b <s+0x5>
    53fa: a2 20        	ldx	#$20
    53fc: 8e 0c 7b     	stx	$7b0c                   ; 0x7b0c <s+0x6>
    53ff: a2 49        	ldx	#$49
    5401: a0 00        	ldy	#$0
    5403: 86 04        	stx	$4                      ; 0x2004 <__heap_default_limit+0x1004>
    5405: 84 05        	sty	$5                      ; 0x2005 <__heap_default_limit+0x1005>
    5407: a2 0a        	ldx	#$a
    5409: 20 86 6c     	jsr	$6c86 <__udivmodqi4>
    540c: 18           	clc
    540d: 69 30        	adc	#$30
    540f: aa           	tax
    5410: a5 49        	lda	$49                     ; 0x2049 <__after_main+0x1>
    5412: 8e 0d 7b     	stx	$7b0d                   ; 0x7b0d <s+0x7>
    5415: 09 30        	ora	#$30
    5417: 8d 0e 7b     	sta	$7b0e                   ; 0x7b0e <s+0x8>
    541a: a2 53        	ldx	#$53
    541c: 8e 10 7b     	stx	$7b10                   ; 0x7b10 <s+0xa>
    541f: a2 65        	ldx	#$65
    5421: 8e 11 7b     	stx	$7b11                   ; 0x7b11 <s+0xb>
    5424: a2 63        	ldx	#$63
    5426: 8e 12 7b     	stx	$7b12                   ; 0x7b12 <s+0xc>
    5429: a2 74        	ldx	#$74
    542b: 8e 13 7b     	stx	$7b13                   ; 0x7b13 <s+0xd>
    542e: a2 6f        	ldx	#$6f
    5430: 8e 14 7b     	stx	$7b14                   ; 0x7b14 <s+0xe>
    5433: a2 72        	ldx	#$72
    5435: 8e 15 7b     	stx	$7b15                   ; 0x7b15 <s+0xf>
    5438: a2 3a        	ldx	#$3a
    543a: 8e 16 7b     	stx	$7b16                   ; 0x7b16 <s+0x10>
    543d: a2 20        	ldx	#$20
    543f: 8e 0f 7b     	stx	$7b0f                   ; 0x7b0f <s+0x9>
    5442: 8e 17 7b     	stx	$7b17                   ; 0x7b17 <s+0x11>
    5445: a2 48        	ldx	#$48
    5447: a0 00        	ldy	#$0
    5449: 86 04        	stx	$4                      ; 0x2004 <__heap_default_limit+0x1004>
    544b: 84 05        	sty	$5                      ; 0x2005 <__heap_default_limit+0x1005>
    544d: a2 0a        	ldx	#$a
    544f: a5 4a        	lda	$4a                     ; 0x204a <__after_main+0x2>
    5451: 20 86 6c     	jsr	$6c86 <__udivmodqi4>
    5454: a6 48        	ldx	$48                     ; 0x2048 <__after_main>
    5456: 18           	clc
    5457: 69 30        	adc	#$30
    5459: 8d 18 7b     	sta	$7b18                   ; 0x7b18 <s+0x12>
    545c: 8a           	txa
    545d: 09 30        	ora	#$30
    545f: 8d 19 7b     	sta	$7b19                   ; 0x7b19 <s+0x13>
    5462: 9c 1a 7b     	stz	$7b1a                   ; 0x7b1a <s+0x14>
    5465: 60           	rts

00005466 <getdirententry>:
    5466: 86 54        	stx	$54                     ; 0x2054 <_fini+0x9>
    5468: 0a           	asl
    5469: 85 04        	sta	$4                      ; 0x2004 <__heap_default_limit+0x1004>
    546b: a0 00        	ldy	#$0
    546d: 98           	tya
    546e: 2a           	rol
    546f: 85 05        	sta	$5                      ; 0x2005 <__heap_default_limit+0x1005>
    5471: 98           	tya
    5472: 2a           	rol
    5473: 85 06        	sta	$6                      ; 0x2006 <__heap_default_limit+0x1006>
    5475: a5 04        	lda	$4                      ; 0x2004 <__heap_default_limit+0x1004>
    5477: 0a           	asl
    5478: aa           	tax
    5479: a5 05        	lda	$5                      ; 0x2005 <__heap_default_limit+0x1005>
    547b: 2a           	rol
    547c: 85 09        	sta	$9                      ; 0x2009 <__heap_default_limit+0x1009>
    547e: a5 06        	lda	$6                      ; 0x2006 <__heap_default_limit+0x1006>
    5480: 85 08        	sta	$8                      ; 0x2008 <__heap_default_limit+0x1008>
    5482: 26 08        	rol	$8                      ; 0x2008 <__heap_default_limit+0x1008>
    5484: 8a           	txa
    5485: 0a           	asl
    5486: 26 09        	rol	$9                      ; 0x2009 <__heap_default_limit+0x1009>
    5488: 26 08        	rol	$8                      ; 0x2008 <__heap_default_limit+0x1008>
    548a: 0a           	asl
    548b: 26 09        	rol	$9                      ; 0x2009 <__heap_default_limit+0x1009>
    548d: 26 08        	rol	$8                      ; 0x2008 <__heap_default_limit+0x1008>
    548f: 38           	sec
    5490: e5 04        	sbc	$4                      ; 0x2004 <__heap_default_limit+0x1004>
    5492: 85 55        	sta	$55                     ; 0x2055 <_fini+0xa>
    5494: a5 09        	lda	$9                      ; 0x2009 <__heap_default_limit+0x1009>
    5496: e5 05        	sbc	$5                      ; 0x2005 <__heap_default_limit+0x1005>
    5498: 85 56        	sta	$56                     ; 0x2056 <fourbytes>
    549a: a5 08        	lda	$8                      ; 0x2008 <__heap_default_limit+0x1008>
    549c: e5 06        	sbc	$6                      ; 0x2006 <__heap_default_limit+0x1006>
    549e: a2 08        	ldx	#$8
    54a0: 86 5b        	stx	$5b                     ; 0x205b <lpstore+0x1>
    54a2: 09 08        	ora	#$8
    54a4: 85 57        	sta	$57                     ; 0x2057 <fourbytes+0x1>
    54a6: 98           	tya
    54a7: 64 59        	stz	$59                     ; 0x2059 <fourbytes+0x3>
    54a9: aa           	tax
    54aa: 86 04        	stx	$4                      ; 0x2004 <__heap_default_limit+0x1004>
    54ac: c4 04        	cpy	$4                      ; 0x2004 <__heap_default_limit+0x1004>
    54ae: d0 0a        	bne	$54ba <getdirententry+0x54>
    54b0: 86 5a        	stx	$5a                     ; 0x205a <lpstore>
    54b2: a6 5b        	ldx	$5b                     ; 0x205b <lpstore+0x1>
    54b4: 86 04        	stx	$4                      ; 0x2004 <__heap_default_limit+0x1004>
    54b6: c5 04        	cmp	$4                      ; 0x2004 <__heap_default_limit+0x1004>
    54b8: 80 06        	bra	$54c0 <getdirententry+0x5a>
    54ba: 86 5a        	stx	$5a                     ; 0x205a <lpstore>
    54bc: 86 04        	stx	$4                      ; 0x2004 <__heap_default_limit+0x1004>
    54be: c4 04        	cpy	$4                      ; 0x2004 <__heap_default_limit+0x1004>
    54c0: a2 00        	ldx	#$0
    54c2: 86 04        	stx	$4                      ; 0x2004 <__heap_default_limit+0x1004>
    54c4: a2 00        	ldx	#$0
    54c6: 86 05        	stx	$5                      ; 0x2005 <__heap_default_limit+0x1005>
    54c8: 90 03        	bcc	$54cd <getdirententry+0x67>
    54ca: 4c 47 55     	jmp	$5547 <getdirententry+0xe1>
    54cd: 85 58        	sta	$58                     ; 0x2058 <fourbytes+0x2>
    54cf: 4a           	lsr
    54d0: 64 04        	stz	$4                      ; 0x2004 <__heap_default_limit+0x1004>
    54d2: 66 04        	ror	$4                      ; 0x2004 <__heap_default_limit+0x1004>
    54d4: 4a           	lsr
    54d5: 66 04        	ror	$4                      ; 0x2004 <__heap_default_limit+0x1004>
    54d7: 4a           	lsr
    54d8: 85 05        	sta	$5                      ; 0x2005 <__heap_default_limit+0x1005>
    54da: 66 04        	ror	$4                      ; 0x2004 <__heap_default_limit+0x1004>
    54dc: a9 00        	lda	#$0
    54de: 18           	clc
    54df: 65 04        	adc	$4                      ; 0x2004 <__heap_default_limit+0x1004>
    54e1: 85 0c        	sta	$c                      ; 0x200c <__heap_default_limit+0x100c>
    54e3: a5 55        	lda	$55                     ; 0x2055 <_fini+0xa>
    54e5: 65 05        	adc	$5                      ; 0x2005 <__heap_default_limit+0x1005>
    54e7: 85 0d        	sta	$d                      ; 0x200d <__heap_default_limit+0x100d>
    54e9: a5 56        	lda	$56                     ; 0x2056 <fourbytes>
    54eb: 69 00        	adc	#$0
    54ed: 85 04        	sta	$4                      ; 0x2004 <__heap_default_limit+0x1004>
    54ef: a5 57        	lda	$57                     ; 0x2057 <fourbytes+0x1>
    54f1: 69 00        	adc	#$0
    54f3: 85 05        	sta	$5                      ; 0x2005 <__heap_default_limit+0x1005>
    54f5: a2 c0        	ldx	#$c0
    54f7: 86 06        	stx	$6                      ; 0x2006 <__heap_default_limit+0x1006>
    54f9: a2 1b        	ldx	#$1b
    54fb: 86 07        	stx	$7                      ; 0x2007 <__heap_default_limit+0x1007>
    54fd: 64 08        	stz	$8                      ; 0x2008 <__heap_default_limit+0x1008>
    54ff: 64 09        	stz	$9                      ; 0x2009 <__heap_default_limit+0x1009>
    5501: a2 20        	ldx	#$20
    5503: 86 0a        	stx	$a                      ; 0x200a <__heap_default_limit+0x100a>
    5505: 64 0b        	stz	$b                      ; 0x200b <__heap_default_limit+0x100b>
    5507: a6 0d        	ldx	$d                      ; 0x200d <__heap_default_limit+0x100d>
    5509: a5 0c        	lda	$c                      ; 0x200c <__heap_default_limit+0x100c>
    550b: 20 9e 69     	jsr	$699e <lcopy>
    550e: ae c0 1b     	ldx	$1bc0                   ; 0x1bc0 <__heap_default_limit+0xbc0>
    5511: f0 0d        	beq	$5520 <getdirententry+0xba>
    5513: 18           	clc
    5514: a5 5b        	lda	$5b                     ; 0x205b <lpstore+0x1>
    5516: 69 08        	adc	#$8
    5518: 85 5b        	sta	$5b                     ; 0x205b <lpstore+0x1>
    551a: a5 5a        	lda	$5a                     ; 0x205a <lpstore>
    551c: 69 00        	adc	#$0
    551e: 85 5a        	sta	$5a                     ; 0x205a <lpstore>
    5520: ae c2 1b     	ldx	$1bc2                   ; 0x1bc2 <__heap_default_limit+0xbc2>
    5523: a0 00        	ldy	#$0
    5525: 8a           	txa
    5526: d0 06        	bne	$552e <getdirententry+0xc8>
    5528: a9 01        	lda	#$1
    552a: 25 2f        	and	$2f                     ; 0x202f <__do_init_stack>
    552c: f0 09        	beq	$5537 <getdirententry+0xd1>
    552e: a6 59        	ldx	$59                     ; 0x2059 <fourbytes+0x3>
    5530: e4 54        	cpx	$54                     ; 0x2054 <_fini+0x9>
    5532: f0 0b        	beq	$553f <getdirententry+0xd9>
    5534: e8           	inx
    5535: 86 59        	stx	$59                     ; 0x2059 <fourbytes+0x3>
    5537: a5 58        	lda	$58                     ; 0x2058 <fourbytes+0x2>
    5539: 1a           	inc
    553a: a6 5a        	ldx	$5a                     ; 0x205a <lpstore>
    553c: 4c aa 54     	jmp	$54aa <getdirententry+0x44>
    553f: a2 c0        	ldx	#$c0
    5541: 86 04        	stx	$4                      ; 0x2004 <__heap_default_limit+0x1004>
    5543: a2 1b        	ldx	#$1b
    5545: 86 05        	stx	$5                      ; 0x2005 <__heap_default_limit+0x1005>
    5547: 60           	rts

00005548 <strcopy>:
    5548: a0 00        	ldy	#$0
    554a: 80 03        	bra	$554f <strcopy+0x7>
    554c: 91 06        	sta	($6),y                  ; 0x2006 <__heap_default_limit+0x1006>
    554e: c8           	iny
    554f: b1 04        	lda	($4),y                  ; 0x2004 <__heap_default_limit+0x1004>
    5551: f0 04        	beq	$5557 <strcopy+0xf>
    5553: c0 10        	cpy	#$10
    5555: 90 f5        	bcc	$554c <strcopy+0x4>
    5557: a9 00        	lda	#$0
    5559: 91 06        	sta	($6),y                  ; 0x2006 <__heap_default_limit+0x1006>
    555b: 60           	rts

0000555c <csputdec>:
    555c: 86 07        	stx	$7                      ; 0x2007 <__heap_default_limit+0x1007>
    555e: a6 06        	ldx	$6                      ; 0x2006 <__heap_default_limit+0x1006>
    5560: 86 60        	stx	$60                     ; 0x2060 <lpstore+0x6>
    5562: a6 04        	ldx	$4                      ; 0x2004 <__heap_default_limit+0x1004>
    5564: 86 66        	stx	$66                     ; 0x2066 <lpstore+0xc>
    5566: a6 05        	ldx	$5                      ; 0x2005 <__heap_default_limit+0x1005>
    5568: 86 67        	stx	$67                     ; 0x2067 <lpstore+0xd>
    556a: 64 73        	stz	$73                     ; 0x2073 <lpstore+0x19>
    556c: a0 09        	ldy	#$9
    556e: a2 74        	ldx	#$74
    5570: 86 62        	stx	$62                     ; 0x2062 <lpstore+0x8>
    5572: a2 00        	ldx	#$0
    5574: 86 63        	stx	$63                     ; 0x2063 <lpstore+0x9>
    5576: a6 07        	ldx	$7                      ; 0x2007 <__heap_default_limit+0x1007>
    5578: 84 68        	sty	$68                     ; 0x2068 <lpstore+0xe>
    557a: 48           	pha
    557b: a5 62        	lda	$62                     ; 0x2062 <lpstore+0x8>
    557d: 85 0a        	sta	$a                      ; 0x200a <__heap_default_limit+0x100a>
    557f: a5 63        	lda	$63                     ; 0x2063 <lpstore+0x9>
    5581: 85 0b        	sta	$b                      ; 0x200b <__heap_default_limit+0x100b>
    5583: 68           	pla
    5584: 84 61        	sty	$61                     ; 0x2061 <lpstore+0x7>
    5586: a0 0a        	ldy	#$a
    5588: 84 06        	sty	$6                      ; 0x2006 <__heap_default_limit+0x1006>
    558a: 64 07        	stz	$7                      ; 0x2007 <__heap_default_limit+0x1007>
    558c: 64 08        	stz	$8                      ; 0x2008 <__heap_default_limit+0x1008>
    558e: 64 09        	stz	$9                      ; 0x2009 <__heap_default_limit+0x1009>
    5590: 86 65        	stx	$65                     ; 0x2065 <lpstore+0xb>
    5592: 85 64        	sta	$64                     ; 0x2064 <lpstore+0xa>
    5594: 20 d2 6d     	jsr	$6dd2 <__udivmodsi4>
    5597: 85 07        	sta	$7                      ; 0x2007 <__heap_default_limit+0x1007>
    5599: a9 30        	lda	#$30
    559b: 05 74        	ora	$74                     ; 0x2074 <lpstore+0x1a>
    559d: c6 61        	dec	$61                     ; 0x2061 <lpstore+0x7>
    559f: a4 68        	ldy	$68                     ; 0x2068 <lpstore+0xe>
    55a1: 99 69 00     	sta	$69,y                   ; 0x69 <__rc31+0x48>
    55a4: a5 67        	lda	$67                     ; 0x2067 <lpstore+0xd>
    55a6: d0 0e        	bne	$55b6 <csputdec+0x5a>
    55a8: a5 66        	lda	$66                     ; 0x2066 <lpstore+0xc>
    55aa: d0 0e        	bne	$55ba <csputdec+0x5e>
    55ac: a5 65        	lda	$65                     ; 0x2065 <lpstore+0xb>
    55ae: d0 0e        	bne	$55be <csputdec+0x62>
    55b0: a4 64        	ldy	$64                     ; 0x2064 <lpstore+0xa>
    55b2: c0 0a        	cpy	#$a
    55b4: 80 0c        	bra	$55c2 <csputdec+0x66>
    55b6: a4 67        	ldy	$67                     ; 0x2067 <lpstore+0xd>
    55b8: 80 06        	bra	$55c0 <csputdec+0x64>
    55ba: a4 66        	ldy	$66                     ; 0x2066 <lpstore+0xc>
    55bc: 80 02        	bra	$55c0 <csputdec+0x64>
    55be: a4 65        	ldy	$65                     ; 0x2065 <lpstore+0xb>
    55c0: c0 00        	cpy	#$0
    55c2: a5 07        	lda	$7                      ; 0x2007 <__heap_default_limit+0x1007>
    55c4: a4 04        	ldy	$4                      ; 0x2004 <__heap_default_limit+0x1004>
    55c6: 84 66        	sty	$66                     ; 0x2066 <lpstore+0xc>
    55c8: a4 05        	ldy	$5                      ; 0x2005 <__heap_default_limit+0x1005>
    55ca: 84 67        	sty	$67                     ; 0x2067 <lpstore+0xd>
    55cc: a4 61        	ldy	$61                     ; 0x2061 <lpstore+0x7>
    55ce: 90 03        	bcc	$55d3 <csputdec+0x77>
    55d0: 4c 78 55     	jmp	$5578 <csputdec+0x1c>
    55d3: 38           	sec
    55d4: a9 0a        	lda	#$a
    55d6: e5 60        	sbc	$60                     ; 0x2060 <lpstore+0x6>
    55d8: 85 05        	sta	$5                      ; 0x2005 <__heap_default_limit+0x1005>
    55da: a9 00        	lda	#$0
    55dc: e9 00        	sbc	#$0
    55de: 85 06        	sta	$6                      ; 0x2006 <__heap_default_limit+0x1006>
    55e0: 80 1d        	bra	$55ff <csputdec+0xa3>
    55e2: c9 00        	cmp	#$0
    55e4: a9 00        	lda	#$0
    55e6: b0 02        	bcs	$55ea <csputdec+0x8e>
    55e8: a9 01        	lda	#$1
    55ea: c0 00        	cpy	#$0
    55ec: f0 04        	beq	$55f2 <csputdec+0x96>
    55ee: 29 01        	and	#$1
    55f0: 80 02        	bra	$55f4 <csputdec+0x98>
    55f2: a9 00        	lda	#$0
    55f4: aa           	tax
    55f5: f0 13        	beq	$560a <csputdec+0xae>
    55f7: a9 20        	lda	#$20
    55f9: 99 69 00     	sta	$69,y                   ; 0x69 <__rc31+0x48>
    55fc: 88           	dey
    55fd: a5 06        	lda	$6                      ; 0x2006 <__heap_default_limit+0x1006>
    55ff: aa           	tax
    5600: d0 e0        	bne	$55e2 <csputdec+0x86>
    5602: 84 04        	sty	$4                      ; 0x2004 <__heap_default_limit+0x1004>
    5604: a6 05        	ldx	$5                      ; 0x2005 <__heap_default_limit+0x1005>
    5606: e4 04        	cpx	$4                      ; 0x2004 <__heap_default_limit+0x1004>
    5608: 80 da        	bra	$55e4 <csputdec+0x88>
    560a: a9 69        	lda	#$69
    560c: 18           	clc
    560d: 84 04        	sty	$4                      ; 0x2004 <__heap_default_limit+0x1004>
    560f: 65 04        	adc	$4                      ; 0x2004 <__heap_default_limit+0x1004>
    5611: 85 04        	sta	$4                      ; 0x2004 <__heap_default_limit+0x1004>
    5613: a9 00        	lda	#$0
    5615: 69 00        	adc	#$0
    5617: 85 05        	sta	$5                      ; 0x2005 <__heap_default_limit+0x1005>
    5619: e6 04        	inc	$4                      ; 0x2004 <__heap_default_limit+0x1004>
    561b: d0 02        	bne	$561f <csputdec+0xc3>
    561d: e6 05        	inc	$5                      ; 0x2005 <__heap_default_limit+0x1005>
    561f: 4c e2 67     	jmp	$67e2 <cputs>

00005622 <asciitoscreencode_s>:
    5622: a2 34        	ldx	#$34
    5624: 86 06        	stx	$6                      ; 0x2006 <__heap_default_limit+0x1006>
    5626: a2 03        	ldx	#$3
    5628: 86 07        	stx	$7                      ; 0x2007 <__heap_default_limit+0x1007>
    562a: b2 04        	lda	($4),z                  ; 0x2004 <__heap_default_limit+0x1004>
    562c: e6 04        	inc	$4                      ; 0x2004 <__heap_default_limit+0x1004>
    562e: d0 02        	bne	$5632 <asciitoscreencode_s+0x10>
    5630: e6 05        	inc	$5                      ; 0x2005 <__heap_default_limit+0x1005>
    5632: a0 20        	ldy	#$20
    5634: c9 a0        	cmp	#$a0
    5636: f0 11        	beq	$5649 <asciitoscreencode_s+0x27>
    5638: aa           	tax
    5639: e0 c0        	cpx	#$c0
    563b: 90 04        	bcc	$5641 <asciitoscreencode_s+0x1f>
    563d: 29 7f        	and	#$7f
    563f: 80 07        	bra	$5648 <asciitoscreencode_s+0x26>
    5641: c9 60        	cmp	#$60
    5643: 90 12        	bcc	$5657 <asciitoscreencode_s+0x35>
    5645: 18           	clc
    5646: 69 a0        	adc	#$a0
    5648: a8           	tay
    5649: 98           	tya
    564a: 92 06        	sta	($6),z                  ; 0x2006 <__heap_default_limit+0x1006>
    564c: e6 06        	inc	$6                      ; 0x2006 <__heap_default_limit+0x1006>
    564e: d0 02        	bne	$5652 <asciitoscreencode_s+0x30>
    5650: e6 07        	inc	$7                      ; 0x2007 <__heap_default_limit+0x1007>
    5652: 98           	tya
    5653: d0 d5        	bne	$562a <asciitoscreencode_s+0x8>
    5655: 80 0d        	bra	$5664 <asciitoscreencode_s+0x42>
    5657: a8           	tay
    5658: 18           	clc
    5659: 69 a5        	adc	#$a5
    565b: c9 05        	cmp	#$5
    565d: b0 ea        	bcs	$5649 <asciitoscreencode_s+0x27>
    565f: aa           	tax
    5660: b4 22        	ldy	$22,x                   ; 0x2022 <_start+0x1>
    5662: 80 e5        	bra	$5649 <asciitoscreencode_s+0x27>
    5664: ae 34 03     	ldx	$334                    ; 0x334 <__basic_zp_end+0x2a4>
    5667: f0 01        	beq	$566a <asciitoscreencode_s+0x48>
    5669: 60           	rts
    566a: a2 20        	ldx	#$20
    566c: 8e 34 03     	stx	$334                    ; 0x334 <__basic_zp_end+0x2a4>
    566f: 9c 35 03     	stz	$335                    ; 0x335 <__basic_zp_end+0x2a5>
    5672: 60           	rts

00005673 <clrhome>:
    5673: a6 30        	ldx	$30                     ; 0x2030 <__do_init_stack+0x1>
    5675: a5 31        	lda	$31                     ; 0x2031 <__do_init_stack+0x2>
    5677: 86 04        	stx	$4                      ; 0x2004 <__heap_default_limit+0x1004>
    5679: 64 05        	stz	$5                      ; 0x2005 <__heap_default_limit+0x1005>
    567b: a2 00        	ldx	#$0
    567d: 20 4e 6b     	jsr	$6b4e <__mulhi3>
    5680: a8           	tay
    5681: ad 54 d0     	lda	$d054                   ; 0xd054 <__heap_start+0x50be>
    5684: 29 01        	and	#$1
    5686: 85 04        	sta	$4                      ; 0x2004 <__heap_default_limit+0x1004>
    5688: 98           	tya
    5689: 20 3b 6b     	jsr	$6b3b <__ashlhi3>
    568c: 85 07        	sta	$7                      ; 0x2007 <__heap_default_limit+0x1007>
    568e: 85 48        	sta	$48                     ; 0x2048 <__after_main>
    5690: 86 08        	stx	$8                      ; 0x2008 <__heap_default_limit+0x1008>
    5692: 86 49        	stx	$49                     ; 0x2049 <__after_main+0x1>
    5694: ad 63 d0     	lda	$d063                   ; 0xd063 <__heap_start+0x50cd>
    5697: 29 07        	and	#$7
    5699: ae 62 d0     	ldx	$d062                   ; 0xd062 <__heap_start+0x50cc>
    569c: ac 61 d0     	ldy	$d061                   ; 0xd061 <__heap_start+0x50cb>
    569f: 84 09        	sty	$9                      ; 0x2009 <__heap_default_limit+0x1009>
    56a1: ac 60 d0     	ldy	$d060                   ; 0xd060 <__heap_start+0x50ca>
    56a4: 86 04        	stx	$4                      ; 0x2004 <__heap_default_limit+0x1004>
    56a6: 85 05        	sta	$5                      ; 0x2005 <__heap_default_limit+0x1005>
    56a8: a2 20        	ldx	#$20
    56aa: 86 06        	stx	$6                      ; 0x2006 <__heap_default_limit+0x1006>
    56ac: a6 09        	ldx	$9                      ; 0x2009 <__heap_default_limit+0x1009>
    56ae: 98           	tya
    56af: 20 05 6a     	jsr	$6a05 <lfill>
    56b2: a6 2b        	ldx	$2b                     ; 0x202b <_start+0xa>
    56b4: a0 f8        	ldy	#$f8
    56b6: a9 0f        	lda	#$f
    56b8: 84 04        	sty	$4                      ; 0x2004 <__heap_default_limit+0x1004>
    56ba: 85 05        	sta	$5                      ; 0x2005 <__heap_default_limit+0x1005>
    56bc: 86 06        	stx	$6                      ; 0x2006 <__heap_default_limit+0x1006>
    56be: a6 48        	ldx	$48                     ; 0x2048 <__after_main>
    56c0: 86 07        	stx	$7                      ; 0x2007 <__heap_default_limit+0x1007>
    56c2: a6 49        	ldx	$49                     ; 0x2049 <__after_main+0x1>
    56c4: 86 08        	stx	$8                      ; 0x2008 <__heap_default_limit+0x1008>
    56c6: a2 00        	ldx	#$0
    56c8: 8a           	txa
    56c9: 20 05 6a     	jsr	$6a05 <lfill>
    56cc: 64 32        	stz	$32                     ; 0x2032 <__do_init_stack+0x3>
    56ce: 64 33        	stz	$33                     ; 0x2033 <__do_init_stack+0x4>
    56d0: 60           	rts

000056d1 <msprintf>:
    56d1: 20 22 56     	jsr	$5622 <asciitoscreencode_s>
    56d4: a2 34        	ldx	#$34
    56d6: 86 04        	stx	$4                      ; 0x2004 <__heap_default_limit+0x1004>
    56d8: a2 03        	ldx	#$3
    56da: 86 05        	stx	$5                      ; 0x2005 <__heap_default_limit+0x1005>
    56dc: 4c e2 67     	jmp	$67e2 <cputs>

000056df <mcputsxy>:
    56df: 85 66        	sta	$66                     ; 0x2066 <lpstore+0xc>
    56e1: 86 67        	stx	$67                     ; 0x2067 <lpstore+0xd>
    56e3: 20 22 56     	jsr	$5622 <asciitoscreencode_s>
    56e6: a2 34        	ldx	#$34
    56e8: 86 04        	stx	$4                      ; 0x2004 <__heap_default_limit+0x1004>
    56ea: a2 03        	ldx	#$3
    56ec: 86 05        	stx	$5                      ; 0x2005 <__heap_default_limit+0x1005>
    56ee: a6 67        	ldx	$67                     ; 0x2067 <lpstore+0xd>
    56f0: a5 66        	lda	$66                     ; 0x2066 <lpstore+0xc>
    56f2: 4c e9 67     	jmp	$67e9 <cputsxy>

000056f5 <mcbox>:
    56f5: a8           	tay
    56f6: 86 68        	stx	$68                     ; 0x2068 <lpstore+0xe>
    56f8: a6 06        	ldx	$6                      ; 0x2006 <__heap_default_limit+0x1006>
    56fa: 86 6c        	stx	$6c                     ; 0x206c <lpstore+0x12>
    56fc: a6 04        	ldx	$4                      ; 0x2004 <__heap_default_limit+0x1004>
    56fe: 38           	sec
    56ff: 85 04        	sta	$4                      ; 0x2004 <__heap_default_limit+0x1004>
    5701: 8a           	txa
    5702: e5 04        	sbc	$4                      ; 0x2004 <__heap_default_limit+0x1004>
    5704: 85 66        	sta	$66                     ; 0x2066 <lpstore+0xc>
    5706: a9 f0        	lda	#$f0
    5708: 25 2b        	and	$2b                     ; 0x202b <_start+0xa>
    570a: 09 03        	ora	#$3
    570c: 85 2b        	sta	$2b                     ; 0x202b <_start+0xa>
    570e: 84 6d        	sty	$6d                     ; 0x206d <lpstore+0x13>
    5710: 84 6a        	sty	$6a                     ; 0x206a <lpstore+0x10>
    5712: a5 68        	lda	$68                     ; 0x2068 <lpstore+0xe>
    5714: 85 6e        	sta	$6e                     ; 0x206e <lpstore+0x14>
    5716: 86 6f        	stx	$6f                     ; 0x206f <lpstore+0x15>
    5718: 86 67        	stx	$67                     ; 0x2067 <lpstore+0xd>
    571a: a6 05        	ldx	$5                      ; 0x2005 <__heap_default_limit+0x1005>
    571c: 86 70        	stx	$70                     ; 0x2070 <lpstore+0x16>
    571e: 86 69        	stx	$69                     ; 0x2069 <lpstore+0xf>
    5720: a2 6d        	ldx	#$6d
    5722: a0 00        	ldy	#$0
    5724: 86 04        	stx	$4                      ; 0x2004 <__heap_default_limit+0x1004>
    5726: 84 05        	sty	$5                      ; 0x2005 <__heap_default_limit+0x1005>
    5728: 20 c4 68     	jsr	$68c4 <fillrect>
    572b: a2 70        	ldx	#$70
    572d: 86 04        	stx	$4                      ; 0x2004 <__heap_default_limit+0x1004>
    572f: a6 68        	ldx	$68                     ; 0x2068 <lpstore+0xe>
    5731: a5 6a        	lda	$6a                     ; 0x206a <lpstore+0x10>
    5733: 20 41 67     	jsr	$6741 <cputcxy>
    5736: a2 6d        	ldx	#$6d
    5738: 86 04        	stx	$4                      ; 0x2004 <__heap_default_limit+0x1004>
    573a: a6 69        	ldx	$69                     ; 0x2069 <lpstore+0xf>
    573c: a5 6a        	lda	$6a                     ; 0x206a <lpstore+0x10>
    573e: 20 41 67     	jsr	$6741 <cputcxy>
    5741: a2 6e        	ldx	#$6e
    5743: 86 04        	stx	$4                      ; 0x2004 <__heap_default_limit+0x1004>
    5745: a6 68        	ldx	$68                     ; 0x2068 <lpstore+0xe>
    5747: a5 67        	lda	$67                     ; 0x2067 <lpstore+0xd>
    5749: 20 41 67     	jsr	$6741 <cputcxy>
    574c: a2 7d        	ldx	#$7d
    574e: 86 04        	stx	$4                      ; 0x2004 <__heap_default_limit+0x1004>
    5750: a6 69        	ldx	$69                     ; 0x2069 <lpstore+0xf>
    5752: 86 6b        	stx	$6b                     ; 0x206b <lpstore+0x11>
    5754: a4 67        	ldy	$67                     ; 0x2067 <lpstore+0xd>
    5756: 84 69        	sty	$69                     ; 0x2069 <lpstore+0xf>
    5758: a5 67        	lda	$67                     ; 0x2067 <lpstore+0xd>
    575a: 20 41 67     	jsr	$6741 <cputcxy>
    575d: a5 66        	lda	$66                     ; 0x2066 <lpstore+0xc>
    575f: c9 02        	cmp	#$2
    5761: a6 66        	ldx	$66                     ; 0x2066 <lpstore+0xc>
    5763: 86 72        	stx	$72                     ; 0x2072 <lpstore+0x18>
    5765: b0 02        	bcs	$5769 <mcbox+0x74>
    5767: a9 01        	lda	#$1
    5769: a6 6a        	ldx	$6a                     ; 0x206a <lpstore+0x10>
    576b: 86 67        	stx	$67                     ; 0x2067 <lpstore+0xd>
    576d: 80 1c        	bra	$578b <mcbox+0x96>
    576f: e6 67        	inc	$67                     ; 0x2067 <lpstore+0xd>
    5771: a2 40        	ldx	#$40
    5773: 86 04        	stx	$4                      ; 0x2004 <__heap_default_limit+0x1004>
    5775: a6 68        	ldx	$68                     ; 0x2068 <lpstore+0xe>
    5777: 85 66        	sta	$66                     ; 0x2066 <lpstore+0xc>
    5779: a5 67        	lda	$67                     ; 0x2067 <lpstore+0xd>
    577b: 20 41 67     	jsr	$6741 <cputcxy>
    577e: a2 40        	ldx	#$40
    5780: 86 04        	stx	$4                      ; 0x2004 <__heap_default_limit+0x1004>
    5782: a6 6b        	ldx	$6b                     ; 0x206b <lpstore+0x11>
    5784: a5 67        	lda	$67                     ; 0x2067 <lpstore+0xd>
    5786: 20 41 67     	jsr	$6741 <cputcxy>
    5789: a5 66        	lda	$66                     ; 0x2066 <lpstore+0xc>
    578b: 3a           	dec
    578c: d0 e1        	bne	$576f <mcbox+0x7a>
    578e: a5 68        	lda	$68                     ; 0x2068 <lpstore+0xe>
    5790: 1a           	inc
    5791: a6 6b        	ldx	$6b                     ; 0x206b <lpstore+0x11>
    5793: 86 67        	stx	$67                     ; 0x2067 <lpstore+0xd>
    5795: 85 71        	sta	$71                     ; 0x2071 <lpstore+0x17>
    5797: 80 1a        	bra	$57b3 <mcbox+0xbe>
    5799: a2 5d        	ldx	#$5d
    579b: 86 04        	stx	$4                      ; 0x2004 <__heap_default_limit+0x1004>
    579d: 85 66        	sta	$66                     ; 0x2066 <lpstore+0xc>
    579f: aa           	tax
    57a0: a5 6a        	lda	$6a                     ; 0x206a <lpstore+0x10>
    57a2: 20 41 67     	jsr	$6741 <cputcxy>
    57a5: a2 5d        	ldx	#$5d
    57a7: 86 04        	stx	$4                      ; 0x2004 <__heap_default_limit+0x1004>
    57a9: a6 66        	ldx	$66                     ; 0x2066 <lpstore+0xc>
    57ab: a5 69        	lda	$69                     ; 0x2069 <lpstore+0xf>
    57ad: 20 41 67     	jsr	$6741 <cputcxy>
    57b0: a5 66        	lda	$66                     ; 0x2066 <lpstore+0xc>
    57b2: 1a           	inc
    57b3: c5 67        	cmp	$67                     ; 0x2067 <lpstore+0xd>
    57b5: 90 e2        	bcc	$5799 <mcbox+0xa4>
    57b7: a5 6c        	lda	$6c                     ; 0x206c <lpstore+0x12>
    57b9: d0 03        	bne	$57be <mcbox+0xc9>
    57bb: 4c 7f 58     	jmp	$587f <mcbox+0x18a>
    57be: a6 6b        	ldx	$6b                     ; 0x206b <lpstore+0x11>
    57c0: e4 31        	cpx	$31                     ; 0x2031 <__do_init_stack+0x2>
    57c2: 90 03        	bcc	$57c7 <mcbox+0xd2>
    57c4: 4c 7f 58     	jmp	$587f <mcbox+0x18a>
    57c7: a6 30        	ldx	$30                     ; 0x2030 <__do_init_stack+0x1>
    57c9: 86 04        	stx	$4                      ; 0x2004 <__heap_default_limit+0x1004>
    57cb: a6 69        	ldx	$69                     ; 0x2069 <lpstore+0xf>
    57cd: e4 04        	cpx	$4                      ; 0x2004 <__heap_default_limit+0x1004>
    57cf: 90 03        	bcc	$57d4 <mcbox+0xdf>
    57d1: 4c 7f 58     	jmp	$587f <mcbox+0x18a>
    57d4: 64 05        	stz	$5                      ; 0x2005 <__heap_default_limit+0x1005>
    57d6: a6 6b        	ldx	$6b                     ; 0x206b <lpstore+0x11>
    57d8: a0 00        	ldy	#$0
    57da: e8           	inx
    57db: d0 01        	bne	$57de <mcbox+0xe9>
    57dd: c8           	iny
    57de: 8a           	txa
    57df: 84 6b        	sty	$6b                     ; 0x206b <lpstore+0x11>
    57e1: a6 6b        	ldx	$6b                     ; 0x206b <lpstore+0x11>
    57e3: 85 68        	sta	$68                     ; 0x2068 <lpstore+0xe>
    57e5: 20 4e 6b     	jsr	$6b4e <__mulhi3>
    57e8: 85 04        	sta	$4                      ; 0x2004 <__heap_default_limit+0x1004>
    57ea: 86 05        	stx	$5                      ; 0x2005 <__heap_default_limit+0x1005>
    57ec: 64 08        	stz	$8                      ; 0x2008 <__heap_default_limit+0x1008>
    57ee: 18           	clc
    57ef: a5 6a        	lda	$6a                     ; 0x206a <lpstore+0x10>
    57f1: 65 04        	adc	$4                      ; 0x2004 <__heap_default_limit+0x1004>
    57f3: aa           	tax
    57f4: a9 00        	lda	#$0
    57f6: 65 05        	adc	$5                      ; 0x2005 <__heap_default_limit+0x1005>
    57f8: 85 04        	sta	$4                      ; 0x2004 <__heap_default_limit+0x1004>
    57fa: a9 00        	lda	#$0
    57fc: 69 00        	adc	#$0
    57fe: 85 05        	sta	$5                      ; 0x2005 <__heap_default_limit+0x1005>
    5800: a9 00        	lda	#$0
    5802: 69 00        	adc	#$0
    5804: 85 06        	sta	$6                      ; 0x2006 <__heap_default_limit+0x1006>
    5806: 18           	clc
    5807: 8a           	txa
    5808: 69 01        	adc	#$1
    580a: a8           	tay
    580b: a5 04        	lda	$4                      ; 0x2004 <__heap_default_limit+0x1004>
    580d: 69 00        	adc	#$0
    580f: 85 09        	sta	$9                      ; 0x2009 <__heap_default_limit+0x1009>
    5811: a5 05        	lda	$5                      ; 0x2005 <__heap_default_limit+0x1005>
    5813: 69 f8        	adc	#$f8
    5815: 85 04        	sta	$4                      ; 0x2004 <__heap_default_limit+0x1004>
    5817: a5 06        	lda	$6                      ; 0x2006 <__heap_default_limit+0x1006>
    5819: 69 0f        	adc	#$f
    581b: a2 0b        	ldx	#$b
    581d: 85 05        	sta	$5                      ; 0x2005 <__heap_default_limit+0x1005>
    581f: 86 06        	stx	$6                      ; 0x2006 <__heap_default_limit+0x1006>
    5821: a6 72        	ldx	$72                     ; 0x2072 <lpstore+0x18>
    5823: 86 07        	stx	$7                      ; 0x2007 <__heap_default_limit+0x1007>
    5825: a6 09        	ldx	$9                      ; 0x2009 <__heap_default_limit+0x1009>
    5827: 98           	tya
    5828: 20 05 6a     	jsr	$6a05 <lfill>
    582b: a6 69        	ldx	$69                     ; 0x2069 <lpstore+0xf>
    582d: 86 67        	stx	$67                     ; 0x2067 <lpstore+0xd>
    582f: e6 67        	inc	$67                     ; 0x2067 <lpstore+0xd>
    5831: a6 71        	ldx	$71                     ; 0x2071 <lpstore+0x17>
    5833: 86 66        	stx	$66                     ; 0x2066 <lpstore+0xc>
    5835: 64 69        	stz	$69                     ; 0x2069 <lpstore+0xf>
    5837: 4c 6f 58     	jmp	$586f <mcbox+0x17a>
    583a: c0 00        	cpy	#$0
    583c: b0 03        	bcs	$5841 <mcbox+0x14c>
    583e: 4c 7f 58     	jmp	$587f <mcbox+0x18a>
    5841: a5 30        	lda	$30                     ; 0x2030 <__do_init_stack+0x1>
    5843: a6 66        	ldx	$66                     ; 0x2066 <lpstore+0xc>
    5845: 86 04        	stx	$4                      ; 0x2004 <__heap_default_limit+0x1004>
    5847: 64 05        	stz	$5                      ; 0x2005 <__heap_default_limit+0x1005>
    5849: a2 00        	ldx	#$0
    584b: 20 4e 6b     	jsr	$6b4e <__mulhi3>
    584e: 18           	clc
    584f: 65 67        	adc	$67                     ; 0x2067 <lpstore+0xd>
    5851: a8           	tay
    5852: 8a           	txa
    5853: 65 69        	adc	$69                     ; 0x2069 <lpstore+0xf>
    5855: 85 07        	sta	$7                      ; 0x2007 <__heap_default_limit+0x1007>
    5857: a9 f8        	lda	#$f8
    5859: 69 00        	adc	#$0
    585b: 85 04        	sta	$4                      ; 0x2004 <__heap_default_limit+0x1004>
    585d: a9 0f        	lda	#$f
    585f: 69 00        	adc	#$0
    5861: 85 05        	sta	$5                      ; 0x2005 <__heap_default_limit+0x1005>
    5863: a2 0b        	ldx	#$b
    5865: 86 06        	stx	$6                      ; 0x2006 <__heap_default_limit+0x1006>
    5867: a6 07        	ldx	$7                      ; 0x2007 <__heap_default_limit+0x1007>
    5869: 98           	tya
    586a: 20 90 20     	jsr	$2090 <lpoke>
    586d: e6 66        	inc	$66                     ; 0x2066 <lpstore+0xc>
    586f: a4 6b        	ldy	$6b                     ; 0x206b <lpstore+0x11>
    5871: f0 03        	beq	$5876 <mcbox+0x181>
    5873: 4c 3a 58     	jmp	$583a <mcbox+0x145>
    5876: a6 68        	ldx	$68                     ; 0x2068 <lpstore+0xe>
    5878: e4 66        	cpx	$66                     ; 0x2066 <lpstore+0xc>
    587a: 90 03        	bcc	$587f <mcbox+0x18a>
    587c: 4c 41 58     	jmp	$5841 <mcbox+0x14c>
    587f: 60           	rts

00005880 <messagebox>:
    5880: 85 54        	sta	$54                     ; 0x2054 <_fini+0x9>
    5882: 86 55        	stx	$55                     ; 0x2055 <_fini+0xa>
    5884: a6 04        	ldx	$4                      ; 0x2004 <__heap_default_limit+0x1004>
    5886: 86 64        	stx	$64                     ; 0x2064 <lpstore+0xa>
    5888: a6 05        	ldx	$5                      ; 0x2005 <__heap_default_limit+0x1005>
    588a: 86 65        	stx	$65                     ; 0x2065 <lpstore+0xb>
    588c: a6 06        	ldx	$6                      ; 0x2006 <__heap_default_limit+0x1006>
    588e: 86 62        	stx	$62                     ; 0x2062 <lpstore+0x8>
    5890: a6 07        	ldx	$7                      ; 0x2007 <__heap_default_limit+0x1007>
    5892: 86 63        	stx	$63                     ; 0x2063 <lpstore+0x9>
    5894: a6 08        	ldx	$8                      ; 0x2008 <__heap_default_limit+0x1008>
    5896: 86 60        	stx	$60                     ; 0x2060 <lpstore+0x6>
    5898: a6 09        	ldx	$9                      ; 0x2009 <__heap_default_limit+0x1009>
    589a: 86 61        	stx	$61                     ; 0x2061 <lpstore+0x7>
    589c: a9 46        	lda	#$46
    589e: a2 0c        	ldx	#$c
    58a0: a0 01        	ldy	#$1
    58a2: 85 04        	sta	$4                      ; 0x2004 <__heap_default_limit+0x1004>
    58a4: 86 05        	stx	$5                      ; 0x2005 <__heap_default_limit+0x1005>
    58a6: 84 06        	sty	$6                      ; 0x2006 <__heap_default_limit+0x1006>
    58a8: a2 04        	ldx	#$4
    58aa: a9 0a        	lda	#$a
    58ac: 20 f5 56     	jsr	$56f5 <mcbox>
    58af: a9 20        	lda	#$20
    58b1: 05 2b        	ora	$2b                     ; 0x202b <_start+0xa>
    58b3: 85 2b        	sta	$2b                     ; 0x202b <_start+0xa>
    58b5: a9 0e        	lda	#$e
    58b7: a2 70        	ldx	#$70
    58b9: 86 04        	stx	$4                      ; 0x2004 <__heap_default_limit+0x1004>
    58bb: a2 71        	ldx	#$71
    58bd: 86 05        	stx	$5                      ; 0x2005 <__heap_default_limit+0x1005>
    58bf: a2 04        	ldx	#$4
    58c1: 20 df 56     	jsr	$56df <mcputsxy>
    58c4: a9 28        	lda	#$28
    58c6: a2 e2        	ldx	#$e2
    58c8: 86 04        	stx	$4                      ; 0x2004 <__heap_default_limit+0x1004>
    58ca: a2 74        	ldx	#$74
    58cc: 86 05        	stx	$5                      ; 0x2005 <__heap_default_limit+0x1005>
    58ce: a2 04        	ldx	#$4
    58d0: 20 df 56     	jsr	$56df <mcputsxy>
    58d3: a9 df        	lda	#$df
    58d5: 25 2b        	and	$2b                     ; 0x202b <_start+0xa>
    58d7: 85 2b        	sta	$2b                     ; 0x202b <_start+0xa>
    58d9: a2 06        	ldx	#$6
    58db: a4 64        	ldy	$64                     ; 0x2064 <lpstore+0xa>
    58dd: 84 04        	sty	$4                      ; 0x2004 <__heap_default_limit+0x1004>
    58df: a4 65        	ldy	$65                     ; 0x2065 <lpstore+0xb>
    58e1: 84 05        	sty	$5                      ; 0x2005 <__heap_default_limit+0x1005>
    58e3: a9 0c        	lda	#$c
    58e5: 20 df 56     	jsr	$56df <mcputsxy>
    58e8: a2 07        	ldx	#$7
    58ea: a4 62        	ldy	$62                     ; 0x2062 <lpstore+0x8>
    58ec: 84 04        	sty	$4                      ; 0x2004 <__heap_default_limit+0x1004>
    58ee: a4 63        	ldy	$63                     ; 0x2063 <lpstore+0x9>
    58f0: 84 05        	sty	$5                      ; 0x2005 <__heap_default_limit+0x1005>
    58f2: a9 0c        	lda	#$c
    58f4: 20 df 56     	jsr	$56df <mcputsxy>
    58f7: a2 08        	ldx	#$8
    58f9: a4 60        	ldy	$60                     ; 0x2060 <lpstore+0x6>
    58fb: 84 04        	sty	$4                      ; 0x2004 <__heap_default_limit+0x1004>
    58fd: a4 61        	ldy	$61                     ; 0x2061 <lpstore+0x7>
    58ff: 84 05        	sty	$5                      ; 0x2005 <__heap_default_limit+0x1005>
    5901: a9 0c        	lda	#$c
    5903: 20 df 56     	jsr	$56df <mcputsxy>
    5906: a6 54        	ldx	$54                     ; 0x2054 <_fini+0x9>
    5908: e0 03        	cpx	#$3
    590a: f0 03        	beq	$590f <messagebox+0x8f>
    590c: 4c 70 59     	jmp	$5970 <messagebox+0xf0>
    590f: a2 97        	ldx	#$97
    5911: 86 04        	stx	$4                      ; 0x2004 <__heap_default_limit+0x1004>
    5913: a2 76        	ldx	#$76
    5915: 86 05        	stx	$5                      ; 0x2005 <__heap_default_limit+0x1005>
    5917: 20 22 56     	jsr	$5622 <asciitoscreencode_s>
    591a: a2 34        	ldx	#$34
    591c: 86 04        	stx	$4                      ; 0x2004 <__heap_default_limit+0x1004>
    591e: a2 03        	ldx	#$3
    5920: 86 05        	stx	$5                      ; 0x2005 <__heap_default_limit+0x1005>
    5922: 20 e2 67     	jsr	$67e2 <cputs>
    5925: a2 24        	ldx	#$24
    5927: 86 56        	stx	$56                     ; 0x2056 <fourbytes>
    5929: a2 56        	ldx	#$56
    592b: a0 00        	ldy	#$0
    592d: 86 04        	stx	$4                      ; 0x2004 <__heap_default_limit+0x1004>
    592f: 84 05        	sty	$5                      ; 0x2005 <__heap_default_limit+0x1005>
    5931: e6 04        	inc	$4                      ; 0x2004 <__heap_default_limit+0x1004>
    5933: d0 02        	bne	$5937 <messagebox+0xb7>
    5935: e6 05        	inc	$5                      ; 0x2005 <__heap_default_limit+0x1005>
    5937: a9 30        	lda	#$30
    5939: a2 05        	ldx	#$5
    593b: 64 06        	stz	$6                      ; 0x2006 <__heap_default_limit+0x1006>
    593d: 20 b8 6f     	jsr	$6fb8 <__memset>
    5940: 18           	clc
    5941: a9 56        	lda	#$56
    5943: 69 06        	adc	#$6
    5945: 85 04        	sta	$4                      ; 0x2004 <__heap_default_limit+0x1004>
    5947: a9 00        	lda	#$0
    5949: 69 00        	adc	#$0
    594b: 85 05        	sta	$5                      ; 0x2005 <__heap_default_limit+0x1005>
    594d: a5 55        	lda	$55                     ; 0x2055 <_fini+0xa>
    594f: 4a           	lsr
    5950: 4a           	lsr
    5951: 4a           	lsr
    5952: 4a           	lsr
    5953: 29 0f        	and	#$f
    5955: aa           	tax
    5956: bd d4 7a     	lda	$7ad4,x                 ; 0x7ad4 <hexDigits>
    5959: aa           	tax
    595a: 86 5d        	stx	$5d                     ; 0x205d <lpstore+0x3>
    595c: a5 55        	lda	$55                     ; 0x2055 <_fini+0xa>
    595e: 29 0f        	and	#$f
    5960: aa           	tax
    5961: bd d4 7a     	lda	$7ad4,x                 ; 0x7ad4 <hexDigits>
    5964: aa           	tax
    5965: 86 5e        	stx	$5e                     ; 0x205e <lpstore+0x4>
    5967: 64 5f        	stz	$5f                     ; 0x205f <lpstore+0x5>
    5969: a2 24        	ldx	#$24
    596b: 86 5c        	stx	$5c                     ; 0x205c <lpstore+0x2>
    596d: 20 e2 67     	jsr	$67e2 <cputs>
    5970: a9 20        	lda	#$20
    5972: 05 2b        	ora	$2b                     ; 0x202b <_start+0xa>
    5974: 85 2b        	sta	$2b                     ; 0x202b <_start+0xa>
    5976: a9 0c        	lda	#$c
    5978: a2 88        	ldx	#$88
    597a: 86 04        	stx	$4                      ; 0x2004 <__heap_default_limit+0x1004>
    597c: a2 73        	ldx	#$73
    597e: 86 05        	stx	$5                      ; 0x2005 <__heap_default_limit+0x1005>
    5980: a2 0a        	ldx	#$a
    5982: 20 df 56     	jsr	$56df <mcputsxy>
    5985: a9 3c        	lda	#$3c
    5987: a2 16        	ldx	#$16
    5989: 86 04        	stx	$4                      ; 0x2004 <__heap_default_limit+0x1004>
    598b: a2 74        	ldx	#$74
    598d: 86 05        	stx	$5                      ; 0x2005 <__heap_default_limit+0x1005>
    598f: a2 0a        	ldx	#$a
    5991: 20 df 56     	jsr	$56df <mcputsxy>
    5994: a9 df        	lda	#$df
    5996: 25 2b        	and	$2b                     ; 0x202b <_start+0xa>
    5998: 85 2b        	sta	$2b                     ; 0x202b <_start+0xa>
    599a: a6 54        	ldx	$54                     ; 0x2054 <_fini+0x9>
    599c: e0 02        	cpx	#$2
    599e: f0 31        	beq	$59d1 <messagebox+0x151>
    59a0: e0 01        	cpx	#$1
    59a2: d0 1e        	bne	$59c2 <messagebox+0x142>
    59a4: a9 02        	lda	#$2
    59a6: a2 39        	ldx	#$39
    59a8: 86 04        	stx	$4                      ; 0x2004 <__heap_default_limit+0x1004>
    59aa: a2 73        	ldx	#$73
    59ac: 86 05        	stx	$5                      ; 0x2005 <__heap_default_limit+0x1005>
    59ae: a2 01        	ldx	#$1
    59b0: 20 df 56     	jsr	$56df <mcputsxy>
    59b3: a9 3a        	lda	#$3a
    59b5: a2 75        	ldx	#$75
    59b7: 86 04        	stx	$4                      ; 0x2004 <__heap_default_limit+0x1004>
    59b9: a2 74        	ldx	#$74
    59bb: 86 05        	stx	$5                      ; 0x2005 <__heap_default_limit+0x1005>
    59bd: a2 01        	ldx	#$1
    59bf: 20 df 56     	jsr	$56df <mcputsxy>
    59c2: 20 6e 69     	jsr	$696e <cgetc>
    59c5: c9 03        	cmp	#$3
    59c7: f0 0b        	beq	$59d4 <messagebox+0x154>
    59c9: c9 1b        	cmp	#$1b
    59cb: f0 07        	beq	$59d4 <messagebox+0x154>
    59cd: c9 0d        	cmp	#$d
    59cf: d0 f1        	bne	$59c2 <messagebox+0x142>
    59d1: a9 01        	lda	#$1
    59d3: 60           	rts
    59d4: a9 00        	lda	#$0
    59d6: 60           	rts

000059d7 <progress>:
    59d7: 85 4c        	sta	$4c                     ; 0x204c <_fini+0x1>
    59d9: a6 04        	ldx	$4                      ; 0x2004 <__heap_default_limit+0x1004>
    59db: 86 48        	stx	$48                     ; 0x2048 <__after_main>
    59dd: a6 05        	ldx	$5                      ; 0x2005 <__heap_default_limit+0x1005>
    59df: 86 49        	stx	$49                     ; 0x2049 <__after_main+0x1>
    59e1: a6 06        	ldx	$6                      ; 0x2006 <__heap_default_limit+0x1006>
    59e3: 86 4a        	stx	$4a                     ; 0x204a <__after_main+0x2>
    59e5: a6 07        	ldx	$7                      ; 0x2007 <__heap_default_limit+0x1007>
    59e7: 86 4b        	stx	$4b                     ; 0x204b <_fini>
    59e9: a2 80        	ldx	#$80
    59eb: 86 04        	stx	$4                      ; 0x2004 <__heap_default_limit+0x1004>
    59ed: a2 7a        	ldx	#$7a
    59ef: 86 05        	stx	$5                      ; 0x2005 <__heap_default_limit+0x1005>
    59f1: 20 c4 68     	jsr	$68c4 <fillrect>
    59f4: a2 06        	ldx	#$6
    59f6: a4 48        	ldy	$48                     ; 0x2048 <__after_main>
    59f8: 84 04        	sty	$4                      ; 0x2004 <__heap_default_limit+0x1004>
    59fa: a4 49        	ldy	$49                     ; 0x2049 <__after_main+0x1>
    59fc: 84 05        	sty	$5                      ; 0x2005 <__heap_default_limit+0x1005>
    59fe: a4 4c        	ldy	$4c                     ; 0x204c <_fini+0x1>
    5a00: 84 48        	sty	$48                     ; 0x2048 <__after_main>
    5a02: a9 0c        	lda	#$c
    5a04: 20 df 56     	jsr	$56df <mcputsxy>
    5a07: a2 07        	ldx	#$7
    5a09: a4 4a        	ldy	$4a                     ; 0x204a <__after_main+0x2>
    5a0b: 84 04        	sty	$4                      ; 0x2004 <__heap_default_limit+0x1004>
    5a0d: a4 4b        	ldy	$4b                     ; 0x204b <_fini>
    5a0f: 84 05        	sty	$5                      ; 0x2005 <__heap_default_limit+0x1005>
    5a11: a9 0c        	lda	#$c
    5a13: 20 df 56     	jsr	$56df <mcputsxy>
    5a16: a2 09        	ldx	#$9
    5a18: a0 a0        	ldy	#$a0
    5a1a: 84 04        	sty	$4                      ; 0x2004 <__heap_default_limit+0x1004>
    5a1c: a9 0c        	lda	#$c
    5a1e: 20 41 67     	jsr	$6741 <cputcxy>
    5a21: a5 48        	lda	$48                     ; 0x2048 <__after_main>
    5a23: 4a           	lsr
    5a24: 85 49        	sta	$49                     ; 0x2049 <__after_main+0x1>
    5a26: a2 00        	ldx	#$0
    5a28: 80 14        	bra	$5a3e <progress+0x67>
    5a2a: 86 4a        	stx	$4a                     ; 0x204a <__after_main+0x2>
    5a2c: a9 01        	lda	#$1
    5a2e: 29 01        	and	#$1
    5a30: a2 a0        	ldx	#$a0
    5a32: a8           	tay
    5a33: d0 02        	bne	$5a37 <progress+0x60>
    5a35: a2 7b        	ldx	#$7b
    5a37: 8a           	txa
    5a38: 20 38 67     	jsr	$6738 <cputc>
    5a3b: a6 4a        	ldx	$4a                     ; 0x204a <__after_main+0x2>
    5a3d: e8           	inx
    5a3e: e0 32        	cpx	#$32
    5a40: f0 0a        	beq	$5a4c <progress+0x75>
    5a42: e4 49        	cpx	$49                     ; 0x2049 <__after_main+0x1>
    5a44: 90 e4        	bcc	$5a2a <progress+0x53>
    5a46: 86 4a        	stx	$4a                     ; 0x204a <__after_main+0x2>
    5a48: a9 00        	lda	#$0
    5a4a: 80 e2        	bra	$5a2e <progress+0x57>
    5a4c: a9 65        	lda	#$65
    5a4e: 20 38 67     	jsr	$6738 <cputc>
    5a51: a2 fa        	ldx	#$fa
    5a53: 86 04        	stx	$4                      ; 0x2004 <__heap_default_limit+0x1004>
    5a55: a2 70        	ldx	#$70
    5a57: 86 05        	stx	$5                      ; 0x2005 <__heap_default_limit+0x1005>
    5a59: 20 22 56     	jsr	$5622 <asciitoscreencode_s>
    5a5c: a2 34        	ldx	#$34
    5a5e: 86 04        	stx	$4                      ; 0x2004 <__heap_default_limit+0x1004>
    5a60: a2 03        	ldx	#$3
    5a62: 86 05        	stx	$5                      ; 0x2005 <__heap_default_limit+0x1005>
    5a64: 20 e2 67     	jsr	$67e2 <cputs>
    5a67: 64 06        	stz	$6                      ; 0x2006 <__heap_default_limit+0x1006>
    5a69: 64 04        	stz	$4                      ; 0x2004 <__heap_default_limit+0x1004>
    5a6b: 64 05        	stz	$5                      ; 0x2005 <__heap_default_limit+0x1005>
    5a6d: a2 00        	ldx	#$0
    5a6f: a5 48        	lda	$48                     ; 0x2048 <__after_main>
    5a71: 20 5c 55     	jsr	$555c <csputdec>
    5a74: a9 25        	lda	#$25
    5a76: 20 38 67     	jsr	$6738 <cputc>
    5a79: a9 0c        	lda	#$c
    5a7b: a2 79        	ldx	#$79
    5a7d: 86 04        	stx	$4                      ; 0x2004 <__heap_default_limit+0x1004>
    5a7f: a2 77        	ldx	#$77
    5a81: 86 05        	stx	$5                      ; 0x2005 <__heap_default_limit+0x1005>
    5a83: a2 0a        	ldx	#$a
    5a85: 20 df 56     	jsr	$56df <mcputsxy>
    5a88: a9 3c        	lda	#$3c
    5a8a: a2 79        	ldx	#$79
    5a8c: 86 04        	stx	$4                      ; 0x2004 <__heap_default_limit+0x1004>
    5a8e: a2 77        	ldx	#$77
    5a90: 86 05        	stx	$5                      ; 0x2005 <__heap_default_limit+0x1005>
    5a92: a2 0a        	ldx	#$a
    5a94: 4c df 56     	jmp	$56df <mcputsxy>

00005a97 <shortcutprint>:
    5a97: 85 49        	sta	$49                     ; 0x2049 <__after_main+0x1>
    5a99: a6 06        	ldx	$6                      ; 0x2006 <__heap_default_limit+0x1006>
    5a9b: 86 4b        	stx	$4b                     ; 0x204b <_fini>
    5a9d: a6 07        	ldx	$7                      ; 0x2007 <__heap_default_limit+0x1007>
    5a9f: 86 4c        	stx	$4c                     ; 0x204c <_fini+0x1>
    5aa1: a6 2b        	ldx	$2b                     ; 0x202b <_start+0xa>
    5aa3: 86 4a        	stx	$4a                     ; 0x204a <__after_main+0x2>
    5aa5: a9 f0        	lda	#$f0
    5aa7: 25 2b        	and	$2b                     ; 0x202b <_start+0xa>
    5aa9: 09 01        	ora	#$1
    5aab: 85 2b        	sta	$2b                     ; 0x202b <_start+0xa>
    5aad: 20 d1 56     	jsr	$56d1 <msprintf>
    5ab0: a5 49        	lda	$49                     ; 0x2049 <__after_main+0x1>
    5ab2: f0 04        	beq	$5ab8 <shortcutprint+0x21>
    5ab4: a2 03        	ldx	#$3
    5ab6: 80 02        	bra	$5aba <shortcutprint+0x23>
    5ab8: a2 0c        	ldx	#$c
    5aba: 86 04        	stx	$4                      ; 0x2004 <__heap_default_limit+0x1004>
    5abc: a5 4a        	lda	$4a                     ; 0x204a <__after_main+0x2>
    5abe: 29 d0        	and	#$d0
    5ac0: 05 04        	ora	$4                      ; 0x2004 <__heap_default_limit+0x1004>
    5ac2: 85 49        	sta	$49                     ; 0x2049 <__after_main+0x1>
    5ac4: 09 20        	ora	#$20
    5ac6: 85 2b        	sta	$2b                     ; 0x202b <_start+0xa>
    5ac8: a6 4b        	ldx	$4b                     ; 0x204b <_fini>
    5aca: 86 04        	stx	$4                      ; 0x2004 <__heap_default_limit+0x1004>
    5acc: a6 4c        	ldx	$4c                     ; 0x204c <_fini+0x1>
    5ace: 86 05        	stx	$5                      ; 0x2005 <__heap_default_limit+0x1005>
    5ad0: 20 d1 56     	jsr	$56d1 <msprintf>
    5ad3: a6 49        	ldx	$49                     ; 0x2049 <__after_main+0x1>
    5ad5: 86 2b        	stx	$2b                     ; 0x202b <_start+0xa>
    5ad7: 60           	rts

00005ad8 <shortcuts>:
    5ad8: 64 32        	stz	$32                     ; 0x2032 <__do_init_stack+0x3>
    5ada: a0 18        	ldy	#$18
    5adc: 84 33        	sty	$33                     ; 0x2033 <__do_init_stack+0x4>
    5ade: a8           	tay
    5adf: 29 14        	and	#$14
    5ae1: d0 03        	bne	$5ae6 <shortcuts+0xe>
    5ae3: 4c b4 5b     	jmp	$5bb4 <shortcuts+0xdc>
    5ae6: a2 cf        	ldx	#$cf
    5ae8: 86 04        	stx	$4                      ; 0x2004 <__heap_default_limit+0x1004>
    5aea: a2 72        	ldx	#$72
    5aec: 86 05        	stx	$5                      ; 0x2005 <__heap_default_limit+0x1005>
    5aee: a2 1d        	ldx	#$1d
    5af0: 86 06        	stx	$6                      ; 0x2006 <__heap_default_limit+0x1006>
    5af2: a2 75        	ldx	#$75
    5af4: 86 07        	stx	$7                      ; 0x2007 <__heap_default_limit+0x1007>
    5af6: a9 00        	lda	#$0
    5af8: 20 97 5a     	jsr	$5a97 <shortcutprint>
    5afb: a2 80        	ldx	#$80
    5afd: 86 04        	stx	$4                      ; 0x2004 <__heap_default_limit+0x1004>
    5aff: a2 72        	ldx	#$72
    5b01: 86 05        	stx	$5                      ; 0x2005 <__heap_default_limit+0x1005>
    5b03: a2 62        	ldx	#$62
    5b05: 86 06        	stx	$6                      ; 0x2006 <__heap_default_limit+0x1006>
    5b07: a2 72        	ldx	#$72
    5b09: 86 07        	stx	$7                      ; 0x2007 <__heap_default_limit+0x1007>
    5b0b: a9 00        	lda	#$0
    5b0d: 20 97 5a     	jsr	$5a97 <shortcutprint>
    5b10: a2 24        	ldx	#$24
    5b12: 86 04        	stx	$4                      ; 0x2004 <__heap_default_limit+0x1004>
    5b14: a2 75        	ldx	#$75
    5b16: 86 05        	stx	$5                      ; 0x2005 <__heap_default_limit+0x1005>
    5b18: a2 d2        	ldx	#$d2
    5b1a: 86 06        	stx	$6                      ; 0x2006 <__heap_default_limit+0x1006>
    5b1c: a2 72        	ldx	#$72
    5b1e: 86 07        	stx	$7                      ; 0x2007 <__heap_default_limit+0x1007>
    5b20: a9 00        	lda	#$0
    5b22: 20 97 5a     	jsr	$5a97 <shortcutprint>
    5b25: a2 85        	ldx	#$85
    5b27: 86 04        	stx	$4                      ; 0x2004 <__heap_default_limit+0x1004>
    5b29: a2 73        	ldx	#$73
    5b2b: 86 05        	stx	$5                      ; 0x2005 <__heap_default_limit+0x1005>
    5b2d: a2 8a        	ldx	#$8a
    5b2f: 86 06        	stx	$6                      ; 0x2006 <__heap_default_limit+0x1006>
    5b31: a2 74        	ldx	#$74
    5b33: 86 07        	stx	$7                      ; 0x2007 <__heap_default_limit+0x1007>
    5b35: a9 00        	lda	#$0
    5b37: 20 97 5a     	jsr	$5a97 <shortcutprint>
    5b3a: a2 d9        	ldx	#$d9
    5b3c: 86 04        	stx	$4                      ; 0x2004 <__heap_default_limit+0x1004>
    5b3e: a2 70        	ldx	#$70
    5b40: 86 05        	stx	$5                      ; 0x2005 <__heap_default_limit+0x1005>
    5b42: a2 0d        	ldx	#$d
    5b44: 86 06        	stx	$6                      ; 0x2006 <__heap_default_limit+0x1006>
    5b46: a2 72        	ldx	#$72
    5b48: 86 07        	stx	$7                      ; 0x2007 <__heap_default_limit+0x1007>
    5b4a: a9 00        	lda	#$0
    5b4c: 20 97 5a     	jsr	$5a97 <shortcutprint>
    5b4f: a2 2f        	ldx	#$2f
    5b51: 86 04        	stx	$4                      ; 0x2004 <__heap_default_limit+0x1004>
    5b53: a2 73        	ldx	#$73
    5b55: 86 05        	stx	$5                      ; 0x2005 <__heap_default_limit+0x1005>
    5b57: a2 9a        	ldx	#$9a
    5b59: 86 06        	stx	$6                      ; 0x2006 <__heap_default_limit+0x1006>
    5b5b: a2 77        	ldx	#$77
    5b5d: 86 07        	stx	$7                      ; 0x2007 <__heap_default_limit+0x1007>
    5b5f: a9 00        	lda	#$0
    5b61: 20 97 5a     	jsr	$5a97 <shortcutprint>
    5b64: a2 82        	ldx	#$82
    5b66: 86 04        	stx	$4                      ; 0x2004 <__heap_default_limit+0x1004>
    5b68: a2 77        	ldx	#$77
    5b6a: 86 05        	stx	$5                      ; 0x2005 <__heap_default_limit+0x1005>
    5b6c: a2 3a        	ldx	#$3a
    5b6e: 86 06        	stx	$6                      ; 0x2006 <__heap_default_limit+0x1006>
    5b70: a2 71        	ldx	#$71
    5b72: 86 07        	stx	$7                      ; 0x2007 <__heap_default_limit+0x1007>
    5b74: a9 00        	lda	#$0
    5b76: 20 97 5a     	jsr	$5a97 <shortcutprint>
    5b79: a2 f3        	ldx	#$f3
    5b7b: 86 04        	stx	$4                      ; 0x2004 <__heap_default_limit+0x1004>
    5b7d: a2 78        	ldx	#$78
    5b7f: 86 05        	stx	$5                      ; 0x2005 <__heap_default_limit+0x1005>
    5b81: a2 0f        	ldx	#$f
    5b83: 86 06        	stx	$6                      ; 0x2006 <__heap_default_limit+0x1006>
    5b85: a2 77        	ldx	#$77
    5b87: 86 07        	stx	$7                      ; 0x2007 <__heap_default_limit+0x1007>
    5b89: a9 00        	lda	#$0
    5b8b: 20 97 5a     	jsr	$5a97 <shortcutprint>
    5b8e: a2 b5        	ldx	#$b5
    5b90: 86 04        	stx	$4                      ; 0x2004 <__heap_default_limit+0x1004>
    5b92: a2 75        	ldx	#$75
    5b94: 86 05        	stx	$5                      ; 0x2005 <__heap_default_limit+0x1005>
    5b96: a2 e8        	ldx	#$e8
    5b98: 86 06        	stx	$6                      ; 0x2006 <__heap_default_limit+0x1006>
    5b9a: a2 77        	ldx	#$77
    5b9c: 86 07        	stx	$7                      ; 0x2007 <__heap_default_limit+0x1007>
    5b9e: a9 00        	lda	#$0
    5ba0: 20 97 5a     	jsr	$5a97 <shortcutprint>
    5ba3: a2 dc        	ldx	#$dc
    5ba5: 86 04        	stx	$4                      ; 0x2004 <__heap_default_limit+0x1004>
    5ba7: a2 70        	ldx	#$70
    5ba9: 86 05        	stx	$5                      ; 0x2005 <__heap_default_limit+0x1005>
    5bab: a2 b8        	ldx	#$b8
    5bad: 86 06        	stx	$6                      ; 0x2006 <__heap_default_limit+0x1006>
    5baf: a2 75        	ldx	#$75
    5bb1: 4c 7e 5d     	jmp	$5d7e <shortcuts+0x2a6>
    5bb4: 98           	tya
    5bb5: 29 08        	and	#$8
    5bb7: f0 03        	beq	$5bbc <shortcuts+0xe4>
    5bb9: 4c 81 5c     	jmp	$5c81 <shortcuts+0x1a9>
    5bbc: 98           	tya
    5bbd: 29 03        	and	#$3
    5bbf: d0 03        	bne	$5bc4 <shortcuts+0xec>
    5bc1: 4c 8e 5d     	jmp	$5d8e <shortcuts+0x2b6>
    5bc4: a2 cf        	ldx	#$cf
    5bc6: 86 04        	stx	$4                      ; 0x2004 <__heap_default_limit+0x1004>
    5bc8: a2 72        	ldx	#$72
    5bca: 86 05        	stx	$5                      ; 0x2005 <__heap_default_limit+0x1005>
    5bcc: a2 62        	ldx	#$62
    5bce: 86 06        	stx	$6                      ; 0x2006 <__heap_default_limit+0x1006>
    5bd0: a2 72        	ldx	#$72
    5bd2: 86 07        	stx	$7                      ; 0x2007 <__heap_default_limit+0x1007>
    5bd4: a9 01        	lda	#$1
    5bd6: 20 97 5a     	jsr	$5a97 <shortcutprint>
    5bd9: a2 80        	ldx	#$80
    5bdb: 86 04        	stx	$4                      ; 0x2004 <__heap_default_limit+0x1004>
    5bdd: a2 72        	ldx	#$72
    5bdf: 86 05        	stx	$5                      ; 0x2005 <__heap_default_limit+0x1005>
    5be1: a2 65        	ldx	#$65
    5be3: 86 06        	stx	$6                      ; 0x2006 <__heap_default_limit+0x1006>
    5be5: a2 73        	ldx	#$73
    5be7: 86 07        	stx	$7                      ; 0x2007 <__heap_default_limit+0x1007>
    5be9: a9 00        	lda	#$0
    5beb: 20 97 5a     	jsr	$5a97 <shortcutprint>
    5bee: a2 24        	ldx	#$24
    5bf0: 86 04        	stx	$4                      ; 0x2004 <__heap_default_limit+0x1004>
    5bf2: a2 75        	ldx	#$75
    5bf4: 86 05        	stx	$5                      ; 0x2005 <__heap_default_limit+0x1005>
    5bf6: a2 8a        	ldx	#$8a
    5bf8: 86 06        	stx	$6                      ; 0x2006 <__heap_default_limit+0x1006>
    5bfa: a2 74        	ldx	#$74
    5bfc: 86 07        	stx	$7                      ; 0x2007 <__heap_default_limit+0x1007>
    5bfe: a9 00        	lda	#$0
    5c00: 20 97 5a     	jsr	$5a97 <shortcutprint>
    5c03: a2 85        	ldx	#$85
    5c05: 86 04        	stx	$4                      ; 0x2004 <__heap_default_limit+0x1004>
    5c07: a2 73        	ldx	#$73
    5c09: 86 05        	stx	$5                      ; 0x2005 <__heap_default_limit+0x1005>
    5c0b: a2 65        	ldx	#$65
    5c0d: 86 06        	stx	$6                      ; 0x2006 <__heap_default_limit+0x1006>
    5c0f: a2 73        	ldx	#$73
    5c11: 86 07        	stx	$7                      ; 0x2007 <__heap_default_limit+0x1007>
    5c13: a9 00        	lda	#$0
    5c15: 20 97 5a     	jsr	$5a97 <shortcutprint>
    5c18: a2 d9        	ldx	#$d9
    5c1a: 86 04        	stx	$4                      ; 0x2004 <__heap_default_limit+0x1004>
    5c1c: a2 70        	ldx	#$70
    5c1e: 86 05        	stx	$5                      ; 0x2005 <__heap_default_limit+0x1005>
    5c20: a2 9a        	ldx	#$9a
    5c22: 86 06        	stx	$6                      ; 0x2006 <__heap_default_limit+0x1006>
    5c24: a2 77        	ldx	#$77
    5c26: 86 07        	stx	$7                      ; 0x2007 <__heap_default_limit+0x1007>
    5c28: a9 00        	lda	#$0
    5c2a: 20 97 5a     	jsr	$5a97 <shortcutprint>
    5c2d: a2 2f        	ldx	#$2f
    5c2f: 86 04        	stx	$4                      ; 0x2004 <__heap_default_limit+0x1004>
    5c31: a2 73        	ldx	#$73
    5c33: 86 05        	stx	$5                      ; 0x2005 <__heap_default_limit+0x1005>
    5c35: a2 65        	ldx	#$65
    5c37: 86 06        	stx	$6                      ; 0x2006 <__heap_default_limit+0x1006>
    5c39: a2 73        	ldx	#$73
    5c3b: 86 07        	stx	$7                      ; 0x2007 <__heap_default_limit+0x1007>
    5c3d: a9 00        	lda	#$0
    5c3f: 20 97 5a     	jsr	$5a97 <shortcutprint>
    5c42: a2 82        	ldx	#$82
    5c44: 86 04        	stx	$4                      ; 0x2004 <__heap_default_limit+0x1004>
    5c46: a2 77        	ldx	#$77
    5c48: 86 05        	stx	$5                      ; 0x2005 <__heap_default_limit+0x1005>
    5c4a: a2 0f        	ldx	#$f
    5c4c: 86 06        	stx	$6                      ; 0x2006 <__heap_default_limit+0x1006>
    5c4e: a2 77        	ldx	#$77
    5c50: 86 07        	stx	$7                      ; 0x2007 <__heap_default_limit+0x1007>
    5c52: a9 01        	lda	#$1
    5c54: 20 97 5a     	jsr	$5a97 <shortcutprint>
    5c57: a2 f3        	ldx	#$f3
    5c59: 86 04        	stx	$4                      ; 0x2004 <__heap_default_limit+0x1004>
    5c5b: a2 78        	ldx	#$78
    5c5d: 86 05        	stx	$5                      ; 0x2005 <__heap_default_limit+0x1005>
    5c5f: a2 65        	ldx	#$65
    5c61: 86 06        	stx	$6                      ; 0x2006 <__heap_default_limit+0x1006>
    5c63: a2 73        	ldx	#$73
    5c65: 86 07        	stx	$7                      ; 0x2007 <__heap_default_limit+0x1007>
    5c67: a9 00        	lda	#$0
    5c69: 20 97 5a     	jsr	$5a97 <shortcutprint>
    5c6c: a2 b5        	ldx	#$b5
    5c6e: 86 04        	stx	$4                      ; 0x2004 <__heap_default_limit+0x1004>
    5c70: a2 75        	ldx	#$75
    5c72: 86 05        	stx	$5                      ; 0x2005 <__heap_default_limit+0x1005>
    5c74: a2 fd        	ldx	#$fd
    5c76: 86 06        	stx	$6                      ; 0x2006 <__heap_default_limit+0x1006>
    5c78: a2 78        	ldx	#$78
    5c7a: 86 07        	stx	$7                      ; 0x2007 <__heap_default_limit+0x1007>
    5c7c: a9 01        	lda	#$1
    5c7e: 4c 6d 5d     	jmp	$5d6d <shortcuts+0x295>
    5c81: a9 01        	lda	#$1
    5c83: 86 48        	stx	$48                     ; 0x2048 <__after_main>
    5c85: a2 cf        	ldx	#$cf
    5c87: 86 04        	stx	$4                      ; 0x2004 <__heap_default_limit+0x1004>
    5c89: a2 72        	ldx	#$72
    5c8b: 86 05        	stx	$5                      ; 0x2005 <__heap_default_limit+0x1005>
    5c8d: a2 d5        	ldx	#$d5
    5c8f: 86 06        	stx	$6                      ; 0x2006 <__heap_default_limit+0x1006>
    5c91: a2 74        	ldx	#$74
    5c93: 86 07        	stx	$7                      ; 0x2007 <__heap_default_limit+0x1007>
    5c95: 20 97 5a     	jsr	$5a97 <shortcutprint>
    5c98: a2 80        	ldx	#$80
    5c9a: 86 04        	stx	$4                      ; 0x2004 <__heap_default_limit+0x1004>
    5c9c: a2 72        	ldx	#$72
    5c9e: 86 05        	stx	$5                      ; 0x2005 <__heap_default_limit+0x1005>
    5ca0: a2 65        	ldx	#$65
    5ca2: 86 06        	stx	$6                      ; 0x2006 <__heap_default_limit+0x1006>
    5ca4: a2 73        	ldx	#$73
    5ca6: 86 07        	stx	$7                      ; 0x2007 <__heap_default_limit+0x1007>
    5ca8: a9 00        	lda	#$0
    5caa: 20 97 5a     	jsr	$5a97 <shortcutprint>
    5cad: a2 24        	ldx	#$24
    5caf: 86 04        	stx	$4                      ; 0x2004 <__heap_default_limit+0x1004>
    5cb1: a2 75        	ldx	#$75
    5cb3: 86 05        	stx	$5                      ; 0x2005 <__heap_default_limit+0x1005>
    5cb5: a2 be        	ldx	#$be
    5cb7: 86 06        	stx	$6                      ; 0x2006 <__heap_default_limit+0x1006>
    5cb9: a2 75        	ldx	#$75
    5cbb: 86 07        	stx	$7                      ; 0x2007 <__heap_default_limit+0x1007>
    5cbd: a9 01        	lda	#$1
    5cbf: 20 97 5a     	jsr	$5a97 <shortcutprint>
    5cc2: a2 85        	ldx	#$85
    5cc4: 86 04        	stx	$4                      ; 0x2004 <__heap_default_limit+0x1004>
    5cc6: a2 73        	ldx	#$73
    5cc8: 86 05        	stx	$5                      ; 0x2005 <__heap_default_limit+0x1005>
    5cca: a2 65        	ldx	#$65
    5ccc: 86 06        	stx	$6                      ; 0x2006 <__heap_default_limit+0x1006>
    5cce: a2 73        	ldx	#$73
    5cd0: 86 07        	stx	$7                      ; 0x2007 <__heap_default_limit+0x1007>
    5cd2: a9 00        	lda	#$0
    5cd4: 20 97 5a     	jsr	$5a97 <shortcutprint>
    5cd7: a6 48        	ldx	$48                     ; 0x2048 <__after_main>
    5cd9: 86 04        	stx	$4                      ; 0x2004 <__heap_default_limit+0x1004>
    5cdb: 06 04        	asl	$4                      ; 0x2004 <__heap_default_limit+0x1004>
    5cdd: 64 05        	stz	$5                      ; 0x2005 <__heap_default_limit+0x1005>
    5cdf: 26 05        	rol	$5                      ; 0x2005 <__heap_default_limit+0x1005>
    5ce1: a9 27        	lda	#$27
    5ce3: 18           	clc
    5ce4: 65 04        	adc	$4                      ; 0x2004 <__heap_default_limit+0x1004>
    5ce6: 85 04        	sta	$4                      ; 0x2004 <__heap_default_limit+0x1004>
    5ce8: a9 00        	lda	#$0
    5cea: 65 05        	adc	$5                      ; 0x2005 <__heap_default_limit+0x1005>
    5cec: 85 05        	sta	$5                      ; 0x2005 <__heap_default_limit+0x1005>
    5cee: b2 04        	lda	($4),z                  ; 0x2004 <__heap_default_limit+0x1004>
    5cf0: aa           	tax
    5cf1: a0 01        	ldy	#$1
    5cf3: b1 04        	lda	($4),y                  ; 0x2004 <__heap_default_limit+0x1004>
    5cf5: 86 04        	stx	$4                      ; 0x2004 <__heap_default_limit+0x1004>
    5cf7: 85 05        	sta	$5                      ; 0x2005 <__heap_default_limit+0x1005>
    5cf9: a0 47        	ldy	#$47
    5cfb: b1 04        	lda	($4),y                  ; 0x2004 <__heap_default_limit+0x1004>
    5cfd: 85 04        	sta	$4                      ; 0x2004 <__heap_default_limit+0x1004>
    5cff: a9 01        	lda	#$1
    5d01: a6 04        	ldx	$4                      ; 0x2004 <__heap_default_limit+0x1004>
    5d03: e0 28        	cpx	#$28
    5d05: f0 02        	beq	$5d09 <shortcuts+0x231>
    5d07: a9 00        	lda	#$0
    5d09: a2 d9        	ldx	#$d9
    5d0b: 86 04        	stx	$4                      ; 0x2004 <__heap_default_limit+0x1004>
    5d0d: a2 70        	ldx	#$70
    5d0f: 86 05        	stx	$5                      ; 0x2005 <__heap_default_limit+0x1005>
    5d11: a2 32        	ldx	#$32
    5d13: 86 06        	stx	$6                      ; 0x2006 <__heap_default_limit+0x1006>
    5d15: a2 73        	ldx	#$73
    5d17: 86 07        	stx	$7                      ; 0x2007 <__heap_default_limit+0x1007>
    5d19: 20 97 5a     	jsr	$5a97 <shortcutprint>
    5d1c: a2 2f        	ldx	#$2f
    5d1e: 86 04        	stx	$4                      ; 0x2004 <__heap_default_limit+0x1004>
    5d20: a2 73        	ldx	#$73
    5d22: 86 05        	stx	$5                      ; 0x2005 <__heap_default_limit+0x1005>
    5d24: a2 65        	ldx	#$65
    5d26: 86 06        	stx	$6                      ; 0x2006 <__heap_default_limit+0x1006>
    5d28: a2 73        	ldx	#$73
    5d2a: 86 07        	stx	$7                      ; 0x2007 <__heap_default_limit+0x1007>
    5d2c: a9 00        	lda	#$0
    5d2e: 20 97 5a     	jsr	$5a97 <shortcutprint>
    5d31: a9 01        	lda	#$1
    5d33: a2 82        	ldx	#$82
    5d35: 86 04        	stx	$4                      ; 0x2004 <__heap_default_limit+0x1004>
    5d37: a2 77        	ldx	#$77
    5d39: 86 05        	stx	$5                      ; 0x2005 <__heap_default_limit+0x1005>
    5d3b: a2 51        	ldx	#$51
    5d3d: 86 06        	stx	$6                      ; 0x2006 <__heap_default_limit+0x1006>
    5d3f: a2 79        	ldx	#$79
    5d41: 86 07        	stx	$7                      ; 0x2007 <__heap_default_limit+0x1007>
    5d43: 20 97 5a     	jsr	$5a97 <shortcutprint>
    5d46: a2 f3        	ldx	#$f3
    5d48: 86 04        	stx	$4                      ; 0x2004 <__heap_default_limit+0x1004>
    5d4a: a2 78        	ldx	#$78
    5d4c: 86 05        	stx	$5                      ; 0x2005 <__heap_default_limit+0x1005>
    5d4e: a2 f6        	ldx	#$f6
    5d50: 86 06        	stx	$6                      ; 0x2006 <__heap_default_limit+0x1006>
    5d52: a2 78        	ldx	#$78
    5d54: 86 07        	stx	$7                      ; 0x2007 <__heap_default_limit+0x1007>
    5d56: a9 00        	lda	#$0
    5d58: 20 97 5a     	jsr	$5a97 <shortcutprint>
    5d5b: a2 b5        	ldx	#$b5
    5d5d: 86 04        	stx	$4                      ; 0x2004 <__heap_default_limit+0x1004>
    5d5f: a2 75        	ldx	#$75
    5d61: 86 05        	stx	$5                      ; 0x2005 <__heap_default_limit+0x1005>
    5d63: a2 65        	ldx	#$65
    5d65: 86 06        	stx	$6                      ; 0x2006 <__heap_default_limit+0x1006>
    5d67: a2 73        	ldx	#$73
    5d69: 86 07        	stx	$7                      ; 0x2007 <__heap_default_limit+0x1007>
    5d6b: a9 00        	lda	#$0
    5d6d: 20 97 5a     	jsr	$5a97 <shortcutprint>
    5d70: a2 dc        	ldx	#$dc
    5d72: 86 04        	stx	$4                      ; 0x2004 <__heap_default_limit+0x1004>
    5d74: a2 70        	ldx	#$70
    5d76: 86 05        	stx	$5                      ; 0x2005 <__heap_default_limit+0x1005>
    5d78: a2 dc        	ldx	#$dc
    5d7a: 86 06        	stx	$6                      ; 0x2006 <__heap_default_limit+0x1006>
    5d7c: a2 74        	ldx	#$74
    5d7e: 86 07        	stx	$7                      ; 0x2007 <__heap_default_limit+0x1007>
    5d80: a9 00        	lda	#$0
    5d82: 20 97 5a     	jsr	$5a97 <shortcutprint>
    5d85: a9 f0        	lda	#$f0
    5d87: 25 2b        	and	$2b                     ; 0x202b <_start+0xa>
    5d89: 09 03        	ora	#$3
    5d8b: 85 2b        	sta	$2b                     ; 0x202b <_start+0xa>
    5d8d: 60           	rts
    5d8e: a2 cf        	ldx	#$cf
    5d90: 86 04        	stx	$4                      ; 0x2004 <__heap_default_limit+0x1004>
    5d92: a2 72        	ldx	#$72
    5d94: 86 05        	stx	$5                      ; 0x2005 <__heap_default_limit+0x1005>
    5d96: a2 1d        	ldx	#$1d
    5d98: 86 06        	stx	$6                      ; 0x2006 <__heap_default_limit+0x1006>
    5d9a: a2 75        	ldx	#$75
    5d9c: 86 07        	stx	$7                      ; 0x2007 <__heap_default_limit+0x1007>
    5d9e: a9 01        	lda	#$1
    5da0: 20 97 5a     	jsr	$5a97 <shortcutprint>
    5da3: a2 80        	ldx	#$80
    5da5: 86 04        	stx	$4                      ; 0x2004 <__heap_default_limit+0x1004>
    5da7: a2 72        	ldx	#$72
    5da9: 86 05        	stx	$5                      ; 0x2005 <__heap_default_limit+0x1005>
    5dab: a2 62        	ldx	#$62
    5dad: 86 06        	stx	$6                      ; 0x2006 <__heap_default_limit+0x1006>
    5daf: a2 72        	ldx	#$72
    5db1: 86 07        	stx	$7                      ; 0x2007 <__heap_default_limit+0x1007>
    5db3: a9 01        	lda	#$1
    5db5: 20 97 5a     	jsr	$5a97 <shortcutprint>
    5db8: a2 24        	ldx	#$24
    5dba: 86 04        	stx	$4                      ; 0x2004 <__heap_default_limit+0x1004>
    5dbc: a2 75        	ldx	#$75
    5dbe: 86 05        	stx	$5                      ; 0x2005 <__heap_default_limit+0x1005>
    5dc0: a2 d2        	ldx	#$d2
    5dc2: 86 06        	stx	$6                      ; 0x2006 <__heap_default_limit+0x1006>
    5dc4: a2 72        	ldx	#$72
    5dc6: 86 07        	stx	$7                      ; 0x2007 <__heap_default_limit+0x1007>
    5dc8: a9 00        	lda	#$0
    5dca: 20 97 5a     	jsr	$5a97 <shortcutprint>
    5dcd: a2 85        	ldx	#$85
    5dcf: 86 04        	stx	$4                      ; 0x2004 <__heap_default_limit+0x1004>
    5dd1: a2 73        	ldx	#$73
    5dd3: 86 05        	stx	$5                      ; 0x2005 <__heap_default_limit+0x1005>
    5dd5: a2 8a        	ldx	#$8a
    5dd7: 86 06        	stx	$6                      ; 0x2006 <__heap_default_limit+0x1006>
    5dd9: a2 74        	ldx	#$74
    5ddb: 86 07        	stx	$7                      ; 0x2007 <__heap_default_limit+0x1007>
    5ddd: a9 00        	lda	#$0
    5ddf: 20 97 5a     	jsr	$5a97 <shortcutprint>
    5de2: a2 d9        	ldx	#$d9
    5de4: 86 04        	stx	$4                      ; 0x2004 <__heap_default_limit+0x1004>
    5de6: a2 70        	ldx	#$70
    5de8: 86 05        	stx	$5                      ; 0x2005 <__heap_default_limit+0x1005>
    5dea: a2 0d        	ldx	#$d
    5dec: 86 06        	stx	$6                      ; 0x2006 <__heap_default_limit+0x1006>
    5dee: a2 72        	ldx	#$72
    5df0: 86 07        	stx	$7                      ; 0x2007 <__heap_default_limit+0x1007>
    5df2: a9 01        	lda	#$1
    5df4: 20 97 5a     	jsr	$5a97 <shortcutprint>
    5df7: a2 2f        	ldx	#$2f
    5df9: 86 04        	stx	$4                      ; 0x2004 <__heap_default_limit+0x1004>
    5dfb: a2 73        	ldx	#$73
    5dfd: 86 05        	stx	$5                      ; 0x2005 <__heap_default_limit+0x1005>
    5dff: a2 9a        	ldx	#$9a
    5e01: 86 06        	stx	$6                      ; 0x2006 <__heap_default_limit+0x1006>
    5e03: a2 77        	ldx	#$77
    5e05: 86 07        	stx	$7                      ; 0x2007 <__heap_default_limit+0x1007>
    5e07: a9 00        	lda	#$0
    5e09: 20 97 5a     	jsr	$5a97 <shortcutprint>
    5e0c: a2 82        	ldx	#$82
    5e0e: 86 04        	stx	$4                      ; 0x2004 <__heap_default_limit+0x1004>
    5e10: a2 77        	ldx	#$77
    5e12: 86 05        	stx	$5                      ; 0x2005 <__heap_default_limit+0x1005>
    5e14: a2 3a        	ldx	#$3a
    5e16: 86 06        	stx	$6                      ; 0x2006 <__heap_default_limit+0x1006>
    5e18: a2 71        	ldx	#$71
    5e1a: 86 07        	stx	$7                      ; 0x2007 <__heap_default_limit+0x1007>
    5e1c: a9 00        	lda	#$0
    5e1e: 20 97 5a     	jsr	$5a97 <shortcutprint>
    5e21: a2 f3        	ldx	#$f3
    5e23: 86 04        	stx	$4                      ; 0x2004 <__heap_default_limit+0x1004>
    5e25: a2 78        	ldx	#$78
    5e27: 86 05        	stx	$5                      ; 0x2005 <__heap_default_limit+0x1005>
    5e29: a2 0f        	ldx	#$f
    5e2b: 86 06        	stx	$6                      ; 0x2006 <__heap_default_limit+0x1006>
    5e2d: a2 77        	ldx	#$77
    5e2f: 86 07        	stx	$7                      ; 0x2007 <__heap_default_limit+0x1007>
    5e31: a9 01        	lda	#$1
    5e33: 20 97 5a     	jsr	$5a97 <shortcutprint>
    5e36: a2 b5        	ldx	#$b5
    5e38: 86 04        	stx	$4                      ; 0x2004 <__heap_default_limit+0x1004>
    5e3a: a2 75        	ldx	#$75
    5e3c: 86 05        	stx	$5                      ; 0x2005 <__heap_default_limit+0x1005>
    5e3e: a2 e8        	ldx	#$e8
    5e40: 86 06        	stx	$6                      ; 0x2006 <__heap_default_limit+0x1006>
    5e42: a2 77        	ldx	#$77
    5e44: 86 07        	stx	$7                      ; 0x2007 <__heap_default_limit+0x1007>
    5e46: a9 01        	lda	#$1
    5e48: 20 97 5a     	jsr	$5a97 <shortcutprint>
    5e4b: a2 dc        	ldx	#$dc
    5e4d: 86 04        	stx	$4                      ; 0x2004 <__heap_default_limit+0x1004>
    5e4f: a2 70        	ldx	#$70
    5e51: 86 05        	stx	$5                      ; 0x2005 <__heap_default_limit+0x1005>
    5e53: a2 b8        	ldx	#$b8
    5e55: 86 06        	stx	$6                      ; 0x2006 <__heap_default_limit+0x1006>
    5e57: a2 75        	ldx	#$75
    5e59: 86 07        	stx	$7                      ; 0x2007 <__heap_default_limit+0x1007>
    5e5b: a9 01        	lda	#$1
    5e5d: 4c 82 5d     	jmp	$5d82 <shortcuts+0x2aa>

00005e60 <optionstring>:
    5e60: 86 08        	stx	$8                      ; 0x2008 <__heap_default_limit+0x1008>
    5e62: a6 06        	ldx	$6                      ; 0x2006 <__heap_default_limit+0x1006>
    5e64: 25 08        	and	$8                      ; 0x2008 <__heap_default_limit+0x1008>
    5e66: f0 04        	beq	$5e6c <optionstring+0xc>
    5e68: a0 2a        	ldy	#$2a
    5e6a: 80 02        	bra	$5e6e <optionstring+0xe>
    5e6c: a0 6f        	ldy	#$6f
    5e6e: 8c 06 7b     	sty	$7b06                   ; 0x7b06 <s>
    5e71: a0 20        	ldy	#$20
    5e73: 8c 07 7b     	sty	$7b07                   ; 0x7b07 <s+0x1>
    5e76: a9 3e        	lda	#$3e
    5e78: e4 07        	cpx	$7                      ; 0x2007 <__heap_default_limit+0x1007>
    5e7a: f0 02        	beq	$5e7e <optionstring+0x1e>
    5e7c: a9 20        	lda	#$20
    5e7e: 8d 08 7b     	sta	$7b08                   ; 0x7b08 <s+0x2>
    5e81: 8c 09 7b     	sty	$7b09                   ; 0x7b09 <s+0x3>
    5e84: a0 00        	ldy	#$0
    5e86: 80 04        	bra	$5e8c <optionstring+0x2c>
    5e88: 99 0a 7b     	sta	$7b0a,y                 ; 0x7b0a <s+0x4>
    5e8b: c8           	iny
    5e8c: b1 04        	lda	($4),y                  ; 0x2004 <__heap_default_limit+0x1004>
    5e8e: f0 04        	beq	$5e94 <optionstring+0x34>
    5e90: c0 28        	cpy	#$28
    5e92: 90 f4        	bcc	$5e88 <optionstring+0x28>
    5e94: 38           	sec
    5e95: a9 10        	lda	#$10
    5e97: 84 04        	sty	$4                      ; 0x2004 <__heap_default_limit+0x1004>
    5e99: e5 04        	sbc	$4                      ; 0x2004 <__heap_default_limit+0x1004>
    5e9b: 90 04        	bcc	$5ea1 <optionstring+0x41>
    5e9d: 85 05        	sta	$5                      ; 0x2005 <__heap_default_limit+0x1005>
    5e9f: 80 02        	bra	$5ea3 <optionstring+0x43>
    5ea1: 64 05        	stz	$5                      ; 0x2005 <__heap_default_limit+0x1005>
    5ea3: 64 04        	stz	$4                      ; 0x2004 <__heap_default_limit+0x1004>
    5ea5: 80 13        	bra	$5eba <optionstring+0x5a>
    5ea7: a9 0a        	lda	#$a
    5ea9: 18           	clc
    5eaa: 65 04        	adc	$4                      ; 0x2004 <__heap_default_limit+0x1004>
    5eac: 85 08        	sta	$8                      ; 0x2008 <__heap_default_limit+0x1008>
    5eae: a9 7b        	lda	#$7b
    5eb0: 69 00        	adc	#$0
    5eb2: 85 09        	sta	$9                      ; 0x2009 <__heap_default_limit+0x1009>
    5eb4: a9 20        	lda	#$20
    5eb6: 91 08        	sta	($8),y                  ; 0x2008 <__heap_default_limit+0x1008>
    5eb8: e6 04        	inc	$4                      ; 0x2004 <__heap_default_limit+0x1004>
    5eba: a5 05        	lda	$5                      ; 0x2005 <__heap_default_limit+0x1005>
    5ebc: c5 04        	cmp	$4                      ; 0x2004 <__heap_default_limit+0x1004>
    5ebe: d0 e7        	bne	$5ea7 <optionstring+0x47>
    5ec0: c0 11        	cpy	#$11
    5ec2: b0 02        	bcs	$5ec6 <optionstring+0x66>
    5ec4: a0 10        	ldy	#$10
    5ec6: 84 04        	sty	$4                      ; 0x2004 <__heap_default_limit+0x1004>
    5ec8: 98           	tya
    5ec9: 18           	clc
    5eca: 69 04        	adc	#$4
    5ecc: a8           	tay
    5ecd: a9 20        	lda	#$20
    5ecf: 99 06 7b     	sta	$7b06,y                 ; 0x7b06 <s>
    5ed2: 18           	clc
    5ed3: a5 04        	lda	$4                      ; 0x2004 <__heap_default_limit+0x1004>
    5ed5: 69 05        	adc	#$5
    5ed7: a8           	tay
    5ed8: a9 3c        	lda	#$3c
    5eda: e4 07        	cpx	$7                      ; 0x2007 <__heap_default_limit+0x1007>
    5edc: f0 02        	beq	$5ee0 <optionstring+0x80>
    5ede: a9 20        	lda	#$20
    5ee0: 99 06 7b     	sta	$7b06,y                 ; 0x7b06 <s>
    5ee3: 18           	clc
    5ee4: a5 04        	lda	$4                      ; 0x2004 <__heap_default_limit+0x1004>
    5ee6: 69 06        	adc	#$6
    5ee8: aa           	tax
    5ee9: 9e 06 7b     	stz	$7b06,x                 ; 0x7b06 <s>
    5eec: a5 07        	lda	$7                      ; 0x2007 <__heap_default_limit+0x1007>
    5eee: 18           	clc
    5eef: 69 06        	adc	#$6
    5ef1: a2 06        	ldx	#$6
    5ef3: 86 04        	stx	$4                      ; 0x2004 <__heap_default_limit+0x1004>
    5ef5: a2 7b        	ldx	#$7b
    5ef7: 86 05        	stx	$5                      ; 0x2005 <__heap_default_limit+0x1005>
    5ef9: aa           	tax
    5efa: a9 0c        	lda	#$c
    5efc: 4c df 56     	jmp	$56df <mcputsxy>

00005eff <UpdateSectors>:
    5eff: 48           	pha
    5f00: 18           	clc
    5f01: a5 02        	lda	$2                      ; 0x2002 <__heap_default_limit+0x1002>
    5f03: 69 f1        	adc	#$f1
    5f05: 85 02        	sta	$2                      ; 0x2002 <__heap_default_limit+0x1002>
    5f07: a5 03        	lda	$3                      ; 0x2003 <__heap_default_limit+0x1003>
    5f09: 69 ff        	adc	#$ff
    5f0b: 85 03        	sta	$3                      ; 0x2003 <__heap_default_limit+0x1003>
    5f0d: 68           	pla
    5f0e: a4 16        	ldy	$16                     ; 0x2016 <next_line+0x1>
    5f10: 5a           	phy
    5f11: a4 17        	ldy	$17                     ; 0x2017 <next_line+0x2>
    5f13: 5a           	phy
    5f14: a4 18        	ldy	$18                     ; 0x2018 <next_line+0x3>
    5f16: 5a           	phy
    5f17: a4 19        	ldy	$19                     ; 0x2019 <next_line+0x4>
    5f19: 5a           	phy
    5f1a: 48           	pha
    5f1b: a5 1a        	lda	$1a                     ; 0x201a <next_line+0x5>
    5f1d: a0 07        	ldy	#$7
    5f1f: 91 02        	sta	($2),y                  ; 0x2002 <__heap_default_limit+0x1002>
    5f21: a5 1b        	lda	$1b                     ; 0x201b <next_line+0x6>
    5f23: 88           	dey
    5f24: 91 02        	sta	($2),y                  ; 0x2002 <__heap_default_limit+0x1002>
    5f26: a5 1c        	lda	$1c                     ; 0x201c <next_line+0x7>
    5f28: 88           	dey
    5f29: 91 02        	sta	($2),y                  ; 0x2002 <__heap_default_limit+0x1002>
    5f2b: a5 1d        	lda	$1d                     ; 0x201d <next_line+0x8>
    5f2d: 88           	dey
    5f2e: 91 02        	sta	($2),y                  ; 0x2002 <__heap_default_limit+0x1002>
    5f30: a5 1e        	lda	$1e                     ; 0x201e <next_line+0x9>
    5f32: 88           	dey
    5f33: 91 02        	sta	($2),y                  ; 0x2002 <__heap_default_limit+0x1002>
    5f35: a5 1f        	lda	$1f                     ; 0x201f <next_line+0xa>
    5f37: 88           	dey
    5f38: 91 02        	sta	($2),y                  ; 0x2002 <__heap_default_limit+0x1002>
    5f3a: a5 20        	lda	$20                     ; 0x2020 <next_line+0xb>
    5f3c: 88           	dey
    5f3d: 91 02        	sta	($2),y                  ; 0x2002 <__heap_default_limit+0x1002>
    5f3f: a5 21        	lda	$21                     ; 0x2021 <_start>
    5f41: 88           	dey
    5f42: 91 02        	sta	($2),y                  ; 0x2002 <__heap_default_limit+0x1002>
    5f44: 68           	pla
    5f45: 85 16        	sta	$16                     ; 0x2016 <next_line+0x1>
    5f47: 86 1e        	stx	$1e                     ; 0x201e <next_line+0x9>
    5f49: 98           	tya
    5f4a: 86 17        	stx	$17                     ; 0x2017 <next_line+0x2>
    5f4c: 06 17        	asl	$17                     ; 0x2017 <next_line+0x2>
    5f4e: 48           	pha
    5f4f: 1a           	inc
    5f50: b0 02        	bcs	$5f54 <UpdateSectors+0x55>
    5f52: a9 00        	lda	#$0
    5f54: a0 09        	ldy	#$9
    5f56: 91 02        	sta	($2),y                  ; 0x2002 <__heap_default_limit+0x1002>
    5f58: 68           	pla
    5f59: 2a           	rol
    5f5a: 85 04        	sta	$4                      ; 0x2004 <__heap_default_limit+0x1004>
    5f5c: a9 27        	lda	#$27
    5f5e: 18           	clc
    5f5f: 65 17        	adc	$17                     ; 0x2017 <next_line+0x2>
    5f61: aa           	tax
    5f62: a9 00        	lda	#$0
    5f64: 65 04        	adc	$4                      ; 0x2004 <__heap_default_limit+0x1004>
    5f66: a4 17        	ldy	$17                     ; 0x2017 <next_line+0x2>
    5f68: 84 06        	sty	$6                      ; 0x2006 <__heap_default_limit+0x1006>
    5f6a: 06 06        	asl	$6                      ; 0x2006 <__heap_default_limit+0x1006>
    5f6c: 48           	pha
    5f6d: a9 01        	lda	#$1
    5f6f: b0 02        	bcs	$5f73 <UpdateSectors+0x74>
    5f71: a9 00        	lda	#$0
    5f73: a0 08        	ldy	#$8
    5f75: 91 02        	sta	($2),y                  ; 0x2002 <__heap_default_limit+0x1002>
    5f77: a4 04        	ldy	$4                      ; 0x2004 <__heap_default_limit+0x1004>
    5f79: 84 07        	sty	$7                      ; 0x2007 <__heap_default_limit+0x1007>
    5f7b: 26 07        	rol	$7                      ; 0x2007 <__heap_default_limit+0x1007>
    5f7d: 06 06        	asl	$6                      ; 0x2006 <__heap_default_limit+0x1006>
    5f7f: a9 01        	lda	#$1
    5f81: b0 02        	bcs	$5f85 <UpdateSectors+0x86>
    5f83: a9 00        	lda	#$0
    5f85: a0 0a        	ldy	#$a
    5f87: 91 02        	sta	($2),y                  ; 0x2002 <__heap_default_limit+0x1002>
    5f89: 26 07        	rol	$7                      ; 0x2007 <__heap_default_limit+0x1007>
    5f8b: 06 06        	asl	$6                      ; 0x2006 <__heap_default_limit+0x1006>
    5f8d: a9 01        	lda	#$1
    5f8f: b0 02        	bcs	$5f93 <UpdateSectors+0x94>
    5f91: a9 00        	lda	#$0
    5f93: a0 0b        	ldy	#$b
    5f95: 91 02        	sta	($2),y                  ; 0x2002 <__heap_default_limit+0x1002>
    5f97: 68           	pla
    5f98: 26 07        	rol	$7                      ; 0x2007 <__heap_default_limit+0x1007>
    5f9a: a4 07        	ldy	$7                      ; 0x2007 <__heap_default_limit+0x1007>
    5f9c: 84 21        	sty	$21                     ; 0x2021 <_start>
    5f9e: 86 04        	stx	$4                      ; 0x2004 <__heap_default_limit+0x1004>
    5fa0: 85 05        	sta	$5                      ; 0x2005 <__heap_default_limit+0x1005>
    5fa2: a0 01        	ldy	#$1
    5fa4: b1 04        	lda	($4),y                  ; 0x2004 <__heap_default_limit+0x1004>
    5fa6: aa           	tax
    5fa7: b2 04        	lda	($4),z                  ; 0x2004 <__heap_default_limit+0x1004>
    5fa9: 85 1c        	sta	$1c                     ; 0x201c <next_line+0x7>
    5fab: 85 07        	sta	$7                      ; 0x2007 <__heap_default_limit+0x1007>
    5fad: 86 1d        	stx	$1d                     ; 0x201d <next_line+0x8>
    5faf: a0 46        	ldy	#$46
    5fb1: a9 01        	lda	#$1
    5fb3: 31 1c        	and	($1c),y                 ; 0x201c <next_line+0x7>
    5fb5: a0 0d        	ldy	#$d
    5fb7: 91 02        	sta	($2),y                  ; 0x2002 <__heap_default_limit+0x1002>
    5fb9: 86 08        	stx	$8                      ; 0x2008 <__heap_default_limit+0x1008>
    5fbb: a4 06        	ldy	$6                      ; 0x2006 <__heap_default_limit+0x1006>
    5fbd: 84 1f        	sty	$1f                     ; 0x201f <next_line+0xa>
    5fbf: 86 20        	stx	$20                     ; 0x2020 <next_line+0xb>
    5fc1: a6 07        	ldx	$7                      ; 0x2007 <__heap_default_limit+0x1007>
    5fc3: 86 1a        	stx	$1a                     ; 0x201a <next_line+0x5>
    5fc5: a5 07        	lda	$7                      ; 0x2007 <__heap_default_limit+0x1007>
    5fc7: a0 0e        	ldy	#$e
    5fc9: 91 02        	sta	($2),y                  ; 0x2002 <__heap_default_limit+0x1002>
    5fcb: 88           	dey
    5fcc: b1 02        	lda	($2),y                  ; 0x2002 <__heap_default_limit+0x1002>
    5fce: d0 03        	bne	$5fd3 <UpdateSectors+0xd4>
    5fd0: 4c e2 60     	jmp	$60e2 <donegetproc10+0xe2>
    5fd3: a2 00        	ldx	#$0
    5fd5: 86 18        	stx	$18                     ; 0x2018 <next_line+0x3>
    5fd7: a2 17        	ldx	#$17
    5fd9: 86 19        	stx	$19                     ; 0x2019 <next_line+0x4>
    5fdb: a0 1c        	ldy	#$1c
    5fdd: 8c e4 7a     	sty	$7ae4                   ; 0x7ae4 <fnamehi.2>
    5fe0: 18           	clc
    5fe1: a5 07        	lda	$7                      ; 0x2007 <__heap_default_limit+0x1007>
    5fe3: 69 03        	adc	#$3
    5fe5: 85 04        	sta	$4                      ; 0x2004 <__heap_default_limit+0x1004>
    5fe7: a5 08        	lda	$8                      ; 0x2008 <__heap_default_limit+0x1008>
    5fe9: 69 00        	adc	#$0
    5feb: 85 05        	sta	$5                      ; 0x2005 <__heap_default_limit+0x1005>
    5fed: a2 00        	ldx	#$0
    5fef: a9 48        	lda	#$48
    5ff1: 8d 40 d6     	sta	$d640                   ; 0xd640 <__heap_start+0x56aa>
    5ff4: b8           	clv
    5ff5: 90 05        	bcc	$5ffc <errgetproc10>
    5ff7: 85 06        	sta	$6                      ; 0x2006 <__heap_default_limit+0x1006>
    5ff9: 4c 00 60     	jmp	$6000 <donegetproc10>

00005ffc <errgetproc10>:
    5ffc: a9 ff        	lda	#$ff
    5ffe: 85 06        	sta	$6                      ; 0x2006 <__heap_default_limit+0x1006>

00006000 <donegetproc10>:
    6000: ea           	nop
    6001: a5 16        	lda	$16                     ; 0x2016 <next_line+0x1>
    6003: f0 13        	beq	$6018 <donegetproc10+0x18>
    6005: a0 00        	ldy	#$0
    6007: 80 03        	bra	$600c <donegetproc10+0xc>
    6009: 91 04        	sta	($4),y                  ; 0x2004 <__heap_default_limit+0x1004>
    600b: c8           	iny
    600c: b9 35 1c     	lda	$1c35,y                 ; 0x1c35 <__heap_default_limit+0xc35>
    600f: f0 18        	beq	$6029 <donegetproc10+0x29>
    6011: cc 14 1c     	cpy	$1c14                   ; 0x1c14 <__heap_default_limit+0xc14>
    6014: 90 f3        	bcc	$6009 <donegetproc10+0x9>
    6016: 80 11        	bra	$6029 <donegetproc10+0x29>
    6018: a0 00        	ldy	#$0
    601a: 80 03        	bra	$601f <donegetproc10+0x1f>
    601c: 91 04        	sta	($4),y                  ; 0x2004 <__heap_default_limit+0x1004>
    601e: c8           	iny
    601f: b9 15 1c     	lda	$1c15,y                 ; 0x1c15 <__heap_default_limit+0xc15>
    6022: f0 05        	beq	$6029 <donegetproc10+0x29>
    6024: cc 13 1c     	cpy	$1c13                   ; 0x1c13 <__heap_default_limit+0xc13>
    6027: 90 f3        	bcc	$601c <donegetproc10+0x1c>
    6029: 84 04        	sty	$4                      ; 0x2004 <__heap_default_limit+0x1004>
    602b: a0 0e        	ldy	#$e
    602d: b1 02        	lda	($2),y                  ; 0x2002 <__heap_default_limit+0x1002>
    602f: 18           	clc
    6030: 65 04        	adc	$4                      ; 0x2004 <__heap_default_limit+0x1004>
    6032: 85 04        	sta	$4                      ; 0x2004 <__heap_default_limit+0x1004>
    6034: a5 20        	lda	$20                     ; 0x2020 <next_line+0xb>
    6036: 69 00        	adc	#$0
    6038: 85 05        	sta	$5                      ; 0x2005 <__heap_default_limit+0x1005>
    603a: a0 03        	ldy	#$3
    603c: a9 00        	lda	#$0
    603e: 91 04        	sta	($4),y                  ; 0x2004 <__heap_default_limit+0x1004>
    6040: 64 06        	stz	$6                      ; 0x2006 <__heap_default_limit+0x1006>
    6042: a5 1f        	lda	$1f                     ; 0x201f <next_line+0xa>
    6044: 18           	clc
    6045: 65 1e        	adc	$1e                     ; 0x201e <next_line+0x9>
    6047: 85 04        	sta	$4                      ; 0x2004 <__heap_default_limit+0x1004>
    6049: a5 21        	lda	$21                     ; 0x2021 <_start>
    604b: 69 00        	adc	#$0
    604d: 85 05        	sta	$5                      ; 0x2005 <__heap_default_limit+0x1005>
    604f: a9 36        	lda	#$36
    6051: 18           	clc
    6052: 65 04        	adc	$4                      ; 0x2004 <__heap_default_limit+0x1004>
    6054: 85 1a        	sta	$1a                     ; 0x201a <next_line+0x5>
    6056: a9 7c        	lda	#$7c
    6058: 65 05        	adc	$5                      ; 0x2005 <__heap_default_limit+0x1005>
    605a: 85 1b        	sta	$1b                     ; 0x201b <next_line+0x6>
    605c: a0 47        	ldy	#$47
    605e: b1 1c        	lda	($1c),y                 ; 0x201c <next_line+0x7>
    6060: a2 00        	ldx	#$0
    6062: 86 04        	stx	$4                      ; 0x2004 <__heap_default_limit+0x1004>
    6064: a2 17        	ldx	#$17
    6066: 86 05        	stx	$5                      ; 0x2005 <__heap_default_limit+0x1005>
    6068: aa           	tax
    6069: a5 16        	lda	$16                     ; 0x2016 <next_line+0x1>
    606b: 20 d8 4b     	jsr	$4bd8 <GetOneSector>
    606e: c9 02        	cmp	#$2
    6070: b0 18        	bcs	$608a <donegetproc10+0x8a>
    6072: a0 00        	ldy	#$0
    6074: 80 03        	bra	$6079 <donegetproc10+0x79>
    6076: 91 1a        	sta	($1a),y                 ; 0x201a <next_line+0x5>
    6078: c8           	iny
    6079: b9 04 17     	lda	$1704,y                 ; 0x1704 <__heap_default_limit+0x704>
    607c: c9 a0        	cmp	#$a0
    607e: f0 04        	beq	$6084 <donegetproc10+0x84>
    6080: c0 10        	cpy	#$10
    6082: 90 f2        	bcc	$6076 <donegetproc10+0x76>
    6084: a9 00        	lda	#$0
    6086: 91 1a        	sta	($1a),y                 ; 0x201a <next_line+0x5>
    6088: 80 13        	bra	$609d <donegetproc10+0x9d>
    608a: a2 ce        	ldx	#$ce
    608c: 86 04        	stx	$4                      ; 0x2004 <__heap_default_limit+0x1004>
    608e: a2 70        	ldx	#$70
    6090: 86 05        	stx	$5                      ; 0x2005 <__heap_default_limit+0x1005>
    6092: a6 1a        	ldx	$1a                     ; 0x201a <next_line+0x5>
    6094: 86 06        	stx	$6                      ; 0x2006 <__heap_default_limit+0x1006>
    6096: a6 1b        	ldx	$1b                     ; 0x201b <next_line+0x6>
    6098: 86 07        	stx	$7                      ; 0x2007 <__heap_default_limit+0x1007>
    609a: 20 48 55     	jsr	$5548 <strcopy>
    609d: a0 47        	ldy	#$47
    609f: b1 1c        	lda	($1c),y                 ; 0x201c <next_line+0x7>
    60a1: 85 09        	sta	$9                      ; 0x2009 <__heap_default_limit+0x1009>
    60a3: a5 1e        	lda	$1e                     ; 0x201e <next_line+0x9>
    60a5: f0 04        	beq	$60ab <donegetproc10+0xab>
    60a7: a2 3a        	ldx	#$3a
    60a9: 80 02        	bra	$60ad <donegetproc10+0xad>
    60ab: a2 38        	ldx	#$38
    60ad: 64 07        	stz	$7                      ; 0x2007 <__heap_default_limit+0x1007>
    60af: a9 01        	lda	#$1
    60b1: 64 04        	stz	$4                      ; 0x2004 <__heap_default_limit+0x1004>
    60b3: a0 08        	ldy	#$8
    60b5: 84 05        	sty	$5                      ; 0x2005 <__heap_default_limit+0x1005>
    60b7: a0 02        	ldy	#$2
    60b9: 84 06        	sty	$6                      ; 0x2006 <__heap_default_limit+0x1006>
    60bb: a4 16        	ldy	$16                     ; 0x2016 <next_line+0x1>
    60bd: 84 08        	sty	$8                      ; 0x2008 <__heap_default_limit+0x1008>
    60bf: 85 0a        	sta	$a                      ; 0x200a <__heap_default_limit+0x100a>
    60c1: 3a           	dec
    60c2: 20 85 4d     	jsr	$4d85 <readblockchain>
    60c5: c9 02        	cmp	#$2
    60c7: b0 03        	bcs	$60cc <donegetproc10+0xcc>
    60c9: 4c 84 63     	jmp	$6384 <donehypreaddir13+0x16a>
    60cc: a0 46        	ldy	#$46
    60ce: a9 fe        	lda	#$fe
    60d0: 31 1c        	and	($1c),y                 ; 0x201c <next_line+0x7>
    60d2: 91 1c        	sta	($1c),y                 ; 0x201c <next_line+0x7>
    60d4: a6 1f        	ldx	$1f                     ; 0x201f <next_line+0xa>
    60d6: 86 06        	stx	$6                      ; 0x2006 <__heap_default_limit+0x1006>
    60d8: a6 20        	ldx	$20                     ; 0x2020 <next_line+0xb>
    60da: 86 08        	stx	$8                      ; 0x2008 <__heap_default_limit+0x1008>
    60dc: a0 0e        	ldy	#$e
    60de: b1 02        	lda	($2),y                  ; 0x2002 <__heap_default_limit+0x1002>
    60e0: 85 1a        	sta	$1a                     ; 0x201a <next_line+0x5>
    60e2: a6 08        	ldx	$8                      ; 0x2008 <__heap_default_limit+0x1008>
    60e4: 86 16        	stx	$16                     ; 0x2016 <next_line+0x1>
    60e6: a5 06        	lda	$6                      ; 0x2006 <__heap_default_limit+0x1006>
    60e8: 18           	clc
    60e9: 65 1e        	adc	$1e                     ; 0x201e <next_line+0x9>
    60eb: 85 04        	sta	$4                      ; 0x2004 <__heap_default_limit+0x1004>
    60ed: a5 21        	lda	$21                     ; 0x2021 <_start>
    60ef: 69 00        	adc	#$0
    60f1: 85 05        	sta	$5                      ; 0x2005 <__heap_default_limit+0x1005>
    60f3: a9 36        	lda	#$36
    60f5: 18           	clc
    60f6: 65 04        	adc	$4                      ; 0x2004 <__heap_default_limit+0x1004>
    60f8: 85 06        	sta	$6                      ; 0x2006 <__heap_default_limit+0x1006>
    60fa: a9 7c        	lda	#$7c
    60fc: 65 05        	adc	$5                      ; 0x2005 <__heap_default_limit+0x1005>
    60fe: 85 07        	sta	$7                      ; 0x2007 <__heap_default_limit+0x1007>
    6100: a2 ff        	ldx	#$ff
    6102: 8a           	txa
    6103: a0 0c        	ldy	#$c
    6105: 91 02        	sta	($2),y                  ; 0x2002 <__heap_default_limit+0x1002>
    6107: a2 c5        	ldx	#$c5
    6109: 86 04        	stx	$4                      ; 0x2004 <__heap_default_limit+0x1004>
    610b: a2 71        	ldx	#$71
    610d: 86 05        	stx	$5                      ; 0x2005 <__heap_default_limit+0x1005>
    610f: 20 48 55     	jsr	$5548 <strcopy>
    6112: a5 1a        	lda	$1a                     ; 0x201a <next_line+0x5>
    6114: 18           	clc
    6115: 69 03        	adc	#$3
    6117: 85 06        	sta	$6                      ; 0x2006 <__heap_default_limit+0x1006>
    6119: a5 16        	lda	$16                     ; 0x2016 <next_line+0x1>
    611b: 69 00        	adc	#$0
    611d: 85 07        	sta	$7                      ; 0x2007 <__heap_default_limit+0x1007>
    611f: a2 c5        	ldx	#$c5
    6121: 86 04        	stx	$4                      ; 0x2004 <__heap_default_limit+0x1004>
    6123: a2 71        	ldx	#$71
    6125: 86 05        	stx	$5                      ; 0x2005 <__heap_default_limit+0x1005>
    6127: 20 48 55     	jsr	$5548 <strcopy>
    612a: a2 00        	ldx	#$0
    612c: a9 04        	lda	#$4
    612e: 8d 40 d6     	sta	$d640                   ; 0xd640 <__heap_start+0x56aa>
    6131: b8           	clv
    6132: 90 05        	bcc	$6139 <errgetcurdrv11>
    6134: 85 04        	sta	$4                      ; 0x2004 <__heap_default_limit+0x1004>
    6136: 4c 3d 61     	jmp	$613d <donegetcurdrv11>

00006139 <errgetcurdrv11>:
    6139: a9 ff        	lda	#$ff
    613b: 85 04        	sta	$4                      ; 0x2004 <__heap_default_limit+0x1004>

0000613d <donegetcurdrv11>:
    613d: ea           	nop
    613e: a6 04        	ldx	$4                      ; 0x2004 <__heap_default_limit+0x1004>
    6140: e0 ff        	cpx	#$ff
    6142: d0 03        	bne	$6147 <donegetcurdrv11+0xa>
    6144: 4c e1 64     	jmp	$64e1 <donehypclosedir14+0x1>
    6147: a2 00        	ldx	#$0
    6149: a9 12        	lda	#$12
    614b: 8d 40 d6     	sta	$d640                   ; 0xd640 <__heap_start+0x56aa>
    614e: b8           	clv
    614f: 90 05        	bcc	$6156 <errhypopendir12>
    6151: 85 04        	sta	$4                      ; 0x2004 <__heap_default_limit+0x1004>
    6153: 4c 5a 61     	jmp	$615a <donehypopendir12>

00006156 <errhypopendir12>:
    6156: a9 ff        	lda	#$ff
    6158: 85 04        	sta	$4                      ; 0x2004 <__heap_default_limit+0x1004>

0000615a <donehypopendir12>:
    615a: ea           	nop
    615b: a6 04        	ldx	$4                      ; 0x2004 <__heap_default_limit+0x1004>
    615d: e0 84        	cpx	#$84
    615f: d0 03        	bne	$6164 <donehypopendir12+0xa>
    6161: 4c e1 64     	jmp	$64e1 <donehypclosedir14+0x1>
    6164: a4 20        	ldy	$20                     ; 0x2020 <next_line+0xb>
    6166: e0 87        	cpx	#$87
    6168: d0 03        	bne	$616d <donehypopendir12+0x13>
    616a: 4c c4 64     	jmp	$64c4 <donehypreaddir13+0x2aa>
    616d: 98           	tya
    616e: e0 ff        	cpx	#$ff
    6170: d0 03        	bne	$6175 <donehypopendir12+0x1b>
    6172: 4c e3 64     	jmp	$64e3 <donehypclosedir14+0x3>
    6175: 86 1e        	stx	$1e                     ; 0x201e <next_line+0x9>
    6177: a9 00        	lda	#$0
    6179: 48           	pha
    617a: a0 09        	ldy	#$9
    617c: b1 02        	lda	($2),y                  ; 0x2002 <__heap_default_limit+0x1002>
    617e: c9 01        	cmp	#$1
    6180: 68           	pla
    6181: 2a           	rol
    6182: 85 04        	sta	$4                      ; 0x2004 <__heap_default_limit+0x1004>
    6184: a9 00        	lda	#$0
    6186: 2a           	rol
    6187: 85 05        	sta	$5                      ; 0x2005 <__heap_default_limit+0x1005>
    6189: a6 04        	ldx	$4                      ; 0x2004 <__heap_default_limit+0x1004>
    618b: 86 08        	stx	$8                      ; 0x2008 <__heap_default_limit+0x1008>
    618d: 48           	pha
    618e: 88           	dey
    618f: b1 02        	lda	($2),y                  ; 0x2002 <__heap_default_limit+0x1002>
    6191: c9 01        	cmp	#$1
    6193: 68           	pla
    6194: 26 08        	rol	$8                      ; 0x2008 <__heap_default_limit+0x1008>
    6196: 85 09        	sta	$9                      ; 0x2009 <__heap_default_limit+0x1009>
    6198: 26 09        	rol	$9                      ; 0x2009 <__heap_default_limit+0x1009>
    619a: a0 0a        	ldy	#$a
    619c: b1 02        	lda	($2),y                  ; 0x2002 <__heap_default_limit+0x1002>
    619e: c9 01        	cmp	#$1
    61a0: 26 08        	rol	$8                      ; 0x2008 <__heap_default_limit+0x1008>
    61a2: 26 09        	rol	$9                      ; 0x2009 <__heap_default_limit+0x1009>
    61a4: c8           	iny
    61a5: b1 02        	lda	($2),y                  ; 0x2002 <__heap_default_limit+0x1002>
    61a7: c9 01        	cmp	#$1
    61a9: 26 08        	rol	$8                      ; 0x2008 <__heap_default_limit+0x1008>
    61ab: 26 09        	rol	$9                      ; 0x2009 <__heap_default_limit+0x1009>
    61ad: 38           	sec
    61ae: a5 1f        	lda	$1f                     ; 0x201f <next_line+0xa>
    61b0: e5 17        	sbc	$17                     ; 0x2017 <next_line+0x2>
    61b2: c8           	iny
    61b3: 91 02        	sta	($2),y                  ; 0x2002 <__heap_default_limit+0x1002>
    61b5: a5 08        	lda	$8                      ; 0x2008 <__heap_default_limit+0x1008>
    61b7: e5 04        	sbc	$4                      ; 0x2004 <__heap_default_limit+0x1004>
    61b9: 88           	dey
    61ba: 91 02        	sta	($2),y                  ; 0x2002 <__heap_default_limit+0x1002>
    61bc: a5 09        	lda	$9                      ; 0x2009 <__heap_default_limit+0x1009>
    61be: e5 05        	sbc	$5                      ; 0x2005 <__heap_default_limit+0x1005>
    61c0: 88           	dey
    61c1: 91 02        	sta	($2),y                  ; 0x2002 <__heap_default_limit+0x1002>
    61c3: 09 08        	ora	#$8
    61c5: 88           	dey
    61c6: 91 02        	sta	($2),y                  ; 0x2002 <__heap_default_limit+0x1002>
    61c8: a2 ff        	ldx	#$ff
    61ca: a0 00        	ldy	#$0
    61cc: 64 16        	stz	$16                     ; 0x2016 <next_line+0x1>
    61ce: 84 04        	sty	$4                      ; 0x2004 <__heap_default_limit+0x1004>
    61d0: a9 01        	lda	#$1
    61d2: 86 21        	stx	$21                     ; 0x2021 <_start>
    61d4: e0 00        	cpx	#$0
    61d6: f0 02        	beq	$61da <donehypopendir12+0x80>
    61d8: a9 00        	lda	#$0
    61da: a6 16        	ldx	$16                     ; 0x2016 <next_line+0x1>
    61dc: e0 70        	cpx	#$70
    61de: a2 01        	ldx	#$1
    61e0: a0 01        	ldy	#$1
    61e2: b0 01        	bcs	$61e5 <donehypopendir12+0x8b>
    61e4: a8           	tay
    61e5: a5 04        	lda	$4                      ; 0x2004 <__heap_default_limit+0x1004>
    61e7: c9 85        	cmp	#$85
    61e9: f0 02        	beq	$61ed <donehypopendir12+0x93>
    61eb: a2 00        	ldx	#$0
    61ed: a9 01        	lda	#$1
    61ef: c0 00        	cpy	#$0
    61f1: d0 01        	bne	$61f4 <donehypopendir12+0x9a>
    61f3: 8a           	txa
    61f4: aa           	tax
    61f5: f0 03        	beq	$61fa <donehypopendir12+0xa0>
    61f7: 4c c7 64     	jmp	$64c7 <donehypreaddir13+0x2ad>
    61fa: a4 1e        	ldy	$1e                     ; 0x201e <next_line+0x9>
    61fc: da           	phx
    61fd: a2 00        	ldx	#$0
    61ff: 8a           	txa

00006200 <hypreaddirloop13>:
    6200: 9d 00 1b     	sta	$1b00,x                 ; 0x1b00 <__heap_default_limit+0xb00>
    6203: ca           	dex
    6204: d0 fa        	bne	$6200 <hypreaddirloop13>
    6206: fa           	plx
    6207: 98           	tya
    6208: aa           	tax
    6209: a0 1b        	ldy	#$1b
    620b: a9 14        	lda	#$14
    620d: 8d 40 d6     	sta	$d640                   ; 0xd640 <__heap_start+0x56aa>
    6210: b8           	clv
    6211: 90 05        	bcc	$6218 <errhypreaddir13>
    6213: 86 04        	stx	$4                      ; 0x2004 <__heap_default_limit+0x1004>
    6215: 4c 1a 62     	jmp	$621a <donehypreaddir13>

00006218 <errhypreaddir13>:
    6218: 85 04        	sta	$4                      ; 0x2004 <__heap_default_limit+0x1004>

0000621a <donehypreaddir13>:
    621a: ea           	nop
    621b: ae 40 1b     	ldx	$1b40                   ; 0x1b40 <__heap_default_limit+0xb40>
    621e: e0 40        	cpx	#$40
    6220: a0 3f        	ldy	#$3f
    6222: 84 06        	sty	$6                      ; 0x2006 <__heap_default_limit+0x1006>
    6224: a0 1b        	ldy	#$1b
    6226: 84 07        	sty	$7                      ; 0x2007 <__heap_default_limit+0x1007>
    6228: b0 0f        	bcs	$6239 <donehypreaddir13+0x1f>
    622a: 86 05        	stx	$5                      ; 0x2005 <__heap_default_limit+0x1005>
    622c: a9 00        	lda	#$0
    622e: 18           	clc
    622f: 65 05        	adc	$5                      ; 0x2005 <__heap_default_limit+0x1005>
    6231: 85 06        	sta	$6                      ; 0x2006 <__heap_default_limit+0x1006>
    6233: a9 1b        	lda	#$1b
    6235: 69 00        	adc	#$0
    6237: 85 07        	sta	$7                      ; 0x2007 <__heap_default_limit+0x1007>
    6239: a4 04        	ldy	$4                      ; 0x2004 <__heap_default_limit+0x1004>
    623b: a9 00        	lda	#$0
    623d: 92 06        	sta	($6),z                  ; 0x2006 <__heap_default_limit+0x1006>
    623f: c0 85        	cpy	#$85
    6241: f0 04        	beq	$6247 <donehypreaddir13+0x2d>
    6243: c0 ff        	cpy	#$ff
    6245: d0 0e        	bne	$6255 <donehypreaddir13+0x3b>
    6247: a2 20        	ldx	#$20
    6249: 8e ea 7a     	stx	$7aea                   ; 0x7aea <direntryblock2+0x5>
    624c: 9c eb 7a     	stz	$7aeb                   ; 0x7aeb <direntryblock2+0x6>
    624f: a6 21        	ldx	$21                     ; 0x2021 <_start>
    6251: ca           	dex
    6252: 4c ce 61     	jmp	$61ce <donehypopendir12+0x74>
    6255: a9 10        	lda	#$10
    6257: 2d 56 1b     	and	$1b56                   ; 0x1b56 <__heap_default_limit+0xb56>
    625a: d0 1b        	bne	$6277 <donehypreaddir13+0x5d>
    625c: ae 49 1b     	ldx	$1b49                   ; 0x1b49 <__heap_default_limit+0xb49>
    625f: e0 64        	cpx	#$64
    6261: f0 04        	beq	$6267 <donehypreaddir13+0x4d>
    6263: e0 44        	cpx	#$44
    6265: d0 e0        	bne	$6247 <donehypreaddir13+0x2d>
    6267: ae 4a 1b     	ldx	$1b4a                   ; 0x1b4a <__heap_default_limit+0xb4a>
    626a: e0 38        	cpx	#$38
    626c: d0 d9        	bne	$6247 <donehypreaddir13+0x2d>
    626e: ae 4b 1b     	ldx	$1b4b                   ; 0x1b4b <__heap_default_limit+0xb4b>
    6271: e0 31        	cpx	#$31
    6273: d0 d2        	bne	$6247 <donehypreaddir13+0x2d>
    6275: 80 0e        	bra	$6285 <donehypreaddir13+0x6b>
    6277: ae 41 1b     	ldx	$1b41                   ; 0x1b41 <__heap_default_limit+0xb41>
    627a: e0 2e        	cpx	#$2e
    627c: d0 07        	bne	$6285 <donehypreaddir13+0x6b>
    627e: ae 42 1b     	ldx	$1b42                   ; 0x1b42 <__heap_default_limit+0xb42>
    6281: e0 20        	cpx	#$20
    6283: f0 d7        	beq	$625c <donehypreaddir13+0x42>
    6285: 84 18        	sty	$18                     ; 0x2018 <next_line+0x3>
    6287: 20 9e 48     	jsr	$489e <getsfn>
    628a: 20 9e 48     	jsr	$489e <getsfn>
    628d: a2 ea        	ldx	#$ea
    628f: 86 04        	stx	$4                      ; 0x2004 <__heap_default_limit+0x1004>
    6291: a2 7a        	ldx	#$7a
    6293: 86 05        	stx	$5                      ; 0x2005 <__heap_default_limit+0x1005>
    6295: a2 41        	ldx	#$41
    6297: 86 06        	stx	$6                      ; 0x2006 <__heap_default_limit+0x1006>
    6299: a2 1c        	ldx	#$1c
    629b: 86 07        	stx	$7                      ; 0x2007 <__heap_default_limit+0x1007>
    629d: 20 b6 6a     	jsr	$6ab6 <strcpy>
    62a0: ae 4e 1b     	ldx	$1b4e                   ; 0x1b4e <__heap_default_limit+0xb4e>
    62a3: ac 50 1b     	ldy	$1b50                   ; 0x1b50 <__heap_default_limit+0xb50>
    62a6: a9 80        	lda	#$80
    62a8: 0d 51 1b     	ora	$1b51                   ; 0x1b51 <__heap_default_limit+0xb51>
    62ab: 8d e5 7a     	sta	$7ae5                   ; 0x7ae5 <direntryblock2>
    62ae: 8c e6 7a     	sty	$7ae6                   ; 0x7ae6 <direntryblock2+0x1>
    62b1: a9 80        	lda	#$80
    62b3: 0d 4f 1b     	ora	$1b4f                   ; 0x1b4f <__heap_default_limit+0xb4f>
    62b6: 8d e8 7a     	sta	$7ae8                   ; 0x7ae8 <direntryblock2+0x3>
    62b9: 8e e9 7a     	stx	$7ae9                   ; 0x7ae9 <direntryblock2+0x4>
    62bc: a9 40        	lda	#$40
    62be: 0d 56 1b     	ora	$1b56                   ; 0x1b56 <__heap_default_limit+0xb56>
    62c1: 8d e7 7a     	sta	$7ae7                   ; 0x7ae7 <direntryblock2+0x2>
    62c4: ae 53 1b     	ldx	$1b53                   ; 0x1b53 <__heap_default_limit+0xb53>
    62c7: 86 04        	stx	$4                      ; 0x2004 <__heap_default_limit+0x1004>
    62c9: ae 54 1b     	ldx	$1b54                   ; 0x1b54 <__heap_default_limit+0xb54>
    62cc: 86 05        	stx	$5                      ; 0x2005 <__heap_default_limit+0x1005>
    62ce: ad 55 1b     	lda	$1b55                   ; 0x1b55 <__heap_default_limit+0xb55>
    62d1: 4a           	lsr
    62d2: 66 05        	ror	$5                      ; 0x2005 <__heap_default_limit+0x1005>
    62d4: 66 04        	ror	$4                      ; 0x2004 <__heap_default_limit+0x1004>
    62d6: 4a           	lsr
    62d7: a5 05        	lda	$5                      ; 0x2005 <__heap_default_limit+0x1005>
    62d9: 6a           	ror
    62da: 66 04        	ror	$4                      ; 0x2004 <__heap_default_limit+0x1004>
    62dc: a6 04        	ldx	$4                      ; 0x2004 <__heap_default_limit+0x1004>
    62de: 8e 03 7b     	stx	$7b03                   ; 0x7b03 <direntryblock2+0x1e>
    62e1: 8d 04 7b     	sta	$7b04                   ; 0x7b04 <direntryblock2+0x1f>
    62e4: a6 16        	ldx	$16                     ; 0x2016 <next_line+0x1>
    62e6: 86 1f        	stx	$1f                     ; 0x201f <next_line+0xa>
    62e8: a5 16        	lda	$16                     ; 0x2016 <next_line+0x1>
    62ea: 4a           	lsr
    62eb: 64 04        	stz	$4                      ; 0x2004 <__heap_default_limit+0x1004>
    62ed: 66 04        	ror	$4                      ; 0x2004 <__heap_default_limit+0x1004>
    62ef: 4a           	lsr
    62f0: 66 04        	ror	$4                      ; 0x2004 <__heap_default_limit+0x1004>
    62f2: 4a           	lsr
    62f3: 85 16        	sta	$16                     ; 0x2016 <next_line+0x1>
    62f5: 66 04        	ror	$4                      ; 0x2004 <__heap_default_limit+0x1004>
    62f7: a6 04        	ldx	$4                      ; 0x2004 <__heap_default_limit+0x1004>
    62f9: 86 17        	stx	$17                     ; 0x2017 <next_line+0x2>
    62fb: a9 00        	lda	#$0
    62fd: 18           	clc
    62fe: 65 04        	adc	$4                      ; 0x2004 <__heap_default_limit+0x1004>
    6300: 85 06        	sta	$6                      ; 0x2006 <__heap_default_limit+0x1006>
    6302: a0 0c        	ldy	#$c
    6304: b1 02        	lda	($2),y                  ; 0x2002 <__heap_default_limit+0x1002>
    6306: 85 1b        	sta	$1b                     ; 0x201b <next_line+0x6>
    6308: 65 16        	adc	$16                     ; 0x2016 <next_line+0x1>
    630a: 85 07        	sta	$7                      ; 0x2007 <__heap_default_limit+0x1007>
    630c: 88           	dey
    630d: b1 02        	lda	($2),y                  ; 0x2002 <__heap_default_limit+0x1002>
    630f: 85 1a        	sta	$1a                     ; 0x201a <next_line+0x5>
    6311: 69 00        	adc	#$0
    6313: 85 08        	sta	$8                      ; 0x2008 <__heap_default_limit+0x1008>
    6315: a0 09        	ldy	#$9
    6317: b1 02        	lda	($2),y                  ; 0x2002 <__heap_default_limit+0x1002>
    6319: 69 00        	adc	#$0
    631b: 9c 05 7b     	stz	$7b05                   ; 0x7b05 <direntryblock2+0x20>
    631e: 64 04        	stz	$4                      ; 0x2004 <__heap_default_limit+0x1004>
    6320: 64 05        	stz	$5                      ; 0x2005 <__heap_default_limit+0x1005>
    6322: 85 09        	sta	$9                      ; 0x2009 <__heap_default_limit+0x1009>
    6324: a2 20        	ldx	#$20
    6326: 86 0a        	stx	$a                      ; 0x200a <__heap_default_limit+0x100a>
    6328: 64 0b        	stz	$b                      ; 0x200b <__heap_default_limit+0x100b>
    632a: a2 7a        	ldx	#$7a
    632c: a9 e5        	lda	#$e5
    632e: 20 9e 69     	jsr	$699e <lcopy>
    6331: 06 17        	asl	$17                     ; 0x2017 <next_line+0x2>
    6333: 26 16        	rol	$16                     ; 0x2016 <next_line+0x1>
    6335: a9 00        	lda	#$0
    6337: 18           	clc
    6338: 65 17        	adc	$17                     ; 0x2017 <next_line+0x2>
    633a: aa           	tax
    633b: a5 1b        	lda	$1b                     ; 0x201b <next_line+0x6>
    633d: 65 16        	adc	$16                     ; 0x2016 <next_line+0x1>
    633f: a8           	tay
    6340: a5 1a        	lda	$1a                     ; 0x201a <next_line+0x5>
    6342: 69 00        	adc	#$0
    6344: 85 07        	sta	$7                      ; 0x2007 <__heap_default_limit+0x1007>
    6346: 5a           	phy
    6347: a0 0a        	ldy	#$a
    6349: b1 02        	lda	($2),y                  ; 0x2002 <__heap_default_limit+0x1002>
    634b: 7a           	ply
    634c: 69 00        	adc	#$0
    634e: 85 04        	sta	$4                      ; 0x2004 <__heap_default_limit+0x1004>
    6350: 18           	clc
    6351: 8a           	txa
    6352: 69 00        	adc	#$0
    6354: 85 06        	sta	$6                      ; 0x2006 <__heap_default_limit+0x1006>
    6356: 98           	tya
    6357: 69 1c        	adc	#$1c
    6359: aa           	tax
    635a: a5 07        	lda	$7                      ; 0x2007 <__heap_default_limit+0x1007>
    635c: 69 00        	adc	#$0
    635e: 85 08        	sta	$8                      ; 0x2008 <__heap_default_limit+0x1008>
    6360: a5 04        	lda	$4                      ; 0x2004 <__heap_default_limit+0x1004>
    6362: 69 08        	adc	#$8
    6364: 86 07        	stx	$7                      ; 0x2007 <__heap_default_limit+0x1007>
    6366: 64 04        	stz	$4                      ; 0x2004 <__heap_default_limit+0x1004>
    6368: 64 05        	stz	$5                      ; 0x2005 <__heap_default_limit+0x1005>
    636a: 85 09        	sta	$9                      ; 0x2009 <__heap_default_limit+0x1009>
    636c: a2 40        	ldx	#$40
    636e: 86 0a        	stx	$a                      ; 0x200a <__heap_default_limit+0x100a>
    6370: 64 0b        	stz	$b                      ; 0x200b <__heap_default_limit+0x100b>
    6372: a2 1b        	ldx	#$1b
    6374: a9 00        	lda	#$0
    6376: 20 9e 69     	jsr	$699e <lcopy>
    6379: a4 18        	ldy	$18                     ; 0x2018 <next_line+0x3>
    637b: e6 1f        	inc	$1f                     ; 0x201f <next_line+0xa>
    637d: a6 1f        	ldx	$1f                     ; 0x201f <next_line+0xa>
    637f: 86 16        	stx	$16                     ; 0x2016 <next_line+0x1>
    6381: 4c 4f 62     	jmp	$624f <donehypreaddir13+0x35>
    6384: a5 1e        	lda	$1e                     ; 0x201e <next_line+0x9>
    6386: 20 f0 4c     	jsr	$4cf0 <GetBAM>
    6389: a0 10        	ldy	#$10
    638b: 64 06        	stz	$6                      ; 0x2006 <__heap_default_limit+0x1006>
    638d: 64 08        	stz	$8                      ; 0x2008 <__heap_default_limit+0x1008>
    638f: a5 20        	lda	$20                     ; 0x2020 <next_line+0xb>
    6391: a2 00        	ldx	#$0
    6393: 4c e0 63     	jmp	$63e0 <donehypreaddir13+0x1c6>
    6396: 8a           	txa
    6397: 18           	clc
    6398: 69 d8        	adc	#$d8
    639a: 5a           	phy
    639b: a0 00        	ldy	#$0
    639d: 84 18        	sty	$18                     ; 0x2018 <next_line+0x3>
    639f: a0 18        	ldy	#$18
    63a1: 84 19        	sty	$19                     ; 0x2019 <next_line+0x4>
    63a3: 7a           	ply
    63a4: 0a           	asl
    63a5: 85 04        	sta	$4                      ; 0x2004 <__heap_default_limit+0x1004>
    63a7: a9 00        	lda	#$0
    63a9: 2a           	rol
    63aa: 85 05        	sta	$5                      ; 0x2005 <__heap_default_limit+0x1005>
    63ac: a5 04        	lda	$4                      ; 0x2004 <__heap_default_limit+0x1004>
    63ae: 0a           	asl
    63af: 85 07        	sta	$7                      ; 0x2007 <__heap_default_limit+0x1007>
    63b1: a5 05        	lda	$5                      ; 0x2005 <__heap_default_limit+0x1005>
    63b3: 2a           	rol
    63b4: 85 09        	sta	$9                      ; 0x2009 <__heap_default_limit+0x1009>
    63b6: a5 07        	lda	$7                      ; 0x2007 <__heap_default_limit+0x1007>
    63b8: 18           	clc
    63b9: 65 04        	adc	$4                      ; 0x2004 <__heap_default_limit+0x1004>
    63bb: 85 04        	sta	$4                      ; 0x2004 <__heap_default_limit+0x1004>
    63bd: a5 09        	lda	$9                      ; 0x2009 <__heap_default_limit+0x1009>
    63bf: 65 05        	adc	$5                      ; 0x2005 <__heap_default_limit+0x1005>
    63c1: 85 05        	sta	$5                      ; 0x2005 <__heap_default_limit+0x1005>
    63c3: a5 04        	lda	$4                      ; 0x2004 <__heap_default_limit+0x1004>
    63c5: 18           	clc
    63c6: 65 18        	adc	$18                     ; 0x2018 <next_line+0x3>
    63c8: 85 04        	sta	$4                      ; 0x2004 <__heap_default_limit+0x1004>
    63ca: a5 05        	lda	$5                      ; 0x2005 <__heap_default_limit+0x1005>
    63cc: 65 19        	adc	$19                     ; 0x2019 <next_line+0x4>
    63ce: 85 05        	sta	$5                      ; 0x2005 <__heap_default_limit+0x1005>
    63d0: 18           	clc
    63d1: a5 06        	lda	$6                      ; 0x2006 <__heap_default_limit+0x1006>
    63d3: 71 04        	adc	($4),y                  ; 0x2004 <__heap_default_limit+0x1004>
    63d5: 85 06        	sta	$6                      ; 0x2006 <__heap_default_limit+0x1006>
    63d7: a5 08        	lda	$8                      ; 0x2008 <__heap_default_limit+0x1008>
    63d9: 69 00        	adc	#$0
    63db: 85 08        	sta	$8                      ; 0x2008 <__heap_default_limit+0x1008>
    63dd: e8           	inx
    63de: a5 20        	lda	$20                     ; 0x2020 <next_line+0xb>
    63e0: e0 50        	cpx	#$50
    63e2: f0 0f        	beq	$63f3 <donehypreaddir13+0x1d9>
    63e4: e0 28        	cpx	#$28
    63e6: 90 03        	bcc	$63eb <donehypreaddir13+0x1d1>
    63e8: 4c 96 63     	jmp	$6396 <donehypreaddir13+0x17c>
    63eb: 8a           	txa
    63ec: e0 27        	cpx	#$27
    63ee: f0 ed        	beq	$63dd <donehypreaddir13+0x1c3>
    63f0: 4c a4 63     	jmp	$63a4 <donehypreaddir13+0x18a>
    63f3: 18           	clc
    63f4: aa           	tax
    63f5: a0 0e        	ldy	#$e
    63f7: b1 02        	lda	($2),y                  ; 0x2002 <__heap_default_limit+0x1002>
    63f9: 69 44        	adc	#$44
    63fb: 85 09        	sta	$9                      ; 0x2009 <__heap_default_limit+0x1009>
    63fd: 8a           	txa
    63fe: 69 00        	adc	#$0
    6400: aa           	tax
    6401: a0 44        	ldy	#$44
    6403: a5 06        	lda	$6                      ; 0x2006 <__heap_default_limit+0x1006>
    6405: 91 1c        	sta	($1c),y                 ; 0x201c <next_line+0x7>
    6407: a9 00        	lda	#$0
    6409: 48           	pha
    640a: a0 09        	ldy	#$9
    640c: b1 02        	lda	($2),y                  ; 0x2002 <__heap_default_limit+0x1002>
    640e: c9 01        	cmp	#$1
    6410: 68           	pla
    6411: 2a           	rol
    6412: 64 04        	stz	$4                      ; 0x2004 <__heap_default_limit+0x1004>
    6414: 26 04        	rol	$4                      ; 0x2004 <__heap_default_limit+0x1004>
    6416: 85 05        	sta	$5                      ; 0x2005 <__heap_default_limit+0x1005>
    6418: a4 04        	ldy	$4                      ; 0x2004 <__heap_default_limit+0x1004>
    641a: 84 0b        	sty	$b                      ; 0x200b <__heap_default_limit+0x100b>
    641c: 48           	pha
    641d: a0 08        	ldy	#$8
    641f: b1 02        	lda	($2),y                  ; 0x2002 <__heap_default_limit+0x1002>
    6421: c9 01        	cmp	#$1
    6423: 68           	pla
    6424: 2a           	rol
    6425: a4 04        	ldy	$4                      ; 0x2004 <__heap_default_limit+0x1004>
    6427: 84 0a        	sty	$a                      ; 0x200a <__heap_default_limit+0x100a>
    6429: 26 0a        	rol	$a                      ; 0x200a <__heap_default_limit+0x100a>
    642b: 48           	pha
    642c: a0 0a        	ldy	#$a
    642e: b1 02        	lda	($2),y                  ; 0x2002 <__heap_default_limit+0x1002>
    6430: c9 01        	cmp	#$1
    6432: 68           	pla
    6433: 2a           	rol
    6434: 26 0a        	rol	$a                      ; 0x200a <__heap_default_limit+0x100a>
    6436: 48           	pha
    6437: c8           	iny
    6438: b1 02        	lda	($2),y                  ; 0x2002 <__heap_default_limit+0x1002>
    643a: c9 01        	cmp	#$1
    643c: 68           	pla
    643d: 2a           	rol
    643e: a8           	tay
    643f: 26 0a        	rol	$a                      ; 0x200a <__heap_default_limit+0x100a>
    6441: 38           	sec
    6442: a5 1f        	lda	$1f                     ; 0x201f <next_line+0xa>
    6444: e5 17        	sbc	$17                     ; 0x2017 <next_line+0x2>
    6446: 85 0c        	sta	$c                      ; 0x200c <__heap_default_limit+0x100c>
    6448: 98           	tya
    6449: e5 05        	sbc	$5                      ; 0x2005 <__heap_default_limit+0x1005>
    644b: 85 04        	sta	$4                      ; 0x2004 <__heap_default_limit+0x1004>
    644d: a5 0a        	lda	$a                      ; 0x200a <__heap_default_limit+0x100a>
    644f: e5 0b        	sbc	$b                      ; 0x200b <__heap_default_limit+0x100b>
    6451: 85 05        	sta	$5                      ; 0x2005 <__heap_default_limit+0x1005>
    6453: a4 09        	ldy	$9                      ; 0x2009 <__heap_default_limit+0x1009>
    6455: 84 06        	sty	$6                      ; 0x2006 <__heap_default_limit+0x1006>
    6457: 86 07        	stx	$7                      ; 0x2007 <__heap_default_limit+0x1007>
    6459: a0 01        	ldy	#$1
    645b: a5 08        	lda	$8                      ; 0x2008 <__heap_default_limit+0x1008>
    645d: 91 06        	sta	($6),y                  ; 0x2006 <__heap_default_limit+0x1006>
    645f: 64 17        	stz	$17                     ; 0x2017 <next_line+0x2>
    6461: a0 47        	ldy	#$47
    6463: b1 1c        	lda	($1c),y                 ; 0x201c <next_line+0x7>
    6465: 85 09        	sta	$9                      ; 0x2009 <__heap_default_limit+0x1009>
    6467: a5 05        	lda	$5                      ; 0x2005 <__heap_default_limit+0x1005>
    6469: 09 08        	ora	#$8
    646b: a2 0e        	ldx	#$e
    646d: a0 03        	ldy	#$3
    646f: 85 05        	sta	$5                      ; 0x2005 <__heap_default_limit+0x1005>
    6471: 86 06        	stx	$6                      ; 0x2006 <__heap_default_limit+0x1006>
    6473: 64 07        	stz	$7                      ; 0x2007 <__heap_default_limit+0x1007>
    6475: a6 16        	ldx	$16                     ; 0x2016 <next_line+0x1>
    6477: 86 08        	stx	$8                      ; 0x2008 <__heap_default_limit+0x1008>
    6479: 84 0a        	sty	$a                      ; 0x200a <__heap_default_limit+0x100a>
    647b: a6 0c        	ldx	$c                      ; 0x200c <__heap_default_limit+0x100c>
    647d: a9 00        	lda	#$0
    647f: 20 85 4d     	jsr	$4d85 <readblockchain>
    6482: c9 02        	cmp	#$2
    6484: 90 05        	bcc	$648b <donehypreaddir13+0x271>
    6486: a9 ff        	lda	#$ff
    6488: 4c 1d 65     	jmp	$651d <donehypclosedir14+0x3d>
    648b: a2 70        	ldx	#$70
    648d: a9 71        	lda	#$71
    648f: a0 00        	ldy	#$0
    6491: 84 18        	sty	$18                     ; 0x2018 <next_line+0x3>
    6493: a0 00        	ldy	#$0
    6495: 84 19        	sty	$19                     ; 0x2019 <next_line+0x4>
    6497: 86 16        	stx	$16                     ; 0x2016 <next_line+0x1>
    6499: a6 17        	ldx	$17                     ; 0x2017 <next_line+0x2>
    649b: 30 e9        	bmi	$6486 <donehypreaddir13+0x26c>
    649d: 3a           	dec
    649e: 85 1a        	sta	$1a                     ; 0x201a <next_line+0x5>
    64a0: aa           	tax
    64a1: a5 1e        	lda	$1e                     ; 0x201e <next_line+0x9>
    64a3: 20 66 54     	jsr	$5466 <getdirententry>
    64a6: a6 05        	ldx	$5                      ; 0x2005 <__heap_default_limit+0x1005>
    64a8: a0 ff        	ldy	#$ff
    64aa: c6 16        	dec	$16                     ; 0x2016 <next_line+0x1>
    64ac: c4 16        	cpy	$16                     ; 0x2016 <next_line+0x1>
    64ae: d0 02        	bne	$64b2 <donehypreaddir13+0x298>
    64b0: c6 17        	dec	$17                     ; 0x2017 <next_line+0x2>
    64b2: e4 19        	cpx	$19                     ; 0x2019 <next_line+0x4>
    64b4: f0 03        	beq	$64b9 <donehypreaddir13+0x29f>
    64b6: 4c 1b 65     	jmp	$651b <donehypclosedir14+0x3b>
    64b9: a6 04        	ldx	$4                      ; 0x2004 <__heap_default_limit+0x1004>
    64bb: a5 1a        	lda	$1a                     ; 0x201a <next_line+0x5>
    64bd: e4 18        	cpx	$18                     ; 0x2018 <next_line+0x3>
    64bf: f0 d8        	beq	$6499 <donehypreaddir13+0x27f>
    64c1: 4c 1d 65     	jmp	$651d <donehypclosedir14+0x3d>
    64c4: 98           	tya
    64c5: 80 1c        	bra	$64e3 <donehypclosedir14+0x3>
    64c7: c6 16        	dec	$16                     ; 0x2016 <next_line+0x1>
    64c9: a5 16        	lda	$16                     ; 0x2016 <next_line+0x1>
    64cb: a0 0c        	ldy	#$c
    64cd: 91 02        	sta	($2),y                  ; 0x2002 <__heap_default_limit+0x1002>
    64cf: a6 1e        	ldx	$1e                     ; 0x201e <next_line+0x9>
    64d1: a9 16        	lda	#$16
    64d3: 8d 40 d6     	sta	$d640                   ; 0xd640 <__heap_start+0x56aa>
    64d6: b8           	clv
    64d7: 90 05        	bcc	$64de <errhypclosedir14>
    64d9: 86 04        	stx	$4                      ; 0x2004 <__heap_default_limit+0x1004>
    64db: 4c e0 64     	jmp	$64e0 <donehypclosedir14>

000064de <errhypclosedir14>:
    64de: 85 04        	sta	$4                      ; 0x2004 <__heap_default_limit+0x1004>

000064e0 <donehypclosedir14>:
    64e0: ea           	nop
    64e1: a5 20        	lda	$20                     ; 0x2020 <next_line+0xb>
    64e3: a0 02        	ldy	#$2
    64e5: aa           	tax
    64e6: 5a           	phy
    64e7: a0 0c        	ldy	#$c
    64e9: b1 02        	lda	($2),y                  ; 0x2002 <__heap_default_limit+0x1002>
    64eb: 7a           	ply
    64ec: 91 1c        	sta	($1c),y                 ; 0x201c <next_line+0x7>
    64ee: a0 44        	ldy	#$44
    64f0: 18           	clc
    64f1: 5a           	phy
    64f2: a0 0e        	ldy	#$e
    64f4: b1 02        	lda	($2),y                  ; 0x2002 <__heap_default_limit+0x1002>
    64f6: 7a           	ply
    64f7: 69 44        	adc	#$44
    64f9: 85 04        	sta	$4                      ; 0x2004 <__heap_default_limit+0x1004>
    64fb: 8a           	txa
    64fc: 69 00        	adc	#$0
    64fe: 85 05        	sta	$5                      ; 0x2005 <__heap_default_limit+0x1005>
    6500: a9 ff        	lda	#$ff
    6502: 91 1c        	sta	($1c),y                 ; 0x201c <next_line+0x7>
    6504: a0 01        	ldy	#$1
    6506: 91 04        	sta	($4),y                  ; 0x2004 <__heap_default_limit+0x1004>
    6508: a0 0d        	ldy	#$d
    650a: b1 02        	lda	($2),y                  ; 0x2002 <__heap_default_limit+0x1002>
    650c: f0 13        	beq	$6521 <donehypclosedir14+0x41>
    650e: a9 fe        	lda	#$fe
    6510: a0 44        	ldy	#$44
    6512: 91 1c        	sta	($1c),y                 ; 0x201c <next_line+0x7>
    6514: 1a           	inc
    6515: a0 01        	ldy	#$1
    6517: 91 04        	sta	($4),y                  ; 0x2004 <__heap_default_limit+0x1004>
    6519: 80 06        	bra	$6521 <donehypclosedir14+0x41>
    651b: a5 1a        	lda	$1a                     ; 0x201a <next_line+0x5>
    651d: a0 02        	ldy	#$2
    651f: 91 1c        	sta	($1c),y                 ; 0x201c <next_line+0x7>
    6521: a0 00        	ldy	#$0
    6523: b1 02        	lda	($2),y                  ; 0x2002 <__heap_default_limit+0x1002>
    6525: 85 21        	sta	$21                     ; 0x2021 <_start>
    6527: c8           	iny
    6528: b1 02        	lda	($2),y                  ; 0x2002 <__heap_default_limit+0x1002>
    652a: 85 20        	sta	$20                     ; 0x2020 <next_line+0xb>
    652c: c8           	iny
    652d: b1 02        	lda	($2),y                  ; 0x2002 <__heap_default_limit+0x1002>
    652f: 85 1f        	sta	$1f                     ; 0x201f <next_line+0xa>
    6531: c8           	iny
    6532: b1 02        	lda	($2),y                  ; 0x2002 <__heap_default_limit+0x1002>
    6534: 85 1e        	sta	$1e                     ; 0x201e <next_line+0x9>
    6536: c8           	iny
    6537: b1 02        	lda	($2),y                  ; 0x2002 <__heap_default_limit+0x1002>
    6539: 85 1d        	sta	$1d                     ; 0x201d <next_line+0x8>
    653b: c8           	iny
    653c: b1 02        	lda	($2),y                  ; 0x2002 <__heap_default_limit+0x1002>
    653e: 85 1c        	sta	$1c                     ; 0x201c <next_line+0x7>
    6540: c8           	iny
    6541: b1 02        	lda	($2),y                  ; 0x2002 <__heap_default_limit+0x1002>
    6543: 85 1b        	sta	$1b                     ; 0x201b <next_line+0x6>
    6545: c8           	iny
    6546: b1 02        	lda	($2),y                  ; 0x2002 <__heap_default_limit+0x1002>
    6548: 85 1a        	sta	$1a                     ; 0x201a <next_line+0x5>
    654a: fa           	plx
    654b: 86 19        	stx	$19                     ; 0x2019 <next_line+0x4>
    654d: fa           	plx
    654e: 86 18        	stx	$18                     ; 0x2018 <next_line+0x3>
    6550: fa           	plx
    6551: 86 17        	stx	$17                     ; 0x2017 <next_line+0x2>
    6553: fa           	plx
    6554: 86 16        	stx	$16                     ; 0x2016 <next_line+0x1>
    6556: 18           	clc
    6557: a5 02        	lda	$2                      ; 0x2002 <__heap_default_limit+0x1002>
    6559: 69 0f        	adc	#$f
    655b: 85 02        	sta	$2                      ; 0x2002 <__heap_default_limit+0x1002>
    655d: a5 03        	lda	$3                      ; 0x2003 <__heap_default_limit+0x1003>
    655f: 69 00        	adc	#$0
    6561: 85 03        	sta	$3                      ; 0x2003 <__heap_default_limit+0x1003>
    6563: 60           	rts

00006564 <Deselect>:
    6564: 0a           	asl
    6565: a0 00        	ldy	#$0
    6567: 64 04        	stz	$4                      ; 0x2004 <__heap_default_limit+0x1004>
    6569: 26 04        	rol	$4                      ; 0x2004 <__heap_default_limit+0x1004>
    656b: 0a           	asl
    656c: 26 04        	rol	$4                      ; 0x2004 <__heap_default_limit+0x1004>
    656e: 0a           	asl
    656f: 26 04        	rol	$4                      ; 0x2004 <__heap_default_limit+0x1004>
    6571: 0a           	asl
    6572: 85 05        	sta	$5                      ; 0x2005 <__heap_default_limit+0x1005>
    6574: 26 04        	rol	$4                      ; 0x2004 <__heap_default_limit+0x1004>
    6576: 0a           	asl
    6577: a6 04        	ldx	$4                      ; 0x2004 <__heap_default_limit+0x1004>
    6579: 86 07        	stx	$7                      ; 0x2007 <__heap_default_limit+0x1007>
    657b: 26 07        	rol	$7                      ; 0x2007 <__heap_default_limit+0x1007>
    657d: 0a           	asl
    657e: 26 07        	rol	$7                      ; 0x2007 <__heap_default_limit+0x1007>
    6580: 0a           	asl
    6581: 26 07        	rol	$7                      ; 0x2007 <__heap_default_limit+0x1007>
    6583: 38           	sec
    6584: e5 05        	sbc	$5                      ; 0x2005 <__heap_default_limit+0x1005>
    6586: 85 05        	sta	$5                      ; 0x2005 <__heap_default_limit+0x1005>
    6588: a5 07        	lda	$7                      ; 0x2007 <__heap_default_limit+0x1007>
    658a: e5 04        	sbc	$4                      ; 0x2004 <__heap_default_limit+0x1004>
    658c: 85 04        	sta	$4                      ; 0x2004 <__heap_default_limit+0x1004>
    658e: a9 56        	lda	#$56
    6590: 18           	clc
    6591: 65 05        	adc	$5                      ; 0x2005 <__heap_default_limit+0x1005>
    6593: aa           	tax
    6594: a9 7b        	lda	#$7b
    6596: 65 04        	adc	$4                      ; 0x2004 <__heap_default_limit+0x1004>
    6598: 86 04        	stx	$4                      ; 0x2004 <__heap_default_limit+0x1004>
    659a: 85 05        	sta	$5                      ; 0x2005 <__heap_default_limit+0x1005>
    659c: 80 07        	bra	$65a5 <Deselect+0x41>
    659e: a9 fe        	lda	#$fe
    65a0: 31 04        	and	($4),y                  ; 0x2004 <__heap_default_limit+0x1004>
    65a2: 91 04        	sta	($4),y                  ; 0x2004 <__heap_default_limit+0x1004>
    65a4: c8           	iny
    65a5: c0 70        	cpy	#$70
    65a7: d0 f5        	bne	$659e <Deselect+0x3a>
    65a9: 60           	rts

000065aa <sizeselectcurrentifnone>:
    65aa: 85 48        	sta	$48                     ; 0x2048 <__after_main>
    65ac: 0a           	asl
    65ad: aa           	tax
    65ae: a9 00        	lda	#$0
    65b0: 2a           	rol
    65b1: 85 04        	sta	$4                      ; 0x2004 <__heap_default_limit+0x1004>
    65b3: 8a           	txa
    65b4: 86 4e        	stx	$4e                     ; 0x204e <_fini+0x3>
    65b6: 0a           	asl
    65b7: a6 04        	ldx	$4                      ; 0x2004 <__heap_default_limit+0x1004>
    65b9: 86 4f        	stx	$4f                     ; 0x204f <_fini+0x4>
    65bb: 26 04        	rol	$4                      ; 0x2004 <__heap_default_limit+0x1004>
    65bd: 0a           	asl
    65be: 26 04        	rol	$4                      ; 0x2004 <__heap_default_limit+0x1004>
    65c0: 0a           	asl
    65c1: 85 05        	sta	$5                      ; 0x2005 <__heap_default_limit+0x1005>
    65c3: 26 04        	rol	$4                      ; 0x2004 <__heap_default_limit+0x1004>
    65c5: a6 04        	ldx	$4                      ; 0x2004 <__heap_default_limit+0x1004>
    65c7: 86 06        	stx	$6                      ; 0x2006 <__heap_default_limit+0x1006>
    65c9: 0a           	asl
    65ca: a6 04        	ldx	$4                      ; 0x2004 <__heap_default_limit+0x1004>
    65cc: 86 07        	stx	$7                      ; 0x2007 <__heap_default_limit+0x1007>
    65ce: 26 07        	rol	$7                      ; 0x2007 <__heap_default_limit+0x1007>
    65d0: 0a           	asl
    65d1: 26 07        	rol	$7                      ; 0x2007 <__heap_default_limit+0x1007>
    65d3: 0a           	asl
    65d4: 26 07        	rol	$7                      ; 0x2007 <__heap_default_limit+0x1007>
    65d6: 38           	sec
    65d7: 85 52        	sta	$52                     ; 0x2052 <_fini+0x7>
    65d9: a6 05        	ldx	$5                      ; 0x2005 <__heap_default_limit+0x1005>
    65db: 86 50        	stx	$50                     ; 0x2050 <_fini+0x5>
    65dd: e5 05        	sbc	$5                      ; 0x2005 <__heap_default_limit+0x1005>
    65df: 85 04        	sta	$4                      ; 0x2004 <__heap_default_limit+0x1004>
    65e1: a6 07        	ldx	$7                      ; 0x2007 <__heap_default_limit+0x1007>
    65e3: 86 53        	stx	$53                     ; 0x2053 <_fini+0x8>
    65e5: a5 07        	lda	$7                      ; 0x2007 <__heap_default_limit+0x1007>
    65e7: a6 06        	ldx	$6                      ; 0x2006 <__heap_default_limit+0x1006>
    65e9: 86 51        	stx	$51                     ; 0x2051 <_fini+0x6>
    65eb: e5 06        	sbc	$6                      ; 0x2006 <__heap_default_limit+0x1006>
    65ed: 85 05        	sta	$5                      ; 0x2005 <__heap_default_limit+0x1005>
    65ef: a9 56        	lda	#$56
    65f1: 18           	clc
    65f2: 65 04        	adc	$4                      ; 0x2004 <__heap_default_limit+0x1004>
    65f4: 85 4a        	sta	$4a                     ; 0x204a <__after_main+0x2>
    65f6: a9 7b        	lda	#$7b
    65f8: 65 05        	adc	$5                      ; 0x2005 <__heap_default_limit+0x1005>
    65fa: 85 4b        	sta	$4b                     ; 0x204b <_fini>
    65fc: a9 00        	lda	#$0
    65fe: 64 4c        	stz	$4c                     ; 0x204c <_fini+0x1>
    6600: aa           	tax
    6601: a8           	tay
    6602: 80 03        	bra	$6607 <sizeselectcurrentifnone+0x5d>
    6604: c8           	iny
    6605: a5 49        	lda	$49                     ; 0x2049 <__after_main+0x1>
    6607: c0 70        	cpy	#$70
    6609: d0 03        	bne	$660e <sizeselectcurrentifnone+0x64>
    660b: 4c 75 66     	jmp	$6675 <sizeselectcurrentifnone+0xcb>
    660e: 85 49        	sta	$49                     ; 0x2049 <__after_main+0x1>
    6610: a9 01        	lda	#$1
    6612: 31 4a        	and	($4a),y                 ; 0x204a <__after_main+0x2>
    6614: f0 ee        	beq	$6604 <sizeselectcurrentifnone+0x5a>
    6616: 5a           	phy
    6617: fa           	plx
    6618: a5 48        	lda	$48                     ; 0x2048 <__after_main>
    661a: 84 4d        	sty	$4d                     ; 0x204d <_fini+0x2>
    661c: 20 66 54     	jsr	$5466 <getdirententry>
    661f: a5 04        	lda	$4                      ; 0x2004 <__heap_default_limit+0x1004>
    6621: 18           	clc
    6622: 69 1e        	adc	#$1e
    6624: 85 06        	sta	$6                      ; 0x2006 <__heap_default_limit+0x1006>
    6626: a5 05        	lda	$5                      ; 0x2005 <__heap_default_limit+0x1005>
    6628: 69 00        	adc	#$0
    662a: 85 07        	sta	$7                      ; 0x2007 <__heap_default_limit+0x1007>
    662c: 18           	clc
    662d: a5 49        	lda	$49                     ; 0x2049 <__after_main+0x1>
    662f: a0 1e        	ldy	#$1e
    6631: 71 04        	adc	($4),y                  ; 0x2004 <__heap_default_limit+0x1004>
    6633: 85 49        	sta	$49                     ; 0x2049 <__after_main+0x1>
    6635: a5 4c        	lda	$4c                     ; 0x204c <_fini+0x1>
    6637: a0 01        	ldy	#$1
    6639: 71 06        	adc	($6),y                  ; 0x2006 <__heap_default_limit+0x1006>
    663b: 85 4c        	sta	$4c                     ; 0x204c <_fini+0x1>
    663d: a9 0f        	lda	#$f
    663f: c8           	iny
    6640: 31 04        	and	($4),y                  ; 0x2004 <__heap_default_limit+0x1004>
    6642: a4 4d        	ldy	$4d                     ; 0x204d <_fini+0x2>
    6644: a2 01        	ldx	#$1
    6646: c9 05        	cmp	#$5
    6648: f0 03        	beq	$664d <sizeselectcurrentifnone+0xa3>
    664a: 4c 04 66     	jmp	$6604 <sizeselectcurrentifnone+0x5a>
    664d: a9 00        	lda	#$0
    664f: a2 fe        	ldx	#$fe
    6651: 86 04        	stx	$4                      ; 0x2004 <__heap_default_limit+0x1004>
    6653: a2 74        	ldx	#$74
    6655: 86 05        	stx	$5                      ; 0x2005 <__heap_default_limit+0x1005>
    6657: a2 04        	ldx	#$4
    6659: 86 06        	stx	$6                      ; 0x2006 <__heap_default_limit+0x1006>
    665b: a2 79        	ldx	#$79
    665d: 86 07        	stx	$7                      ; 0x2007 <__heap_default_limit+0x1007>
    665f: a2 fa        	ldx	#$fa
    6661: 86 08        	stx	$8                      ; 0x2008 <__heap_default_limit+0x1008>
    6663: a2 70        	ldx	#$70
    6665: 86 09        	stx	$9                      ; 0x2009 <__heap_default_limit+0x1009>
    6667: 64 0a        	stz	$a                      ; 0x200a <__heap_default_limit+0x100a>
    6669: 64 0b        	stz	$b                      ; 0x200b <__heap_default_limit+0x100b>
    666b: 64 0c        	stz	$c                      ; 0x200c <__heap_default_limit+0x100c>
    666d: aa           	tax
    666e: 20 80 58     	jsr	$5880 <messagebox>
    6671: a9 ff        	lda	#$ff
    6673: aa           	tax
    6674: 60           	rts
    6675: e0 00        	cpx	#$0
    6677: f0 03        	beq	$667c <sizeselectcurrentifnone+0xd2>
    6679: a6 4c        	ldx	$4c                     ; 0x204c <_fini+0x1>
    667b: 60           	rts
    667c: 85 4b        	sta	$4b                     ; 0x204b <_fini>
    667e: a9 27        	lda	#$27
    6680: a6 4e        	ldx	$4e                     ; 0x204e <_fini+0x3>
    6682: 86 04        	stx	$4                      ; 0x2004 <__heap_default_limit+0x1004>
    6684: 18           	clc
    6685: 65 04        	adc	$4                      ; 0x2004 <__heap_default_limit+0x1004>
    6687: a8           	tay
    6688: a6 4f        	ldx	$4f                     ; 0x204f <_fini+0x4>
    668a: 86 04        	stx	$4                      ; 0x2004 <__heap_default_limit+0x1004>
    668c: a9 00        	lda	#$0
    668e: 65 04        	adc	$4                      ; 0x2004 <__heap_default_limit+0x1004>
    6690: 84 04        	sty	$4                      ; 0x2004 <__heap_default_limit+0x1004>
    6692: 85 05        	sta	$5                      ; 0x2005 <__heap_default_limit+0x1005>
    6694: b2 04        	lda	($4),z                  ; 0x2004 <__heap_default_limit+0x1004>
    6696: aa           	tax
    6697: a0 01        	ldy	#$1
    6699: b1 04        	lda	($4),y                  ; 0x2004 <__heap_default_limit+0x1004>
    669b: 86 04        	stx	$4                      ; 0x2004 <__heap_default_limit+0x1004>
    669d: 85 05        	sta	$5                      ; 0x2005 <__heap_default_limit+0x1005>
    669f: 38           	sec
    66a0: a6 50        	ldx	$50                     ; 0x2050 <_fini+0x5>
    66a2: 86 06        	stx	$6                      ; 0x2006 <__heap_default_limit+0x1006>
    66a4: a5 52        	lda	$52                     ; 0x2052 <_fini+0x7>
    66a6: e5 06        	sbc	$6                      ; 0x2006 <__heap_default_limit+0x1006>
    66a8: 85 06        	sta	$6                      ; 0x2006 <__heap_default_limit+0x1006>
    66aa: a6 51        	ldx	$51                     ; 0x2051 <_fini+0x6>
    66ac: 86 07        	stx	$7                      ; 0x2007 <__heap_default_limit+0x1007>
    66ae: a5 53        	lda	$53                     ; 0x2053 <_fini+0x8>
    66b0: e5 07        	sbc	$7                      ; 0x2007 <__heap_default_limit+0x1007>
    66b2: 85 07        	sta	$7                      ; 0x2007 <__heap_default_limit+0x1007>
    66b4: a9 56        	lda	#$56
    66b6: 18           	clc
    66b7: 65 06        	adc	$6                      ; 0x2006 <__heap_default_limit+0x1006>
    66b9: 85 06        	sta	$6                      ; 0x2006 <__heap_default_limit+0x1006>
    66bb: a9 7b        	lda	#$7b
    66bd: 65 07        	adc	$7                      ; 0x2007 <__heap_default_limit+0x1007>
    66bf: 85 07        	sta	$7                      ; 0x2007 <__heap_default_limit+0x1007>
    66c1: b1 04        	lda	($4),y                  ; 0x2004 <__heap_default_limit+0x1004>
    66c3: a8           	tay
    66c4: a9 01        	lda	#$1
    66c6: 11 06        	ora	($6),y                  ; 0x2006 <__heap_default_limit+0x1006>
    66c8: 91 06        	sta	($6),y                  ; 0x2006 <__heap_default_limit+0x1006>
    66ca: 5a           	phy
    66cb: fa           	plx
    66cc: a5 48        	lda	$48                     ; 0x2048 <__after_main>
    66ce: 20 66 54     	jsr	$5466 <getdirententry>
    66d1: a5 04        	lda	$4                      ; 0x2004 <__heap_default_limit+0x1004>
    66d3: 18           	clc
    66d4: 69 1e        	adc	#$1e
    66d6: 85 06        	sta	$6                      ; 0x2006 <__heap_default_limit+0x1006>
    66d8: a5 05        	lda	$5                      ; 0x2005 <__heap_default_limit+0x1005>
    66da: 69 00        	adc	#$0
    66dc: 85 07        	sta	$7                      ; 0x2007 <__heap_default_limit+0x1007>
    66de: a5 4b        	lda	$4b                     ; 0x204b <_fini>
    66e0: a0 1e        	ldy	#$1e
    66e2: 18           	clc
    66e3: 71 04        	adc	($4),y                  ; 0x2004 <__heap_default_limit+0x1004>
    66e5: 85 04        	sta	$4                      ; 0x2004 <__heap_default_limit+0x1004>
    66e7: a5 4c        	lda	$4c                     ; 0x204c <_fini+0x1>
    66e9: a0 01        	ldy	#$1
    66eb: 71 06        	adc	($6),y                  ; 0x2006 <__heap_default_limit+0x1006>
    66ed: aa           	tax
    66ee: a5 04        	lda	$4                      ; 0x2004 <__heap_default_limit+0x1004>
    66f0: 60           	rts

000066f1 <sidbong>:
    66f1: a2 1f        	ldx	#$1f
    66f3: 8e 02 d4     	stx	$d402                   ; 0xd402 <__heap_start+0x546c>
    66f6: 64 05        	stz	$5                      ; 0x2005 <__heap_default_limit+0x1005>
    66f8: 9c 03 d4     	stz	$d403                   ; 0xd403 <__heap_start+0x546d>
    66fb: a9 09        	lda	#$9
    66fd: 8d 05 d4     	sta	$d405                   ; 0xd405 <__heap_start+0x546f>
    6700: a0 25        	ldy	#$25
    6702: 8c 00 d4     	sty	$d400                   ; 0xd400 <__heap_start+0x546a>
    6705: a0 11        	ldy	#$11
    6707: 8c 01 d4     	sty	$d401                   ; 0xd401 <__heap_start+0x546b>
    670a: 8c 04 d4     	sty	$d404                   ; 0xd404 <__heap_start+0x546e>
    670d: 8e 42 d4     	stx	$d442                   ; 0xd442 <__heap_start+0x54ac>
    6710: 9c 43 d4     	stz	$d443                   ; 0xd443 <__heap_start+0x54ad>
    6713: 8d 45 d4     	sta	$d445                   ; 0xd445 <__heap_start+0x54af>
    6716: a2 9a        	ldx	#$9a
    6718: 8e 40 d4     	stx	$d440                   ; 0xd440 <__heap_start+0x54aa>
    671b: a2 15        	ldx	#$15
    671d: 8e 41 d4     	stx	$d441                   ; 0xd441 <__heap_start+0x54ab>
    6720: 8c 44 d4     	sty	$d444                   ; 0xd444 <__heap_start+0x54ae>
    6723: a9 40        	lda	#$40
    6725: a2 0d        	ldx	#$d
    6727: a0 03        	ldy	#$3
    6729: 84 04        	sty	$4                      ; 0x2004 <__heap_default_limit+0x1004>
    672b: 20 55 6a     	jsr	$6a55 <usleep>
    672e: a2 10        	ldx	#$10
    6730: 8e 04 d4     	stx	$d404                   ; 0xd404 <__heap_start+0x546e>
    6733: 8e 44 d4     	stx	$d444                   ; 0xd444 <__heap_start+0x54ae>
    6736: 60           	rts

00006737 <escNOP>:
    6737: 60           	rts

00006738 <cputc>:
    6738: 85 04        	sta	$4                      ; 0x2004 <__heap_default_limit+0x1004>
    673a: a5 32        	lda	$32                     ; 0x2032 <__do_init_stack+0x3>
    673c: a6 33        	ldx	$33                     ; 0x2033 <__do_init_stack+0x4>
    673e: 4c 41 67     	jmp	$6741 <cputcxy>

00006741 <cputcxy>:
    6741: 85 77        	sta	$77                     ; 0x2077 <lprestore+0x2>
    6743: a4 04        	ldy	$4                      ; 0x2004 <__heap_default_limit+0x1004>
    6745: 84 78        	sty	$78                     ; 0x2078 <lprestore+0x3>
    6747: a5 30        	lda	$30                     ; 0x2030 <__do_init_stack+0x1>
    6749: 86 76        	stx	$76                     ; 0x2076 <lprestore+0x1>
    674b: 86 04        	stx	$4                      ; 0x2004 <__heap_default_limit+0x1004>
    674d: 64 05        	stz	$5                      ; 0x2005 <__heap_default_limit+0x1005>
    674f: a2 00        	ldx	#$0
    6751: 64 74        	stz	$74                     ; 0x2074 <lpstore+0x1a>
    6753: 20 4e 6b     	jsr	$6b4e <__mulhi3>
    6756: 18           	clc
    6757: 65 77        	adc	$77                     ; 0x2077 <lprestore+0x2>
    6759: 85 75        	sta	$75                     ; 0x2075 <lprestore>
    675b: 8a           	txa
    675c: 69 00        	adc	#$0
    675e: 85 73        	sta	$73                     ; 0x2073 <lpstore+0x19>
    6760: ad 63 d0     	lda	$d063                   ; 0xd063 <__heap_start+0x50cd>
    6763: 29 07        	and	#$7
    6765: a8           	tay
    6766: ae 62 d0     	ldx	$d062                   ; 0xd062 <__heap_start+0x50cc>
    6769: 86 06        	stx	$6                      ; 0x2006 <__heap_default_limit+0x1006>
    676b: ae 61 d0     	ldx	$d061                   ; 0xd061 <__heap_start+0x50cb>
    676e: 86 04        	stx	$4                      ; 0x2004 <__heap_default_limit+0x1004>
    6770: ae 60 d0     	ldx	$d060                   ; 0xd060 <__heap_start+0x50ca>
    6773: 86 05        	stx	$5                      ; 0x2005 <__heap_default_limit+0x1005>
    6775: a5 75        	lda	$75                     ; 0x2075 <lprestore>
    6777: 18           	clc
    6778: 69 00        	adc	#$0
    677a: aa           	tax
    677b: a5 73        	lda	$73                     ; 0x2073 <lpstore+0x19>
    677d: 65 04        	adc	$4                      ; 0x2004 <__heap_default_limit+0x1004>
    677f: 85 07        	sta	$7                      ; 0x2007 <__heap_default_limit+0x1007>
    6781: a5 06        	lda	$6                      ; 0x2006 <__heap_default_limit+0x1006>
    6783: 69 00        	adc	#$0
    6785: 85 04        	sta	$4                      ; 0x2004 <__heap_default_limit+0x1004>
    6787: 98           	tya
    6788: 69 00        	adc	#$0
    678a: 85 06        	sta	$6                      ; 0x2006 <__heap_default_limit+0x1006>
    678c: 8a           	txa
    678d: 18           	clc
    678e: 65 05        	adc	$5                      ; 0x2005 <__heap_default_limit+0x1005>
    6790: a8           	tay
    6791: a5 07        	lda	$7                      ; 0x2007 <__heap_default_limit+0x1007>
    6793: 69 00        	adc	#$0
    6795: 85 07        	sta	$7                      ; 0x2007 <__heap_default_limit+0x1007>
    6797: a5 04        	lda	$4                      ; 0x2004 <__heap_default_limit+0x1004>
    6799: 69 00        	adc	#$0
    679b: 85 04        	sta	$4                      ; 0x2004 <__heap_default_limit+0x1004>
    679d: a5 06        	lda	$6                      ; 0x2006 <__heap_default_limit+0x1006>
    679f: 69 00        	adc	#$0
    67a1: 85 05        	sta	$5                      ; 0x2005 <__heap_default_limit+0x1005>
    67a3: a6 78        	ldx	$78                     ; 0x2078 <lprestore+0x3>
    67a5: 86 06        	stx	$6                      ; 0x2006 <__heap_default_limit+0x1006>
    67a7: a6 07        	ldx	$7                      ; 0x2007 <__heap_default_limit+0x1007>
    67a9: 98           	tya
    67aa: 20 90 20     	jsr	$2090 <lpoke>
    67ad: a6 2b        	ldx	$2b                     ; 0x202b <_start+0xa>
    67af: a0 f8        	ldy	#$f8
    67b1: a9 0f        	lda	#$f
    67b3: 84 04        	sty	$4                      ; 0x2004 <__heap_default_limit+0x1004>
    67b5: 85 05        	sta	$5                      ; 0x2005 <__heap_default_limit+0x1005>
    67b7: 86 06        	stx	$6                      ; 0x2006 <__heap_default_limit+0x1006>
    67b9: a6 73        	ldx	$73                     ; 0x2073 <lpstore+0x19>
    67bb: a5 75        	lda	$75                     ; 0x2075 <lprestore>
    67bd: 20 90 20     	jsr	$2090 <lpoke>
    67c0: a6 30        	ldx	$30                     ; 0x2030 <__do_init_stack+0x1>
    67c2: ca           	dex
    67c3: e0 ff        	cpx	#$ff
    67c5: d0 02        	bne	$67c9 <cputcxy+0x88>
    67c7: c6 74        	dec	$74                     ; 0x2074 <lpstore+0x1a>
    67c9: a5 74        	lda	$74                     ; 0x2074 <lpstore+0x1a>
    67cb: d0 0b        	bne	$67d8 <cputcxy+0x97>
    67cd: e4 77        	cpx	$77                     ; 0x2077 <lprestore+0x2>
    67cf: d0 07        	bne	$67d8 <cputcxy+0x97>
    67d1: a4 76        	ldy	$76                     ; 0x2076 <lprestore+0x1>
    67d3: c8           	iny
    67d4: a2 00        	ldx	#$0
    67d6: 80 05        	bra	$67dd <cputcxy+0x9c>
    67d8: a4 76        	ldy	$76                     ; 0x2076 <lprestore+0x1>
    67da: a6 77        	ldx	$77                     ; 0x2077 <lprestore+0x2>
    67dc: e8           	inx
    67dd: 86 32        	stx	$32                     ; 0x2032 <__do_init_stack+0x3>
    67df: 84 33        	sty	$33                     ; 0x2033 <__do_init_stack+0x4>
    67e1: 60           	rts

000067e2 <cputs>:
    67e2: a5 32        	lda	$32                     ; 0x2032 <__do_init_stack+0x3>
    67e4: a6 33        	ldx	$33                     ; 0x2033 <__do_init_stack+0x4>
    67e6: 4c e9 67     	jmp	$67e9 <cputsxy>

000067e9 <cputsxy>:
    67e9: 85 7e        	sta	$7e                     ; 0x207e <lprestore+0x9>
    67eb: 86 7d        	stx	$7d                     ; 0x207d <lprestore+0x8>
    67ed: a6 04        	ldx	$4                      ; 0x2004 <__heap_default_limit+0x1004>
    67ef: 86 06        	stx	$6                      ; 0x2006 <__heap_default_limit+0x1006>
    67f1: a6 05        	ldx	$5                      ; 0x2005 <__heap_default_limit+0x1005>
    67f3: 86 07        	stx	$7                      ; 0x2007 <__heap_default_limit+0x1007>
    67f5: a6 06        	ldx	$6                      ; 0x2006 <__heap_default_limit+0x1006>
    67f7: 86 7b        	stx	$7b                     ; 0x207b <lprestore+0x6>
    67f9: a6 07        	ldx	$7                      ; 0x2007 <__heap_default_limit+0x1007>
    67fb: 86 7c        	stx	$7c                     ; 0x207c <lprestore+0x7>
    67fd: 20 f4 6a     	jsr	$6af4 <strlen>
    6800: 85 7a        	sta	$7a                     ; 0x207a <lprestore+0x5>
    6802: a5 30        	lda	$30                     ; 0x2030 <__do_init_stack+0x1>
    6804: a6 7d        	ldx	$7d                     ; 0x207d <lprestore+0x8>
    6806: 86 04        	stx	$4                      ; 0x2004 <__heap_default_limit+0x1004>
    6808: 64 05        	stz	$5                      ; 0x2005 <__heap_default_limit+0x1005>
    680a: a2 00        	ldx	#$0
    680c: 20 4e 6b     	jsr	$6b4e <__mulhi3>
    680f: 86 05        	stx	$5                      ; 0x2005 <__heap_default_limit+0x1005>
    6811: a6 7e        	ldx	$7e                     ; 0x207e <lprestore+0x9>
    6813: 86 04        	stx	$4                      ; 0x2004 <__heap_default_limit+0x1004>
    6815: 18           	clc
    6816: 65 04        	adc	$4                      ; 0x2004 <__heap_default_limit+0x1004>
    6818: a8           	tay
    6819: 85 80        	sta	$80                     ; 0x2080 <lprestore+0xb>
    681b: a5 05        	lda	$5                      ; 0x2005 <__heap_default_limit+0x1005>
    681d: 69 00        	adc	#$0
    681f: 85 7f        	sta	$7f                     ; 0x207f <lprestore+0xa>
    6821: ad 63 d0     	lda	$d063                   ; 0xd063 <__heap_start+0x50cd>
    6824: 29 07        	and	#$7
    6826: 85 08        	sta	$8                      ; 0x2008 <__heap_default_limit+0x1008>
    6828: ae 62 d0     	ldx	$d062                   ; 0xd062 <__heap_start+0x50cc>
    682b: 86 07        	stx	$7                      ; 0x2007 <__heap_default_limit+0x1007>
    682d: ae 61 d0     	ldx	$d061                   ; 0xd061 <__heap_start+0x50cb>
    6830: 86 04        	stx	$4                      ; 0x2004 <__heap_default_limit+0x1004>
    6832: ae 60 d0     	ldx	$d060                   ; 0xd060 <__heap_start+0x50ca>
    6835: 86 05        	stx	$5                      ; 0x2005 <__heap_default_limit+0x1005>
    6837: 18           	clc
    6838: 98           	tya
    6839: 69 00        	adc	#$0
    683b: a8           	tay
    683c: a6 7f        	ldx	$7f                     ; 0x207f <lprestore+0xa>
    683e: 8a           	txa
    683f: 65 04        	adc	$4                      ; 0x2004 <__heap_default_limit+0x1004>
    6841: 85 09        	sta	$9                      ; 0x2009 <__heap_default_limit+0x1009>
    6843: a5 07        	lda	$7                      ; 0x2007 <__heap_default_limit+0x1007>
    6845: 69 00        	adc	#$0
    6847: 85 04        	sta	$4                      ; 0x2004 <__heap_default_limit+0x1004>
    6849: a5 08        	lda	$8                      ; 0x2008 <__heap_default_limit+0x1008>
    684b: 69 00        	adc	#$0
    684d: aa           	tax
    684e: 18           	clc
    684f: 98           	tya
    6850: 65 05        	adc	$5                      ; 0x2005 <__heap_default_limit+0x1005>
    6852: 85 06        	sta	$6                      ; 0x2006 <__heap_default_limit+0x1006>
    6854: a5 09        	lda	$9                      ; 0x2009 <__heap_default_limit+0x1009>
    6856: 69 00        	adc	#$0
    6858: 85 07        	sta	$7                      ; 0x2007 <__heap_default_limit+0x1007>
    685a: a5 04        	lda	$4                      ; 0x2004 <__heap_default_limit+0x1004>
    685c: 69 00        	adc	#$0
    685e: 85 08        	sta	$8                      ; 0x2008 <__heap_default_limit+0x1008>
    6860: 8a           	txa
    6861: 69 00        	adc	#$0
    6863: 64 04        	stz	$4                      ; 0x2004 <__heap_default_limit+0x1004>
    6865: 64 05        	stz	$5                      ; 0x2005 <__heap_default_limit+0x1005>
    6867: 85 09        	sta	$9                      ; 0x2009 <__heap_default_limit+0x1009>
    6869: a6 7a        	ldx	$7a                     ; 0x207a <lprestore+0x5>
    686b: 86 0a        	stx	$a                      ; 0x200a <__heap_default_limit+0x100a>
    686d: 64 0b        	stz	$b                      ; 0x200b <__heap_default_limit+0x100b>
    686f: a6 7b        	ldx	$7b                     ; 0x207b <lprestore+0x6>
    6871: 86 0c        	stx	$c                      ; 0x200c <__heap_default_limit+0x100c>
    6873: a6 7c        	ldx	$7c                     ; 0x207c <lprestore+0x7>
    6875: a5 0c        	lda	$c                      ; 0x200c <__heap_default_limit+0x100c>
    6877: 20 9e 69     	jsr	$699e <lcopy>
    687a: a6 2b        	ldx	$2b                     ; 0x202b <_start+0xa>
    687c: a0 f8        	ldy	#$f8
    687e: a9 0f        	lda	#$f
    6880: 84 04        	sty	$4                      ; 0x2004 <__heap_default_limit+0x1004>
    6882: 85 05        	sta	$5                      ; 0x2005 <__heap_default_limit+0x1005>
    6884: 86 06        	stx	$6                      ; 0x2006 <__heap_default_limit+0x1006>
    6886: a6 7a        	ldx	$7a                     ; 0x207a <lprestore+0x5>
    6888: 86 07        	stx	$7                      ; 0x2007 <__heap_default_limit+0x1007>
    688a: 64 08        	stz	$8                      ; 0x2008 <__heap_default_limit+0x1008>
    688c: a6 7f        	ldx	$7f                     ; 0x207f <lprestore+0xa>
    688e: a5 80        	lda	$80                     ; 0x2080 <lprestore+0xb>
    6890: 20 05 6a     	jsr	$6a05 <lfill>
    6893: a5 7a        	lda	$7a                     ; 0x207a <lprestore+0x5>
    6895: a6 7e        	ldx	$7e                     ; 0x207e <lprestore+0x9>
    6897: 86 04        	stx	$4                      ; 0x2004 <__heap_default_limit+0x1004>
    6899: 18           	clc
    689a: 65 04        	adc	$4                      ; 0x2004 <__heap_default_limit+0x1004>
    689c: 85 08        	sta	$8                      ; 0x2008 <__heap_default_limit+0x1008>
    689e: a9 00        	lda	#$0
    68a0: 69 00        	adc	#$0
    68a2: a6 30        	ldx	$30                     ; 0x2030 <__do_init_stack+0x1>
    68a4: a0 78        	ldy	#$78
    68a6: 84 06        	sty	$6                      ; 0x2006 <__heap_default_limit+0x1006>
    68a8: a0 00        	ldy	#$0
    68aa: 84 07        	sty	$7                      ; 0x2007 <__heap_default_limit+0x1007>
    68ac: 86 04        	stx	$4                      ; 0x2004 <__heap_default_limit+0x1004>
    68ae: 64 05        	stz	$5                      ; 0x2005 <__heap_default_limit+0x1005>
    68b0: aa           	tax
    68b1: a5 08        	lda	$8                      ; 0x2008 <__heap_default_limit+0x1008>
    68b3: 20 f6 6c     	jsr	$6cf6 <__udivmodhi4>
    68b6: a6 78        	ldx	$78                     ; 0x2078 <lprestore+0x3>
    68b8: 18           	clc
    68b9: a4 7d        	ldy	$7d                     ; 0x207d <lprestore+0x8>
    68bb: 84 04        	sty	$4                      ; 0x2004 <__heap_default_limit+0x1004>
    68bd: 65 04        	adc	$4                      ; 0x2004 <__heap_default_limit+0x1004>
    68bf: 85 33        	sta	$33                     ; 0x2033 <__do_init_stack+0x4>
    68c1: 86 32        	stx	$32                     ; 0x2032 <__do_init_stack+0x3>
    68c3: 60           	rts

000068c4 <fillrect>:
    68c4: a6 04        	ldx	$4                      ; 0x2004 <__heap_default_limit+0x1004>
    68c6: 86 73        	stx	$73                     ; 0x2073 <lpstore+0x19>
    68c8: a6 05        	ldx	$5                      ; 0x2005 <__heap_default_limit+0x1005>
    68ca: 86 74        	stx	$74                     ; 0x2074 <lpstore+0x1a>
    68cc: a0 02        	ldy	#$2
    68ce: b1 04        	lda	($4),y                  ; 0x2004 <__heap_default_limit+0x1004>
    68d0: 38           	sec
    68d1: f2 04        	sbc	($4),z                  ; 0x2004 <__heap_default_limit+0x1004>
    68d3: 85 76        	sta	$76                     ; 0x2076 <lprestore+0x1>
    68d5: 88           	dey
    68d6: b1 04        	lda	($4),y                  ; 0x2004 <__heap_default_limit+0x1004>
    68d8: 85 75        	sta	$75                     ; 0x2075 <lprestore>
    68da: 4c 62 69     	jmp	$6962 <fillrect+0x9e>
    68dd: a5 30        	lda	$30                     ; 0x2030 <__do_init_stack+0x1>
    68df: a6 75        	ldx	$75                     ; 0x2075 <lprestore>
    68e1: 86 04        	stx	$4                      ; 0x2004 <__heap_default_limit+0x1004>
    68e3: 64 05        	stz	$5                      ; 0x2005 <__heap_default_limit+0x1005>
    68e5: a2 00        	ldx	#$0
    68e7: 20 4e 6b     	jsr	$6b4e <__mulhi3>
    68ea: 18           	clc
    68eb: 72 73        	adc	($73),z                 ; 0x2073 <lpstore+0x19>
    68ed: 85 77        	sta	$77                     ; 0x2077 <lprestore+0x2>
    68ef: 8a           	txa
    68f0: 69 00        	adc	#$0
    68f2: 85 78        	sta	$78                     ; 0x2078 <lprestore+0x3>
    68f4: ad 63 d0     	lda	$d063                   ; 0xd063 <__heap_start+0x50cd>
    68f7: 29 07        	and	#$7
    68f9: a8           	tay
    68fa: ae 62 d0     	ldx	$d062                   ; 0xd062 <__heap_start+0x50cc>
    68fd: 86 07        	stx	$7                      ; 0x2007 <__heap_default_limit+0x1007>
    68ff: ae 61 d0     	ldx	$d061                   ; 0xd061 <__heap_start+0x50cb>
    6902: 86 04        	stx	$4                      ; 0x2004 <__heap_default_limit+0x1004>
    6904: ae 60 d0     	ldx	$d060                   ; 0xd060 <__heap_start+0x50ca>
    6907: 86 05        	stx	$5                      ; 0x2005 <__heap_default_limit+0x1005>
    6909: a5 77        	lda	$77                     ; 0x2077 <lprestore+0x2>
    690b: 18           	clc
    690c: 69 00        	adc	#$0
    690e: 85 06        	sta	$6                      ; 0x2006 <__heap_default_limit+0x1006>
    6910: a5 78        	lda	$78                     ; 0x2078 <lprestore+0x3>
    6912: 65 04        	adc	$4                      ; 0x2004 <__heap_default_limit+0x1004>
    6914: 85 08        	sta	$8                      ; 0x2008 <__heap_default_limit+0x1008>
    6916: a5 07        	lda	$7                      ; 0x2007 <__heap_default_limit+0x1007>
    6918: 69 00        	adc	#$0
    691a: 85 04        	sta	$4                      ; 0x2004 <__heap_default_limit+0x1004>
    691c: 98           	tya
    691d: 69 00        	adc	#$0
    691f: aa           	tax
    6920: 18           	clc
    6921: a5 06        	lda	$6                      ; 0x2006 <__heap_default_limit+0x1006>
    6923: 65 05        	adc	$5                      ; 0x2005 <__heap_default_limit+0x1005>
    6925: a8           	tay
    6926: a5 08        	lda	$8                      ; 0x2008 <__heap_default_limit+0x1008>
    6928: 69 00        	adc	#$0
    692a: 85 09        	sta	$9                      ; 0x2009 <__heap_default_limit+0x1009>
    692c: a5 04        	lda	$4                      ; 0x2004 <__heap_default_limit+0x1004>
    692e: 69 00        	adc	#$0
    6930: 85 04        	sta	$4                      ; 0x2004 <__heap_default_limit+0x1004>
    6932: 8a           	txa
    6933: 69 00        	adc	#$0
    6935: 85 05        	sta	$5                      ; 0x2005 <__heap_default_limit+0x1005>
    6937: a2 20        	ldx	#$20
    6939: 86 06        	stx	$6                      ; 0x2006 <__heap_default_limit+0x1006>
    693b: a6 76        	ldx	$76                     ; 0x2076 <lprestore+0x1>
    693d: 86 07        	stx	$7                      ; 0x2007 <__heap_default_limit+0x1007>
    693f: 64 08        	stz	$8                      ; 0x2008 <__heap_default_limit+0x1008>
    6941: a6 09        	ldx	$9                      ; 0x2009 <__heap_default_limit+0x1009>
    6943: 98           	tya
    6944: 20 05 6a     	jsr	$6a05 <lfill>
    6947: a2 f8        	ldx	#$f8
    6949: 86 04        	stx	$4                      ; 0x2004 <__heap_default_limit+0x1004>
    694b: a2 0f        	ldx	#$f
    694d: 86 05        	stx	$5                      ; 0x2005 <__heap_default_limit+0x1005>
    694f: a2 03        	ldx	#$3
    6951: 86 06        	stx	$6                      ; 0x2006 <__heap_default_limit+0x1006>
    6953: a6 76        	ldx	$76                     ; 0x2076 <lprestore+0x1>
    6955: 86 07        	stx	$7                      ; 0x2007 <__heap_default_limit+0x1007>
    6957: 64 08        	stz	$8                      ; 0x2008 <__heap_default_limit+0x1008>
    6959: a6 78        	ldx	$78                     ; 0x2078 <lprestore+0x3>
    695b: a5 77        	lda	$77                     ; 0x2077 <lprestore+0x2>
    695d: 20 05 6a     	jsr	$6a05 <lfill>
    6960: e6 75        	inc	$75                     ; 0x2075 <lprestore>
    6962: a0 03        	ldy	#$3
    6964: b1 73        	lda	($73),y                 ; 0x2073 <lpstore+0x19>
    6966: c5 75        	cmp	$75                     ; 0x2075 <lprestore>
    6968: 90 03        	bcc	$696d <fillrect+0xa9>
    696a: 4c dd 68     	jmp	$68dd <fillrect+0x19>
    696d: 60           	rts

0000696e <cgetc>:
    696e: ad 10 d6     	lda	$d610                   ; 0xd610 <__heap_start+0x567a>
    6971: f0 fb        	beq	$696e <cgetc>
    6973: 9c 10 d6     	stz	$d610                   ; 0xd610 <__heap_start+0x567a>
    6976: 60           	rts

00006977 <do_dma>:
    6977: a2 00        	ldx	#$0
    6979: a0 34        	ldy	#$34
    697b: 84 04        	sty	$4                      ; 0x2004 <__heap_default_limit+0x1004>
    697d: a0 00        	ldy	#$0
    697f: 84 05        	sty	$5                      ; 0x2005 <__heap_default_limit+0x1005>
    6981: a4 04        	ldy	$4                      ; 0x2004 <__heap_default_limit+0x1004>
    6983: a9 47        	lda	#$47
    6985: 8d 2f d0     	sta	$d02f                   ; 0xd02f <__heap_start+0x5099>
    6988: a9 53        	lda	#$53
    698a: 8d 2f d0     	sta	$d02f                   ; 0xd02f <__heap_start+0x5099>
    698d: a9 41        	lda	#$41
    698f: 85 00        	sta	$0                      ; 0x2000 <__heap_default_limit+0x1000>
    6991: 9c 02 d7     	stz	$d702                   ; 0xd702 <__heap_start+0x576c>
    6994: 9c 04 d7     	stz	$d704                   ; 0xd704 <__heap_start+0x576e>
    6997: 8e 01 d7     	stx	$d701                   ; 0xd701 <__heap_start+0x576b>
    699a: 8c 05 d7     	sty	$d705                   ; 0xd705 <__heap_start+0x576f>
    699d: 60           	rts

0000699e <lcopy>:
    699e: 85 0c        	sta	$c                      ; 0x200c <__heap_default_limit+0x100c>
    69a0: 86 0d        	stx	$d                      ; 0x200d <__heap_default_limit+0x100d>
    69a2: a6 0a        	ldx	$a                      ; 0x200a <__heap_default_limit+0x100a>
    69a4: a4 0b        	ldy	$b                      ; 0x200b <__heap_default_limit+0x100b>
    69a6: a9 0b        	lda	#$b
    69a8: 85 34        	sta	$34                     ; 0x2034 <__do_init_stack+0x5>
    69aa: a9 80        	lda	#$80
    69ac: 85 35        	sta	$35                     ; 0x2035 <__do_init_stack+0x6>
    69ae: 46 05        	lsr	$5                      ; 0x2005 <__heap_default_limit+0x1005>
    69b0: a5 04        	lda	$4                      ; 0x2004 <__heap_default_limit+0x1004>
    69b2: 6a           	ror
    69b3: 46 05        	lsr	$5                      ; 0x2005 <__heap_default_limit+0x1005>
    69b5: 6a           	ror
    69b6: 46 05        	lsr	$5                      ; 0x2005 <__heap_default_limit+0x1005>
    69b8: 6a           	ror
    69b9: 46 05        	lsr	$5                      ; 0x2005 <__heap_default_limit+0x1005>
    69bb: 6a           	ror
    69bc: 85 36        	sta	$36                     ; 0x2036 <__do_init_stack+0x7>
    69be: a9 81        	lda	#$81
    69c0: 85 37        	sta	$37                     ; 0x2037 <__do_zero_bss>
    69c2: 46 09        	lsr	$9                      ; 0x2009 <__heap_default_limit+0x1009>
    69c4: a5 08        	lda	$8                      ; 0x2008 <__heap_default_limit+0x1008>
    69c6: 6a           	ror
    69c7: 46 09        	lsr	$9                      ; 0x2009 <__heap_default_limit+0x1009>
    69c9: 6a           	ror
    69ca: 46 09        	lsr	$9                      ; 0x2009 <__heap_default_limit+0x1009>
    69cc: 6a           	ror
    69cd: 46 09        	lsr	$9                      ; 0x2009 <__heap_default_limit+0x1009>
    69cf: 6a           	ror
    69d0: 85 38        	sta	$38                     ; 0x2038 <__do_zero_bss+0x1>
    69d2: a9 85        	lda	#$85
    69d4: 85 39        	sta	$39                     ; 0x2039 <__do_zero_bss+0x2>
    69d6: a9 01        	lda	#$1
    69d8: 85 3a        	sta	$3a                     ; 0x203a <__do_zero_zp_bss>
    69da: 64 3b        	stz	$3b                     ; 0x203b <__do_zero_zp_bss+0x1>
    69dc: 64 45        	stz	$45                     ; 0x2045 <shift+0x5>
    69de: 64 3c        	stz	$3c                     ; 0x203c <__do_zero_zp_bss+0x2>
    69e0: 86 3d        	stx	$3d                     ; 0x203d <__do_copy_zp_data>
    69e2: 84 3e        	sty	$3e                     ; 0x203e <__do_copy_zp_data+0x1>
    69e4: 64 45        	stz	$45                     ; 0x2045 <shift+0x5>
    69e6: a6 0c        	ldx	$c                      ; 0x200c <__heap_default_limit+0x100c>
    69e8: 86 3f        	stx	$3f                     ; 0x203f <__do_copy_zp_data+0x2>
    69ea: a6 0d        	ldx	$d                      ; 0x200d <__heap_default_limit+0x100d>
    69ec: 86 40        	stx	$40                     ; 0x2040 <shift>
    69ee: a5 04        	lda	$4                      ; 0x2004 <__heap_default_limit+0x1004>
    69f0: 29 0f        	and	#$f
    69f2: 85 41        	sta	$41                     ; 0x2041 <shift+0x1>
    69f4: a6 06        	ldx	$6                      ; 0x2006 <__heap_default_limit+0x1006>
    69f6: 86 42        	stx	$42                     ; 0x2042 <shift+0x2>
    69f8: a6 07        	ldx	$7                      ; 0x2007 <__heap_default_limit+0x1007>
    69fa: 86 43        	stx	$43                     ; 0x2043 <shift+0x3>
    69fc: a5 08        	lda	$8                      ; 0x2008 <__heap_default_limit+0x1008>
    69fe: 29 0f        	and	#$f
    6a00: 85 44        	sta	$44                     ; 0x2044 <shift+0x4>
    6a02: 4c 77 69     	jmp	$6977 <do_dma>

00006a05 <lfill>:
    6a05: 85 09        	sta	$9                      ; 0x2009 <__heap_default_limit+0x1009>
    6a07: 86 0a        	stx	$a                      ; 0x200a <__heap_default_limit+0x100a>
    6a09: a6 07        	ldx	$7                      ; 0x2007 <__heap_default_limit+0x1007>
    6a0b: a4 08        	ldy	$8                      ; 0x2008 <__heap_default_limit+0x1008>
    6a0d: a9 0b        	lda	#$b
    6a0f: 85 34        	sta	$34                     ; 0x2034 <__do_init_stack+0x5>
    6a11: a9 80        	lda	#$80
    6a13: 85 35        	sta	$35                     ; 0x2035 <__do_init_stack+0x6>
    6a15: 64 36        	stz	$36                     ; 0x2036 <__do_init_stack+0x7>
    6a17: 1a           	inc
    6a18: 85 37        	sta	$37                     ; 0x2037 <__do_zero_bss>
    6a1a: 46 05        	lsr	$5                      ; 0x2005 <__heap_default_limit+0x1005>
    6a1c: a5 04        	lda	$4                      ; 0x2004 <__heap_default_limit+0x1004>
    6a1e: 6a           	ror
    6a1f: 46 05        	lsr	$5                      ; 0x2005 <__heap_default_limit+0x1005>
    6a21: 6a           	ror
    6a22: 46 05        	lsr	$5                      ; 0x2005 <__heap_default_limit+0x1005>
    6a24: 6a           	ror
    6a25: 46 05        	lsr	$5                      ; 0x2005 <__heap_default_limit+0x1005>
    6a27: 6a           	ror
    6a28: 85 38        	sta	$38                     ; 0x2038 <__do_zero_bss+0x1>
    6a2a: a9 85        	lda	#$85
    6a2c: 85 39        	sta	$39                     ; 0x2039 <__do_zero_bss+0x2>
    6a2e: a9 01        	lda	#$1
    6a30: 85 3a        	sta	$3a                     ; 0x203a <__do_zero_zp_bss>
    6a32: 64 3b        	stz	$3b                     ; 0x203b <__do_zero_zp_bss+0x1>
    6a34: a9 03        	lda	#$3
    6a36: 85 3c        	sta	$3c                     ; 0x203c <__do_zero_zp_bss+0x2>
    6a38: 64 45        	stz	$45                     ; 0x2045 <shift+0x5>
    6a3a: 86 3d        	stx	$3d                     ; 0x203d <__do_copy_zp_data>
    6a3c: 84 3e        	sty	$3e                     ; 0x203e <__do_copy_zp_data+0x1>
    6a3e: a6 06        	ldx	$6                      ; 0x2006 <__heap_default_limit+0x1006>
    6a40: 86 3f        	stx	$3f                     ; 0x203f <__do_copy_zp_data+0x2>
    6a42: 64 40        	stz	$40                     ; 0x2040 <shift>
    6a44: a6 09        	ldx	$9                      ; 0x2009 <__heap_default_limit+0x1009>
    6a46: 86 42        	stx	$42                     ; 0x2042 <shift+0x2>
    6a48: a6 0a        	ldx	$a                      ; 0x200a <__heap_default_limit+0x100a>
    6a4a: 86 43        	stx	$43                     ; 0x2043 <shift+0x3>
    6a4c: a5 04        	lda	$4                      ; 0x2004 <__heap_default_limit+0x1004>
    6a4e: 29 0f        	and	#$f
    6a50: 85 44        	sta	$44                     ; 0x2044 <shift+0x4>
    6a52: 4c 77 69     	jmp	$6977 <do_dma>

00006a55 <usleep>:
    6a55: a8           	tay
    6a56: 86 06        	stx	$6                      ; 0x2006 <__heap_default_limit+0x1006>
    6a58: a5 05        	lda	$5                      ; 0x2005 <__heap_default_limit+0x1005>
    6a5a: 4c 91 6a     	jmp	$6a91 <usleep+0x3c>
    6a5d: a6 04        	ldx	$4                      ; 0x2004 <__heap_default_limit+0x1004>
    6a5f: 80 02        	bra	$6a63 <usleep+0xe>
    6a61: a6 06        	ldx	$6                      ; 0x2006 <__heap_default_limit+0x1006>
    6a63: e0 00        	cpx	#$0
    6a65: b0 03        	bcs	$6a6a <usleep+0x15>
    6a67: 4c b0 6a     	jmp	$6ab0 <usleep+0x5b>
    6a6a: 85 07        	sta	$7                      ; 0x2007 <__heap_default_limit+0x1007>
    6a6c: a6 06        	ldx	$6                      ; 0x2006 <__heap_default_limit+0x1006>
    6a6e: 86 05        	stx	$5                      ; 0x2005 <__heap_default_limit+0x1005>
    6a70: ae 12 d0     	ldx	$d012                   ; 0xd012 <__heap_start+0x507c>
    6a73: 86 06        	stx	$6                      ; 0x2006 <__heap_default_limit+0x1006>
    6a75: ae 12 d0     	ldx	$d012                   ; 0xd012 <__heap_start+0x507c>
    6a78: e4 06        	cpx	$6                      ; 0x2006 <__heap_default_limit+0x1006>
    6a7a: f0 f9        	beq	$6a75 <usleep+0x20>
    6a7c: 18           	clc
    6a7d: 98           	tya
    6a7e: 69 c0        	adc	#$c0
    6a80: a8           	tay
    6a81: a5 05        	lda	$5                      ; 0x2005 <__heap_default_limit+0x1005>
    6a83: 69 ff        	adc	#$ff
    6a85: 85 06        	sta	$6                      ; 0x2006 <__heap_default_limit+0x1006>
    6a87: a5 04        	lda	$4                      ; 0x2004 <__heap_default_limit+0x1004>
    6a89: 69 ff        	adc	#$ff
    6a8b: 85 04        	sta	$4                      ; 0x2004 <__heap_default_limit+0x1004>
    6a8d: a5 07        	lda	$7                      ; 0x2007 <__heap_default_limit+0x1007>
    6a8f: 69 ff        	adc	#$ff
    6a91: aa           	tax
    6a92: d0 15        	bne	$6aa9 <usleep+0x54>
    6a94: a6 04        	ldx	$4                      ; 0x2004 <__heap_default_limit+0x1004>
    6a96: f0 03        	beq	$6a9b <usleep+0x46>
    6a98: 4c 5d 6a     	jmp	$6a5d <usleep+0x8>
    6a9b: a6 06        	ldx	$6                      ; 0x2006 <__heap_default_limit+0x1006>
    6a9d: f0 03        	beq	$6aa2 <usleep+0x4d>
    6a9f: 4c 61 6a     	jmp	$6a61 <usleep+0xc>
    6aa2: c0 41        	cpy	#$41
    6aa4: 90 0a        	bcc	$6ab0 <usleep+0x5b>
    6aa6: 4c 6a 6a     	jmp	$6a6a <usleep+0x15>
    6aa9: c9 00        	cmp	#$0
    6aab: 90 03        	bcc	$6ab0 <usleep+0x5b>
    6aad: 4c 6a 6a     	jmp	$6a6a <usleep+0x15>
    6ab0: 60           	rts

00006ab1 <exit>:
    6ab1: 20 4b 20     	jsr	$204b <_fini>
    6ab4: 80 fe        	bra	$6ab4 <exit+0x3>

00006ab6 <strcpy>:
    6ab6: b2 06        	lda	($6),z                  ; 0x2006 <__heap_default_limit+0x1006>
    6ab8: aa           	tax
    6ab9: b2 06        	lda	($6),z                  ; 0x2006 <__heap_default_limit+0x1006>
    6abb: 92 04        	sta	($4),z                  ; 0x2004 <__heap_default_limit+0x1004>
    6abd: 8a           	txa
    6abe: d0 03        	bne	$6ac3 <strcpy+0xd>
    6ac0: 4c f3 6a     	jmp	$6af3 <strcpy+0x3d>
    6ac3: a0 01        	ldy	#$1
    6ac5: a6 04        	ldx	$4                      ; 0x2004 <__heap_default_limit+0x1004>
    6ac7: 86 08        	stx	$8                      ; 0x2008 <__heap_default_limit+0x1008>
    6ac9: a6 05        	ldx	$5                      ; 0x2005 <__heap_default_limit+0x1005>
    6acb: 86 09        	stx	$9                      ; 0x2009 <__heap_default_limit+0x1009>
    6acd: a6 06        	ldx	$6                      ; 0x2006 <__heap_default_limit+0x1006>
    6acf: 86 0a        	stx	$a                      ; 0x200a <__heap_default_limit+0x100a>
    6ad1: a6 07        	ldx	$7                      ; 0x2007 <__heap_default_limit+0x1007>
    6ad3: 86 0b        	stx	$b                      ; 0x200b <__heap_default_limit+0x100b>
    6ad5: e6 0a        	inc	$a                      ; 0x200a <__heap_default_limit+0x100a>
    6ad7: d0 02        	bne	$6adb <strcpy+0x25>
    6ad9: e6 0b        	inc	$b                      ; 0x200b <__heap_default_limit+0x100b>
    6adb: b1 06        	lda	($6),y                  ; 0x2006 <__heap_default_limit+0x1006>
    6add: aa           	tax
    6ade: b1 06        	lda	($6),y                  ; 0x2006 <__heap_default_limit+0x1006>
    6ae0: 91 08        	sta	($8),y                  ; 0x2008 <__heap_default_limit+0x1008>
    6ae2: e6 08        	inc	$8                      ; 0x2008 <__heap_default_limit+0x1008>
    6ae4: d0 02        	bne	$6ae8 <strcpy+0x32>
    6ae6: e6 09        	inc	$9                      ; 0x2009 <__heap_default_limit+0x1009>
    6ae8: a5 0a        	lda	$a                      ; 0x200a <__heap_default_limit+0x100a>
    6aea: 85 06        	sta	$6                      ; 0x2006 <__heap_default_limit+0x1006>
    6aec: a5 0b        	lda	$b                      ; 0x200b <__heap_default_limit+0x100b>
    6aee: 85 07        	sta	$7                      ; 0x2007 <__heap_default_limit+0x1007>
    6af0: 8a           	txa
    6af1: d0 e2        	bne	$6ad5 <strcpy+0x1f>
    6af3: 60           	rts

00006af4 <strlen>:
    6af4: b2 04        	lda	($4),z                  ; 0x2004 <__heap_default_limit+0x1004>
    6af6: d0 03        	bne	$6afb <strlen+0x7>
    6af8: 4c 29 6b     	jmp	$6b29 <strlen+0x35>
    6afb: 64 07        	stz	$7                      ; 0x2007 <__heap_default_limit+0x1007>
    6afd: a0 01        	ldy	#$1
    6aff: a9 00        	lda	#$0
    6b01: 64 06        	stz	$6                      ; 0x2006 <__heap_default_limit+0x1006>
    6b03: aa           	tax
    6b04: e6 06        	inc	$6                      ; 0x2006 <__heap_default_limit+0x1006>
    6b06: d0 01        	bne	$6b09 <strlen+0x15>
    6b08: e8           	inx
    6b09: 18           	clc
    6b0a: 85 09        	sta	$9                      ; 0x2009 <__heap_default_limit+0x1009>
    6b0c: a5 07        	lda	$7                      ; 0x2007 <__heap_default_limit+0x1007>
    6b0e: 65 04        	adc	$4                      ; 0x2004 <__heap_default_limit+0x1004>
    6b10: 85 08        	sta	$8                      ; 0x2008 <__heap_default_limit+0x1008>
    6b12: a5 09        	lda	$9                      ; 0x2009 <__heap_default_limit+0x1009>
    6b14: 65 05        	adc	$5                      ; 0x2005 <__heap_default_limit+0x1005>
    6b16: 85 09        	sta	$9                      ; 0x2009 <__heap_default_limit+0x1009>
    6b18: b1 08        	lda	($8),y                  ; 0x2008 <__heap_default_limit+0x1008>
    6b1a: 85 08        	sta	$8                      ; 0x2008 <__heap_default_limit+0x1008>
    6b1c: a5 06        	lda	$6                      ; 0x2006 <__heap_default_limit+0x1006>
    6b1e: 85 07        	sta	$7                      ; 0x2007 <__heap_default_limit+0x1007>
    6b20: 8a           	txa
    6b21: e6 08        	inc	$8                      ; 0x2008 <__heap_default_limit+0x1008>
    6b23: c6 08        	dec	$8                      ; 0x2008 <__heap_default_limit+0x1008>
    6b25: d0 dd        	bne	$6b04 <strlen+0x10>
    6b27: 80 04        	bra	$6b2d <strlen+0x39>
    6b29: 64 06        	stz	$6                      ; 0x2006 <__heap_default_limit+0x1006>
    6b2b: a2 00        	ldx	#$0
    6b2d: a5 06        	lda	$6                      ; 0x2006 <__heap_default_limit+0x1006>
    6b2f: 60           	rts

00006b30 <__ashlqi3>:
    6b30: e0 00        	cpx	#$0
    6b32: f0 06        	beq	$6b3a <__ashlqi3+0xa>
    6b34: ca           	dex
    6b35: 0a           	asl
    6b36: e0 00        	cpx	#$0
    6b38: d0 fa        	bne	$6b34 <__ashlqi3+0x4>
    6b3a: 60           	rts

00006b3b <__ashlhi3>:
    6b3b: 86 05        	stx	$5                      ; 0x2005 <__heap_default_limit+0x1005>
    6b3d: a6 04        	ldx	$4                      ; 0x2004 <__heap_default_limit+0x1004>
    6b3f: f0 0a        	beq	$6b4b <__ashlhi3+0x10>
    6b41: a6 04        	ldx	$4                      ; 0x2004 <__heap_default_limit+0x1004>
    6b43: ca           	dex
    6b44: 0a           	asl
    6b45: 26 05        	rol	$5                      ; 0x2005 <__heap_default_limit+0x1005>
    6b47: e0 00        	cpx	#$0
    6b49: d0 f8        	bne	$6b43 <__ashlhi3+0x8>
    6b4b: a6 05        	ldx	$5                      ; 0x2005 <__heap_default_limit+0x1005>
    6b4d: 60           	rts

00006b4e <__mulhi3>:
    6b4e: a4 05        	ldy	$5                      ; 0x2005 <__heap_default_limit+0x1005>
    6b50: d0 04        	bne	$6b56 <__mulhi3+0x8>
    6b52: a4 04        	ldy	$4                      ; 0x2004 <__heap_default_limit+0x1004>
    6b54: f0 25        	beq	$6b7b <__mulhi3+0x2d>
    6b56: 85 06        	sta	$6                      ; 0x2006 <__heap_default_limit+0x1006>
    6b58: 86 07        	stx	$7                      ; 0x2007 <__heap_default_limit+0x1007>
    6b5a: a0 00        	ldy	#$0
    6b5c: 98           	tya
    6b5d: 46 05        	lsr	$5                      ; 0x2005 <__heap_default_limit+0x1005>
    6b5f: 66 04        	ror	$4                      ; 0x2004 <__heap_default_limit+0x1004>
    6b61: 90 09        	bcc	$6b6c <__mulhi3+0x1e>
    6b63: aa           	tax
    6b64: 98           	tya
    6b65: 18           	clc
    6b66: 65 06        	adc	$6                      ; 0x2006 <__heap_default_limit+0x1006>
    6b68: a8           	tay
    6b69: 8a           	txa
    6b6a: 65 07        	adc	$7                      ; 0x2007 <__heap_default_limit+0x1007>
    6b6c: 06 06        	asl	$6                      ; 0x2006 <__heap_default_limit+0x1006>
    6b6e: 26 07        	rol	$7                      ; 0x2007 <__heap_default_limit+0x1007>
    6b70: a6 05        	ldx	$5                      ; 0x2005 <__heap_default_limit+0x1005>
    6b72: d0 e9        	bne	$6b5d <__mulhi3+0xf>
    6b74: a6 04        	ldx	$4                      ; 0x2004 <__heap_default_limit+0x1004>
    6b76: d0 e5        	bne	$6b5d <__mulhi3+0xf>
    6b78: aa           	tax
    6b79: 98           	tya
    6b7a: 60           	rts
    6b7b: a0 00        	ldy	#$0
    6b7d: 98           	tya
    6b7e: 80 f8        	bra	$6b78 <__mulhi3+0x2a>

00006b80 <__udivhi3>:
    6b80: 64 06        	stz	$6                      ; 0x2006 <__heap_default_limit+0x1006>
    6b82: a4 05        	ldy	$5                      ; 0x2005 <__heap_default_limit+0x1005>
    6b84: d0 04        	bne	$6b8a <__udivhi3+0xa>
    6b86: a4 04        	ldy	$4                      ; 0x2004 <__heap_default_limit+0x1004>
    6b88: f0 0e        	beq	$6b98 <__udivhi3+0x18>
    6b8a: 85 09        	sta	$9                      ; 0x2009 <__heap_default_limit+0x1009>
    6b8c: 8a           	txa
    6b8d: e4 05        	cpx	$5                      ; 0x2005 <__heap_default_limit+0x1005>
    6b8f: d0 0e        	bne	$6b9f <__udivhi3+0x1f>
    6b91: a5 09        	lda	$9                      ; 0x2009 <__heap_default_limit+0x1009>
    6b93: c5 04        	cmp	$4                      ; 0x2004 <__heap_default_limit+0x1004>
    6b95: 8a           	txa
    6b96: b0 0b        	bcs	$6ba3 <__udivhi3+0x23>
    6b98: a2 00        	ldx	#$0
    6b9a: 86 48        	stx	$48                     ; 0x2048 <__after_main>
    6b9c: 4c 3c 6c     	jmp	$6c3c <__udivhi3+0xbc>
    6b9f: c5 05        	cmp	$5                      ; 0x2005 <__heap_default_limit+0x1005>
    6ba1: 90 f5        	bcc	$6b98 <__udivhi3+0x18>
    6ba3: a2 01        	ldx	#$1
    6ba5: 86 48        	stx	$48                     ; 0x2048 <__after_main>
    6ba7: a6 05        	ldx	$5                      ; 0x2005 <__heap_default_limit+0x1005>
    6ba9: 10 03        	bpl	$6bae <__udivhi3+0x2e>
    6bab: 4c 3c 6c     	jmp	$6c3c <__udivhi3+0xbc>
    6bae: a2 00        	ldx	#$0
    6bb0: a4 04        	ldy	$4                      ; 0x2004 <__heap_default_limit+0x1004>
    6bb2: 84 07        	sty	$7                      ; 0x2007 <__heap_default_limit+0x1007>
    6bb4: a4 05        	ldy	$5                      ; 0x2005 <__heap_default_limit+0x1005>
    6bb6: 84 08        	sty	$8                      ; 0x2008 <__heap_default_limit+0x1008>
    6bb8: 06 07        	asl	$7                      ; 0x2007 <__heap_default_limit+0x1007>
    6bba: 26 08        	rol	$8                      ; 0x2008 <__heap_default_limit+0x1008>
    6bbc: c5 08        	cmp	$8                      ; 0x2008 <__heap_default_limit+0x1008>
    6bbe: d0 08        	bne	$6bc8 <__udivhi3+0x48>
    6bc0: a4 09        	ldy	$9                      ; 0x2009 <__heap_default_limit+0x1009>
    6bc2: c4 07        	cpy	$7                      ; 0x2007 <__heap_default_limit+0x1007>
    6bc4: 90 13        	bcc	$6bd9 <__udivhi3+0x59>
    6bc6: 80 04        	bra	$6bcc <__udivhi3+0x4c>
    6bc8: c5 08        	cmp	$8                      ; 0x2008 <__heap_default_limit+0x1008>
    6bca: 90 0d        	bcc	$6bd9 <__udivhi3+0x59>
    6bcc: e8           	inx
    6bcd: a4 07        	ldy	$7                      ; 0x2007 <__heap_default_limit+0x1007>
    6bcf: 84 04        	sty	$4                      ; 0x2004 <__heap_default_limit+0x1004>
    6bd1: a4 08        	ldy	$8                      ; 0x2008 <__heap_default_limit+0x1008>
    6bd3: 84 05        	sty	$5                      ; 0x2005 <__heap_default_limit+0x1005>
    6bd5: 10 e1        	bpl	$6bb8 <__udivhi3+0x38>
    6bd7: 80 08        	bra	$6be1 <__udivhi3+0x61>
    6bd9: a4 04        	ldy	$4                      ; 0x2004 <__heap_default_limit+0x1004>
    6bdb: 84 07        	sty	$7                      ; 0x2007 <__heap_default_limit+0x1007>
    6bdd: a4 05        	ldy	$5                      ; 0x2005 <__heap_default_limit+0x1005>
    6bdf: 84 08        	sty	$8                      ; 0x2008 <__heap_default_limit+0x1008>
    6be1: e0 00        	cpx	#$0
    6be3: d0 03        	bne	$6be8 <__udivhi3+0x68>
    6be5: 4c 3c 6c     	jmp	$6c3c <__udivhi3+0xbc>
    6be8: 38           	sec
    6be9: a8           	tay
    6bea: a5 09        	lda	$9                      ; 0x2009 <__heap_default_limit+0x1009>
    6bec: e5 07        	sbc	$7                      ; 0x2007 <__heap_default_limit+0x1007>
    6bee: 85 04        	sta	$4                      ; 0x2004 <__heap_default_limit+0x1004>
    6bf0: 98           	tya
    6bf1: e5 08        	sbc	$8                      ; 0x2008 <__heap_default_limit+0x1008>
    6bf3: a0 01        	ldy	#$1
    6bf5: 84 48        	sty	$48                     ; 0x2048 <__after_main>
    6bf7: 64 06        	stz	$6                      ; 0x2006 <__heap_default_limit+0x1006>
    6bf9: 46 08        	lsr	$8                      ; 0x2008 <__heap_default_limit+0x1008>
    6bfb: 66 07        	ror	$7                      ; 0x2007 <__heap_default_limit+0x1007>
    6bfd: a4 48        	ldy	$48                     ; 0x2048 <__after_main>
    6bff: 84 05        	sty	$5                      ; 0x2005 <__heap_default_limit+0x1005>
    6c01: 06 05        	asl	$5                      ; 0x2005 <__heap_default_limit+0x1005>
    6c03: a0 01        	ldy	#$1
    6c05: b0 02        	bcs	$6c09 <__udivhi3+0x89>
    6c07: a0 00        	ldy	#$0
    6c09: 84 09        	sty	$9                      ; 0x2009 <__heap_default_limit+0x1009>
    6c0b: a4 05        	ldy	$5                      ; 0x2005 <__heap_default_limit+0x1005>
    6c0d: 84 48        	sty	$48                     ; 0x2048 <__after_main>
    6c0f: c5 08        	cmp	$8                      ; 0x2008 <__heap_default_limit+0x1008>
    6c11: d0 23        	bne	$6c36 <__udivhi3+0xb6>
    6c13: a4 04        	ldy	$4                      ; 0x2004 <__heap_default_limit+0x1004>
    6c15: c4 07        	cpy	$7                      ; 0x2007 <__heap_default_limit+0x1007>
    6c17: 90 11        	bcc	$6c2a <__udivhi3+0xaa>
    6c19: a8           	tay
    6c1a: a5 48        	lda	$48                     ; 0x2048 <__after_main>
    6c1c: 09 01        	ora	#$1
    6c1e: 85 48        	sta	$48                     ; 0x2048 <__after_main>
    6c20: 38           	sec
    6c21: a5 04        	lda	$4                      ; 0x2004 <__heap_default_limit+0x1004>
    6c23: e5 07        	sbc	$7                      ; 0x2007 <__heap_default_limit+0x1007>
    6c25: 85 04        	sta	$4                      ; 0x2004 <__heap_default_limit+0x1004>
    6c27: 98           	tya
    6c28: e5 08        	sbc	$8                      ; 0x2008 <__heap_default_limit+0x1008>
    6c2a: a4 09        	ldy	$9                      ; 0x2009 <__heap_default_limit+0x1009>
    6c2c: c0 01        	cpy	#$1
    6c2e: 26 06        	rol	$6                      ; 0x2006 <__heap_default_limit+0x1006>
    6c30: ca           	dex
    6c31: f0 09        	beq	$6c3c <__udivhi3+0xbc>
    6c33: 4c f9 6b     	jmp	$6bf9 <__udivhi3+0x79>
    6c36: c5 08        	cmp	$8                      ; 0x2008 <__heap_default_limit+0x1008>
    6c38: b0 df        	bcs	$6c19 <__udivhi3+0x99>
    6c3a: 80 ee        	bra	$6c2a <__udivhi3+0xaa>
    6c3c: a6 06        	ldx	$6                      ; 0x2006 <__heap_default_limit+0x1006>
    6c3e: a5 48        	lda	$48                     ; 0x2048 <__after_main>
    6c40: 60           	rts

00006c41 <__umodqi3>:
    6c41: e0 00        	cpx	#$0
    6c43: d0 03        	bne	$6c48 <__umodqi3+0x7>
    6c45: 4c 85 6c     	jmp	$6c85 <__umodqi3+0x44>
    6c48: 86 05        	stx	$5                      ; 0x2005 <__heap_default_limit+0x1005>
    6c4a: c5 05        	cmp	$5                      ; 0x2005 <__heap_default_limit+0x1005>
    6c4c: b0 03        	bcs	$6c51 <__umodqi3+0x10>
    6c4e: 4c 85 6c     	jmp	$6c85 <__umodqi3+0x44>
    6c51: a6 05        	ldx	$5                      ; 0x2005 <__heap_default_limit+0x1005>
    6c53: 30 15        	bmi	$6c6a <__umodqi3+0x29>
    6c55: a2 00        	ldx	#$0
    6c57: a4 05        	ldy	$5                      ; 0x2005 <__heap_default_limit+0x1005>
    6c59: 84 04        	sty	$4                      ; 0x2004 <__heap_default_limit+0x1004>
    6c5b: 06 04        	asl	$4                      ; 0x2004 <__heap_default_limit+0x1004>
    6c5d: c5 04        	cmp	$4                      ; 0x2004 <__heap_default_limit+0x1004>
    6c5f: 90 0d        	bcc	$6c6e <__umodqi3+0x2d>
    6c61: e8           	inx
    6c62: a4 04        	ldy	$4                      ; 0x2004 <__heap_default_limit+0x1004>
    6c64: 84 05        	sty	$5                      ; 0x2005 <__heap_default_limit+0x1005>
    6c66: 10 f3        	bpl	$6c5b <__umodqi3+0x1a>
    6c68: 80 08        	bra	$6c72 <__umodqi3+0x31>
    6c6a: 38           	sec
    6c6b: e5 05        	sbc	$5                      ; 0x2005 <__heap_default_limit+0x1005>
    6c6d: 60           	rts
    6c6e: a4 05        	ldy	$5                      ; 0x2005 <__heap_default_limit+0x1005>
    6c70: 84 04        	sty	$4                      ; 0x2004 <__heap_default_limit+0x1004>
    6c72: 38           	sec
    6c73: e5 04        	sbc	$4                      ; 0x2004 <__heap_default_limit+0x1004>
    6c75: e0 00        	cpx	#$0
    6c77: f0 0c        	beq	$6c85 <__umodqi3+0x44>
    6c79: 46 04        	lsr	$4                      ; 0x2004 <__heap_default_limit+0x1004>
    6c7b: c5 04        	cmp	$4                      ; 0x2004 <__heap_default_limit+0x1004>
    6c7d: 90 03        	bcc	$6c82 <__umodqi3+0x41>
    6c7f: 38           	sec
    6c80: e5 04        	sbc	$4                      ; 0x2004 <__heap_default_limit+0x1004>
    6c82: ca           	dex
    6c83: d0 f4        	bne	$6c79 <__umodqi3+0x38>
    6c85: 60           	rts

00006c86 <__udivmodqi4>:
    6c86: a8           	tay
    6c87: a9 00        	lda	#$0
    6c89: e0 00        	cpx	#$0
    6c8b: f0 25        	beq	$6cb2 <__udivmodqi4+0x2c>
    6c8d: 86 07        	stx	$7                      ; 0x2007 <__heap_default_limit+0x1007>
    6c8f: 84 08        	sty	$8                      ; 0x2008 <__heap_default_limit+0x1008>
    6c91: c4 07        	cpy	$7                      ; 0x2007 <__heap_default_limit+0x1007>
    6c93: b0 03        	bcs	$6c98 <__udivmodqi4+0x12>
    6c95: 4c ef 6c     	jmp	$6cef <__udivmodqi4+0x69>
    6c98: a5 07        	lda	$7                      ; 0x2007 <__heap_default_limit+0x1007>
    6c9a: 30 1b        	bmi	$6cb7 <__udivmodqi4+0x31>
    6c9c: a2 00        	ldx	#$0
    6c9e: a5 07        	lda	$7                      ; 0x2007 <__heap_default_limit+0x1007>
    6ca0: 85 06        	sta	$6                      ; 0x2006 <__heap_default_limit+0x1006>
    6ca2: 98           	tya
    6ca3: 06 06        	asl	$6                      ; 0x2006 <__heap_default_limit+0x1006>
    6ca5: c5 06        	cmp	$6                      ; 0x2006 <__heap_default_limit+0x1006>
    6ca7: 90 17        	bcc	$6cc0 <__udivmodqi4+0x3a>
    6ca9: e8           	inx
    6caa: a4 06        	ldy	$6                      ; 0x2006 <__heap_default_limit+0x1006>
    6cac: 84 07        	sty	$7                      ; 0x2007 <__heap_default_limit+0x1007>
    6cae: 10 f3        	bpl	$6ca3 <__udivmodqi4+0x1d>
    6cb0: 80 12        	bra	$6cc4 <__udivmodqi4+0x3e>
    6cb2: 84 08        	sty	$8                      ; 0x2008 <__heap_default_limit+0x1008>
    6cb4: 4c ef 6c     	jmp	$6cef <__udivmodqi4+0x69>
    6cb7: 38           	sec
    6cb8: 98           	tya
    6cb9: e5 07        	sbc	$7                      ; 0x2007 <__heap_default_limit+0x1007>
    6cbb: 85 08        	sta	$8                      ; 0x2008 <__heap_default_limit+0x1008>
    6cbd: 4c ed 6c     	jmp	$6ced <__udivmodqi4+0x67>
    6cc0: a4 07        	ldy	$7                      ; 0x2007 <__heap_default_limit+0x1007>
    6cc2: 84 06        	sty	$6                      ; 0x2006 <__heap_default_limit+0x1006>
    6cc4: 38           	sec
    6cc5: e5 06        	sbc	$6                      ; 0x2006 <__heap_default_limit+0x1006>
    6cc7: 85 08        	sta	$8                      ; 0x2008 <__heap_default_limit+0x1008>
    6cc9: 8a           	txa
    6cca: f0 21        	beq	$6ced <__udivmodqi4+0x67>
    6ccc: a9 01        	lda	#$1
    6cce: 46 06        	lsr	$6                      ; 0x2006 <__heap_default_limit+0x1006>
    6cd0: 0a           	asl
    6cd1: a8           	tay
    6cd2: a5 08        	lda	$8                      ; 0x2008 <__heap_default_limit+0x1008>
    6cd4: c5 06        	cmp	$6                      ; 0x2006 <__heap_default_limit+0x1006>
    6cd6: 90 0d        	bcc	$6ce5 <__udivmodqi4+0x5f>
    6cd8: 85 07        	sta	$7                      ; 0x2007 <__heap_default_limit+0x1007>
    6cda: 98           	tya
    6cdb: 09 01        	ora	#$1
    6cdd: a8           	tay
    6cde: 38           	sec
    6cdf: a5 07        	lda	$7                      ; 0x2007 <__heap_default_limit+0x1007>
    6ce1: e5 06        	sbc	$6                      ; 0x2006 <__heap_default_limit+0x1006>
    6ce3: 85 08        	sta	$8                      ; 0x2008 <__heap_default_limit+0x1008>
    6ce5: ca           	dex
    6ce6: 98           	tya
    6ce7: e0 00        	cpx	#$0
    6ce9: d0 e3        	bne	$6cce <__udivmodqi4+0x48>
    6ceb: 80 02        	bra	$6cef <__udivmodqi4+0x69>
    6ced: a9 01        	lda	#$1
    6cef: aa           	tax
    6cf0: a5 08        	lda	$8                      ; 0x2008 <__heap_default_limit+0x1008>
    6cf2: 92 04        	sta	($4),z                  ; 0x2004 <__heap_default_limit+0x1004>
    6cf4: 8a           	txa
    6cf5: 60           	rts

00006cf6 <__udivmodhi4>:
    6cf6: 86 0c        	stx	$c                      ; 0x200c <__heap_default_limit+0x100c>
    6cf8: 64 08        	stz	$8                      ; 0x2008 <__heap_default_limit+0x1008>
    6cfa: a4 05        	ldy	$5                      ; 0x2005 <__heap_default_limit+0x1005>
    6cfc: d0 04        	bne	$6d02 <__udivmodhi4+0xc>
    6cfe: a4 04        	ldy	$4                      ; 0x2004 <__heap_default_limit+0x1004>
    6d00: f0 08        	beq	$6d0a <__udivmodhi4+0x14>
    6d02: e4 05        	cpx	$5                      ; 0x2005 <__heap_default_limit+0x1005>
    6d04: d0 0d        	bne	$6d13 <__udivmodhi4+0x1d>
    6d06: c5 04        	cmp	$4                      ; 0x2004 <__heap_default_limit+0x1004>
    6d08: b0 0d        	bcs	$6d17 <__udivmodhi4+0x21>
    6d0a: a6 0c        	ldx	$c                      ; 0x200c <__heap_default_limit+0x100c>
    6d0c: 86 04        	stx	$4                      ; 0x2004 <__heap_default_limit+0x1004>
    6d0e: a2 00        	ldx	#$0
    6d10: 4c bc 6d     	jmp	$6dbc <__udivmodhi4+0xc6>
    6d13: e4 05        	cpx	$5                      ; 0x2005 <__heap_default_limit+0x1005>
    6d15: 90 f3        	bcc	$6d0a <__udivmodhi4+0x14>
    6d17: a6 05        	ldx	$5                      ; 0x2005 <__heap_default_limit+0x1005>
    6d19: 10 03        	bpl	$6d1e <__udivmodhi4+0x28>
    6d1b: 4c af 6d     	jmp	$6daf <__udivmodhi4+0xb9>
    6d1e: a2 00        	ldx	#$0
    6d20: a4 04        	ldy	$4                      ; 0x2004 <__heap_default_limit+0x1004>
    6d22: 84 09        	sty	$9                      ; 0x2009 <__heap_default_limit+0x1009>
    6d24: a4 05        	ldy	$5                      ; 0x2005 <__heap_default_limit+0x1005>
    6d26: 84 0a        	sty	$a                      ; 0x200a <__heap_default_limit+0x100a>
    6d28: 06 09        	asl	$9                      ; 0x2009 <__heap_default_limit+0x1009>
    6d2a: 26 0a        	rol	$a                      ; 0x200a <__heap_default_limit+0x100a>
    6d2c: a4 0c        	ldy	$c                      ; 0x200c <__heap_default_limit+0x100c>
    6d2e: c4 0a        	cpy	$a                      ; 0x200a <__heap_default_limit+0x100a>
    6d30: d0 06        	bne	$6d38 <__udivmodhi4+0x42>
    6d32: c5 09        	cmp	$9                      ; 0x2009 <__heap_default_limit+0x1009>
    6d34: b0 08        	bcs	$6d3e <__udivmodhi4+0x48>
    6d36: 80 13        	bra	$6d4b <__udivmodhi4+0x55>
    6d38: a4 0c        	ldy	$c                      ; 0x200c <__heap_default_limit+0x100c>
    6d3a: c4 0a        	cpy	$a                      ; 0x200a <__heap_default_limit+0x100a>
    6d3c: 90 0d        	bcc	$6d4b <__udivmodhi4+0x55>
    6d3e: e8           	inx
    6d3f: a4 09        	ldy	$9                      ; 0x2009 <__heap_default_limit+0x1009>
    6d41: 84 04        	sty	$4                      ; 0x2004 <__heap_default_limit+0x1004>
    6d43: a4 0a        	ldy	$a                      ; 0x200a <__heap_default_limit+0x100a>
    6d45: 84 05        	sty	$5                      ; 0x2005 <__heap_default_limit+0x1005>
    6d47: 10 df        	bpl	$6d28 <__udivmodhi4+0x32>
    6d49: 80 08        	bra	$6d53 <__udivmodhi4+0x5d>
    6d4b: a4 04        	ldy	$4                      ; 0x2004 <__heap_default_limit+0x1004>
    6d4d: 84 09        	sty	$9                      ; 0x2009 <__heap_default_limit+0x1009>
    6d4f: a4 05        	ldy	$5                      ; 0x2005 <__heap_default_limit+0x1005>
    6d51: 84 0a        	sty	$a                      ; 0x200a <__heap_default_limit+0x100a>
    6d53: 38           	sec
    6d54: e5 09        	sbc	$9                      ; 0x2009 <__heap_default_limit+0x1009>
    6d56: a8           	tay
    6d57: a5 0c        	lda	$c                      ; 0x200c <__heap_default_limit+0x100c>
    6d59: e5 0a        	sbc	$a                      ; 0x200a <__heap_default_limit+0x100a>
    6d5b: 85 04        	sta	$4                      ; 0x2004 <__heap_default_limit+0x1004>
    6d5d: 8a           	txa
    6d5e: d0 03        	bne	$6d63 <__udivmodhi4+0x6d>
    6d60: 4c cb 6d     	jmp	$6dcb <__udivmodhi4+0xd5>
    6d63: a9 01        	lda	#$1
    6d65: 85 81        	sta	$81                     ; 0x2081 <lprestore+0xc>
    6d67: 64 08        	stz	$8                      ; 0x2008 <__heap_default_limit+0x1008>
    6d69: 98           	tya
    6d6a: 46 0a        	lsr	$a                      ; 0x200a <__heap_default_limit+0x100a>
    6d6c: 66 09        	ror	$9                      ; 0x2009 <__heap_default_limit+0x1009>
    6d6e: a4 81        	ldy	$81                     ; 0x2081 <lprestore+0xc>
    6d70: 84 05        	sty	$5                      ; 0x2005 <__heap_default_limit+0x1005>
    6d72: 06 05        	asl	$5                      ; 0x2005 <__heap_default_limit+0x1005>
    6d74: a0 01        	ldy	#$1
    6d76: b0 02        	bcs	$6d7a <__udivmodhi4+0x84>
    6d78: a0 00        	ldy	#$0
    6d7a: 84 0b        	sty	$b                      ; 0x200b <__heap_default_limit+0x100b>
    6d7c: a4 05        	ldy	$5                      ; 0x2005 <__heap_default_limit+0x1005>
    6d7e: 84 81        	sty	$81                     ; 0x2081 <lprestore+0xc>
    6d80: a4 04        	ldy	$4                      ; 0x2004 <__heap_default_limit+0x1004>
    6d82: c4 0a        	cpy	$a                      ; 0x200a <__heap_default_limit+0x100a>
    6d84: d0 23        	bne	$6da9 <__udivmodhi4+0xb3>
    6d86: c5 09        	cmp	$9                      ; 0x2009 <__heap_default_limit+0x1009>
    6d88: 90 13        	bcc	$6d9d <__udivmodhi4+0xa7>
    6d8a: a8           	tay
    6d8b: a5 81        	lda	$81                     ; 0x2081 <lprestore+0xc>
    6d8d: 09 01        	ora	#$1
    6d8f: 85 81        	sta	$81                     ; 0x2081 <lprestore+0xc>
    6d91: 38           	sec
    6d92: 98           	tya
    6d93: e5 09        	sbc	$9                      ; 0x2009 <__heap_default_limit+0x1009>
    6d95: a8           	tay
    6d96: a5 04        	lda	$4                      ; 0x2004 <__heap_default_limit+0x1004>
    6d98: e5 0a        	sbc	$a                      ; 0x200a <__heap_default_limit+0x100a>
    6d9a: 85 04        	sta	$4                      ; 0x2004 <__heap_default_limit+0x1004>
    6d9c: 98           	tya
    6d9d: a4 0b        	ldy	$b                      ; 0x200b <__heap_default_limit+0x100b>
    6d9f: c0 01        	cpy	#$1
    6da1: 26 08        	rol	$8                      ; 0x2008 <__heap_default_limit+0x1008>
    6da3: ca           	dex
    6da4: f0 18        	beq	$6dbe <__udivmodhi4+0xc8>
    6da6: 4c 6a 6d     	jmp	$6d6a <__udivmodhi4+0x74>
    6da9: c4 0a        	cpy	$a                      ; 0x200a <__heap_default_limit+0x100a>
    6dab: b0 dd        	bcs	$6d8a <__udivmodhi4+0x94>
    6dad: 80 ee        	bra	$6d9d <__udivmodhi4+0xa7>
    6daf: 38           	sec
    6db0: e5 04        	sbc	$4                      ; 0x2004 <__heap_default_limit+0x1004>
    6db2: aa           	tax
    6db3: a5 0c        	lda	$c                      ; 0x200c <__heap_default_limit+0x100c>
    6db5: e5 05        	sbc	$5                      ; 0x2005 <__heap_default_limit+0x1005>
    6db7: 85 04        	sta	$4                      ; 0x2004 <__heap_default_limit+0x1004>
    6db9: 8a           	txa
    6dba: a2 01        	ldx	#$1
    6dbc: 86 81        	stx	$81                     ; 0x2081 <lprestore+0xc>
    6dbe: 92 06        	sta	($6),z                  ; 0x2006 <__heap_default_limit+0x1006>
    6dc0: a0 01        	ldy	#$1
    6dc2: a5 04        	lda	$4                      ; 0x2004 <__heap_default_limit+0x1004>
    6dc4: 91 06        	sta	($6),y                  ; 0x2006 <__heap_default_limit+0x1006>
    6dc6: a6 08        	ldx	$8                      ; 0x2008 <__heap_default_limit+0x1008>
    6dc8: a5 81        	lda	$81                     ; 0x2081 <lprestore+0xc>
    6dca: 60           	rts
    6dcb: a2 01        	ldx	#$1
    6dcd: 86 81        	stx	$81                     ; 0x2081 <lprestore+0xc>
    6dcf: 98           	tya
    6dd0: 80 ec        	bra	$6dbe <__udivmodhi4+0xc8>

00006dd2 <__udivmodsi4>:
    6dd2: da           	phx
    6dd3: 7a           	ply
    6dd4: a6 04        	ldx	$4                      ; 0x2004 <__heap_default_limit+0x1004>
    6dd6: 86 11        	stx	$11                     ; 0x2011 <__heap_default_limit+0x1011>
    6dd8: a6 05        	ldx	$5                      ; 0x2005 <__heap_default_limit+0x1005>
    6dda: 64 0c        	stz	$c                      ; 0x200c <__heap_default_limit+0x100c>
    6ddc: e6 09        	inc	$9                      ; 0x2009 <__heap_default_limit+0x1009>
    6dde: c6 09        	dec	$9                      ; 0x2009 <__heap_default_limit+0x1009>
    6de0: d0 15        	bne	$6df7 <__udivmodsi4+0x25>
    6de2: e6 08        	inc	$8                      ; 0x2008 <__heap_default_limit+0x1008>
    6de4: c6 08        	dec	$8                      ; 0x2008 <__heap_default_limit+0x1008>
    6de6: d0 0f        	bne	$6df7 <__udivmodsi4+0x25>
    6de8: e6 07        	inc	$7                      ; 0x2007 <__heap_default_limit+0x1007>
    6dea: c6 07        	dec	$7                      ; 0x2007 <__heap_default_limit+0x1007>
    6dec: d0 09        	bne	$6df7 <__udivmodsi4+0x25>
    6dee: e6 06        	inc	$6                      ; 0x2006 <__heap_default_limit+0x1006>
    6df0: c6 06        	dec	$6                      ; 0x2006 <__heap_default_limit+0x1006>
    6df2: d0 03        	bne	$6df7 <__udivmodsi4+0x25>
    6df4: 4c 87 6f     	jmp	$6f87 <__udivmodsi4+0x1b5>
    6df7: 84 05        	sty	$5                      ; 0x2005 <__heap_default_limit+0x1005>
    6df9: 86 04        	stx	$4                      ; 0x2004 <__heap_default_limit+0x1004>
    6dfb: e4 09        	cpx	$9                      ; 0x2009 <__heap_default_limit+0x1009>
    6dfd: d0 15        	bne	$6e14 <__udivmodsi4+0x42>
    6dff: a6 11        	ldx	$11                     ; 0x2011 <__heap_default_limit+0x1011>
    6e01: e4 08        	cpx	$8                      ; 0x2008 <__heap_default_limit+0x1008>
    6e03: d0 1e        	bne	$6e23 <__udivmodsi4+0x51>
    6e05: a6 05        	ldx	$5                      ; 0x2005 <__heap_default_limit+0x1005>
    6e07: e4 07        	cpx	$7                      ; 0x2007 <__heap_default_limit+0x1007>
    6e09: f0 03        	beq	$6e0e <__udivmodsi4+0x3c>
    6e0b: 4c 6f 6f     	jmp	$6f6f <__udivmodsi4+0x19d>
    6e0e: c5 06        	cmp	$6                      ; 0x2006 <__heap_default_limit+0x1006>
    6e10: 90 06        	bcc	$6e18 <__udivmodsi4+0x46>
    6e12: 80 13        	bra	$6e27 <__udivmodsi4+0x55>
    6e14: e4 09        	cpx	$9                      ; 0x2009 <__heap_default_limit+0x1009>
    6e16: b0 0f        	bcs	$6e27 <__udivmodsi4+0x55>
    6e18: 84 07        	sty	$7                      ; 0x2007 <__heap_default_limit+0x1007>
    6e1a: a6 04        	ldx	$4                      ; 0x2004 <__heap_default_limit+0x1004>
    6e1c: 86 06        	stx	$6                      ; 0x2006 <__heap_default_limit+0x1006>
    6e1e: a2 00        	ldx	#$0
    6e20: 4c 52 6f     	jmp	$6f52 <__udivmodsi4+0x180>
    6e23: e4 08        	cpx	$8                      ; 0x2008 <__heap_default_limit+0x1008>
    6e25: 90 f1        	bcc	$6e18 <__udivmodsi4+0x46>
    6e27: a6 09        	ldx	$9                      ; 0x2009 <__heap_default_limit+0x1009>
    6e29: 10 03        	bpl	$6e2e <__udivmodsi4+0x5c>
    6e2b: 4c 3a 6f     	jmp	$6f3a <__udivmodsi4+0x168>
    6e2e: a2 00        	ldx	#$0
    6e30: a4 06        	ldy	$6                      ; 0x2006 <__heap_default_limit+0x1006>
    6e32: 84 0d        	sty	$d                      ; 0x200d <__heap_default_limit+0x100d>
    6e34: a4 07        	ldy	$7                      ; 0x2007 <__heap_default_limit+0x1007>
    6e36: 84 0e        	sty	$e                      ; 0x200e <__heap_default_limit+0x100e>
    6e38: a4 08        	ldy	$8                      ; 0x2008 <__heap_default_limit+0x1008>
    6e3a: 84 0f        	sty	$f                      ; 0x200f <__heap_default_limit+0x100f>
    6e3c: a4 09        	ldy	$9                      ; 0x2009 <__heap_default_limit+0x1009>
    6e3e: 84 10        	sty	$10                     ; 0x2010 <__heap_default_limit+0x1010>
    6e40: 06 0d        	asl	$d                      ; 0x200d <__heap_default_limit+0x100d>
    6e42: 26 0e        	rol	$e                      ; 0x200e <__heap_default_limit+0x100e>
    6e44: 26 0f        	rol	$f                      ; 0x200f <__heap_default_limit+0x100f>
    6e46: 26 10        	rol	$10                     ; 0x2010 <__heap_default_limit+0x1010>
    6e48: a4 04        	ldy	$4                      ; 0x2004 <__heap_default_limit+0x1004>
    6e4a: c4 10        	cpy	$10                     ; 0x2010 <__heap_default_limit+0x1010>
    6e4c: d0 12        	bne	$6e60 <__udivmodsi4+0x8e>
    6e4e: a4 11        	ldy	$11                     ; 0x2011 <__heap_default_limit+0x1011>
    6e50: c4 0f        	cpy	$f                      ; 0x200f <__heap_default_limit+0x100f>
    6e52: d0 12        	bne	$6e66 <__udivmodsi4+0x94>
    6e54: a4 05        	ldy	$5                      ; 0x2005 <__heap_default_limit+0x1005>
    6e56: c4 0e        	cpy	$e                      ; 0x200e <__heap_default_limit+0x100e>
    6e58: d0 12        	bne	$6e6c <__udivmodsi4+0x9a>
    6e5a: c5 0d        	cmp	$d                      ; 0x200d <__heap_default_limit+0x100d>
    6e5c: 90 28        	bcc	$6e86 <__udivmodsi4+0xb4>
    6e5e: 80 10        	bra	$6e70 <__udivmodsi4+0x9e>
    6e60: c4 10        	cpy	$10                     ; 0x2010 <__heap_default_limit+0x1010>
    6e62: b0 0c        	bcs	$6e70 <__udivmodsi4+0x9e>
    6e64: 80 20        	bra	$6e86 <__udivmodsi4+0xb4>
    6e66: c4 0f        	cpy	$f                      ; 0x200f <__heap_default_limit+0x100f>
    6e68: 90 1c        	bcc	$6e86 <__udivmodsi4+0xb4>
    6e6a: 80 04        	bra	$6e70 <__udivmodsi4+0x9e>
    6e6c: c4 0e        	cpy	$e                      ; 0x200e <__heap_default_limit+0x100e>
    6e6e: 90 16        	bcc	$6e86 <__udivmodsi4+0xb4>
    6e70: e8           	inx
    6e71: a4 0d        	ldy	$d                      ; 0x200d <__heap_default_limit+0x100d>
    6e73: 84 06        	sty	$6                      ; 0x2006 <__heap_default_limit+0x1006>
    6e75: a4 0e        	ldy	$e                      ; 0x200e <__heap_default_limit+0x100e>
    6e77: 84 07        	sty	$7                      ; 0x2007 <__heap_default_limit+0x1007>
    6e79: a4 0f        	ldy	$f                      ; 0x200f <__heap_default_limit+0x100f>
    6e7b: 84 08        	sty	$8                      ; 0x2008 <__heap_default_limit+0x1008>
    6e7d: a4 10        	ldy	$10                     ; 0x2010 <__heap_default_limit+0x1010>
    6e7f: 84 09        	sty	$9                      ; 0x2009 <__heap_default_limit+0x1009>
    6e81: 30 13        	bmi	$6e96 <__udivmodsi4+0xc4>
    6e83: 4c 40 6e     	jmp	$6e40 <__udivmodsi4+0x6e>
    6e86: a4 06        	ldy	$6                      ; 0x2006 <__heap_default_limit+0x1006>
    6e88: 84 0d        	sty	$d                      ; 0x200d <__heap_default_limit+0x100d>
    6e8a: a4 07        	ldy	$7                      ; 0x2007 <__heap_default_limit+0x1007>
    6e8c: 84 0e        	sty	$e                      ; 0x200e <__heap_default_limit+0x100e>
    6e8e: a4 08        	ldy	$8                      ; 0x2008 <__heap_default_limit+0x1008>
    6e90: 84 0f        	sty	$f                      ; 0x200f <__heap_default_limit+0x100f>
    6e92: a4 09        	ldy	$9                      ; 0x2009 <__heap_default_limit+0x1009>
    6e94: 84 10        	sty	$10                     ; 0x2010 <__heap_default_limit+0x1010>
    6e96: 38           	sec
    6e97: e5 0d        	sbc	$d                      ; 0x200d <__heap_default_limit+0x100d>
    6e99: 85 08        	sta	$8                      ; 0x2008 <__heap_default_limit+0x1008>
    6e9b: a5 05        	lda	$5                      ; 0x2005 <__heap_default_limit+0x1005>
    6e9d: e5 0e        	sbc	$e                      ; 0x200e <__heap_default_limit+0x100e>
    6e9f: 85 07        	sta	$7                      ; 0x2007 <__heap_default_limit+0x1007>
    6ea1: a5 11        	lda	$11                     ; 0x2011 <__heap_default_limit+0x1011>
    6ea3: e5 0f        	sbc	$f                      ; 0x200f <__heap_default_limit+0x100f>
    6ea5: a8           	tay
    6ea6: a5 04        	lda	$4                      ; 0x2004 <__heap_default_limit+0x1004>
    6ea8: e5 10        	sbc	$10                     ; 0x2010 <__heap_default_limit+0x1010>
    6eaa: 85 06        	sta	$6                      ; 0x2006 <__heap_default_limit+0x1006>
    6eac: 8a           	txa
    6ead: d0 03        	bne	$6eb2 <__udivmodsi4+0xe0>
    6eaf: 4c 79 6f     	jmp	$6f79 <__udivmodsi4+0x1a7>
    6eb2: a9 01        	lda	#$1
    6eb4: 85 78        	sta	$78                     ; 0x2078 <lprestore+0x3>
    6eb6: 64 0c        	stz	$c                      ; 0x200c <__heap_default_limit+0x100c>
    6eb8: 64 04        	stz	$4                      ; 0x2004 <__heap_default_limit+0x1004>
    6eba: 64 05        	stz	$5                      ; 0x2005 <__heap_default_limit+0x1005>
    6ebc: 84 11        	sty	$11                     ; 0x2011 <__heap_default_limit+0x1011>
    6ebe: a5 08        	lda	$8                      ; 0x2008 <__heap_default_limit+0x1008>
    6ec0: 46 10        	lsr	$10                     ; 0x2010 <__heap_default_limit+0x1010>
    6ec2: 66 0f        	ror	$f                      ; 0x200f <__heap_default_limit+0x100f>
    6ec4: 66 0e        	ror	$e                      ; 0x200e <__heap_default_limit+0x100e>
    6ec6: 66 0d        	ror	$d                      ; 0x200d <__heap_default_limit+0x100d>
    6ec8: a4 78        	ldy	$78                     ; 0x2078 <lprestore+0x3>
    6eca: 84 08        	sty	$8                      ; 0x2008 <__heap_default_limit+0x1008>
    6ecc: 06 08        	asl	$8                      ; 0x2008 <__heap_default_limit+0x1008>
    6ece: a0 01        	ldy	#$1
    6ed0: b0 02        	bcs	$6ed4 <__udivmodsi4+0x102>
    6ed2: a0 00        	ldy	#$0
    6ed4: 84 09        	sty	$9                      ; 0x2009 <__heap_default_limit+0x1009>
    6ed6: a4 08        	ldy	$8                      ; 0x2008 <__heap_default_limit+0x1008>
    6ed8: 84 78        	sty	$78                     ; 0x2078 <lprestore+0x3>
    6eda: a4 06        	ldy	$6                      ; 0x2006 <__heap_default_limit+0x1006>
    6edc: c4 10        	cpy	$10                     ; 0x2010 <__heap_default_limit+0x1010>
    6ede: d0 18        	bne	$6ef8 <__udivmodsi4+0x126>
    6ee0: a4 11        	ldy	$11                     ; 0x2011 <__heap_default_limit+0x1011>
    6ee2: c4 0f        	cpy	$f                      ; 0x200f <__heap_default_limit+0x100f>
    6ee4: f0 03        	beq	$6ee9 <__udivmodsi4+0x117>
    6ee6: 4c 2c 6f     	jmp	$6f2c <__udivmodsi4+0x15a>
    6ee9: a4 07        	ldy	$7                      ; 0x2007 <__heap_default_limit+0x1007>
    6eeb: c4 0e        	cpy	$e                      ; 0x200e <__heap_default_limit+0x100e>
    6eed: f0 03        	beq	$6ef2 <__udivmodsi4+0x120>
    6eef: 4c 33 6f     	jmp	$6f33 <__udivmodsi4+0x161>
    6ef2: c5 0d        	cmp	$d                      ; 0x200d <__heap_default_limit+0x100d>
    6ef4: b0 06        	bcs	$6efc <__udivmodsi4+0x12a>
    6ef6: 80 24        	bra	$6f1c <__udivmodsi4+0x14a>
    6ef8: c4 10        	cpy	$10                     ; 0x2010 <__heap_default_limit+0x1010>
    6efa: 90 20        	bcc	$6f1c <__udivmodsi4+0x14a>
    6efc: 38           	sec
    6efd: e5 0d        	sbc	$d                      ; 0x200d <__heap_default_limit+0x100d>
    6eff: 85 08        	sta	$8                      ; 0x2008 <__heap_default_limit+0x1008>
    6f01: a5 07        	lda	$7                      ; 0x2007 <__heap_default_limit+0x1007>
    6f03: e5 0e        	sbc	$e                      ; 0x200e <__heap_default_limit+0x100e>
    6f05: 85 07        	sta	$7                      ; 0x2007 <__heap_default_limit+0x1007>
    6f07: a5 11        	lda	$11                     ; 0x2011 <__heap_default_limit+0x1011>
    6f09: e5 0f        	sbc	$f                      ; 0x200f <__heap_default_limit+0x100f>
    6f0b: a8           	tay
    6f0c: a5 06        	lda	$6                      ; 0x2006 <__heap_default_limit+0x1006>
    6f0e: e5 10        	sbc	$10                     ; 0x2010 <__heap_default_limit+0x1010>
    6f10: 85 06        	sta	$6                      ; 0x2006 <__heap_default_limit+0x1006>
    6f12: 84 11        	sty	$11                     ; 0x2011 <__heap_default_limit+0x1011>
    6f14: a5 78        	lda	$78                     ; 0x2078 <lprestore+0x3>
    6f16: 09 01        	ora	#$1
    6f18: 85 78        	sta	$78                     ; 0x2078 <lprestore+0x3>
    6f1a: a5 08        	lda	$8                      ; 0x2008 <__heap_default_limit+0x1008>
    6f1c: a4 09        	ldy	$9                      ; 0x2009 <__heap_default_limit+0x1009>
    6f1e: c0 01        	cpy	#$1
    6f20: 26 0c        	rol	$c                      ; 0x200c <__heap_default_limit+0x100c>
    6f22: 26 04        	rol	$4                      ; 0x2004 <__heap_default_limit+0x1004>
    6f24: 26 05        	rol	$5                      ; 0x2005 <__heap_default_limit+0x1005>
    6f26: ca           	dex
    6f27: f0 2f        	beq	$6f58 <__udivmodsi4+0x186>
    6f29: 4c c0 6e     	jmp	$6ec0 <__udivmodsi4+0xee>
    6f2c: c4 0f        	cpy	$f                      ; 0x200f <__heap_default_limit+0x100f>
    6f2e: 90 ec        	bcc	$6f1c <__udivmodsi4+0x14a>
    6f30: 4c fc 6e     	jmp	$6efc <__udivmodsi4+0x12a>
    6f33: c4 0e        	cpy	$e                      ; 0x200e <__heap_default_limit+0x100e>
    6f35: 90 e5        	bcc	$6f1c <__udivmodsi4+0x14a>
    6f37: 4c fc 6e     	jmp	$6efc <__udivmodsi4+0x12a>
    6f3a: 38           	sec
    6f3b: e5 06        	sbc	$6                      ; 0x2006 <__heap_default_limit+0x1006>
    6f3d: aa           	tax
    6f3e: 98           	tya
    6f3f: e5 07        	sbc	$7                      ; 0x2007 <__heap_default_limit+0x1007>
    6f41: 85 07        	sta	$7                      ; 0x2007 <__heap_default_limit+0x1007>
    6f43: a5 11        	lda	$11                     ; 0x2011 <__heap_default_limit+0x1011>
    6f45: e5 08        	sbc	$8                      ; 0x2008 <__heap_default_limit+0x1008>
    6f47: 85 11        	sta	$11                     ; 0x2011 <__heap_default_limit+0x1011>
    6f49: a5 04        	lda	$4                      ; 0x2004 <__heap_default_limit+0x1004>
    6f4b: e5 09        	sbc	$9                      ; 0x2009 <__heap_default_limit+0x1009>
    6f4d: 85 06        	sta	$6                      ; 0x2006 <__heap_default_limit+0x1006>
    6f4f: 8a           	txa
    6f50: a2 01        	ldx	#$1
    6f52: 86 78        	stx	$78                     ; 0x2078 <lprestore+0x3>
    6f54: 64 04        	stz	$4                      ; 0x2004 <__heap_default_limit+0x1004>
    6f56: 64 05        	stz	$5                      ; 0x2005 <__heap_default_limit+0x1005>
    6f58: 92 0a        	sta	($a),z                  ; 0x200a <__heap_default_limit+0x100a>
    6f5a: a0 01        	ldy	#$1
    6f5c: a5 07        	lda	$7                      ; 0x2007 <__heap_default_limit+0x1007>
    6f5e: 91 0a        	sta	($a),y                  ; 0x200a <__heap_default_limit+0x100a>
    6f60: c8           	iny
    6f61: a5 11        	lda	$11                     ; 0x2011 <__heap_default_limit+0x1011>
    6f63: 91 0a        	sta	($a),y                  ; 0x200a <__heap_default_limit+0x100a>
    6f65: c8           	iny
    6f66: a5 06        	lda	$6                      ; 0x2006 <__heap_default_limit+0x1006>
    6f68: 91 0a        	sta	($a),y                  ; 0x200a <__heap_default_limit+0x100a>
    6f6a: a6 0c        	ldx	$c                      ; 0x200c <__heap_default_limit+0x100c>
    6f6c: a5 78        	lda	$78                     ; 0x2078 <lprestore+0x3>
    6f6e: 60           	rts
    6f6f: e4 07        	cpx	$7                      ; 0x2007 <__heap_default_limit+0x1007>
    6f71: b0 03        	bcs	$6f76 <__udivmodsi4+0x1a4>
    6f73: 4c 18 6e     	jmp	$6e18 <__udivmodsi4+0x46>
    6f76: 4c 27 6e     	jmp	$6e27 <__udivmodsi4+0x55>
    6f79: a2 01        	ldx	#$1
    6f7b: 86 78        	stx	$78                     ; 0x2078 <lprestore+0x3>
    6f7d: 64 04        	stz	$4                      ; 0x2004 <__heap_default_limit+0x1004>
    6f7f: 64 05        	stz	$5                      ; 0x2005 <__heap_default_limit+0x1005>
    6f81: 84 11        	sty	$11                     ; 0x2011 <__heap_default_limit+0x1011>
    6f83: a5 08        	lda	$8                      ; 0x2008 <__heap_default_limit+0x1008>
    6f85: 80 d1        	bra	$6f58 <__udivmodsi4+0x186>
    6f87: 84 07        	sty	$7                      ; 0x2007 <__heap_default_limit+0x1007>
    6f89: 4c 1c 6e     	jmp	$6e1c <__udivmodsi4+0x4a>

00006f8c <memcpy>:
    6f8c: a8           	tay
    6f8d: 8a           	txa
    6f8e: d0 03        	bne	$6f93 <memcpy+0x7>
    6f90: 98           	tya
    6f91: f0 24        	beq	$6fb7 <memcpy+0x2b>
    6f93: a5 04        	lda	$4                      ; 0x2004 <__heap_default_limit+0x1004>
    6f95: 85 08        	sta	$8                      ; 0x2008 <__heap_default_limit+0x1008>
    6f97: a5 05        	lda	$5                      ; 0x2005 <__heap_default_limit+0x1005>
    6f99: 85 09        	sta	$9                      ; 0x2009 <__heap_default_limit+0x1009>
    6f9b: b2 06        	lda	($6),z                  ; 0x2006 <__heap_default_limit+0x1006>
    6f9d: 92 08        	sta	($8),z                  ; 0x2008 <__heap_default_limit+0x1008>
    6f9f: e6 08        	inc	$8                      ; 0x2008 <__heap_default_limit+0x1008>
    6fa1: d0 02        	bne	$6fa5 <memcpy+0x19>
    6fa3: e6 09        	inc	$9                      ; 0x2009 <__heap_default_limit+0x1009>
    6fa5: e6 06        	inc	$6                      ; 0x2006 <__heap_default_limit+0x1006>
    6fa7: d0 02        	bne	$6fab <memcpy+0x1f>
    6fa9: e6 07        	inc	$7                      ; 0x2007 <__heap_default_limit+0x1007>
    6fab: 88           	dey
    6fac: c0 ff        	cpy	#$ff
    6fae: d0 01        	bne	$6fb1 <memcpy+0x25>
    6fb0: ca           	dex
    6fb1: 8a           	txa
    6fb2: d0 e7        	bne	$6f9b <memcpy+0xf>
    6fb4: 98           	tya
    6fb5: d0 e4        	bne	$6f9b <memcpy+0xf>
    6fb7: 60           	rts

00006fb8 <__memset>:
    6fb8: a4 06        	ldy	$6                      ; 0x2006 <__heap_default_limit+0x1006>
    6fba: d0 04        	bne	$6fc0 <__memset+0x8>
    6fbc: e0 00        	cpx	#$0
    6fbe: f0 17        	beq	$6fd7 <__memset+0x1f>
    6fc0: 92 04        	sta	($4),z                  ; 0x2004 <__heap_default_limit+0x1004>
    6fc2: e6 04        	inc	$4                      ; 0x2004 <__heap_default_limit+0x1004>
    6fc4: d0 02        	bne	$6fc8 <__memset+0x10>
    6fc6: e6 05        	inc	$5                      ; 0x2005 <__heap_default_limit+0x1005>
    6fc8: ca           	dex
    6fc9: e0 ff        	cpx	#$ff
    6fcb: d0 02        	bne	$6fcf <__memset+0x17>
    6fcd: c6 06        	dec	$6                      ; 0x2006 <__heap_default_limit+0x1006>
    6fcf: a4 06        	ldy	$6                      ; 0x2006 <__heap_default_limit+0x1006>
    6fd1: d0 ed        	bne	$6fc0 <__memset+0x8>
    6fd3: e0 00        	cpx	#$0
    6fd5: d0 e9        	bne	$6fc0 <__memset+0x8>
    6fd7: 60           	rts
