
midnightmega.prg.elf:	file format elf32-mos

SYMBOL TABLE:
0000204d l       .text	00000000 fourbytes
00002051 l       .text	00000000 lpstore
0000206c l       .text	00000000 lprestore
00000000 l    df *ABS*	00000000 exit-return.c
00002015 l       .basic_header	00000000 next_line
00000000 l    df *ABS*	00000000 divmod-large.cc
00000000 l    df *ABS*	00000000 zero-bss.c
00000000 l    df *ABS*	00000000 zero-zp-bss.c
00000000 l    df *ABS*	00000000 copy-zp-data.c
00000000 l    df *ABS*	00000000 ld-temp.o
0000d640 l       *ABS*	00000000 HTRAP00
00000050 l     O .zp.bss	00000001 g_curScreenW
00007211 l     O .bss	00000001 g_curScreenH
00007212 l     O .bss	000002fd escapeCode
0000619c l     F .text	00000001 escNOP
00000027 l     O .zp.data	00000001 g_curTextColor
000057e2 l     F .text	0000005f clrhome
000058f4 l     F .text	00000016 mcputsxy
00005841 l     F .text	0000000e msprintf
00005c9f l     F .text	00000356 shortcuts
00005a99 l     F .text	0000010b messagebox
00006ce5 l     O .rodata	00000004 midnight
00005ba4 l     F .text	000000ba progress
0000601e l     F .text	0000017e UpdateSectors
00006d5c l     O .bss	00000001 fnamehi
00003750 l       .text	00000000 errgetproc0
00003754 l       .text	00000000 donegetproc0
0000584f l     F .text	0000002b mprintf
00000028 l     O .zp.bss	00000028 s
000062da l     F .text	000000dd cputsxy
000056de l     F .text	000000b3 csputdec
000061b1 l     F .text	00000009 cputc
0000545f l     F .text	000000cd getdirententry
000055ba l     F .text	00000124 cputln
0000590a l     F .text	0000018f mcbox
000071ef l     O .bss	00000022 diskname
00000051 l     O .zp.bss	00000001 g_curX
000053e8 l     F .text	00000077 tracksectorstring
00004d83 l     F .text	0000004a GetOneSector
00006491 l     F .text	00000067 lcopy
00004dcd l     F .text	000000d5 PutOneSector
00005ff5 l     F .text	00000029 cgetcalt
00006d5d l     O .bss	00000492 filelist
00006548 l     F .text	00000038 strcpy
00003d8a l       .text	00000000 hypreaddirloop1
00003da2 l       .text	00000000 errhypreaddir1
00003da4 l       .text	00000000 donehypreaddir1
00003e58 l       .text	00000000 errgetcurdrv2
00003e5c l       .text	00000000 donegetcurdrv2
00003e76 l       .text	00000000 errhypopendir3
00003e7a l       .text	00000000 donehypopendir3
00003f0d l       .text	00000000 errhypsetnam4
00003f11 l       .text	00000000 donehypsetnam4
00003f2a l       .text	00000000 errhyp1att5
00003f2e l       .text	00000000 donehyp1att5
000058b7 l     F .text	0000003d mh4printf
00003fa1 l       .text	00000000 errhyp0att6
00003fa5 l       .text	00000000 donehyp0att6
0000552c l     F .text	0000008e getdirent
00004edb l     F .text	00000060 PutBAM
00004ea2 l     F .text	00000039 GetBAM
00005047 l     F .text	00000250 BAMSectorUpdate
00004463 l       .text	00000000 errhypclosedir7
00004465 l       .text	00000000 donehypclosedir7
00004f3b l     F .text	0000010c readblockchain
00005297 l     F .text	00000151 findnextBAMtracksector
000064f8 l     F .text	00000050 lfill
00004cf6 l     F .text	0000008d ReadSector
0000587a l     F .text	0000003d mhprintf
00006461 l     F .text	00000009 cgetc
00006ce1 l     O .rodata	00000004 BAMsector
00000052 l     O .zp.bss	00000001 g_curY
0000619d l     F .text	00000014 getscreenaddr
000062d3 l     F .text	00000007 cputs
00005791 l     F .text	00000051 asciitoscreencode_s
0000625f l     F .text	00000074 cputhex
000063b7 l     F .text	000000aa fillrect
000061ba l     F .text	000000a5 cputcxy
00005c5e l     F .text	00000041 shortcutprint
00006d4c l     O .rodata	00000010 hexDigits
00006580 l     F .text	00000034 strlen
0000646a l     F .text	00000027 do_dma
00000053 l     O .zp.bss	00000014 dmalist
00003578 g     F .text	0000177e main
00002087 g       .text	00000000 lpoke
000020a8 g       .text	00000000 lpeek
00000007 g       *ABS*	00000000 __rc5
00000008 g       *ABS*	00000000 __rc6
00000009 g       *ABS*	00000000 __rc7
0000000a g       *ABS*	00000000 __rc8
00000004 g       *ABS*	00000000 __rc2
00000005 g       *ABS*	00000000 __rc3
00000006 g       *ABS*	00000000 __rc4
0000203f g       .text	00000000 __after_main
0000202b g       .text	00000000 __do_init_stack
00002039 g       .text	00000000 __do_copy_zp_data
00003561 g     F .text	00000017 __copy_zp_data
00002033 g       .text	00000000 __do_zero_bss
0000353b g     F .text	00000013 __zero_bss
00002036 g       .text	00000000 __do_zero_zp_bss
0000354e g     F .text	00000013 __zero_zp_bss
000020c6 g     F .text	0000000a __exit_return
00002042 g       .text	00000000 _fini
0000d000 g       *ABS*	00000000 __stack
00000002 g       *ABS*	00000000 __rc0
00000003 g       *ABS*	00000000 __rc1
00006684 g     F .text	00000082 __udivmodqi4
00006706 g     F .text	000000da __udivmodhi4
000020d0 g     F .text	00000252 __udivmodsi4
00002322 g     F .text	000005af __udivmoddi4
000028d1 g     F .text	00000399 __divmodsi4
00002c6a g     F .text	000008d1 __divmoddi4
000065c7 g     F .text	0000001b __mulqi3
000065e2 g     F .text	00000032 __mulhi3
00006614 g     F .text	00000070 __mulsi3
000065b4 g     F .text	00000013 __ashlhi3
000067e0  w    F .text	0000002d memcpy
0000680d  w    F .text	0000001f __memset
0000201d g       .text	00000000 _start
00000002 g       *ABS*	00000000 __basic_zp_start
0000000b g       *ABS*	00000000 __rc9
0000000c g       *ABS*	00000000 __rc10
0000000d g       *ABS*	00000000 __rc11
0000000e g       *ABS*	00000000 __rc12
0000000f g       *ABS*	00000000 __rc13
00000010 g       *ABS*	00000000 __rc14
00000011 g       *ABS*	00000000 __rc15
00000012 g       *ABS*	00000000 __rc16
00000013 g       *ABS*	00000000 __rc17
00000014 g       *ABS*	00000000 __rc18
00000015 g       *ABS*	00000000 __rc19
00000016 g       *ABS*	00000000 __rc20
00000017 g       *ABS*	00000000 __rc21
00000018 g       *ABS*	00000000 __rc22
00000019 g       *ABS*	00000000 __rc23
0000001a g       *ABS*	00000000 __rc24
0000001b g       *ABS*	00000000 __rc25
0000001c g       *ABS*	00000000 __rc26
0000001d g       *ABS*	00000000 __rc27
0000001e g       *ABS*	00000000 __rc28
0000001f g       *ABS*	00000000 __rc29
00000020 g       *ABS*	00000000 __rc30
00000021 g       *ABS*	00000000 __rc31
00000090 g       *ABS*	00000000 __basic_zp_end
00000022 g       .zp.data	00000000 __zp_data_start
00002017 g       *ABS*	00000000 __zp_data_load_start
00000006 g       *ABS*	00000000 __zp_data_size
00000028 g       .zp.bss	00000000 __zp_bss_start
0000003f g       *ABS*	00000000 __zp_bss_size
0000201d g       .text	00000000 _init
0000682c g       .text	00000000 __init_array_start
0000682c g       .text	00000000 __init_array_end
0000682c g       .text	00000000 __fini_array_start
0000682c g       .text	00000000 __fini_array_end
00006d5c g       .data	00000000 __data_start
00006d5c g       .data	00000000 __data_end
00006d5c g       *ABS*	00000000 __data_load_start
00000000 g       *ABS*	00000000 __data_size
00006d5c g       .bss	00000000 __bss_start
0000750f g       .bss	00000000 __bss_end
000007b3 g       *ABS*	00000000 __bss_size
0000752d g       .noinit	00000000 __heap_start

Disassembly of section .text:

0000201d <_start>:
    201d: 78           	sei
    201e: a2 2f        	ldx	#$2f
    2020: 86 00        	stx	$0                      ; 0x0 <__data_size>
    2022: a2 3e        	ldx	#$3e
    2024: 86 01        	stx	$1                      ; 0x1 <__data_size+0x1>
    2026: a2 44        	ldx	#$44
    2028: 8e 30 d0     	stx	$d030                   ; 0xd030 <__heap_start+0x5b03>

0000202b <__do_init_stack>:
    202b: a9 00        	lda	#$0
    202d: 85 02        	sta	$2                      ; 0x2 <__rc0>
    202f: a9 d0        	lda	#$d0
    2031: 85 03        	sta	$3                      ; 0x3 <__rc1>

00002033 <__do_zero_bss>:
    2033: 20 3b 35     	jsr	$353b <__zero_bss>

00002036 <__do_zero_zp_bss>:
    2036: 20 4e 35     	jsr	$354e <__zero_zp_bss>

00002039 <__do_copy_zp_data>:
    2039: 20 61 35     	jsr	$3561 <__copy_zp_data>
    203c: 20 78 35     	jsr	$3578 <main>

0000203f <__after_main>:
    203f: 4c c6 20     	jmp	$20c6 <__exit_return>

00002042 <_fini>:
    2042: a2 3f        	ldx	#$3f
    2044: 86 01        	stx	$1                      ; 0x1 <__data_size+0x1>
    2046: a2 64        	ldx	#$64
    2048: 8e 30 d0     	stx	$d030                   ; 0xd030 <__heap_start+0x5b03>
    204b: 58           	cli
    204c: 60           	rts

0000204d <fourbytes>:
    204d: 00           	brk
    204e: 00           	brk
    204f: 00           	brk
    2050: 00           	brk

00002051 <lpstore>:
    2051: 48           	pha
    2052: ad 07 00     	lda	$7                      ; 0x7 <__rc5>
    2055: 8d 4d 20     	sta	$204d                   ; 0x204d <fourbytes>
    2058: ad 08 00     	lda	$8                      ; 0x8 <__rc6>
    205b: 8d 4e 20     	sta	$204e                   ; 0x204e <fourbytes+0x1>
    205e: ad 09 00     	lda	$9                      ; 0x9 <__rc7>
    2061: 8d 4f 20     	sta	$204f                   ; 0x204f <fourbytes+0x2>
    2064: ad 0a 00     	lda	$a                      ; 0xa <__rc8>
    2067: 8d 50 20     	sta	$2050                   ; 0x2050 <fourbytes+0x3>
    206a: 68           	pla
    206b: 60           	rts

0000206c <lprestore>:
    206c: 48           	pha
    206d: ad 4d 20     	lda	$204d                   ; 0x204d <fourbytes>
    2070: 8d 07 00     	sta	$7                      ; 0x7 <__rc5>
    2073: ad 4e 20     	lda	$204e                   ; 0x204e <fourbytes+0x1>
    2076: 8d 08 00     	sta	$8                      ; 0x8 <__rc6>
    2079: ad 4f 20     	lda	$204f                   ; 0x204f <fourbytes+0x2>
    207c: 8d 09 00     	sta	$9                      ; 0x9 <__rc7>
    207f: ad 50 20     	lda	$2050                   ; 0x2050 <fourbytes+0x3>
    2082: 8d 0a 00     	sta	$a                      ; 0xa <__rc8>
    2085: 68           	pla
    2086: 60           	rts

00002087 <lpoke>:
    2087: 20 51 20     	jsr	$2051 <lpstore>
    208a: 8d 07 00     	sta	$7                      ; 0x7 <__rc5>
    208d: 8e 08 00     	stx	$8                      ; 0x8 <__rc6>
    2090: ad 04 00     	lda	$4                      ; 0x4 <__rc2>
    2093: 8d 09 00     	sta	$9                      ; 0x9 <__rc7>
    2096: ad 05 00     	lda	$5                      ; 0x5 <__rc3>
    2099: 8d 0a 00     	sta	$a                      ; 0xa <__rc8>
    209c: ad 06 00     	lda	$6                      ; 0x6 <__zp_data_size>
    209f: a3 00        	ldz	#$0
    20a1: ea 92 07     	sta	[$7],z                  ; 0x7 <__rc5>
    20a4: 20 6c 20     	jsr	$206c <lprestore>
    20a7: 60           	rts

000020a8 <lpeek>:
    20a8: 20 51 20     	jsr	$2051 <lpstore>
    20ab: 8d 06 00     	sta	$6                      ; 0x6 <__zp_data_size>
    20ae: 8e 07 00     	stx	$7                      ; 0x7 <__rc5>
    20b1: ad 04 00     	lda	$4                      ; 0x4 <__rc2>
    20b4: 8d 08 00     	sta	$8                      ; 0x8 <__rc6>
    20b7: ad 05 00     	lda	$5                      ; 0x5 <__rc3>
    20ba: 8d 09 00     	sta	$9                      ; 0x9 <__rc7>
    20bd: a3 00        	ldz	#$0
    20bf: ea b2 06     	lda	[$6],z                  ; 0x6 <__zp_data_size>
    20c2: 20 6c 20     	jsr	$206c <lprestore>
    20c5: 60           	rts

000020c6 <__exit_return>:
    20c6: 8d 0f 75     	sta	$750f                   ; 0x750f <__data_load_start+0x7b3>
    20c9: 20 42 20     	jsr	$2042 <_fini>
    20cc: ad 0f 75     	lda	$750f                   ; 0x750f <__data_load_start+0x7b3>
    20cf: 60           	rts

000020d0 <__udivmodsi4>:
    20d0: 48           	pha
    20d1: 18           	clc
    20d2: a5 02        	lda	$2                      ; 0x2 <__rc0>
    20d4: 69 fc        	adc	#$fc
    20d6: 85 02        	sta	$2                      ; 0x2 <__rc0>
    20d8: a5 03        	lda	$3                      ; 0x3 <__rc1>
    20da: 69 ff        	adc	#$ff
    20dc: 85 03        	sta	$3                      ; 0x3 <__rc1>
    20de: 68           	pla
    20df: 86 10        	stx	$10                     ; 0x10 <__rc14>
    20e1: a6 04        	ldx	$4                      ; 0x4 <__rc2>
    20e3: 86 0e        	stx	$e                      ; 0xe <__rc12>
    20e5: a6 05        	ldx	$5                      ; 0x5 <__rc3>
    20e7: a0 00        	ldy	#$0
    20e9: e6 09        	inc	$9                      ; 0x9 <__rc7>
    20eb: c6 09        	dec	$9                      ; 0x9 <__rc7>
    20ed: d0 15        	bne	$2104 <__udivmodsi4+0x34>
    20ef: e6 08        	inc	$8                      ; 0x8 <__rc6>
    20f1: c6 08        	dec	$8                      ; 0x8 <__rc6>
    20f3: d0 0f        	bne	$2104 <__udivmodsi4+0x34>
    20f5: e6 07        	inc	$7                      ; 0x7 <__rc5>
    20f7: c6 07        	dec	$7                      ; 0x7 <__rc5>
    20f9: d0 09        	bne	$2104 <__udivmodsi4+0x34>
    20fb: e6 06        	inc	$6                      ; 0x6 <__zp_data_size>
    20fd: c6 06        	dec	$6                      ; 0x6 <__zp_data_size>
    20ff: d0 03        	bne	$2104 <__udivmodsi4+0x34>
    2101: 4c 1d 23     	jmp	$231d <__udivmodsi4+0x24d>
    2104: 86 11        	stx	$11                     ; 0x11 <__rc15>
    2106: e4 09        	cpx	$9                      ; 0x9 <__rc7>
    2108: d0 16        	bne	$2120 <__udivmodsi4+0x50>
    210a: a6 04        	ldx	$4                      ; 0x4 <__rc2>
    210c: e4 08        	cpx	$8                      ; 0x8 <__rc6>
    210e: d0 1e        	bne	$212e <__udivmodsi4+0x5e>
    2110: a6 10        	ldx	$10                     ; 0x10 <__rc14>
    2112: e4 07        	cpx	$7                      ; 0x7 <__rc5>
    2114: f0 03        	beq	$2119 <__udivmodsi4+0x49>
    2116: 4c f8 22     	jmp	$22f8 <__udivmodsi4+0x228>
    2119: c5 06        	cmp	$6                      ; 0x6 <__zp_data_size>
    211b: 90 07        	bcc	$2124 <__udivmodsi4+0x54>
    211d: 4c 32 21     	jmp	$2132 <__udivmodsi4+0x62>
    2120: e4 09        	cpx	$9                      ; 0x9 <__rc7>
    2122: b0 0e        	bcs	$2132 <__udivmodsi4+0x62>
    2124: 85 0f        	sta	$f                      ; 0xf <__rc13>
    2126: a6 11        	ldx	$11                     ; 0x11 <__rc15>
    2128: 86 06        	stx	$6                      ; 0x6 <__zp_data_size>
    212a: 98           	tya
    212b: 4c 9e 22     	jmp	$229e <__udivmodsi4+0x1ce>
    212e: e4 08        	cpx	$8                      ; 0x8 <__rc6>
    2130: 90 f2        	bcc	$2124 <__udivmodsi4+0x54>
    2132: a6 09        	ldx	$9                      ; 0x9 <__rc7>
    2134: 10 03        	bpl	$2139 <__udivmodsi4+0x69>
    2136: 4c 84 22     	jmp	$2284 <__udivmodsi4+0x1b4>
    2139: a2 00        	ldx	#$0
    213b: a4 06        	ldy	$6                      ; 0x6 <__zp_data_size>
    213d: 84 04        	sty	$4                      ; 0x4 <__rc2>
    213f: a4 07        	ldy	$7                      ; 0x7 <__rc5>
    2141: 84 05        	sty	$5                      ; 0x5 <__rc3>
    2143: a4 08        	ldy	$8                      ; 0x8 <__rc6>
    2145: 84 0c        	sty	$c                      ; 0xc <__rc10>
    2147: a4 09        	ldy	$9                      ; 0x9 <__rc7>
    2149: 84 0d        	sty	$d                      ; 0xd <__rc11>
    214b: 06 04        	asl	$4                      ; 0x4 <__rc2>
    214d: 26 05        	rol	$5                      ; 0x5 <__rc3>
    214f: 26 0c        	rol	$c                      ; 0xc <__rc10>
    2151: 26 0d        	rol	$d                      ; 0xd <__rc11>
    2153: a4 11        	ldy	$11                     ; 0x11 <__rc15>
    2155: c4 0d        	cpy	$d                      ; 0xd <__rc11>
    2157: d0 13        	bne	$216c <__udivmodsi4+0x9c>
    2159: a4 0e        	ldy	$e                      ; 0xe <__rc12>
    215b: c4 0c        	cpy	$c                      ; 0xc <__rc10>
    215d: d0 14        	bne	$2173 <__udivmodsi4+0xa3>
    215f: a4 10        	ldy	$10                     ; 0x10 <__rc14>
    2161: c4 05        	cpy	$5                      ; 0x5 <__rc3>
    2163: d0 15        	bne	$217a <__udivmodsi4+0xaa>
    2165: c5 04        	cmp	$4                      ; 0x4 <__rc2>
    2167: 90 2b        	bcc	$2194 <__udivmodsi4+0xc4>
    2169: 4c 7e 21     	jmp	$217e <__udivmodsi4+0xae>
    216c: c4 0d        	cpy	$d                      ; 0xd <__rc11>
    216e: b0 0e        	bcs	$217e <__udivmodsi4+0xae>
    2170: 4c 94 21     	jmp	$2194 <__udivmodsi4+0xc4>
    2173: c4 0c        	cpy	$c                      ; 0xc <__rc10>
    2175: 90 1d        	bcc	$2194 <__udivmodsi4+0xc4>
    2177: 4c 7e 21     	jmp	$217e <__udivmodsi4+0xae>
    217a: c4 05        	cpy	$5                      ; 0x5 <__rc3>
    217c: 90 16        	bcc	$2194 <__udivmodsi4+0xc4>
    217e: e8           	inx
    217f: a4 04        	ldy	$4                      ; 0x4 <__rc2>
    2181: 84 06        	sty	$6                      ; 0x6 <__zp_data_size>
    2183: a4 05        	ldy	$5                      ; 0x5 <__rc3>
    2185: 84 07        	sty	$7                      ; 0x7 <__rc5>
    2187: a4 0c        	ldy	$c                      ; 0xc <__rc10>
    2189: 84 08        	sty	$8                      ; 0x8 <__rc6>
    218b: a4 0d        	ldy	$d                      ; 0xd <__rc11>
    218d: 84 09        	sty	$9                      ; 0x9 <__rc7>
    218f: 10 ba        	bpl	$214b <__udivmodsi4+0x7b>
    2191: 4c a4 21     	jmp	$21a4 <__udivmodsi4+0xd4>
    2194: a4 06        	ldy	$6                      ; 0x6 <__zp_data_size>
    2196: 84 04        	sty	$4                      ; 0x4 <__rc2>
    2198: a4 07        	ldy	$7                      ; 0x7 <__rc5>
    219a: 84 05        	sty	$5                      ; 0x5 <__rc3>
    219c: a4 08        	ldy	$8                      ; 0x8 <__rc6>
    219e: 84 0c        	sty	$c                      ; 0xc <__rc10>
    21a0: a4 09        	ldy	$9                      ; 0x9 <__rc7>
    21a2: 84 0d        	sty	$d                      ; 0xd <__rc11>
    21a4: 38           	sec
    21a5: e5 04        	sbc	$4                      ; 0x4 <__rc2>
    21a7: 85 0f        	sta	$f                      ; 0xf <__rc13>
    21a9: a5 10        	lda	$10                     ; 0x10 <__rc14>
    21ab: e5 05        	sbc	$5                      ; 0x5 <__rc3>
    21ad: 85 10        	sta	$10                     ; 0x10 <__rc14>
    21af: a5 0e        	lda	$e                      ; 0xe <__rc12>
    21b1: e5 0c        	sbc	$c                      ; 0xc <__rc10>
    21b3: 85 07        	sta	$7                      ; 0x7 <__rc5>
    21b5: a5 11        	lda	$11                     ; 0x11 <__rc15>
    21b7: e5 0d        	sbc	$d                      ; 0xd <__rc11>
    21b9: e0 00        	cpx	#$0
    21bb: d0 03        	bne	$21c0 <__udivmodsi4+0xf0>
    21bd: 4c 02 23     	jmp	$2302 <__udivmodsi4+0x232>
    21c0: 85 06        	sta	$6                      ; 0x6 <__zp_data_size>
    21c2: a9 00        	lda	#$0
    21c4: a0 02        	ldy	#$2
    21c6: 91 02        	sta	($2),y                  ; 0x2 <__rc0>
    21c8: 88           	dey
    21c9: 98           	tya
    21ca: a0 03        	ldy	#$3
    21cc: 91 02        	sta	($2),y                  ; 0x2 <__rc0>
    21ce: a0 00        	ldy	#$0
    21d0: 98           	tya
    21d1: c8           	iny
    21d2: 91 02        	sta	($2),y                  ; 0x2 <__rc0>
    21d4: 88           	dey
    21d5: 98           	tya
    21d6: 91 02        	sta	($2),y                  ; 0x2 <__rc0>
    21d8: a4 07        	ldy	$7                      ; 0x7 <__rc5>
    21da: 84 0e        	sty	$e                      ; 0xe <__rc12>
    21dc: 46 0d        	lsr	$d                      ; 0xd <__rc11>
    21de: 66 0c        	ror	$c                      ; 0xc <__rc10>
    21e0: 66 05        	ror	$5                      ; 0x5 <__rc3>
    21e2: 66 04        	ror	$4                      ; 0x4 <__rc2>
    21e4: a0 03        	ldy	#$3
    21e6: b1 02        	lda	($2),y                  ; 0x2 <__rc0>
    21e8: 0a           	asl
    21e9: 84 13        	sty	$13                     ; 0x13 <__rc17>
    21eb: a0 01        	ldy	#$1
    21ed: b0 02        	bcs	$21f1 <__udivmodsi4+0x121>
    21ef: a0 00        	ldy	#$0
    21f1: 84 11        	sty	$11                     ; 0x11 <__rc15>
    21f3: a4 13        	ldy	$13                     ; 0x13 <__rc17>
    21f5: 91 02        	sta	($2),y                  ; 0x2 <__rc0>
    21f7: a4 06        	ldy	$6                      ; 0x6 <__zp_data_size>
    21f9: c4 0d        	cpy	$d                      ; 0xd <__rc11>
    21fb: d0 1b        	bne	$2218 <__udivmodsi4+0x148>
    21fd: a5 0e        	lda	$e                      ; 0xe <__rc12>
    21ff: c5 0c        	cmp	$c                      ; 0xc <__rc10>
    2201: f0 03        	beq	$2206 <__udivmodsi4+0x136>
    2203: 4c 76 22     	jmp	$2276 <__udivmodsi4+0x1a6>
    2206: a4 10        	ldy	$10                     ; 0x10 <__rc14>
    2208: c4 05        	cpy	$5                      ; 0x5 <__rc3>
    220a: f0 03        	beq	$220f <__udivmodsi4+0x13f>
    220c: 4c 7d 22     	jmp	$227d <__udivmodsi4+0x1ad>
    220f: a4 0f        	ldy	$f                      ; 0xf <__rc13>
    2211: c4 04        	cpy	$4                      ; 0x4 <__rc2>
    2213: b0 07        	bcs	$221c <__udivmodsi4+0x14c>
    2215: 4c 44 22     	jmp	$2244 <__udivmodsi4+0x174>
    2218: c4 0d        	cpy	$d                      ; 0xd <__rc11>
    221a: 90 28        	bcc	$2244 <__udivmodsi4+0x174>
    221c: a0 03        	ldy	#$3
    221e: b1 02        	lda	($2),y                  ; 0x2 <__rc0>
    2220: 85 07        	sta	$7                      ; 0x7 <__rc5>
    2222: 38           	sec
    2223: a5 0f        	lda	$f                      ; 0xf <__rc13>
    2225: e5 04        	sbc	$4                      ; 0x4 <__rc2>
    2227: 85 0f        	sta	$f                      ; 0xf <__rc13>
    2229: a5 10        	lda	$10                     ; 0x10 <__rc14>
    222b: e5 05        	sbc	$5                      ; 0x5 <__rc3>
    222d: 85 10        	sta	$10                     ; 0x10 <__rc14>
    222f: a5 0e        	lda	$e                      ; 0xe <__rc12>
    2231: e5 0c        	sbc	$c                      ; 0xc <__rc10>
    2233: a8           	tay
    2234: a5 06        	lda	$6                      ; 0x6 <__zp_data_size>
    2236: e5 0d        	sbc	$d                      ; 0xd <__rc11>
    2238: 85 06        	sta	$6                      ; 0x6 <__zp_data_size>
    223a: 84 0e        	sty	$e                      ; 0xe <__rc12>
    223c: a5 07        	lda	$7                      ; 0x7 <__rc5>
    223e: 09 01        	ora	#$1
    2240: a0 03        	ldy	#$3
    2242: 91 02        	sta	($2),y                  ; 0x2 <__rc0>
    2244: a0 00        	ldy	#$0
    2246: a5 11        	lda	$11                     ; 0x11 <__rc15>
    2248: c9 01        	cmp	#$1
    224a: 84 13        	sty	$13                     ; 0x13 <__rc17>
    224c: a0 02        	ldy	#$2
    224e: b1 02        	lda	($2),y                  ; 0x2 <__rc0>
    2250: 85 07        	sta	$7                      ; 0x7 <__rc5>
    2252: 26 07        	rol	$7                      ; 0x7 <__rc5>
    2254: a5 07        	lda	$7                      ; 0x7 <__rc5>
    2256: 91 02        	sta	($2),y                  ; 0x2 <__rc0>
    2258: 88           	dey
    2259: b1 02        	lda	($2),y                  ; 0x2 <__rc0>
    225b: 85 07        	sta	$7                      ; 0x7 <__rc5>
    225d: 26 07        	rol	$7                      ; 0x7 <__rc5>
    225f: a5 07        	lda	$7                      ; 0x7 <__rc5>
    2261: 91 02        	sta	($2),y                  ; 0x2 <__rc0>
    2263: 88           	dey
    2264: b1 02        	lda	($2),y                  ; 0x2 <__rc0>
    2266: 85 07        	sta	$7                      ; 0x7 <__rc5>
    2268: 26 07        	rol	$7                      ; 0x7 <__rc5>
    226a: a5 07        	lda	$7                      ; 0x7 <__rc5>
    226c: 91 02        	sta	($2),y                  ; 0x2 <__rc0>
    226e: a4 13        	ldy	$13                     ; 0x13 <__rc17>
    2270: ca           	dex
    2271: f0 4e        	beq	$22c1 <__udivmodsi4+0x1f1>
    2273: 4c dc 21     	jmp	$21dc <__udivmodsi4+0x10c>
    2276: c5 0c        	cmp	$c                      ; 0xc <__rc10>
    2278: 90 ca        	bcc	$2244 <__udivmodsi4+0x174>
    227a: 4c 1c 22     	jmp	$221c <__udivmodsi4+0x14c>
    227d: c4 05        	cpy	$5                      ; 0x5 <__rc3>
    227f: 90 c3        	bcc	$2244 <__udivmodsi4+0x174>
    2281: 4c 1c 22     	jmp	$221c <__udivmodsi4+0x14c>
    2284: 38           	sec
    2285: e5 06        	sbc	$6                      ; 0x6 <__zp_data_size>
    2287: 85 0f        	sta	$f                      ; 0xf <__rc13>
    2289: a5 10        	lda	$10                     ; 0x10 <__rc14>
    228b: e5 07        	sbc	$7                      ; 0x7 <__rc5>
    228d: 85 10        	sta	$10                     ; 0x10 <__rc14>
    228f: a5 04        	lda	$4                      ; 0x4 <__rc2>
    2291: e5 08        	sbc	$8                      ; 0x8 <__rc6>
    2293: 85 0e        	sta	$e                      ; 0xe <__rc12>
    2295: a5 11        	lda	$11                     ; 0x11 <__rc15>
    2297: e5 09        	sbc	$9                      ; 0x9 <__rc7>
    2299: 85 06        	sta	$6                      ; 0x6 <__zp_data_size>
    229b: a2 01        	ldx	#$1
    229d: 8a           	txa
    229e: 84 13        	sty	$13                     ; 0x13 <__rc17>
    22a0: a0 03        	ldy	#$3
    22a2: 91 02        	sta	($2),y                  ; 0x2 <__rc0>
    22a4: a4 13        	ldy	$13                     ; 0x13 <__rc17>
    22a6: 98           	tya
    22a7: 84 13        	sty	$13                     ; 0x13 <__rc17>
    22a9: a0 02        	ldy	#$2
    22ab: 91 02        	sta	($2),y                  ; 0x2 <__rc0>
    22ad: a4 13        	ldy	$13                     ; 0x13 <__rc17>
    22af: 98           	tya
    22b0: 84 13        	sty	$13                     ; 0x13 <__rc17>
    22b2: a0 01        	ldy	#$1
    22b4: 91 02        	sta	($2),y                  ; 0x2 <__rc0>
    22b6: a4 13        	ldy	$13                     ; 0x13 <__rc17>
    22b8: 98           	tya
    22b9: 84 13        	sty	$13                     ; 0x13 <__rc17>
    22bb: a0 00        	ldy	#$0
    22bd: 91 02        	sta	($2),y                  ; 0x2 <__rc0>
    22bf: a4 13        	ldy	$13                     ; 0x13 <__rc17>
    22c1: a5 0f        	lda	$f                      ; 0xf <__rc13>
    22c3: 91 0a        	sta	($a),y                  ; 0xa <__rc8>
    22c5: a5 10        	lda	$10                     ; 0x10 <__rc14>
    22c7: a0 01        	ldy	#$1
    22c9: 91 0a        	sta	($a),y                  ; 0xa <__rc8>
    22cb: c8           	iny
    22cc: a5 0e        	lda	$e                      ; 0xe <__rc12>
    22ce: 91 0a        	sta	($a),y                  ; 0xa <__rc8>
    22d0: c8           	iny
    22d1: a5 06        	lda	$6                      ; 0x6 <__zp_data_size>
    22d3: 91 0a        	sta	($a),y                  ; 0xa <__rc8>
    22d5: a0 01        	ldy	#$1
    22d7: b1 02        	lda	($2),y                  ; 0x2 <__rc0>
    22d9: 85 04        	sta	$4                      ; 0x4 <__rc2>
    22db: 88           	dey
    22dc: b1 02        	lda	($2),y                  ; 0x2 <__rc0>
    22de: 85 05        	sta	$5                      ; 0x5 <__rc3>
    22e0: a0 02        	ldy	#$2
    22e2: b1 02        	lda	($2),y                  ; 0x2 <__rc0>
    22e4: aa           	tax
    22e5: c8           	iny
    22e6: b1 02        	lda	($2),y                  ; 0x2 <__rc0>
    22e8: 48           	pha
    22e9: 18           	clc
    22ea: a5 02        	lda	$2                      ; 0x2 <__rc0>
    22ec: 69 04        	adc	#$4
    22ee: 85 02        	sta	$2                      ; 0x2 <__rc0>
    22f0: a5 03        	lda	$3                      ; 0x3 <__rc1>
    22f2: 69 00        	adc	#$0
    22f4: 85 03        	sta	$3                      ; 0x3 <__rc1>
    22f6: 68           	pla
    22f7: 60           	rts
    22f8: e4 07        	cpx	$7                      ; 0x7 <__rc5>
    22fa: b0 03        	bcs	$22ff <__udivmodsi4+0x22f>
    22fc: 4c 24 21     	jmp	$2124 <__udivmodsi4+0x54>
    22ff: 4c 32 21     	jmp	$2132 <__udivmodsi4+0x62>
    2302: 85 06        	sta	$6                      ; 0x6 <__zp_data_size>
    2304: a2 01        	ldx	#$1
    2306: 8a           	txa
    2307: a0 03        	ldy	#$3
    2309: 91 02        	sta	($2),y                  ; 0x2 <__rc0>
    230b: ca           	dex
    230c: 8a           	txa
    230d: 88           	dey
    230e: 91 02        	sta	($2),y                  ; 0x2 <__rc0>
    2310: 88           	dey
    2311: 91 02        	sta	($2),y                  ; 0x2 <__rc0>
    2313: 88           	dey
    2314: 91 02        	sta	($2),y                  ; 0x2 <__rc0>
    2316: a6 07        	ldx	$7                      ; 0x7 <__rc5>
    2318: 86 0e        	stx	$e                      ; 0xe <__rc12>
    231a: 4c c1 22     	jmp	$22c1 <__udivmodsi4+0x1f1>
    231d: 85 0f        	sta	$f                      ; 0xf <__rc13>
    231f: 4c 28 21     	jmp	$2128 <__udivmodsi4+0x58>

00002322 <__udivmoddi4>:
    2322: 85 12        	sta	$12                     ; 0x12 <__rc16>
    2324: 18           	clc
    2325: a5 02        	lda	$2                      ; 0x2 <__rc0>
    2327: 69 f0        	adc	#$f0
    2329: 85 02        	sta	$2                      ; 0x2 <__rc0>
    232b: a5 03        	lda	$3                      ; 0x3 <__rc1>
    232d: 69 ff        	adc	#$ff
    232f: 85 03        	sta	$3                      ; 0x3 <__rc1>
    2331: a5 16        	lda	$16                     ; 0x16 <__rc20>
    2333: 48           	pha
    2334: a5 17        	lda	$17                     ; 0x17 <__rc21>
    2336: 48           	pha
    2337: a5 18        	lda	$18                     ; 0x18 <__rc22>
    2339: 48           	pha
    233a: a5 19        	lda	$19                     ; 0x19 <__rc23>
    233c: 48           	pha
    233d: a5 12        	lda	$12                     ; 0x12 <__rc16>
    233f: 48           	pha
    2340: a5 1a        	lda	$1a                     ; 0x1a <__rc24>
    2342: a0 07        	ldy	#$7
    2344: 91 02        	sta	($2),y                  ; 0x2 <__rc0>
    2346: a5 1b        	lda	$1b                     ; 0x1b <__rc25>
    2348: 88           	dey
    2349: 91 02        	sta	($2),y                  ; 0x2 <__rc0>
    234b: a5 1c        	lda	$1c                     ; 0x1c <__rc26>
    234d: 88           	dey
    234e: 91 02        	sta	($2),y                  ; 0x2 <__rc0>
    2350: a5 1d        	lda	$1d                     ; 0x1d <__rc27>
    2352: 88           	dey
    2353: 91 02        	sta	($2),y                  ; 0x2 <__rc0>
    2355: a5 1e        	lda	$1e                     ; 0x1e <__rc28>
    2357: 88           	dey
    2358: 91 02        	sta	($2),y                  ; 0x2 <__rc0>
    235a: a5 1f        	lda	$1f                     ; 0x1f <__rc29>
    235c: 88           	dey
    235d: 91 02        	sta	($2),y                  ; 0x2 <__rc0>
    235f: a5 20        	lda	$20                     ; 0x20 <__rc30>
    2361: 88           	dey
    2362: 91 02        	sta	($2),y                  ; 0x2 <__rc0>
    2364: a5 21        	lda	$21                     ; 0x21 <__rc31>
    2366: 88           	dey
    2367: 91 02        	sta	($2),y                  ; 0x2 <__rc0>
    2369: 68           	pla
    236a: a0 08        	ldy	#$8
    236c: 91 02        	sta	($2),y                  ; 0x2 <__rc0>
    236e: 86 1c        	stx	$1c                     ; 0x1c <__rc26>
    2370: a6 08        	ldx	$8                      ; 0x8 <__rc6>
    2372: 86 1d        	stx	$1d                     ; 0x1d <__rc27>
    2374: 18           	clc
    2375: a5 02        	lda	$2                      ; 0x2 <__rc0>
    2377: 69 10        	adc	#$10
    2379: 85 14        	sta	$14                     ; 0x14 <__rc18>
    237b: a5 03        	lda	$3                      ; 0x3 <__rc1>
    237d: 69 00        	adc	#$0
    237f: 85 15        	sta	$15                     ; 0x15 <__rc19>
    2381: a0 00        	ldy	#$0
    2383: b1 14        	lda	($14),y                 ; 0x14 <__rc18>
    2385: 85 1a        	sta	$1a                     ; 0x1a <__rc24>
    2387: c8           	iny
    2388: b1 14        	lda	($14),y                 ; 0x14 <__rc18>
    238a: 85 1b        	sta	$1b                     ; 0x1b <__rc25>
    238c: a5 11        	lda	$11                     ; 0x11 <__rc15>
    238e: d0 1f        	bne	$23af <__udivmoddi4+0x8d>
    2390: a5 10        	lda	$10                     ; 0x10 <__rc14>
    2392: d0 1b        	bne	$23af <__udivmoddi4+0x8d>
    2394: a5 0f        	lda	$f                      ; 0xf <__rc13>
    2396: d0 17        	bne	$23af <__udivmoddi4+0x8d>
    2398: a5 0e        	lda	$e                      ; 0xe <__rc12>
    239a: d0 13        	bne	$23af <__udivmoddi4+0x8d>
    239c: a5 0d        	lda	$d                      ; 0xd <__rc11>
    239e: d0 0f        	bne	$23af <__udivmoddi4+0x8d>
    23a0: a5 0c        	lda	$c                      ; 0xc <__rc10>
    23a2: d0 0b        	bne	$23af <__udivmoddi4+0x8d>
    23a4: a5 0b        	lda	$b                      ; 0xb <__rc9>
    23a6: d0 07        	bne	$23af <__udivmoddi4+0x8d>
    23a8: a5 0a        	lda	$a                      ; 0xa <__rc8>
    23aa: d0 03        	bne	$23af <__udivmoddi4+0x8d>
    23ac: 4c 7b 28     	jmp	$287b <__udivmoddi4+0x559>
    23af: a6 09        	ldx	$9                      ; 0x9 <__rc7>
    23b1: 86 1e        	stx	$1e                     ; 0x1e <__rc28>
    23b3: e4 11        	cpx	$11                     ; 0x11 <__rc15>
    23b5: d0 46        	bne	$23fd <__udivmoddi4+0xdb>
    23b7: a6 08        	ldx	$8                      ; 0x8 <__rc6>
    23b9: e4 10        	cpx	$10                     ; 0x10 <__rc14>
    23bb: d0 45        	bne	$2402 <__udivmoddi4+0xe0>
    23bd: a6 07        	ldx	$7                      ; 0x7 <__rc5>
    23bf: e4 0f        	cpx	$f                      ; 0xf <__rc13>
    23c1: f0 03        	beq	$23c6 <__udivmoddi4+0xa4>
    23c3: 4c 5f 24     	jmp	$245f <__udivmoddi4+0x13d>
    23c6: 86 1f        	stx	$1f                     ; 0x1f <__rc29>
    23c8: a6 06        	ldx	$6                      ; 0x6 <__zp_data_size>
    23ca: a0 00        	ldy	#$0
    23cc: e4 0e        	cpx	$e                      ; 0xe <__rc12>
    23ce: f0 03        	beq	$23d3 <__udivmoddi4+0xb1>
    23d0: 4c 66 24     	jmp	$2466 <__udivmoddi4+0x144>
    23d3: a6 05        	ldx	$5                      ; 0x5 <__rc3>
    23d5: e4 0d        	cpx	$d                      ; 0xd <__rc11>
    23d7: f0 03        	beq	$23dc <__udivmoddi4+0xba>
    23d9: 4c d0 25     	jmp	$25d0 <__udivmoddi4+0x2ae>
    23dc: a6 04        	ldx	$4                      ; 0x4 <__rc2>
    23de: e4 0c        	cpx	$c                      ; 0xc <__rc10>
    23e0: f0 03        	beq	$23e5 <__udivmoddi4+0xc3>
    23e2: 4c e1 25     	jmp	$25e1 <__udivmoddi4+0x2bf>
    23e5: a6 1c        	ldx	$1c                     ; 0x1c <__rc26>
    23e7: e4 0b        	cpx	$b                      ; 0xb <__rc9>
    23e9: f0 03        	beq	$23ee <__udivmoddi4+0xcc>
    23eb: 4c f2 25     	jmp	$25f2 <__udivmoddi4+0x2d0>
    23ee: 84 13        	sty	$13                     ; 0x13 <__rc17>
    23f0: a0 08        	ldy	#$8
    23f2: b1 02        	lda	($2),y                  ; 0x2 <__rc0>
    23f4: a4 13        	ldy	$13                     ; 0x13 <__rc17>
    23f6: c5 0a        	cmp	$a                      ; 0xa <__rc8>
    23f8: 90 15        	bcc	$240f <__udivmoddi4+0xed>
    23fa: 4c 6d 24     	jmp	$246d <__udivmoddi4+0x14b>
    23fd: e4 11        	cpx	$11                     ; 0x11 <__rc15>
    23ff: 4c 04 24     	jmp	$2404 <__udivmoddi4+0xe2>
    2402: e4 10        	cpx	$10                     ; 0x10 <__rc14>
    2404: a6 07        	ldx	$7                      ; 0x7 <__rc5>
    2406: 86 1f        	stx	$1f                     ; 0x1f <__rc29>
    2408: a0 00        	ldy	#$0
    240a: 90 03        	bcc	$240f <__udivmoddi4+0xed>
    240c: 4c 6d 24     	jmp	$246d <__udivmoddi4+0x14b>
    240f: a6 1e        	ldx	$1e                     ; 0x1e <__rc28>
    2411: 86 0a        	stx	$a                      ; 0xa <__rc8>
    2413: 98           	tya
    2414: 84 13        	sty	$13                     ; 0x13 <__rc17>
    2416: a0 0f        	ldy	#$f
    2418: 91 02        	sta	($2),y                  ; 0x2 <__rc0>
    241a: a4 13        	ldy	$13                     ; 0x13 <__rc17>
    241c: 98           	tya
    241d: 84 13        	sty	$13                     ; 0x13 <__rc17>
    241f: a0 0e        	ldy	#$e
    2421: 91 02        	sta	($2),y                  ; 0x2 <__rc0>
    2423: a4 13        	ldy	$13                     ; 0x13 <__rc17>
    2425: 98           	tya
    2426: 84 13        	sty	$13                     ; 0x13 <__rc17>
    2428: a0 0d        	ldy	#$d
    242a: 91 02        	sta	($2),y                  ; 0x2 <__rc0>
    242c: a4 13        	ldy	$13                     ; 0x13 <__rc17>
    242e: 98           	tya
    242f: 84 13        	sty	$13                     ; 0x13 <__rc17>
    2431: a0 0c        	ldy	#$c
    2433: 91 02        	sta	($2),y                  ; 0x2 <__rc0>
    2435: a4 13        	ldy	$13                     ; 0x13 <__rc17>
    2437: 98           	tya
    2438: 84 13        	sty	$13                     ; 0x13 <__rc17>
    243a: a0 0b        	ldy	#$b
    243c: 91 02        	sta	($2),y                  ; 0x2 <__rc0>
    243e: a4 13        	ldy	$13                     ; 0x13 <__rc17>
    2440: 98           	tya
    2441: 84 13        	sty	$13                     ; 0x13 <__rc17>
    2443: a0 0a        	ldy	#$a
    2445: 91 02        	sta	($2),y                  ; 0x2 <__rc0>
    2447: a4 13        	ldy	$13                     ; 0x13 <__rc17>
    2449: 98           	tya
    244a: 84 13        	sty	$13                     ; 0x13 <__rc17>
    244c: a0 09        	ldy	#$9
    244e: 91 02        	sta	($2),y                  ; 0x2 <__rc0>
    2450: a6 06        	ldx	$6                      ; 0x6 <__zp_data_size>
    2452: 86 0e        	stx	$e                      ; 0xe <__rc12>
    2454: 88           	dey
    2455: b1 02        	lda	($2),y                  ; 0x2 <__rc0>
    2457: a4 13        	ldy	$13                     ; 0x13 <__rc17>
    2459: 85 0b        	sta	$b                      ; 0xb <__rc9>
    245b: 98           	tya
    245c: 4c e3 27     	jmp	$27e3 <__udivmoddi4+0x4c1>
    245f: 86 1f        	stx	$1f                     ; 0x1f <__rc29>
    2461: e4 0f        	cpx	$f                      ; 0xf <__rc13>
    2463: 4c 08 24     	jmp	$2408 <__udivmoddi4+0xe6>
    2466: e4 0e        	cpx	$e                      ; 0xe <__rc12>
    2468: b0 03        	bcs	$246d <__udivmoddi4+0x14b>
    246a: 4c 0f 24     	jmp	$240f <__udivmoddi4+0xed>
    246d: a5 11        	lda	$11                     ; 0x11 <__rc15>
    246f: 10 03        	bpl	$2474 <__udivmoddi4+0x152>
    2471: 4c 27 25     	jmp	$2527 <__udivmoddi4+0x205>
    2474: a5 05        	lda	$5                      ; 0x5 <__rc3>
    2476: a0 0f        	ldy	#$f
    2478: 91 02        	sta	($2),y                  ; 0x2 <__rc0>
    247a: a2 00        	ldx	#$0
    247c: a4 0a        	ldy	$a                      ; 0xa <__rc8>
    247e: 84 19        	sty	$19                     ; 0x19 <__rc23>
    2480: a4 0b        	ldy	$b                      ; 0xb <__rc9>
    2482: 84 18        	sty	$18                     ; 0x18 <__rc22>
    2484: a4 0c        	ldy	$c                      ; 0xc <__rc10>
    2486: 84 08        	sty	$8                      ; 0x8 <__rc6>
    2488: a4 0d        	ldy	$d                      ; 0xd <__rc11>
    248a: 84 09        	sty	$9                      ; 0x9 <__rc7>
    248c: a4 0e        	ldy	$e                      ; 0xe <__rc12>
    248e: 84 14        	sty	$14                     ; 0x14 <__rc18>
    2490: a4 0f        	ldy	$f                      ; 0xf <__rc13>
    2492: 84 15        	sty	$15                     ; 0x15 <__rc19>
    2494: a4 10        	ldy	$10                     ; 0x10 <__rc14>
    2496: 84 16        	sty	$16                     ; 0x16 <__rc20>
    2498: a4 11        	ldy	$11                     ; 0x11 <__rc15>
    249a: 84 17        	sty	$17                     ; 0x17 <__rc21>
    249c: 06 19        	asl	$19                     ; 0x19 <__rc23>
    249e: 26 18        	rol	$18                     ; 0x18 <__rc22>
    24a0: 26 08        	rol	$8                      ; 0x8 <__rc6>
    24a2: 26 09        	rol	$9                      ; 0x9 <__rc7>
    24a4: 26 14        	rol	$14                     ; 0x14 <__rc18>
    24a6: 26 15        	rol	$15                     ; 0x15 <__rc19>
    24a8: 26 16        	rol	$16                     ; 0x16 <__rc20>
    24aa: 26 17        	rol	$17                     ; 0x17 <__rc21>
    24ac: a4 1e        	ldy	$1e                     ; 0x1e <__rc28>
    24ae: c4 17        	cpy	$17                     ; 0x17 <__rc21>
    24b0: d0 2d        	bne	$24df <__udivmoddi4+0x1bd>
    24b2: a4 1d        	ldy	$1d                     ; 0x1d <__rc27>
    24b4: c4 16        	cpy	$16                     ; 0x16 <__rc20>
    24b6: d0 2e        	bne	$24e6 <__udivmoddi4+0x1c4>
    24b8: a4 07        	ldy	$7                      ; 0x7 <__rc5>
    24ba: c4 15        	cpy	$15                     ; 0x15 <__rc19>
    24bc: d0 31        	bne	$24ef <__udivmoddi4+0x1cd>
    24be: 84 1f        	sty	$1f                     ; 0x1f <__rc29>
    24c0: a4 06        	ldy	$6                      ; 0x6 <__zp_data_size>
    24c2: a5 05        	lda	$5                      ; 0x5 <__rc3>
    24c4: 84 13        	sty	$13                     ; 0x13 <__rc17>
    24c6: a0 0f        	ldy	#$f
    24c8: 91 02        	sta	($2),y                  ; 0x2 <__rc0>
    24ca: a4 13        	ldy	$13                     ; 0x13 <__rc17>
    24cc: 98           	tya
    24cd: 84 13        	sty	$13                     ; 0x13 <__rc17>
    24cf: a0 0e        	ldy	#$e
    24d1: 91 02        	sta	($2),y                  ; 0x2 <__rc0>
    24d3: a4 13        	ldy	$13                     ; 0x13 <__rc17>
    24d5: c4 14        	cpy	$14                     ; 0x14 <__rc18>
    24d7: f0 03        	beq	$24dc <__udivmoddi4+0x1ba>
    24d9: 4c c5 25     	jmp	$25c5 <__udivmoddi4+0x2a3>
    24dc: 4c a5 25     	jmp	$25a5 <__udivmoddi4+0x283>
    24df: c4 17        	cpy	$17                     ; 0x17 <__rc21>
    24e1: b0 1b        	bcs	$24fe <__udivmoddi4+0x1dc>
    24e3: 4c 03 26     	jmp	$2603 <__udivmoddi4+0x2e1>
    24e6: c4 16        	cpy	$16                     ; 0x16 <__rc20>
    24e8: a4 07        	ldy	$7                      ; 0x7 <__rc5>
    24ea: 84 1f        	sty	$1f                     ; 0x1f <__rc29>
    24ec: 4c f3 24     	jmp	$24f3 <__udivmoddi4+0x1d1>
    24ef: 84 1f        	sty	$1f                     ; 0x1f <__rc29>
    24f1: c4 15        	cpy	$15                     ; 0x15 <__rc19>
    24f3: a5 05        	lda	$5                      ; 0x5 <__rc3>
    24f5: a0 0f        	ldy	#$f
    24f7: 91 02        	sta	($2),y                  ; 0x2 <__rc0>
    24f9: b0 03        	bcs	$24fe <__udivmoddi4+0x1dc>
    24fb: 4c 03 26     	jmp	$2603 <__udivmoddi4+0x2e1>
    24fe: e8           	inx
    24ff: a4 19        	ldy	$19                     ; 0x19 <__rc23>
    2501: 84 0a        	sty	$a                      ; 0xa <__rc8>
    2503: a4 18        	ldy	$18                     ; 0x18 <__rc22>
    2505: 84 0b        	sty	$b                      ; 0xb <__rc9>
    2507: a4 08        	ldy	$8                      ; 0x8 <__rc6>
    2509: 84 0c        	sty	$c                      ; 0xc <__rc10>
    250b: a4 09        	ldy	$9                      ; 0x9 <__rc7>
    250d: 84 0d        	sty	$d                      ; 0xd <__rc11>
    250f: a4 14        	ldy	$14                     ; 0x14 <__rc18>
    2511: 84 0e        	sty	$e                      ; 0xe <__rc12>
    2513: a4 15        	ldy	$15                     ; 0x15 <__rc19>
    2515: 84 0f        	sty	$f                      ; 0xf <__rc13>
    2517: a4 16        	ldy	$16                     ; 0x16 <__rc20>
    2519: 84 10        	sty	$10                     ; 0x10 <__rc14>
    251b: a4 17        	ldy	$17                     ; 0x17 <__rc21>
    251d: 84 11        	sty	$11                     ; 0x11 <__rc15>
    251f: 30 03        	bmi	$2524 <__udivmoddi4+0x202>
    2521: 4c 9c 24     	jmp	$249c <__udivmoddi4+0x17a>
    2524: 4c 23 26     	jmp	$2623 <__udivmoddi4+0x301>
    2527: 38           	sec
    2528: 84 13        	sty	$13                     ; 0x13 <__rc17>
    252a: a0 08        	ldy	#$8
    252c: b1 02        	lda	($2),y                  ; 0x2 <__rc0>
    252e: a4 13        	ldy	$13                     ; 0x13 <__rc17>
    2530: e5 0a        	sbc	$a                      ; 0xa <__rc8>
    2532: aa           	tax
    2533: a5 1c        	lda	$1c                     ; 0x1c <__rc26>
    2535: e5 0b        	sbc	$b                      ; 0xb <__rc9>
    2537: 85 1c        	sta	$1c                     ; 0x1c <__rc26>
    2539: a5 04        	lda	$4                      ; 0x4 <__rc2>
    253b: e5 0c        	sbc	$c                      ; 0xc <__rc10>
    253d: 85 04        	sta	$4                      ; 0x4 <__rc2>
    253f: a5 05        	lda	$5                      ; 0x5 <__rc3>
    2541: e5 0d        	sbc	$d                      ; 0xd <__rc11>
    2543: 85 05        	sta	$5                      ; 0x5 <__rc3>
    2545: a5 06        	lda	$6                      ; 0x6 <__zp_data_size>
    2547: e5 0e        	sbc	$e                      ; 0xe <__rc12>
    2549: 85 0e        	sta	$e                      ; 0xe <__rc12>
    254b: a5 1f        	lda	$1f                     ; 0x1f <__rc29>
    254d: e5 0f        	sbc	$f                      ; 0xf <__rc13>
    254f: 85 07        	sta	$7                      ; 0x7 <__rc5>
    2551: a5 08        	lda	$8                      ; 0x8 <__rc6>
    2553: e5 10        	sbc	$10                     ; 0x10 <__rc14>
    2555: 85 1d        	sta	$1d                     ; 0x1d <__rc27>
    2557: a5 1e        	lda	$1e                     ; 0x1e <__rc28>
    2559: e5 11        	sbc	$11                     ; 0x11 <__rc15>
    255b: 85 0a        	sta	$a                      ; 0xa <__rc8>
    255d: 86 0b        	stx	$b                      ; 0xb <__rc9>
    255f: a9 01        	lda	#$1
    2561: 48           	pha
    2562: 98           	tya
    2563: 84 13        	sty	$13                     ; 0x13 <__rc17>
    2565: a0 0f        	ldy	#$f
    2567: 91 02        	sta	($2),y                  ; 0x2 <__rc0>
    2569: a4 13        	ldy	$13                     ; 0x13 <__rc17>
    256b: 98           	tya
    256c: 84 13        	sty	$13                     ; 0x13 <__rc17>
    256e: a0 0e        	ldy	#$e
    2570: 91 02        	sta	($2),y                  ; 0x2 <__rc0>
    2572: a4 13        	ldy	$13                     ; 0x13 <__rc17>
    2574: 98           	tya
    2575: 84 13        	sty	$13                     ; 0x13 <__rc17>
    2577: a0 0d        	ldy	#$d
    2579: 91 02        	sta	($2),y                  ; 0x2 <__rc0>
    257b: a4 13        	ldy	$13                     ; 0x13 <__rc17>
    257d: 98           	tya
    257e: 84 13        	sty	$13                     ; 0x13 <__rc17>
    2580: a0 0c        	ldy	#$c
    2582: 91 02        	sta	($2),y                  ; 0x2 <__rc0>
    2584: a4 13        	ldy	$13                     ; 0x13 <__rc17>
    2586: 98           	tya
    2587: 84 13        	sty	$13                     ; 0x13 <__rc17>
    2589: a0 0b        	ldy	#$b
    258b: 91 02        	sta	($2),y                  ; 0x2 <__rc0>
    258d: a4 13        	ldy	$13                     ; 0x13 <__rc17>
    258f: 98           	tya
    2590: 84 13        	sty	$13                     ; 0x13 <__rc17>
    2592: a0 0a        	ldy	#$a
    2594: 91 02        	sta	($2),y                  ; 0x2 <__rc0>
    2596: a4 13        	ldy	$13                     ; 0x13 <__rc17>
    2598: 98           	tya
    2599: 84 13        	sty	$13                     ; 0x13 <__rc17>
    259b: a0 09        	ldy	#$9
    259d: 91 02        	sta	($2),y                  ; 0x2 <__rc0>
    259f: a4 13        	ldy	$13                     ; 0x13 <__rc17>
    25a1: 68           	pla
    25a2: 4c e3 27     	jmp	$27e3 <__udivmoddi4+0x4c1>
    25a5: a0 0f        	ldy	#$f
    25a7: b1 02        	lda	($2),y                  ; 0x2 <__rc0>
    25a9: a8           	tay
    25aa: c5 09        	cmp	$9                      ; 0x9 <__rc7>
    25ac: d0 2c        	bne	$25da <__udivmoddi4+0x2b8>
    25ae: a4 04        	ldy	$4                      ; 0x4 <__rc2>
    25b0: c4 08        	cpy	$8                      ; 0x8 <__rc6>
    25b2: d0 37        	bne	$25eb <__udivmoddi4+0x2c9>
    25b4: a4 1c        	ldy	$1c                     ; 0x1c <__rc26>
    25b6: c4 18        	cpy	$18                     ; 0x18 <__rc22>
    25b8: d0 42        	bne	$25fc <__udivmoddi4+0x2da>
    25ba: a0 08        	ldy	#$8
    25bc: b1 02        	lda	($2),y                  ; 0x2 <__rc0>
    25be: c5 19        	cmp	$19                     ; 0x19 <__rc23>
    25c0: 90 41        	bcc	$2603 <__udivmoddi4+0x2e1>
    25c2: 4c fe 24     	jmp	$24fe <__udivmoddi4+0x1dc>
    25c5: a0 0e        	ldy	#$e
    25c7: b1 02        	lda	($2),y                  ; 0x2 <__rc0>
    25c9: c5 14        	cmp	$14                     ; 0x14 <__rc18>
    25cb: 90 36        	bcc	$2603 <__udivmoddi4+0x2e1>
    25cd: 4c fe 24     	jmp	$24fe <__udivmoddi4+0x1dc>
    25d0: e4 0d        	cpx	$d                      ; 0xd <__rc11>
    25d2: b0 03        	bcs	$25d7 <__udivmoddi4+0x2b5>
    25d4: 4c 0f 24     	jmp	$240f <__udivmoddi4+0xed>
    25d7: 4c 6d 24     	jmp	$246d <__udivmoddi4+0x14b>
    25da: c4 09        	cpy	$9                      ; 0x9 <__rc7>
    25dc: 90 25        	bcc	$2603 <__udivmoddi4+0x2e1>
    25de: 4c fe 24     	jmp	$24fe <__udivmoddi4+0x1dc>
    25e1: e4 0c        	cpx	$c                      ; 0xc <__rc10>
    25e3: b0 03        	bcs	$25e8 <__udivmoddi4+0x2c6>
    25e5: 4c 0f 24     	jmp	$240f <__udivmoddi4+0xed>
    25e8: 4c 6d 24     	jmp	$246d <__udivmoddi4+0x14b>
    25eb: c4 08        	cpy	$8                      ; 0x8 <__rc6>
    25ed: 90 14        	bcc	$2603 <__udivmoddi4+0x2e1>
    25ef: 4c fe 24     	jmp	$24fe <__udivmoddi4+0x1dc>
    25f2: e4 0b        	cpx	$b                      ; 0xb <__rc9>
    25f4: b0 03        	bcs	$25f9 <__udivmoddi4+0x2d7>
    25f6: 4c 0f 24     	jmp	$240f <__udivmoddi4+0xed>
    25f9: 4c 6d 24     	jmp	$246d <__udivmoddi4+0x14b>
    25fc: c4 18        	cpy	$18                     ; 0x18 <__rc22>
    25fe: 90 03        	bcc	$2603 <__udivmoddi4+0x2e1>
    2600: 4c fe 24     	jmp	$24fe <__udivmoddi4+0x1dc>
    2603: a4 0a        	ldy	$a                      ; 0xa <__rc8>
    2605: 84 19        	sty	$19                     ; 0x19 <__rc23>
    2607: a4 0b        	ldy	$b                      ; 0xb <__rc9>
    2609: 84 18        	sty	$18                     ; 0x18 <__rc22>
    260b: a4 0c        	ldy	$c                      ; 0xc <__rc10>
    260d: 84 08        	sty	$8                      ; 0x8 <__rc6>
    260f: a4 0d        	ldy	$d                      ; 0xd <__rc11>
    2611: 84 09        	sty	$9                      ; 0x9 <__rc7>
    2613: a4 0e        	ldy	$e                      ; 0xe <__rc12>
    2615: 84 14        	sty	$14                     ; 0x14 <__rc18>
    2617: a4 0f        	ldy	$f                      ; 0xf <__rc13>
    2619: 84 15        	sty	$15                     ; 0x15 <__rc19>
    261b: a4 10        	ldy	$10                     ; 0x10 <__rc14>
    261d: 84 16        	sty	$16                     ; 0x16 <__rc20>
    261f: a4 11        	ldy	$11                     ; 0x11 <__rc15>
    2621: 84 17        	sty	$17                     ; 0x17 <__rc21>
    2623: 38           	sec
    2624: a0 08        	ldy	#$8
    2626: b1 02        	lda	($2),y                  ; 0x2 <__rc0>
    2628: e5 19        	sbc	$19                     ; 0x19 <__rc23>
    262a: 85 0b        	sta	$b                      ; 0xb <__rc9>
    262c: a5 1c        	lda	$1c                     ; 0x1c <__rc26>
    262e: e5 18        	sbc	$18                     ; 0x18 <__rc22>
    2630: 85 1c        	sta	$1c                     ; 0x1c <__rc26>
    2632: a5 04        	lda	$4                      ; 0x4 <__rc2>
    2634: e5 08        	sbc	$8                      ; 0x8 <__rc6>
    2636: 85 04        	sta	$4                      ; 0x4 <__rc2>
    2638: a0 0f        	ldy	#$f
    263a: b1 02        	lda	($2),y                  ; 0x2 <__rc0>
    263c: e5 09        	sbc	$9                      ; 0x9 <__rc7>
    263e: 85 05        	sta	$5                      ; 0x5 <__rc3>
    2640: a5 06        	lda	$6                      ; 0x6 <__zp_data_size>
    2642: e5 14        	sbc	$14                     ; 0x14 <__rc18>
    2644: 85 06        	sta	$6                      ; 0x6 <__zp_data_size>
    2646: a5 1f        	lda	$1f                     ; 0x1f <__rc29>
    2648: e5 15        	sbc	$15                     ; 0x15 <__rc19>
    264a: 85 07        	sta	$7                      ; 0x7 <__rc5>
    264c: a5 1d        	lda	$1d                     ; 0x1d <__rc27>
    264e: e5 16        	sbc	$16                     ; 0x16 <__rc20>
    2650: 85 0e        	sta	$e                      ; 0xe <__rc12>
    2652: a5 1e        	lda	$1e                     ; 0x1e <__rc28>
    2654: e5 17        	sbc	$17                     ; 0x17 <__rc21>
    2656: 85 0a        	sta	$a                      ; 0xa <__rc8>
    2658: 8a           	txa
    2659: d0 03        	bne	$265e <__udivmoddi4+0x33c>
    265b: 4c bd 27     	jmp	$27bd <__udivmoddi4+0x49b>
    265e: a9 00        	lda	#$0
    2660: 91 02        	sta	($2),y                  ; 0x2 <__rc0>
    2662: a9 01        	lda	#$1
    2664: a0 00        	ldy	#$0
    2666: 48           	pha
    2667: 98           	tya
    2668: a0 0e        	ldy	#$e
    266a: 91 02        	sta	($2),y                  ; 0x2 <__rc0>
    266c: a0 00        	ldy	#$0
    266e: 98           	tya
    266f: a0 0d        	ldy	#$d
    2671: 91 02        	sta	($2),y                  ; 0x2 <__rc0>
    2673: a0 00        	ldy	#$0
    2675: 98           	tya
    2676: a0 0c        	ldy	#$c
    2678: 91 02        	sta	($2),y                  ; 0x2 <__rc0>
    267a: a0 00        	ldy	#$0
    267c: 98           	tya
    267d: a0 0b        	ldy	#$b
    267f: 91 02        	sta	($2),y                  ; 0x2 <__rc0>
    2681: a0 00        	ldy	#$0
    2683: 98           	tya
    2684: a0 0a        	ldy	#$a
    2686: 91 02        	sta	($2),y                  ; 0x2 <__rc0>
    2688: a0 00        	ldy	#$0
    268a: 98           	tya
    268b: a0 09        	ldy	#$9
    268d: 91 02        	sta	($2),y                  ; 0x2 <__rc0>
    268f: 68           	pla
    2690: a4 0e        	ldy	$e                      ; 0xe <__rc12>
    2692: 84 1d        	sty	$1d                     ; 0x1d <__rc27>
    2694: a4 06        	ldy	$6                      ; 0x6 <__zp_data_size>
    2696: 84 0e        	sty	$e                      ; 0xe <__rc12>
    2698: 46 17        	lsr	$17                     ; 0x17 <__rc21>
    269a: 66 16        	ror	$16                     ; 0x16 <__rc20>
    269c: 66 15        	ror	$15                     ; 0x15 <__rc19>
    269e: 66 14        	ror	$14                     ; 0x14 <__rc18>
    26a0: 66 09        	ror	$9                      ; 0x9 <__rc7>
    26a2: 66 08        	ror	$8                      ; 0x8 <__rc6>
    26a4: 66 18        	ror	$18                     ; 0x18 <__rc22>
    26a6: 66 19        	ror	$19                     ; 0x19 <__rc23>
    26a8: 0a           	asl
    26a9: a0 01        	ldy	#$1
    26ab: b0 02        	bcs	$26af <__udivmoddi4+0x38d>
    26ad: a0 00        	ldy	#$0
    26af: 84 0d        	sty	$d                      ; 0xd <__rc11>
    26b1: a4 0a        	ldy	$a                      ; 0xa <__rc8>
    26b3: c4 17        	cpy	$17                     ; 0x17 <__rc21>
    26b5: d0 3f        	bne	$26f6 <__udivmoddi4+0x3d4>
    26b7: 85 06        	sta	$6                      ; 0x6 <__zp_data_size>
    26b9: a4 1d        	ldy	$1d                     ; 0x1d <__rc27>
    26bb: c4 16        	cpy	$16                     ; 0x16 <__rc20>
    26bd: f0 03        	beq	$26c2 <__udivmoddi4+0x3a0>
    26bf: 4c 98 27     	jmp	$2798 <__udivmoddi4+0x476>
    26c2: a4 07        	ldy	$7                      ; 0x7 <__rc5>
    26c4: c4 15        	cpy	$15                     ; 0x15 <__rc19>
    26c6: f0 03        	beq	$26cb <__udivmoddi4+0x3a9>
    26c8: 4c 9d 27     	jmp	$279d <__udivmoddi4+0x47b>
    26cb: a4 0e        	ldy	$e                      ; 0xe <__rc12>
    26cd: c4 14        	cpy	$14                     ; 0x14 <__rc18>
    26cf: f0 03        	beq	$26d4 <__udivmoddi4+0x3b2>
    26d1: 4c a2 27     	jmp	$27a2 <__udivmoddi4+0x480>
    26d4: a4 05        	ldy	$5                      ; 0x5 <__rc3>
    26d6: c4 09        	cpy	$9                      ; 0x9 <__rc7>
    26d8: f0 03        	beq	$26dd <__udivmoddi4+0x3bb>
    26da: 4c a7 27     	jmp	$27a7 <__udivmoddi4+0x485>
    26dd: a5 04        	lda	$4                      ; 0x4 <__rc2>
    26df: c5 08        	cmp	$8                      ; 0x8 <__rc6>
    26e1: f0 03        	beq	$26e6 <__udivmoddi4+0x3c4>
    26e3: 4c ac 27     	jmp	$27ac <__udivmoddi4+0x48a>
    26e6: a4 1c        	ldy	$1c                     ; 0x1c <__rc26>
    26e8: c4 18        	cpy	$18                     ; 0x18 <__rc22>
    26ea: f0 03        	beq	$26ef <__udivmoddi4+0x3cd>
    26ec: 4c b1 27     	jmp	$27b1 <__udivmoddi4+0x48f>
    26ef: a4 0b        	ldy	$b                      ; 0xb <__rc9>
    26f1: c4 19        	cpy	$19                     ; 0x19 <__rc23>
    26f3: 4c b3 27     	jmp	$27b3 <__udivmoddi4+0x491>
    26f6: c4 17        	cpy	$17                     ; 0x17 <__rc21>
    26f8: 90 3c        	bcc	$2736 <__udivmoddi4+0x414>
    26fa: 85 0c        	sta	$c                      ; 0xc <__rc10>
    26fc: 38           	sec
    26fd: a5 0b        	lda	$b                      ; 0xb <__rc9>
    26ff: e5 19        	sbc	$19                     ; 0x19 <__rc23>
    2701: 85 0b        	sta	$b                      ; 0xb <__rc9>
    2703: a5 1c        	lda	$1c                     ; 0x1c <__rc26>
    2705: e5 18        	sbc	$18                     ; 0x18 <__rc22>
    2707: 85 1c        	sta	$1c                     ; 0x1c <__rc26>
    2709: a5 04        	lda	$4                      ; 0x4 <__rc2>
    270b: e5 08        	sbc	$8                      ; 0x8 <__rc6>
    270d: 85 04        	sta	$4                      ; 0x4 <__rc2>
    270f: a5 05        	lda	$5                      ; 0x5 <__rc3>
    2711: e5 09        	sbc	$9                      ; 0x9 <__rc7>
    2713: 85 05        	sta	$5                      ; 0x5 <__rc3>
    2715: a5 0e        	lda	$e                      ; 0xe <__rc12>
    2717: e5 14        	sbc	$14                     ; 0x14 <__rc18>
    2719: 85 06        	sta	$6                      ; 0x6 <__zp_data_size>
    271b: a5 07        	lda	$7                      ; 0x7 <__rc5>
    271d: e5 15        	sbc	$15                     ; 0x15 <__rc19>
    271f: 85 07        	sta	$7                      ; 0x7 <__rc5>
    2721: a5 1d        	lda	$1d                     ; 0x1d <__rc27>
    2723: e5 16        	sbc	$16                     ; 0x16 <__rc20>
    2725: a8           	tay
    2726: a5 0a        	lda	$a                      ; 0xa <__rc8>
    2728: e5 17        	sbc	$17                     ; 0x17 <__rc21>
    272a: 85 0a        	sta	$a                      ; 0xa <__rc8>
    272c: a5 06        	lda	$6                      ; 0x6 <__zp_data_size>
    272e: 85 0e        	sta	$e                      ; 0xe <__rc12>
    2730: 84 1d        	sty	$1d                     ; 0x1d <__rc27>
    2732: a5 0c        	lda	$c                      ; 0xc <__rc10>
    2734: 09 01        	ora	#$1
    2736: a0 00        	ldy	#$0
    2738: 48           	pha
    2739: a5 0d        	lda	$d                      ; 0xd <__rc11>
    273b: c9 01        	cmp	#$1
    273d: 68           	pla
    273e: 48           	pha
    273f: 84 13        	sty	$13                     ; 0x13 <__rc17>
    2741: a0 0f        	ldy	#$f
    2743: b1 02        	lda	($2),y                  ; 0x2 <__rc0>
    2745: 85 06        	sta	$6                      ; 0x6 <__zp_data_size>
    2747: 26 06        	rol	$6                      ; 0x6 <__zp_data_size>
    2749: a5 06        	lda	$6                      ; 0x6 <__zp_data_size>
    274b: 91 02        	sta	($2),y                  ; 0x2 <__rc0>
    274d: 88           	dey
    274e: b1 02        	lda	($2),y                  ; 0x2 <__rc0>
    2750: 85 06        	sta	$6                      ; 0x6 <__zp_data_size>
    2752: 26 06        	rol	$6                      ; 0x6 <__zp_data_size>
    2754: a5 06        	lda	$6                      ; 0x6 <__zp_data_size>
    2756: 91 02        	sta	($2),y                  ; 0x2 <__rc0>
    2758: 88           	dey
    2759: b1 02        	lda	($2),y                  ; 0x2 <__rc0>
    275b: 85 06        	sta	$6                      ; 0x6 <__zp_data_size>
    275d: 26 06        	rol	$6                      ; 0x6 <__zp_data_size>
    275f: a5 06        	lda	$6                      ; 0x6 <__zp_data_size>
    2761: 91 02        	sta	($2),y                  ; 0x2 <__rc0>
    2763: 88           	dey
    2764: b1 02        	lda	($2),y                  ; 0x2 <__rc0>
    2766: 85 06        	sta	$6                      ; 0x6 <__zp_data_size>
    2768: 26 06        	rol	$6                      ; 0x6 <__zp_data_size>
    276a: a5 06        	lda	$6                      ; 0x6 <__zp_data_size>
    276c: 91 02        	sta	($2),y                  ; 0x2 <__rc0>
    276e: 88           	dey
    276f: b1 02        	lda	($2),y                  ; 0x2 <__rc0>
    2771: 85 06        	sta	$6                      ; 0x6 <__zp_data_size>
    2773: 26 06        	rol	$6                      ; 0x6 <__zp_data_size>
    2775: a5 06        	lda	$6                      ; 0x6 <__zp_data_size>
    2777: 91 02        	sta	($2),y                  ; 0x2 <__rc0>
    2779: 88           	dey
    277a: b1 02        	lda	($2),y                  ; 0x2 <__rc0>
    277c: 85 06        	sta	$6                      ; 0x6 <__zp_data_size>
    277e: 26 06        	rol	$6                      ; 0x6 <__zp_data_size>
    2780: a5 06        	lda	$6                      ; 0x6 <__zp_data_size>
    2782: 91 02        	sta	($2),y                  ; 0x2 <__rc0>
    2784: 88           	dey
    2785: b1 02        	lda	($2),y                  ; 0x2 <__rc0>
    2787: 85 06        	sta	$6                      ; 0x6 <__zp_data_size>
    2789: 26 06        	rol	$6                      ; 0x6 <__zp_data_size>
    278b: a5 06        	lda	$6                      ; 0x6 <__zp_data_size>
    278d: 91 02        	sta	($2),y                  ; 0x2 <__rc0>
    278f: a4 13        	ldy	$13                     ; 0x13 <__rc17>
    2791: 68           	pla
    2792: ca           	dex
    2793: f0 4e        	beq	$27e3 <__udivmoddi4+0x4c1>
    2795: 4c 98 26     	jmp	$2698 <__udivmoddi4+0x376>
    2798: c4 16        	cpy	$16                     ; 0x16 <__rc20>
    279a: 4c b3 27     	jmp	$27b3 <__udivmoddi4+0x491>
    279d: c4 15        	cpy	$15                     ; 0x15 <__rc19>
    279f: 4c b3 27     	jmp	$27b3 <__udivmoddi4+0x491>
    27a2: c4 14        	cpy	$14                     ; 0x14 <__rc18>
    27a4: 4c b3 27     	jmp	$27b3 <__udivmoddi4+0x491>
    27a7: c4 09        	cpy	$9                      ; 0x9 <__rc7>
    27a9: 4c b3 27     	jmp	$27b3 <__udivmoddi4+0x491>
    27ac: c5 08        	cmp	$8                      ; 0x8 <__rc6>
    27ae: 4c b3 27     	jmp	$27b3 <__udivmoddi4+0x491>
    27b1: c4 18        	cpy	$18                     ; 0x18 <__rc22>
    27b3: a5 06        	lda	$6                      ; 0x6 <__zp_data_size>
    27b5: 90 03        	bcc	$27ba <__udivmoddi4+0x498>
    27b7: 4c fa 26     	jmp	$26fa <__udivmoddi4+0x3d8>
    27ba: 4c 36 27     	jmp	$2736 <__udivmoddi4+0x414>
    27bd: a9 01        	lda	#$1
    27bf: a2 00        	ldx	#$0
    27c1: 48           	pha
    27c2: 8a           	txa
    27c3: 91 02        	sta	($2),y                  ; 0x2 <__rc0>
    27c5: a0 0e        	ldy	#$e
    27c7: 91 02        	sta	($2),y                  ; 0x2 <__rc0>
    27c9: 88           	dey
    27ca: 91 02        	sta	($2),y                  ; 0x2 <__rc0>
    27cc: 88           	dey
    27cd: 91 02        	sta	($2),y                  ; 0x2 <__rc0>
    27cf: 88           	dey
    27d0: 91 02        	sta	($2),y                  ; 0x2 <__rc0>
    27d2: 88           	dey
    27d3: 91 02        	sta	($2),y                  ; 0x2 <__rc0>
    27d5: 88           	dey
    27d6: 91 02        	sta	($2),y                  ; 0x2 <__rc0>
    27d8: 68           	pla
    27d9: a6 0e        	ldx	$e                      ; 0xe <__rc12>
    27db: 86 1d        	stx	$1d                     ; 0x1d <__rc27>
    27dd: a0 00        	ldy	#$0
    27df: a6 06        	ldx	$6                      ; 0x6 <__zp_data_size>
    27e1: 86 0e        	stx	$e                      ; 0xe <__rc12>
    27e3: aa           	tax
    27e4: a5 0b        	lda	$b                      ; 0xb <__rc9>
    27e6: 91 1a        	sta	($1a),y                 ; 0x1a <__rc24>
    27e8: 86 0b        	stx	$b                      ; 0xb <__rc9>
    27ea: a5 1c        	lda	$1c                     ; 0x1c <__rc26>
    27ec: a0 01        	ldy	#$1
    27ee: 91 1a        	sta	($1a),y                 ; 0x1a <__rc24>
    27f0: c8           	iny
    27f1: a5 04        	lda	$4                      ; 0x4 <__rc2>
    27f3: 91 1a        	sta	($1a),y                 ; 0x1a <__rc24>
    27f5: c8           	iny
    27f6: a5 05        	lda	$5                      ; 0x5 <__rc3>
    27f8: 91 1a        	sta	($1a),y                 ; 0x1a <__rc24>
    27fa: c8           	iny
    27fb: a5 0e        	lda	$e                      ; 0xe <__rc12>
    27fd: 91 1a        	sta	($1a),y                 ; 0x1a <__rc24>
    27ff: c8           	iny
    2800: a5 07        	lda	$7                      ; 0x7 <__rc5>
    2802: 91 1a        	sta	($1a),y                 ; 0x1a <__rc24>
    2804: c8           	iny
    2805: a5 1d        	lda	$1d                     ; 0x1d <__rc27>
    2807: 91 1a        	sta	($1a),y                 ; 0x1a <__rc24>
    2809: c8           	iny
    280a: a5 0a        	lda	$a                      ; 0xa <__rc8>
    280c: 91 1a        	sta	($1a),y                 ; 0x1a <__rc24>
    280e: a0 0e        	ldy	#$e
    2810: b1 02        	lda	($2),y                  ; 0x2 <__rc0>
    2812: 85 04        	sta	$4                      ; 0x4 <__rc2>
    2814: 88           	dey
    2815: b1 02        	lda	($2),y                  ; 0x2 <__rc0>
    2817: 85 05        	sta	$5                      ; 0x5 <__rc3>
    2819: 88           	dey
    281a: b1 02        	lda	($2),y                  ; 0x2 <__rc0>
    281c: 85 06        	sta	$6                      ; 0x6 <__zp_data_size>
    281e: 88           	dey
    281f: b1 02        	lda	($2),y                  ; 0x2 <__rc0>
    2821: 85 07        	sta	$7                      ; 0x7 <__rc5>
    2823: 88           	dey
    2824: b1 02        	lda	($2),y                  ; 0x2 <__rc0>
    2826: 85 08        	sta	$8                      ; 0x8 <__rc6>
    2828: 88           	dey
    2829: b1 02        	lda	($2),y                  ; 0x2 <__rc0>
    282b: 85 09        	sta	$9                      ; 0x9 <__rc7>
    282d: a0 0f        	ldy	#$f
    282f: b1 02        	lda	($2),y                  ; 0x2 <__rc0>
    2831: aa           	tax
    2832: a5 0b        	lda	$b                      ; 0xb <__rc9>
    2834: 85 12        	sta	$12                     ; 0x12 <__rc16>
    2836: a0 00        	ldy	#$0
    2838: b1 02        	lda	($2),y                  ; 0x2 <__rc0>
    283a: 85 21        	sta	$21                     ; 0x21 <__rc31>
    283c: c8           	iny
    283d: b1 02        	lda	($2),y                  ; 0x2 <__rc0>
    283f: 85 20        	sta	$20                     ; 0x20 <__rc30>
    2841: c8           	iny
    2842: b1 02        	lda	($2),y                  ; 0x2 <__rc0>
    2844: 85 1f        	sta	$1f                     ; 0x1f <__rc29>
    2846: c8           	iny
    2847: b1 02        	lda	($2),y                  ; 0x2 <__rc0>
    2849: 85 1e        	sta	$1e                     ; 0x1e <__rc28>
    284b: c8           	iny
    284c: b1 02        	lda	($2),y                  ; 0x2 <__rc0>
    284e: 85 1d        	sta	$1d                     ; 0x1d <__rc27>
    2850: c8           	iny
    2851: b1 02        	lda	($2),y                  ; 0x2 <__rc0>
    2853: 85 1c        	sta	$1c                     ; 0x1c <__rc26>
    2855: c8           	iny
    2856: b1 02        	lda	($2),y                  ; 0x2 <__rc0>
    2858: 85 1b        	sta	$1b                     ; 0x1b <__rc25>
    285a: c8           	iny
    285b: b1 02        	lda	($2),y                  ; 0x2 <__rc0>
    285d: 85 1a        	sta	$1a                     ; 0x1a <__rc24>
    285f: 68           	pla
    2860: 85 19        	sta	$19                     ; 0x19 <__rc23>
    2862: 68           	pla
    2863: 85 18        	sta	$18                     ; 0x18 <__rc22>
    2865: 68           	pla
    2866: 85 17        	sta	$17                     ; 0x17 <__rc21>
    2868: 68           	pla
    2869: 85 16        	sta	$16                     ; 0x16 <__rc20>
    286b: 18           	clc
    286c: a5 02        	lda	$2                      ; 0x2 <__rc0>
    286e: 69 10        	adc	#$10
    2870: 85 02        	sta	$2                      ; 0x2 <__rc0>
    2872: a5 03        	lda	$3                      ; 0x3 <__rc1>
    2874: 69 00        	adc	#$0
    2876: 85 03        	sta	$3                      ; 0x3 <__rc1>
    2878: a5 12        	lda	$12                     ; 0x12 <__rc16>
    287a: 60           	rts
    287b: a6 09        	ldx	$9                      ; 0x9 <__rc7>
    287d: 86 0a        	stx	$a                      ; 0xa <__rc8>
    287f: a0 00        	ldy	#$0
    2881: a2 00        	ldx	#$0
    2883: 98           	tya
    2884: 84 13        	sty	$13                     ; 0x13 <__rc17>
    2886: a0 0f        	ldy	#$f
    2888: 91 02        	sta	($2),y                  ; 0x2 <__rc0>
    288a: a4 13        	ldy	$13                     ; 0x13 <__rc17>
    288c: 98           	tya
    288d: 84 13        	sty	$13                     ; 0x13 <__rc17>
    288f: a0 0e        	ldy	#$e
    2891: 91 02        	sta	($2),y                  ; 0x2 <__rc0>
    2893: a4 13        	ldy	$13                     ; 0x13 <__rc17>
    2895: 98           	tya
    2896: 84 13        	sty	$13                     ; 0x13 <__rc17>
    2898: a0 0d        	ldy	#$d
    289a: 91 02        	sta	($2),y                  ; 0x2 <__rc0>
    289c: a4 13        	ldy	$13                     ; 0x13 <__rc17>
    289e: 98           	tya
    289f: 84 13        	sty	$13                     ; 0x13 <__rc17>
    28a1: a0 0c        	ldy	#$c
    28a3: 91 02        	sta	($2),y                  ; 0x2 <__rc0>
    28a5: a4 13        	ldy	$13                     ; 0x13 <__rc17>
    28a7: 98           	tya
    28a8: 84 13        	sty	$13                     ; 0x13 <__rc17>
    28aa: a0 0b        	ldy	#$b
    28ac: 91 02        	sta	($2),y                  ; 0x2 <__rc0>
    28ae: a4 13        	ldy	$13                     ; 0x13 <__rc17>
    28b0: 98           	tya
    28b1: 84 13        	sty	$13                     ; 0x13 <__rc17>
    28b3: a0 0a        	ldy	#$a
    28b5: 91 02        	sta	($2),y                  ; 0x2 <__rc0>
    28b7: a4 13        	ldy	$13                     ; 0x13 <__rc17>
    28b9: 98           	tya
    28ba: 84 13        	sty	$13                     ; 0x13 <__rc17>
    28bc: a0 09        	ldy	#$9
    28be: 91 02        	sta	($2),y                  ; 0x2 <__rc0>
    28c0: a6 06        	ldx	$6                      ; 0x6 <__zp_data_size>
    28c2: 86 0e        	stx	$e                      ; 0xe <__rc12>
    28c4: 88           	dey
    28c5: b1 02        	lda	($2),y                  ; 0x2 <__rc0>
    28c7: a4 13        	ldy	$13                     ; 0x13 <__rc17>
    28c9: 85 0b        	sta	$b                      ; 0xb <__rc9>
    28cb: 98           	tya
    28cc: a0 00        	ldy	#$0
    28ce: 4c e3 27     	jmp	$27e3 <__udivmoddi4+0x4c1>

000028d1 <__divmodsi4>:
    28d1: 85 12        	sta	$12                     ; 0x12 <__rc16>
    28d3: 18           	clc
    28d4: a5 02        	lda	$2                      ; 0x2 <__rc0>
    28d6: 69 fb        	adc	#$fb
    28d8: 85 02        	sta	$2                      ; 0x2 <__rc0>
    28da: a5 03        	lda	$3                      ; 0x3 <__rc1>
    28dc: 69 ff        	adc	#$ff
    28de: 85 03        	sta	$3                      ; 0x3 <__rc1>
    28e0: a5 16        	lda	$16                     ; 0x16 <__rc20>
    28e2: 48           	pha
    28e3: a5 17        	lda	$17                     ; 0x17 <__rc21>
    28e5: 48           	pha
    28e6: a5 18        	lda	$18                     ; 0x18 <__rc22>
    28e8: 48           	pha
    28e9: a5 19        	lda	$19                     ; 0x19 <__rc23>
    28eb: 48           	pha
    28ec: a5 12        	lda	$12                     ; 0x12 <__rc16>
    28ee: 48           	pha
    28ef: a5 1a        	lda	$1a                     ; 0x1a <__rc24>
    28f1: a0 02        	ldy	#$2
    28f3: 91 02        	sta	($2),y                  ; 0x2 <__rc0>
    28f5: a5 1b        	lda	$1b                     ; 0x1b <__rc25>
    28f7: 88           	dey
    28f8: 91 02        	sta	($2),y                  ; 0x2 <__rc0>
    28fa: a5 1c        	lda	$1c                     ; 0x1c <__rc26>
    28fc: 88           	dey
    28fd: 91 02        	sta	($2),y                  ; 0x2 <__rc0>
    28ff: 68           	pla
    2900: 85 0d        	sta	$d                      ; 0xd <__rc11>
    2902: 86 0c        	stx	$c                      ; 0xc <__rc10>
    2904: e6 05        	inc	$5                      ; 0x5 <__rc3>
    2906: c6 05        	dec	$5                      ; 0x5 <__rc3>
    2908: 30 14        	bmi	$291e <__divmodsi4+0x4d>
    290a: a8           	tay
    290b: 84 13        	sty	$13                     ; 0x13 <__rc17>
    290d: 8a           	txa
    290e: a0 03        	ldy	#$3
    2910: 91 02        	sta	($2),y                  ; 0x2 <__rc0>
    2912: a5 04        	lda	$4                      ; 0x4 <__rc2>
    2914: c8           	iny
    2915: 91 02        	sta	($2),y                  ; 0x2 <__rc0>
    2917: a4 13        	ldy	$13                     ; 0x13 <__rc17>
    2919: a5 05        	lda	$5                      ; 0x5 <__rc3>
    291b: 4c 62 29     	jmp	$2962 <__divmodsi4+0x91>
    291e: a6 05        	ldx	$5                      ; 0x5 <__rc3>
    2920: e0 80        	cpx	#$80
    2922: d0 21        	bne	$2945 <__divmodsi4+0x74>
    2924: a5 04        	lda	$4                      ; 0x4 <__rc2>
    2926: d0 1d        	bne	$2945 <__divmodsi4+0x74>
    2928: a5 0c        	lda	$c                      ; 0xc <__rc10>
    292a: d0 19        	bne	$2945 <__divmodsi4+0x74>
    292c: a5 0d        	lda	$d                      ; 0xd <__rc11>
    292e: d0 15        	bne	$2945 <__divmodsi4+0x74>
    2930: a9 80        	lda	#$80
    2932: a2 00        	ldx	#$0
    2934: 48           	pha
    2935: 84 13        	sty	$13                     ; 0x13 <__rc17>
    2937: 8a           	txa
    2938: a0 03        	ldy	#$3
    293a: 91 02        	sta	($2),y                  ; 0x2 <__rc0>
    293c: c8           	iny
    293d: 91 02        	sta	($2),y                  ; 0x2 <__rc0>
    293f: a4 13        	ldy	$13                     ; 0x13 <__rc17>
    2941: 68           	pla
    2942: 4c 62 29     	jmp	$2962 <__divmodsi4+0x91>
    2945: 38           	sec
    2946: a9 00        	lda	#$0
    2948: e5 0d        	sbc	$d                      ; 0xd <__rc11>
    294a: a8           	tay
    294b: a9 00        	lda	#$0
    294d: e5 0c        	sbc	$c                      ; 0xc <__rc10>
    294f: 84 13        	sty	$13                     ; 0x13 <__rc17>
    2951: a0 03        	ldy	#$3
    2953: 91 02        	sta	($2),y                  ; 0x2 <__rc0>
    2955: a9 00        	lda	#$0
    2957: e5 04        	sbc	$4                      ; 0x4 <__rc2>
    2959: c8           	iny
    295a: 91 02        	sta	($2),y                  ; 0x2 <__rc0>
    295c: a4 13        	ldy	$13                     ; 0x13 <__rc17>
    295e: a9 00        	lda	#$0
    2960: e5 05        	sbc	$5                      ; 0x5 <__rc3>
    2962: a6 09        	ldx	$9                      ; 0x9 <__rc7>
    2964: 30 3a        	bmi	$29a0 <__divmodsi4+0xcf>
    2966: a6 09        	ldx	$9                      ; 0x9 <__rc7>
    2968: 86 04        	stx	$4                      ; 0x4 <__rc2>
    296a: aa           	tax
    296b: 98           	tya
    296c: e6 09        	inc	$9                      ; 0x9 <__rc7>
    296e: c6 09        	dec	$9                      ; 0x9 <__rc7>
    2970: f0 03        	beq	$2975 <__divmodsi4+0xa4>
    2972: 4c e7 29     	jmp	$29e7 <__divmodsi4+0x116>
    2975: e6 08        	inc	$8                      ; 0x8 <__rc6>
    2977: c6 08        	dec	$8                      ; 0x8 <__rc6>
    2979: f0 03        	beq	$297e <__divmodsi4+0xad>
    297b: 4c e7 29     	jmp	$29e7 <__divmodsi4+0x116>
    297e: e6 07        	inc	$7                      ; 0x7 <__rc5>
    2980: c6 07        	dec	$7                      ; 0x7 <__rc5>
    2982: f0 03        	beq	$2987 <__divmodsi4+0xb6>
    2984: 4c e7 29     	jmp	$29e7 <__divmodsi4+0x116>
    2987: e6 06        	inc	$6                      ; 0x6 <__zp_data_size>
    2989: c6 06        	dec	$6                      ; 0x6 <__zp_data_size>
    298b: f0 03        	beq	$2990 <__divmodsi4+0xbf>
    298d: 4c e7 29     	jmp	$29e7 <__divmodsi4+0x116>
    2990: 84 10        	sty	$10                     ; 0x10 <__rc14>
    2992: a0 03        	ldy	#$3
    2994: b1 02        	lda	($2),y                  ; 0x2 <__rc0>
    2996: 85 11        	sta	$11                     ; 0x11 <__rc15>
    2998: c8           	iny
    2999: b1 02        	lda	($2),y                  ; 0x2 <__rc0>
    299b: 85 14        	sta	$14                     ; 0x14 <__rc18>
    299d: 4c 2c 2a     	jmp	$2a2c <__divmodsi4+0x15b>
    29a0: a6 09        	ldx	$9                      ; 0x9 <__rc7>
    29a2: e0 80        	cpx	#$80
    29a4: d0 26        	bne	$29cc <__divmodsi4+0xfb>
    29a6: a6 08        	ldx	$8                      ; 0x8 <__rc6>
    29a8: d0 22        	bne	$29cc <__divmodsi4+0xfb>
    29aa: a6 07        	ldx	$7                      ; 0x7 <__rc5>
    29ac: d0 1e        	bne	$29cc <__divmodsi4+0xfb>
    29ae: a6 06        	ldx	$6                      ; 0x6 <__zp_data_size>
    29b0: d0 1a        	bne	$29cc <__divmodsi4+0xfb>
    29b2: aa           	tax
    29b3: 10 03        	bpl	$29b8 <__divmodsi4+0xe7>
    29b5: 4c 5d 2c     	jmp	$2c5d <__divmodsi4+0x38c>
    29b8: 84 10        	sty	$10                     ; 0x10 <__rc14>
    29ba: 48           	pha
    29bb: a0 03        	ldy	#$3
    29bd: b1 02        	lda	($2),y                  ; 0x2 <__rc0>
    29bf: 85 11        	sta	$11                     ; 0x11 <__rc15>
    29c1: c8           	iny
    29c2: b1 02        	lda	($2),y                  ; 0x2 <__rc0>
    29c4: 85 14        	sta	$14                     ; 0x14 <__rc18>
    29c6: 68           	pla
    29c7: 85 15        	sta	$15                     ; 0x15 <__rc19>
    29c9: 4c 2e 2a     	jmp	$2a2e <__divmodsi4+0x15d>
    29cc: aa           	tax
    29cd: 38           	sec
    29ce: a9 00        	lda	#$0
    29d0: e5 06        	sbc	$6                      ; 0x6 <__zp_data_size>
    29d2: 85 06        	sta	$6                      ; 0x6 <__zp_data_size>
    29d4: a9 00        	lda	#$0
    29d6: e5 07        	sbc	$7                      ; 0x7 <__rc5>
    29d8: 85 07        	sta	$7                      ; 0x7 <__rc5>
    29da: a9 00        	lda	#$0
    29dc: e5 08        	sbc	$8                      ; 0x8 <__rc6>
    29de: 85 08        	sta	$8                      ; 0x8 <__rc6>
    29e0: a9 00        	lda	#$0
    29e2: e5 09        	sbc	$9                      ; 0x9 <__rc7>
    29e4: 85 04        	sta	$4                      ; 0x4 <__rc2>
    29e6: 98           	tya
    29e7: 86 16        	stx	$16                     ; 0x16 <__rc20>
    29e9: e4 04        	cpx	$4                      ; 0x4 <__rc2>
    29eb: d0 19        	bne	$2a06 <__divmodsi4+0x135>
    29ed: aa           	tax
    29ee: a0 04        	ldy	#$4
    29f0: b1 02        	lda	($2),y                  ; 0x2 <__rc0>
    29f2: c5 08        	cmp	$8                      ; 0x8 <__rc6>
    29f4: d0 17        	bne	$2a0d <__divmodsi4+0x13c>
    29f6: a0 03        	ldy	#$3
    29f8: b1 02        	lda	($2),y                  ; 0x2 <__rc0>
    29fa: c5 07        	cmp	$7                      ; 0x7 <__rc5>
    29fc: d0 1b        	bne	$2a19 <__divmodsi4+0x148>
    29fe: 8a           	txa
    29ff: e4 06        	cpx	$6                      ; 0x6 <__zp_data_size>
    2a01: 90 1b        	bcc	$2a1e <__divmodsi4+0x14d>
    2a03: 4c 35 2a     	jmp	$2a35 <__divmodsi4+0x164>
    2a06: e4 04        	cpx	$4                      ; 0x4 <__rc2>
    2a08: 90 08        	bcc	$2a12 <__divmodsi4+0x141>
    2a0a: 4c 35 2a     	jmp	$2a35 <__divmodsi4+0x164>
    2a0d: c5 08        	cmp	$8                      ; 0x8 <__rc6>
    2a0f: 8a           	txa
    2a10: b0 23        	bcs	$2a35 <__divmodsi4+0x164>
    2a12: 85 10        	sta	$10                     ; 0x10 <__rc14>
    2a14: a0 03        	ldy	#$3
    2a16: 4c 20 2a     	jmp	$2a20 <__divmodsi4+0x14f>
    2a19: c5 07        	cmp	$7                      ; 0x7 <__rc5>
    2a1b: 8a           	txa
    2a1c: b0 17        	bcs	$2a35 <__divmodsi4+0x164>
    2a1e: 86 10        	stx	$10                     ; 0x10 <__rc14>
    2a20: b1 02        	lda	($2),y                  ; 0x2 <__rc0>
    2a22: 85 11        	sta	$11                     ; 0x11 <__rc15>
    2a24: a0 04        	ldy	#$4
    2a26: b1 02        	lda	($2),y                  ; 0x2 <__rc0>
    2a28: 85 14        	sta	$14                     ; 0x14 <__rc18>
    2a2a: a6 16        	ldx	$16                     ; 0x16 <__rc20>
    2a2c: 86 15        	stx	$15                     ; 0x15 <__rc19>
    2a2e: a2 00        	ldx	#$0
    2a30: 86 08        	stx	$8                      ; 0x8 <__rc6>
    2a32: 4c b6 2b     	jmp	$2bb6 <__divmodsi4+0x2e5>
    2a35: a2 00        	ldx	#$0
    2a37: a4 06        	ldy	$6                      ; 0x6 <__zp_data_size>
    2a39: 84 0c        	sty	$c                      ; 0xc <__rc10>
    2a3b: a4 07        	ldy	$7                      ; 0x7 <__rc5>
    2a3d: 84 0d        	sty	$d                      ; 0xd <__rc11>
    2a3f: a4 08        	ldy	$8                      ; 0x8 <__rc6>
    2a41: 84 0e        	sty	$e                      ; 0xe <__rc12>
    2a43: a4 04        	ldy	$4                      ; 0x4 <__rc2>
    2a45: 84 0f        	sty	$f                      ; 0xf <__rc13>
    2a47: 85 10        	sta	$10                     ; 0x10 <__rc14>
    2a49: 06 0c        	asl	$c                      ; 0xc <__rc10>
    2a4b: 26 0d        	rol	$d                      ; 0xd <__rc11>
    2a4d: 26 0e        	rol	$e                      ; 0xe <__rc12>
    2a4f: 26 0f        	rol	$f                      ; 0xf <__rc13>
    2a51: a5 16        	lda	$16                     ; 0x16 <__rc20>
    2a53: c5 0f        	cmp	$f                      ; 0xf <__rc13>
    2a55: d0 19        	bne	$2a70 <__divmodsi4+0x19f>
    2a57: a0 04        	ldy	#$4
    2a59: b1 02        	lda	($2),y                  ; 0x2 <__rc0>
    2a5b: c5 0e        	cmp	$e                      ; 0xe <__rc12>
    2a5d: d0 16        	bne	$2a75 <__divmodsi4+0x1a4>
    2a5f: a0 03        	ldy	#$3
    2a61: b1 02        	lda	($2),y                  ; 0x2 <__rc0>
    2a63: c5 0d        	cmp	$d                      ; 0xd <__rc11>
    2a65: d0 13        	bne	$2a7a <__divmodsi4+0x1a9>
    2a67: a5 10        	lda	$10                     ; 0x10 <__rc14>
    2a69: c5 0c        	cmp	$c                      ; 0xc <__rc10>
    2a6b: b0 13        	bcs	$2a80 <__divmodsi4+0x1af>
    2a6d: 4c 96 2a     	jmp	$2a96 <__divmodsi4+0x1c5>
    2a70: c5 0f        	cmp	$f                      ; 0xf <__rc13>
    2a72: 4c 7c 2a     	jmp	$2a7c <__divmodsi4+0x1ab>
    2a75: c5 0e        	cmp	$e                      ; 0xe <__rc12>
    2a77: 4c 7c 2a     	jmp	$2a7c <__divmodsi4+0x1ab>
    2a7a: c5 0d        	cmp	$d                      ; 0xd <__rc11>
    2a7c: a5 10        	lda	$10                     ; 0x10 <__rc14>
    2a7e: 90 16        	bcc	$2a96 <__divmodsi4+0x1c5>
    2a80: e8           	inx
    2a81: a4 0c        	ldy	$c                      ; 0xc <__rc10>
    2a83: 84 06        	sty	$6                      ; 0x6 <__zp_data_size>
    2a85: a4 0d        	ldy	$d                      ; 0xd <__rc11>
    2a87: 84 07        	sty	$7                      ; 0x7 <__rc5>
    2a89: a4 0e        	ldy	$e                      ; 0xe <__rc12>
    2a8b: 84 08        	sty	$8                      ; 0x8 <__rc6>
    2a8d: a4 0f        	ldy	$f                      ; 0xf <__rc13>
    2a8f: 84 04        	sty	$4                      ; 0x4 <__rc2>
    2a91: 10 b4        	bpl	$2a47 <__divmodsi4+0x176>
    2a93: 4c a6 2a     	jmp	$2aa6 <__divmodsi4+0x1d5>
    2a96: a4 06        	ldy	$6                      ; 0x6 <__zp_data_size>
    2a98: 84 0c        	sty	$c                      ; 0xc <__rc10>
    2a9a: a4 07        	ldy	$7                      ; 0x7 <__rc5>
    2a9c: 84 0d        	sty	$d                      ; 0xd <__rc11>
    2a9e: a4 08        	ldy	$8                      ; 0x8 <__rc6>
    2aa0: 84 0e        	sty	$e                      ; 0xe <__rc12>
    2aa2: a4 04        	ldy	$4                      ; 0x4 <__rc2>
    2aa4: 84 0f        	sty	$f                      ; 0xf <__rc13>
    2aa6: 38           	sec
    2aa7: e5 0c        	sbc	$c                      ; 0xc <__rc10>
    2aa9: 85 10        	sta	$10                     ; 0x10 <__rc14>
    2aab: a0 03        	ldy	#$3
    2aad: b1 02        	lda	($2),y                  ; 0x2 <__rc0>
    2aaf: e5 0d        	sbc	$d                      ; 0xd <__rc11>
    2ab1: 85 11        	sta	$11                     ; 0x11 <__rc15>
    2ab3: c8           	iny
    2ab4: b1 02        	lda	($2),y                  ; 0x2 <__rc0>
    2ab6: e5 0e        	sbc	$e                      ; 0xe <__rc12>
    2ab8: 85 14        	sta	$14                     ; 0x14 <__rc18>
    2aba: a5 16        	lda	$16                     ; 0x16 <__rc20>
    2abc: e5 0f        	sbc	$f                      ; 0xf <__rc13>
    2abe: a8           	tay
    2abf: e0 00        	cpx	#$0
    2ac1: d0 03        	bne	$2ac6 <__divmodsi4+0x1f5>
    2ac3: 4c af 2b     	jmp	$2baf <__divmodsi4+0x2de>
    2ac6: 86 18        	stx	$18                     ; 0x18 <__rc22>
    2ac8: a6 10        	ldx	$10                     ; 0x10 <__rc14>
    2aca: 86 17        	stx	$17                     ; 0x17 <__rc21>
    2acc: a2 00        	ldx	#$0
    2ace: 8a           	txa
    2acf: 84 13        	sty	$13                     ; 0x13 <__rc17>
    2ad1: a0 04        	ldy	#$4
    2ad3: 91 02        	sta	($2),y                  ; 0x2 <__rc0>
    2ad5: a4 13        	ldy	$13                     ; 0x13 <__rc17>
    2ad7: a9 01        	lda	#$1
    2ad9: 84 1c        	sty	$1c                     ; 0x1c <__rc26>
    2adb: a0 00        	ldy	#$0
    2add: 48           	pha
    2ade: 98           	tya
    2adf: a0 03        	ldy	#$3
    2ae1: 91 02        	sta	($2),y                  ; 0x2 <__rc0>
    2ae3: 68           	pla
    2ae4: a4 11        	ldy	$11                     ; 0x11 <__rc15>
    2ae6: 46 0f        	lsr	$f                      ; 0xf <__rc13>
    2ae8: 66 0e        	ror	$e                      ; 0xe <__rc12>
    2aea: 66 0d        	ror	$d                      ; 0xd <__rc11>
    2aec: 66 0c        	ror	$c                      ; 0xc <__rc10>
    2aee: 0a           	asl
    2aef: 84 13        	sty	$13                     ; 0x13 <__rc17>
    2af1: a0 01        	ldy	#$1
    2af3: b0 02        	bcs	$2af7 <__divmodsi4+0x226>
    2af5: a0 00        	ldy	#$0
    2af7: 84 07        	sty	$7                      ; 0x7 <__rc5>
    2af9: a4 13        	ldy	$13                     ; 0x13 <__rc17>
    2afb: 84 04        	sty	$4                      ; 0x4 <__rc2>
    2afd: a4 1c        	ldy	$1c                     ; 0x1c <__rc26>
    2aff: c4 0f        	cpy	$f                      ; 0xf <__rc13>
    2b01: d0 1c        	bne	$2b1f <__divmodsi4+0x24e>
    2b03: 85 06        	sta	$6                      ; 0x6 <__zp_data_size>
    2b05: a4 1c        	ldy	$1c                     ; 0x1c <__rc26>
    2b07: a5 14        	lda	$14                     ; 0x14 <__rc18>
    2b09: c5 0e        	cmp	$e                      ; 0xe <__rc12>
    2b0b: d0 25        	bne	$2b32 <__divmodsi4+0x261>
    2b0d: a5 04        	lda	$4                      ; 0x4 <__rc2>
    2b0f: c5 0d        	cmp	$d                      ; 0xd <__rc11>
    2b11: f0 03        	beq	$2b16 <__divmodsi4+0x245>
    2b13: 4c a5 2b     	jmp	$2ba5 <__divmodsi4+0x2d4>
    2b16: a5 17        	lda	$17                     ; 0x17 <__rc21>
    2b18: c5 0c        	cmp	$c                      ; 0xc <__rc10>
    2b1a: 90 0d        	bcc	$2b29 <__divmodsi4+0x258>
    2b1c: 4c 36 2b     	jmp	$2b36 <__divmodsi4+0x265>
    2b1f: 85 06        	sta	$6                      ; 0x6 <__zp_data_size>
    2b21: a5 1c        	lda	$1c                     ; 0x1c <__rc26>
    2b23: a4 1c        	ldy	$1c                     ; 0x1c <__rc26>
    2b25: c5 0f        	cmp	$f                      ; 0xf <__rc13>
    2b27: b0 0d        	bcs	$2b36 <__divmodsi4+0x265>
    2b29: a4 04        	ldy	$4                      ; 0x4 <__rc2>
    2b2b: 84 08        	sty	$8                      ; 0x8 <__rc6>
    2b2d: a5 06        	lda	$6                      ; 0x6 <__zp_data_size>
    2b2f: 4c 52 2b     	jmp	$2b52 <__divmodsi4+0x281>
    2b32: c5 0e        	cmp	$e                      ; 0xe <__rc12>
    2b34: 90 f3        	bcc	$2b29 <__divmodsi4+0x258>
    2b36: 38           	sec
    2b37: a5 17        	lda	$17                     ; 0x17 <__rc21>
    2b39: e5 0c        	sbc	$c                      ; 0xc <__rc10>
    2b3b: 85 17        	sta	$17                     ; 0x17 <__rc21>
    2b3d: a5 04        	lda	$4                      ; 0x4 <__rc2>
    2b3f: e5 0d        	sbc	$d                      ; 0xd <__rc11>
    2b41: 85 08        	sta	$8                      ; 0x8 <__rc6>
    2b43: a5 14        	lda	$14                     ; 0x14 <__rc18>
    2b45: e5 0e        	sbc	$e                      ; 0xe <__rc12>
    2b47: 85 14        	sta	$14                     ; 0x14 <__rc18>
    2b49: 98           	tya
    2b4a: e5 0f        	sbc	$f                      ; 0xf <__rc13>
    2b4c: 85 1c        	sta	$1c                     ; 0x1c <__rc26>
    2b4e: a5 06        	lda	$6                      ; 0x6 <__zp_data_size>
    2b50: 09 01        	ora	#$1
    2b52: a4 07        	ldy	$7                      ; 0x7 <__rc5>
    2b54: c0 01        	cpy	#$1
    2b56: 48           	pha
    2b57: a0 04        	ldy	#$4
    2b59: b1 02        	lda	($2),y                  ; 0x2 <__rc0>
    2b5b: 85 07        	sta	$7                      ; 0x7 <__rc5>
    2b5d: 26 07        	rol	$7                      ; 0x7 <__rc5>
    2b5f: 86 04        	stx	$4                      ; 0x4 <__rc2>
    2b61: 26 04        	rol	$4                      ; 0x4 <__rc2>
    2b63: 88           	dey
    2b64: b1 02        	lda	($2),y                  ; 0x2 <__rc0>
    2b66: 85 06        	sta	$6                      ; 0x6 <__zp_data_size>
    2b68: 68           	pla
    2b69: a6 06        	ldx	$6                      ; 0x6 <__zp_data_size>
    2b6b: 86 19        	stx	$19                     ; 0x19 <__rc23>
    2b6d: 26 19        	rol	$19                     ; 0x19 <__rc23>
    2b6f: c6 18        	dec	$18                     ; 0x18 <__rc22>
    2b71: a6 17        	ldx	$17                     ; 0x17 <__rc21>
    2b73: 86 10        	stx	$10                     ; 0x10 <__rc14>
    2b75: a4 08        	ldy	$8                      ; 0x8 <__rc6>
    2b77: 84 11        	sty	$11                     ; 0x11 <__rc15>
    2b79: a6 14        	ldx	$14                     ; 0x14 <__rc18>
    2b7b: 86 16        	stx	$16                     ; 0x16 <__rc20>
    2b7d: a6 1c        	ldx	$1c                     ; 0x1c <__rc26>
    2b7f: 86 15        	stx	$15                     ; 0x15 <__rc19>
    2b81: 85 08        	sta	$8                      ; 0x8 <__rc6>
    2b83: a6 07        	ldx	$7                      ; 0x7 <__rc5>
    2b85: 48           	pha
    2b86: 84 13        	sty	$13                     ; 0x13 <__rc17>
    2b88: 8a           	txa
    2b89: a0 04        	ldy	#$4
    2b8b: 91 02        	sta	($2),y                  ; 0x2 <__rc0>
    2b8d: a6 04        	ldx	$4                      ; 0x4 <__rc2>
    2b8f: a4 19        	ldy	$19                     ; 0x19 <__rc23>
    2b91: 84 06        	sty	$6                      ; 0x6 <__zp_data_size>
    2b93: a5 19        	lda	$19                     ; 0x19 <__rc23>
    2b95: a0 03        	ldy	#$3
    2b97: 91 02        	sta	($2),y                  ; 0x2 <__rc0>
    2b99: a4 13        	ldy	$13                     ; 0x13 <__rc17>
    2b9b: 68           	pla
    2b9c: e6 18        	inc	$18                     ; 0x18 <__rc22>
    2b9e: c6 18        	dec	$18                     ; 0x18 <__rc22>
    2ba0: f0 1a        	beq	$2bbc <__divmodsi4+0x2eb>
    2ba2: 4c e6 2a     	jmp	$2ae6 <__divmodsi4+0x215>
    2ba5: c5 0d        	cmp	$d                      ; 0xd <__rc11>
    2ba7: b0 03        	bcs	$2bac <__divmodsi4+0x2db>
    2ba9: 4c 29 2b     	jmp	$2b29 <__divmodsi4+0x258>
    2bac: 4c 36 2b     	jmp	$2b36 <__divmodsi4+0x265>
    2baf: 85 15        	sta	$15                     ; 0x15 <__rc19>
    2bb1: a2 01        	ldx	#$1
    2bb3: 86 08        	stx	$8                      ; 0x8 <__rc6>
    2bb5: ca           	dex
    2bb6: 86 07        	stx	$7                      ; 0x7 <__rc5>
    2bb8: 86 04        	stx	$4                      ; 0x4 <__rc2>
    2bba: 86 06        	stx	$6                      ; 0x6 <__zp_data_size>
    2bbc: a5 05        	lda	$5                      ; 0x5 <__rc3>
    2bbe: 10 19        	bpl	$2bd9 <__divmodsi4+0x308>
    2bc0: 38           	sec
    2bc1: a9 00        	lda	#$0
    2bc3: e5 10        	sbc	$10                     ; 0x10 <__rc14>
    2bc5: 85 10        	sta	$10                     ; 0x10 <__rc14>
    2bc7: a9 00        	lda	#$0
    2bc9: e5 11        	sbc	$11                     ; 0x11 <__rc15>
    2bcb: 85 11        	sta	$11                     ; 0x11 <__rc15>
    2bcd: a9 00        	lda	#$0
    2bcf: e5 14        	sbc	$14                     ; 0x14 <__rc18>
    2bd1: 85 14        	sta	$14                     ; 0x14 <__rc18>
    2bd3: a9 00        	lda	#$0
    2bd5: e5 15        	sbc	$15                     ; 0x15 <__rc19>
    2bd7: 85 15        	sta	$15                     ; 0x15 <__rc19>
    2bd9: a0 00        	ldy	#$0
    2bdb: a5 10        	lda	$10                     ; 0x10 <__rc14>
    2bdd: 91 0a        	sta	($a),y                  ; 0xa <__rc8>
    2bdf: c8           	iny
    2be0: a5 11        	lda	$11                     ; 0x11 <__rc15>
    2be2: 91 0a        	sta	($a),y                  ; 0xa <__rc8>
    2be4: c8           	iny
    2be5: a5 14        	lda	$14                     ; 0x14 <__rc18>
    2be7: 91 0a        	sta	($a),y                  ; 0xa <__rc8>
    2be9: c8           	iny
    2bea: a5 15        	lda	$15                     ; 0x15 <__rc19>
    2bec: 91 0a        	sta	($a),y                  ; 0xa <__rc8>
    2bee: 06 09        	asl	$9                      ; 0x9 <__rc7>
    2bf0: a9 00        	lda	#$0
    2bf2: 2a           	rol
    2bf3: 85 09        	sta	$9                      ; 0x9 <__rc7>
    2bf5: a9 00        	lda	#$0
    2bf7: 2a           	rol
    2bf8: 06 05        	asl	$5                      ; 0x5 <__rc3>
    2bfa: 85 05        	sta	$5                      ; 0x5 <__rc3>
    2bfc: a9 00        	lda	#$0
    2bfe: 2a           	rol
    2bff: 85 0a        	sta	$a                      ; 0xa <__rc8>
    2c01: a9 00        	lda	#$0
    2c03: 2a           	rol
    2c04: c5 05        	cmp	$5                      ; 0x5 <__rc3>
    2c06: d0 06        	bne	$2c0e <__divmodsi4+0x33d>
    2c08: a6 0a        	ldx	$a                      ; 0xa <__rc8>
    2c0a: e4 09        	cpx	$9                      ; 0x9 <__rc7>
    2c0c: f0 19        	beq	$2c27 <__divmodsi4+0x356>
    2c0e: 38           	sec
    2c0f: a9 00        	lda	#$0
    2c11: e5 08        	sbc	$8                      ; 0x8 <__rc6>
    2c13: 85 08        	sta	$8                      ; 0x8 <__rc6>
    2c15: a9 00        	lda	#$0
    2c17: e5 07        	sbc	$7                      ; 0x7 <__rc5>
    2c19: 85 07        	sta	$7                      ; 0x7 <__rc5>
    2c1b: a9 00        	lda	#$0
    2c1d: e5 04        	sbc	$4                      ; 0x4 <__rc2>
    2c1f: 85 04        	sta	$4                      ; 0x4 <__rc2>
    2c21: a9 00        	lda	#$0
    2c23: e5 06        	sbc	$6                      ; 0x6 <__zp_data_size>
    2c25: 85 06        	sta	$6                      ; 0x6 <__zp_data_size>
    2c27: a6 06        	ldx	$6                      ; 0x6 <__zp_data_size>
    2c29: 86 05        	stx	$5                      ; 0x5 <__rc3>
    2c2b: a6 07        	ldx	$7                      ; 0x7 <__rc5>
    2c2d: a5 08        	lda	$8                      ; 0x8 <__rc6>
    2c2f: 85 12        	sta	$12                     ; 0x12 <__rc16>
    2c31: a0 00        	ldy	#$0
    2c33: b1 02        	lda	($2),y                  ; 0x2 <__rc0>
    2c35: 85 1c        	sta	$1c                     ; 0x1c <__rc26>
    2c37: c8           	iny
    2c38: b1 02        	lda	($2),y                  ; 0x2 <__rc0>
    2c3a: 85 1b        	sta	$1b                     ; 0x1b <__rc25>
    2c3c: c8           	iny
    2c3d: b1 02        	lda	($2),y                  ; 0x2 <__rc0>
    2c3f: 85 1a        	sta	$1a                     ; 0x1a <__rc24>
    2c41: 68           	pla
    2c42: 85 19        	sta	$19                     ; 0x19 <__rc23>
    2c44: 68           	pla
    2c45: 85 18        	sta	$18                     ; 0x18 <__rc22>
    2c47: 68           	pla
    2c48: 85 17        	sta	$17                     ; 0x17 <__rc21>
    2c4a: 68           	pla
    2c4b: 85 16        	sta	$16                     ; 0x16 <__rc20>
    2c4d: 18           	clc
    2c4e: a5 02        	lda	$2                      ; 0x2 <__rc0>
    2c50: 69 05        	adc	#$5
    2c52: 85 02        	sta	$2                      ; 0x2 <__rc0>
    2c54: a5 03        	lda	$3                      ; 0x3 <__rc1>
    2c56: 69 00        	adc	#$0
    2c58: 85 03        	sta	$3                      ; 0x3 <__rc1>
    2c5a: a5 12        	lda	$12                     ; 0x12 <__rc16>
    2c5c: 60           	rts
    2c5d: a2 00        	ldx	#$0
    2c5f: 86 10        	stx	$10                     ; 0x10 <__rc14>
    2c61: 86 11        	stx	$11                     ; 0x11 <__rc15>
    2c63: 86 14        	stx	$14                     ; 0x14 <__rc18>
    2c65: 86 15        	stx	$15                     ; 0x15 <__rc19>
    2c67: 4c b1 2b     	jmp	$2bb1 <__divmodsi4+0x2e0>

00002c6a <__divmoddi4>:
    2c6a: 85 12        	sta	$12                     ; 0x12 <__rc16>
    2c6c: 18           	clc
    2c6d: a5 02        	lda	$2                      ; 0x2 <__rc0>
    2c6f: 69 e2        	adc	#$e2
    2c71: 85 02        	sta	$2                      ; 0x2 <__rc0>
    2c73: a5 03        	lda	$3                      ; 0x3 <__rc1>
    2c75: 69 ff        	adc	#$ff
    2c77: 85 03        	sta	$3                      ; 0x3 <__rc1>
    2c79: a5 16        	lda	$16                     ; 0x16 <__rc20>
    2c7b: 48           	pha
    2c7c: a5 17        	lda	$17                     ; 0x17 <__rc21>
    2c7e: 48           	pha
    2c7f: a5 18        	lda	$18                     ; 0x18 <__rc22>
    2c81: 48           	pha
    2c82: a5 19        	lda	$19                     ; 0x19 <__rc23>
    2c84: 48           	pha
    2c85: a5 12        	lda	$12                     ; 0x12 <__rc16>
    2c87: 48           	pha
    2c88: a5 1a        	lda	$1a                     ; 0x1a <__rc24>
    2c8a: a0 07        	ldy	#$7
    2c8c: 91 02        	sta	($2),y                  ; 0x2 <__rc0>
    2c8e: a5 1b        	lda	$1b                     ; 0x1b <__rc25>
    2c90: 88           	dey
    2c91: 91 02        	sta	($2),y                  ; 0x2 <__rc0>
    2c93: a5 1c        	lda	$1c                     ; 0x1c <__rc26>
    2c95: 88           	dey
    2c96: 91 02        	sta	($2),y                  ; 0x2 <__rc0>
    2c98: a5 1d        	lda	$1d                     ; 0x1d <__rc27>
    2c9a: 88           	dey
    2c9b: 91 02        	sta	($2),y                  ; 0x2 <__rc0>
    2c9d: a5 1e        	lda	$1e                     ; 0x1e <__rc28>
    2c9f: 88           	dey
    2ca0: 91 02        	sta	($2),y                  ; 0x2 <__rc0>
    2ca2: a5 1f        	lda	$1f                     ; 0x1f <__rc29>
    2ca4: 88           	dey
    2ca5: 91 02        	sta	($2),y                  ; 0x2 <__rc0>
    2ca7: a5 20        	lda	$20                     ; 0x20 <__rc30>
    2ca9: 88           	dey
    2caa: 91 02        	sta	($2),y                  ; 0x2 <__rc0>
    2cac: a5 21        	lda	$21                     ; 0x21 <__rc31>
    2cae: 88           	dey
    2caf: 91 02        	sta	($2),y                  ; 0x2 <__rc0>
    2cb1: 68           	pla
    2cb2: 85 17        	sta	$17                     ; 0x17 <__rc21>
    2cb4: 86 16        	stx	$16                     ; 0x16 <__rc20>
    2cb6: 18           	clc
    2cb7: a5 02        	lda	$2                      ; 0x2 <__rc0>
    2cb9: 69 1e        	adc	#$1e
    2cbb: 85 14        	sta	$14                     ; 0x14 <__rc18>
    2cbd: a5 03        	lda	$3                      ; 0x3 <__rc1>
    2cbf: 69 00        	adc	#$0
    2cc1: 85 15        	sta	$15                     ; 0x15 <__rc19>
    2cc3: a5 09        	lda	$9                      ; 0x9 <__rc7>
    2cc5: 30 2d        	bmi	$2cf4 <__divmoddi4+0x8a>
    2cc7: a5 17        	lda	$17                     ; 0x17 <__rc21>
    2cc9: a0 1c        	ldy	#$1c
    2ccb: 91 02        	sta	($2),y                  ; 0x2 <__rc0>
    2ccd: 8a           	txa
    2cce: a0 17        	ldy	#$17
    2cd0: 91 02        	sta	($2),y                  ; 0x2 <__rc0>
    2cd2: a5 04        	lda	$4                      ; 0x4 <__rc2>
    2cd4: c8           	iny
    2cd5: 91 02        	sta	($2),y                  ; 0x2 <__rc0>
    2cd7: a5 05        	lda	$5                      ; 0x5 <__rc3>
    2cd9: c8           	iny
    2cda: 91 02        	sta	($2),y                  ; 0x2 <__rc0>
    2cdc: a5 06        	lda	$6                      ; 0x6 <__zp_data_size>
    2cde: a0 1b        	ldy	#$1b
    2ce0: 91 02        	sta	($2),y                  ; 0x2 <__rc0>
    2ce2: a5 07        	lda	$7                      ; 0x7 <__rc5>
    2ce4: a0 16        	ldy	#$16
    2ce6: 91 02        	sta	($2),y                  ; 0x2 <__rc0>
    2ce8: a5 08        	lda	$8                      ; 0x8 <__rc6>
    2cea: a0 1d        	ldy	#$1d
    2cec: 91 02        	sta	($2),y                  ; 0x2 <__rc0>
    2cee: a6 09        	ldx	$9                      ; 0x9 <__rc7>
    2cf0: 8a           	txa
    2cf1: 4c 79 2d     	jmp	$2d79 <__divmoddi4+0x10f>
    2cf4: a6 09        	ldx	$9                      ; 0x9 <__rc7>
    2cf6: e0 80        	cpx	#$80
    2cf8: d0 44        	bne	$2d3e <__divmoddi4+0xd4>
    2cfa: a5 08        	lda	$8                      ; 0x8 <__rc6>
    2cfc: d0 40        	bne	$2d3e <__divmoddi4+0xd4>
    2cfe: a5 07        	lda	$7                      ; 0x7 <__rc5>
    2d00: d0 3c        	bne	$2d3e <__divmoddi4+0xd4>
    2d02: a5 06        	lda	$6                      ; 0x6 <__zp_data_size>
    2d04: d0 38        	bne	$2d3e <__divmoddi4+0xd4>
    2d06: a5 05        	lda	$5                      ; 0x5 <__rc3>
    2d08: d0 34        	bne	$2d3e <__divmoddi4+0xd4>
    2d0a: a5 04        	lda	$4                      ; 0x4 <__rc2>
    2d0c: d0 30        	bne	$2d3e <__divmoddi4+0xd4>
    2d0e: a5 16        	lda	$16                     ; 0x16 <__rc20>
    2d10: d0 2c        	bne	$2d3e <__divmoddi4+0xd4>
    2d12: a5 17        	lda	$17                     ; 0x17 <__rc21>
    2d14: d0 28        	bne	$2d3e <__divmoddi4+0xd4>
    2d16: a2 00        	ldx	#$0
    2d18: 8a           	txa
    2d19: a0 1c        	ldy	#$1c
    2d1b: 91 02        	sta	($2),y                  ; 0x2 <__rc0>
    2d1d: a2 80        	ldx	#$80
    2d1f: 8a           	txa
    2d20: a0 1a        	ldy	#$1a
    2d22: 91 02        	sta	($2),y                  ; 0x2 <__rc0>
    2d24: a2 00        	ldx	#$0
    2d26: 8a           	txa
    2d27: a0 17        	ldy	#$17
    2d29: 91 02        	sta	($2),y                  ; 0x2 <__rc0>
    2d2b: c8           	iny
    2d2c: 91 02        	sta	($2),y                  ; 0x2 <__rc0>
    2d2e: c8           	iny
    2d2f: 91 02        	sta	($2),y                  ; 0x2 <__rc0>
    2d31: a0 1b        	ldy	#$1b
    2d33: 91 02        	sta	($2),y                  ; 0x2 <__rc0>
    2d35: a0 16        	ldy	#$16
    2d37: 91 02        	sta	($2),y                  ; 0x2 <__rc0>
    2d39: a0 1d        	ldy	#$1d
    2d3b: 4c 7b 2d     	jmp	$2d7b <__divmoddi4+0x111>
    2d3e: 38           	sec
    2d3f: a9 00        	lda	#$0
    2d41: e5 17        	sbc	$17                     ; 0x17 <__rc21>
    2d43: a0 1c        	ldy	#$1c
    2d45: 91 02        	sta	($2),y                  ; 0x2 <__rc0>
    2d47: a9 00        	lda	#$0
    2d49: e5 16        	sbc	$16                     ; 0x16 <__rc20>
    2d4b: a0 17        	ldy	#$17
    2d4d: 91 02        	sta	($2),y                  ; 0x2 <__rc0>
    2d4f: a9 00        	lda	#$0
    2d51: e5 04        	sbc	$4                      ; 0x4 <__rc2>
    2d53: c8           	iny
    2d54: 91 02        	sta	($2),y                  ; 0x2 <__rc0>
    2d56: a9 00        	lda	#$0
    2d58: e5 05        	sbc	$5                      ; 0x5 <__rc3>
    2d5a: c8           	iny
    2d5b: 91 02        	sta	($2),y                  ; 0x2 <__rc0>
    2d5d: a9 00        	lda	#$0
    2d5f: e5 06        	sbc	$6                      ; 0x6 <__zp_data_size>
    2d61: a0 1b        	ldy	#$1b
    2d63: 91 02        	sta	($2),y                  ; 0x2 <__rc0>
    2d65: a9 00        	lda	#$0
    2d67: e5 07        	sbc	$7                      ; 0x7 <__rc5>
    2d69: a0 16        	ldy	#$16
    2d6b: 91 02        	sta	($2),y                  ; 0x2 <__rc0>
    2d6d: a9 00        	lda	#$0
    2d6f: e5 08        	sbc	$8                      ; 0x8 <__rc6>
    2d71: a0 1d        	ldy	#$1d
    2d73: 91 02        	sta	($2),y                  ; 0x2 <__rc0>
    2d75: a9 00        	lda	#$0
    2d77: e5 09        	sbc	$9                      ; 0x9 <__rc7>
    2d79: a0 1a        	ldy	#$1a
    2d7b: 91 02        	sta	($2),y                  ; 0x2 <__rc0>
    2d7d: a0 00        	ldy	#$0
    2d7f: b1 14        	lda	($14),y                 ; 0x14 <__rc18>
    2d81: a0 0b        	ldy	#$b
    2d83: 91 02        	sta	($2),y                  ; 0x2 <__rc0>
    2d85: a0 01        	ldy	#$1
    2d87: b1 14        	lda	($14),y                 ; 0x14 <__rc18>
    2d89: a0 0a        	ldy	#$a
    2d8b: 91 02        	sta	($2),y                  ; 0x2 <__rc0>
    2d8d: a5 11        	lda	$11                     ; 0x11 <__rc15>
    2d8f: 10 03        	bpl	$2d94 <__divmoddi4+0x12a>
    2d91: 4c 0a 2e     	jmp	$2e0a <__divmoddi4+0x1a0>
    2d94: a6 11        	ldx	$11                     ; 0x11 <__rc15>
    2d96: 86 04        	stx	$4                      ; 0x4 <__rc2>
    2d98: f0 03        	beq	$2d9d <__divmoddi4+0x133>
    2d9a: 4c b0 2e     	jmp	$2eb0 <__divmoddi4+0x246>
    2d9d: a5 10        	lda	$10                     ; 0x10 <__rc14>
    2d9f: f0 03        	beq	$2da4 <__divmoddi4+0x13a>
    2da1: 4c b0 2e     	jmp	$2eb0 <__divmoddi4+0x246>
    2da4: a5 0f        	lda	$f                      ; 0xf <__rc13>
    2da6: f0 03        	beq	$2dab <__divmoddi4+0x141>
    2da8: 4c b0 2e     	jmp	$2eb0 <__divmoddi4+0x246>
    2dab: a5 0e        	lda	$e                      ; 0xe <__rc12>
    2dad: f0 03        	beq	$2db2 <__divmoddi4+0x148>
    2daf: 4c b0 2e     	jmp	$2eb0 <__divmoddi4+0x246>
    2db2: a5 0d        	lda	$d                      ; 0xd <__rc11>
    2db4: f0 03        	beq	$2db9 <__divmoddi4+0x14f>
    2db6: 4c b0 2e     	jmp	$2eb0 <__divmoddi4+0x246>
    2db9: a5 0c        	lda	$c                      ; 0xc <__rc10>
    2dbb: f0 03        	beq	$2dc0 <__divmoddi4+0x156>
    2dbd: 4c b0 2e     	jmp	$2eb0 <__divmoddi4+0x246>
    2dc0: a5 0b        	lda	$b                      ; 0xb <__rc9>
    2dc2: f0 03        	beq	$2dc7 <__divmoddi4+0x15d>
    2dc4: 4c b0 2e     	jmp	$2eb0 <__divmoddi4+0x246>
    2dc7: a5 0a        	lda	$a                      ; 0xa <__rc8>
    2dc9: f0 03        	beq	$2dce <__divmoddi4+0x164>
    2dcb: 4c b0 2e     	jmp	$2eb0 <__divmoddi4+0x246>
    2dce: a5 09        	lda	$9                      ; 0x9 <__rc7>
    2dd0: a0 09        	ldy	#$9
    2dd2: 91 02        	sta	($2),y                  ; 0x2 <__rc0>
    2dd4: a5 11        	lda	$11                     ; 0x11 <__rc15>
    2dd6: 88           	dey
    2dd7: 91 02        	sta	($2),y                  ; 0x2 <__rc0>
    2dd9: a0 1c        	ldy	#$1c
    2ddb: b1 02        	lda	($2),y                  ; 0x2 <__rc0>
    2ddd: a0 0c        	ldy	#$c
    2ddf: 91 02        	sta	($2),y                  ; 0x2 <__rc0>
    2de1: a0 17        	ldy	#$17
    2de3: b1 02        	lda	($2),y                  ; 0x2 <__rc0>
    2de5: 85 16        	sta	$16                     ; 0x16 <__rc20>
    2de7: c8           	iny
    2de8: b1 02        	lda	($2),y                  ; 0x2 <__rc0>
    2dea: 85 0f        	sta	$f                      ; 0xf <__rc13>
    2dec: c8           	iny
    2ded: b1 02        	lda	($2),y                  ; 0x2 <__rc0>
    2def: 85 10        	sta	$10                     ; 0x10 <__rc14>
    2df1: a0 1b        	ldy	#$1b
    2df3: b1 02        	lda	($2),y                  ; 0x2 <__rc0>
    2df5: 85 1c        	sta	$1c                     ; 0x1c <__rc26>
    2df7: a0 16        	ldy	#$16
    2df9: b1 02        	lda	($2),y                  ; 0x2 <__rc0>
    2dfb: 85 1d        	sta	$1d                     ; 0x1d <__rc27>
    2dfd: a0 1d        	ldy	#$1d
    2dff: b1 02        	lda	($2),y                  ; 0x2 <__rc0>
    2e01: 85 1e        	sta	$1e                     ; 0x1e <__rc28>
    2e03: a0 1a        	ldy	#$1a
    2e05: b1 02        	lda	($2),y                  ; 0x2 <__rc0>
    2e07: 4c 7a 2e     	jmp	$2e7a <__divmoddi4+0x210>
    2e0a: a6 11        	ldx	$11                     ; 0x11 <__rc15>
    2e0c: e0 80        	cpx	#$80
    2e0e: f0 03        	beq	$2e13 <__divmoddi4+0x1a9>
    2e10: 4c 7f 2e     	jmp	$2e7f <__divmoddi4+0x215>
    2e13: a0 1a        	ldy	#$1a
    2e15: b1 02        	lda	($2),y                  ; 0x2 <__rc0>
    2e17: a6 10        	ldx	$10                     ; 0x10 <__rc14>
    2e19: f0 03        	beq	$2e1e <__divmoddi4+0x1b4>
    2e1b: 4c 7f 2e     	jmp	$2e7f <__divmoddi4+0x215>
    2e1e: a6 0f        	ldx	$f                      ; 0xf <__rc13>
    2e20: f0 03        	beq	$2e25 <__divmoddi4+0x1bb>
    2e22: 4c 7f 2e     	jmp	$2e7f <__divmoddi4+0x215>
    2e25: a6 0e        	ldx	$e                      ; 0xe <__rc12>
    2e27: f0 03        	beq	$2e2c <__divmoddi4+0x1c2>
    2e29: 4c 7f 2e     	jmp	$2e7f <__divmoddi4+0x215>
    2e2c: a6 0d        	ldx	$d                      ; 0xd <__rc11>
    2e2e: d0 4f        	bne	$2e7f <__divmoddi4+0x215>
    2e30: a6 0c        	ldx	$c                      ; 0xc <__rc10>
    2e32: d0 4b        	bne	$2e7f <__divmoddi4+0x215>
    2e34: a6 0b        	ldx	$b                      ; 0xb <__rc9>
    2e36: d0 47        	bne	$2e7f <__divmoddi4+0x215>
    2e38: a6 0a        	ldx	$a                      ; 0xa <__rc8>
    2e3a: d0 43        	bne	$2e7f <__divmoddi4+0x215>
    2e3c: 48           	pha
    2e3d: a5 09        	lda	$9                      ; 0x9 <__rc7>
    2e3f: a0 09        	ldy	#$9
    2e41: 91 02        	sta	($2),y                  ; 0x2 <__rc0>
    2e43: a5 11        	lda	$11                     ; 0x11 <__rc15>
    2e45: 88           	dey
    2e46: 91 02        	sta	($2),y                  ; 0x2 <__rc0>
    2e48: 68           	pla
    2e49: 10 03        	bpl	$2e4e <__divmoddi4+0x1e4>
    2e4b: 4c 11 35     	jmp	$3511 <__divmoddi4+0x8a7>
    2e4e: 48           	pha
    2e4f: a0 1c        	ldy	#$1c
    2e51: b1 02        	lda	($2),y                  ; 0x2 <__rc0>
    2e53: a0 0c        	ldy	#$c
    2e55: 91 02        	sta	($2),y                  ; 0x2 <__rc0>
    2e57: a0 17        	ldy	#$17
    2e59: b1 02        	lda	($2),y                  ; 0x2 <__rc0>
    2e5b: 85 16        	sta	$16                     ; 0x16 <__rc20>
    2e5d: c8           	iny
    2e5e: b1 02        	lda	($2),y                  ; 0x2 <__rc0>
    2e60: 85 0f        	sta	$f                      ; 0xf <__rc13>
    2e62: c8           	iny
    2e63: b1 02        	lda	($2),y                  ; 0x2 <__rc0>
    2e65: 85 10        	sta	$10                     ; 0x10 <__rc14>
    2e67: a0 1b        	ldy	#$1b
    2e69: b1 02        	lda	($2),y                  ; 0x2 <__rc0>
    2e6b: 85 1c        	sta	$1c                     ; 0x1c <__rc26>
    2e6d: a0 16        	ldy	#$16
    2e6f: b1 02        	lda	($2),y                  ; 0x2 <__rc0>
    2e71: 85 1d        	sta	$1d                     ; 0x1d <__rc27>
    2e73: a0 1d        	ldy	#$1d
    2e75: b1 02        	lda	($2),y                  ; 0x2 <__rc0>
    2e77: 85 1e        	sta	$1e                     ; 0x1e <__rc28>
    2e79: 68           	pla
    2e7a: 85 1f        	sta	$1f                     ; 0x1f <__rc29>
    2e7c: 4c 5d 2f     	jmp	$2f5d <__divmoddi4+0x2f3>
    2e7f: 38           	sec
    2e80: a9 00        	lda	#$0
    2e82: e5 0a        	sbc	$a                      ; 0xa <__rc8>
    2e84: 85 0a        	sta	$a                      ; 0xa <__rc8>
    2e86: a9 00        	lda	#$0
    2e88: e5 0b        	sbc	$b                      ; 0xb <__rc9>
    2e8a: 85 0b        	sta	$b                      ; 0xb <__rc9>
    2e8c: a9 00        	lda	#$0
    2e8e: e5 0c        	sbc	$c                      ; 0xc <__rc10>
    2e90: 85 0c        	sta	$c                      ; 0xc <__rc10>
    2e92: a9 00        	lda	#$0
    2e94: e5 0d        	sbc	$d                      ; 0xd <__rc11>
    2e96: 85 0d        	sta	$d                      ; 0xd <__rc11>
    2e98: a9 00        	lda	#$0
    2e9a: e5 0e        	sbc	$e                      ; 0xe <__rc12>
    2e9c: 85 0e        	sta	$e                      ; 0xe <__rc12>
    2e9e: a9 00        	lda	#$0
    2ea0: e5 0f        	sbc	$f                      ; 0xf <__rc13>
    2ea2: 85 0f        	sta	$f                      ; 0xf <__rc13>
    2ea4: a9 00        	lda	#$0
    2ea6: e5 10        	sbc	$10                     ; 0x10 <__rc14>
    2ea8: 85 10        	sta	$10                     ; 0x10 <__rc14>
    2eaa: a9 00        	lda	#$0
    2eac: e5 11        	sbc	$11                     ; 0x11 <__rc15>
    2eae: 85 04        	sta	$4                      ; 0x4 <__rc2>
    2eb0: a0 1a        	ldy	#$1a
    2eb2: b1 02        	lda	($2),y                  ; 0x2 <__rc0>
    2eb4: aa           	tax
    2eb5: a0 16        	ldy	#$16
    2eb7: b1 02        	lda	($2),y                  ; 0x2 <__rc0>
    2eb9: 86 1f        	stx	$1f                     ; 0x1f <__rc29>
    2ebb: e4 04        	cpx	$4                      ; 0x4 <__rc2>
    2ebd: f0 03        	beq	$2ec2 <__divmoddi4+0x258>
    2ebf: 4c 23 2f     	jmp	$2f23 <__divmoddi4+0x2b9>
    2ec2: 48           	pha
    2ec3: a0 1d        	ldy	#$1d
    2ec5: b1 02        	lda	($2),y                  ; 0x2 <__rc0>
    2ec7: aa           	tax
    2ec8: 68           	pla
    2ec9: e4 10        	cpx	$10                     ; 0x10 <__rc14>
    2ecb: f0 03        	beq	$2ed0 <__divmoddi4+0x266>
    2ecd: 4c 64 2f     	jmp	$2f64 <__divmoddi4+0x2fa>
    2ed0: c5 0f        	cmp	$f                      ; 0xf <__rc13>
    2ed2: f0 03        	beq	$2ed7 <__divmoddi4+0x26d>
    2ed4: 4c 0e 30     	jmp	$300e <__divmoddi4+0x3a4>
    2ed7: 48           	pha
    2ed8: a0 1b        	ldy	#$1b
    2eda: b1 02        	lda	($2),y                  ; 0x2 <__rc0>
    2edc: aa           	tax
    2edd: 68           	pla
    2ede: e4 0e        	cpx	$e                      ; 0xe <__rc12>
    2ee0: f0 03        	beq	$2ee5 <__divmoddi4+0x27b>
    2ee2: 4c 20 30     	jmp	$3020 <__divmoddi4+0x3b6>
    2ee5: 48           	pha
    2ee6: a0 19        	ldy	#$19
    2ee8: b1 02        	lda	($2),y                  ; 0x2 <__rc0>
    2eea: aa           	tax
    2eeb: 68           	pla
    2eec: e4 0d        	cpx	$d                      ; 0xd <__rc11>
    2eee: f0 03        	beq	$2ef3 <__divmoddi4+0x289>
    2ef0: 4c 68 30     	jmp	$3068 <__divmoddi4+0x3fe>
    2ef3: 48           	pha
    2ef4: a0 18        	ldy	#$18
    2ef6: b1 02        	lda	($2),y                  ; 0x2 <__rc0>
    2ef8: aa           	tax
    2ef9: 68           	pla
    2efa: e4 0c        	cpx	$c                      ; 0xc <__rc10>
    2efc: f0 03        	beq	$2f01 <__divmoddi4+0x297>
    2efe: 4c 81 30     	jmp	$3081 <__divmoddi4+0x417>
    2f01: 48           	pha
    2f02: a5 09        	lda	$9                      ; 0x9 <__rc7>
    2f04: a0 09        	ldy	#$9
    2f06: 91 02        	sta	($2),y                  ; 0x2 <__rc0>
    2f08: a0 17        	ldy	#$17
    2f0a: b1 02        	lda	($2),y                  ; 0x2 <__rc0>
    2f0c: aa           	tax
    2f0d: 68           	pla
    2f0e: e4 0b        	cpx	$b                      ; 0xb <__rc9>
    2f10: f0 03        	beq	$2f15 <__divmoddi4+0x2ab>
    2f12: 4c 9a 30     	jmp	$309a <__divmoddi4+0x430>
    2f15: 48           	pha
    2f16: a0 1c        	ldy	#$1c
    2f18: b1 02        	lda	($2),y                  ; 0x2 <__rc0>
    2f1a: aa           	tax
    2f1b: 68           	pla
    2f1c: e4 0a        	cpx	$a                      ; 0xa <__rc8>
    2f1e: 90 0f        	bcc	$2f2f <__divmoddi4+0x2c5>
    2f20: 4c 70 2f     	jmp	$2f70 <__divmoddi4+0x306>
    2f23: 48           	pha
    2f24: a5 09        	lda	$9                      ; 0x9 <__rc7>
    2f26: a0 09        	ldy	#$9
    2f28: 91 02        	sta	($2),y                  ; 0x2 <__rc0>
    2f2a: 68           	pla
    2f2b: e4 04        	cpx	$4                      ; 0x4 <__rc2>
    2f2d: b0 41        	bcs	$2f70 <__divmoddi4+0x306>
    2f2f: 48           	pha
    2f30: a5 11        	lda	$11                     ; 0x11 <__rc15>
    2f32: a0 08        	ldy	#$8
    2f34: 91 02        	sta	($2),y                  ; 0x2 <__rc0>
    2f36: a0 1c        	ldy	#$1c
    2f38: b1 02        	lda	($2),y                  ; 0x2 <__rc0>
    2f3a: a0 0c        	ldy	#$c
    2f3c: 91 02        	sta	($2),y                  ; 0x2 <__rc0>
    2f3e: a0 17        	ldy	#$17
    2f40: b1 02        	lda	($2),y                  ; 0x2 <__rc0>
    2f42: 85 16        	sta	$16                     ; 0x16 <__rc20>
    2f44: c8           	iny
    2f45: b1 02        	lda	($2),y                  ; 0x2 <__rc0>
    2f47: 85 0f        	sta	$f                      ; 0xf <__rc13>
    2f49: c8           	iny
    2f4a: b1 02        	lda	($2),y                  ; 0x2 <__rc0>
    2f4c: 85 10        	sta	$10                     ; 0x10 <__rc14>
    2f4e: a0 1b        	ldy	#$1b
    2f50: b1 02        	lda	($2),y                  ; 0x2 <__rc0>
    2f52: 85 1c        	sta	$1c                     ; 0x1c <__rc26>
    2f54: 68           	pla
    2f55: 85 1d        	sta	$1d                     ; 0x1d <__rc27>
    2f57: a0 1d        	ldy	#$1d
    2f59: b1 02        	lda	($2),y                  ; 0x2 <__rc0>
    2f5b: 85 1e        	sta	$1e                     ; 0x1e <__rc28>
    2f5d: a2 00        	ldx	#$0
    2f5f: 86 0e        	stx	$e                      ; 0xe <__rc12>
    2f61: 4c d0 33     	jmp	$33d0 <__divmoddi4+0x766>
    2f64: 48           	pha
    2f65: a5 09        	lda	$9                      ; 0x9 <__rc7>
    2f67: a0 09        	ldy	#$9
    2f69: 91 02        	sta	($2),y                  ; 0x2 <__rc0>
    2f6b: 68           	pla
    2f6c: e4 10        	cpx	$10                     ; 0x10 <__rc14>
    2f6e: 90 bf        	bcc	$2f2f <__divmoddi4+0x2c5>
    2f70: 48           	pha
    2f71: a5 11        	lda	$11                     ; 0x11 <__rc15>
    2f73: a0 08        	ldy	#$8
    2f75: 91 02        	sta	($2),y                  ; 0x2 <__rc0>
    2f77: 68           	pla
    2f78: a2 00        	ldx	#$0
    2f7a: a4 0a        	ldy	$a                      ; 0xa <__rc8>
    2f7c: 84 08        	sty	$8                      ; 0x8 <__rc6>
    2f7e: a4 0b        	ldy	$b                      ; 0xb <__rc9>
    2f80: 84 09        	sty	$9                      ; 0x9 <__rc7>
    2f82: a4 0c        	ldy	$c                      ; 0xc <__rc10>
    2f84: 84 11        	sty	$11                     ; 0x11 <__rc15>
    2f86: a4 0d        	ldy	$d                      ; 0xd <__rc11>
    2f88: 84 14        	sty	$14                     ; 0x14 <__rc18>
    2f8a: a4 0e        	ldy	$e                      ; 0xe <__rc12>
    2f8c: 84 15        	sty	$15                     ; 0x15 <__rc19>
    2f8e: a4 0f        	ldy	$f                      ; 0xf <__rc13>
    2f90: 84 16        	sty	$16                     ; 0x16 <__rc20>
    2f92: a4 10        	ldy	$10                     ; 0x10 <__rc14>
    2f94: 84 17        	sty	$17                     ; 0x17 <__rc21>
    2f96: a4 04        	ldy	$4                      ; 0x4 <__rc2>
    2f98: 84 18        	sty	$18                     ; 0x18 <__rc22>
    2f9a: 06 08        	asl	$8                      ; 0x8 <__rc6>
    2f9c: 26 09        	rol	$9                      ; 0x9 <__rc7>
    2f9e: 26 11        	rol	$11                     ; 0x11 <__rc15>
    2fa0: 26 14        	rol	$14                     ; 0x14 <__rc18>
    2fa2: 26 15        	rol	$15                     ; 0x15 <__rc19>
    2fa4: 26 16        	rol	$16                     ; 0x16 <__rc20>
    2fa6: 26 17        	rol	$17                     ; 0x17 <__rc21>
    2fa8: 26 18        	rol	$18                     ; 0x18 <__rc22>
    2faa: a4 1f        	ldy	$1f                     ; 0x1f <__rc29>
    2fac: c4 18        	cpy	$18                     ; 0x18 <__rc22>
    2fae: d0 20        	bne	$2fd0 <__divmoddi4+0x366>
    2fb0: 48           	pha
    2fb1: a0 1d        	ldy	#$1d
    2fb3: b1 02        	lda	($2),y                  ; 0x2 <__rc0>
    2fb5: a8           	tay
    2fb6: 68           	pla
    2fb7: c4 17        	cpy	$17                     ; 0x17 <__rc21>
    2fb9: d0 1c        	bne	$2fd7 <__divmoddi4+0x36d>
    2fbb: c5 16        	cmp	$16                     ; 0x16 <__rc20>
    2fbd: d0 1f        	bne	$2fde <__divmoddi4+0x374>
    2fbf: 48           	pha
    2fc0: a0 1b        	ldy	#$1b
    2fc2: b1 02        	lda	($2),y                  ; 0x2 <__rc0>
    2fc4: a8           	tay
    2fc5: 68           	pla
    2fc6: c4 15        	cpy	$15                     ; 0x15 <__rc19>
    2fc8: f0 03        	beq	$2fcd <__divmoddi4+0x363>
    2fca: 4c 61 30     	jmp	$3061 <__divmoddi4+0x3f7>
    2fcd: 4c 32 30     	jmp	$3032 <__divmoddi4+0x3c8>
    2fd0: c4 18        	cpy	$18                     ; 0x18 <__rc22>
    2fd2: b0 11        	bcs	$2fe5 <__divmoddi4+0x37b>
    2fd4: 4c ab 30     	jmp	$30ab <__divmoddi4+0x441>
    2fd7: c4 17        	cpy	$17                     ; 0x17 <__rc21>
    2fd9: b0 0a        	bcs	$2fe5 <__divmoddi4+0x37b>
    2fdb: 4c ab 30     	jmp	$30ab <__divmoddi4+0x441>
    2fde: c5 16        	cmp	$16                     ; 0x16 <__rc20>
    2fe0: b0 03        	bcs	$2fe5 <__divmoddi4+0x37b>
    2fe2: 4c ab 30     	jmp	$30ab <__divmoddi4+0x441>
    2fe5: e8           	inx
    2fe6: a4 08        	ldy	$8                      ; 0x8 <__rc6>
    2fe8: 84 0a        	sty	$a                      ; 0xa <__rc8>
    2fea: a4 09        	ldy	$9                      ; 0x9 <__rc7>
    2fec: 84 0b        	sty	$b                      ; 0xb <__rc9>
    2fee: a4 11        	ldy	$11                     ; 0x11 <__rc15>
    2ff0: 84 0c        	sty	$c                      ; 0xc <__rc10>
    2ff2: a4 14        	ldy	$14                     ; 0x14 <__rc18>
    2ff4: 84 0d        	sty	$d                      ; 0xd <__rc11>
    2ff6: a4 15        	ldy	$15                     ; 0x15 <__rc19>
    2ff8: 84 0e        	sty	$e                      ; 0xe <__rc12>
    2ffa: a4 16        	ldy	$16                     ; 0x16 <__rc20>
    2ffc: 84 0f        	sty	$f                      ; 0xf <__rc13>
    2ffe: a4 17        	ldy	$17                     ; 0x17 <__rc21>
    3000: 84 10        	sty	$10                     ; 0x10 <__rc14>
    3002: a4 18        	ldy	$18                     ; 0x18 <__rc22>
    3004: 84 04        	sty	$4                      ; 0x4 <__rc2>
    3006: 30 03        	bmi	$300b <__divmoddi4+0x3a1>
    3008: 4c 9a 2f     	jmp	$2f9a <__divmoddi4+0x330>
    300b: 4c cb 30     	jmp	$30cb <__divmoddi4+0x461>
    300e: 48           	pha
    300f: a5 09        	lda	$9                      ; 0x9 <__rc7>
    3011: a0 09        	ldy	#$9
    3013: 91 02        	sta	($2),y                  ; 0x2 <__rc0>
    3015: 68           	pla
    3016: c5 0f        	cmp	$f                      ; 0xf <__rc13>
    3018: b0 03        	bcs	$301d <__divmoddi4+0x3b3>
    301a: 4c 2f 2f     	jmp	$2f2f <__divmoddi4+0x2c5>
    301d: 4c 70 2f     	jmp	$2f70 <__divmoddi4+0x306>
    3020: 48           	pha
    3021: a5 09        	lda	$9                      ; 0x9 <__rc7>
    3023: a0 09        	ldy	#$9
    3025: 91 02        	sta	($2),y                  ; 0x2 <__rc0>
    3027: 68           	pla
    3028: e4 0e        	cpx	$e                      ; 0xe <__rc12>
    302a: b0 03        	bcs	$302f <__divmoddi4+0x3c5>
    302c: 4c 2f 2f     	jmp	$2f2f <__divmoddi4+0x2c5>
    302f: 4c 70 2f     	jmp	$2f70 <__divmoddi4+0x306>
    3032: 48           	pha
    3033: a0 19        	ldy	#$19
    3035: b1 02        	lda	($2),y                  ; 0x2 <__rc0>
    3037: a8           	tay
    3038: 68           	pla
    3039: c4 14        	cpy	$14                     ; 0x14 <__rc18>
    303b: d0 3d        	bne	$307a <__divmoddi4+0x410>
    303d: 48           	pha
    303e: a0 18        	ldy	#$18
    3040: b1 02        	lda	($2),y                  ; 0x2 <__rc0>
    3042: a8           	tay
    3043: 68           	pla
    3044: c4 11        	cpy	$11                     ; 0x11 <__rc15>
    3046: d0 4b        	bne	$3093 <__divmoddi4+0x429>
    3048: 48           	pha
    3049: a0 17        	ldy	#$17
    304b: b1 02        	lda	($2),y                  ; 0x2 <__rc0>
    304d: a8           	tay
    304e: 68           	pla
    304f: c4 09        	cpy	$9                      ; 0x9 <__rc7>
    3051: d0 51        	bne	$30a4 <__divmoddi4+0x43a>
    3053: 48           	pha
    3054: a0 1c        	ldy	#$1c
    3056: b1 02        	lda	($2),y                  ; 0x2 <__rc0>
    3058: a8           	tay
    3059: 68           	pla
    305a: c4 08        	cpy	$8                      ; 0x8 <__rc6>
    305c: 90 4d        	bcc	$30ab <__divmoddi4+0x441>
    305e: 4c e5 2f     	jmp	$2fe5 <__divmoddi4+0x37b>
    3061: c4 15        	cpy	$15                     ; 0x15 <__rc19>
    3063: 90 46        	bcc	$30ab <__divmoddi4+0x441>
    3065: 4c e5 2f     	jmp	$2fe5 <__divmoddi4+0x37b>
    3068: 48           	pha
    3069: a5 09        	lda	$9                      ; 0x9 <__rc7>
    306b: a0 09        	ldy	#$9
    306d: 91 02        	sta	($2),y                  ; 0x2 <__rc0>
    306f: 68           	pla
    3070: e4 0d        	cpx	$d                      ; 0xd <__rc11>
    3072: b0 03        	bcs	$3077 <__divmoddi4+0x40d>
    3074: 4c 2f 2f     	jmp	$2f2f <__divmoddi4+0x2c5>
    3077: 4c 70 2f     	jmp	$2f70 <__divmoddi4+0x306>
    307a: c4 14        	cpy	$14                     ; 0x14 <__rc18>
    307c: 90 2d        	bcc	$30ab <__divmoddi4+0x441>
    307e: 4c e5 2f     	jmp	$2fe5 <__divmoddi4+0x37b>
    3081: 48           	pha
    3082: a5 09        	lda	$9                      ; 0x9 <__rc7>
    3084: a0 09        	ldy	#$9
    3086: 91 02        	sta	($2),y                  ; 0x2 <__rc0>
    3088: 68           	pla
    3089: e4 0c        	cpx	$c                      ; 0xc <__rc10>
    308b: b0 03        	bcs	$3090 <__divmoddi4+0x426>
    308d: 4c 2f 2f     	jmp	$2f2f <__divmoddi4+0x2c5>
    3090: 4c 70 2f     	jmp	$2f70 <__divmoddi4+0x306>
    3093: c4 11        	cpy	$11                     ; 0x11 <__rc15>
    3095: 90 14        	bcc	$30ab <__divmoddi4+0x441>
    3097: 4c e5 2f     	jmp	$2fe5 <__divmoddi4+0x37b>
    309a: e4 0b        	cpx	$b                      ; 0xb <__rc9>
    309c: b0 03        	bcs	$30a1 <__divmoddi4+0x437>
    309e: 4c 2f 2f     	jmp	$2f2f <__divmoddi4+0x2c5>
    30a1: 4c 70 2f     	jmp	$2f70 <__divmoddi4+0x306>
    30a4: c4 09        	cpy	$9                      ; 0x9 <__rc7>
    30a6: 90 03        	bcc	$30ab <__divmoddi4+0x441>
    30a8: 4c e5 2f     	jmp	$2fe5 <__divmoddi4+0x37b>
    30ab: a4 0a        	ldy	$a                      ; 0xa <__rc8>
    30ad: 84 08        	sty	$8                      ; 0x8 <__rc6>
    30af: a4 0b        	ldy	$b                      ; 0xb <__rc9>
    30b1: 84 09        	sty	$9                      ; 0x9 <__rc7>
    30b3: a4 0c        	ldy	$c                      ; 0xc <__rc10>
    30b5: 84 11        	sty	$11                     ; 0x11 <__rc15>
    30b7: a4 0d        	ldy	$d                      ; 0xd <__rc11>
    30b9: 84 14        	sty	$14                     ; 0x14 <__rc18>
    30bb: a4 0e        	ldy	$e                      ; 0xe <__rc12>
    30bd: 84 15        	sty	$15                     ; 0x15 <__rc19>
    30bf: a4 0f        	ldy	$f                      ; 0xf <__rc13>
    30c1: 84 16        	sty	$16                     ; 0x16 <__rc20>
    30c3: a4 10        	ldy	$10                     ; 0x10 <__rc14>
    30c5: 84 17        	sty	$17                     ; 0x17 <__rc21>
    30c7: a4 04        	ldy	$4                      ; 0x4 <__rc2>
    30c9: 84 18        	sty	$18                     ; 0x18 <__rc22>
    30cb: 38           	sec
    30cc: 85 07        	sta	$7                      ; 0x7 <__rc5>
    30ce: a0 1c        	ldy	#$1c
    30d0: b1 02        	lda	($2),y                  ; 0x2 <__rc0>
    30d2: e5 08        	sbc	$8                      ; 0x8 <__rc6>
    30d4: 85 06        	sta	$6                      ; 0x6 <__zp_data_size>
    30d6: a0 17        	ldy	#$17
    30d8: b1 02        	lda	($2),y                  ; 0x2 <__rc0>
    30da: e5 09        	sbc	$9                      ; 0x9 <__rc7>
    30dc: a8           	tay
    30dd: 84 13        	sty	$13                     ; 0x13 <__rc17>
    30df: a0 18        	ldy	#$18
    30e1: b1 02        	lda	($2),y                  ; 0x2 <__rc0>
    30e3: e5 11        	sbc	$11                     ; 0x11 <__rc15>
    30e5: 85 1a        	sta	$1a                     ; 0x1a <__rc24>
    30e7: c8           	iny
    30e8: b1 02        	lda	($2),y                  ; 0x2 <__rc0>
    30ea: e5 14        	sbc	$14                     ; 0x14 <__rc18>
    30ec: 85 10        	sta	$10                     ; 0x10 <__rc14>
    30ee: a0 1b        	ldy	#$1b
    30f0: b1 02        	lda	($2),y                  ; 0x2 <__rc0>
    30f2: e5 15        	sbc	$15                     ; 0x15 <__rc19>
    30f4: 85 1c        	sta	$1c                     ; 0x1c <__rc26>
    30f6: a5 07        	lda	$7                      ; 0x7 <__rc5>
    30f8: e5 16        	sbc	$16                     ; 0x16 <__rc20>
    30fa: 85 21        	sta	$21                     ; 0x21 <__rc31>
    30fc: a0 1d        	ldy	#$1d
    30fe: b1 02        	lda	($2),y                  ; 0x2 <__rc0>
    3100: a4 13        	ldy	$13                     ; 0x13 <__rc17>
    3102: e5 17        	sbc	$17                     ; 0x17 <__rc21>
    3104: 85 20        	sta	$20                     ; 0x20 <__rc30>
    3106: a5 1f        	lda	$1f                     ; 0x1f <__rc29>
    3108: e5 18        	sbc	$18                     ; 0x18 <__rc22>
    310a: 85 1f        	sta	$1f                     ; 0x1f <__rc29>
    310c: 8a           	txa
    310d: d0 03        	bne	$3112 <__divmoddi4+0x4a8>
    310f: 4c b3 33     	jmp	$33b3 <__divmoddi4+0x749>
    3112: 84 13        	sty	$13                     ; 0x13 <__rc17>
    3114: a5 17        	lda	$17                     ; 0x17 <__rc21>
    3116: a0 0e        	ldy	#$e
    3118: 91 02        	sta	($2),y                  ; 0x2 <__rc0>
    311a: a5 16        	lda	$16                     ; 0x16 <__rc20>
    311c: a0 10        	ldy	#$10
    311e: 91 02        	sta	($2),y                  ; 0x2 <__rc0>
    3120: a5 15        	lda	$15                     ; 0x15 <__rc19>
    3122: 88           	dey
    3123: 91 02        	sta	($2),y                  ; 0x2 <__rc0>
    3125: a5 14        	lda	$14                     ; 0x14 <__rc18>
    3127: a0 11        	ldy	#$11
    3129: 91 02        	sta	($2),y                  ; 0x2 <__rc0>
    312b: a5 11        	lda	$11                     ; 0x11 <__rc15>
    312d: c8           	iny
    312e: 91 02        	sta	($2),y                  ; 0x2 <__rc0>
    3130: a5 09        	lda	$9                      ; 0x9 <__rc7>
    3132: c8           	iny
    3133: 91 02        	sta	($2),y                  ; 0x2 <__rc0>
    3135: a5 08        	lda	$8                      ; 0x8 <__rc6>
    3137: c8           	iny
    3138: 91 02        	sta	($2),y                  ; 0x2 <__rc0>
    313a: a5 06        	lda	$6                      ; 0x6 <__zp_data_size>
    313c: a0 1c        	ldy	#$1c
    313e: 91 02        	sta	($2),y                  ; 0x2 <__rc0>
    3140: a4 13        	ldy	$13                     ; 0x13 <__rc17>
    3142: 84 15        	sty	$15                     ; 0x15 <__rc19>
    3144: a4 10        	ldy	$10                     ; 0x10 <__rc14>
    3146: 84 11        	sty	$11                     ; 0x11 <__rc15>
    3148: a4 1c        	ldy	$1c                     ; 0x1c <__rc26>
    314a: 84 14        	sty	$14                     ; 0x14 <__rc18>
    314c: a0 00        	ldy	#$0
    314e: 98           	tya
    314f: a0 1b        	ldy	#$1b
    3151: 91 02        	sta	($2),y                  ; 0x2 <__rc0>
    3153: a0 01        	ldy	#$1
    3155: 98           	tya
    3156: a0 1d        	ldy	#$1d
    3158: 91 02        	sta	($2),y                  ; 0x2 <__rc0>
    315a: a0 00        	ldy	#$0
    315c: 98           	tya
    315d: a0 15        	ldy	#$15
    315f: 91 02        	sta	($2),y                  ; 0x2 <__rc0>
    3161: a9 00        	lda	#$0
    3163: a0 1a        	ldy	#$1a
    3165: 91 02        	sta	($2),y                  ; 0x2 <__rc0>
    3167: 88           	dey
    3168: 91 02        	sta	($2),y                  ; 0x2 <__rc0>
    316a: 88           	dey
    316b: 91 02        	sta	($2),y                  ; 0x2 <__rc0>
    316d: 88           	dey
    316e: 91 02        	sta	($2),y                  ; 0x2 <__rc0>
    3170: a4 1f        	ldy	$1f                     ; 0x1f <__rc29>
    3172: 84 13        	sty	$13                     ; 0x13 <__rc17>
    3174: a0 16        	ldy	#$16
    3176: 91 02        	sta	($2),y                  ; 0x2 <__rc0>
    3178: a4 13        	ldy	$13                     ; 0x13 <__rc17>
    317a: 46 18        	lsr	$18                     ; 0x18 <__rc22>
    317c: 84 13        	sty	$13                     ; 0x13 <__rc17>
    317e: a0 0e        	ldy	#$e
    3180: b1 02        	lda	($2),y                  ; 0x2 <__rc0>
    3182: 85 0d        	sta	$d                      ; 0xd <__rc11>
    3184: 66 0d        	ror	$d                      ; 0xd <__rc11>
    3186: a0 10        	ldy	#$10
    3188: b1 02        	lda	($2),y                  ; 0x2 <__rc0>
    318a: 85 0c        	sta	$c                      ; 0xc <__rc10>
    318c: 66 0c        	ror	$c                      ; 0xc <__rc10>
    318e: 88           	dey
    318f: b1 02        	lda	($2),y                  ; 0x2 <__rc0>
    3191: 85 08        	sta	$8                      ; 0x8 <__rc6>
    3193: 66 08        	ror	$8                      ; 0x8 <__rc6>
    3195: a0 11        	ldy	#$11
    3197: b1 02        	lda	($2),y                  ; 0x2 <__rc0>
    3199: 85 07        	sta	$7                      ; 0x7 <__rc5>
    319b: 66 07        	ror	$7                      ; 0x7 <__rc5>
    319d: c8           	iny
    319e: b1 02        	lda	($2),y                  ; 0x2 <__rc0>
    31a0: 85 06        	sta	$6                      ; 0x6 <__zp_data_size>
    31a2: 66 06        	ror	$6                      ; 0x6 <__zp_data_size>
    31a4: c8           	iny
    31a5: b1 02        	lda	($2),y                  ; 0x2 <__rc0>
    31a7: 85 05        	sta	$5                      ; 0x5 <__rc3>
    31a9: 66 05        	ror	$5                      ; 0x5 <__rc3>
    31ab: c8           	iny
    31ac: b1 02        	lda	($2),y                  ; 0x2 <__rc0>
    31ae: 85 04        	sta	$4                      ; 0x4 <__rc2>
    31b0: 66 04        	ror	$4                      ; 0x4 <__rc2>
    31b2: a0 1d        	ldy	#$1d
    31b4: b1 02        	lda	($2),y                  ; 0x2 <__rc0>
    31b6: a4 13        	ldy	$13                     ; 0x13 <__rc17>
    31b8: 85 0f        	sta	$f                      ; 0xf <__rc13>
    31ba: 06 0f        	asl	$f                      ; 0xf <__rc13>
    31bc: a9 01        	lda	#$1
    31be: b0 02        	bcs	$31c2 <__divmoddi4+0x558>
    31c0: a9 00        	lda	#$0
    31c2: 85 09        	sta	$9                      ; 0x9 <__rc7>
    31c4: c4 18        	cpy	$18                     ; 0x18 <__rc22>
    31c6: d0 43        	bne	$320b <__divmoddi4+0x5a1>
    31c8: 84 0e        	sty	$e                      ; 0xe <__rc12>
    31ca: a5 20        	lda	$20                     ; 0x20 <__rc30>
    31cc: c5 0d        	cmp	$d                      ; 0xd <__rc11>
    31ce: f0 03        	beq	$31d3 <__divmoddi4+0x569>
    31d0: 4c 53 32     	jmp	$3253 <__divmoddi4+0x5e9>
    31d3: a5 21        	lda	$21                     ; 0x21 <__rc31>
    31d5: c5 0c        	cmp	$c                      ; 0xc <__rc10>
    31d7: f0 03        	beq	$31dc <__divmoddi4+0x572>
    31d9: 4c 81 33     	jmp	$3381 <__divmoddi4+0x717>
    31dc: a5 14        	lda	$14                     ; 0x14 <__rc18>
    31de: c5 08        	cmp	$8                      ; 0x8 <__rc6>
    31e0: f0 03        	beq	$31e5 <__divmoddi4+0x57b>
    31e2: 4c 8b 33     	jmp	$338b <__divmoddi4+0x721>
    31e5: a5 11        	lda	$11                     ; 0x11 <__rc15>
    31e7: c5 07        	cmp	$7                      ; 0x7 <__rc5>
    31e9: f0 03        	beq	$31ee <__divmoddi4+0x584>
    31eb: 4c 95 33     	jmp	$3395 <__divmoddi4+0x72b>
    31ee: a5 1a        	lda	$1a                     ; 0x1a <__rc24>
    31f0: c5 06        	cmp	$6                      ; 0x6 <__zp_data_size>
    31f2: f0 03        	beq	$31f7 <__divmoddi4+0x58d>
    31f4: 4c 9f 33     	jmp	$339f <__divmoddi4+0x735>
    31f7: a5 15        	lda	$15                     ; 0x15 <__rc19>
    31f9: c5 05        	cmp	$5                      ; 0x5 <__rc3>
    31fb: f0 03        	beq	$3200 <__divmoddi4+0x596>
    31fd: 4c a9 33     	jmp	$33a9 <__divmoddi4+0x73f>
    3200: a0 1c        	ldy	#$1c
    3202: b1 02        	lda	($2),y                  ; 0x2 <__rc0>
    3204: c5 04        	cmp	$4                      ; 0x4 <__rc2>
    3206: 90 09        	bcc	$3211 <__divmoddi4+0x5a7>
    3208: 4c 57 32     	jmp	$3257 <__divmoddi4+0x5ed>
    320b: 84 0e        	sty	$e                      ; 0xe <__rc12>
    320d: c4 18        	cpy	$18                     ; 0x18 <__rc22>
    320f: b0 46        	bcs	$3257 <__divmoddi4+0x5ed>
    3211: a5 18        	lda	$18                     ; 0x18 <__rc22>
    3213: a0 0d        	ldy	#$d
    3215: 91 02        	sta	($2),y                  ; 0x2 <__rc0>
    3217: a5 0d        	lda	$d                      ; 0xd <__rc11>
    3219: c8           	iny
    321a: 91 02        	sta	($2),y                  ; 0x2 <__rc0>
    321c: a5 0c        	lda	$c                      ; 0xc <__rc10>
    321e: a0 10        	ldy	#$10
    3220: 91 02        	sta	($2),y                  ; 0x2 <__rc0>
    3222: a5 08        	lda	$8                      ; 0x8 <__rc6>
    3224: 88           	dey
    3225: 91 02        	sta	($2),y                  ; 0x2 <__rc0>
    3227: a5 07        	lda	$7                      ; 0x7 <__rc5>
    3229: a0 11        	ldy	#$11
    322b: 91 02        	sta	($2),y                  ; 0x2 <__rc0>
    322d: a5 06        	lda	$6                      ; 0x6 <__zp_data_size>
    322f: c8           	iny
    3230: 91 02        	sta	($2),y                  ; 0x2 <__rc0>
    3232: a5 05        	lda	$5                      ; 0x5 <__rc3>
    3234: c8           	iny
    3235: 91 02        	sta	($2),y                  ; 0x2 <__rc0>
    3237: a5 04        	lda	$4                      ; 0x4 <__rc2>
    3239: c8           	iny
    323a: 91 02        	sta	($2),y                  ; 0x2 <__rc0>
    323c: a4 0e        	ldy	$e                      ; 0xe <__rc12>
    323e: a5 20        	lda	$20                     ; 0x20 <__rc30>
    3240: 85 1e        	sta	$1e                     ; 0x1e <__rc28>
    3242: a5 15        	lda	$15                     ; 0x15 <__rc19>
    3244: 85 16        	sta	$16                     ; 0x16 <__rc20>
    3246: 84 13        	sty	$13                     ; 0x13 <__rc17>
    3248: a0 1c        	ldy	#$1c
    324a: b1 02        	lda	($2),y                  ; 0x2 <__rc0>
    324c: 85 10        	sta	$10                     ; 0x10 <__rc14>
    324e: a5 0f        	lda	$f                      ; 0xf <__rc13>
    3250: 4c c8 32     	jmp	$32c8 <__divmoddi4+0x65e>
    3253: c5 0d        	cmp	$d                      ; 0xd <__rc11>
    3255: 90 ba        	bcc	$3211 <__divmoddi4+0x5a7>
    3257: 38           	sec
    3258: a0 1c        	ldy	#$1c
    325a: b1 02        	lda	($2),y                  ; 0x2 <__rc0>
    325c: 48           	pha
    325d: a5 04        	lda	$4                      ; 0x4 <__rc2>
    325f: a0 14        	ldy	#$14
    3261: 91 02        	sta	($2),y                  ; 0x2 <__rc0>
    3263: 68           	pla
    3264: e5 04        	sbc	$4                      ; 0x4 <__rc2>
    3266: 85 10        	sta	$10                     ; 0x10 <__rc14>
    3268: a5 15        	lda	$15                     ; 0x15 <__rc19>
    326a: 48           	pha
    326b: a5 05        	lda	$5                      ; 0x5 <__rc3>
    326d: 88           	dey
    326e: 91 02        	sta	($2),y                  ; 0x2 <__rc0>
    3270: 68           	pla
    3271: e5 05        	sbc	$5                      ; 0x5 <__rc3>
    3273: 85 16        	sta	$16                     ; 0x16 <__rc20>
    3275: a5 1a        	lda	$1a                     ; 0x1a <__rc24>
    3277: 48           	pha
    3278: a5 06        	lda	$6                      ; 0x6 <__zp_data_size>
    327a: 88           	dey
    327b: 91 02        	sta	($2),y                  ; 0x2 <__rc0>
    327d: 68           	pla
    327e: e5 06        	sbc	$6                      ; 0x6 <__zp_data_size>
    3280: 85 1a        	sta	$1a                     ; 0x1a <__rc24>
    3282: a5 11        	lda	$11                     ; 0x11 <__rc15>
    3284: 48           	pha
    3285: a5 07        	lda	$7                      ; 0x7 <__rc5>
    3287: 88           	dey
    3288: 91 02        	sta	($2),y                  ; 0x2 <__rc0>
    328a: 68           	pla
    328b: e5 07        	sbc	$7                      ; 0x7 <__rc5>
    328d: 85 11        	sta	$11                     ; 0x11 <__rc15>
    328f: a5 14        	lda	$14                     ; 0x14 <__rc18>
    3291: 48           	pha
    3292: a5 08        	lda	$8                      ; 0x8 <__rc6>
    3294: a0 0f        	ldy	#$f
    3296: 91 02        	sta	($2),y                  ; 0x2 <__rc0>
    3298: 68           	pla
    3299: e5 08        	sbc	$8                      ; 0x8 <__rc6>
    329b: 85 14        	sta	$14                     ; 0x14 <__rc18>
    329d: a5 21        	lda	$21                     ; 0x21 <__rc31>
    329f: 48           	pha
    32a0: a5 0c        	lda	$c                      ; 0xc <__rc10>
    32a2: c8           	iny
    32a3: 91 02        	sta	($2),y                  ; 0x2 <__rc0>
    32a5: 68           	pla
    32a6: e5 0c        	sbc	$c                      ; 0xc <__rc10>
    32a8: 85 21        	sta	$21                     ; 0x21 <__rc31>
    32aa: a5 0d        	lda	$d                      ; 0xd <__rc11>
    32ac: a0 0e        	ldy	#$e
    32ae: 91 02        	sta	($2),y                  ; 0x2 <__rc0>
    32b0: a5 20        	lda	$20                     ; 0x20 <__rc30>
    32b2: e5 0d        	sbc	$d                      ; 0xd <__rc11>
    32b4: 85 1e        	sta	$1e                     ; 0x1e <__rc28>
    32b6: a5 0e        	lda	$e                      ; 0xe <__rc12>
    32b8: 48           	pha
    32b9: a5 18        	lda	$18                     ; 0x18 <__rc22>
    32bb: 88           	dey
    32bc: 91 02        	sta	($2),y                  ; 0x2 <__rc0>
    32be: 68           	pla
    32bf: e5 18        	sbc	$18                     ; 0x18 <__rc22>
    32c1: a8           	tay
    32c2: a5 0f        	lda	$f                      ; 0xf <__rc13>
    32c4: 09 01        	ora	#$1
    32c6: 84 13        	sty	$13                     ; 0x13 <__rc17>
    32c8: a0 1d        	ldy	#$1d
    32ca: 91 02        	sta	($2),y                  ; 0x2 <__rc0>
    32cc: a4 13        	ldy	$13                     ; 0x13 <__rc17>
    32ce: a5 09        	lda	$9                      ; 0x9 <__rc7>
    32d0: c9 01        	cmp	#$1
    32d2: 84 13        	sty	$13                     ; 0x13 <__rc17>
    32d4: a0 1b        	ldy	#$1b
    32d6: b1 02        	lda	($2),y                  ; 0x2 <__rc0>
    32d8: 85 0b        	sta	$b                      ; 0xb <__rc9>
    32da: 26 0b        	rol	$b                      ; 0xb <__rc9>
    32dc: a0 15        	ldy	#$15
    32de: b1 02        	lda	($2),y                  ; 0x2 <__rc0>
    32e0: 85 04        	sta	$4                      ; 0x4 <__rc2>
    32e2: 26 04        	rol	$4                      ; 0x4 <__rc2>
    32e4: a0 1a        	ldy	#$1a
    32e6: b1 02        	lda	($2),y                  ; 0x2 <__rc0>
    32e8: 85 08        	sta	$8                      ; 0x8 <__rc6>
    32ea: 26 08        	rol	$8                      ; 0x8 <__rc6>
    32ec: 88           	dey
    32ed: b1 02        	lda	($2),y                  ; 0x2 <__rc0>
    32ef: 85 0a        	sta	$a                      ; 0xa <__rc8>
    32f1: 26 0a        	rol	$a                      ; 0xa <__rc8>
    32f3: 88           	dey
    32f4: b1 02        	lda	($2),y                  ; 0x2 <__rc0>
    32f6: 85 17        	sta	$17                     ; 0x17 <__rc21>
    32f8: 26 17        	rol	$17                     ; 0x17 <__rc21>
    32fa: 88           	dey
    32fb: b1 02        	lda	($2),y                  ; 0x2 <__rc0>
    32fd: 85 1b        	sta	$1b                     ; 0x1b <__rc25>
    32ff: 26 1b        	rol	$1b                     ; 0x1b <__rc25>
    3301: 88           	dey
    3302: b1 02        	lda	($2),y                  ; 0x2 <__rc0>
    3304: 2a           	rol
    3305: 86 09        	stx	$9                      ; 0x9 <__rc7>
    3307: c6 09        	dec	$9                      ; 0x9 <__rc7>
    3309: 48           	pha
    330a: a5 10        	lda	$10                     ; 0x10 <__rc14>
    330c: a0 1c        	ldy	#$1c
    330e: 91 02        	sta	($2),y                  ; 0x2 <__rc0>
    3310: a0 0c        	ldy	#$c
    3312: 91 02        	sta	($2),y                  ; 0x2 <__rc0>
    3314: a4 13        	ldy	$13                     ; 0x13 <__rc17>
    3316: a6 16        	ldx	$16                     ; 0x16 <__rc20>
    3318: 86 15        	stx	$15                     ; 0x15 <__rc19>
    331a: a6 1a        	ldx	$1a                     ; 0x1a <__rc24>
    331c: 86 0f        	stx	$f                      ; 0xf <__rc13>
    331e: a6 11        	ldx	$11                     ; 0x11 <__rc15>
    3320: 86 10        	stx	$10                     ; 0x10 <__rc14>
    3322: a6 14        	ldx	$14                     ; 0x14 <__rc18>
    3324: 86 1c        	stx	$1c                     ; 0x1c <__rc26>
    3326: a6 21        	ldx	$21                     ; 0x21 <__rc31>
    3328: 86 1d        	stx	$1d                     ; 0x1d <__rc27>
    332a: a6 1e        	ldx	$1e                     ; 0x1e <__rc28>
    332c: 86 20        	stx	$20                     ; 0x20 <__rc30>
    332e: 84 1f        	sty	$1f                     ; 0x1f <__rc29>
    3330: 84 13        	sty	$13                     ; 0x13 <__rc17>
    3332: a0 1d        	ldy	#$1d
    3334: b1 02        	lda	($2),y                  ; 0x2 <__rc0>
    3336: 85 0e        	sta	$e                      ; 0xe <__rc12>
    3338: a6 0b        	ldx	$b                      ; 0xb <__rc9>
    333a: 8a           	txa
    333b: a0 1b        	ldy	#$1b
    333d: 91 02        	sta	($2),y                  ; 0x2 <__rc0>
    333f: a6 04        	ldx	$4                      ; 0x4 <__rc2>
    3341: 8a           	txa
    3342: a0 15        	ldy	#$15
    3344: 91 02        	sta	($2),y                  ; 0x2 <__rc0>
    3346: a6 08        	ldx	$8                      ; 0x8 <__rc6>
    3348: 86 05        	stx	$5                      ; 0x5 <__rc3>
    334a: a5 08        	lda	$8                      ; 0x8 <__rc6>
    334c: a0 1a        	ldy	#$1a
    334e: 91 02        	sta	($2),y                  ; 0x2 <__rc0>
    3350: a6 0a        	ldx	$a                      ; 0xa <__rc8>
    3352: 86 06        	stx	$6                      ; 0x6 <__zp_data_size>
    3354: a5 0a        	lda	$a                      ; 0xa <__rc8>
    3356: 88           	dey
    3357: 91 02        	sta	($2),y                  ; 0x2 <__rc0>
    3359: a6 17        	ldx	$17                     ; 0x17 <__rc21>
    335b: 86 07        	stx	$7                      ; 0x7 <__rc5>
    335d: a5 17        	lda	$17                     ; 0x17 <__rc21>
    335f: 88           	dey
    3360: 91 02        	sta	($2),y                  ; 0x2 <__rc0>
    3362: a5 1b        	lda	$1b                     ; 0x1b <__rc25>
    3364: 88           	dey
    3365: 91 02        	sta	($2),y                  ; 0x2 <__rc0>
    3367: 68           	pla
    3368: 85 0a        	sta	$a                      ; 0xa <__rc8>
    336a: 88           	dey
    336b: 91 02        	sta	($2),y                  ; 0x2 <__rc0>
    336d: a6 09        	ldx	$9                      ; 0x9 <__rc7>
    336f: a0 0d        	ldy	#$d
    3371: b1 02        	lda	($2),y                  ; 0x2 <__rc0>
    3373: a4 13        	ldy	$13                     ; 0x13 <__rc17>
    3375: 85 18        	sta	$18                     ; 0x18 <__rc22>
    3377: a5 09        	lda	$9                      ; 0x9 <__rc7>
    3379: d0 03        	bne	$337e <__divmoddi4+0x714>
    337b: 4c de 33     	jmp	$33de <__divmoddi4+0x774>
    337e: 4c 7a 31     	jmp	$317a <__divmoddi4+0x510>
    3381: c5 0c        	cmp	$c                      ; 0xc <__rc10>
    3383: b0 03        	bcs	$3388 <__divmoddi4+0x71e>
    3385: 4c 11 32     	jmp	$3211 <__divmoddi4+0x5a7>
    3388: 4c 57 32     	jmp	$3257 <__divmoddi4+0x5ed>
    338b: c5 08        	cmp	$8                      ; 0x8 <__rc6>
    338d: b0 03        	bcs	$3392 <__divmoddi4+0x728>
    338f: 4c 11 32     	jmp	$3211 <__divmoddi4+0x5a7>
    3392: 4c 57 32     	jmp	$3257 <__divmoddi4+0x5ed>
    3395: c5 07        	cmp	$7                      ; 0x7 <__rc5>
    3397: b0 03        	bcs	$339c <__divmoddi4+0x732>
    3399: 4c 11 32     	jmp	$3211 <__divmoddi4+0x5a7>
    339c: 4c 57 32     	jmp	$3257 <__divmoddi4+0x5ed>
    339f: c5 06        	cmp	$6                      ; 0x6 <__zp_data_size>
    33a1: b0 03        	bcs	$33a6 <__divmoddi4+0x73c>
    33a3: 4c 11 32     	jmp	$3211 <__divmoddi4+0x5a7>
    33a6: 4c 57 32     	jmp	$3257 <__divmoddi4+0x5ed>
    33a9: c5 05        	cmp	$5                      ; 0x5 <__rc3>
    33ab: b0 03        	bcs	$33b0 <__divmoddi4+0x746>
    33ad: 4c 11 32     	jmp	$3211 <__divmoddi4+0x5a7>
    33b0: 4c 57 32     	jmp	$3257 <__divmoddi4+0x5ed>
    33b3: a5 06        	lda	$6                      ; 0x6 <__zp_data_size>
    33b5: 84 13        	sty	$13                     ; 0x13 <__rc17>
    33b7: a0 0c        	ldy	#$c
    33b9: 91 02        	sta	($2),y                  ; 0x2 <__rc0>
    33bb: a4 13        	ldy	$13                     ; 0x13 <__rc17>
    33bd: 84 16        	sty	$16                     ; 0x16 <__rc20>
    33bf: a6 1a        	ldx	$1a                     ; 0x1a <__rc24>
    33c1: 86 0f        	stx	$f                      ; 0xf <__rc13>
    33c3: a6 21        	ldx	$21                     ; 0x21 <__rc31>
    33c5: 86 1d        	stx	$1d                     ; 0x1d <__rc27>
    33c7: a6 20        	ldx	$20                     ; 0x20 <__rc30>
    33c9: 86 1e        	stx	$1e                     ; 0x1e <__rc28>
    33cb: a2 01        	ldx	#$1
    33cd: 86 0e        	stx	$e                      ; 0xe <__rc12>
    33cf: ca           	dex
    33d0: 86 0b        	stx	$b                      ; 0xb <__rc9>
    33d2: 86 04        	stx	$4                      ; 0x4 <__rc2>
    33d4: 86 05        	stx	$5                      ; 0x5 <__rc3>
    33d6: 86 06        	stx	$6                      ; 0x6 <__zp_data_size>
    33d8: 86 07        	stx	$7                      ; 0x7 <__rc5>
    33da: 86 1b        	stx	$1b                     ; 0x1b <__rc25>
    33dc: 86 0a        	stx	$a                      ; 0xa <__rc8>
    33de: a4 16        	ldy	$16                     ; 0x16 <__rc20>
    33e0: 84 13        	sty	$13                     ; 0x13 <__rc17>
    33e2: a0 0c        	ldy	#$c
    33e4: b1 02        	lda	($2),y                  ; 0x2 <__rc0>
    33e6: 85 0d        	sta	$d                      ; 0xd <__rc11>
    33e8: a6 0e        	ldx	$e                      ; 0xe <__rc12>
    33ea: 86 0c        	stx	$c                      ; 0xc <__rc10>
    33ec: 88           	dey
    33ed: b1 02        	lda	($2),y                  ; 0x2 <__rc0>
    33ef: 85 14        	sta	$14                     ; 0x14 <__rc18>
    33f1: 88           	dey
    33f2: b1 02        	lda	($2),y                  ; 0x2 <__rc0>
    33f4: 85 15        	sta	$15                     ; 0x15 <__rc19>
    33f6: 88           	dey
    33f7: b1 02        	lda	($2),y                  ; 0x2 <__rc0>
    33f9: a4 13        	ldy	$13                     ; 0x13 <__rc17>
    33fb: 85 09        	sta	$9                      ; 0x9 <__rc7>
    33fd: aa           	tax
    33fe: 30 0b        	bmi	$340b <__divmoddi4+0x7a1>
    3400: a6 0d        	ldx	$d                      ; 0xd <__rc11>
    3402: 84 11        	sty	$11                     ; 0x11 <__rc15>
    3404: a4 0f        	ldy	$f                      ; 0xf <__rc13>
    3406: 84 16        	sty	$16                     ; 0x16 <__rc20>
    3408: 4c 3d 34     	jmp	$343d <__divmoddi4+0x7d3>
    340b: 38           	sec
    340c: a9 00        	lda	#$0
    340e: e5 0d        	sbc	$d                      ; 0xd <__rc11>
    3410: aa           	tax
    3411: a9 00        	lda	#$0
    3413: 84 0d        	sty	$d                      ; 0xd <__rc11>
    3415: e5 0d        	sbc	$d                      ; 0xd <__rc11>
    3417: 85 11        	sta	$11                     ; 0x11 <__rc15>
    3419: a9 00        	lda	#$0
    341b: e5 0f        	sbc	$f                      ; 0xf <__rc13>
    341d: 85 16        	sta	$16                     ; 0x16 <__rc20>
    341f: a9 00        	lda	#$0
    3421: e5 10        	sbc	$10                     ; 0x10 <__rc14>
    3423: 85 10        	sta	$10                     ; 0x10 <__rc14>
    3425: a9 00        	lda	#$0
    3427: e5 1c        	sbc	$1c                     ; 0x1c <__rc26>
    3429: 85 1c        	sta	$1c                     ; 0x1c <__rc26>
    342b: a9 00        	lda	#$0
    342d: e5 1d        	sbc	$1d                     ; 0x1d <__rc27>
    342f: 85 1d        	sta	$1d                     ; 0x1d <__rc27>
    3431: a9 00        	lda	#$0
    3433: e5 1e        	sbc	$1e                     ; 0x1e <__rc28>
    3435: 85 1e        	sta	$1e                     ; 0x1e <__rc28>
    3437: a9 00        	lda	#$0
    3439: e5 1f        	sbc	$1f                     ; 0x1f <__rc29>
    343b: 85 1f        	sta	$1f                     ; 0x1f <__rc29>
    343d: a0 08        	ldy	#$8
    343f: b1 02        	lda	($2),y                  ; 0x2 <__rc0>
    3441: 85 0d        	sta	$d                      ; 0xd <__rc11>
    3443: a0 00        	ldy	#$0
    3445: 8a           	txa
    3446: 91 14        	sta	($14),y                 ; 0x14 <__rc18>
    3448: c8           	iny
    3449: a5 11        	lda	$11                     ; 0x11 <__rc15>
    344b: 91 14        	sta	($14),y                 ; 0x14 <__rc18>
    344d: c8           	iny
    344e: a5 16        	lda	$16                     ; 0x16 <__rc20>
    3450: 91 14        	sta	($14),y                 ; 0x14 <__rc18>
    3452: c8           	iny
    3453: a5 10        	lda	$10                     ; 0x10 <__rc14>
    3455: 91 14        	sta	($14),y                 ; 0x14 <__rc18>
    3457: c8           	iny
    3458: a5 1c        	lda	$1c                     ; 0x1c <__rc26>
    345a: 91 14        	sta	($14),y                 ; 0x14 <__rc18>
    345c: c8           	iny
    345d: a5 1d        	lda	$1d                     ; 0x1d <__rc27>
    345f: 91 14        	sta	($14),y                 ; 0x14 <__rc18>
    3461: c8           	iny
    3462: a5 1e        	lda	$1e                     ; 0x1e <__rc28>
    3464: 91 14        	sta	($14),y                 ; 0x14 <__rc18>
    3466: c8           	iny
    3467: a5 1f        	lda	$1f                     ; 0x1f <__rc29>
    3469: 91 14        	sta	($14),y                 ; 0x14 <__rc18>
    346b: 06 0d        	asl	$d                      ; 0xd <__rc11>
    346d: a9 00        	lda	#$0
    346f: 2a           	rol
    3470: 85 0d        	sta	$d                      ; 0xd <__rc11>
    3472: a9 00        	lda	#$0
    3474: 2a           	rol
    3475: 06 09        	asl	$9                      ; 0x9 <__rc7>
    3477: 85 09        	sta	$9                      ; 0x9 <__rc7>
    3479: a9 00        	lda	#$0
    347b: 2a           	rol
    347c: 85 0e        	sta	$e                      ; 0xe <__rc12>
    347e: a9 00        	lda	#$0
    3480: 2a           	rol
    3481: c5 09        	cmp	$9                      ; 0x9 <__rc7>
    3483: d0 0d        	bne	$3492 <__divmoddi4+0x828>
    3485: a6 0e        	ldx	$e                      ; 0xe <__rc12>
    3487: e4 0d        	cpx	$d                      ; 0xd <__rc11>
    3489: d0 07        	bne	$3492 <__divmoddi4+0x828>
    348b: a4 0c        	ldy	$c                      ; 0xc <__rc10>
    348d: a6 0b        	ldx	$b                      ; 0xb <__rc9>
    348f: 4c c1 34     	jmp	$34c1 <__divmoddi4+0x857>
    3492: 38           	sec
    3493: a9 00        	lda	#$0
    3495: e5 0c        	sbc	$c                      ; 0xc <__rc10>
    3497: a8           	tay
    3498: a9 00        	lda	#$0
    349a: e5 0b        	sbc	$b                      ; 0xb <__rc9>
    349c: aa           	tax
    349d: a9 00        	lda	#$0
    349f: e5 04        	sbc	$4                      ; 0x4 <__rc2>
    34a1: 85 04        	sta	$4                      ; 0x4 <__rc2>
    34a3: a9 00        	lda	#$0
    34a5: e5 05        	sbc	$5                      ; 0x5 <__rc3>
    34a7: 85 05        	sta	$5                      ; 0x5 <__rc3>
    34a9: a9 00        	lda	#$0
    34ab: e5 06        	sbc	$6                      ; 0x6 <__zp_data_size>
    34ad: 85 06        	sta	$6                      ; 0x6 <__zp_data_size>
    34af: a9 00        	lda	#$0
    34b1: e5 07        	sbc	$7                      ; 0x7 <__rc5>
    34b3: 85 07        	sta	$7                      ; 0x7 <__rc5>
    34b5: a9 00        	lda	#$0
    34b7: e5 1b        	sbc	$1b                     ; 0x1b <__rc25>
    34b9: 85 1b        	sta	$1b                     ; 0x1b <__rc25>
    34bb: a9 00        	lda	#$0
    34bd: e5 0a        	sbc	$a                      ; 0xa <__rc8>
    34bf: 85 0a        	sta	$a                      ; 0xa <__rc8>
    34c1: a5 1b        	lda	$1b                     ; 0x1b <__rc25>
    34c3: 85 08        	sta	$8                      ; 0x8 <__rc6>
    34c5: a5 0a        	lda	$a                      ; 0xa <__rc8>
    34c7: 85 09        	sta	$9                      ; 0x9 <__rc7>
    34c9: 98           	tya
    34ca: 85 12        	sta	$12                     ; 0x12 <__rc16>
    34cc: a0 00        	ldy	#$0
    34ce: b1 02        	lda	($2),y                  ; 0x2 <__rc0>
    34d0: 85 21        	sta	$21                     ; 0x21 <__rc31>
    34d2: c8           	iny
    34d3: b1 02        	lda	($2),y                  ; 0x2 <__rc0>
    34d5: 85 20        	sta	$20                     ; 0x20 <__rc30>
    34d7: c8           	iny
    34d8: b1 02        	lda	($2),y                  ; 0x2 <__rc0>
    34da: 85 1f        	sta	$1f                     ; 0x1f <__rc29>
    34dc: c8           	iny
    34dd: b1 02        	lda	($2),y                  ; 0x2 <__rc0>
    34df: 85 1e        	sta	$1e                     ; 0x1e <__rc28>
    34e1: c8           	iny
    34e2: b1 02        	lda	($2),y                  ; 0x2 <__rc0>
    34e4: 85 1d        	sta	$1d                     ; 0x1d <__rc27>
    34e6: c8           	iny
    34e7: b1 02        	lda	($2),y                  ; 0x2 <__rc0>
    34e9: 85 1c        	sta	$1c                     ; 0x1c <__rc26>
    34eb: c8           	iny
    34ec: b1 02        	lda	($2),y                  ; 0x2 <__rc0>
    34ee: 85 1b        	sta	$1b                     ; 0x1b <__rc25>
    34f0: c8           	iny
    34f1: b1 02        	lda	($2),y                  ; 0x2 <__rc0>
    34f3: 85 1a        	sta	$1a                     ; 0x1a <__rc24>
    34f5: 68           	pla
    34f6: 85 19        	sta	$19                     ; 0x19 <__rc23>
    34f8: 68           	pla
    34f9: 85 18        	sta	$18                     ; 0x18 <__rc22>
    34fb: 68           	pla
    34fc: 85 17        	sta	$17                     ; 0x17 <__rc21>
    34fe: 68           	pla
    34ff: 85 16        	sta	$16                     ; 0x16 <__rc20>
    3501: 18           	clc
    3502: a5 02        	lda	$2                      ; 0x2 <__rc0>
    3504: 69 1e        	adc	#$1e
    3506: 85 02        	sta	$2                      ; 0x2 <__rc0>
    3508: a5 03        	lda	$3                      ; 0x3 <__rc1>
    350a: 69 00        	adc	#$0
    350c: 85 03        	sta	$3                      ; 0x3 <__rc1>
    350e: a5 12        	lda	$12                     ; 0x12 <__rc16>
    3510: 60           	rts
    3511: a2 01        	ldx	#$1
    3513: 86 0e        	stx	$e                      ; 0xe <__rc12>
    3515: ca           	dex
    3516: 8a           	txa
    3517: a0 0c        	ldy	#$c
    3519: 91 02        	sta	($2),y                  ; 0x2 <__rc0>
    351b: 86 16        	stx	$16                     ; 0x16 <__rc20>
    351d: 86 0f        	stx	$f                      ; 0xf <__rc13>
    351f: 86 10        	stx	$10                     ; 0x10 <__rc14>
    3521: 86 1c        	stx	$1c                     ; 0x1c <__rc26>
    3523: 86 1d        	stx	$1d                     ; 0x1d <__rc27>
    3525: 86 1e        	stx	$1e                     ; 0x1e <__rc28>
    3527: 8a           	txa
    3528: 85 0b        	sta	$b                      ; 0xb <__rc9>
    352a: 85 04        	sta	$4                      ; 0x4 <__rc2>
    352c: 85 05        	sta	$5                      ; 0x5 <__rc3>
    352e: 85 06        	sta	$6                      ; 0x6 <__zp_data_size>
    3530: 85 07        	sta	$7                      ; 0x7 <__rc5>
    3532: 85 1b        	sta	$1b                     ; 0x1b <__rc25>
    3534: 85 0a        	sta	$a                      ; 0xa <__rc8>
    3536: 86 1f        	stx	$1f                     ; 0x1f <__rc29>
    3538: 4c de 33     	jmp	$33de <__divmoddi4+0x774>

0000353b <__zero_bss>:
    353b: a2 b3        	ldx	#$b3
    353d: a0 07        	ldy	#$7
    353f: a9 5c        	lda	#$5c
    3541: 85 04        	sta	$4                      ; 0x4 <__rc2>
    3543: a9 6d        	lda	#$6d
    3545: 85 05        	sta	$5                      ; 0x5 <__rc3>
    3547: a9 00        	lda	#$0
    3549: 84 06        	sty	$6                      ; 0x6 <__zp_data_size>
    354b: 4c 0d 68     	jmp	$680d <__memset>

0000354e <__zero_zp_bss>:
    354e: a2 3f        	ldx	#$3f
    3550: a0 00        	ldy	#$0
    3552: a9 28        	lda	#$28
    3554: 85 04        	sta	$4                      ; 0x4 <__rc2>
    3556: a9 00        	lda	#$0
    3558: 85 05        	sta	$5                      ; 0x5 <__rc3>
    355a: a9 00        	lda	#$0
    355c: 84 06        	sty	$6                      ; 0x6 <__zp_data_size>
    355e: 4c 0d 68     	jmp	$680d <__memset>

00003561 <__copy_zp_data>:
    3561: a9 06        	lda	#$6
    3563: a2 00        	ldx	#$0
    3565: a0 22        	ldy	#$22
    3567: 84 04        	sty	$4                      ; 0x4 <__rc2>
    3569: a0 00        	ldy	#$0
    356b: 84 05        	sty	$5                      ; 0x5 <__rc3>
    356d: a0 17        	ldy	#$17
    356f: 84 06        	sty	$6                      ; 0x6 <__zp_data_size>
    3571: a0 20        	ldy	#$20
    3573: 84 07        	sty	$7                      ; 0x7 <__rc5>
    3575: 4c e0 67     	jmp	$67e0 <memcpy>

00003578 <main>:
    3578: a2 28        	ldx	#$28
    357a: a0 47        	ldy	#$47
    357c: 8c 2f d0     	sty	$d02f                   ; 0xd02f <__heap_start+0x5b02>
    357f: a0 53        	ldy	#$53
    3581: 8c 2f d0     	sty	$d02f                   ; 0xd02f <__heap_start+0x5b02>
    3584: ad 5d d0     	lda	$d05d                   ; 0xd05d <__heap_start+0x5b30>
    3587: 29 7f        	and	#$7f
    3589: 8d 5d d0     	sta	$d05d                   ; 0xd05d <__heap_start+0x5b30>
    358c: 9c 68 d0     	stz	$d068                   ; 0xd068 <__heap_start+0x5b3b>
    358f: a0 d8        	ldy	#$d8
    3591: 8c 69 d0     	sty	$d069                   ; 0xd069 <__heap_start+0x5b3c>
    3594: a0 02        	ldy	#$2
    3596: 8c 6a d0     	sty	$d06a                   ; 0xd06a <__heap_start+0x5b3d>
    3599: ac 31 d0     	ldy	$d031                   ; 0xd031 <__heap_start+0x5b04>
    359c: 10 02        	bpl	$35a0 <main+0x28>
    359e: a2 50        	ldx	#$50
    35a0: 86 50        	stx	$50                     ; 0x50 <g_curScreenW>
    35a2: ad 31 d0     	lda	$d031                   ; 0xd031 <__heap_start+0x5b04>
    35a5: 29 08        	and	#$8
    35a7: f0 04        	beq	$35ad <main+0x35>
    35a9: a2 32        	ldx	#$32
    35ab: 80 02        	bra	$35af <main+0x37>
    35ad: a2 19        	ldx	#$19
    35af: 18           	clc
    35b0: a5 02        	lda	$2                      ; 0x2 <__rc0>
    35b2: 69 e1        	adc	#$e1
    35b4: 85 02        	sta	$2                      ; 0x2 <__rc0>
    35b6: a5 03        	lda	$3                      ; 0x3 <__rc1>
    35b8: 69 ff        	adc	#$ff
    35ba: 85 03        	sta	$3                      ; 0x3 <__rc1>
    35bc: a4 16        	ldy	$16                     ; 0x16 <__rc20>
    35be: 5a           	phy
    35bf: a4 17        	ldy	$17                     ; 0x17 <__rc21>
    35c1: 5a           	phy
    35c2: a4 18        	ldy	$18                     ; 0x18 <__rc22>
    35c4: 5a           	phy
    35c5: a4 19        	ldy	$19                     ; 0x19 <__rc23>
    35c7: 5a           	phy
    35c8: a5 1a        	lda	$1a                     ; 0x1a <__rc24>
    35ca: a0 07        	ldy	#$7
    35cc: 91 02        	sta	($2),y                  ; 0x2 <__rc0>
    35ce: a5 1b        	lda	$1b                     ; 0x1b <__rc25>
    35d0: 88           	dey
    35d1: 91 02        	sta	($2),y                  ; 0x2 <__rc0>
    35d3: a5 1c        	lda	$1c                     ; 0x1c <__rc26>
    35d5: 88           	dey
    35d6: 91 02        	sta	($2),y                  ; 0x2 <__rc0>
    35d8: a5 1d        	lda	$1d                     ; 0x1d <__rc27>
    35da: 88           	dey
    35db: 91 02        	sta	($2),y                  ; 0x2 <__rc0>
    35dd: a5 1e        	lda	$1e                     ; 0x1e <__rc28>
    35df: 88           	dey
    35e0: 91 02        	sta	($2),y                  ; 0x2 <__rc0>
    35e2: a5 1f        	lda	$1f                     ; 0x1f <__rc29>
    35e4: 88           	dey
    35e5: 91 02        	sta	($2),y                  ; 0x2 <__rc0>
    35e7: a5 20        	lda	$20                     ; 0x20 <__rc30>
    35e9: 88           	dey
    35ea: 91 02        	sta	($2),y                  ; 0x2 <__rc0>
    35ec: a5 21        	lda	$21                     ; 0x21 <__rc31>
    35ee: 88           	dey
    35ef: 91 02        	sta	($2),y                  ; 0x2 <__rc0>
    35f1: 8e 11 72     	stx	$7211                   ; 0x7211 <g_curScreenH>
    35f4: 80 03        	bra	$35f9 <main+0x81>
    35f6: 9c 10 d6     	stz	$d610                   ; 0xd610 <__heap_start+0x60e3>
    35f9: ae 10 d6     	ldx	$d610                   ; 0xd610 <__heap_start+0x60e3>
    35fc: d0 f8        	bne	$35f6 <main+0x7e>
    35fe: a2 ff        	ldx	#$ff
    3600: a0 12        	ldy	#$12
    3602: 84 04        	sty	$4                      ; 0x4 <__rc2>
    3604: a0 72        	ldy	#$72
    3606: 84 05        	sty	$5                      ; 0x5 <__rc3>
    3608: a0 01        	ldy	#$1
    360a: 80 28        	bra	$3634 <main+0xbc>
    360c: a5 04        	lda	$4                      ; 0x4 <__rc2>
    360e: 85 06        	sta	$6                      ; 0x6 <__zp_data_size>
    3610: a5 05        	lda	$5                      ; 0x5 <__rc3>
    3612: 85 07        	sta	$7                      ; 0x7 <__rc5>
    3614: a9 9c        	lda	#$9c
    3616: 91 04        	sta	($4),y                  ; 0x4 <__rc2>
    3618: a9 00        	lda	#$0
    361a: 92 04        	sta	($4),z                  ; 0x4 <__rc2>
    361c: a5 04        	lda	$4                      ; 0x4 <__rc2>
    361e: 18           	clc
    361f: 69 03        	adc	#$3
    3621: 85 04        	sta	$4                      ; 0x4 <__rc2>
    3623: a5 05        	lda	$5                      ; 0x5 <__rc3>
    3625: 69 00        	adc	#$0
    3627: 85 05        	sta	$5                      ; 0x5 <__rc3>
    3629: e6 06        	inc	$6                      ; 0x6 <__zp_data_size>
    362b: d0 02        	bne	$362f <main+0xb7>
    362d: e6 07        	inc	$7                      ; 0x7 <__rc5>
    362f: a9 61        	lda	#$61
    3631: 91 06        	sta	($6),y                  ; 0x6 <__zp_data_size>
    3633: ca           	dex
    3634: 8a           	txa
    3635: d0 d5        	bne	$360c <main+0x94>
    3637: a9 f0        	lda	#$f0
    3639: 25 27        	and	$27                     ; 0x27 <g_curTextColor>
    363b: 09 03        	ora	#$3
    363d: 85 27        	sta	$27                     ; 0x27 <g_curTextColor>
    363f: 9c 20 d0     	stz	$d020                   ; 0xd020 <__heap_start+0x5af3>
    3642: a2 06        	ldx	#$6
    3644: 8e 21 d0     	stx	$d021                   ; 0xd021 <__heap_start+0x5af4>
    3647: ad 31 d0     	lda	$d031                   ; 0xd031 <__heap_start+0x5b04>
    364a: 09 80        	ora	#$80
    364c: 8d 31 d0     	sta	$d031                   ; 0xd031 <__heap_start+0x5b04>
    364f: a2 50        	ldx	#$50
    3651: 8e 4c d0     	stx	$d04c                   ; 0xd04c <__heap_start+0x5b1f>
    3654: ad 31 d0     	lda	$d031                   ; 0xd031 <__heap_start+0x5b04>
    3657: 29 f7        	and	#$f7
    3659: 8d 31 d0     	sta	$d031                   ; 0xd031 <__heap_start+0x5b04>
    365c: 86 50        	stx	$50                     ; 0x50 <g_curScreenW>
    365e: a2 19        	ldx	#$19
    3660: 8e 11 72     	stx	$7211                   ; 0x7211 <g_curScreenH>
    3663: 20 e2 57     	jsr	$57e2 <clrhome>
    3666: a2 16        	ldx	#$16
    3668: a0 75        	ldy	#$75
    366a: 84 04        	sty	$4                      ; 0x4 <__rc2>
    366c: a0 68        	ldy	#$68
    366e: 84 05        	sty	$5                      ; 0x5 <__rc3>
    3670: a9 00        	lda	#$0
    3672: 20 f4 58     	jsr	$58f4 <mcputsxy>
    3675: a2 ea        	ldx	#$ea
    3677: 86 04        	stx	$4                      ; 0x4 <__rc2>
    3679: a2 6b        	ldx	#$6b
    367b: 86 05        	stx	$5                      ; 0x5 <__rc3>
    367d: 20 41 58     	jsr	$5841 <msprintf>
    3680: a2 17        	ldx	#$17
    3682: a0 50        	ldy	#$50
    3684: 84 04        	sty	$4                      ; 0x4 <__rc2>
    3686: a0 6b        	ldy	#$6b
    3688: 84 05        	sty	$5                      ; 0x5 <__rc3>
    368a: a9 00        	lda	#$0
    368c: 20 f4 58     	jsr	$58f4 <mcputsxy>
    368f: a9 10        	lda	#$10
    3691: 20 9f 5c     	jsr	$5c9f <shortcuts>
    3694: a9 01        	lda	#$1
    3696: a2 84        	ldx	#$84
    3698: 86 04        	stx	$4                      ; 0x4 <__rc2>
    369a: a2 6c        	ldx	#$6c
    369c: 86 05        	stx	$5                      ; 0x5 <__rc3>
    369e: a2 44        	ldx	#$44
    36a0: 86 06        	stx	$6                      ; 0x6 <__zp_data_size>
    36a2: a2 6c        	ldx	#$6c
    36a4: 86 07        	stx	$7                      ; 0x7 <__rc5>
    36a6: a2 0a        	ldx	#$a
    36a8: 86 08        	stx	$8                      ; 0x8 <__rc6>
    36aa: a2 6a        	ldx	#$6a
    36ac: 86 09        	stx	$9                      ; 0x9 <__rc7>
    36ae: 20 99 5a     	jsr	$5a99 <messagebox>
    36b1: aa           	tax
    36b2: d0 03        	bne	$36b7 <main+0x13f>
    36b4: 4c 9e 4a     	jmp	$4a9e <donehypclosedir7+0x639>
    36b7: a2 28        	ldx	#$28
    36b9: 8a           	txa
    36ba: a0 17        	ldy	#$17
    36bc: 91 02        	sta	($2),y                  ; 0x2 <__rc0>
    36be: 64 18        	stz	$18                     ; 0x18 <__rc22>
    36c0: 64 06        	stz	$6                      ; 0x6 <__zp_data_size>
    36c2: 4c 2b 37     	jmp	$372b <main+0x1b3>
    36c5: a6 18        	ldx	$18                     ; 0x18 <__rc22>
    36c7: bd e5 6c     	lda	$6ce5,x                 ; 0x6ce5 <midnight>
    36ca: 85 16        	sta	$16                     ; 0x16 <__rc20>
    36cc: 18           	clc
    36cd: 69 03        	adc	#$3
    36cf: 85 04        	sta	$4                      ; 0x4 <__rc2>
    36d1: bd e6 6c     	lda	$6ce6,x                 ; 0x6ce6 <midnight+0x1>
    36d4: 85 17        	sta	$17                     ; 0x17 <__rc21>
    36d6: 69 00        	adc	#$0
    36d8: 85 05        	sta	$5                      ; 0x5 <__rc3>
    36da: a5 06        	lda	$6                      ; 0x6 <__zp_data_size>
    36dc: 92 16        	sta	($16),z                 ; 0x16 <__rc20>
    36de: 85 19        	sta	$19                     ; 0x19 <__rc23>
    36e0: a2 fa        	ldx	#$fa
    36e2: 86 06        	stx	$6                      ; 0x6 <__zp_data_size>
    36e4: a2 69        	ldx	#$69
    36e6: 86 07        	stx	$7                      ; 0x7 <__rc5>
    36e8: a2 00        	ldx	#$0
    36ea: a9 10        	lda	#$10
    36ec: 20 e0 67     	jsr	$67e0 <memcpy>
    36ef: a0 01        	ldy	#$1
    36f1: a9 00        	lda	#$0
    36f3: 91 16        	sta	($16),y                 ; 0x16 <__rc20>
    36f5: a2 c8        	ldx	#$c8
    36f7: 86 04        	stx	$4                      ; 0x4 <__rc2>
    36f9: a2 69        	ldx	#$69
    36fb: 86 05        	stx	$5                      ; 0x5 <__rc3>
    36fd: a2 0d        	ldx	#$d
    36ff: 86 06        	stx	$6                      ; 0x6 <__zp_data_size>
    3701: a2 69        	ldx	#$69
    3703: 86 07        	stx	$7                      ; 0x7 <__rc5>
    3705: a0 17        	ldy	#$17
    3707: b1 02        	lda	($2),y                  ; 0x2 <__rc0>
    3709: 85 1a        	sta	$1a                     ; 0x1a <__rc24>
    370b: 20 a4 5b     	jsr	$5ba4 <progress>
    370e: b2 16        	lda	($16),z                 ; 0x16 <__rc20>
    3710: a6 19        	ldx	$19                     ; 0x19 <__rc23>
    3712: 20 1e 60     	jsr	$601e <UpdateSectors>
    3715: a5 18        	lda	$18                     ; 0x18 <__rc22>
    3717: e6 19        	inc	$19                     ; 0x19 <__rc23>
    3719: a6 19        	ldx	$19                     ; 0x19 <__rc23>
    371b: 86 06        	stx	$6                      ; 0x6 <__zp_data_size>
    371d: 18           	clc
    371e: 69 02        	adc	#$2
    3720: 85 18        	sta	$18                     ; 0x18 <__rc22>
    3722: 18           	clc
    3723: a5 1a        	lda	$1a                     ; 0x1a <__rc24>
    3725: 69 28        	adc	#$28
    3727: a0 17        	ldy	#$17
    3729: 91 02        	sta	($2),y                  ; 0x2 <__rc0>
    372b: a6 06        	ldx	$6                      ; 0x6 <__zp_data_size>
    372d: e0 02        	cpx	#$2
    372f: f0 03        	beq	$3734 <main+0x1bc>
    3731: 4c c5 36     	jmp	$36c5 <main+0x14d>
    3734: 64 04        	stz	$4                      ; 0x4 <__rc2>
    3736: a9 00        	lda	#$0
    3738: a0 14        	ldy	#$14
    373a: 91 02        	sta	($2),y                  ; 0x2 <__rc0>
    373c: a0 1c        	ldy	#$1c
    373e: 8c 5c 6d     	sty	$6d5c                   ; 0x6d5c <fnamehi>
    3741: a2 00        	ldx	#$0
    3743: a9 48        	lda	#$48
    3745: 8d 40 d6     	sta	$d640                   ; 0xd640 <__heap_start+0x6113>
    3748: b8           	clv
    3749: 90 05        	bcc	$3750 <errgetproc0>
    374b: 85 08        	sta	$8                      ; 0x8 <__rc6>
    374d: 4c 54 37     	jmp	$3754 <donegetproc0>

00003750 <errgetproc0>:
    3750: a9 ff        	lda	#$ff
    3752: 85 08        	sta	$8                      ; 0x8 <__rc6>

00003754 <donegetproc0>:
    3754: ea           	nop
    3755: a2 2f        	ldx	#$2f
    3757: 86 04        	stx	$4                      ; 0x4 <__rc2>
    3759: a2 6c        	ldx	#$6c
    375b: 86 05        	stx	$5                      ; 0x5 <__rc3>
    375d: 64 06        	stz	$6                      ; 0x6 <__zp_data_size>
    375f: 64 07        	stz	$7                      ; 0x7 <__rc5>
    3761: a2 00        	ldx	#$0
    3763: a5 08        	lda	$8                      ; 0x8 <__rc6>
    3765: 20 4f 58     	jsr	$584f <mprintf>
    3768: 64 04        	stz	$4                      ; 0x4 <__rc2>
    376a: a9 00        	lda	#$0
    376c: a0 15        	ldy	#$15
    376e: 91 02        	sta	($2),y                  ; 0x2 <__rc0>
    3770: 64 20        	stz	$20                     ; 0x20 <__rc30>
    3772: 64 1e        	stz	$1e                     ; 0x1e <__rc28>
    3774: 4c 03 39     	jmp	$3903 <donegetproc0+0x1af>
    3777: 85 06        	sta	$6                      ; 0x6 <__zp_data_size>
    3779: a9 01        	lda	#$1
    377b: a0 20        	ldy	#$20
    377d: 29 01        	and	#$1
    377f: d0 02        	bne	$3783 <donegetproc0+0x2f>
    3781: a0 3e        	ldy	#$3e
    3783: a2 00        	ldx	#$0
    3785: 84 28        	sty	$28                     ; 0x28 <s>
    3787: a0 20        	ldy	#$20
    3789: 84 29        	sty	$29                     ; 0x29 <s+0x1>
    378b: a0 05        	ldy	#$5
    378d: 80 04        	bra	$3793 <donegetproc0+0x3f>
    378f: 9d 2a 00     	sta	$2a,x                   ; 0x2a <s+0x2>
    3792: e8           	inx
    3793: 8a           	txa
    3794: 18           	clc
    3795: 65 16        	adc	$16                     ; 0x16 <__rc20>
    3797: 85 04        	sta	$4                      ; 0x4 <__rc2>
    3799: a5 17        	lda	$17                     ; 0x17 <__rc21>
    379b: 69 00        	adc	#$0
    379d: 85 05        	sta	$5                      ; 0x5 <__rc3>
    379f: b1 04        	lda	($4),y                  ; 0x4 <__rc2>
    37a1: c9 a0        	cmp	#$a0
    37a3: f0 04        	beq	$37a9 <donegetproc0+0x55>
    37a5: e0 10        	cpx	#$10
    37a7: 90 e6        	bcc	$378f <donegetproc0+0x3b>
    37a9: a9 20        	lda	#$20
    37ab: 80 04        	bra	$37b1 <donegetproc0+0x5d>
    37ad: 9d 2a 00     	sta	$2a,x                   ; 0x2a <s+0x2>
    37b0: e8           	inx
    37b1: e0 10        	cpx	#$10
    37b3: d0 f8        	bne	$37ad <donegetproc0+0x59>
    37b5: 85 3a        	sta	$3a                     ; 0x3a <s+0x12>
    37b7: a2 5d        	ldx	#$5d
    37b9: 86 3b        	stx	$3b                     ; 0x3b <s+0x13>
    37bb: 85 3c        	sta	$3c                     ; 0x3c <s+0x14>
    37bd: a9 0f        	lda	#$f
    37bf: a0 02        	ldy	#$2
    37c1: 31 16        	and	($16),y                 ; 0x16 <__rc20>
    37c3: aa           	tax
    37c4: 64 04        	stz	$4                      ; 0x4 <__rc2>
    37c6: a8           	tay
    37c7: 3a           	dec
    37c8: c0 00        	cpy	#$0
    37ca: d0 02        	bne	$37ce <donegetproc0+0x7a>
    37cc: c6 04        	dec	$4                      ; 0x4 <__rc2>
    37ce: a4 04        	ldy	$4                      ; 0x4 <__rc2>
    37d0: d0 06        	bne	$37d8 <donegetproc0+0x84>
    37d2: 86 04        	stx	$4                      ; 0x4 <__rc2>
    37d4: c9 05        	cmp	#$5
    37d6: 80 06        	bra	$37de <donegetproc0+0x8a>
    37d8: a5 04        	lda	$4                      ; 0x4 <__rc2>
    37da: 86 04        	stx	$4                      ; 0x4 <__rc2>
    37dc: c9 00        	cmp	#$0
    37de: a9 44        	lda	#$44
    37e0: a0 45        	ldy	#$45
    37e2: a2 4c        	ldx	#$4c
    37e4: b0 0e        	bcs	$37f4 <donegetproc0+0xa0>
    37e6: a6 04        	ldx	$4                      ; 0x4 <__rc2>
    37e8: bd 3c 6d     	lda	$6d3c,x                 ; 0x6d3c <midnight+0x57>
    37eb: bc 41 6d     	ldy	$6d41,x                 ; 0x6d41 <midnight+0x5c>
    37ee: 48           	pha
    37ef: bd 46 6d     	lda	$6d46,x                 ; 0x6d46 <midnight+0x61>
    37f2: aa           	tax
    37f3: 68           	pla
    37f4: 85 3d        	sta	$3d                     ; 0x3d <s+0x15>
    37f6: 84 3e        	sty	$3e                     ; 0x3e <s+0x16>
    37f8: 86 3f        	stx	$3f                     ; 0x3f <s+0x17>
    37fa: a0 20        	ldy	#$20
    37fc: 84 40        	sty	$40                     ; 0x40 <s+0x18>
    37fe: a2 5d        	ldx	#$5d
    3800: 86 41        	stx	$41                     ; 0x41 <s+0x19>
    3802: 84 42        	sty	$42                     ; 0x42 <s+0x1a>
    3804: 64 43        	stz	$43                     ; 0x43 <s+0x1b>
    3806: a5 27        	lda	$27                     ; 0x27 <g_curTextColor>
    3808: a4 06        	ldy	$6                      ; 0x6 <__zp_data_size>
    380a: d0 17        	bne	$3823 <donegetproc0+0xcf>
    380c: a6 21        	ldx	$21                     ; 0x21 <__rc31>
    380e: e4 19        	cpx	$19                     ; 0x19 <__rc23>
    3810: d0 11        	bne	$3823 <donegetproc0+0xcf>
    3812: 48           	pha
    3813: 5a           	phy
    3814: a0 14        	ldy	#$14
    3816: b1 02        	lda	($2),y                  ; 0x2 <__rc0>
    3818: 7a           	ply
    3819: aa           	tax
    381a: 68           	pla
    381b: e4 20        	cpx	$20                     ; 0x20 <__rc30>
    381d: d0 04        	bne	$3823 <donegetproc0+0xcf>
    381f: 09 20        	ora	#$20
    3821: 80 02        	bra	$3825 <donegetproc0+0xd1>
    3823: 29 df        	and	#$df
    3825: c0 00        	cpy	#$0
    3827: d0 08        	bne	$3831 <donegetproc0+0xdd>
    3829: a2 01        	ldx	#$1
    382b: a4 21        	ldy	$21                     ; 0x21 <__rc31>
    382d: c4 19        	cpy	$19                     ; 0x19 <__rc23>
    382f: f0 02        	beq	$3833 <donegetproc0+0xdf>
    3831: a2 00        	ldx	#$0
    3833: a0 01        	ldy	#$1
    3835: 64 04        	stz	$4                      ; 0x4 <__rc2>
    3837: e0 00        	cpx	#$0
    3839: d0 02        	bne	$383d <donegetproc0+0xe9>
    383b: 84 04        	sty	$4                      ; 0x4 <__rc2>
    383d: 85 27        	sta	$27                     ; 0x27 <g_curTextColor>
    383f: a5 04        	lda	$4                      ; 0x4 <__rc2>
    3841: 29 01        	and	#$1
    3843: 85 21        	sta	$21                     ; 0x21 <__rc31>
    3845: a6 18        	ldx	$18                     ; 0x18 <__rc22>
    3847: e8           	inx
    3848: a0 28        	ldy	#$28
    384a: 84 04        	sty	$4                      ; 0x4 <__rc2>
    384c: a0 00        	ldy	#$0
    384e: 84 05        	sty	$5                      ; 0x5 <__rc3>
    3850: a5 1f        	lda	$1f                     ; 0x1f <__rc29>
    3852: 20 da 62     	jsr	$62da <cputsxy>
    3855: a5 16        	lda	$16                     ; 0x16 <__rc20>
    3857: 18           	clc
    3858: 69 1e        	adc	#$1e
    385a: 85 04        	sta	$4                      ; 0x4 <__rc2>
    385c: a5 17        	lda	$17                     ; 0x17 <__rc21>
    385e: 69 00        	adc	#$0
    3860: 85 05        	sta	$5                      ; 0x5 <__rc3>
    3862: a0 01        	ldy	#$1
    3864: b1 04        	lda	($4),y                  ; 0x4 <__rc2>
    3866: 85 07        	sta	$7                      ; 0x7 <__rc5>
    3868: a0 1e        	ldy	#$1e
    386a: b1 16        	lda	($16),y                 ; 0x16 <__rc20>
    386c: 64 04        	stz	$4                      ; 0x4 <__rc2>
    386e: 64 05        	stz	$5                      ; 0x5 <__rc3>
    3870: a2 05        	ldx	#$5
    3872: 86 06        	stx	$6                      ; 0x6 <__zp_data_size>
    3874: a6 07        	ldx	$7                      ; 0x7 <__rc5>
    3876: 20 de 56     	jsr	$56de <csputdec>
    3879: a9 20        	lda	#$20
    387b: 20 b1 61     	jsr	$61b1 <cputc>
    387e: a9 20        	lda	#$20
    3880: a6 21        	ldx	$21                     ; 0x21 <__rc31>
    3882: d0 02        	bne	$3886 <donegetproc0+0x132>
    3884: a9 3c        	lda	#$3c
    3886: 20 b1 61     	jsr	$61b1 <cputc>
    3889: e6 18        	inc	$18                     ; 0x18 <__rc22>
    388b: d0 02        	bne	$388f <donegetproc0+0x13b>
    388d: e6 1c        	inc	$1c                     ; 0x1c <__rc26>
    388f: a6 18        	ldx	$18                     ; 0x18 <__rc22>
    3891: a5 1c        	lda	$1c                     ; 0x1c <__rc26>
    3893: d0 04        	bne	$3899 <donegetproc0+0x145>
    3895: e0 16        	cpx	#$16
    3897: f0 4f        	beq	$38e8 <donegetproc0+0x194>
    3899: 86 18        	stx	$18                     ; 0x18 <__rc22>
    389b: 8a           	txa
    389c: 18           	clc
    389d: 65 1a        	adc	$1a                     ; 0x1a <__rc24>
    389f: a2 01        	ldx	#$1
    38a1: b0 02        	bcs	$38a5 <donegetproc0+0x151>
    38a3: a2 00        	ldx	#$0
    38a5: 86 1d        	stx	$1d                     ; 0x1d <__rc27>
    38a7: 85 21        	sta	$21                     ; 0x21 <__rc31>
    38a9: aa           	tax
    38aa: a5 20        	lda	$20                     ; 0x20 <__rc30>
    38ac: 20 5f 54     	jsr	$545f <getdirententry>
    38af: a6 04        	ldx	$4                      ; 0x4 <__rc2>
    38b1: 86 16        	stx	$16                     ; 0x16 <__rc20>
    38b3: a6 05        	ldx	$5                      ; 0x5 <__rc3>
    38b5: 86 17        	stx	$17                     ; 0x17 <__rc21>
    38b7: a6 17        	ldx	$17                     ; 0x17 <__rc21>
    38b9: a0 00        	ldy	#$0
    38bb: 84 04        	sty	$4                      ; 0x4 <__rc2>
    38bd: a0 00        	ldy	#$0
    38bf: 84 05        	sty	$5                      ; 0x5 <__rc3>
    38c1: e4 05        	cpx	$5                      ; 0x5 <__rc3>
    38c3: d0 06        	bne	$38cb <donegetproc0+0x177>
    38c5: a6 16        	ldx	$16                     ; 0x16 <__rc20>
    38c7: e4 04        	cpx	$4                      ; 0x4 <__rc2>
    38c9: f0 1d        	beq	$38e8 <donegetproc0+0x194>
    38cb: a5 1c        	lda	$1c                     ; 0x1c <__rc26>
    38cd: a6 1d        	ldx	$1d                     ; 0x1d <__rc27>
    38cf: e0 01        	cpx	#$1
    38d1: 65 1b        	adc	$1b                     ; 0x1b <__rc25>
    38d3: f0 03        	beq	$38d8 <donegetproc0+0x184>
    38d5: 4c 77 37     	jmp	$3777 <donegetproc0+0x23>
    38d8: a6 21        	ldx	$21                     ; 0x21 <__rc31>
    38da: e4 19        	cpx	$19                     ; 0x19 <__rc23>
    38dc: f0 03        	beq	$38e1 <donegetproc0+0x18d>
    38de: 4c 77 37     	jmp	$3777 <donegetproc0+0x23>
    38e1: 85 06        	sta	$6                      ; 0x6 <__zp_data_size>
    38e3: a9 00        	lda	#$0
    38e5: 4c 7b 37     	jmp	$377b <donegetproc0+0x27>
    38e8: a9 df        	lda	#$df
    38ea: 25 27        	and	$27                     ; 0x27 <g_curTextColor>
    38ec: 85 27        	sta	$27                     ; 0x27 <g_curTextColor>
    38ee: 20 ba 55     	jsr	$55ba <cputln>
    38f1: e6 20        	inc	$20                     ; 0x20 <__rc30>
    38f3: 18           	clc
    38f4: a5 1e        	lda	$1e                     ; 0x1e <__rc28>
    38f6: 69 02        	adc	#$2
    38f8: 85 1e        	sta	$1e                     ; 0x1e <__rc28>
    38fa: 18           	clc
    38fb: a0 15        	ldy	#$15
    38fd: b1 02        	lda	($2),y                  ; 0x2 <__rc0>
    38ff: 69 11        	adc	#$11
    3901: 91 02        	sta	($2),y                  ; 0x2 <__rc0>
    3903: a6 20        	ldx	$20                     ; 0x20 <__rc30>
    3905: e0 02        	cpx	#$2
    3907: d0 03        	bne	$390c <donegetproc0+0x1b8>
    3909: 4c 6f 3b     	jmp	$3b6f <donegetproc0+0x41b>
    390c: a6 1e        	ldx	$1e                     ; 0x1e <__rc28>
    390e: bc e5 6c     	ldy	$6ce5,x                 ; 0x6ce5 <midnight>
    3911: 84 18        	sty	$18                     ; 0x18 <__rc22>
    3913: 84 16        	sty	$16                     ; 0x16 <__rc20>
    3915: bd e6 6c     	lda	$6ce6,x                 ; 0x6ce6 <midnight+0x1>
    3918: aa           	tax
    3919: 86 1a        	stx	$1a                     ; 0x1a <__rc24>
    391b: 86 17        	stx	$17                     ; 0x17 <__rc21>
    391d: a0 02        	ldy	#$2
    391f: b1 16        	lda	($16),y                 ; 0x16 <__rc20>
    3921: 88           	dey
    3922: d1 16        	cmp	($16),y                 ; 0x16 <__rc20>
    3924: b0 02        	bcs	$3928 <donegetproc0+0x1d4>
    3926: 91 16        	sta	($16),y                 ; 0x16 <__rc20>
    3928: a2 28        	ldx	#$28
    392a: a5 20        	lda	$20                     ; 0x20 <__rc30>
    392c: 20 c7 65     	jsr	$65c7 <__mulqi3>
    392f: 85 19        	sta	$19                     ; 0x19 <__rc23>
    3931: 18           	clc
    3932: 69 27        	adc	#$27
    3934: 85 04        	sta	$4                      ; 0x4 <__rc2>
    3936: a2 17        	ldx	#$17
    3938: 86 05        	stx	$5                      ; 0x5 <__rc3>
    393a: 64 06        	stz	$6                      ; 0x6 <__zp_data_size>
    393c: a2 00        	ldx	#$0
    393e: a5 19        	lda	$19                     ; 0x19 <__rc23>
    3940: 20 0a 59     	jsr	$590a <mcbox>
    3943: a9 20        	lda	#$20
    3945: 05 27        	ora	$27                     ; 0x27 <g_curTextColor>
    3947: 85 27        	sta	$27                     ; 0x27 <g_curTextColor>
    3949: a5 19        	lda	$19                     ; 0x19 <__rc23>
    394b: 09 02        	ora	#$2
    394d: 85 1b        	sta	$1b                     ; 0x1b <__rc25>
    394f: a2 ac        	ldx	#$ac
    3951: 86 04        	stx	$4                      ; 0x4 <__rc2>
    3953: a2 68        	ldx	#$68
    3955: 86 05        	stx	$5                      ; 0x5 <__rc3>
    3957: 48           	pha
    3958: a5 04        	lda	$4                      ; 0x4 <__rc2>
    395a: a0 17        	ldy	#$17
    395c: 91 02        	sta	($2),y                  ; 0x2 <__rc0>
    395e: a5 05        	lda	$5                      ; 0x5 <__rc3>
    3960: c8           	iny
    3961: 91 02        	sta	($2),y                  ; 0x2 <__rc0>
    3963: 88           	dey
    3964: b1 02        	lda	($2),y                  ; 0x2 <__rc0>
    3966: 85 04        	sta	$4                      ; 0x4 <__rc2>
    3968: c8           	iny
    3969: b1 02        	lda	($2),y                  ; 0x2 <__rc0>
    396b: 85 05        	sta	$5                      ; 0x5 <__rc3>
    396d: 68           	pla
    396e: a2 00        	ldx	#$0
    3970: 20 f4 58     	jsr	$58f4 <mcputsxy>
    3973: a0 15        	ldy	#$15
    3975: b1 02        	lda	($2),y                  ; 0x2 <__rc0>
    3977: 85 04        	sta	$4                      ; 0x4 <__rc2>
    3979: a9 ef        	lda	#$ef
    397b: 18           	clc
    397c: 65 04        	adc	$4                      ; 0x4 <__rc2>
    397e: 85 04        	sta	$4                      ; 0x4 <__rc2>
    3980: a9 71        	lda	#$71
    3982: 69 00        	adc	#$0
    3984: 85 05        	sta	$5                      ; 0x5 <__rc3>
    3986: 20 41 58     	jsr	$5841 <msprintf>
    3989: a9 20        	lda	#$20
    398b: 20 b1 61     	jsr	$61b1 <cputc>
    398e: a5 51        	lda	$51                     ; 0x51 <g_curX>
    3990: 1a           	inc
    3991: 48           	pha
    3992: a0 17        	ldy	#$17
    3994: b1 02        	lda	($2),y                  ; 0x2 <__rc0>
    3996: 85 04        	sta	$4                      ; 0x4 <__rc2>
    3998: c8           	iny
    3999: b1 02        	lda	($2),y                  ; 0x2 <__rc0>
    399b: 85 05        	sta	$5                      ; 0x5 <__rc3>
    399d: 68           	pla
    399e: a2 00        	ldx	#$0
    39a0: 20 f4 58     	jsr	$58f4 <mcputsxy>
    39a3: 18           	clc
    39a4: a5 18        	lda	$18                     ; 0x18 <__rc22>
    39a6: 69 03        	adc	#$3
    39a8: 85 04        	sta	$4                      ; 0x4 <__rc2>
    39aa: a5 1a        	lda	$1a                     ; 0x1a <__rc24>
    39ac: 69 00        	adc	#$0
    39ae: 85 05        	sta	$5                      ; 0x5 <__rc3>
    39b0: 20 41 58     	jsr	$5841 <msprintf>
    39b3: a9 20        	lda	#$20
    39b5: 20 b1 61     	jsr	$61b1 <cputc>
    39b8: a2 c2        	ldx	#$c2
    39ba: 86 04        	stx	$4                      ; 0x4 <__rc2>
    39bc: a2 6a        	ldx	#$6a
    39be: 86 05        	stx	$5                      ; 0x5 <__rc3>
    39c0: a2 17        	ldx	#$17
    39c2: a5 1b        	lda	$1b                     ; 0x1b <__rc25>
    39c4: 20 f4 58     	jsr	$58f4 <mcputsxy>
    39c7: b2 16        	lda	($16),z                 ; 0x16 <__rc20>
    39c9: 64 04        	stz	$4                      ; 0x4 <__rc2>
    39cb: 64 05        	stz	$5                      ; 0x5 <__rc3>
    39cd: 64 06        	stz	$6                      ; 0x6 <__zp_data_size>
    39cf: a2 00        	ldx	#$0
    39d1: 20 de 56     	jsr	$56de <csputdec>
    39d4: a9 20        	lda	#$20
    39d6: 20 b1 61     	jsr	$61b1 <cputc>
    39d9: 18           	clc
    39da: a6 19        	ldx	$19                     ; 0x19 <__rc23>
    39dc: 86 1c        	stx	$1c                     ; 0x1c <__rc26>
    39de: a5 19        	lda	$19                     ; 0x19 <__rc23>
    39e0: 69 0c        	adc	#$c
    39e2: 48           	pha
    39e3: a0 17        	ldy	#$17
    39e5: b1 02        	lda	($2),y                  ; 0x2 <__rc0>
    39e7: 85 04        	sta	$4                      ; 0x4 <__rc2>
    39e9: c8           	iny
    39ea: b1 02        	lda	($2),y                  ; 0x2 <__rc0>
    39ec: 85 05        	sta	$5                      ; 0x5 <__rc3>
    39ee: 68           	pla
    39ef: a2 17        	ldx	#$17
    39f1: 20 f4 58     	jsr	$58f4 <mcputsxy>
    39f4: 18           	clc
    39f5: a5 18        	lda	$18                     ; 0x18 <__rc22>
    39f7: 69 44        	adc	#$44
    39f9: 85 04        	sta	$4                      ; 0x4 <__rc2>
    39fb: a5 1a        	lda	$1a                     ; 0x1a <__rc24>
    39fd: 69 00        	adc	#$0
    39ff: 85 05        	sta	$5                      ; 0x5 <__rc3>
    3a01: a0 44        	ldy	#$44
    3a03: b1 16        	lda	($16),y                 ; 0x16 <__rc20>
    3a05: 85 07        	sta	$7                      ; 0x7 <__rc5>
    3a07: a0 01        	ldy	#$1
    3a09: b1 04        	lda	($4),y                  ; 0x4 <__rc2>
    3a0b: 64 04        	stz	$4                      ; 0x4 <__rc2>
    3a0d: 64 05        	stz	$5                      ; 0x5 <__rc3>
    3a0f: 64 06        	stz	$6                      ; 0x6 <__zp_data_size>
    3a11: aa           	tax
    3a12: a5 07        	lda	$7                      ; 0x7 <__rc5>
    3a14: 20 de 56     	jsr	$56de <csputdec>
    3a17: a2 1d        	ldx	#$1d
    3a19: 86 04        	stx	$4                      ; 0x4 <__rc2>
    3a1b: a2 6b        	ldx	#$6b
    3a1d: 86 05        	stx	$5                      ; 0x5 <__rc3>
    3a1f: 20 41 58     	jsr	$5841 <msprintf>
    3a22: a0 01        	ldy	#$1
    3a24: a9 df        	lda	#$df
    3a26: 25 27        	and	$27                     ; 0x27 <g_curTextColor>
    3a28: 85 27        	sta	$27                     ; 0x27 <g_curTextColor>
    3a2a: b1 16        	lda	($16),y                 ; 0x16 <__rc20>
    3a2c: 85 19        	sta	$19                     ; 0x19 <__rc23>
    3a2e: c9 15        	cmp	#$15
    3a30: 64 1a        	stz	$1a                     ; 0x1a <__rc24>
    3a32: 64 1b        	stz	$1b                     ; 0x1b <__rc25>
    3a34: 90 0b        	bcc	$3a41 <donegetproc0+0x2ed>
    3a36: 18           	clc
    3a37: 69 eb        	adc	#$eb
    3a39: 85 1a        	sta	$1a                     ; 0x1a <__rc24>
    3a3b: a9 00        	lda	#$0
    3a3d: 69 ff        	adc	#$ff
    3a3f: 85 1b        	sta	$1b                     ; 0x1b <__rc25>
    3a41: a5 1c        	lda	$1c                     ; 0x1c <__rc26>
    3a43: 09 01        	ora	#$1
    3a45: 85 1f        	sta	$1f                     ; 0x1f <__rc29>
    3a47: 64 1c        	stz	$1c                     ; 0x1c <__rc26>
    3a49: a2 00        	ldx	#$0
    3a4b: 4c 91 38     	jmp	$3891 <donegetproc0+0x13d>
    3a4e: 86 1e        	stx	$1e                     ; 0x1e <__rc28>
    3a50: 85 20        	sta	$20                     ; 0x20 <__rc30>
    3a52: 98           	tya
    3a53: 84 1c        	sty	$1c                     ; 0x1c <__rc26>
    3a55: 20 e8 53     	jsr	$53e8 <tracksectorstring>
    3a58: a6 1f        	ldx	$1f                     ; 0x1f <__rc29>
    3a5a: 86 04        	stx	$4                      ; 0x4 <__rc2>
    3a5c: 06 04        	asl	$4                      ; 0x4 <__rc2>
    3a5e: a5 20        	lda	$20                     ; 0x20 <__rc30>
    3a60: 2a           	rol
    3a61: 06 04        	asl	$4                      ; 0x4 <__rc2>
    3a63: 2a           	rol
    3a64: a2 79        	ldx	#$79
    3a66: 86 04        	stx	$4                      ; 0x4 <__rc2>
    3a68: a2 6c        	ldx	#$6c
    3a6a: 86 05        	stx	$5                      ; 0x5 <__rc3>
    3a6c: a2 28        	ldx	#$28
    3a6e: 86 06        	stx	$6                      ; 0x6 <__zp_data_size>
    3a70: a2 00        	ldx	#$0
    3a72: 86 07        	stx	$7                      ; 0x7 <__rc5>
    3a74: 20 a4 5b     	jsr	$5ba4 <progress>
    3a77: a2 00        	ldx	#$0
    3a79: 86 04        	stx	$4                      ; 0x4 <__rc2>
    3a7b: a2 18        	ldx	#$18
    3a7d: 86 05        	stx	$5                      ; 0x5 <__rc3>
    3a7f: a6 1e        	ldx	$1e                     ; 0x1e <__rc28>
    3a81: 86 06        	stx	$6                      ; 0x6 <__zp_data_size>
    3a83: a6 1c        	ldx	$1c                     ; 0x1c <__rc26>
    3a85: a5 1d        	lda	$1d                     ; 0x1d <__rc27>
    3a87: 20 83 4d     	jsr	$4d83 <GetOneSector>
    3a8a: 18           	clc
    3a8b: a5 1f        	lda	$1f                     ; 0x1f <__rc29>
    3a8d: 69 20        	adc	#$20
    3a8f: 85 07        	sta	$7                      ; 0x7 <__rc5>
    3a91: a5 20        	lda	$20                     ; 0x20 <__rc30>
    3a93: 69 00        	adc	#$0
    3a95: 85 08        	sta	$8                      ; 0x8 <__rc6>
    3a97: a9 00        	lda	#$0
    3a99: 69 08        	adc	#$8
    3a9b: 64 04        	stz	$4                      ; 0x4 <__rc2>
    3a9d: 64 05        	stz	$5                      ; 0x5 <__rc3>
    3a9f: 64 06        	stz	$6                      ; 0x6 <__zp_data_size>
    3aa1: 85 09        	sta	$9                      ; 0x9 <__rc7>
    3aa3: 64 0a        	stz	$a                      ; 0xa <__rc8>
    3aa5: a2 01        	ldx	#$1
    3aa7: 86 0b        	stx	$b                      ; 0xb <__rc9>
    3aa9: a2 18        	ldx	#$18
    3aab: a9 00        	lda	#$0
    3aad: 20 91 64     	jsr	$6491 <lcopy>
    3ab0: a6 1e        	ldx	$1e                     ; 0x1e <__rc28>
    3ab2: a4 1c        	ldy	$1c                     ; 0x1c <__rc26>
    3ab4: e8           	inx
    3ab5: 86 04        	stx	$4                      ; 0x4 <__rc2>
    3ab7: a5 18        	lda	$18                     ; 0x18 <__rc22>
    3ab9: 18           	clc
    3aba: 65 04        	adc	$4                      ; 0x4 <__rc2>
    3abc: 85 1f        	sta	$1f                     ; 0x1f <__rc29>
    3abe: a5 19        	lda	$19                     ; 0x19 <__rc23>
    3ac0: 69 00        	adc	#$0
    3ac2: e0 28        	cpx	#$28
    3ac4: f0 03        	beq	$3ac9 <donegetproc0+0x375>
    3ac6: 4c 4e 3a     	jmp	$3a4e <donegetproc0+0x2fa>
    3ac9: a6 1f        	ldx	$1f                     ; 0x1f <__rc29>
    3acb: 86 18        	stx	$18                     ; 0x18 <__rc22>
    3acd: 85 19        	sta	$19                     ; 0x19 <__rc23>
    3acf: c8           	iny
    3ad0: c0 51        	cpy	#$51
    3ad2: d0 03        	bne	$3ad7 <donegetproc0+0x383>
    3ad4: 4c e8 44     	jmp	$44e8 <donehypclosedir7+0x83>
    3ad7: a2 00        	ldx	#$0
    3ad9: 80 da        	bra	$3ab5 <donegetproc0+0x361>
    3adb: 86 1e        	stx	$1e                     ; 0x1e <__rc28>
    3add: 84 20        	sty	$20                     ; 0x20 <__rc30>
    3adf: a5 1d        	lda	$1d                     ; 0x1d <__rc27>
    3ae1: 20 e8 53     	jsr	$53e8 <tracksectorstring>
    3ae4: a6 20        	ldx	$20                     ; 0x20 <__rc30>
    3ae6: 86 04        	stx	$4                      ; 0x4 <__rc2>
    3ae8: 06 04        	asl	$4                      ; 0x4 <__rc2>
    3aea: a5 1f        	lda	$1f                     ; 0x1f <__rc29>
    3aec: 2a           	rol
    3aed: 06 04        	asl	$4                      ; 0x4 <__rc2>
    3aef: 2a           	rol
    3af0: 18           	clc
    3af1: 69 32        	adc	#$32
    3af3: a2 bf        	ldx	#$bf
    3af5: 86 04        	stx	$4                      ; 0x4 <__rc2>
    3af7: a2 6b        	ldx	#$6b
    3af9: 86 05        	stx	$5                      ; 0x5 <__rc3>
    3afb: a2 28        	ldx	#$28
    3afd: 86 06        	stx	$6                      ; 0x6 <__zp_data_size>
    3aff: a2 00        	ldx	#$0
    3b01: 86 07        	stx	$7                      ; 0x7 <__rc5>
    3b03: 20 a4 5b     	jsr	$5ba4 <progress>
    3b06: 18           	clc
    3b07: a5 20        	lda	$20                     ; 0x20 <__rc30>
    3b09: 69 20        	adc	#$20
    3b0b: 85 0c        	sta	$c                      ; 0xc <__rc10>
    3b0d: a5 1f        	lda	$1f                     ; 0x1f <__rc29>
    3b0f: 69 00        	adc	#$0
    3b11: 85 04        	sta	$4                      ; 0x4 <__rc2>
    3b13: a9 00        	lda	#$0
    3b15: 69 08        	adc	#$8
    3b17: 85 05        	sta	$5                      ; 0x5 <__rc3>
    3b19: 64 06        	stz	$6                      ; 0x6 <__zp_data_size>
    3b1b: a2 18        	ldx	#$18
    3b1d: 86 07        	stx	$7                      ; 0x7 <__rc5>
    3b1f: 64 08        	stz	$8                      ; 0x8 <__rc6>
    3b21: 64 09        	stz	$9                      ; 0x9 <__rc7>
    3b23: 64 0a        	stz	$a                      ; 0xa <__rc8>
    3b25: a2 01        	ldx	#$1
    3b27: 86 0b        	stx	$b                      ; 0xb <__rc9>
    3b29: a6 0c        	ldx	$c                      ; 0xc <__rc10>
    3b2b: a9 00        	lda	#$0
    3b2d: 20 91 64     	jsr	$6491 <lcopy>
    3b30: a2 00        	ldx	#$0
    3b32: 86 04        	stx	$4                      ; 0x4 <__rc2>
    3b34: a2 18        	ldx	#$18
    3b36: 86 05        	stx	$5                      ; 0x5 <__rc3>
    3b38: a6 1e        	ldx	$1e                     ; 0x1e <__rc28>
    3b3a: 86 06        	stx	$6                      ; 0x6 <__zp_data_size>
    3b3c: a6 1d        	ldx	$1d                     ; 0x1d <__rc27>
    3b3e: a5 1b        	lda	$1b                     ; 0x1b <__rc25>
    3b40: 20 cd 4d     	jsr	$4dcd <PutOneSector>
    3b43: a6 1e        	ldx	$1e                     ; 0x1e <__rc28>
    3b45: e8           	inx
    3b46: 86 04        	stx	$4                      ; 0x4 <__rc2>
    3b48: a5 18        	lda	$18                     ; 0x18 <__rc22>
    3b4a: 18           	clc
    3b4b: 65 04        	adc	$4                      ; 0x4 <__rc2>
    3b4d: a8           	tay
    3b4e: a5 19        	lda	$19                     ; 0x19 <__rc23>
    3b50: 69 00        	adc	#$0
    3b52: 85 1f        	sta	$1f                     ; 0x1f <__rc29>
    3b54: e0 28        	cpx	#$28
    3b56: f0 03        	beq	$3b5b <donegetproc0+0x407>
    3b58: 4c db 3a     	jmp	$3adb <donegetproc0+0x387>
    3b5b: 84 18        	sty	$18                     ; 0x18 <__rc22>
    3b5d: 85 19        	sta	$19                     ; 0x19 <__rc23>
    3b5f: a6 1d        	ldx	$1d                     ; 0x1d <__rc27>
    3b61: e8           	inx
    3b62: e0 51        	cpx	#$51
    3b64: d0 03        	bne	$3b69 <donegetproc0+0x415>
    3b66: 4c f1 44     	jmp	$44f1 <donehypclosedir7+0x8c>
    3b69: 86 1d        	stx	$1d                     ; 0x1d <__rc27>
    3b6b: a2 00        	ldx	#$0
    3b6d: 80 d7        	bra	$3b46 <donegetproc0+0x3f2>
    3b6f: 20 f5 5f     	jsr	$5ff5 <cgetcalt>
    3b72: da           	phx
    3b73: 7a           	ply
    3b74: 9c 20 d0     	stz	$d020                   ; 0xd020 <__heap_start+0x5af3>
    3b77: 38           	sec
    3b78: 85 18        	sta	$18                     ; 0x18 <__rc22>
    3b7a: e9 f1        	sbc	#$f1
    3b7c: aa           	tax
    3b7d: 84 19        	sty	$19                     ; 0x19 <__rc23>
    3b7f: 98           	tya
    3b80: e9 00        	sbc	#$0
    3b82: d0 04        	bne	$3b88 <donegetproc0+0x434>
    3b84: e0 0a        	cpx	#$a
    3b86: 80 02        	bra	$3b8a <donegetproc0+0x436>
    3b88: c9 00        	cmp	#$0
    3b8a: a0 00        	ldy	#$0
    3b8c: 90 03        	bcc	$3b91 <donegetproc0+0x43d>
    3b8e: 4c 08 3c     	jmp	$3c08 <donegetproc0+0x4b4>
    3b91: bc 2c 68     	ldy	$682c,x                 ; 0x682c <__zp_data_load_start+0x4815>
    3b94: bd 36 68     	lda	$6836,x                 ; 0x6836 <__zp_data_load_start+0x481f>
    3b97: aa           	tax
    3b98: 84 04        	sty	$4                      ; 0x4 <__rc2>
    3b9a: 86 05        	stx	$5                      ; 0x5 <__rc3>
    3b9c: 6c 04 00     	jmp	($4)                    ; 0x4 <__rc2>
    3b9f: a0 14        	ldy	#$14
    3ba1: b1 02        	lda	($2),y                  ; 0x2 <__rc0>
    3ba3: 85 06        	sta	$6                      ; 0x6 <__zp_data_size>
    3ba5: 0a           	asl
    3ba6: 85 04        	sta	$4                      ; 0x4 <__rc2>
    3ba8: a9 00        	lda	#$0
    3baa: 2a           	rol
    3bab: 85 05        	sta	$5                      ; 0x5 <__rc3>
    3bad: a9 e5        	lda	#$e5
    3baf: 18           	clc
    3bb0: 65 04        	adc	$4                      ; 0x4 <__rc2>
    3bb2: 85 04        	sta	$4                      ; 0x4 <__rc2>
    3bb4: a9 6c        	lda	#$6c
    3bb6: 65 05        	adc	$5                      ; 0x5 <__rc3>
    3bb8: 85 05        	sta	$5                      ; 0x5 <__rc3>
    3bba: b2 04        	lda	($4),z                  ; 0x4 <__rc2>
    3bbc: 85 1e        	sta	$1e                     ; 0x1e <__rc28>
    3bbe: a0 01        	ldy	#$1
    3bc0: b1 04        	lda	($4),y                  ; 0x4 <__rc2>
    3bc2: 85 1f        	sta	$1f                     ; 0x1f <__rc29>
    3bc4: b1 1e        	lda	($1e),y                 ; 0x1e <__rc28>
    3bc6: aa           	tax
    3bc7: a5 06        	lda	$6                      ; 0x6 <__zp_data_size>
    3bc9: 20 5f 54     	jsr	$545f <getdirententry>
    3bcc: a0 02        	ldy	#$2
    3bce: b1 04        	lda	($4),y                  ; 0x4 <__rc2>
    3bd0: aa           	tax
    3bd1: 29 0f        	and	#$f
    3bd3: c9 05        	cmp	#$5
    3bd5: d0 03        	bne	$3bda <donegetproc0+0x486>
    3bd7: 4c 3c 37     	jmp	$373c <main+0x1c4>
    3bda: 8a           	txa
    3bdb: d0 03        	bne	$3be0 <donegetproc0+0x48c>
    3bdd: 4c 3c 37     	jmp	$373c <main+0x1c4>
    3be0: a6 04        	ldx	$4                      ; 0x4 <__rc2>
    3be2: 86 16        	stx	$16                     ; 0x16 <__rc20>
    3be4: a6 05        	ldx	$5                      ; 0x5 <__rc3>
    3be6: 86 17        	stx	$17                     ; 0x17 <__rc21>
    3be8: a5 19        	lda	$19                     ; 0x19 <__rc23>
    3bea: d0 03        	bne	$3bef <donegetproc0+0x49b>
    3bec: 4c d9 41     	jmp	$41d9 <donehyp0att6+0x234>
    3bef: a5 16        	lda	$16                     ; 0x16 <__rc20>
    3bf1: 18           	clc
    3bf2: 69 05        	adc	#$5
    3bf4: 85 06        	sta	$6                      ; 0x6 <__zp_data_size>
    3bf6: a5 17        	lda	$17                     ; 0x17 <__rc21>
    3bf8: 69 00        	adc	#$0
    3bfa: 85 07        	sta	$7                      ; 0x7 <__rc5>
    3bfc: a0 14        	ldy	#$14
    3bfe: b1 02        	lda	($2),y                  ; 0x2 <__rc0>
    3c00: f0 03        	beq	$3c05 <donegetproc0+0x4b1>
    3c02: 4c 50 42     	jmp	$4250 <donehyp0att6+0x2ab>
    3c05: 4c 69 44     	jmp	$4469 <donehypclosedir7+0x4>
    3c08: 5a           	phy
    3c09: a0 14        	ldy	#$14
    3c0b: b1 02        	lda	($2),y                  ; 0x2 <__rc0>
    3c0d: 7a           	ply
    3c0e: 49 01        	eor	#$1
    3c10: a6 19        	ldx	$19                     ; 0x19 <__rc23>
    3c12: d0 09        	bne	$3c1d <donegetproc0+0x4c9>
    3c14: a6 18        	ldx	$18                     ; 0x18 <__rc22>
    3c16: e0 09        	cpx	#$9
    3c18: d0 03        	bne	$3c1d <donegetproc0+0x4c9>
    3c1a: 4c 38 37     	jmp	$3738 <main+0x1c0>
    3c1d: a6 19        	ldx	$19                     ; 0x19 <__rc23>
    3c1f: d0 09        	bne	$3c2a <donegetproc0+0x4d6>
    3c21: a6 18        	ldx	$18                     ; 0x18 <__rc22>
    3c23: e0 0d        	cpx	#$d
    3c25: d0 03        	bne	$3c2a <donegetproc0+0x4d6>
    3c27: 4c 9d 3c     	jmp	$3c9d <donegetproc0+0x549>
    3c2a: a6 19        	ldx	$19                     ; 0x19 <__rc23>
    3c2c: d0 2e        	bne	$3c5c <donegetproc0+0x508>
    3c2e: a6 18        	ldx	$18                     ; 0x18 <__rc22>
    3c30: e0 11        	cpx	#$11
    3c32: d0 28        	bne	$3c5c <donegetproc0+0x508>
    3c34: a0 14        	ldy	#$14
    3c36: b1 02        	lda	($2),y                  ; 0x2 <__rc0>
    3c38: 0a           	asl
    3c39: 85 04        	sta	$4                      ; 0x4 <__rc2>
    3c3b: a9 00        	lda	#$0
    3c3d: 2a           	rol
    3c3e: 85 05        	sta	$5                      ; 0x5 <__rc3>
    3c40: a9 e5        	lda	#$e5
    3c42: 18           	clc
    3c43: 65 04        	adc	$4                      ; 0x4 <__rc2>
    3c45: 85 04        	sta	$4                      ; 0x4 <__rc2>
    3c47: a9 6c        	lda	#$6c
    3c49: 65 05        	adc	$5                      ; 0x5 <__rc3>
    3c4b: 85 05        	sta	$5                      ; 0x5 <__rc3>
    3c4d: b2 04        	lda	($4),z                  ; 0x4 <__rc2>
    3c4f: 85 06        	sta	$6                      ; 0x6 <__zp_data_size>
    3c51: a0 01        	ldy	#$1
    3c53: b1 04        	lda	($4),y                  ; 0x4 <__rc2>
    3c55: 85 07        	sta	$7                      ; 0x7 <__rc5>
    3c57: b1 06        	lda	($6),y                  ; 0x6 <__zp_data_size>
    3c59: 1a           	inc
    3c5a: 80 32        	bra	$3c8e <donegetproc0+0x53a>
    3c5c: a6 19        	ldx	$19                     ; 0x19 <__rc23>
    3c5e: d0 33        	bne	$3c93 <donegetproc0+0x53f>
    3c60: a6 18        	ldx	$18                     ; 0x18 <__rc22>
    3c62: e0 1d        	cpx	#$1d
    3c64: d0 2d        	bne	$3c93 <donegetproc0+0x53f>
    3c66: a0 14        	ldy	#$14
    3c68: b1 02        	lda	($2),y                  ; 0x2 <__rc0>
    3c6a: 0a           	asl
    3c6b: 85 04        	sta	$4                      ; 0x4 <__rc2>
    3c6d: a9 00        	lda	#$0
    3c6f: 2a           	rol
    3c70: 85 05        	sta	$5                      ; 0x5 <__rc3>
    3c72: a9 e5        	lda	#$e5
    3c74: 18           	clc
    3c75: 65 04        	adc	$4                      ; 0x4 <__rc2>
    3c77: 85 04        	sta	$4                      ; 0x4 <__rc2>
    3c79: a9 6c        	lda	#$6c
    3c7b: 65 05        	adc	$5                      ; 0x5 <__rc3>
    3c7d: 85 05        	sta	$5                      ; 0x5 <__rc3>
    3c7f: b2 04        	lda	($4),z                  ; 0x4 <__rc2>
    3c81: 85 06        	sta	$6                      ; 0x6 <__zp_data_size>
    3c83: a0 01        	ldy	#$1
    3c85: b1 04        	lda	($4),y                  ; 0x4 <__rc2>
    3c87: 85 07        	sta	$7                      ; 0x7 <__rc5>
    3c89: a9 0a        	lda	#$a
    3c8b: 18           	clc
    3c8c: 71 06        	adc	($6),y                  ; 0x6 <__zp_data_size>
    3c8e: 91 06        	sta	($6),y                  ; 0x6 <__zp_data_size>
    3c90: 4c 3c 37     	jmp	$373c <main+0x1c4>
    3c93: a6 19        	ldx	$19                     ; 0x19 <__rc23>
    3c95: d0 26        	bne	$3cbd <donegetproc0+0x569>
    3c97: a6 18        	ldx	$18                     ; 0x18 <__rc22>
    3c99: e0 1f        	cpx	#$1f
    3c9b: d0 20        	bne	$3cbd <donegetproc0+0x569>
    3c9d: a2 d6        	ldx	#$d6
    3c9f: 86 04        	stx	$4                      ; 0x4 <__rc2>
    3ca1: a2 6b        	ldx	#$6b
    3ca3: 86 05        	stx	$5                      ; 0x5 <__rc3>
    3ca5: a2 ed        	ldx	#$ed
    3ca7: 86 06        	stx	$6                      ; 0x6 <__zp_data_size>
    3ca9: a2 6a        	ldx	#$6a
    3cab: 86 07        	stx	$7                      ; 0x7 <__rc5>
    3cad: a2 ac        	ldx	#$ac
    3caf: 86 08        	stx	$8                      ; 0x8 <__rc6>
    3cb1: a2 68        	ldx	#$68
    3cb3: 86 09        	stx	$9                      ; 0x9 <__rc7>
    3cb5: a9 00        	lda	#$0
    3cb7: 20 99 5a     	jsr	$5a99 <messagebox>
    3cba: 4c 3c 37     	jmp	$373c <main+0x1c4>
    3cbd: a6 19        	ldx	$19                     ; 0x19 <__rc23>
    3cbf: d0 09        	bne	$3cca <donegetproc0+0x576>
    3cc1: a6 18        	ldx	$18                     ; 0x18 <__rc22>
    3cc3: e0 5f        	cpx	#$5f
    3cc5: d0 03        	bne	$3cca <donegetproc0+0x576>
    3cc7: 4c ec 3d     	jmp	$3dec <donehypreaddir1+0x48>
    3cca: a6 19        	ldx	$19                     ; 0x19 <__rc23>
    3ccc: f0 03        	beq	$3cd1 <donegetproc0+0x57d>
    3cce: 4c e2 3d     	jmp	$3de2 <donehypreaddir1+0x3e>
    3cd1: a6 18        	ldx	$18                     ; 0x18 <__rc22>
    3cd3: e0 91        	cpx	#$91
    3cd5: f0 03        	beq	$3cda <donegetproc0+0x586>
    3cd7: 4c e2 3d     	jmp	$3de2 <donehypreaddir1+0x3e>
    3cda: a0 14        	ldy	#$14
    3cdc: b1 02        	lda	($2),y                  ; 0x2 <__rc0>
    3cde: 0a           	asl
    3cdf: 85 04        	sta	$4                      ; 0x4 <__rc2>
    3ce1: a9 00        	lda	#$0
    3ce3: 2a           	rol
    3ce4: 85 05        	sta	$5                      ; 0x5 <__rc3>
    3ce6: a9 e5        	lda	#$e5
    3ce8: 18           	clc
    3ce9: 65 04        	adc	$4                      ; 0x4 <__rc2>
    3ceb: 85 06        	sta	$6                      ; 0x6 <__zp_data_size>
    3ced: a9 6c        	lda	#$6c
    3cef: 65 05        	adc	$5                      ; 0x5 <__rc3>
    3cf1: 85 07        	sta	$7                      ; 0x7 <__rc5>
    3cf3: b2 06        	lda	($6),z                  ; 0x6 <__zp_data_size>
    3cf5: 85 04        	sta	$4                      ; 0x4 <__rc2>
    3cf7: a0 01        	ldy	#$1
    3cf9: b1 06        	lda	($6),y                  ; 0x6 <__zp_data_size>
    3cfb: 85 05        	sta	$5                      ; 0x5 <__rc3>
    3cfd: b1 04        	lda	($4),y                  ; 0x4 <__rc2>
    3cff: f0 03        	beq	$3d04 <donegetproc0+0x5b0>
    3d01: 4c 59 43     	jmp	$4359 <donehyp0att6+0x3b4>
    3d04: 4c 3c 37     	jmp	$373c <main+0x1c4>
    3d07: a0 00        	ldy	#$0
    3d09: a2 00        	ldx	#$0
    3d0b: 80 0e        	bra	$3d1b <donegetproc0+0x5c7>
    3d0d: c9 21        	cmp	#$21
    3d0f: 90 09        	bcc	$3d1a <donegetproc0+0x5c6>
    3d11: 86 04        	stx	$4                      ; 0x4 <__rc2>
    3d13: e6 04        	inc	$4                      ; 0x4 <__rc2>
    3d15: 9d 41 1c     	sta	$1c41,x                 ; 0x1c41 <__bss_size+0x148e>
    3d18: a6 04        	ldx	$4                      ; 0x4 <__rc2>
    3d1a: c8           	iny
    3d1b: c0 08        	cpy	#$8
    3d1d: f0 07        	beq	$3d26 <donegetproc0+0x5d2>
    3d1f: b9 41 1a     	lda	$1a41,y                 ; 0x1a41 <__bss_size+0x128e>
    3d22: c9 20        	cmp	#$20
    3d24: d0 e7        	bne	$3d0d <donegetproc0+0x5b9>
    3d26: a0 00        	ldy	#$0
    3d28: a9 2e        	lda	#$2e
    3d2a: 9d 41 1c     	sta	$1c41,x                 ; 0x1c41 <__bss_size+0x148e>
    3d2d: e8           	inx
    3d2e: 80 09        	bra	$3d39 <donegetproc0+0x5e5>
    3d30: c9 21        	cmp	#$21
    3d32: 90 04        	bcc	$3d38 <donegetproc0+0x5e4>
    3d34: 9d 41 1c     	sta	$1c41,x                 ; 0x1c41 <__bss_size+0x148e>
    3d37: e8           	inx
    3d38: c8           	iny
    3d39: c0 03        	cpy	#$3
    3d3b: f0 07        	beq	$3d44 <donegetproc0+0x5f0>
    3d3d: b9 49 1a     	lda	$1a49,y                 ; 0x1a49 <__bss_size+0x1296>
    3d40: c9 20        	cmp	#$20
    3d42: d0 ec        	bne	$3d30 <donegetproc0+0x5dc>
    3d44: 9e 41 1c     	stz	$1c41,x                 ; 0x1c41 <__bss_size+0x148e>
    3d47: a2 41        	ldx	#$41
    3d49: 86 04        	stx	$4                      ; 0x4 <__rc2>
    3d4b: 64 05        	stz	$5                      ; 0x5 <__rc3>
    3d4d: a2 00        	ldx	#$0
    3d4f: a5 18        	lda	$18                     ; 0x18 <__rc22>
    3d51: 20 e2 65     	jsr	$65e2 <__mulhi3>
    3d54: 85 04        	sta	$4                      ; 0x4 <__rc2>
    3d56: 86 05        	stx	$5                      ; 0x5 <__rc3>
    3d58: a9 5d        	lda	#$5d
    3d5a: 18           	clc
    3d5b: 65 04        	adc	$4                      ; 0x4 <__rc2>
    3d5d: 85 04        	sta	$4                      ; 0x4 <__rc2>
    3d5f: a9 6d        	lda	#$6d
    3d61: 65 05        	adc	$5                      ; 0x5 <__rc3>
    3d63: 85 05        	sta	$5                      ; 0x5 <__rc3>
    3d65: a2 00        	ldx	#$0
    3d67: 86 06        	stx	$6                      ; 0x6 <__zp_data_size>
    3d69: a2 1a        	ldx	#$1a
    3d6b: 86 07        	stx	$7                      ; 0x7 <__rc5>
    3d6d: 20 48 65     	jsr	$6548 <strcpy>
    3d70: e6 17        	inc	$17                     ; 0x17 <__rc21>
    3d72: a0 01        	ldy	#$1
    3d74: e6 18        	inc	$18                     ; 0x18 <__rc22>
    3d76: a5 16        	lda	$16                     ; 0x16 <__rc20>
    3d78: a6 18        	ldx	$18                     ; 0x18 <__rc22>
    3d7a: e0 12        	cpx	#$12
    3d7c: d0 03        	bne	$3d81 <donegetproc0+0x62d>
    3d7e: 4c 51 44     	jmp	$4451 <donehyp0att6+0x4ac>
    3d81: 86 18        	stx	$18                     ; 0x18 <__rc22>
    3d83: 85 16        	sta	$16                     ; 0x16 <__rc20>
    3d85: a8           	tay
    3d86: da           	phx
    3d87: a2 00        	ldx	#$0
    3d89: 8a           	txa

00003d8a <hypreaddirloop1>:
    3d8a: 9d 00 1a     	sta	$1a00,x                 ; 0x1a00 <__bss_size+0x124d>
    3d8d: ca           	dex
    3d8e: d0 fa        	bne	$3d8a <hypreaddirloop1>
    3d90: fa           	plx
    3d91: 98           	tya
    3d92: aa           	tax
    3d93: a0 1a        	ldy	#$1a
    3d95: a9 14        	lda	#$14
    3d97: 8d 40 d6     	sta	$d640                   ; 0xd640 <__heap_start+0x6113>
    3d9a: b8           	clv
    3d9b: 90 05        	bcc	$3da2 <errhypreaddir1>
    3d9d: 86 04        	stx	$4                      ; 0x4 <__rc2>
    3d9f: 4c a4 3d     	jmp	$3da4 <donehypreaddir1>

00003da2 <errhypreaddir1>:
    3da2: 85 04        	sta	$4                      ; 0x4 <__rc2>

00003da4 <donehypreaddir1>:
    3da4: ea           	nop
    3da5: a4 04        	ldy	$4                      ; 0x4 <__rc2>
    3da7: ae 40 1a     	ldx	$1a40                   ; 0x1a40 <__bss_size+0x128d>
    3daa: 9e 00 1a     	stz	$1a00,x                 ; 0x1a00 <__bss_size+0x124d>
    3dad: c0 85        	cpy	#$85
    3daf: f0 07        	beq	$3db8 <donehypreaddir1+0x14>
    3db1: c0 ff        	cpy	#$ff
    3db3: f0 03        	beq	$3db8 <donehypreaddir1+0x14>
    3db5: 4c 07 3d     	jmp	$3d07 <donegetproc0+0x5b3>
    3db8: a2 41        	ldx	#$41
    3dba: 86 04        	stx	$4                      ; 0x4 <__rc2>
    3dbc: 64 05        	stz	$5                      ; 0x5 <__rc3>
    3dbe: a2 00        	ldx	#$0
    3dc0: a5 18        	lda	$18                     ; 0x18 <__rc22>
    3dc2: 20 e2 65     	jsr	$65e2 <__mulhi3>
    3dc5: 85 04        	sta	$4                      ; 0x4 <__rc2>
    3dc7: 86 05        	stx	$5                      ; 0x5 <__rc3>
    3dc9: a9 5d        	lda	#$5d
    3dcb: 18           	clc
    3dcc: 65 04        	adc	$4                      ; 0x4 <__rc2>
    3dce: 85 04        	sta	$4                      ; 0x4 <__rc2>
    3dd0: a9 6d        	lda	#$6d
    3dd2: 65 05        	adc	$5                      ; 0x5 <__rc3>
    3dd4: 85 05        	sta	$5                      ; 0x5 <__rc3>
    3dd6: a9 20        	lda	#$20
    3dd8: 92 04        	sta	($4),z                  ; 0x4 <__rc2>
    3dda: a0 01        	ldy	#$1
    3ddc: a9 00        	lda	#$0
    3dde: 91 04        	sta	($4),y                  ; 0x4 <__rc2>
    3de0: 80 92        	bra	$3d74 <donegetproc0+0x620>
    3de2: a6 19        	ldx	$19                     ; 0x19 <__rc23>
    3de4: d0 51        	bne	$3e37 <donehypreaddir1+0x93>
    3de6: a6 18        	ldx	$18                     ; 0x18 <__rc22>
    3de8: e0 9d        	cpx	#$9d
    3dea: d0 4b        	bne	$3e37 <donehypreaddir1+0x93>
    3dec: a0 14        	ldy	#$14
    3dee: b1 02        	lda	($2),y                  ; 0x2 <__rc0>
    3df0: 0a           	asl
    3df1: 85 04        	sta	$4                      ; 0x4 <__rc2>
    3df3: a9 00        	lda	#$0
    3df5: 2a           	rol
    3df6: 85 05        	sta	$5                      ; 0x5 <__rc3>
    3df8: a9 e5        	lda	#$e5
    3dfa: 18           	clc
    3dfb: 65 04        	adc	$4                      ; 0x4 <__rc2>
    3dfd: 85 06        	sta	$6                      ; 0x6 <__zp_data_size>
    3dff: a9 6c        	lda	#$6c
    3e01: 65 05        	adc	$5                      ; 0x5 <__rc3>
    3e03: 85 07        	sta	$7                      ; 0x7 <__rc5>
    3e05: b2 06        	lda	($6),z                  ; 0x6 <__zp_data_size>
    3e07: 85 04        	sta	$4                      ; 0x4 <__rc2>
    3e09: a0 01        	ldy	#$1
    3e0b: b1 06        	lda	($6),y                  ; 0x6 <__zp_data_size>
    3e0d: 85 05        	sta	$5                      ; 0x5 <__rc3>
    3e0f: b1 04        	lda	($4),y                  ; 0x4 <__rc2>
    3e11: c9 0b        	cmp	#$b
    3e13: b0 03        	bcs	$3e18 <donehypreaddir1+0x74>
    3e15: 4c b8 41     	jmp	$41b8 <donehyp0att6+0x213>
    3e18: 18           	clc
    3e19: 69 f6        	adc	#$f6
    3e1b: 91 04        	sta	($4),y                  ; 0x4 <__rc2>
    3e1d: 4c 3c 37     	jmp	$373c <main+0x1c4>
    3e20: ae 11 d6     	ldx	$d611                   ; 0xd611 <__heap_start+0x60e4>
    3e23: e0 01        	cpx	#$1
    3e25: d0 03        	bne	$3e2a <donehypreaddir1+0x86>
    3e27: 4c 9e 4a     	jmp	$4a9e <donehypclosedir7+0x639>
    3e2a: ae 11 d6     	ldx	$d611                   ; 0xd611 <__heap_start+0x60e4>
    3e2d: e0 02        	cpx	#$2
    3e2f: f0 03        	beq	$3e34 <donehypreaddir1+0x90>
    3e31: 4c 3c 37     	jmp	$373c <main+0x1c4>
    3e34: 4c 9e 4a     	jmp	$4a9e <donehypclosedir7+0x639>
    3e37: a6 19        	ldx	$19                     ; 0x19 <__rc23>
    3e39: e0 01        	cpx	#$1
    3e3b: f0 03        	beq	$3e40 <donehypreaddir1+0x9c>
    3e3d: 4c b5 40     	jmp	$40b5 <donehyp0att6+0x110>
    3e40: a6 18        	ldx	$18                     ; 0x18 <__rc22>
    3e42: e0 f2        	cpx	#$f2
    3e44: f0 03        	beq	$3e49 <donehypreaddir1+0xa5>
    3e46: 4c b5 40     	jmp	$40b5 <donehyp0att6+0x110>
    3e49: a2 00        	ldx	#$0
    3e4b: a9 04        	lda	#$4
    3e4d: 8d 40 d6     	sta	$d640                   ; 0xd640 <__heap_start+0x6113>
    3e50: b8           	clv
    3e51: 90 05        	bcc	$3e58 <errgetcurdrv2>
    3e53: 85 04        	sta	$4                      ; 0x4 <__rc2>
    3e55: 4c 5c 3e     	jmp	$3e5c <donegetcurdrv2>

00003e58 <errgetcurdrv2>:
    3e58: a9 ff        	lda	#$ff
    3e5a: 85 04        	sta	$4                      ; 0x4 <__rc2>

00003e5c <donegetcurdrv2>:
    3e5c: ea           	nop
    3e5d: a6 04        	ldx	$4                      ; 0x4 <__rc2>
    3e5f: 64 16        	stz	$16                     ; 0x16 <__rc20>
    3e61: a0 01        	ldy	#$1
    3e63: e0 ff        	cpx	#$ff
    3e65: f0 21        	beq	$3e88 <donehypopendir3+0xe>
    3e67: a2 00        	ldx	#$0
    3e69: a9 12        	lda	#$12
    3e6b: 8d 40 d6     	sta	$d640                   ; 0xd640 <__heap_start+0x6113>
    3e6e: b8           	clv
    3e6f: 90 05        	bcc	$3e76 <errhypopendir3>
    3e71: 85 04        	sta	$4                      ; 0x4 <__rc2>
    3e73: 4c 7a 3e     	jmp	$3e7a <donehypopendir3>

00003e76 <errhypopendir3>:
    3e76: a9 ff        	lda	#$ff
    3e78: 85 04        	sta	$4                      ; 0x4 <__rc2>

00003e7a <donehypopendir3>:
    3e7a: ea           	nop
    3e7b: a5 04        	lda	$4                      ; 0x4 <__rc2>
    3e7d: c9 84        	cmp	#$84
    3e7f: f0 07        	beq	$3e88 <donehypopendir3+0xe>
    3e81: c9 87        	cmp	#$87
    3e83: f0 03        	beq	$3e88 <donehypopendir3+0xe>
    3e85: 4c bf 41     	jmp	$41bf <donehyp0att6+0x21a>
    3e88: 5a           	phy
    3e89: a0 14        	ldy	#$14
    3e8b: b1 02        	lda	($2),y                  ; 0x2 <__rc0>
    3e8d: 7a           	ply
    3e8e: 0a           	asl
    3e8f: 85 04        	sta	$4                      ; 0x4 <__rc2>
    3e91: a9 00        	lda	#$0
    3e93: 2a           	rol
    3e94: 85 05        	sta	$5                      ; 0x5 <__rc3>
    3e96: a9 e5        	lda	#$e5
    3e98: 18           	clc
    3e99: 65 04        	adc	$4                      ; 0x4 <__rc2>
    3e9b: 85 1a        	sta	$1a                     ; 0x1a <__rc24>
    3e9d: a9 6c        	lda	#$6c
    3e9f: 65 05        	adc	$5                      ; 0x5 <__rc3>
    3ea1: 85 1b        	sta	$1b                     ; 0x1b <__rc25>
    3ea3: a2 00        	ldx	#$0
    3ea5: 4c d2 3f     	jmp	$3fd2 <donehyp0att6+0x2d>
    3ea8: 09 20        	ora	#$20
    3eaa: 4c 86 40     	jmp	$4086 <donehyp0att6+0xe1>
    3ead: a5 27        	lda	$27                     ; 0x27 <g_curTextColor>
    3eaf: 29 df        	and	#$df
    3eb1: 85 27        	sta	$27                     ; 0x27 <g_curTextColor>
    3eb3: 20 ba 55     	jsr	$55ba <cputln>
    3eb6: 20 f5 5f     	jsr	$5ff5 <cgetcalt>
    3eb9: e0 00        	cpx	#$0
    3ebb: d0 75        	bne	$3f32 <donehyp1att5+0x4>
    3ebd: c9 0d        	cmp	#$d
    3ebf: d0 71        	bne	$3f32 <donehyp1att5+0x4>
    3ec1: b2 1c        	lda	($1c),z                 ; 0x1c <__rc26>
    3ec3: 85 16        	sta	$16                     ; 0x16 <__rc20>
    3ec5: a2 41        	ldx	#$41
    3ec7: 86 04        	stx	$4                      ; 0x4 <__rc2>
    3ec9: 64 05        	stz	$5                      ; 0x5 <__rc3>
    3ecb: a2 00        	ldx	#$0
    3ecd: a5 21        	lda	$21                     ; 0x21 <__rc31>
    3ecf: 20 e2 65     	jsr	$65e2 <__mulhi3>
    3ed2: 85 04        	sta	$4                      ; 0x4 <__rc2>
    3ed4: 86 05        	stx	$5                      ; 0x5 <__rc3>
    3ed6: a9 5d        	lda	#$5d
    3ed8: 18           	clc
    3ed9: 65 04        	adc	$4                      ; 0x4 <__rc2>
    3edb: 85 18        	sta	$18                     ; 0x18 <__rc22>
    3edd: a9 6d        	lda	#$6d
    3edf: 65 05        	adc	$5                      ; 0x5 <__rc3>
    3ee1: 85 19        	sta	$19                     ; 0x19 <__rc23>
    3ee3: a2 1c        	ldx	#$1c
    3ee5: 8e 5c 6d     	stx	$6d5c                   ; 0x6d5c <fnamehi>
    3ee8: a2 00        	ldx	#$0
    3eea: 86 04        	stx	$4                      ; 0x4 <__rc2>
    3eec: a2 1c        	ldx	#$1c
    3eee: 86 05        	stx	$5                      ; 0x5 <__rc3>
    3ef0: a6 18        	ldx	$18                     ; 0x18 <__rc22>
    3ef2: 86 06        	stx	$6                      ; 0x6 <__zp_data_size>
    3ef4: 85 07        	sta	$7                      ; 0x7 <__rc5>
    3ef6: 20 48 65     	jsr	$6548 <strcpy>
    3ef9: ac 5c 6d     	ldy	$6d5c                   ; 0x6d5c <fnamehi>
    3efc: a2 00        	ldx	#$0
    3efe: a9 2e        	lda	#$2e
    3f00: 8d 40 d6     	sta	$d640                   ; 0xd640 <__heap_start+0x6113>
    3f03: b8           	clv
    3f04: 90 07        	bcc	$3f0d <errhypsetnam4>
    3f06: a9 00        	lda	#$0
    3f08: 85 04        	sta	$4                      ; 0x4 <__rc2>
    3f0a: 4c 11 3f     	jmp	$3f11 <donehypsetnam4>

00003f0d <errhypsetnam4>:
    3f0d: a9 ff        	lda	#$ff
    3f0f: 85 04        	sta	$4                      ; 0x4 <__rc2>

00003f11 <donehypsetnam4>:
    3f11: ea           	nop
    3f12: a5 16        	lda	$16                     ; 0x16 <__rc20>
    3f14: d0 03        	bne	$3f19 <donehypsetnam4+0x8>
    3f16: 4c 90 3f     	jmp	$3f90 <donehyp1att5+0x62>
    3f19: a2 00        	ldx	#$0
    3f1b: a9 46        	lda	#$46
    3f1d: 8d 40 d6     	sta	$d640                   ; 0xd640 <__heap_start+0x6113>
    3f20: b8           	clv
    3f21: 90 07        	bcc	$3f2a <errhyp1att5>
    3f23: a9 00        	lda	#$0
    3f25: 85 04        	sta	$4                      ; 0x4 <__rc2>
    3f27: 4c 2e 3f     	jmp	$3f2e <donehyp1att5>

00003f2a <errhyp1att5>:
    3f2a: a9 ff        	lda	#$ff
    3f2c: 85 04        	sta	$4                      ; 0x4 <__rc2>

00003f2e <donehyp1att5>:
    3f2e: ea           	nop
    3f2f: 4c a6 3f     	jmp	$3fa6 <donehyp0att6+0x1>
    3f32: a0 01        	ldy	#$1
    3f34: 48           	pha
    3f35: a5 17        	lda	$17                     ; 0x17 <__rc21>
    3f37: 85 16        	sta	$16                     ; 0x16 <__rc20>
    3f39: 68           	pla
    3f3a: e0 00        	cpx	#$0
    3f3c: d0 0b        	bne	$3f49 <donehyp1att5+0x1b>
    3f3e: c9 11        	cmp	#$11
    3f40: d0 07        	bne	$3f49 <donehyp1att5+0x1b>
    3f42: e6 21        	inc	$21                     ; 0x21 <__rc31>
    3f44: a6 21        	ldx	$21                     ; 0x21 <__rc31>
    3f46: 4c d2 3f     	jmp	$3fd2 <donehyp0att6+0x2d>
    3f49: e0 00        	cpx	#$0
    3f4b: d0 04        	bne	$3f51 <donehyp1att5+0x23>
    3f4d: c9 91        	cmp	#$91
    3f4f: f0 08        	beq	$3f59 <donehyp1att5+0x2b>
    3f51: e0 02        	cpx	#$2
    3f53: d0 13        	bne	$3f68 <donehyp1att5+0x3a>
    3f55: c9 91        	cmp	#$91
    3f57: d0 0f        	bne	$3f68 <donehyp1att5+0x3a>
    3f59: a2 00        	ldx	#$0
    3f5b: a5 21        	lda	$21                     ; 0x21 <__rc31>
    3f5d: d0 03        	bne	$3f62 <donehyp1att5+0x34>
    3f5f: 4c d2 3f     	jmp	$3fd2 <donehyp0att6+0x2d>
    3f62: c6 21        	dec	$21                     ; 0x21 <__rc31>
    3f64: a6 21        	ldx	$21                     ; 0x21 <__rc31>
    3f66: 80 6a        	bra	$3fd2 <donehyp0att6+0x2d>
    3f68: e0 00        	cpx	#$0
    3f6a: d0 07        	bne	$3f73 <donehyp1att5+0x45>
    3f6c: c9 03        	cmp	#$3
    3f6e: d0 03        	bne	$3f73 <donehyp1att5+0x45>
    3f70: 4c 3c 37     	jmp	$373c <main+0x1c4>
    3f73: e0 00        	cpx	#$0
    3f75: d0 07        	bne	$3f7e <donehyp1att5+0x50>
    3f77: c9 1b        	cmp	#$1b
    3f79: d0 03        	bne	$3f7e <donehyp1att5+0x50>
    3f7b: 4c 3c 37     	jmp	$373c <main+0x1c4>
    3f7e: 64 04        	stz	$4                      ; 0x4 <__rc2>
    3f80: 64 05        	stz	$5                      ; 0x5 <__rc3>
    3f82: 20 b7 58     	jsr	$58b7 <mh4printf>
    3f85: a9 20        	lda	#$20
    3f87: 20 b1 61     	jsr	$61b1 <cputc>
    3f8a: a6 21        	ldx	$21                     ; 0x21 <__rc31>
    3f8c: a0 01        	ldy	#$1
    3f8e: 80 42        	bra	$3fd2 <donehyp0att6+0x2d>
    3f90: a2 00        	ldx	#$0
    3f92: a9 40        	lda	#$40
    3f94: 8d 40 d6     	sta	$d640                   ; 0xd640 <__heap_start+0x6113>
    3f97: b8           	clv
    3f98: 90 07        	bcc	$3fa1 <errhyp0att6>
    3f9a: a9 00        	lda	#$0
    3f9c: 85 04        	sta	$4                      ; 0x4 <__rc2>
    3f9e: 4c a5 3f     	jmp	$3fa5 <donehyp0att6>

00003fa1 <errhyp0att6>:
    3fa1: a9 ff        	lda	#$ff
    3fa3: 85 04        	sta	$4                      ; 0x4 <__rc2>

00003fa5 <donehyp0att6>:
    3fa5: ea           	nop
    3fa6: a5 04        	lda	$4                      ; 0x4 <__rc2>
    3fa8: d0 03        	bne	$3fad <donehyp0att6+0x8>
    3faa: 4c b4 44     	jmp	$44b4 <donehypclosedir7+0x4f>
    3fad: a2 5f        	ldx	#$5f
    3faf: 86 04        	stx	$4                      ; 0x4 <__rc2>
    3fb1: a2 69        	ldx	#$69
    3fb3: 86 05        	stx	$5                      ; 0x5 <__rc3>
    3fb5: a2 b9        	ldx	#$b9
    3fb7: 86 06        	stx	$6                      ; 0x6 <__zp_data_size>
    3fb9: a2 6c        	ldx	#$6c
    3fbb: 86 07        	stx	$7                      ; 0x7 <__rc5>
    3fbd: a6 18        	ldx	$18                     ; 0x18 <__rc22>
    3fbf: 86 08        	stx	$8                      ; 0x8 <__rc6>
    3fc1: a6 19        	ldx	$19                     ; 0x19 <__rc23>
    3fc3: 86 09        	stx	$9                      ; 0x9 <__rc7>
    3fc5: a9 00        	lda	#$0
    3fc7: 20 99 5a     	jsr	$5a99 <messagebox>
    3fca: a6 21        	ldx	$21                     ; 0x21 <__rc31>
    3fcc: a0 01        	ldy	#$1
    3fce: a5 17        	lda	$17                     ; 0x17 <__rc21>
    3fd0: 85 16        	sta	$16                     ; 0x16 <__rc20>
    3fd2: a5 16        	lda	$16                     ; 0x16 <__rc20>
    3fd4: 85 17        	sta	$17                     ; 0x17 <__rc21>
    3fd6: e4 16        	cpx	$16                     ; 0x16 <__rc20>
    3fd8: b0 26        	bcs	$4000 <donehyp0att6+0x5b>
    3fda: 86 21        	stx	$21                     ; 0x21 <__rc31>
    3fdc: a2 41        	ldx	#$41
    3fde: 86 04        	stx	$4                      ; 0x4 <__rc2>
    3fe0: 64 05        	stz	$5                      ; 0x5 <__rc3>
    3fe2: a2 00        	ldx	#$0
    3fe4: a5 21        	lda	$21                     ; 0x21 <__rc31>
    3fe6: 20 e2 65     	jsr	$65e2 <__mulhi3>
    3fe9: a0 01        	ldy	#$1
    3feb: 85 04        	sta	$4                      ; 0x4 <__rc2>
    3fed: 86 05        	stx	$5                      ; 0x5 <__rc3>
    3fef: a9 5d        	lda	#$5d
    3ff1: 18           	clc
    3ff2: 65 04        	adc	$4                      ; 0x4 <__rc2>
    3ff4: 85 04        	sta	$4                      ; 0x4 <__rc2>
    3ff6: a9 6d        	lda	#$6d
    3ff8: 65 05        	adc	$5                      ; 0x5 <__rc3>
    3ffa: 85 05        	sta	$5                      ; 0x5 <__rc3>
    3ffc: b2 04        	lda	($4),z                  ; 0x4 <__rc2>
    3ffe: d0 02        	bne	$4002 <donehyp0att6+0x5d>
    4000: 64 21        	stz	$21                     ; 0x21 <__rc31>
    4002: a2 5d        	ldx	#$5d
    4004: 86 18        	stx	$18                     ; 0x18 <__rc22>
    4006: a2 6d        	ldx	#$6d
    4008: 86 19        	stx	$19                     ; 0x19 <__rc23>
    400a: a2 49        	ldx	#$49
    400c: 86 04        	stx	$4                      ; 0x4 <__rc2>
    400e: a2 17        	ldx	#$17
    4010: 86 05        	stx	$5                      ; 0x5 <__rc3>
    4012: 84 06        	sty	$6                      ; 0x6 <__zp_data_size>
    4014: a2 03        	ldx	#$3
    4016: a9 08        	lda	#$8
    4018: 20 0a 59     	jsr	$590a <mcbox>
    401b: a9 20        	lda	#$20
    401d: 05 27        	ora	$27                     ; 0x27 <g_curTextColor>
    401f: 85 27        	sta	$27                     ; 0x27 <g_curTextColor>
    4021: a2 60        	ldx	#$60
    4023: 86 04        	stx	$4                      ; 0x4 <__rc2>
    4025: a2 6a        	ldx	#$6a
    4027: 86 05        	stx	$5                      ; 0x5 <__rc3>
    4029: a2 03        	ldx	#$3
    402b: a9 0c        	lda	#$c
    402d: 20 f4 58     	jsr	$58f4 <mcputsxy>
    4030: b2 1a        	lda	($1a),z                 ; 0x1a <__rc24>
    4032: 85 20        	sta	$20                     ; 0x20 <__rc30>
    4034: 85 1c        	sta	$1c                     ; 0x1c <__rc26>
    4036: a0 01        	ldy	#$1
    4038: b1 1a        	lda	($1a),y                 ; 0x1a <__rc24>
    403a: a0 17        	ldy	#$17
    403c: 91 02        	sta	($2),y                  ; 0x2 <__rc0>
    403e: 85 1d        	sta	$1d                     ; 0x1d <__rc27>
    4040: b2 1c        	lda	($1c),z                 ; 0x1c <__rc26>
    4042: 64 04        	stz	$4                      ; 0x4 <__rc2>
    4044: 64 05        	stz	$5                      ; 0x5 <__rc3>
    4046: 64 06        	stz	$6                      ; 0x6 <__zp_data_size>
    4048: a2 00        	ldx	#$0
    404a: 20 de 56     	jsr	$56de <csputdec>
    404d: a2 2c        	ldx	#$2c
    404f: 86 04        	stx	$4                      ; 0x4 <__rc2>
    4051: a2 6c        	ldx	#$6c
    4053: 86 05        	stx	$5                      ; 0x5 <__rc3>
    4055: 20 41 58     	jsr	$5841 <msprintf>
    4058: a0 05        	ldy	#$5
    405a: a9 df        	lda	#$df
    405c: 25 27        	and	$27                     ; 0x27 <g_curTextColor>
    405e: 85 27        	sta	$27                     ; 0x27 <g_curTextColor>
    4060: a6 21        	ldx	$21                     ; 0x21 <__rc31>
    4062: 86 1e        	stx	$1e                     ; 0x1e <__rc28>
    4064: 64 1f        	stz	$1f                     ; 0x1f <__rc29>
    4066: c0 17        	cpy	#$17
    4068: d0 03        	bne	$406d <donehyp0att6+0xc8>
    406a: 4c ad 3e     	jmp	$3ead <donehypopendir3+0x33>
    406d: b2 18        	lda	($18),z                 ; 0x18 <__rc22>
    406f: aa           	tax
    4070: a5 27        	lda	$27                     ; 0x27 <g_curTextColor>
    4072: e0 00        	cpx	#$0
    4074: d0 03        	bne	$4079 <donehyp0att6+0xd4>
    4076: 4c af 3e     	jmp	$3eaf <donehypopendir3+0x35>
    4079: a6 1f        	ldx	$1f                     ; 0x1f <__rc29>
    407b: d0 07        	bne	$4084 <donehyp0att6+0xdf>
    407d: a6 1e        	ldx	$1e                     ; 0x1e <__rc28>
    407f: d0 03        	bne	$4084 <donehyp0att6+0xdf>
    4081: 4c a8 3e     	jmp	$3ea8 <donehypopendir3+0x2e>
    4084: 29 df        	and	#$df
    4086: 85 27        	sta	$27                     ; 0x27 <g_curTextColor>
    4088: a6 18        	ldx	$18                     ; 0x18 <__rc22>
    408a: 86 04        	stx	$4                      ; 0x4 <__rc2>
    408c: a6 19        	ldx	$19                     ; 0x19 <__rc23>
    408e: 86 05        	stx	$5                      ; 0x5 <__rc3>
    4090: 5a           	phy
    4091: fa           	plx
    4092: a9 0a        	lda	#$a
    4094: 84 16        	sty	$16                     ; 0x16 <__rc20>
    4096: 20 da 62     	jsr	$62da <cputsxy>
    4099: a4 16        	ldy	$16                     ; 0x16 <__rc20>
    409b: a5 18        	lda	$18                     ; 0x18 <__rc22>
    409d: 18           	clc
    409e: 69 41        	adc	#$41
    40a0: 85 18        	sta	$18                     ; 0x18 <__rc22>
    40a2: a5 19        	lda	$19                     ; 0x19 <__rc23>
    40a4: 69 00        	adc	#$0
    40a6: 85 19        	sta	$19                     ; 0x19 <__rc23>
    40a8: c8           	iny
    40a9: a6 1e        	ldx	$1e                     ; 0x1e <__rc28>
    40ab: c6 1e        	dec	$1e                     ; 0x1e <__rc28>
    40ad: e0 00        	cpx	#$0
    40af: d0 b5        	bne	$4066 <donehyp0att6+0xc1>
    40b1: c6 1f        	dec	$1f                     ; 0x1f <__rc29>
    40b3: 80 b1        	bra	$4066 <donehyp0att6+0xc1>
    40b5: a6 19        	ldx	$19                     ; 0x19 <__rc23>
    40b7: e0 01        	cpx	#$1
    40b9: d0 03        	bne	$40be <donehyp0att6+0x119>
    40bb: 4c cd 41     	jmp	$41cd <donehyp0att6+0x228>
    40be: a6 19        	ldx	$19                     ; 0x19 <__rc23>
    40c0: e0 01        	cpx	#$1
    40c2: f0 03        	beq	$40c7 <donehyp0att6+0x122>
    40c4: 4c 68 43     	jmp	$4368 <donehyp0att6+0x3c3>
    40c7: 4c 5f 43     	jmp	$435f <donehyp0att6+0x3ba>
    40ca: a6 04        	ldx	$4                      ; 0x4 <__rc2>
    40cc: 86 1b        	stx	$1b                     ; 0x1b <__rc25>
    40ce: a6 20        	ldx	$20                     ; 0x20 <__rc30>
    40d0: 86 04        	stx	$4                      ; 0x4 <__rc2>
    40d2: c4 04        	cpy	$4                      ; 0x4 <__rc2>
    40d4: d0 11        	bne	$40e7 <donehyp0att6+0x142>
    40d6: a6 1b        	ldx	$1b                     ; 0x1b <__rc25>
    40d8: 5a           	phy
    40d9: a0 17        	ldy	#$17
    40db: b1 02        	lda	($2),y                  ; 0x2 <__rc0>
    40dd: 7a           	ply
    40de: 85 04        	sta	$4                      ; 0x4 <__rc2>
    40e0: e4 04        	cpx	$4                      ; 0x4 <__rc2>
    40e2: 90 0c        	bcc	$40f0 <donehyp0att6+0x14b>
    40e4: 4c 59 42     	jmp	$4259 <donehyp0att6+0x2b4>
    40e7: 86 04        	stx	$4                      ; 0x4 <__rc2>
    40e9: c4 04        	cpy	$4                      ; 0x4 <__rc2>
    40eb: 90 03        	bcc	$40f0 <donehyp0att6+0x14b>
    40ed: 4c 59 42     	jmp	$4259 <donehyp0att6+0x2b4>
    40f0: a5 1b        	lda	$1b                     ; 0x1b <__rc25>
    40f2: 4a           	lsr
    40f3: aa           	tax
    40f4: a9 00        	lda	#$0
    40f6: 6a           	ror
    40f7: 86 04        	stx	$4                      ; 0x4 <__rc2>
    40f9: 46 04        	lsr	$4                      ; 0x4 <__rc2>
    40fb: 6a           	ror
    40fc: 46 04        	lsr	$4                      ; 0x4 <__rc2>
    40fe: 6a           	ror
    40ff: 18           	clc
    4100: 65 18        	adc	$18                     ; 0x18 <__rc22>
    4102: 85 0d        	sta	$d                      ; 0xd <__rc11>
    4104: a5 04        	lda	$4                      ; 0x4 <__rc2>
    4106: 65 17        	adc	$17                     ; 0x17 <__rc21>
    4108: 85 0c        	sta	$c                      ; 0xc <__rc10>
    410a: a5 16        	lda	$16                     ; 0x16 <__rc20>
    410c: 69 00        	adc	#$0
    410e: 85 04        	sta	$4                      ; 0x4 <__rc2>
    4110: a5 21        	lda	$21                     ; 0x21 <__rc31>
    4112: 69 00        	adc	#$0
    4114: aa           	tax
    4115: a5 04        	lda	$4                      ; 0x4 <__rc2>
    4117: 5a           	phy
    4118: a0 0e        	ldy	#$e
    411a: 91 02        	sta	($2),y                  ; 0x2 <__rc0>
    411c: 86 05        	stx	$5                      ; 0x5 <__rc3>
    411e: 8a           	txa
    411f: 88           	dey
    4120: 91 02        	sta	($2),y                  ; 0x2 <__rc0>
    4122: 7a           	ply
    4123: 84 06        	sty	$6                      ; 0x6 <__zp_data_size>
    4125: a2 1a        	ldx	#$1a
    4127: 86 07        	stx	$7                      ; 0x7 <__rc5>
    4129: 84 08        	sty	$8                      ; 0x8 <__rc6>
    412b: 84 09        	sty	$9                      ; 0x9 <__rc7>
    412d: a2 20        	ldx	#$20
    412f: 86 0a        	stx	$a                      ; 0xa <__rc8>
    4131: 84 0b        	sty	$b                      ; 0xb <__rc9>
    4133: a6 0c        	ldx	$c                      ; 0xc <__rc10>
    4135: 86 1c        	stx	$1c                     ; 0x1c <__rc26>
    4137: a6 0c        	ldx	$c                      ; 0xc <__rc10>
    4139: a4 0d        	ldy	$d                      ; 0xd <__rc11>
    413b: 84 1d        	sty	$1d                     ; 0x1d <__rc27>
    413d: a5 0d        	lda	$d                      ; 0xd <__rc11>
    413f: 20 91 64     	jsr	$6491 <lcopy>
    4142: a5 1b        	lda	$1b                     ; 0x1b <__rc25>
    4144: f0 13        	beq	$4159 <donehyp0att6+0x1b4>
    4146: a5 1b        	lda	$1b                     ; 0x1b <__rc25>
    4148: 29 07        	and	#$7
    414a: d0 0d        	bne	$4159 <donehyp0att6+0x1b4>
    414c: a6 1a        	ldx	$1a                     ; 0x1a <__rc24>
    414e: 8a           	txa
    414f: a0 10        	ldy	#$10
    4151: 91 02        	sta	($2),y                  ; 0x2 <__rc0>
    4153: a6 19        	ldx	$19                     ; 0x19 <__rc23>
    4155: 8a           	txa
    4156: c8           	iny
    4157: 91 02        	sta	($2),y                  ; 0x2 <__rc0>
    4159: ae 00 1a     	ldx	$1a00                   ; 0x1a00 <__bss_size+0x124d>
    415c: f0 16        	beq	$4174 <donehyp0att6+0x1cf>
    415e: 18           	clc
    415f: a0 17        	ldy	#$17
    4161: b1 02        	lda	($2),y                  ; 0x2 <__rc0>
    4163: 69 08        	adc	#$8
    4165: 91 02        	sta	($2),y                  ; 0x2 <__rc0>
    4167: a5 20        	lda	$20                     ; 0x20 <__rc30>
    4169: 69 00        	adc	#$0
    416b: 85 20        	sta	$20                     ; 0x20 <__rc30>
    416d: 86 1a        	stx	$1a                     ; 0x1a <__rc24>
    416f: ae 01 1a     	ldx	$1a01                   ; 0x1a01 <__bss_size+0x124e>
    4172: 86 19        	stx	$19                     ; 0x19 <__rc23>
    4174: a0 00        	ldy	#$0
    4176: a9 20        	lda	#$20
    4178: a6 1b        	ldx	$1b                     ; 0x1b <__rc25>
    417a: e8           	inx
    417b: 86 04        	stx	$4                      ; 0x4 <__rc2>
    417d: 48           	pha
    417e: 5a           	phy
    417f: a0 15        	ldy	#$15
    4181: b1 02        	lda	($2),y                  ; 0x2 <__rc0>
    4183: 7a           	ply
    4184: aa           	tax
    4185: 68           	pla
    4186: e4 1b        	cpx	$1b                     ; 0x1b <__rc25>
    4188: f0 03        	beq	$418d <donehyp0att6+0x1e8>
    418a: 4c ca 40     	jmp	$40ca <donehyp0att6+0x125>
    418d: 4c 74 4b     	jmp	$4b74 <donehypclosedir7+0x70f>
    4190: 86 09        	stx	$9                      ; 0x9 <__rc7>
    4192: a2 d4        	ldx	#$d4
    4194: 86 04        	stx	$4                      ; 0x4 <__rc2>
    4196: a2 6c        	ldx	#$6c
    4198: 86 05        	stx	$5                      ; 0x5 <__rc3>
    419a: a9 00        	lda	#$0
    419c: 20 99 5a     	jsr	$5a99 <messagebox>
    419f: aa           	tax
    41a0: f0 03        	beq	$41a5 <donehyp0att6+0x200>
    41a2: 4c 87 42     	jmp	$4287 <donehyp0att6+0x2e2>
    41a5: b2 1e        	lda	($1e),z                 ; 0x1e <__rc28>
    41a7: 48           	pha
    41a8: a0 14        	ldy	#$14
    41aa: b1 02        	lda	($2),y                  ; 0x2 <__rc0>
    41ac: aa           	tax
    41ad: 68           	pla
    41ae: 20 2c 55     	jsr	$552c <getdirent>
    41b1: a0 02        	ldy	#$2
    41b3: 91 1e        	sta	($1e),y                 ; 0x1e <__rc28>
    41b5: 4c 3c 37     	jmp	$373c <main+0x1c4>
    41b8: a9 00        	lda	#$0
    41ba: 91 04        	sta	($4),y                  ; 0x4 <__rc2>
    41bc: 4c 3c 37     	jmp	$373c <main+0x1c4>
    41bf: c9 ff        	cmp	#$ff
    41c1: d0 03        	bne	$41c6 <donehyp0att6+0x221>
    41c3: 4c 88 3e     	jmp	$3e88 <donehypopendir3+0xe>
    41c6: a2 00        	ldx	#$0
    41c8: 64 17        	stz	$17                     ; 0x17 <__rc21>
    41ca: 4c 7a 3d     	jmp	$3d7a <donegetproc0+0x626>
    41cd: a6 18        	ldx	$18                     ; 0x18 <__rc22>
    41cf: e0 f8        	cpx	#$f8
    41d1: f0 03        	beq	$41d6 <donehyp0att6+0x231>
    41d3: 4c be 40     	jmp	$40be <donehyp0att6+0x119>
    41d6: 4c 9f 3b     	jmp	$3b9f <donegetproc0+0x44b>
    41d9: a6 18        	ldx	$18                     ; 0x18 <__rc22>
    41db: e0 f5        	cpx	#$f5
    41dd: f0 03        	beq	$41e2 <donehyp0att6+0x23d>
    41df: 4c ef 3b     	jmp	$3bef <donegetproc0+0x49b>
    41e2: a5 16        	lda	$16                     ; 0x16 <__rc20>
    41e4: 18           	clc
    41e5: 69 1e        	adc	#$1e
    41e7: 85 04        	sta	$4                      ; 0x4 <__rc2>
    41e9: a5 17        	lda	$17                     ; 0x17 <__rc21>
    41eb: 69 00        	adc	#$0
    41ed: 85 05        	sta	$5                      ; 0x5 <__rc3>
    41ef: a0 01        	ldy	#$1
    41f1: b1 04        	lda	($4),y                  ; 0x4 <__rc2>
    41f3: 85 04        	sta	$4                      ; 0x4 <__rc2>
    41f5: 98           	tya
    41f6: 48           	pha
    41f7: 5a           	phy
    41f8: a0 14        	ldy	#$14
    41fa: b1 02        	lda	($2),y                  ; 0x2 <__rc0>
    41fc: 7a           	ply
    41fd: aa           	tax
    41fe: 68           	pla
    41ff: e0 00        	cpx	#$0
    4201: f0 02        	beq	$4205 <donehyp0att6+0x260>
    4203: a9 00        	lda	#$0
    4205: 0a           	asl
    4206: aa           	tax
    4207: bd e5 6c     	lda	$6ce5,x                 ; 0x6ce5 <midnight>
    420a: 85 18        	sta	$18                     ; 0x18 <__rc22>
    420c: 18           	clc
    420d: 69 44        	adc	#$44
    420f: 85 06        	sta	$6                      ; 0x6 <__zp_data_size>
    4211: bd e6 6c     	lda	$6ce6,x                 ; 0x6ce6 <midnight+0x1>
    4214: 85 19        	sta	$19                     ; 0x19 <__rc23>
    4216: 69 00        	adc	#$0
    4218: 85 07        	sta	$7                      ; 0x7 <__rc5>
    421a: b1 06        	lda	($6),y                  ; 0x6 <__zp_data_size>
    421c: c5 04        	cmp	$4                      ; 0x4 <__rc2>
    421e: d0 0a        	bne	$422a <donehyp0att6+0x285>
    4220: a0 1e        	ldy	#$1e
    4222: b1 16        	lda	($16),y                 ; 0x16 <__rc20>
    4224: 85 04        	sta	$4                      ; 0x4 <__rc2>
    4226: a0 44        	ldy	#$44
    4228: b1 18        	lda	($18),y                 ; 0x18 <__rc22>
    422a: c5 04        	cmp	$4                      ; 0x4 <__rc2>
    422c: b0 03        	bcs	$4231 <donehyp0att6+0x28c>
    422e: 4c 94 44     	jmp	$4494 <donehypclosedir7+0x2f>
    4231: a5 16        	lda	$16                     ; 0x16 <__rc20>
    4233: 18           	clc
    4234: 69 05        	adc	#$5
    4236: 85 06        	sta	$6                      ; 0x6 <__zp_data_size>
    4238: a5 17        	lda	$17                     ; 0x17 <__rc21>
    423a: 69 00        	adc	#$0
    423c: 85 07        	sta	$7                      ; 0x7 <__rc5>
    423e: a0 14        	ldy	#$14
    4240: b1 02        	lda	($2),y                  ; 0x2 <__rc0>
    4242: d0 03        	bne	$4247 <donehyp0att6+0x2a2>
    4244: 4c fb 44     	jmp	$44fb <donehypclosedir7+0x96>
    4247: a2 ac        	ldx	#$ac
    4249: 86 08        	stx	$8                      ; 0x8 <__rc6>
    424b: a2 6b        	ldx	#$6b
    424d: 4c 01 45     	jmp	$4501 <donehypclosedir7+0x9c>
    4250: a2 2b        	ldx	#$2b
    4252: 86 08        	stx	$8                      ; 0x8 <__rc6>
    4254: a2 6b        	ldx	#$6b
    4256: 4c 90 41     	jmp	$4190 <donehyp0att6+0x1eb>
    4259: a2 bf        	ldx	#$bf
    425b: 86 04        	stx	$4                      ; 0x4 <__rc2>
    425d: a2 6b        	ldx	#$6b
    425f: 86 05        	stx	$5                      ; 0x5 <__rc3>
    4261: a2 e5        	ldx	#$e5
    4263: 86 06        	stx	$6                      ; 0x6 <__zp_data_size>
    4265: a2 68        	ldx	#$68
    4267: 86 07        	stx	$7                      ; 0x7 <__rc5>
    4269: a9 50        	lda	#$50
    426b: 20 a4 5b     	jsr	$5ba4 <progress>
    426e: b2 1e        	lda	($1e),z                 ; 0x1e <__rc28>
    4270: 48           	pha
    4271: a0 14        	ldy	#$14
    4273: b1 02        	lda	($2),y                  ; 0x2 <__rc0>
    4275: 85 16        	sta	$16                     ; 0x16 <__rc20>
    4277: 68           	pla
    4278: a6 16        	ldx	$16                     ; 0x16 <__rc20>
    427a: 20 db 4e     	jsr	$4edb <PutBAM>
    427d: b2 1e        	lda	($1e),z                 ; 0x1e <__rc28>
    427f: a6 16        	ldx	$16                     ; 0x16 <__rc20>
    4281: 20 1e 60     	jsr	$601e <UpdateSectors>
    4284: 4c a5 41     	jmp	$41a5 <donehyp0att6+0x200>
    4287: a2 03        	ldx	#$3
    4289: 8a           	txa
    428a: a0 11        	ldy	#$11
    428c: 91 02        	sta	($2),y                  ; 0x2 <__rc0>
    428e: a2 79        	ldx	#$79
    4290: 86 04        	stx	$4                      ; 0x4 <__rc2>
    4292: a2 6c        	ldx	#$6c
    4294: 86 05        	stx	$5                      ; 0x5 <__rc3>
    4296: a2 d8        	ldx	#$d8
    4298: 86 06        	stx	$6                      ; 0x6 <__zp_data_size>
    429a: a2 69        	ldx	#$69
    429c: 86 07        	stx	$7                      ; 0x7 <__rc5>
    429e: a9 14        	lda	#$14
    42a0: 20 a4 5b     	jsr	$5ba4 <progress>
    42a3: a9 00        	lda	#$0
    42a5: a0 02        	ldy	#$2
    42a7: 91 16        	sta	($16),y                 ; 0x16 <__rc20>
    42a9: a0 14        	ldy	#$14
    42ab: b1 02        	lda	($2),y                  ; 0x2 <__rc0>
    42ad: 85 16        	sta	$16                     ; 0x16 <__rc20>
    42af: 20 a2 4e     	jsr	$4ea2 <GetBAM>
    42b2: a2 bf        	ldx	#$bf
    42b4: 86 04        	stx	$4                      ; 0x4 <__rc2>
    42b6: a2 6b        	ldx	#$6b
    42b8: 86 05        	stx	$5                      ; 0x5 <__rc3>
    42ba: a2 3b        	ldx	#$3b
    42bc: 86 06        	stx	$6                      ; 0x6 <__zp_data_size>
    42be: a2 6b        	ldx	#$6b
    42c0: 86 07        	stx	$7                      ; 0x7 <__rc5>
    42c2: a9 28        	lda	#$28
    42c4: aa           	tax
    42c5: 48           	pha
    42c6: 8a           	txa
    42c7: a0 10        	ldy	#$10
    42c9: 91 02        	sta	($2),y                  ; 0x2 <__rc0>
    42cb: 68           	pla
    42cc: 20 a4 5b     	jsr	$5ba4 <progress>
    42cf: b2 1e        	lda	($1e),z                 ; 0x1e <__rc28>
    42d1: a0 13        	ldy	#$13
    42d3: 91 02        	sta	($2),y                  ; 0x2 <__rc0>
    42d5: a0 01        	ldy	#$1
    42d7: b1 1e        	lda	($1e),y                 ; 0x1e <__rc28>
    42d9: a0 15        	ldy	#$15
    42db: 91 02        	sta	($2),y                  ; 0x2 <__rc0>
    42dd: 9c 80 d0     	stz	$d080                   ; 0xd080 <__heap_start+0x5b53>
    42e0: 64 04        	stz	$4                      ; 0x4 <__rc2>
    42e2: 64 05        	stz	$5                      ; 0x5 <__rc3>
    42e4: 64 06        	stz	$6                      ; 0x6 <__zp_data_size>
    42e6: a2 0e        	ldx	#$e
    42e8: 86 07        	stx	$7                      ; 0x7 <__rc5>
    42ea: 64 08        	stz	$8                      ; 0x8 <__rc6>
    42ec: 64 09        	stz	$9                      ; 0x9 <__rc7>
    42ee: a2 00        	ldx	#$0
    42f0: a5 16        	lda	$16                     ; 0x16 <__rc20>
    42f2: 20 14 66     	jsr	$6614 <__mulsi3>
    42f5: 85 18        	sta	$18                     ; 0x18 <__rc22>
    42f7: a0 00        	ldy	#$0
    42f9: 86 17        	stx	$17                     ; 0x17 <__rc21>
    42fb: a6 04        	ldx	$4                      ; 0x4 <__rc2>
    42fd: 86 16        	stx	$16                     ; 0x16 <__rc20>
    42ff: a5 05        	lda	$5                      ; 0x5 <__rc3>
    4301: a2 08        	ldx	#$8
    4303: 5a           	phy
    4304: 48           	pha
    4305: 8a           	txa
    4306: a0 17        	ldy	#$17
    4308: 91 02        	sta	($2),y                  ; 0x2 <__rc0>
    430a: 68           	pla
    430b: 09 08        	ora	#$8
    430d: 85 21        	sta	$21                     ; 0x21 <__rc31>
    430f: a0 0f        	ldy	#$f
    4311: 91 02        	sta	($2),y                  ; 0x2 <__rc0>
    4313: 7a           	ply
    4314: 64 20        	stz	$20                     ; 0x20 <__rc30>
    4316: 64 04        	stz	$4                      ; 0x4 <__rc2>
    4318: 64 1a        	stz	$1a                     ; 0x1a <__rc24>
    431a: 64 19        	stz	$19                     ; 0x19 <__rc23>
    431c: 4c ca 40     	jmp	$40ca <donehyp0att6+0x125>
    431f: a9 00        	lda	#$0
    4321: 85 04        	sta	$4                      ; 0x4 <__rc2>
    4323: a9 18        	lda	#$18
    4325: 85 05        	sta	$5                      ; 0x5 <__rc3>
    4327: 84 06        	sty	$6                      ; 0x6 <__zp_data_size>
    4329: 86 16        	stx	$16                     ; 0x16 <__rc20>
    432b: 84 17        	sty	$17                     ; 0x17 <__rc21>
    432d: a0 13        	ldy	#$13
    432f: b1 02        	lda	($2),y                  ; 0x2 <__rc0>
    4331: 20 83 4d     	jsr	$4d83 <GetOneSector>
    4334: a2 00        	ldx	#$0
    4336: 86 04        	stx	$4                      ; 0x4 <__rc2>
    4338: a2 16        	ldx	#$16
    433a: 86 05        	stx	$5                      ; 0x5 <__rc3>
    433c: a2 00        	ldx	#$0
    433e: 86 06        	stx	$6                      ; 0x6 <__zp_data_size>
    4340: a2 17        	ldx	#$17
    4342: 86 07        	stx	$7                      ; 0x7 <__rc5>
    4344: 64 08        	stz	$8                      ; 0x8 <__rc6>
    4346: a6 17        	ldx	$17                     ; 0x17 <__rc21>
    4348: a5 16        	lda	$16                     ; 0x16 <__rc20>
    434a: 20 47 50     	jsr	$5047 <BAMSectorUpdate>
    434d: ae 00 18     	ldx	$1800                   ; 0x1800 <__bss_size+0x104d>
    4350: ac 01 18     	ldy	$1801                   ; 0x1801 <__bss_size+0x104e>
    4353: 8a           	txa
    4354: d0 c9        	bne	$431f <donehyp0att6+0x37a>
    4356: 4c 37 4c     	jmp	$4c37 <donehypclosedir7+0x7d2>
    4359: 3a           	dec
    435a: 91 04        	sta	($4),y                  ; 0x4 <__rc2>
    435c: 4c 3c 37     	jmp	$373c <main+0x1c4>
    435f: a6 18        	ldx	$18                     ; 0x18 <__rc22>
    4361: e0 fa        	cpx	#$fa
    4363: d0 03        	bne	$4368 <donehyp0att6+0x3c3>
    4365: 4c 20 3e     	jmp	$3e20 <donehypreaddir1+0x7c>
    4368: a6 19        	ldx	$19                     ; 0x19 <__rc23>
    436a: e0 08        	cpx	#$8
    436c: f0 03        	beq	$4371 <donehyp0att6+0x3cc>
    436e: 4c ec 43     	jmp	$43ec <donehyp0att6+0x447>
    4371: a6 18        	ldx	$18                     ; 0x18 <__rc22>
    4373: e0 f6        	cpx	#$f6
    4375: f0 03        	beq	$437a <donehyp0att6+0x3d5>
    4377: 4c ec 43     	jmp	$43ec <donehyp0att6+0x447>
    437a: 85 1a        	sta	$1a                     ; 0x1a <__rc24>
    437c: a2 dc        	ldx	#$dc
    437e: 86 04        	stx	$4                      ; 0x4 <__rc2>
    4380: a2 69        	ldx	#$69
    4382: 86 05        	stx	$5                      ; 0x5 <__rc3>
    4384: a2 c8        	ldx	#$c8
    4386: 86 06        	stx	$6                      ; 0x6 <__zp_data_size>
    4388: a2 6a        	ldx	#$6a
    438a: 86 07        	stx	$7                      ; 0x7 <__rc5>
    438c: a2 ac        	ldx	#$ac
    438e: 86 08        	stx	$8                      ; 0x8 <__rc6>
    4390: a2 68        	ldx	#$68
    4392: 86 09        	stx	$9                      ; 0x9 <__rc7>
    4394: a9 00        	lda	#$0
    4396: 20 99 5a     	jsr	$5a99 <messagebox>
    4399: aa           	tax
    439a: d0 03        	bne	$439f <donehyp0att6+0x3fa>
    439c: 4c 3c 37     	jmp	$373c <main+0x1c4>
    439f: a0 14        	ldy	#$14
    43a1: b1 02        	lda	($2),y                  ; 0x2 <__rc0>
    43a3: 0a           	asl
    43a4: 85 04        	sta	$4                      ; 0x4 <__rc2>
    43a6: a9 00        	lda	#$0
    43a8: 2a           	rol
    43a9: 85 05        	sta	$5                      ; 0x5 <__rc3>
    43ab: a9 e5        	lda	#$e5
    43ad: 18           	clc
    43ae: 65 04        	adc	$4                      ; 0x4 <__rc2>
    43b0: 85 06        	sta	$6                      ; 0x6 <__zp_data_size>
    43b2: a9 6c        	lda	#$6c
    43b4: 65 05        	adc	$5                      ; 0x5 <__rc3>
    43b6: a0 01        	ldy	#$1
    43b8: 85 07        	sta	$7                      ; 0x7 <__rc5>
    43ba: b2 06        	lda	($6),z                  ; 0x6 <__zp_data_size>
    43bc: 85 04        	sta	$4                      ; 0x4 <__rc2>
    43be: b1 06        	lda	($6),y                  ; 0x6 <__zp_data_size>
    43c0: 85 05        	sta	$5                      ; 0x5 <__rc3>
    43c2: 64 18        	stz	$18                     ; 0x18 <__rc22>
    43c4: 84 08        	sty	$8                      ; 0x8 <__rc6>
    43c6: a0 14        	ldy	#$14
    43c8: b1 02        	lda	($2),y                  ; 0x2 <__rc0>
    43ca: f0 02        	beq	$43ce <donehyp0att6+0x429>
    43cc: 64 08        	stz	$8                      ; 0x8 <__rc6>
    43ce: b2 04        	lda	($4),z                  ; 0x4 <__rc2>
    43d0: 85 1d        	sta	$1d                     ; 0x1d <__rc27>
    43d2: 06 08        	asl	$8                      ; 0x8 <__rc6>
    43d4: a6 08        	ldx	$8                      ; 0x8 <__rc6>
    43d6: bc e5 6c     	ldy	$6ce5,x                 ; 0x6ce5 <midnight>
    43d9: bd e6 6c     	lda	$6ce6,x                 ; 0x6ce6 <midnight+0x1>
    43dc: aa           	tax
    43dd: 84 16        	sty	$16                     ; 0x16 <__rc20>
    43df: a0 01        	ldy	#$1
    43e1: 86 17        	stx	$17                     ; 0x17 <__rc21>
    43e3: 64 19        	stz	$19                     ; 0x19 <__rc23>
    43e5: b2 16        	lda	($16),z                 ; 0x16 <__rc20>
    43e7: 85 1b        	sta	$1b                     ; 0x1b <__rc25>
    43e9: 4c d0 3a     	jmp	$3ad0 <donegetproc0+0x37c>
    43ec: a6 19        	ldx	$19                     ; 0x19 <__rc23>
    43ee: e0 02        	cpx	#$2
    43f0: d0 09        	bne	$43fb <donehyp0att6+0x456>
    43f2: a6 18        	ldx	$18                     ; 0x18 <__rc22>
    43f4: e0 f2        	cpx	#$f2
    43f6: d0 03        	bne	$43fb <donehyp0att6+0x456>
    43f8: 4c 49 3e     	jmp	$3e49 <donehypreaddir1+0xa5>
    43fb: a6 19        	ldx	$19                     ; 0x19 <__rc23>
    43fd: e0 02        	cpx	#$2
    43ff: d0 09        	bne	$440a <donehyp0att6+0x465>
    4401: a6 18        	ldx	$18                     ; 0x18 <__rc22>
    4403: e0 f8        	cpx	#$f8
    4405: d0 03        	bne	$440a <donehyp0att6+0x465>
    4407: 4c 9f 3b     	jmp	$3b9f <donegetproc0+0x44b>
    440a: a6 19        	ldx	$19                     ; 0x19 <__rc23>
    440c: e0 02        	cpx	#$2
    440e: d0 09        	bne	$4419 <donehyp0att6+0x474>
    4410: a6 18        	ldx	$18                     ; 0x18 <__rc22>
    4412: e0 fa        	cpx	#$fa
    4414: d0 03        	bne	$4419 <donehyp0att6+0x474>
    4416: 4c 20 3e     	jmp	$3e20 <donehypreaddir1+0x7c>
    4419: a6 19        	ldx	$19                     ; 0x19 <__rc23>
    441b: e0 04        	cpx	#$4
    441d: d0 53        	bne	$4472 <donehypclosedir7+0xd>
    441f: a6 18        	ldx	$18                     ; 0x18 <__rc22>
    4421: e0 12        	cpx	#$12
    4423: d0 4d        	bne	$4472 <donehypclosedir7+0xd>
    4425: a0 14        	ldy	#$14
    4427: b1 02        	lda	($2),y                  ; 0x2 <__rc0>
    4429: aa           	tax
    442a: 0a           	asl
    442b: 85 04        	sta	$4                      ; 0x4 <__rc2>
    442d: a9 00        	lda	#$0
    442f: 2a           	rol
    4430: 85 05        	sta	$5                      ; 0x5 <__rc3>
    4432: a9 e5        	lda	#$e5
    4434: 18           	clc
    4435: 65 04        	adc	$4                      ; 0x4 <__rc2>
    4437: 85 04        	sta	$4                      ; 0x4 <__rc2>
    4439: a9 6c        	lda	#$6c
    443b: 65 05        	adc	$5                      ; 0x5 <__rc3>
    443d: 85 05        	sta	$5                      ; 0x5 <__rc3>
    443f: b2 04        	lda	($4),z                  ; 0x4 <__rc2>
    4441: 85 06        	sta	$6                      ; 0x6 <__zp_data_size>
    4443: a0 01        	ldy	#$1
    4445: b1 04        	lda	($4),y                  ; 0x4 <__rc2>
    4447: 85 07        	sta	$7                      ; 0x7 <__rc5>
    4449: b2 06        	lda	($6),z                  ; 0x6 <__zp_data_size>
    444b: 20 1e 60     	jsr	$601e <UpdateSectors>
    444e: 4c 3c 37     	jmp	$373c <main+0x1c4>
    4451: a6 17        	ldx	$17                     ; 0x17 <__rc21>
    4453: 86 16        	stx	$16                     ; 0x16 <__rc20>
    4455: aa           	tax
    4456: a9 16        	lda	#$16
    4458: 8d 40 d6     	sta	$d640                   ; 0xd640 <__heap_start+0x6113>
    445b: b8           	clv
    445c: 90 05        	bcc	$4463 <errhypclosedir7>
    445e: 86 04        	stx	$4                      ; 0x4 <__rc2>
    4460: 4c 65 44     	jmp	$4465 <donehypclosedir7>

00004463 <errhypclosedir7>:
    4463: 85 04        	sta	$4                      ; 0x4 <__rc2>

00004465 <donehypclosedir7>:
    4465: ea           	nop
    4466: 4c 88 3e     	jmp	$3e88 <donehypopendir3+0xe>
    4469: a2 d6        	ldx	#$d6
    446b: 86 08        	stx	$8                      ; 0x8 <__rc6>
    446d: a2 68        	ldx	#$68
    446f: 4c 90 41     	jmp	$4190 <donehyp0att6+0x1eb>
    4472: a6 19        	ldx	$19                     ; 0x19 <__rc23>
    4474: e0 02        	cpx	#$2
    4476: d0 09        	bne	$4481 <donehypclosedir7+0x1c>
    4478: a6 18        	ldx	$18                     ; 0x18 <__rc22>
    447a: e0 91        	cpx	#$91
    447c: d0 03        	bne	$4481 <donehypclosedir7+0x1c>
    447e: 4c da 3c     	jmp	$3cda <donegetproc0+0x586>
    4481: 84 04        	sty	$4                      ; 0x4 <__rc2>
    4483: 84 05        	sty	$5                      ; 0x5 <__rc3>
    4485: a6 19        	ldx	$19                     ; 0x19 <__rc23>
    4487: a5 18        	lda	$18                     ; 0x18 <__rc22>
    4489: 20 b7 58     	jsr	$58b7 <mh4printf>
    448c: a9 20        	lda	#$20
    448e: 20 b1 61     	jsr	$61b1 <cputc>
    4491: 4c 3c 37     	jmp	$373c <main+0x1c4>
    4494: a2 79        	ldx	#$79
    4496: 86 04        	stx	$4                      ; 0x4 <__rc2>
    4498: a2 69        	ldx	#$69
    449a: 86 05        	stx	$5                      ; 0x5 <__rc3>
    449c: a2 21        	ldx	#$21
    449e: 86 06        	stx	$6                      ; 0x6 <__zp_data_size>
    44a0: a2 69        	ldx	#$69
    44a2: 86 07        	stx	$7                      ; 0x7 <__rc5>
    44a4: a2 ac        	ldx	#$ac
    44a6: 86 08        	stx	$8                      ; 0x8 <__rc6>
    44a8: a2 68        	ldx	#$68
    44aa: 86 09        	stx	$9                      ; 0x9 <__rc7>
    44ac: a9 00        	lda	#$0
    44ae: 20 99 5a     	jsr	$5a99 <messagebox>
    44b1: 4c a5 41     	jmp	$41a5 <donehyp0att6+0x200>
    44b4: b2 1c        	lda	($1c),z                 ; 0x1c <__rc26>
    44b6: 48           	pha
    44b7: a0 14        	ldy	#$14
    44b9: b1 02        	lda	($2),y                  ; 0x2 <__rc0>
    44bb: 85 16        	sta	$16                     ; 0x16 <__rc20>
    44bd: 68           	pla
    44be: a6 16        	ldx	$16                     ; 0x16 <__rc20>
    44c0: 20 1e 60     	jsr	$601e <UpdateSectors>
    44c3: 18           	clc
    44c4: a5 20        	lda	$20                     ; 0x20 <__rc30>
    44c6: 69 03        	adc	#$3
    44c8: aa           	tax
    44c9: a0 17        	ldy	#$17
    44cb: b1 02        	lda	($2),y                  ; 0x2 <__rc0>
    44cd: 69 00        	adc	#$0
    44cf: 86 04        	stx	$4                      ; 0x4 <__rc2>
    44d1: 85 05        	sta	$5                      ; 0x5 <__rc3>
    44d3: a6 18        	ldx	$18                     ; 0x18 <__rc22>
    44d5: 86 06        	stx	$6                      ; 0x6 <__zp_data_size>
    44d7: a6 19        	ldx	$19                     ; 0x19 <__rc23>
    44d9: 86 07        	stx	$7                      ; 0x7 <__rc5>
    44db: 20 48 65     	jsr	$6548 <strcpy>
    44de: b2 1c        	lda	($1c),z                 ; 0x1c <__rc26>
    44e0: a6 16        	ldx	$16                     ; 0x16 <__rc20>
    44e2: 20 1e 60     	jsr	$601e <UpdateSectors>
    44e5: 4c 3c 37     	jmp	$373c <main+0x1c4>
    44e8: 64 18        	stz	$18                     ; 0x18 <__rc22>
    44ea: a2 01        	ldx	#$1
    44ec: 64 19        	stz	$19                     ; 0x19 <__rc23>
    44ee: 4c 62 3b     	jmp	$3b62 <donegetproc0+0x40e>
    44f1: b2 16        	lda	($16),z                 ; 0x16 <__rc20>
    44f3: a6 1a        	ldx	$1a                     ; 0x1a <__rc24>
    44f5: 20 1e 60     	jsr	$601e <UpdateSectors>
    44f8: 4c 3c 37     	jmp	$373c <main+0x1c4>
    44fb: a2 83        	ldx	#$83
    44fd: 86 08        	stx	$8                      ; 0x8 <__rc6>
    44ff: a2 6a        	ldx	#$6a
    4501: 86 09        	stx	$9                      ; 0x9 <__rc7>
    4503: a2 79        	ldx	#$79
    4505: 86 04        	stx	$4                      ; 0x4 <__rc2>
    4507: a2 69        	ldx	#$69
    4509: 86 05        	stx	$5                      ; 0x5 <__rc3>
    450b: a9 00        	lda	#$0
    450d: 20 99 5a     	jsr	$5a99 <messagebox>
    4510: aa           	tax
    4511: d0 03        	bne	$4516 <donehypclosedir7+0xb1>
    4513: 4c a5 41     	jmp	$41a5 <donehyp0att6+0x200>
    4516: a2 79        	ldx	#$79
    4518: 86 04        	stx	$4                      ; 0x4 <__rc2>
    451a: a2 6c        	ldx	#$6c
    451c: 86 05        	stx	$5                      ; 0x5 <__rc3>
    451e: a5 04        	lda	$4                      ; 0x4 <__rc2>
    4520: a0 17        	ldy	#$17
    4522: 91 02        	sta	($2),y                  ; 0x2 <__rc0>
    4524: a5 05        	lda	$5                      ; 0x5 <__rc3>
    4526: c8           	iny
    4527: 91 02        	sta	($2),y                  ; 0x2 <__rc0>
    4529: 88           	dey
    452a: b1 02        	lda	($2),y                  ; 0x2 <__rc0>
    452c: 85 04        	sta	$4                      ; 0x4 <__rc2>
    452e: c8           	iny
    452f: b1 02        	lda	($2),y                  ; 0x2 <__rc0>
    4531: 85 05        	sta	$5                      ; 0x5 <__rc3>
    4533: a2 0f        	ldx	#$f
    4535: 86 06        	stx	$6                      ; 0x6 <__zp_data_size>
    4537: a2 6c        	ldx	#$6c
    4539: 86 07        	stx	$7                      ; 0x7 <__rc5>
    453b: a9 14        	lda	#$14
    453d: 20 a4 5b     	jsr	$5ba4 <progress>
    4540: b2 1e        	lda	($1e),z                 ; 0x1e <__rc28>
    4542: 85 08        	sta	$8                      ; 0x8 <__rc6>
    4544: a0 03        	ldy	#$3
    4546: b1 16        	lda	($16),y                 ; 0x16 <__rc20>
    4548: 85 09        	sta	$9                      ; 0x9 <__rc7>
    454a: c8           	iny
    454b: b1 16        	lda	($16),y                 ; 0x16 <__rc20>
    454d: 64 04        	stz	$4                      ; 0x4 <__rc2>
    454f: a2 08        	ldx	#$8
    4551: 86 05        	stx	$5                      ; 0x5 <__rc3>
    4553: a2 80        	ldx	#$80
    4555: 86 06        	stx	$6                      ; 0x6 <__zp_data_size>
    4557: a2 0c        	ldx	#$c
    4559: 86 07        	stx	$7                      ; 0x7 <__rc5>
    455b: 85 0a        	sta	$a                      ; 0xa <__rc8>
    455d: a2 20        	ldx	#$20
    455f: a9 00        	lda	#$0
    4561: 20 3b 4f     	jsr	$4f3b <readblockchain>
    4564: a0 17        	ldy	#$17
    4566: b1 02        	lda	($2),y                  ; 0x2 <__rc0>
    4568: 85 04        	sta	$4                      ; 0x4 <__rc2>
    456a: c8           	iny
    456b: b1 02        	lda	($2),y                  ; 0x2 <__rc0>
    456d: 85 05        	sta	$5                      ; 0x5 <__rc3>
    456f: a2 d8        	ldx	#$d8
    4571: 86 06        	stx	$6                      ; 0x6 <__zp_data_size>
    4573: a2 69        	ldx	#$69
    4575: 86 07        	stx	$7                      ; 0x7 <__rc5>
    4577: a9 1e        	lda	#$1e
    4579: 20 a4 5b     	jsr	$5ba4 <progress>
    457c: a0 14        	ldy	#$14
    457e: b1 02        	lda	($2),y                  ; 0x2 <__rc0>
    4580: 49 01        	eor	#$1
    4582: a0 0f        	ldy	#$f
    4584: 91 02        	sta	($2),y                  ; 0x2 <__rc0>
    4586: 20 a2 4e     	jsr	$4ea2 <GetBAM>
    4589: a2 bf        	ldx	#$bf
    458b: 86 04        	stx	$4                      ; 0x4 <__rc2>
    458d: a2 6b        	ldx	#$6b
    458f: 86 05        	stx	$5                      ; 0x5 <__rc3>
    4591: a2 b5        	ldx	#$b5
    4593: 86 06        	stx	$6                      ; 0x6 <__zp_data_size>
    4595: a2 68        	ldx	#$68
    4597: 86 07        	stx	$7                      ; 0x7 <__rc5>
    4599: a9 28        	lda	#$28
    459b: 20 a4 5b     	jsr	$5ba4 <progress>
    459e: 18           	clc
    459f: a5 02        	lda	$2                      ; 0x2 <__rc0>
    45a1: 69 1c        	adc	#$1c
    45a3: 85 20        	sta	$20                     ; 0x20 <__rc30>
    45a5: a5 03        	lda	$3                      ; 0x3 <__rc1>
    45a7: 69 00        	adc	#$0
    45a9: 85 21        	sta	$21                     ; 0x21 <__rc31>
    45ab: a9 00        	lda	#$0
    45ad: 92 20        	sta	($20),z                 ; 0x20 <__rc30>
    45af: 18           	clc
    45b0: a5 02        	lda	$2                      ; 0x2 <__rc0>
    45b2: 69 1b        	adc	#$1b
    45b4: 85 1a        	sta	$1a                     ; 0x1a <__rc24>
    45b6: a5 03        	lda	$3                      ; 0x3 <__rc1>
    45b8: 69 00        	adc	#$0
    45ba: 85 1b        	sta	$1b                     ; 0x1b <__rc25>
    45bc: a9 ff        	lda	#$ff
    45be: aa           	tax
    45bf: 48           	pha
    45c0: 8a           	txa
    45c1: a0 15        	ldy	#$15
    45c3: 91 02        	sta	($2),y                  ; 0x2 <__rc0>
    45c5: 68           	pla
    45c6: 92 1a        	sta	($1a),z                 ; 0x1a <__rc24>
    45c8: a5 18        	lda	$18                     ; 0x18 <__rc22>
    45ca: a0 11        	ldy	#$11
    45cc: 91 02        	sta	($2),y                  ; 0x2 <__rc0>
    45ce: a5 19        	lda	$19                     ; 0x19 <__rc23>
    45d0: c8           	iny
    45d1: 91 02        	sta	($2),y                  ; 0x2 <__rc0>
    45d3: b2 18        	lda	($18),z                 ; 0x18 <__rc22>
    45d5: c8           	iny
    45d6: 91 02        	sta	($2),y                  ; 0x2 <__rc0>
    45d8: 9c 80 d0     	stz	$d080                   ; 0xd080 <__heap_start+0x5b53>
    45db: 18           	clc
    45dc: a5 02        	lda	$2                      ; 0x2 <__rc0>
    45de: 69 1a        	adc	#$1a
    45e0: 85 18        	sta	$18                     ; 0x18 <__rc22>
    45e2: a5 03        	lda	$3                      ; 0x3 <__rc1>
    45e4: 69 00        	adc	#$0
    45e6: 85 19        	sta	$19                     ; 0x19 <__rc23>
    45e8: a6 18        	ldx	$18                     ; 0x18 <__rc22>
    45ea: 86 04        	stx	$4                      ; 0x4 <__rc2>
    45ec: 85 05        	sta	$5                      ; 0x5 <__rc3>
    45ee: 18           	clc
    45ef: a5 02        	lda	$2                      ; 0x2 <__rc0>
    45f1: 69 19        	adc	#$19
    45f3: 85 1c        	sta	$1c                     ; 0x1c <__rc26>
    45f5: a5 03        	lda	$3                      ; 0x3 <__rc1>
    45f7: 69 00        	adc	#$0
    45f9: 85 1d        	sta	$1d                     ; 0x1d <__rc27>
    45fb: a6 1c        	ldx	$1c                     ; 0x1c <__rc26>
    45fd: 86 06        	stx	$6                      ; 0x6 <__zp_data_size>
    45ff: 85 07        	sta	$7                      ; 0x7 <__rc5>
    4601: 64 08        	stz	$8                      ; 0x8 <__rc6>
    4603: a9 00        	lda	#$0
    4605: a0 17        	ldy	#$17
    4607: 91 02        	sta	($2),y                  ; 0x2 <__rc0>
    4609: a9 00        	lda	#$0
    460b: 20 97 52     	jsr	$5297 <findnextBAMtracksector>
    460e: b2 1c        	lda	($1c),z                 ; 0x1c <__rc26>
    4610: a0 10        	ldy	#$10
    4612: 91 02        	sta	($2),y                  ; 0x2 <__rc0>
    4614: 85 1c        	sta	$1c                     ; 0x1c <__rc26>
    4616: b2 18        	lda	($18),z                 ; 0x18 <__rc22>
    4618: a0 0e        	ldy	#$e
    461a: 91 02        	sta	($2),y                  ; 0x2 <__rc0>
    461c: 85 1d        	sta	$1d                     ; 0x1d <__rc27>
    461e: a0 00        	ldy	#$0
    4620: a2 00        	ldx	#$0
    4622: e0 0c        	cpx	#$c
    4624: d0 07        	bne	$462d <donehypclosedir7+0x1c8>
    4626: c0 80        	cpy	#$80
    4628: d0 03        	bne	$462d <donehypclosedir7+0x1c8>
    462a: 4c be 46     	jmp	$46be <donehypclosedir7+0x259>
    462d: 18           	clc
    462e: 84 19        	sty	$19                     ; 0x19 <__rc23>
    4630: 98           	tya
    4631: 69 20        	adc	#$20
    4633: 85 0c        	sta	$c                      ; 0xc <__rc10>
    4635: 86 18        	stx	$18                     ; 0x18 <__rc22>
    4637: 8a           	txa
    4638: 69 00        	adc	#$0
    463a: 85 04        	sta	$4                      ; 0x4 <__rc2>
    463c: a9 00        	lda	#$0
    463e: 69 08        	adc	#$8
    4640: 85 05        	sta	$5                      ; 0x5 <__rc3>
    4642: 64 06        	stz	$6                      ; 0x6 <__zp_data_size>
    4644: a2 18        	ldx	#$18
    4646: 86 07        	stx	$7                      ; 0x7 <__rc5>
    4648: 64 08        	stz	$8                      ; 0x8 <__rc6>
    464a: 64 09        	stz	$9                      ; 0x9 <__rc7>
    464c: 64 0a        	stz	$a                      ; 0xa <__rc8>
    464e: a2 01        	ldx	#$1
    4650: 86 0b        	stx	$b                      ; 0xb <__rc9>
    4652: a6 0c        	ldx	$c                      ; 0xc <__rc10>
    4654: a9 00        	lda	#$0
    4656: 20 91 64     	jsr	$6491 <lcopy>
    4659: ae 00 18     	ldx	$1800                   ; 0x1800 <__bss_size+0x104d>
    465c: f0 2b        	beq	$4689 <donehypclosedir7+0x224>
    465e: a6 20        	ldx	$20                     ; 0x20 <__rc30>
    4660: 86 04        	stx	$4                      ; 0x4 <__rc2>
    4662: a6 21        	ldx	$21                     ; 0x21 <__rc31>
    4664: 86 05        	stx	$5                      ; 0x5 <__rc3>
    4666: a6 1a        	ldx	$1a                     ; 0x1a <__rc24>
    4668: 86 06        	stx	$6                      ; 0x6 <__zp_data_size>
    466a: a6 1b        	ldx	$1b                     ; 0x1b <__rc25>
    466c: 86 07        	stx	$7                      ; 0x7 <__rc5>
    466e: a9 00        	lda	#$0
    4670: 20 97 52     	jsr	$5297 <findnextBAMtracksector>
    4673: b2 20        	lda	($20),z                 ; 0x20 <__rc30>
    4675: 8d 00 18     	sta	$1800                   ; 0x1800 <__bss_size+0x104d>
    4678: b2 1a        	lda	($1a),z                 ; 0x1a <__rc24>
    467a: 8d 01 18     	sta	$1801                   ; 0x1801 <__bss_size+0x104e>
    467d: b2 20        	lda	($20),z                 ; 0x20 <__rc30>
    467f: a0 17        	ldy	#$17
    4681: 91 02        	sta	($2),y                  ; 0x2 <__rc0>
    4683: b2 1a        	lda	($1a),z                 ; 0x1a <__rc24>
    4685: a0 15        	ldy	#$15
    4687: 91 02        	sta	($2),y                  ; 0x2 <__rc0>
    4689: a2 00        	ldx	#$0
    468b: 86 04        	stx	$4                      ; 0x4 <__rc2>
    468d: a2 18        	ldx	#$18
    468f: 86 05        	stx	$5                      ; 0x5 <__rc3>
    4691: a6 1c        	ldx	$1c                     ; 0x1c <__rc26>
    4693: 86 06        	stx	$6                      ; 0x6 <__zp_data_size>
    4695: a6 1d        	ldx	$1d                     ; 0x1d <__rc27>
    4697: a0 13        	ldy	#$13
    4699: b1 02        	lda	($2),y                  ; 0x2 <__rc0>
    469b: 20 cd 4d     	jsr	$4dcd <PutOneSector>
    469e: ad 00 18     	lda	$1800                   ; 0x1800 <__bss_size+0x104d>
    46a1: a4 19        	ldy	$19                     ; 0x19 <__rc23>
    46a3: a6 18        	ldx	$18                     ; 0x18 <__rc22>
    46a5: c8           	iny
    46a6: d0 01        	bne	$46a9 <donehypclosedir7+0x244>
    46a8: e8           	inx
    46a9: 48           	pha
    46aa: 5a           	phy
    46ab: a0 15        	ldy	#$15
    46ad: b1 02        	lda	($2),y                  ; 0x2 <__rc0>
    46af: 85 1c        	sta	$1c                     ; 0x1c <__rc26>
    46b1: a0 17        	ldy	#$17
    46b3: b1 02        	lda	($2),y                  ; 0x2 <__rc0>
    46b5: 7a           	ply
    46b6: 85 1d        	sta	$1d                     ; 0x1d <__rc27>
    46b8: 68           	pla
    46b9: f0 26        	beq	$46e1 <donehypclosedir7+0x27c>
    46bb: 4c 22 46     	jmp	$4622 <donehypclosedir7+0x1bd>
    46be: a0 17        	ldy	#$17
    46c0: b1 02        	lda	($2),y                  ; 0x2 <__rc0>
    46c2: f0 1d        	beq	$46e1 <donehypclosedir7+0x27c>
    46c4: a2 01        	ldx	#$1
    46c6: 86 04        	stx	$4                      ; 0x4 <__rc2>
    46c8: a2 6c        	ldx	#$6c
    46ca: 86 05        	stx	$5                      ; 0x5 <__rc3>
    46cc: a2 5b        	ldx	#$5b
    46ce: 86 06        	stx	$6                      ; 0x6 <__zp_data_size>
    46d0: a2 68        	ldx	#$68
    46d2: 86 07        	stx	$7                      ; 0x7 <__rc5>
    46d4: a2 ac        	ldx	#$ac
    46d6: 86 08        	stx	$8                      ; 0x8 <__rc6>
    46d8: a2 68        	ldx	#$68
    46da: 86 09        	stx	$9                      ; 0x9 <__rc7>
    46dc: a9 00        	lda	#$0
    46de: 20 99 5a     	jsr	$5a99 <messagebox>
    46e1: a0 03        	ldy	#$3
    46e3: 5a           	phy
    46e4: a0 0e        	ldy	#$e
    46e6: b1 02        	lda	($2),y                  ; 0x2 <__rc0>
    46e8: 7a           	ply
    46e9: 91 16        	sta	($16),y                 ; 0x16 <__rc20>
    46eb: a0 04        	ldy	#$4
    46ed: 5a           	phy
    46ee: a0 10        	ldy	#$10
    46f0: b1 02        	lda	($2),y                  ; 0x2 <__rc0>
    46f2: 7a           	ply
    46f3: 91 16        	sta	($16),y                 ; 0x16 <__rc20>
    46f5: a2 bf        	ldx	#$bf
    46f7: 86 04        	stx	$4                      ; 0x4 <__rc2>
    46f9: a2 6b        	ldx	#$6b
    46fb: 86 05        	stx	$5                      ; 0x5 <__rc3>
    46fd: a2 ca        	ldx	#$ca
    46ff: 86 06        	stx	$6                      ; 0x6 <__zp_data_size>
    4701: a2 6c        	ldx	#$6c
    4703: 86 07        	stx	$7                      ; 0x7 <__rc5>
    4705: a9 3c        	lda	#$3c
    4707: 20 a4 5b     	jsr	$5ba4 <progress>
    470a: a0 11        	ldy	#$11
    470c: b1 02        	lda	($2),y                  ; 0x2 <__rc0>
    470e: 85 18        	sta	$18                     ; 0x18 <__rc22>
    4710: c8           	iny
    4711: b1 02        	lda	($2),y                  ; 0x2 <__rc0>
    4713: 85 19        	sta	$19                     ; 0x19 <__rc23>
    4715: b2 18        	lda	($18),z                 ; 0x18 <__rc22>
    4717: a0 0e        	ldy	#$e
    4719: 91 02        	sta	($2),y                  ; 0x2 <__rc0>
    471b: 9c 80 d0     	stz	$d080                   ; 0xd080 <__heap_start+0x5b53>
    471e: a0 14        	ldy	#$14
    4720: b1 02        	lda	($2),y                  ; 0x2 <__rc0>
    4722: f0 04        	beq	$4728 <donehypclosedir7+0x2c3>
    4724: 64 1d        	stz	$1d                     ; 0x1d <__rc27>
    4726: 80 04        	bra	$472c <donehypclosedir7+0x2c7>
    4728: a2 0e        	ldx	#$e
    472a: 86 1d        	stx	$1d                     ; 0x1d <__rc27>
    472c: a2 08        	ldx	#$8
    472e: 8a           	txa
    472f: a0 17        	ldy	#$17
    4731: 91 02        	sta	($2),y                  ; 0x2 <__rc0>
    4733: a2 00        	ldx	#$0
    4735: 64 21        	stz	$21                     ; 0x21 <__rc31>
    4737: a0 03        	ldy	#$3
    4739: 98           	tya
    473a: a0 10        	ldy	#$10
    473c: 91 02        	sta	($2),y                  ; 0x2 <__rc0>
    473e: a0 28        	ldy	#$28
    4740: 98           	tya
    4741: a0 13        	ldy	#$13
    4743: 91 02        	sta	($2),y                  ; 0x2 <__rc0>
    4745: a0 08        	ldy	#$8
    4747: 98           	tya
    4748: a0 15        	ldy	#$15
    474a: 91 02        	sta	($2),y                  ; 0x2 <__rc0>
    474c: 64 20        	stz	$20                     ; 0x20 <__rc30>
    474e: 64 1b        	stz	$1b                     ; 0x1b <__rc25>
    4750: a0 00        	ldy	#$0
    4752: 64 1c        	stz	$1c                     ; 0x1c <__rc26>
    4754: 4c 1d 48     	jmp	$481d <donehypclosedir7+0x3b8>
    4757: e4 1c        	cpx	$1c                     ; 0x1c <__rc26>
    4759: 90 03        	bcc	$475e <donehypclosedir7+0x2f9>
    475b: 4c 33 48     	jmp	$4833 <donehypclosedir7+0x3ce>
    475e: 84 06        	sty	$6                      ; 0x6 <__zp_data_size>
    4760: 46 06        	lsr	$6                      ; 0x6 <__zp_data_size>
    4762: 84 1a        	sty	$1a                     ; 0x1a <__rc24>
    4764: a9 00        	lda	#$0
    4766: 6a           	ror
    4767: 46 06        	lsr	$6                      ; 0x6 <__zp_data_size>
    4769: 6a           	ror
    476a: 48           	pha
    476b: a5 06        	lda	$6                      ; 0x6 <__zp_data_size>
    476d: a0 0d        	ldy	#$d
    476f: 91 02        	sta	($2),y                  ; 0x2 <__rc0>
    4771: 68           	pla
    4772: 46 06        	lsr	$6                      ; 0x6 <__zp_data_size>
    4774: 6a           	ror
    4775: 85 04        	sta	$4                      ; 0x4 <__rc2>
    4777: 64 05        	stz	$5                      ; 0x5 <__rc3>
    4779: a9 00        	lda	#$0
    477b: 18           	clc
    477c: 65 04        	adc	$4                      ; 0x4 <__rc2>
    477e: a8           	tay
    477f: a5 06        	lda	$6                      ; 0x6 <__zp_data_size>
    4781: 65 1d        	adc	$1d                     ; 0x1d <__rc27>
    4783: 85 0c        	sta	$c                      ; 0xc <__rc10>
    4785: a9 00        	lda	#$0
    4787: 69 00        	adc	#$0
    4789: aa           	tax
    478a: 5a           	phy
    478b: a0 17        	ldy	#$17
    478d: b1 02        	lda	($2),y                  ; 0x2 <__rc0>
    478f: 69 00        	adc	#$0
    4791: 48           	pha
    4792: 8a           	txa
    4793: a0 0b        	ldy	#$b
    4795: 91 02        	sta	($2),y                  ; 0x2 <__rc0>
    4797: 68           	pla
    4798: 86 04        	stx	$4                      ; 0x4 <__rc2>
    479a: a0 08        	ldy	#$8
    479c: 91 02        	sta	($2),y                  ; 0x2 <__rc0>
    479e: 85 05        	sta	$5                      ; 0x5 <__rc3>
    47a0: 64 06        	stz	$6                      ; 0x6 <__zp_data_size>
    47a2: a2 1b        	ldx	#$1b
    47a4: 86 07        	stx	$7                      ; 0x7 <__rc5>
    47a6: 64 08        	stz	$8                      ; 0x8 <__rc6>
    47a8: 64 09        	stz	$9                      ; 0x9 <__rc7>
    47aa: a2 20        	ldx	#$20
    47ac: 86 0a        	stx	$a                      ; 0xa <__rc8>
    47ae: 64 0b        	stz	$b                      ; 0xb <__rc9>
    47b0: a6 0c        	ldx	$c                      ; 0xc <__rc10>
    47b2: 8a           	txa
    47b3: a0 0c        	ldy	#$c
    47b5: 91 02        	sta	($2),y                  ; 0x2 <__rc0>
    47b7: 7a           	ply
    47b8: 98           	tya
    47b9: a0 09        	ldy	#$9
    47bb: 91 02        	sta	($2),y                  ; 0x2 <__rc0>
    47bd: 20 91 64     	jsr	$6491 <lcopy>
    47c0: a5 1a        	lda	$1a                     ; 0x1a <__rc24>
    47c2: 29 07        	and	#$7
    47c4: f0 06        	beq	$47cc <donehypclosedir7+0x367>
    47c6: a0 01        	ldy	#$1
    47c8: a6 1a        	ldx	$1a                     ; 0x1a <__rc24>
    47ca: 80 19        	bra	$47e5 <donehypclosedir7+0x380>
    47cc: a0 01        	ldy	#$1
    47ce: a6 1a        	ldx	$1a                     ; 0x1a <__rc24>
    47d0: d0 03        	bne	$47d5 <donehypclosedir7+0x370>
    47d2: 4c 66 4c     	jmp	$4c66 <donehypclosedir7+0x801>
    47d5: 86 1b        	stx	$1b                     ; 0x1b <__rc25>
    47d7: a5 20        	lda	$20                     ; 0x20 <__rc30>
    47d9: 5a           	phy
    47da: a0 13        	ldy	#$13
    47dc: 91 02        	sta	($2),y                  ; 0x2 <__rc0>
    47de: a5 21        	lda	$21                     ; 0x21 <__rc31>
    47e0: a0 10        	ldy	#$10
    47e2: 91 02        	sta	($2),y                  ; 0x2 <__rc0>
    47e4: 7a           	ply
    47e5: ad 00 1b     	lda	$1b00                   ; 0x1b00 <__bss_size+0x134d>
    47e8: f0 20        	beq	$480a <donehypclosedir7+0x3a5>
    47ea: 86 04        	stx	$4                      ; 0x4 <__rc2>
    47ec: 18           	clc
    47ed: 85 20        	sta	$20                     ; 0x20 <__rc30>
    47ef: 5a           	phy
    47f0: a0 15        	ldy	#$15
    47f2: b1 02        	lda	($2),y                  ; 0x2 <__rc0>
    47f4: 69 08        	adc	#$8
    47f6: 91 02        	sta	($2),y                  ; 0x2 <__rc0>
    47f8: 7a           	ply
    47f9: a5 1c        	lda	$1c                     ; 0x1c <__rc26>
    47fb: 69 00        	adc	#$0
    47fd: 85 1c        	sta	$1c                     ; 0x1c <__rc26>
    47ff: ae 01 1b     	ldx	$1b01                   ; 0x1b01 <__bss_size+0x134e>
    4802: 86 21        	stx	$21                     ; 0x21 <__rc31>
    4804: a6 20        	ldx	$20                     ; 0x20 <__rc30>
    4806: 86 05        	stx	$5                      ; 0x5 <__rc3>
    4808: 80 04        	bra	$480e <donehypclosedir7+0x3a9>
    480a: 85 05        	sta	$5                      ; 0x5 <__rc3>
    480c: 86 04        	stx	$4                      ; 0x4 <__rc2>
    480e: a9 0f        	lda	#$f
    4810: 2d 02 1b     	and	$1b02                   ; 0x1b02 <__bss_size+0x134f>
    4813: d0 03        	bne	$4818 <donehypclosedir7+0x3b3>
    4815: 4c 6b 4c     	jmp	$4c6b <donehypclosedir7+0x806>
    4818: a4 04        	ldy	$4                      ; 0x4 <__rc2>
    481a: c8           	iny
    481b: a2 00        	ldx	#$0
    481d: e4 1c        	cpx	$1c                     ; 0x1c <__rc26>
    481f: f0 03        	beq	$4824 <donehypclosedir7+0x3bf>
    4821: 4c 57 47     	jmp	$4757 <donehypclosedir7+0x2f2>
    4824: 5a           	phy
    4825: a0 15        	ldy	#$15
    4827: b1 02        	lda	($2),y                  ; 0x2 <__rc0>
    4829: 7a           	ply
    482a: 85 04        	sta	$4                      ; 0x4 <__rc2>
    482c: c4 04        	cpy	$4                      ; 0x4 <__rc2>
    482e: b0 03        	bcs	$4833 <donehypclosedir7+0x3ce>
    4830: 4c 5e 47     	jmp	$475e <donehypclosedir7+0x2f9>
    4833: 46 1b        	lsr	$1b                     ; 0x1b <__rc25>
    4835: a2 01        	ldx	#$1
    4837: b0 02        	bcs	$483b <donehypclosedir7+0x3d6>
    4839: a2 00        	ldx	#$0
    483b: 86 04        	stx	$4                      ; 0x4 <__rc2>
    483d: a6 1b        	ldx	$1b                     ; 0x1b <__rc25>
    483f: 18           	clc
    4840: a5 02        	lda	$2                      ; 0x2 <__rc0>
    4842: 69 1e        	adc	#$1e
    4844: 85 18        	sta	$18                     ; 0x18 <__rc22>
    4846: a5 03        	lda	$3                      ; 0x3 <__rc1>
    4848: 69 00        	adc	#$0
    484a: 85 19        	sta	$19                     ; 0x19 <__rc23>
    484c: 18           	clc
    484d: a5 02        	lda	$2                      ; 0x2 <__rc0>
    484f: 69 1d        	adc	#$1d
    4851: 85 1a        	sta	$1a                     ; 0x1a <__rc24>
    4853: a5 03        	lda	$3                      ; 0x3 <__rc1>
    4855: 69 00        	adc	#$0
    4857: 85 1b        	sta	$1b                     ; 0x1b <__rc25>
    4859: a5 20        	lda	$20                     ; 0x20 <__rc30>
    485b: 92 18        	sta	($18),z                 ; 0x18 <__rc22>
    485d: a5 21        	lda	$21                     ; 0x21 <__rc31>
    485f: 92 1a        	sta	($1a),z                 ; 0x1a <__rc24>
    4861: 84 21        	sty	$21                     ; 0x21 <__rc31>
    4863: a9 00        	lda	#$0
    4865: a4 04        	ldy	$4                      ; 0x4 <__rc2>
    4867: c0 01        	cpy	#$1
    4869: 6a           	ror
    486a: 86 04        	stx	$4                      ; 0x4 <__rc2>
    486c: 46 04        	lsr	$4                      ; 0x4 <__rc2>
    486e: 48           	pha
    486f: a5 04        	lda	$4                      ; 0x4 <__rc2>
    4871: a0 15        	ldy	#$15
    4873: 91 02        	sta	($2),y                  ; 0x2 <__rc0>
    4875: 68           	pla
    4876: 6a           	ror
    4877: 48           	pha
    4878: b1 02        	lda	($2),y                  ; 0x2 <__rc0>
    487a: 85 04        	sta	$4                      ; 0x4 <__rc2>
    487c: 68           	pla
    487d: 46 04        	lsr	$4                      ; 0x4 <__rc2>
    487f: 6a           	ror
    4880: 85 05        	sta	$5                      ; 0x5 <__rc3>
    4882: 64 06        	stz	$6                      ; 0x6 <__zp_data_size>
    4884: a6 1d        	ldx	$1d                     ; 0x1d <__rc27>
    4886: 8a           	txa
    4887: a0 0a        	ldy	#$a
    4889: 91 02        	sta	($2),y                  ; 0x2 <__rc0>
    488b: a9 00        	lda	#$0
    488d: 88           	dey
    488e: 91 02        	sta	($2),y                  ; 0x2 <__rc0>
    4890: 18           	clc
    4891: 65 05        	adc	$5                      ; 0x5 <__rc3>
    4893: 85 1d        	sta	$1d                     ; 0x1d <__rc27>
    4895: 8a           	txa
    4896: 65 04        	adc	$4                      ; 0x4 <__rc2>
    4898: 85 1c        	sta	$1c                     ; 0x1c <__rc26>
    489a: a9 00        	lda	#$0
    489c: 69 00        	adc	#$0
    489e: a8           	tay
    489f: 5a           	phy
    48a0: a0 17        	ldy	#$17
    48a2: b1 02        	lda	($2),y                  ; 0x2 <__rc0>
    48a4: a0 0c        	ldy	#$c
    48a6: 91 02        	sta	($2),y                  ; 0x2 <__rc0>
    48a8: 7a           	ply
    48a9: 69 00        	adc	#$0
    48ab: 85 20        	sta	$20                     ; 0x20 <__rc30>
    48ad: 84 04        	sty	$4                      ; 0x4 <__rc2>
    48af: 48           	pha
    48b0: 98           	tya
    48b1: a0 08        	ldy	#$8
    48b3: 91 02        	sta	($2),y                  ; 0x2 <__rc0>
    48b5: 68           	pla
    48b6: 85 05        	sta	$5                      ; 0x5 <__rc3>
    48b8: a2 1b        	ldx	#$1b
    48ba: 86 07        	stx	$7                      ; 0x7 <__rc5>
    48bc: 64 08        	stz	$8                      ; 0x8 <__rc6>
    48be: 64 09        	stz	$9                      ; 0x9 <__rc7>
    48c0: a2 20        	ldx	#$20
    48c2: 86 0a        	stx	$a                      ; 0xa <__rc8>
    48c4: 64 0b        	stz	$b                      ; 0xb <__rc9>
    48c6: a6 1c        	ldx	$1c                     ; 0x1c <__rc26>
    48c8: a5 1d        	lda	$1d                     ; 0x1d <__rc27>
    48ca: 20 91 64     	jsr	$6491 <lcopy>
    48cd: a6 18        	ldx	$18                     ; 0x18 <__rc22>
    48cf: 86 04        	stx	$4                      ; 0x4 <__rc2>
    48d1: a6 19        	ldx	$19                     ; 0x19 <__rc23>
    48d3: 86 05        	stx	$5                      ; 0x5 <__rc3>
    48d5: a6 1a        	ldx	$1a                     ; 0x1a <__rc24>
    48d7: 86 06        	stx	$6                      ; 0x6 <__zp_data_size>
    48d9: a6 1b        	ldx	$1b                     ; 0x1b <__rc25>
    48db: 86 07        	stx	$7                      ; 0x7 <__rc5>
    48dd: a9 01        	lda	#$1
    48df: 20 97 52     	jsr	$5297 <findnextBAMtracksector>
    48e2: b2 18        	lda	($18),z                 ; 0x18 <__rc22>
    48e4: 8d 00 1b     	sta	$1b00                   ; 0x1b00 <__bss_size+0x134d>
    48e7: b2 1a        	lda	($1a),z                 ; 0x1a <__rc24>
    48e9: 8d 01 1b     	sta	$1b01                   ; 0x1b01 <__bss_size+0x134e>
    48ec: b2 18        	lda	($18),z                 ; 0x18 <__rc22>
    48ee: a0 0d        	ldy	#$d
    48f0: 91 02        	sta	($2),y                  ; 0x2 <__rc0>
    48f2: b2 1a        	lda	($1a),z                 ; 0x1a <__rc24>
    48f4: a0 0b        	ldy	#$b
    48f6: 91 02        	sta	($2),y                  ; 0x2 <__rc0>
    48f8: a6 1d        	ldx	$1d                     ; 0x1d <__rc27>
    48fa: 86 06        	stx	$6                      ; 0x6 <__zp_data_size>
    48fc: a6 1c        	ldx	$1c                     ; 0x1c <__rc26>
    48fe: 86 07        	stx	$7                      ; 0x7 <__rc5>
    4900: a0 08        	ldy	#$8
    4902: b1 02        	lda	($2),y                  ; 0x2 <__rc0>
    4904: 85 08        	sta	$8                      ; 0x8 <__rc6>
    4906: 64 04        	stz	$4                      ; 0x4 <__rc2>
    4908: 64 05        	stz	$5                      ; 0x5 <__rc3>
    490a: a6 20        	ldx	$20                     ; 0x20 <__rc30>
    490c: 86 09        	stx	$9                      ; 0x9 <__rc7>
    490e: a2 20        	ldx	#$20
    4910: 86 0a        	stx	$a                      ; 0xa <__rc8>
    4912: 64 0b        	stz	$b                      ; 0xb <__rc9>
    4914: a2 1b        	ldx	#$1b
    4916: a9 00        	lda	#$0
    4918: 20 91 64     	jsr	$6491 <lcopy>
    491b: a0 15        	ldy	#$15
    491d: b1 02        	lda	($2),y                  ; 0x2 <__rc0>
    491f: 4a           	lsr
    4920: 85 05        	sta	$5                      ; 0x5 <__rc3>
    4922: a9 00        	lda	#$0
    4924: 64 04        	stz	$4                      ; 0x4 <__rc2>
    4926: 18           	clc
    4927: 65 04        	adc	$4                      ; 0x4 <__rc2>
    4929: a2 01        	ldx	#$1
    492b: b0 02        	bcs	$492f <donehypclosedir7+0x4ca>
    492d: a2 00        	ldx	#$0
    492f: 86 1a        	stx	$1a                     ; 0x1a <__rc24>
    4931: a8           	tay
    4932: 84 13        	sty	$13                     ; 0x13 <__rc17>
    4934: a0 08        	ldy	#$8
    4936: 91 02        	sta	($2),y                  ; 0x2 <__rc0>
    4938: a5 05        	lda	$5                      ; 0x5 <__rc3>
    493a: 48           	pha
    493b: a0 0a        	ldy	#$a
    493d: b1 02        	lda	($2),y                  ; 0x2 <__rc0>
    493f: 85 19        	sta	$19                     ; 0x19 <__rc23>
    4941: 68           	pla
    4942: 65 19        	adc	$19                     ; 0x19 <__rc23>
    4944: 85 0c        	sta	$c                      ; 0xc <__rc10>
    4946: a9 00        	lda	#$0
    4948: 65 04        	adc	$4                      ; 0x4 <__rc2>
    494a: aa           	tax
    494b: a9 00        	lda	#$0
    494d: 48           	pha
    494e: a0 17        	ldy	#$17
    4950: b1 02        	lda	($2),y                  ; 0x2 <__rc0>
    4952: a4 13        	ldy	$13                     ; 0x13 <__rc17>
    4954: 85 04        	sta	$4                      ; 0x4 <__rc2>
    4956: 68           	pla
    4957: 65 04        	adc	$4                      ; 0x4 <__rc2>
    4959: 86 04        	stx	$4                      ; 0x4 <__rc2>
    495b: 85 05        	sta	$5                      ; 0x5 <__rc3>
    495d: 64 06        	stz	$6                      ; 0x6 <__zp_data_size>
    495f: a2 18        	ldx	#$18
    4961: 86 07        	stx	$7                      ; 0x7 <__rc5>
    4963: 64 08        	stz	$8                      ; 0x8 <__rc6>
    4965: 64 09        	stz	$9                      ; 0x9 <__rc7>
    4967: 64 0a        	stz	$a                      ; 0xa <__rc8>
    4969: a2 01        	ldx	#$1
    496b: 86 0b        	stx	$b                      ; 0xb <__rc9>
    496d: a6 0c        	ldx	$c                      ; 0xc <__rc10>
    496f: 98           	tya
    4970: 20 91 64     	jsr	$6491 <lcopy>
    4973: a2 00        	ldx	#$0
    4975: 86 04        	stx	$4                      ; 0x4 <__rc2>
    4977: a2 18        	ldx	#$18
    4979: 86 05        	stx	$5                      ; 0x5 <__rc3>
    497b: a5 04        	lda	$4                      ; 0x4 <__rc2>
    497d: a0 15        	ldy	#$15
    497f: 91 02        	sta	($2),y                  ; 0x2 <__rc0>
    4981: a5 05        	lda	$5                      ; 0x5 <__rc3>
    4983: c8           	iny
    4984: 91 02        	sta	($2),y                  ; 0x2 <__rc0>
    4986: 88           	dey
    4987: b1 02        	lda	($2),y                  ; 0x2 <__rc0>
    4989: 85 04        	sta	$4                      ; 0x4 <__rc2>
    498b: c8           	iny
    498c: b1 02        	lda	($2),y                  ; 0x2 <__rc0>
    498e: 85 05        	sta	$5                      ; 0x5 <__rc3>
    4990: a0 10        	ldy	#$10
    4992: b1 02        	lda	($2),y                  ; 0x2 <__rc0>
    4994: 85 06        	sta	$6                      ; 0x6 <__zp_data_size>
    4996: a0 13        	ldy	#$13
    4998: b1 02        	lda	($2),y                  ; 0x2 <__rc0>
    499a: aa           	tax
    499b: a0 0e        	ldy	#$e
    499d: b1 02        	lda	($2),y                  ; 0x2 <__rc0>
    499f: 85 20        	sta	$20                     ; 0x20 <__rc30>
    49a1: 20 cd 4d     	jsr	$4dcd <PutOneSector>
    49a4: 46 21        	lsr	$21                     ; 0x21 <__rc31>
    49a6: a9 00        	lda	#$0
    49a8: 6a           	ror
    49a9: 46 21        	lsr	$21                     ; 0x21 <__rc31>
    49ab: 6a           	ror
    49ac: a6 21        	ldx	$21                     ; 0x21 <__rc31>
    49ae: 86 05        	stx	$5                      ; 0x5 <__rc3>
    49b0: 46 05        	lsr	$5                      ; 0x5 <__rc3>
    49b2: 6a           	ror
    49b3: 85 04        	sta	$4                      ; 0x4 <__rc2>
    49b5: a0 09        	ldy	#$9
    49b7: b1 02        	lda	($2),y                  ; 0x2 <__rc0>
    49b9: aa           	tax
    49ba: 18           	clc
    49bb: 65 04        	adc	$4                      ; 0x4 <__rc2>
    49bd: 85 18        	sta	$18                     ; 0x18 <__rc22>
    49bf: a5 05        	lda	$5                      ; 0x5 <__rc3>
    49c1: 65 19        	adc	$19                     ; 0x19 <__rc23>
    49c3: 85 1d        	sta	$1d                     ; 0x1d <__rc27>
    49c5: a4 19        	ldy	$19                     ; 0x19 <__rc23>
    49c7: 84 1c        	sty	$1c                     ; 0x1c <__rc26>
    49c9: 8a           	txa
    49ca: 69 00        	adc	#$0
    49cc: 85 1b        	sta	$1b                     ; 0x1b <__rc25>
    49ce: a0 0c        	ldy	#$c
    49d0: b1 02        	lda	($2),y                  ; 0x2 <__rc0>
    49d2: 69 00        	adc	#$0
    49d4: 85 19        	sta	$19                     ; 0x19 <__rc23>
    49d6: a6 1b        	ldx	$1b                     ; 0x1b <__rc25>
    49d8: 86 04        	stx	$4                      ; 0x4 <__rc2>
    49da: 85 05        	sta	$5                      ; 0x5 <__rc3>
    49dc: 64 06        	stz	$6                      ; 0x6 <__zp_data_size>
    49de: 64 07        	stz	$7                      ; 0x7 <__rc5>
    49e0: a2 01        	ldx	#$1
    49e2: 86 08        	stx	$8                      ; 0x8 <__rc6>
    49e4: a6 1d        	ldx	$1d                     ; 0x1d <__rc27>
    49e6: a5 18        	lda	$18                     ; 0x18 <__rc22>
    49e8: 20 f8 64     	jsr	$64f8 <lfill>
    49eb: a9 00        	lda	#$0
    49ed: 92 16        	sta	($16),z                 ; 0x16 <__rc20>
    49ef: 3a           	dec
    49f0: a0 01        	ldy	#$1
    49f2: 91 16        	sta	($16),y                 ; 0x16 <__rc20>
    49f4: a6 18        	ldx	$18                     ; 0x18 <__rc22>
    49f6: 86 06        	stx	$6                      ; 0x6 <__zp_data_size>
    49f8: a6 1d        	ldx	$1d                     ; 0x1d <__rc27>
    49fa: 86 07        	stx	$7                      ; 0x7 <__rc5>
    49fc: a6 1b        	ldx	$1b                     ; 0x1b <__rc25>
    49fe: 86 08        	stx	$8                      ; 0x8 <__rc6>
    4a00: 64 04        	stz	$4                      ; 0x4 <__rc2>
    4a02: 64 05        	stz	$5                      ; 0x5 <__rc3>
    4a04: 64 0b        	stz	$b                      ; 0xb <__rc9>
    4a06: a6 19        	ldx	$19                     ; 0x19 <__rc23>
    4a08: 86 09        	stx	$9                      ; 0x9 <__rc7>
    4a0a: a2 20        	ldx	#$20
    4a0c: 86 0a        	stx	$a                      ; 0xa <__rc8>
    4a0e: a6 17        	ldx	$17                     ; 0x17 <__rc21>
    4a10: a5 16        	lda	$16                     ; 0x16 <__rc20>
    4a12: 20 91 64     	jsr	$6491 <lcopy>
    4a15: a5 21        	lda	$21                     ; 0x21 <__rc31>
    4a17: 4a           	lsr
    4a18: a6 1a        	ldx	$1a                     ; 0x1a <__rc24>
    4a1a: e0 01        	cpx	#$1
    4a1c: 65 1c        	adc	$1c                     ; 0x1c <__rc26>
    4a1e: aa           	tax
    4a1f: a9 00        	lda	#$0
    4a21: 64 04        	stz	$4                      ; 0x4 <__rc2>
    4a23: 65 04        	adc	$4                      ; 0x4 <__rc2>
    4a25: a8           	tay
    4a26: a9 00        	lda	#$0
    4a28: 48           	pha
    4a29: 5a           	phy
    4a2a: a0 17        	ldy	#$17
    4a2c: b1 02        	lda	($2),y                  ; 0x2 <__rc0>
    4a2e: 7a           	ply
    4a2f: 85 04        	sta	$4                      ; 0x4 <__rc2>
    4a31: 68           	pla
    4a32: 65 04        	adc	$4                      ; 0x4 <__rc2>
    4a34: 84 04        	sty	$4                      ; 0x4 <__rc2>
    4a36: 85 05        	sta	$5                      ; 0x5 <__rc3>
    4a38: 64 06        	stz	$6                      ; 0x6 <__zp_data_size>
    4a3a: a0 18        	ldy	#$18
    4a3c: 84 07        	sty	$7                      ; 0x7 <__rc5>
    4a3e: 64 08        	stz	$8                      ; 0x8 <__rc6>
    4a40: 64 09        	stz	$9                      ; 0x9 <__rc7>
    4a42: 64 0a        	stz	$a                      ; 0xa <__rc8>
    4a44: a0 01        	ldy	#$1
    4a46: 84 0b        	sty	$b                      ; 0xb <__rc9>
    4a48: a0 08        	ldy	#$8
    4a4a: b1 02        	lda	($2),y                  ; 0x2 <__rc0>
    4a4c: 20 91 64     	jsr	$6491 <lcopy>
    4a4f: a0 15        	ldy	#$15
    4a51: b1 02        	lda	($2),y                  ; 0x2 <__rc0>
    4a53: 85 04        	sta	$4                      ; 0x4 <__rc2>
    4a55: c8           	iny
    4a56: b1 02        	lda	($2),y                  ; 0x2 <__rc0>
    4a58: 85 05        	sta	$5                      ; 0x5 <__rc3>
    4a5a: a0 0b        	ldy	#$b
    4a5c: b1 02        	lda	($2),y                  ; 0x2 <__rc0>
    4a5e: 85 06        	sta	$6                      ; 0x6 <__zp_data_size>
    4a60: a0 11        	ldy	#$11
    4a62: b1 02        	lda	($2),y                  ; 0x2 <__rc0>
    4a64: 85 18        	sta	$18                     ; 0x18 <__rc22>
    4a66: c8           	iny
    4a67: b1 02        	lda	($2),y                  ; 0x2 <__rc0>
    4a69: 85 19        	sta	$19                     ; 0x19 <__rc23>
    4a6b: a0 0d        	ldy	#$d
    4a6d: b1 02        	lda	($2),y                  ; 0x2 <__rc0>
    4a6f: aa           	tax
    4a70: a5 20        	lda	$20                     ; 0x20 <__rc30>
    4a72: 20 cd 4d     	jsr	$4dcd <PutOneSector>
    4a75: a2 bf        	ldx	#$bf
    4a77: 86 04        	stx	$4                      ; 0x4 <__rc2>
    4a79: a2 6b        	ldx	#$6b
    4a7b: 86 05        	stx	$5                      ; 0x5 <__rc3>
    4a7d: a2 d8        	ldx	#$d8
    4a7f: 86 06        	stx	$6                      ; 0x6 <__zp_data_size>
    4a81: a2 69        	ldx	#$69
    4a83: 86 07        	stx	$7                      ; 0x7 <__rc5>
    4a85: a9 50        	lda	#$50
    4a87: 20 a4 5b     	jsr	$5ba4 <progress>
    4a8a: b2 18        	lda	($18),z                 ; 0x18 <__rc22>
    4a8c: 48           	pha
    4a8d: a0 0f        	ldy	#$f
    4a8f: b1 02        	lda	($2),y                  ; 0x2 <__rc0>
    4a91: 85 16        	sta	$16                     ; 0x16 <__rc20>
    4a93: 68           	pla
    4a94: a6 16        	ldx	$16                     ; 0x16 <__rc20>
    4a96: 20 db 4e     	jsr	$4edb <PutBAM>
    4a99: b2 18        	lda	($18),z                 ; 0x18 <__rc22>
    4a9b: 4c 7f 42     	jmp	$427f <donehyp0att6+0x2da>
    4a9e: a2 80        	ldx	#$80
    4aa0: 8a           	txa
    4aa1: a0 14        	ldy	#$14
    4aa3: 91 02        	sta	($2),y                  ; 0x2 <__rc0>
    4aa5: a2 1e        	ldx	#$1e
    4aa7: 8a           	txa
    4aa8: a0 17        	ldy	#$17
    4aaa: 91 02        	sta	($2),y                  ; 0x2 <__rc0>
    4aac: a2 84        	ldx	#$84
    4aae: 8a           	txa
    4aaf: a0 15        	ldy	#$15
    4ab1: 91 02        	sta	($2),y                  ; 0x2 <__rc0>
    4ab3: 20 e2 57     	jsr	$57e2 <clrhome>
    4ab6: a2 84        	ldx	#$84
    4ab8: 86 04        	stx	$4                      ; 0x4 <__rc2>
    4aba: a2 69        	ldx	#$69
    4abc: 86 05        	stx	$5                      ; 0x5 <__rc3>
    4abe: 20 41 58     	jsr	$5841 <msprintf>
    4ac1: a0 00        	ldy	#$0
    4ac3: 80 38        	bra	$4afd <donehypclosedir7+0x698>
    4ac5: e0 00        	cpx	#$0
    4ac7: b0 0a        	bcs	$4ad3 <donehypclosedir7+0x66e>
    4ac9: 4c 25 4b     	jmp	$4b25 <donehypclosedir7+0x6c0>
    4acc: c9 00        	cmp	#$0
    4ace: b0 03        	bcs	$4ad3 <donehypclosedir7+0x66e>
    4ad0: 4c 25 4b     	jmp	$4b25 <donehypclosedir7+0x6c0>
    4ad3: ae 12 d0     	ldx	$d012                   ; 0xd012 <__heap_start+0x5ae5>
    4ad6: 86 04        	stx	$4                      ; 0x4 <__rc2>
    4ad8: ae 12 d0     	ldx	$d012                   ; 0xd012 <__heap_start+0x5ae5>
    4adb: e4 04        	cpx	$4                      ; 0x4 <__rc2>
    4add: f0 f9        	beq	$4ad8 <donehypclosedir7+0x673>
    4adf: 18           	clc
    4ae0: 5a           	phy
    4ae1: a0 14        	ldy	#$14
    4ae3: b1 02        	lda	($2),y                  ; 0x2 <__rc0>
    4ae5: 69 c0        	adc	#$c0
    4ae7: 91 02        	sta	($2),y                  ; 0x2 <__rc0>
    4ae9: c8           	iny
    4aea: b1 02        	lda	($2),y                  ; 0x2 <__rc0>
    4aec: 69 ff        	adc	#$ff
    4aee: 91 02        	sta	($2),y                  ; 0x2 <__rc0>
    4af0: a0 17        	ldy	#$17
    4af2: b1 02        	lda	($2),y                  ; 0x2 <__rc0>
    4af4: 69 ff        	adc	#$ff
    4af6: 91 02        	sta	($2),y                  ; 0x2 <__rc0>
    4af8: 7a           	ply
    4af9: 98           	tya
    4afa: 69 ff        	adc	#$ff
    4afc: a8           	tay
    4afd: 98           	tya
    4afe: d0 1e        	bne	$4b1e <donehypclosedir7+0x6b9>
    4b00: 5a           	phy
    4b01: a0 17        	ldy	#$17
    4b03: b1 02        	lda	($2),y                  ; 0x2 <__rc0>
    4b05: aa           	tax
    4b06: a0 15        	ldy	#$15
    4b08: b1 02        	lda	($2),y                  ; 0x2 <__rc0>
    4b0a: 7a           	ply
    4b0b: e0 00        	cpx	#$0
    4b0d: d0 b6        	bne	$4ac5 <donehypclosedir7+0x660>
    4b0f: aa           	tax
    4b10: d0 ba        	bne	$4acc <donehypclosedir7+0x667>
    4b12: 5a           	phy
    4b13: a0 14        	ldy	#$14
    4b15: b1 02        	lda	($2),y                  ; 0x2 <__rc0>
    4b17: 7a           	ply
    4b18: c9 41        	cmp	#$41
    4b1a: 90 09        	bcc	$4b25 <donehypclosedir7+0x6c0>
    4b1c: 80 b5        	bra	$4ad3 <donehypclosedir7+0x66e>
    4b1e: c0 00        	cpy	#$0
    4b20: 90 03        	bcc	$4b25 <donehypclosedir7+0x6c0>
    4b22: 4c d3 4a     	jmp	$4ad3 <donehypclosedir7+0x66e>
    4b25: a2 00        	ldx	#$0
    4b27: a9 7e        	lda	#$7e
    4b29: 8d 40 d6     	sta	$d640                   ; 0xd640 <__heap_start+0x6113>
    4b2c: b8           	clv
    4b2d: 8a           	txa
    4b2e: 85 12        	sta	$12                     ; 0x12 <__rc16>
    4b30: a8           	tay
    4b31: b1 02        	lda	($2),y                  ; 0x2 <__rc0>
    4b33: 85 21        	sta	$21                     ; 0x21 <__rc31>
    4b35: c8           	iny
    4b36: b1 02        	lda	($2),y                  ; 0x2 <__rc0>
    4b38: 85 20        	sta	$20                     ; 0x20 <__rc30>
    4b3a: c8           	iny
    4b3b: b1 02        	lda	($2),y                  ; 0x2 <__rc0>
    4b3d: 85 1f        	sta	$1f                     ; 0x1f <__rc29>
    4b3f: c8           	iny
    4b40: b1 02        	lda	($2),y                  ; 0x2 <__rc0>
    4b42: 85 1e        	sta	$1e                     ; 0x1e <__rc28>
    4b44: c8           	iny
    4b45: b1 02        	lda	($2),y                  ; 0x2 <__rc0>
    4b47: 85 1d        	sta	$1d                     ; 0x1d <__rc27>
    4b49: c8           	iny
    4b4a: b1 02        	lda	($2),y                  ; 0x2 <__rc0>
    4b4c: 85 1c        	sta	$1c                     ; 0x1c <__rc26>
    4b4e: c8           	iny
    4b4f: b1 02        	lda	($2),y                  ; 0x2 <__rc0>
    4b51: 85 1b        	sta	$1b                     ; 0x1b <__rc25>
    4b53: c8           	iny
    4b54: b1 02        	lda	($2),y                  ; 0x2 <__rc0>
    4b56: 85 1a        	sta	$1a                     ; 0x1a <__rc24>
    4b58: 7a           	ply
    4b59: 84 19        	sty	$19                     ; 0x19 <__rc23>
    4b5b: 7a           	ply
    4b5c: 84 18        	sty	$18                     ; 0x18 <__rc22>
    4b5e: 7a           	ply
    4b5f: 84 17        	sty	$17                     ; 0x17 <__rc21>
    4b61: 7a           	ply
    4b62: 84 16        	sty	$16                     ; 0x16 <__rc20>
    4b64: 18           	clc
    4b65: a5 02        	lda	$2                      ; 0x2 <__rc0>
    4b67: 69 1f        	adc	#$1f
    4b69: 85 02        	sta	$2                      ; 0x2 <__rc0>
    4b6b: a5 03        	lda	$3                      ; 0x3 <__rc1>
    4b6d: 69 00        	adc	#$0
    4b6f: 85 03        	sta	$3                      ; 0x3 <__rc1>
    4b71: a5 12        	lda	$12                     ; 0x12 <__rc16>
    4b73: 60           	rts
    4b74: 9c 02 1a     	stz	$1a02                   ; 0x1a02 <__bss_size+0x124f>
    4b77: a6 1d        	ldx	$1d                     ; 0x1d <__rc27>
    4b79: 86 06        	stx	$6                      ; 0x6 <__zp_data_size>
    4b7b: a6 1c        	ldx	$1c                     ; 0x1c <__rc26>
    4b7d: 86 07        	stx	$7                      ; 0x7 <__rc5>
    4b7f: 48           	pha
    4b80: 5a           	phy
    4b81: a0 0e        	ldy	#$e
    4b83: b1 02        	lda	($2),y                  ; 0x2 <__rc0>
    4b85: 7a           	ply
    4b86: 85 08        	sta	$8                      ; 0x8 <__rc6>
    4b88: 84 04        	sty	$4                      ; 0x4 <__rc2>
    4b8a: 84 05        	sty	$5                      ; 0x5 <__rc3>
    4b8c: 5a           	phy
    4b8d: a0 0d        	ldy	#$d
    4b8f: b1 02        	lda	($2),y                  ; 0x2 <__rc0>
    4b91: 7a           	ply
    4b92: 85 09        	sta	$9                      ; 0x9 <__rc7>
    4b94: 68           	pla
    4b95: 85 0a        	sta	$a                      ; 0xa <__rc8>
    4b97: 84 0b        	sty	$b                      ; 0xb <__rc9>
    4b99: a2 1a        	ldx	#$1a
    4b9b: a9 00        	lda	#$0
    4b9d: 20 91 64     	jsr	$6491 <lcopy>
    4ba0: a0 15        	ldy	#$15
    4ba2: b1 02        	lda	($2),y                  ; 0x2 <__rc0>
    4ba4: 4a           	lsr
    4ba5: 4a           	lsr
    4ba6: 4a           	lsr
    4ba7: aa           	tax
    4ba8: 18           	clc
    4ba9: a9 00        	lda	#$0
    4bab: 65 18        	adc	$18                     ; 0x18 <__rc22>
    4bad: a8           	tay
    4bae: 8a           	txa
    4baf: 65 17        	adc	$17                     ; 0x17 <__rc21>
    4bb1: 85 0c        	sta	$c                      ; 0xc <__rc10>
    4bb3: a9 00        	lda	#$0
    4bb5: 65 16        	adc	$16                     ; 0x16 <__rc20>
    4bb7: aa           	tax
    4bb8: a9 00        	lda	#$0
    4bba: 48           	pha
    4bbb: 5a           	phy
    4bbc: a0 0f        	ldy	#$f
    4bbe: b1 02        	lda	($2),y                  ; 0x2 <__rc0>
    4bc0: 7a           	ply
    4bc1: 85 04        	sta	$4                      ; 0x4 <__rc2>
    4bc3: 68           	pla
    4bc4: 65 04        	adc	$4                      ; 0x4 <__rc2>
    4bc6: 86 04        	stx	$4                      ; 0x4 <__rc2>
    4bc8: 85 05        	sta	$5                      ; 0x5 <__rc3>
    4bca: 64 06        	stz	$6                      ; 0x6 <__zp_data_size>
    4bcc: a2 18        	ldx	#$18
    4bce: 86 07        	stx	$7                      ; 0x7 <__rc5>
    4bd0: 64 08        	stz	$8                      ; 0x8 <__rc6>
    4bd2: 64 09        	stz	$9                      ; 0x9 <__rc7>
    4bd4: 64 0a        	stz	$a                      ; 0xa <__rc8>
    4bd6: a2 01        	ldx	#$1
    4bd8: 86 0b        	stx	$b                      ; 0xb <__rc9>
    4bda: a6 0c        	ldx	$c                      ; 0xc <__rc10>
    4bdc: 98           	tya
    4bdd: 20 91 64     	jsr	$6491 <lcopy>
    4be0: a2 00        	ldx	#$0
    4be2: 86 04        	stx	$4                      ; 0x4 <__rc2>
    4be4: a2 18        	ldx	#$18
    4be6: 86 05        	stx	$5                      ; 0x5 <__rc3>
    4be8: a0 11        	ldy	#$11
    4bea: b1 02        	lda	($2),y                  ; 0x2 <__rc0>
    4bec: 85 06        	sta	$6                      ; 0x6 <__zp_data_size>
    4bee: 88           	dey
    4bef: b1 02        	lda	($2),y                  ; 0x2 <__rc0>
    4bf1: aa           	tax
    4bf2: a0 13        	ldy	#$13
    4bf4: b1 02        	lda	($2),y                  ; 0x2 <__rc0>
    4bf6: 85 16        	sta	$16                     ; 0x16 <__rc20>
    4bf8: 20 cd 4d     	jsr	$4dcd <PutOneSector>
    4bfb: ae 03 1a     	ldx	$1a03                   ; 0x1a03 <__bss_size+0x1250>
    4bfe: 86 17        	stx	$17                     ; 0x17 <__rc21>
    4c00: ae 04 1a     	ldx	$1a04                   ; 0x1a04 <__bss_size+0x1251>
    4c03: 86 18        	stx	$18                     ; 0x18 <__rc22>
    4c05: 9c 80 d0     	stz	$d080                   ; 0xd080 <__heap_start+0x5b53>
    4c08: a2 00        	ldx	#$0
    4c0a: 86 04        	stx	$4                      ; 0x4 <__rc2>
    4c0c: a2 16        	ldx	#$16
    4c0e: 86 05        	stx	$5                      ; 0x5 <__rc3>
    4c10: a2 01        	ldx	#$1
    4c12: 86 06        	stx	$6                      ; 0x6 <__zp_data_size>
    4c14: a2 28        	ldx	#$28
    4c16: a5 16        	lda	$16                     ; 0x16 <__rc20>
    4c18: 20 83 4d     	jsr	$4d83 <GetOneSector>
    4c1b: ae 00 16     	ldx	$1600                   ; 0x1600 <__bss_size+0xe4d>
    4c1e: ac 01 16     	ldy	$1601                   ; 0x1601 <__bss_size+0xe4e>
    4c21: a9 00        	lda	#$0
    4c23: 85 04        	sta	$4                      ; 0x4 <__rc2>
    4c25: a9 17        	lda	#$17
    4c27: 85 05        	sta	$5                      ; 0x5 <__rc3>
    4c29: 84 06        	sty	$6                      ; 0x6 <__zp_data_size>
    4c2b: a5 16        	lda	$16                     ; 0x16 <__rc20>
    4c2d: 20 83 4d     	jsr	$4d83 <GetOneSector>
    4c30: a4 18        	ldy	$18                     ; 0x18 <__rc22>
    4c32: a6 17        	ldx	$17                     ; 0x17 <__rc21>
    4c34: 4c 53 43     	jmp	$4353 <donehyp0att6+0x3ae>
    4c37: a2 00        	ldx	#$0
    4c39: 86 04        	stx	$4                      ; 0x4 <__rc2>
    4c3b: a2 16        	ldx	#$16
    4c3d: 86 05        	stx	$5                      ; 0x5 <__rc3>
    4c3f: a2 01        	ldx	#$1
    4c41: 86 06        	stx	$6                      ; 0x6 <__zp_data_size>
    4c43: a2 28        	ldx	#$28
    4c45: a0 13        	ldy	#$13
    4c47: b1 02        	lda	($2),y                  ; 0x2 <__rc0>
    4c49: 85 16        	sta	$16                     ; 0x16 <__rc20>
    4c4b: 20 cd 4d     	jsr	$4dcd <PutOneSector>
    4c4e: ae 00 16     	ldx	$1600                   ; 0x1600 <__bss_size+0xe4d>
    4c51: ac 01 16     	ldy	$1601                   ; 0x1601 <__bss_size+0xe4e>
    4c54: a9 00        	lda	#$0
    4c56: 85 04        	sta	$4                      ; 0x4 <__rc2>
    4c58: a9 17        	lda	#$17
    4c5a: 85 05        	sta	$5                      ; 0x5 <__rc3>
    4c5c: 84 06        	sty	$6                      ; 0x6 <__zp_data_size>
    4c5e: a5 16        	lda	$16                     ; 0x16 <__rc20>
    4c60: 20 cd 4d     	jsr	$4dcd <PutOneSector>
    4c63: 4c 59 42     	jmp	$4259 <donehyp0att6+0x2b4>
    4c66: 64 1b        	stz	$1b                     ; 0x1b <__rc25>
    4c68: 4c e5 47     	jmp	$47e5 <donehypclosedir7+0x380>
    4c6b: a5 05        	lda	$5                      ; 0x5 <__rc3>
    4c6d: 92 16        	sta	($16),z                 ; 0x16 <__rc20>
    4c6f: ad 01 1b     	lda	$1b01                   ; 0x1b01 <__bss_size+0x134e>
    4c72: 91 16        	sta	($16),y                 ; 0x16 <__rc20>
    4c74: a0 09        	ldy	#$9
    4c76: b1 02        	lda	($2),y                  ; 0x2 <__rc0>
    4c78: 85 06        	sta	$6                      ; 0x6 <__zp_data_size>
    4c7a: a0 0c        	ldy	#$c
    4c7c: b1 02        	lda	($2),y                  ; 0x2 <__rc0>
    4c7e: 85 07        	sta	$7                      ; 0x7 <__rc5>
    4c80: 88           	dey
    4c81: b1 02        	lda	($2),y                  ; 0x2 <__rc0>
    4c83: 85 08        	sta	$8                      ; 0x8 <__rc6>
    4c85: 64 04        	stz	$4                      ; 0x4 <__rc2>
    4c87: 64 05        	stz	$5                      ; 0x5 <__rc3>
    4c89: a0 08        	ldy	#$8
    4c8b: b1 02        	lda	($2),y                  ; 0x2 <__rc0>
    4c8d: 85 09        	sta	$9                      ; 0x9 <__rc7>
    4c8f: a2 20        	ldx	#$20
    4c91: 86 0a        	stx	$a                      ; 0xa <__rc8>
    4c93: 64 0b        	stz	$b                      ; 0xb <__rc9>
    4c95: a6 17        	ldx	$17                     ; 0x17 <__rc21>
    4c97: a5 16        	lda	$16                     ; 0x16 <__rc20>
    4c99: 20 91 64     	jsr	$6491 <lcopy>
    4c9c: a0 0d        	ldy	#$d
    4c9e: b1 02        	lda	($2),y                  ; 0x2 <__rc0>
    4ca0: 4a           	lsr
    4ca1: aa           	tax
    4ca2: 64 04        	stz	$4                      ; 0x4 <__rc2>
    4ca4: 18           	clc
    4ca5: a9 00        	lda	#$0
    4ca7: 65 04        	adc	$4                      ; 0x4 <__rc2>
    4ca9: a8           	tay
    4caa: 8a           	txa
    4cab: 65 1d        	adc	$1d                     ; 0x1d <__rc27>
    4cad: 85 0c        	sta	$c                      ; 0xc <__rc10>
    4caf: a9 00        	lda	#$0
    4cb1: 65 04        	adc	$4                      ; 0x4 <__rc2>
    4cb3: aa           	tax
    4cb4: a9 00        	lda	#$0
    4cb6: 48           	pha
    4cb7: 5a           	phy
    4cb8: a0 17        	ldy	#$17
    4cba: b1 02        	lda	($2),y                  ; 0x2 <__rc0>
    4cbc: 7a           	ply
    4cbd: 85 04        	sta	$4                      ; 0x4 <__rc2>
    4cbf: 68           	pla
    4cc0: 65 04        	adc	$4                      ; 0x4 <__rc2>
    4cc2: 86 04        	stx	$4                      ; 0x4 <__rc2>
    4cc4: 85 05        	sta	$5                      ; 0x5 <__rc3>
    4cc6: 64 06        	stz	$6                      ; 0x6 <__zp_data_size>
    4cc8: a2 18        	ldx	#$18
    4cca: 86 07        	stx	$7                      ; 0x7 <__rc5>
    4ccc: 64 08        	stz	$8                      ; 0x8 <__rc6>
    4cce: 64 09        	stz	$9                      ; 0x9 <__rc7>
    4cd0: 64 0a        	stz	$a                      ; 0xa <__rc8>
    4cd2: a2 01        	ldx	#$1
    4cd4: 86 0b        	stx	$b                      ; 0xb <__rc9>
    4cd6: a6 0c        	ldx	$c                      ; 0xc <__rc10>
    4cd8: 98           	tya
    4cd9: 20 91 64     	jsr	$6491 <lcopy>
    4cdc: a2 00        	ldx	#$0
    4cde: 86 04        	stx	$4                      ; 0x4 <__rc2>
    4ce0: a2 18        	ldx	#$18
    4ce2: 86 05        	stx	$5                      ; 0x5 <__rc3>
    4ce4: a0 10        	ldy	#$10
    4ce6: b1 02        	lda	($2),y                  ; 0x2 <__rc0>
    4ce8: 85 06        	sta	$6                      ; 0x6 <__zp_data_size>
    4cea: a0 13        	ldy	#$13
    4cec: b1 02        	lda	($2),y                  ; 0x2 <__rc0>
    4cee: aa           	tax
    4cef: a0 0e        	ldy	#$e
    4cf1: b1 02        	lda	($2),y                  ; 0x2 <__rc0>
    4cf3: 4c 72 4a     	jmp	$4a72 <donehypclosedir7+0x60d>

00004cf6 <ReadSector>:
    4cf6: e0 00        	cpx	#$0
    4cf8: d0 03        	bne	$4cfd <ReadSector+0x7>
    4cfa: 4c 72 4d     	jmp	$4d72 <ReadSector+0x7c>
    4cfd: da           	phx
    4cfe: 7a           	ply
    4cff: a2 20        	ldx	#$20
    4d01: 18           	clc
    4d02: 69 20        	adc	#$20
    4d04: 8d 80 d0     	sta	$d080                   ; 0xd080 <__heap_start+0x5b53>
    4d07: 8e 81 d0     	stx	$d081                   ; 0xd081 <__heap_start+0x5b54>
    4d0a: 98           	tya
    4d0b: 3a           	dec
    4d0c: 8d 84 d0     	sta	$d084                   ; 0xd084 <__heap_start+0x5b57>
    4d0f: a6 04        	ldx	$4                      ; 0x4 <__rc2>
    4d11: 86 6b        	stx	$6b                     ; 0x6b <__zp_bss_size+0x2c>
    4d13: a5 04        	lda	$4                      ; 0x4 <__rc2>
    4d15: 4a           	lsr
    4d16: 1a           	inc
    4d17: 8d 85 d0     	sta	$d085                   ; 0xd085 <__heap_start+0x5b58>
    4d1a: 9c 86 d0     	stz	$d086                   ; 0xd086 <__heap_start+0x5b59>
    4d1d: a2 41        	ldx	#$41
    4d1f: 8e 81 d0     	stx	$d081                   ; 0xd081 <__heap_start+0x5b54>
    4d22: ae 82 d0     	ldx	$d082                   ; 0xd082 <__heap_start+0x5b55>
    4d25: 30 fb        	bmi	$4d22 <ReadSector+0x2c>
    4d27: ad 82 d0     	lda	$d082                   ; 0xd082 <__heap_start+0x5b55>
    4d2a: 29 18        	and	#$18
    4d2c: f0 47        	beq	$4d75 <ReadSector+0x7f>
    4d2e: a2 40        	ldx	#$40
    4d30: 8e 80 d0     	stx	$d080                   ; 0xd080 <__heap_start+0x5b53>
    4d33: a2 02        	ldx	#$2
    4d35: 8e 20 d0     	stx	$d020                   ; 0xd020 <__heap_start+0x5af3>
    4d38: a2 45        	ldx	#$45
    4d3a: 86 04        	stx	$4                      ; 0x4 <__rc2>
    4d3c: a2 69        	ldx	#$69
    4d3e: 86 05        	stx	$5                      ; 0x5 <__rc3>
    4d40: 64 06        	stz	$6                      ; 0x6 <__zp_data_size>
    4d42: 64 07        	stz	$7                      ; 0x7 <__rc5>
    4d44: a2 00        	ldx	#$0
    4d46: 98           	tya
    4d47: 20 4f 58     	jsr	$584f <mprintf>
    4d4a: a2 b5        	ldx	#$b5
    4d4c: 86 04        	stx	$4                      ; 0x4 <__rc2>
    4d4e: a2 69        	ldx	#$69
    4d50: 86 05        	stx	$5                      ; 0x5 <__rc3>
    4d52: 64 06        	stz	$6                      ; 0x6 <__zp_data_size>
    4d54: 64 07        	stz	$7                      ; 0x7 <__rc5>
    4d56: a2 00        	ldx	#$0
    4d58: a5 6b        	lda	$6b                     ; 0x6b <__zp_bss_size+0x2c>
    4d5a: 20 4f 58     	jsr	$584f <mprintf>
    4d5d: ad 82 d0     	lda	$d082                   ; 0xd082 <__heap_start+0x5b55>
    4d60: 64 04        	stz	$4                      ; 0x4 <__rc2>
    4d62: 64 05        	stz	$5                      ; 0x5 <__rc3>
    4d64: a2 00        	ldx	#$0
    4d66: 20 7a 58     	jsr	$587a <mhprintf>
    4d69: 20 ba 55     	jsr	$55ba <cputln>
    4d6c: 20 61 64     	jsr	$6461 <cgetc>
    4d6f: a9 ff        	lda	#$ff
    4d71: 60           	rts
    4d72: a9 fc        	lda	#$fc
    4d74: 60           	rts
    4d75: ad 89 d6     	lda	$d689                   ; 0xd689 <__heap_start+0x615c>
    4d78: 29 7f        	and	#$7f
    4d7a: 8d 89 d6     	sta	$d689                   ; 0xd689 <__heap_start+0x615c>
    4d7d: a6 6b        	ldx	$6b                     ; 0x6b <__zp_bss_size+0x2c>
    4d7f: 8a           	txa
    4d80: 29 01        	and	#$1
    4d82: 60           	rts

00004d83 <GetOneSector>:
    4d83: a4 16        	ldy	$16                     ; 0x16 <__rc20>
    4d85: 5a           	phy
    4d86: a4 17        	ldy	$17                     ; 0x17 <__rc21>
    4d88: 5a           	phy
    4d89: a4 06        	ldy	$6                      ; 0x6 <__zp_data_size>
    4d8b: 48           	pha
    4d8c: a5 04        	lda	$4                      ; 0x4 <__rc2>
    4d8e: 85 16        	sta	$16                     ; 0x16 <__rc20>
    4d90: a5 05        	lda	$5                      ; 0x5 <__rc3>
    4d92: 85 17        	sta	$17                     ; 0x17 <__rc21>
    4d94: 68           	pla
    4d95: 84 04        	sty	$4                      ; 0x4 <__rc2>
    4d97: 20 f6 4c     	jsr	$4cf6 <ReadSector>
    4d9a: c9 02        	cmp	#$2
    4d9c: b0 28        	bcs	$4dc6 <GetOneSector+0x43>
    4d9e: aa           	tax
    4d9f: f0 04        	beq	$4da5 <GetOneSector+0x22>
    4da1: a2 6d        	ldx	#$6d
    4da3: 80 02        	bra	$4da7 <GetOneSector+0x24>
    4da5: a2 6c        	ldx	#$6c
    4da7: a0 01        	ldy	#$1
    4da9: a9 fd        	lda	#$fd
    4dab: 85 04        	sta	$4                      ; 0x4 <__rc2>
    4dad: a9 0f        	lda	#$f
    4daf: 85 05        	sta	$5                      ; 0x5 <__rc3>
    4db1: a5 16        	lda	$16                     ; 0x16 <__rc20>
    4db3: 85 06        	sta	$6                      ; 0x6 <__zp_data_size>
    4db5: a5 17        	lda	$17                     ; 0x17 <__rc21>
    4db7: 85 07        	sta	$7                      ; 0x7 <__rc5>
    4db9: 64 08        	stz	$8                      ; 0x8 <__rc6>
    4dbb: 64 09        	stz	$9                      ; 0x9 <__rc7>
    4dbd: 64 0a        	stz	$a                      ; 0xa <__rc8>
    4dbf: 84 0b        	sty	$b                      ; 0xb <__rc9>
    4dc1: a9 00        	lda	#$0
    4dc3: 20 91 64     	jsr	$6491 <lcopy>
    4dc6: fa           	plx
    4dc7: 86 17        	stx	$17                     ; 0x17 <__rc21>
    4dc9: fa           	plx
    4dca: 86 16        	stx	$16                     ; 0x16 <__rc20>
    4dcc: 60           	rts

00004dcd <PutOneSector>:
    4dcd: a4 18        	ldy	$18                     ; 0x18 <__rc22>
    4dcf: 5a           	phy
    4dd0: a4 19        	ldy	$19                     ; 0x19 <__rc23>
    4dd2: 5a           	phy
    4dd3: 86 67        	stx	$67                     ; 0x67 <__zp_bss_size+0x28>
    4dd5: a4 06        	ldy	$6                      ; 0x6 <__zp_data_size>
    4dd7: 84 6a        	sty	$6a                     ; 0x6a <__zp_bss_size+0x2b>
    4dd9: a4 04        	ldy	$4                      ; 0x4 <__rc2>
    4ddb: 84 18        	sty	$18                     ; 0x18 <__rc22>
    4ddd: a4 05        	ldy	$5                      ; 0x5 <__rc3>
    4ddf: 84 19        	sty	$19                     ; 0x19 <__rc23>
    4de1: a4 06        	ldy	$6                      ; 0x6 <__zp_data_size>
    4de3: 84 04        	sty	$4                      ; 0x4 <__rc2>
    4de5: 85 69        	sta	$69                     ; 0x69 <__zp_bss_size+0x2a>
    4de7: 20 f6 4c     	jsr	$4cf6 <ReadSector>
    4dea: a0 6c        	ldy	#$6c
    4dec: a6 6a        	ldx	$6a                     ; 0x6a <__zp_bss_size+0x2b>
    4dee: 86 68        	stx	$68                     ; 0x68 <__zp_bss_size+0x29>
    4df0: 46 6a        	lsr	$6a                     ; 0x6a <__zp_bss_size+0x2b>
    4df2: 90 02        	bcc	$4df6 <PutOneSector+0x29>
    4df4: a0 6d        	ldy	#$6d
    4df6: a2 01        	ldx	#$1
    4df8: 84 07        	sty	$7                      ; 0x7 <__rc5>
    4dfa: a0 fd        	ldy	#$fd
    4dfc: 84 08        	sty	$8                      ; 0x8 <__rc6>
    4dfe: 64 04        	stz	$4                      ; 0x4 <__rc2>
    4e00: 64 05        	stz	$5                      ; 0x5 <__rc3>
    4e02: 64 06        	stz	$6                      ; 0x6 <__zp_data_size>
    4e04: a0 0f        	ldy	#$f
    4e06: 84 09        	sty	$9                      ; 0x9 <__rc7>
    4e08: 64 0a        	stz	$a                      ; 0xa <__rc8>
    4e0a: 86 0b        	stx	$b                      ; 0xb <__rc9>
    4e0c: a6 19        	ldx	$19                     ; 0x19 <__rc23>
    4e0e: a5 18        	lda	$18                     ; 0x18 <__rc22>
    4e10: 20 91 64     	jsr	$6491 <lcopy>
    4e13: a5 68        	lda	$68                     ; 0x68 <__zp_bss_size+0x29>
    4e15: 29 fe        	and	#$fe
    4e17: c9 14        	cmp	#$14
    4e19: 85 68        	sta	$68                     ; 0x68 <__zp_bss_size+0x29>
    4e1b: a5 69        	lda	$69                     ; 0x69 <__zp_bss_size+0x2a>
    4e1d: 90 05        	bcc	$4e24 <PutOneSector+0x57>
    4e1f: 18           	clc
    4e20: 69 28        	adc	#$28
    4e22: 80 03        	bra	$4e27 <PutOneSector+0x5a>
    4e24: 18           	clc
    4e25: 69 20        	adc	#$20
    4e27: 8d 80 d0     	sta	$d080                   ; 0xd080 <__heap_start+0x5b53>
    4e2a: a2 20        	ldx	#$20
    4e2c: 8e 81 d0     	stx	$d081                   ; 0xd081 <__heap_start+0x5b54>
    4e2f: a6 67        	ldx	$67                     ; 0x67 <__zp_bss_size+0x28>
    4e31: ca           	dex
    4e32: 8e 84 d0     	stx	$d084                   ; 0xd084 <__heap_start+0x5b57>
    4e35: a6 6a        	ldx	$6a                     ; 0x6a <__zp_bss_size+0x2b>
    4e37: e8           	inx
    4e38: 8e 85 d0     	stx	$d085                   ; 0xd085 <__heap_start+0x5b58>
    4e3b: 9c 86 d0     	stz	$d086                   ; 0xd086 <__heap_start+0x5b59>
    4e3e: a2 84        	ldx	#$84
    4e40: 8e 81 d0     	stx	$d081                   ; 0xd081 <__heap_start+0x5b54>
    4e43: ae 82 d0     	ldx	$d082                   ; 0xd082 <__heap_start+0x5b55>
    4e46: 30 fb        	bmi	$4e43 <PutOneSector+0x76>
    4e48: ad 82 d0     	lda	$d082                   ; 0xd082 <__heap_start+0x5b55>
    4e4b: 29 18        	and	#$18
    4e4d: f0 44        	beq	$4e93 <PutOneSector+0xc6>
    4e4f: a2 40        	ldx	#$40
    4e51: 8e 80 d0     	stx	$d080                   ; 0xd080 <__heap_start+0x5b53>
    4e54: a2 02        	ldx	#$2
    4e56: 8e 20 d0     	stx	$d020                   ; 0xd020 <__heap_start+0x5af3>
    4e59: a2 f2        	ldx	#$f2
    4e5b: 86 04        	stx	$4                      ; 0x4 <__rc2>
    4e5d: a2 68        	ldx	#$68
    4e5f: 86 05        	stx	$5                      ; 0x5 <__rc3>
    4e61: 64 06        	stz	$6                      ; 0x6 <__zp_data_size>
    4e63: 64 07        	stz	$7                      ; 0x7 <__rc5>
    4e65: a2 00        	ldx	#$0
    4e67: a5 67        	lda	$67                     ; 0x67 <__zp_bss_size+0x28>
    4e69: 20 4f 58     	jsr	$584f <mprintf>
    4e6c: a2 b5        	ldx	#$b5
    4e6e: 86 04        	stx	$4                      ; 0x4 <__rc2>
    4e70: a2 69        	ldx	#$69
    4e72: 86 05        	stx	$5                      ; 0x5 <__rc3>
    4e74: 64 06        	stz	$6                      ; 0x6 <__zp_data_size>
    4e76: 64 07        	stz	$7                      ; 0x7 <__rc5>
    4e78: a2 00        	ldx	#$0
    4e7a: a5 68        	lda	$68                     ; 0x68 <__zp_bss_size+0x29>
    4e7c: 20 4f 58     	jsr	$584f <mprintf>
    4e7f: ad 82 d0     	lda	$d082                   ; 0xd082 <__heap_start+0x5b55>
    4e82: 64 04        	stz	$4                      ; 0x4 <__rc2>
    4e84: 64 05        	stz	$5                      ; 0x5 <__rc3>
    4e86: a2 00        	ldx	#$0
    4e88: 20 7a 58     	jsr	$587a <mhprintf>
    4e8b: 20 ba 55     	jsr	$55ba <cputln>
    4e8e: 20 61 64     	jsr	$6461 <cgetc>
    4e91: 80 08        	bra	$4e9b <PutOneSector+0xce>
    4e93: ad 89 d6     	lda	$d689                   ; 0xd689 <__heap_start+0x615c>
    4e96: 29 7f        	and	#$7f
    4e98: 8d 89 d6     	sta	$d689                   ; 0xd689 <__heap_start+0x615c>
    4e9b: fa           	plx
    4e9c: 86 19        	stx	$19                     ; 0x19 <__rc23>
    4e9e: fa           	plx
    4e9f: 86 18        	stx	$18                     ; 0x18 <__rc22>
    4ea1: 60           	rts

00004ea2 <GetBAM>:
    4ea2: 0a           	asl
    4ea3: aa           	tax
    4ea4: a9 00        	lda	#$0
    4ea6: 2a           	rol
    4ea7: a8           	tay
    4ea8: a9 00        	lda	#$0
    4eaa: 2a           	rol
    4eab: 85 04        	sta	$4                      ; 0x4 <__rc2>
    4ead: 18           	clc
    4eae: 8a           	txa
    4eaf: 69 1c        	adc	#$1c
    4eb1: 85 0c        	sta	$c                      ; 0xc <__rc10>
    4eb3: 98           	tya
    4eb4: 69 00        	adc	#$0
    4eb6: 85 06        	sta	$6                      ; 0x6 <__zp_data_size>
    4eb8: a5 04        	lda	$4                      ; 0x4 <__rc2>
    4eba: 69 08        	adc	#$8
    4ebc: a2 16        	ldx	#$16
    4ebe: a0 02        	ldy	#$2
    4ec0: 48           	pha
    4ec1: a5 06        	lda	$6                      ; 0x6 <__zp_data_size>
    4ec3: 85 04        	sta	$4                      ; 0x4 <__rc2>
    4ec5: 68           	pla
    4ec6: 85 05        	sta	$5                      ; 0x5 <__rc3>
    4ec8: 86 07        	stx	$7                      ; 0x7 <__rc5>
    4eca: 64 06        	stz	$6                      ; 0x6 <__zp_data_size>
    4ecc: 64 08        	stz	$8                      ; 0x8 <__rc6>
    4ece: 64 09        	stz	$9                      ; 0x9 <__rc7>
    4ed0: 64 0a        	stz	$a                      ; 0xa <__rc8>
    4ed2: 84 0b        	sty	$b                      ; 0xb <__rc9>
    4ed4: a6 0c        	ldx	$c                      ; 0xc <__rc10>
    4ed6: a9 00        	lda	#$0
    4ed8: 4c 91 64     	jmp	$6491 <lcopy>

00004edb <PutBAM>:
    4edb: 8d 11 75     	sta	$7511                   ; 0x7511 <__data_load_start+0x7b5>
    4ede: 8e 10 75     	stx	$7510                   ; 0x7510 <__data_load_start+0x7b4>
    4ee1: a2 00        	ldx	#$0
    4ee3: 86 04        	stx	$4                      ; 0x4 <__rc2>
    4ee5: a2 16        	ldx	#$16
    4ee7: 86 05        	stx	$5                      ; 0x5 <__rc3>
    4ee9: a2 28        	ldx	#$28
    4eeb: a0 01        	ldy	#$1
    4eed: 84 06        	sty	$6                      ; 0x6 <__zp_data_size>
    4eef: 20 cd 4d     	jsr	$4dcd <PutOneSector>
    4ef2: ae 00 16     	ldx	$1600                   ; 0x1600 <__bss_size+0xe4d>
    4ef5: ac 01 16     	ldy	$1601                   ; 0x1601 <__bss_size+0xe4e>
    4ef8: a9 00        	lda	#$0
    4efa: 85 04        	sta	$4                      ; 0x4 <__rc2>
    4efc: a9 17        	lda	#$17
    4efe: 85 05        	sta	$5                      ; 0x5 <__rc3>
    4f00: 84 06        	sty	$6                      ; 0x6 <__zp_data_size>
    4f02: ad 11 75     	lda	$7511                   ; 0x7511 <__data_load_start+0x7b5>
    4f05: 20 cd 4d     	jsr	$4dcd <PutOneSector>
    4f08: ae 10 75     	ldx	$7510                   ; 0x7510 <__data_load_start+0x7b4>
    4f0b: 86 04        	stx	$4                      ; 0x4 <__rc2>
    4f0d: 06 04        	asl	$4                      ; 0x4 <__rc2>
    4f0f: a9 00        	lda	#$0
    4f11: 2a           	rol
    4f12: aa           	tax
    4f13: a9 00        	lda	#$0
    4f15: 2a           	rol
    4f16: a8           	tay
    4f17: 18           	clc
    4f18: a5 04        	lda	$4                      ; 0x4 <__rc2>
    4f1a: 69 1c        	adc	#$1c
    4f1c: 85 07        	sta	$7                      ; 0x7 <__rc5>
    4f1e: 8a           	txa
    4f1f: 69 00        	adc	#$0
    4f21: 85 08        	sta	$8                      ; 0x8 <__rc6>
    4f23: 98           	tya
    4f24: 69 08        	adc	#$8
    4f26: a2 02        	ldx	#$2
    4f28: 85 09        	sta	$9                      ; 0x9 <__rc7>
    4f2a: 64 04        	stz	$4                      ; 0x4 <__rc2>
    4f2c: 64 05        	stz	$5                      ; 0x5 <__rc3>
    4f2e: 64 06        	stz	$6                      ; 0x6 <__zp_data_size>
    4f30: 64 0a        	stz	$a                      ; 0xa <__rc8>
    4f32: 86 0b        	stx	$b                      ; 0xb <__rc9>
    4f34: a2 16        	ldx	#$16
    4f36: a9 00        	lda	#$0
    4f38: 4c 91 64     	jmp	$6491 <lcopy>

00004f3b <readblockchain>:
    4f3b: a4 16        	ldy	$16                     ; 0x16 <__rc20>
    4f3d: 5a           	phy
    4f3e: a4 17        	ldy	$17                     ; 0x17 <__rc21>
    4f40: 5a           	phy
    4f41: a4 18        	ldy	$18                     ; 0x18 <__rc22>
    4f43: 5a           	phy
    4f44: a4 19        	ldy	$19                     ; 0x19 <__rc23>
    4f46: 5a           	phy
    4f47: a4 1a        	ldy	$1a                     ; 0x1a <__rc24>
    4f49: 8c 18 75     	sty	$7518                   ; 0x7518 <__data_load_start+0x7bc>
    4f4c: a4 1b        	ldy	$1b                     ; 0x1b <__rc25>
    4f4e: 8c 19 75     	sty	$7519                   ; 0x7519 <__data_load_start+0x7bd>
    4f51: a4 1c        	ldy	$1c                     ; 0x1c <__rc26>
    4f53: 8c 1a 75     	sty	$751a                   ; 0x751a <__data_load_start+0x7be>
    4f56: a4 1d        	ldy	$1d                     ; 0x1d <__rc27>
    4f58: 8c 1b 75     	sty	$751b                   ; 0x751b <__data_load_start+0x7bf>
    4f5b: a4 1e        	ldy	$1e                     ; 0x1e <__rc28>
    4f5d: 8c 1c 75     	sty	$751c                   ; 0x751c <__data_load_start+0x7c0>
    4f60: a4 1f        	ldy	$1f                     ; 0x1f <__rc29>
    4f62: 8c 1d 75     	sty	$751d                   ; 0x751d <__data_load_start+0x7c1>
    4f65: a4 20        	ldy	$20                     ; 0x20 <__rc30>
    4f67: 8c 1e 75     	sty	$751e                   ; 0x751e <__data_load_start+0x7c2>
    4f6a: 85 1b        	sta	$1b                     ; 0x1b <__rc25>
    4f6c: 86 1c        	stx	$1c                     ; 0x1c <__rc26>
    4f6e: a6 04        	ldx	$4                      ; 0x4 <__rc2>
    4f70: 86 16        	stx	$16                     ; 0x16 <__rc20>
    4f72: a6 05        	ldx	$5                      ; 0x5 <__rc3>
    4f74: 86 17        	stx	$17                     ; 0x17 <__rc21>
    4f76: a6 06        	ldx	$6                      ; 0x6 <__zp_data_size>
    4f78: 86 18        	stx	$18                     ; 0x18 <__rc22>
    4f7a: a6 07        	ldx	$7                      ; 0x7 <__rc5>
    4f7c: 86 19        	stx	$19                     ; 0x19 <__rc23>
    4f7e: a6 08        	ldx	$8                      ; 0x8 <__rc6>
    4f80: 86 1a        	stx	$1a                     ; 0x1a <__rc24>
    4f82: a5 09        	lda	$9                      ; 0x9 <__rc7>
    4f84: a6 0a        	ldx	$a                      ; 0xa <__rc8>
    4f86: 86 1f        	stx	$1f                     ; 0x1f <__rc29>
    4f88: 9c 80 d0     	stz	$d080                   ; 0xd080 <__heap_start+0x5b53>
    4f8b: a2 00        	ldx	#$0
    4f8d: a0 00        	ldy	#$0
    4f8f: c4 19        	cpy	$19                     ; 0x19 <__rc23>
    4f91: d0 07        	bne	$4f9a <readblockchain+0x5f>
    4f93: e4 18        	cpx	$18                     ; 0x18 <__rc22>
    4f95: d0 03        	bne	$4f9a <readblockchain+0x5f>
    4f97: 4c f7 4f     	jmp	$4ff7 <readblockchain+0xbc>
    4f9a: 84 1e        	sty	$1e                     ; 0x1e <__rc28>
    4f9c: 86 1d        	stx	$1d                     ; 0x1d <__rc27>
    4f9e: a2 00        	ldx	#$0
    4fa0: 86 04        	stx	$4                      ; 0x4 <__rc2>
    4fa2: a2 18        	ldx	#$18
    4fa4: 86 05        	stx	$5                      ; 0x5 <__rc3>
    4fa6: a6 1f        	ldx	$1f                     ; 0x1f <__rc29>
    4fa8: 86 06        	stx	$6                      ; 0x6 <__zp_data_size>
    4faa: aa           	tax
    4fab: a5 1a        	lda	$1a                     ; 0x1a <__rc24>
    4fad: 20 83 4d     	jsr	$4d83 <GetOneSector>
    4fb0: a9 00        	lda	#$0
    4fb2: 18           	clc
    4fb3: 65 1b        	adc	$1b                     ; 0x1b <__rc25>
    4fb5: 85 06        	sta	$6                      ; 0x6 <__zp_data_size>
    4fb7: a5 1d        	lda	$1d                     ; 0x1d <__rc27>
    4fb9: 65 1c        	adc	$1c                     ; 0x1c <__rc26>
    4fbb: 85 07        	sta	$7                      ; 0x7 <__rc5>
    4fbd: a5 1e        	lda	$1e                     ; 0x1e <__rc28>
    4fbf: 65 16        	adc	$16                     ; 0x16 <__rc20>
    4fc1: 85 08        	sta	$8                      ; 0x8 <__rc6>
    4fc3: a9 00        	lda	#$0
    4fc5: 65 17        	adc	$17                     ; 0x17 <__rc21>
    4fc7: ae 00 18     	ldx	$1800                   ; 0x1800 <__bss_size+0x104d>
    4fca: 86 20        	stx	$20                     ; 0x20 <__rc30>
    4fcc: ae 01 18     	ldx	$1801                   ; 0x1801 <__bss_size+0x104e>
    4fcf: 86 1f        	stx	$1f                     ; 0x1f <__rc29>
    4fd1: 64 04        	stz	$4                      ; 0x4 <__rc2>
    4fd3: 64 05        	stz	$5                      ; 0x5 <__rc3>
    4fd5: 85 09        	sta	$9                      ; 0x9 <__rc7>
    4fd7: 64 0a        	stz	$a                      ; 0xa <__rc8>
    4fd9: a2 01        	ldx	#$1
    4fdb: 86 0b        	stx	$b                      ; 0xb <__rc9>
    4fdd: a2 18        	ldx	#$18
    4fdf: a9 00        	lda	#$0
    4fe1: 20 91 64     	jsr	$6491 <lcopy>
    4fe4: a4 1e        	ldy	$1e                     ; 0x1e <__rc28>
    4fe6: a5 20        	lda	$20                     ; 0x20 <__rc30>
    4fe8: a6 1d        	ldx	$1d                     ; 0x1d <__rc27>
    4fea: e8           	inx
    4feb: d0 01        	bne	$4fee <readblockchain+0xb3>
    4fed: c8           	iny
    4fee: e6 20        	inc	$20                     ; 0x20 <__rc30>
    4ff0: c6 20        	dec	$20                     ; 0x20 <__rc30>
    4ff2: f0 23        	beq	$5017 <readblockchain+0xdc>
    4ff4: 4c 8f 4f     	jmp	$4f8f <readblockchain+0x54>
    4ff7: aa           	tax
    4ff8: f0 1d        	beq	$5017 <readblockchain+0xdc>
    4ffa: a9 00        	lda	#$0
    4ffc: a2 06        	ldx	#$6
    4ffe: 86 04        	stx	$4                      ; 0x4 <__rc2>
    5000: a2 6b        	ldx	#$6b
    5002: 86 05        	stx	$5                      ; 0x5 <__rc3>
    5004: a2 40        	ldx	#$40
    5006: 86 06        	stx	$6                      ; 0x6 <__zp_data_size>
    5008: a2 68        	ldx	#$68
    500a: 86 07        	stx	$7                      ; 0x7 <__rc5>
    500c: a2 ac        	ldx	#$ac
    500e: 86 08        	stx	$8                      ; 0x8 <__rc6>
    5010: a2 68        	ldx	#$68
    5012: 86 09        	stx	$9                      ; 0x9 <__rc7>
    5014: 20 99 5a     	jsr	$5a99 <messagebox>
    5017: ae 1e 75     	ldx	$751e                   ; 0x751e <__data_load_start+0x7c2>
    501a: 86 20        	stx	$20                     ; 0x20 <__rc30>
    501c: ae 1d 75     	ldx	$751d                   ; 0x751d <__data_load_start+0x7c1>
    501f: 86 1f        	stx	$1f                     ; 0x1f <__rc29>
    5021: ae 1c 75     	ldx	$751c                   ; 0x751c <__data_load_start+0x7c0>
    5024: 86 1e        	stx	$1e                     ; 0x1e <__rc28>
    5026: ae 1b 75     	ldx	$751b                   ; 0x751b <__data_load_start+0x7bf>
    5029: 86 1d        	stx	$1d                     ; 0x1d <__rc27>
    502b: ae 1a 75     	ldx	$751a                   ; 0x751a <__data_load_start+0x7be>
    502e: 86 1c        	stx	$1c                     ; 0x1c <__rc26>
    5030: ae 19 75     	ldx	$7519                   ; 0x7519 <__data_load_start+0x7bd>
    5033: 86 1b        	stx	$1b                     ; 0x1b <__rc25>
    5035: ae 18 75     	ldx	$7518                   ; 0x7518 <__data_load_start+0x7bc>
    5038: 86 1a        	stx	$1a                     ; 0x1a <__rc24>
    503a: fa           	plx
    503b: 86 19        	stx	$19                     ; 0x19 <__rc23>
    503d: fa           	plx
    503e: 86 18        	stx	$18                     ; 0x18 <__rc22>
    5040: fa           	plx
    5041: 86 17        	stx	$17                     ; 0x17 <__rc21>
    5043: fa           	plx
    5044: 86 16        	stx	$16                     ; 0x16 <__rc20>
    5046: 60           	rts

00005047 <BAMSectorUpdate>:
    5047: a4 16        	ldy	$16                     ; 0x16 <__rc20>
    5049: 5a           	phy
    504a: a4 17        	ldy	$17                     ; 0x17 <__rc21>
    504c: 5a           	phy
    504d: a4 18        	ldy	$18                     ; 0x18 <__rc22>
    504f: 5a           	phy
    5050: a4 19        	ldy	$19                     ; 0x19 <__rc23>
    5052: 5a           	phy
    5053: a8           	tay
    5054: c9 29        	cmp	#$29
    5056: 90 0e        	bcc	$5066 <BAMSectorUpdate+0x1f>
    5058: a4 06        	ldy	$6                      ; 0x6 <__zp_data_size>
    505a: 84 16        	sty	$16                     ; 0x16 <__rc20>
    505c: a4 07        	ldy	$7                      ; 0x7 <__rc5>
    505e: 84 17        	sty	$17                     ; 0x17 <__rc21>
    5060: 18           	clc
    5061: 69 d8        	adc	#$d8
    5063: a8           	tay
    5064: 80 08        	bra	$506e <BAMSectorUpdate+0x27>
    5066: a5 04        	lda	$4                      ; 0x4 <__rc2>
    5068: 85 16        	sta	$16                     ; 0x16 <__rc20>
    506a: a5 05        	lda	$5                      ; 0x5 <__rc3>
    506c: 85 17        	sta	$17                     ; 0x17 <__rc21>
    506e: 88           	dey
    506f: 84 07        	sty	$7                      ; 0x7 <__rc5>
    5071: a5 08        	lda	$8                      ; 0x8 <__rc6>
    5073: f0 26        	beq	$509b <BAMSectorUpdate+0x54>
    5075: 86 6e        	stx	$6e                     ; 0x6e <__zp_bss_size+0x2f>
    5077: e0 08        	cpx	#$8
    5079: b0 49        	bcs	$50c4 <BAMSectorUpdate+0x7d>
    507b: a2 06        	ldx	#$6
    507d: 86 04        	stx	$4                      ; 0x4 <__rc2>
    507f: 64 05        	stz	$5                      ; 0x5 <__rc3>
    5081: a2 00        	ldx	#$0
    5083: 86 70        	stx	$70                     ; 0x70 <__zp_bss_size+0x31>
    5085: 98           	tya
    5086: 84 71        	sty	$71                     ; 0x71 <__zp_bss_size+0x32>
    5088: 20 e2 65     	jsr	$65e2 <__mulhi3>
    508b: 18           	clc
    508c: 65 16        	adc	$16                     ; 0x16 <__rc20>
    508e: a8           	tay
    508f: 8a           	txa
    5090: 65 17        	adc	$17                     ; 0x17 <__rc21>
    5092: 85 04        	sta	$4                      ; 0x4 <__rc2>
    5094: 18           	clc
    5095: 98           	tya
    5096: 69 11        	adc	#$11
    5098: 4c 0b 52     	jmp	$520b <BAMSectorUpdate+0x1c4>
    509b: 86 6e        	stx	$6e                     ; 0x6e <__zp_bss_size+0x2f>
    509d: e0 08        	cpx	#$8
    509f: 90 03        	bcc	$50a4 <BAMSectorUpdate+0x5d>
    50a1: 4c f7 50     	jmp	$50f7 <BAMSectorUpdate+0xb0>
    50a4: a2 06        	ldx	#$6
    50a6: 86 04        	stx	$4                      ; 0x4 <__rc2>
    50a8: 64 05        	stz	$5                      ; 0x5 <__rc3>
    50aa: a2 00        	ldx	#$0
    50ac: 86 70        	stx	$70                     ; 0x70 <__zp_bss_size+0x31>
    50ae: 98           	tya
    50af: 84 71        	sty	$71                     ; 0x71 <__zp_bss_size+0x32>
    50b1: 20 e2 65     	jsr	$65e2 <__mulhi3>
    50b4: 18           	clc
    50b5: 65 16        	adc	$16                     ; 0x16 <__rc20>
    50b7: a8           	tay
    50b8: 8a           	txa
    50b9: 65 17        	adc	$17                     ; 0x17 <__rc21>
    50bb: 85 04        	sta	$4                      ; 0x4 <__rc2>
    50bd: 18           	clc
    50be: 98           	tya
    50bf: 69 11        	adc	#$11
    50c1: 4c 4d 52     	jmp	$524d <BAMSectorUpdate+0x206>
    50c4: e0 10        	cpx	#$10
    50c6: a2 00        	ldx	#$0
    50c8: 90 03        	bcc	$50cd <BAMSectorUpdate+0x86>
    50ca: 4c 24 51     	jmp	$5124 <BAMSectorUpdate+0xdd>
    50cd: 18           	clc
    50ce: a5 6e        	lda	$6e                     ; 0x6e <__zp_bss_size+0x2f>
    50d0: 69 f8        	adc	#$f8
    50d2: 85 6e        	sta	$6e                     ; 0x6e <__zp_bss_size+0x2f>
    50d4: a0 06        	ldy	#$6
    50d6: 64 05        	stz	$5                      ; 0x5 <__rc3>
    50d8: 84 04        	sty	$4                      ; 0x4 <__rc2>
    50da: a0 00        	ldy	#$0
    50dc: 84 70        	sty	$70                     ; 0x70 <__zp_bss_size+0x31>
    50de: a4 07        	ldy	$7                      ; 0x7 <__rc5>
    50e0: 84 71        	sty	$71                     ; 0x71 <__zp_bss_size+0x32>
    50e2: a5 07        	lda	$7                      ; 0x7 <__rc5>
    50e4: 20 e2 65     	jsr	$65e2 <__mulhi3>
    50e7: 18           	clc
    50e8: 65 16        	adc	$16                     ; 0x16 <__rc20>
    50ea: a8           	tay
    50eb: 8a           	txa
    50ec: 65 17        	adc	$17                     ; 0x17 <__rc21>
    50ee: 85 04        	sta	$4                      ; 0x4 <__rc2>
    50f0: 18           	clc
    50f1: 98           	tya
    50f2: 69 12        	adc	#$12
    50f4: 4c 0b 52     	jmp	$520b <BAMSectorUpdate+0x1c4>
    50f7: e0 10        	cpx	#$10
    50f9: 90 03        	bcc	$50fe <BAMSectorUpdate+0xb7>
    50fb: 4c 57 51     	jmp	$5157 <BAMSectorUpdate+0x110>
    50fe: 18           	clc
    50ff: 8a           	txa
    5100: 69 f8        	adc	#$f8
    5102: 85 6e        	sta	$6e                     ; 0x6e <__zp_bss_size+0x2f>
    5104: a2 06        	ldx	#$6
    5106: 64 05        	stz	$5                      ; 0x5 <__rc3>
    5108: 86 04        	stx	$4                      ; 0x4 <__rc2>
    510a: a2 00        	ldx	#$0
    510c: 86 70        	stx	$70                     ; 0x70 <__zp_bss_size+0x31>
    510e: 84 71        	sty	$71                     ; 0x71 <__zp_bss_size+0x32>
    5110: 98           	tya
    5111: 20 e2 65     	jsr	$65e2 <__mulhi3>
    5114: 18           	clc
    5115: 65 16        	adc	$16                     ; 0x16 <__rc20>
    5117: a8           	tay
    5118: 8a           	txa
    5119: 65 17        	adc	$17                     ; 0x17 <__rc21>
    511b: 85 04        	sta	$4                      ; 0x4 <__rc2>
    511d: 18           	clc
    511e: 98           	tya
    511f: 69 12        	adc	#$12
    5121: 4c 4d 52     	jmp	$524d <BAMSectorUpdate+0x206>
    5124: a4 6e        	ldy	$6e                     ; 0x6e <__zp_bss_size+0x2f>
    5126: c0 18        	cpy	#$18
    5128: 90 03        	bcc	$512d <BAMSectorUpdate+0xe6>
    512a: 4c 84 51     	jmp	$5184 <BAMSectorUpdate+0x13d>
    512d: 18           	clc
    512e: a5 6e        	lda	$6e                     ; 0x6e <__zp_bss_size+0x2f>
    5130: 69 f0        	adc	#$f0
    5132: 85 6e        	sta	$6e                     ; 0x6e <__zp_bss_size+0x2f>
    5134: a0 06        	ldy	#$6
    5136: 64 05        	stz	$5                      ; 0x5 <__rc3>
    5138: 84 04        	sty	$4                      ; 0x4 <__rc2>
    513a: a0 00        	ldy	#$0
    513c: 84 70        	sty	$70                     ; 0x70 <__zp_bss_size+0x31>
    513e: a4 07        	ldy	$7                      ; 0x7 <__rc5>
    5140: 84 71        	sty	$71                     ; 0x71 <__zp_bss_size+0x32>
    5142: a5 07        	lda	$7                      ; 0x7 <__rc5>
    5144: 20 e2 65     	jsr	$65e2 <__mulhi3>
    5147: 18           	clc
    5148: 65 16        	adc	$16                     ; 0x16 <__rc20>
    514a: a8           	tay
    514b: 8a           	txa
    514c: 65 17        	adc	$17                     ; 0x17 <__rc21>
    514e: 85 04        	sta	$4                      ; 0x4 <__rc2>
    5150: 18           	clc
    5151: 98           	tya
    5152: 69 13        	adc	#$13
    5154: 4c 0b 52     	jmp	$520b <BAMSectorUpdate+0x1c4>
    5157: e0 18        	cpx	#$18
    5159: 90 03        	bcc	$515e <BAMSectorUpdate+0x117>
    515b: 4c b7 51     	jmp	$51b7 <BAMSectorUpdate+0x170>
    515e: 18           	clc
    515f: 8a           	txa
    5160: 69 f0        	adc	#$f0
    5162: 85 6e        	sta	$6e                     ; 0x6e <__zp_bss_size+0x2f>
    5164: a2 06        	ldx	#$6
    5166: 64 05        	stz	$5                      ; 0x5 <__rc3>
    5168: 86 04        	stx	$4                      ; 0x4 <__rc2>
    516a: a2 00        	ldx	#$0
    516c: 86 70        	stx	$70                     ; 0x70 <__zp_bss_size+0x31>
    516e: 98           	tya
    516f: 84 71        	sty	$71                     ; 0x71 <__zp_bss_size+0x32>
    5171: 20 e2 65     	jsr	$65e2 <__mulhi3>
    5174: 18           	clc
    5175: 65 16        	adc	$16                     ; 0x16 <__rc20>
    5177: a8           	tay
    5178: 8a           	txa
    5179: 65 17        	adc	$17                     ; 0x17 <__rc21>
    517b: 85 04        	sta	$4                      ; 0x4 <__rc2>
    517d: 18           	clc
    517e: 98           	tya
    517f: 69 13        	adc	#$13
    5181: 4c 4d 52     	jmp	$524d <BAMSectorUpdate+0x206>
    5184: a4 6e        	ldy	$6e                     ; 0x6e <__zp_bss_size+0x2f>
    5186: c0 20        	cpy	#$20
    5188: 90 03        	bcc	$518d <BAMSectorUpdate+0x146>
    518a: 4c e4 51     	jmp	$51e4 <BAMSectorUpdate+0x19d>
    518d: 18           	clc
    518e: a5 6e        	lda	$6e                     ; 0x6e <__zp_bss_size+0x2f>
    5190: 69 e8        	adc	#$e8
    5192: 85 6e        	sta	$6e                     ; 0x6e <__zp_bss_size+0x2f>
    5194: a0 06        	ldy	#$6
    5196: 64 05        	stz	$5                      ; 0x5 <__rc3>
    5198: 84 04        	sty	$4                      ; 0x4 <__rc2>
    519a: a0 00        	ldy	#$0
    519c: 84 70        	sty	$70                     ; 0x70 <__zp_bss_size+0x31>
    519e: a5 07        	lda	$7                      ; 0x7 <__rc5>
    51a0: a4 07        	ldy	$7                      ; 0x7 <__rc5>
    51a2: 84 71        	sty	$71                     ; 0x71 <__zp_bss_size+0x32>
    51a4: 20 e2 65     	jsr	$65e2 <__mulhi3>
    51a7: 18           	clc
    51a8: 65 16        	adc	$16                     ; 0x16 <__rc20>
    51aa: a8           	tay
    51ab: 8a           	txa
    51ac: 65 17        	adc	$17                     ; 0x17 <__rc21>
    51ae: 85 04        	sta	$4                      ; 0x4 <__rc2>
    51b0: 18           	clc
    51b1: 98           	tya
    51b2: 69 14        	adc	#$14
    51b4: 4c 0b 52     	jmp	$520b <BAMSectorUpdate+0x1c4>
    51b7: e0 20        	cpx	#$20
    51b9: 90 03        	bcc	$51be <BAMSectorUpdate+0x177>
    51bb: 4c 2a 52     	jmp	$522a <BAMSectorUpdate+0x1e3>
    51be: 18           	clc
    51bf: 8a           	txa
    51c0: 69 e8        	adc	#$e8
    51c2: 85 6e        	sta	$6e                     ; 0x6e <__zp_bss_size+0x2f>
    51c4: a2 06        	ldx	#$6
    51c6: 64 05        	stz	$5                      ; 0x5 <__rc3>
    51c8: 86 04        	stx	$4                      ; 0x4 <__rc2>
    51ca: a2 00        	ldx	#$0
    51cc: 86 70        	stx	$70                     ; 0x70 <__zp_bss_size+0x31>
    51ce: 98           	tya
    51cf: 84 71        	sty	$71                     ; 0x71 <__zp_bss_size+0x32>
    51d1: 20 e2 65     	jsr	$65e2 <__mulhi3>
    51d4: 18           	clc
    51d5: 65 16        	adc	$16                     ; 0x16 <__rc20>
    51d7: a8           	tay
    51d8: 8a           	txa
    51d9: 65 17        	adc	$17                     ; 0x17 <__rc21>
    51db: 85 04        	sta	$4                      ; 0x4 <__rc2>
    51dd: 18           	clc
    51de: 98           	tya
    51df: 69 14        	adc	#$14
    51e1: 4c 4d 52     	jmp	$524d <BAMSectorUpdate+0x206>
    51e4: 18           	clc
    51e5: a5 6e        	lda	$6e                     ; 0x6e <__zp_bss_size+0x2f>
    51e7: 69 e0        	adc	#$e0
    51e9: 85 6e        	sta	$6e                     ; 0x6e <__zp_bss_size+0x2f>
    51eb: a0 06        	ldy	#$6
    51ed: 64 05        	stz	$5                      ; 0x5 <__rc3>
    51ef: 84 04        	sty	$4                      ; 0x4 <__rc2>
    51f1: a0 00        	ldy	#$0
    51f3: 84 70        	sty	$70                     ; 0x70 <__zp_bss_size+0x31>
    51f5: a5 07        	lda	$7                      ; 0x7 <__rc5>
    51f7: a4 07        	ldy	$7                      ; 0x7 <__rc5>
    51f9: 84 71        	sty	$71                     ; 0x71 <__zp_bss_size+0x32>
    51fb: 20 e2 65     	jsr	$65e2 <__mulhi3>
    51fe: 18           	clc
    51ff: 65 16        	adc	$16                     ; 0x16 <__rc20>
    5201: a8           	tay
    5202: 8a           	txa
    5203: 65 17        	adc	$17                     ; 0x17 <__rc21>
    5205: 85 04        	sta	$4                      ; 0x4 <__rc2>
    5207: 18           	clc
    5208: 98           	tya
    5209: 69 15        	adc	#$15
    520b: 85 18        	sta	$18                     ; 0x18 <__rc22>
    520d: a5 04        	lda	$4                      ; 0x4 <__rc2>
    520f: 69 00        	adc	#$0
    5211: 85 19        	sta	$19                     ; 0x19 <__rc23>
    5213: a9 01        	lda	#$1
    5215: a2 00        	ldx	#$0
    5217: a4 6e        	ldy	$6e                     ; 0x6e <__zp_bss_size+0x2f>
    5219: 84 04        	sty	$4                      ; 0x4 <__rc2>
    521b: 20 b4 65     	jsr	$65b4 <__ashlhi3>
    521e: 49 ff        	eor	#$ff
    5220: 32 18        	and	($18),z                 ; 0x18 <__rc22>
    5222: 92 18        	sta	($18),z                 ; 0x18 <__rc22>
    5224: a2 ff        	ldx	#$ff
    5226: 86 6f        	stx	$6f                     ; 0x6f <__zp_bss_size+0x30>
    5228: 80 3d        	bra	$5267 <BAMSectorUpdate+0x220>
    522a: 18           	clc
    522b: 8a           	txa
    522c: 69 e0        	adc	#$e0
    522e: 85 6e        	sta	$6e                     ; 0x6e <__zp_bss_size+0x2f>
    5230: a2 06        	ldx	#$6
    5232: 64 05        	stz	$5                      ; 0x5 <__rc3>
    5234: 86 04        	stx	$4                      ; 0x4 <__rc2>
    5236: a2 00        	ldx	#$0
    5238: 86 70        	stx	$70                     ; 0x70 <__zp_bss_size+0x31>
    523a: 98           	tya
    523b: 84 71        	sty	$71                     ; 0x71 <__zp_bss_size+0x32>
    523d: 20 e2 65     	jsr	$65e2 <__mulhi3>
    5240: 18           	clc
    5241: 65 16        	adc	$16                     ; 0x16 <__rc20>
    5243: a8           	tay
    5244: 8a           	txa
    5245: 65 17        	adc	$17                     ; 0x17 <__rc21>
    5247: 85 04        	sta	$4                      ; 0x4 <__rc2>
    5249: 18           	clc
    524a: 98           	tya
    524b: 69 15        	adc	#$15
    524d: 85 18        	sta	$18                     ; 0x18 <__rc22>
    524f: a5 04        	lda	$4                      ; 0x4 <__rc2>
    5251: 69 00        	adc	#$0
    5253: 85 19        	sta	$19                     ; 0x19 <__rc23>
    5255: a6 6e        	ldx	$6e                     ; 0x6e <__zp_bss_size+0x2f>
    5257: 86 04        	stx	$4                      ; 0x4 <__rc2>
    5259: a2 00        	ldx	#$0
    525b: a9 01        	lda	#$1
    525d: a8           	tay
    525e: 84 6f        	sty	$6f                     ; 0x6f <__zp_bss_size+0x30>
    5260: 20 b4 65     	jsr	$65b4 <__ashlhi3>
    5263: 12 18        	ora	($18),z                 ; 0x18 <__rc22>
    5265: 92 18        	sta	($18),z                 ; 0x18 <__rc22>
    5267: a6 70        	ldx	$70                     ; 0x70 <__zp_bss_size+0x31>
    5269: a5 71        	lda	$71                     ; 0x71 <__zp_bss_size+0x32>
    526b: a0 06        	ldy	#$6
    526d: 64 05        	stz	$5                      ; 0x5 <__rc3>
    526f: 84 04        	sty	$4                      ; 0x4 <__rc2>
    5271: 20 e2 65     	jsr	$65e2 <__mulhi3>
    5274: 86 04        	stx	$4                      ; 0x4 <__rc2>
    5276: 18           	clc
    5277: 65 16        	adc	$16                     ; 0x16 <__rc20>
    5279: 85 06        	sta	$6                      ; 0x6 <__zp_data_size>
    527b: a5 17        	lda	$17                     ; 0x17 <__rc21>
    527d: 65 04        	adc	$4                      ; 0x4 <__rc2>
    527f: 85 07        	sta	$7                      ; 0x7 <__rc5>
    5281: a0 10        	ldy	#$10
    5283: 18           	clc
    5284: a5 6f        	lda	$6f                     ; 0x6f <__zp_bss_size+0x30>
    5286: 71 06        	adc	($6),y                  ; 0x6 <__zp_data_size>
    5288: 91 06        	sta	($6),y                  ; 0x6 <__zp_data_size>
    528a: fa           	plx
    528b: 86 19        	stx	$19                     ; 0x19 <__rc23>
    528d: fa           	plx
    528e: 86 18        	stx	$18                     ; 0x18 <__rc22>
    5290: fa           	plx
    5291: 86 17        	stx	$17                     ; 0x17 <__rc21>
    5293: fa           	plx
    5294: 86 16        	stx	$16                     ; 0x16 <__rc20>
    5296: 60           	rts

00005297 <findnextBAMtracksector>:
    5297: a6 18        	ldx	$18                     ; 0x18 <__rc22>
    5299: da           	phx
    529a: a6 19        	ldx	$19                     ; 0x19 <__rc23>
    529c: da           	phx
    529d: a6 1c        	ldx	$1c                     ; 0x1c <__rc26>
    529f: da           	phx
    52a0: a6 1d        	ldx	$1d                     ; 0x1d <__rc27>
    52a2: da           	phx
    52a3: a6 1e        	ldx	$1e                     ; 0x1e <__rc28>
    52a5: 8e 10 75     	stx	$7510                   ; 0x7510 <__data_load_start+0x7b4>
    52a8: a6 1f        	ldx	$1f                     ; 0x1f <__rc29>
    52aa: 8e 11 75     	stx	$7511                   ; 0x7511 <__data_load_start+0x7b5>
    52ad: 85 69        	sta	$69                     ; 0x69 <__zp_bss_size+0x2a>
    52af: a6 04        	ldx	$4                      ; 0x4 <__rc2>
    52b1: 86 1c        	stx	$1c                     ; 0x1c <__rc26>
    52b3: a6 05        	ldx	$5                      ; 0x5 <__rc3>
    52b5: 86 1d        	stx	$1d                     ; 0x1d <__rc27>
    52b7: a6 06        	ldx	$6                      ; 0x6 <__zp_data_size>
    52b9: 86 18        	stx	$18                     ; 0x18 <__rc22>
    52bb: a6 07        	ldx	$7                      ; 0x7 <__rc5>
    52bd: 86 19        	stx	$19                     ; 0x19 <__rc23>
    52bf: a2 00        	ldx	#$0
    52c1: e0 50        	cpx	#$50
    52c3: d0 03        	bne	$52c8 <findnextBAMtracksector+0x31>
    52c5: 4c e0 53     	jmp	$53e0 <findnextBAMtracksector+0x149>
    52c8: 86 6b        	stx	$6b                     ; 0x6b <__zp_bss_size+0x2c>
    52ca: bd ed 6c     	lda	$6ced,x                 ; 0x6ced <midnight+0x8>
    52cd: aa           	tax
    52ce: a5 69        	lda	$69                     ; 0x69 <__zp_bss_size+0x2a>
    52d0: f0 01        	beq	$52d3 <findnextBAMtracksector+0x3c>
    52d2: e8           	inx
    52d3: e0 50        	cpx	#$50
    52d5: a0 e1        	ldy	#$e1
    52d7: 84 04        	sty	$4                      ; 0x4 <__rc2>
    52d9: a0 6c        	ldy	#$6c
    52db: 84 05        	sty	$5                      ; 0x5 <__rc3>
    52dd: 64 67        	stz	$67                     ; 0x67 <__zp_bss_size+0x28>
    52df: 64 06        	stz	$6                      ; 0x6 <__zp_data_size>
    52e1: b0 1a        	bcs	$52fd <findnextBAMtracksector+0x66>
    52e3: e0 28        	cpx	#$28
    52e5: b0 06        	bcs	$52ed <findnextBAMtracksector+0x56>
    52e7: 86 67        	stx	$67                     ; 0x67 <__zp_bss_size+0x28>
    52e9: 86 06        	stx	$6                      ; 0x6 <__zp_data_size>
    52eb: 80 10        	bra	$52fd <findnextBAMtracksector+0x66>
    52ed: a0 e3        	ldy	#$e3
    52ef: 84 04        	sty	$4                      ; 0x4 <__rc2>
    52f1: a0 6c        	ldy	#$6c
    52f3: 84 05        	sty	$5                      ; 0x5 <__rc3>
    52f5: 18           	clc
    52f6: 8a           	txa
    52f7: 69 d8        	adc	#$d8
    52f9: 85 06        	sta	$6                      ; 0x6 <__zp_data_size>
    52fb: 86 67        	stx	$67                     ; 0x67 <__zp_bss_size+0x28>
    52fd: b2 04        	lda	($4),z                  ; 0x4 <__rc2>
    52ff: 85 6a        	sta	$6a                     ; 0x6a <__zp_bss_size+0x2b>
    5301: a0 01        	ldy	#$1
    5303: b1 04        	lda	($4),y                  ; 0x4 <__rc2>
    5305: 85 68        	sta	$68                     ; 0x68 <__zp_bss_size+0x29>
    5307: a2 06        	ldx	#$6
    5309: 86 04        	stx	$4                      ; 0x4 <__rc2>
    530b: 64 05        	stz	$5                      ; 0x5 <__rc3>
    530d: a2 00        	ldx	#$0
    530f: a5 06        	lda	$6                      ; 0x6 <__zp_data_size>
    5311: 20 e2 65     	jsr	$65e2 <__mulhi3>
    5314: 85 04        	sta	$4                      ; 0x4 <__rc2>
    5316: 86 05        	stx	$5                      ; 0x5 <__rc3>
    5318: 18           	clc
    5319: a5 6a        	lda	$6a                     ; 0x6a <__zp_bss_size+0x2b>
    531b: 65 04        	adc	$4                      ; 0x4 <__rc2>
    531d: 85 1e        	sta	$1e                     ; 0x1e <__rc28>
    531f: a5 68        	lda	$68                     ; 0x68 <__zp_bss_size+0x29>
    5321: 65 05        	adc	$5                      ; 0x5 <__rc3>
    5323: 85 1f        	sta	$1f                     ; 0x1f <__rc29>
    5325: a6 6b        	ldx	$6b                     ; 0x6b <__zp_bss_size+0x2c>
    5327: a9 00        	lda	#$0
    5329: 4c 83 53     	jmp	$5383 <findnextBAMtracksector+0xec>
    532c: c9 10        	cmp	#$10
    532e: b0 0f        	bcs	$533f <findnextBAMtracksector+0xa8>
    5330: a0 12        	ldy	#$12
    5332: 85 6c        	sta	$6c                     ; 0x6c <__zp_bss_size+0x2d>
    5334: b1 1e        	lda	($1e),y                 ; 0x1e <__rc28>
    5336: 85 6a        	sta	$6a                     ; 0x6a <__zp_bss_size+0x2b>
    5338: 18           	clc
    5339: a5 6c        	lda	$6c                     ; 0x6c <__zp_bss_size+0x2d>
    533b: 69 f8        	adc	#$f8
    533d: 80 31        	bra	$5370 <findnextBAMtracksector+0xd9>
    533f: c9 18        	cmp	#$18
    5341: b0 0f        	bcs	$5352 <findnextBAMtracksector+0xbb>
    5343: a0 13        	ldy	#$13
    5345: 85 6c        	sta	$6c                     ; 0x6c <__zp_bss_size+0x2d>
    5347: b1 1e        	lda	($1e),y                 ; 0x1e <__rc28>
    5349: 85 6a        	sta	$6a                     ; 0x6a <__zp_bss_size+0x2b>
    534b: 18           	clc
    534c: a5 6c        	lda	$6c                     ; 0x6c <__zp_bss_size+0x2d>
    534e: 69 f0        	adc	#$f0
    5350: 80 1e        	bra	$5370 <findnextBAMtracksector+0xd9>
    5352: c9 20        	cmp	#$20
    5354: 85 6c        	sta	$6c                     ; 0x6c <__zp_bss_size+0x2d>
    5356: b0 0d        	bcs	$5365 <findnextBAMtracksector+0xce>
    5358: a0 14        	ldy	#$14
    535a: b1 1e        	lda	($1e),y                 ; 0x1e <__rc28>
    535c: 85 6a        	sta	$6a                     ; 0x6a <__zp_bss_size+0x2b>
    535e: 18           	clc
    535f: a5 6c        	lda	$6c                     ; 0x6c <__zp_bss_size+0x2d>
    5361: 69 e8        	adc	#$e8
    5363: 80 0b        	bra	$5370 <findnextBAMtracksector+0xd9>
    5365: a0 15        	ldy	#$15
    5367: b1 1e        	lda	($1e),y                 ; 0x1e <__rc28>
    5369: 85 6a        	sta	$6a                     ; 0x6a <__zp_bss_size+0x2b>
    536b: 18           	clc
    536c: a5 6c        	lda	$6c                     ; 0x6c <__zp_bss_size+0x2d>
    536e: 69 e0        	adc	#$e0
    5370: 85 04        	sta	$4                      ; 0x4 <__rc2>
    5372: a2 00        	ldx	#$0
    5374: a9 01        	lda	#$1
    5376: 20 b4 65     	jsr	$65b4 <__ashlhi3>
    5379: 25 6a        	and	$6a                     ; 0x6a <__zp_bss_size+0x2b>
    537b: d0 23        	bne	$53a0 <findnextBAMtracksector+0x109>
    537d: e6 6c        	inc	$6c                     ; 0x6c <__zp_bss_size+0x2d>
    537f: a6 6b        	ldx	$6b                     ; 0x6b <__zp_bss_size+0x2c>
    5381: a5 6c        	lda	$6c                     ; 0x6c <__zp_bss_size+0x2d>
    5383: c9 28        	cmp	#$28
    5385: f0 15        	beq	$539c <findnextBAMtracksector+0x105>
    5387: c9 08        	cmp	#$8
    5389: 90 03        	bcc	$538e <findnextBAMtracksector+0xf7>
    538b: 4c 2c 53     	jmp	$532c <findnextBAMtracksector+0x95>
    538e: a0 11        	ldy	#$11
    5390: 85 6c        	sta	$6c                     ; 0x6c <__zp_bss_size+0x2d>
    5392: b1 1e        	lda	($1e),y                 ; 0x1e <__rc28>
    5394: 85 6a        	sta	$6a                     ; 0x6a <__zp_bss_size+0x2b>
    5396: a6 6c        	ldx	$6c                     ; 0x6c <__zp_bss_size+0x2d>
    5398: 86 04        	stx	$4                      ; 0x4 <__rc2>
    539a: 80 d6        	bra	$5372 <findnextBAMtracksector+0xdb>
    539c: e8           	inx
    539d: 4c c1 52     	jmp	$52c1 <findnextBAMtracksector+0x2a>
    53a0: a2 01        	ldx	#$1
    53a2: e6 67        	inc	$67                     ; 0x67 <__zp_bss_size+0x28>
    53a4: a0 00        	ldy	#$0
    53a6: 84 04        	sty	$4                      ; 0x4 <__rc2>
    53a8: a0 16        	ldy	#$16
    53aa: 84 05        	sty	$5                      ; 0x5 <__rc3>
    53ac: a0 00        	ldy	#$0
    53ae: 84 06        	sty	$6                      ; 0x6 <__zp_data_size>
    53b0: a0 17        	ldy	#$17
    53b2: 84 07        	sty	$7                      ; 0x7 <__rc5>
    53b4: 86 08        	stx	$8                      ; 0x8 <__rc6>
    53b6: a6 6c        	ldx	$6c                     ; 0x6c <__zp_bss_size+0x2d>
    53b8: a4 67        	ldy	$67                     ; 0x67 <__zp_bss_size+0x28>
    53ba: 84 6d        	sty	$6d                     ; 0x6d <__zp_bss_size+0x2e>
    53bc: a5 67        	lda	$67                     ; 0x67 <__zp_bss_size+0x28>
    53be: 20 47 50     	jsr	$5047 <BAMSectorUpdate>
    53c1: a5 6d        	lda	$6d                     ; 0x6d <__zp_bss_size+0x2e>
    53c3: 92 1c        	sta	($1c),z                 ; 0x1c <__rc26>
    53c5: a5 6c        	lda	$6c                     ; 0x6c <__zp_bss_size+0x2d>
    53c7: 92 18        	sta	($18),z                 ; 0x18 <__rc22>
    53c9: ae 11 75     	ldx	$7511                   ; 0x7511 <__data_load_start+0x7b5>
    53cc: 86 1f        	stx	$1f                     ; 0x1f <__rc29>
    53ce: ae 10 75     	ldx	$7510                   ; 0x7510 <__data_load_start+0x7b4>
    53d1: 86 1e        	stx	$1e                     ; 0x1e <__rc28>
    53d3: fa           	plx
    53d4: 86 1d        	stx	$1d                     ; 0x1d <__rc27>
    53d6: fa           	plx
    53d7: 86 1c        	stx	$1c                     ; 0x1c <__rc26>
    53d9: fa           	plx
    53da: 86 19        	stx	$19                     ; 0x19 <__rc23>
    53dc: fa           	plx
    53dd: 86 18        	stx	$18                     ; 0x18 <__rc22>
    53df: 60           	rts
    53e0: a2 ff        	ldx	#$ff
    53e2: 86 6d        	stx	$6d                     ; 0x6d <__zp_bss_size+0x2e>
    53e4: 64 6c        	stz	$6c                     ; 0x6c <__zp_bss_size+0x2d>
    53e6: 80 d9        	bra	$53c1 <findnextBAMtracksector+0x12a>

000053e8 <tracksectorstring>:
    53e8: 86 69        	stx	$69                     ; 0x69 <__zp_bss_size+0x2a>
    53ea: a2 54        	ldx	#$54
    53ec: 86 28        	stx	$28                     ; 0x28 <s>
    53ee: a2 72        	ldx	#$72
    53f0: 86 29        	stx	$29                     ; 0x29 <s+0x1>
    53f2: a2 61        	ldx	#$61
    53f4: 86 2a        	stx	$2a                     ; 0x2a <s+0x2>
    53f6: a2 63        	ldx	#$63
    53f8: 86 2b        	stx	$2b                     ; 0x2b <s+0x3>
    53fa: a2 6b        	ldx	#$6b
    53fc: 86 2c        	stx	$2c                     ; 0x2c <s+0x4>
    53fe: a2 3a        	ldx	#$3a
    5400: 86 2d        	stx	$2d                     ; 0x2d <s+0x5>
    5402: a2 20        	ldx	#$20
    5404: 86 2e        	stx	$2e                     ; 0x2e <s+0x6>
    5406: a2 68        	ldx	#$68
    5408: a0 00        	ldy	#$0
    540a: 86 04        	stx	$4                      ; 0x4 <__rc2>
    540c: 84 05        	sty	$5                      ; 0x5 <__rc3>
    540e: a2 0a        	ldx	#$a
    5410: 20 84 66     	jsr	$6684 <__udivmodqi4>
    5413: 18           	clc
    5414: 69 30        	adc	#$30
    5416: aa           	tax
    5417: a5 68        	lda	$68                     ; 0x68 <__zp_bss_size+0x29>
    5419: 86 2f        	stx	$2f                     ; 0x2f <s+0x7>
    541b: 09 30        	ora	#$30
    541d: 85 30        	sta	$30                     ; 0x30 <s+0x8>
    541f: a2 53        	ldx	#$53
    5421: 86 32        	stx	$32                     ; 0x32 <s+0xa>
    5423: a2 65        	ldx	#$65
    5425: 86 33        	stx	$33                     ; 0x33 <s+0xb>
    5427: a2 63        	ldx	#$63
    5429: 86 34        	stx	$34                     ; 0x34 <s+0xc>
    542b: a2 74        	ldx	#$74
    542d: 86 35        	stx	$35                     ; 0x35 <s+0xd>
    542f: a2 6f        	ldx	#$6f
    5431: 86 36        	stx	$36                     ; 0x36 <s+0xe>
    5433: a2 72        	ldx	#$72
    5435: 86 37        	stx	$37                     ; 0x37 <s+0xf>
    5437: a2 3a        	ldx	#$3a
    5439: 86 38        	stx	$38                     ; 0x38 <s+0x10>
    543b: a2 20        	ldx	#$20
    543d: 86 31        	stx	$31                     ; 0x31 <s+0x9>
    543f: 86 39        	stx	$39                     ; 0x39 <s+0x11>
    5441: a2 67        	ldx	#$67
    5443: 86 04        	stx	$4                      ; 0x4 <__rc2>
    5445: a2 00        	ldx	#$0
    5447: 86 05        	stx	$5                      ; 0x5 <__rc3>
    5449: a2 0a        	ldx	#$a
    544b: a5 69        	lda	$69                     ; 0x69 <__zp_bss_size+0x2a>
    544d: 20 84 66     	jsr	$6684 <__udivmodqi4>
    5450: 18           	clc
    5451: 69 30        	adc	#$30
    5453: aa           	tax
    5454: a5 67        	lda	$67                     ; 0x67 <__zp_bss_size+0x28>
    5456: 86 3a        	stx	$3a                     ; 0x3a <s+0x12>
    5458: 09 30        	ora	#$30
    545a: 85 3b        	sta	$3b                     ; 0x3b <s+0x13>
    545c: 64 3c        	stz	$3c                     ; 0x3c <s+0x14>
    545e: 60           	rts

0000545f <getdirententry>:
    545f: 86 69        	stx	$69                     ; 0x69 <__zp_bss_size+0x2a>
    5461: a2 00        	ldx	#$0
    5463: 86 67        	stx	$67                     ; 0x67 <__zp_bss_size+0x28>
    5465: a2 00        	ldx	#$0
    5467: 86 68        	stx	$68                     ; 0x68 <__zp_bss_size+0x29>
    5469: 9c 80 d0     	stz	$d080                   ; 0xd080 <__heap_start+0x5b53>
    546c: a2 0e        	ldx	#$e
    546e: 64 04        	stz	$4                      ; 0x4 <__rc2>
    5470: 64 05        	stz	$5                      ; 0x5 <__rc3>
    5472: 64 06        	stz	$6                      ; 0x6 <__zp_data_size>
    5474: 86 07        	stx	$7                      ; 0x7 <__rc5>
    5476: 64 08        	stz	$8                      ; 0x8 <__rc6>
    5478: 64 09        	stz	$9                      ; 0x9 <__rc7>
    547a: a2 00        	ldx	#$0
    547c: 20 14 66     	jsr	$6614 <__mulsi3>
    547f: 85 6a        	sta	$6a                     ; 0x6a <__zp_bss_size+0x2b>
    5481: 86 6b        	stx	$6b                     ; 0x6b <__zp_bss_size+0x2c>
    5483: a6 04        	ldx	$4                      ; 0x4 <__rc2>
    5485: 86 6c        	stx	$6c                     ; 0x6c <__zp_bss_size+0x2d>
    5487: a5 05        	lda	$5                      ; 0x5 <__rc3>
    5489: a2 08        	ldx	#$8
    548b: 86 70        	stx	$70                     ; 0x70 <__zp_bss_size+0x31>
    548d: 09 08        	ora	#$8
    548f: 85 6d        	sta	$6d                     ; 0x6d <__zp_bss_size+0x2e>
    5491: a2 00        	ldx	#$0
    5493: 8a           	txa
    5494: da           	phx
    5495: 7a           	ply
    5496: 85 04        	sta	$4                      ; 0x4 <__rc2>
    5498: a2 00        	ldx	#$0
    549a: e4 04        	cpx	$4                      ; 0x4 <__rc2>
    549c: d0 0f        	bne	$54ad <getdirententry+0x4e>
    549e: 84 05        	sty	$5                      ; 0x5 <__rc3>
    54a0: a4 70        	ldy	$70                     ; 0x70 <__zp_bss_size+0x31>
    54a2: 84 04        	sty	$4                      ; 0x4 <__rc2>
    54a4: a4 05        	ldy	$5                      ; 0x5 <__rc3>
    54a6: c4 04        	cpy	$4                      ; 0x4 <__rc2>
    54a8: 90 0c        	bcc	$54b6 <getdirententry+0x57>
    54aa: 4c 23 55     	jmp	$5523 <getdirententry+0xc4>
    54ad: 85 04        	sta	$4                      ; 0x4 <__rc2>
    54af: e4 04        	cpx	$4                      ; 0x4 <__rc2>
    54b1: 90 03        	bcc	$54b6 <getdirententry+0x57>
    54b3: 4c 23 55     	jmp	$5523 <getdirententry+0xc4>
    54b6: 85 6e        	sta	$6e                     ; 0x6e <__zp_bss_size+0x2f>
    54b8: 84 6f        	sty	$6f                     ; 0x6f <__zp_bss_size+0x30>
    54ba: 98           	tya
    54bb: 4a           	lsr
    54bc: a8           	tay
    54bd: a9 00        	lda	#$0
    54bf: 6a           	ror
    54c0: 84 04        	sty	$4                      ; 0x4 <__rc2>
    54c2: 46 04        	lsr	$4                      ; 0x4 <__rc2>
    54c4: 6a           	ror
    54c5: 46 04        	lsr	$4                      ; 0x4 <__rc2>
    54c7: 6a           	ror
    54c8: 18           	clc
    54c9: 65 6a        	adc	$6a                     ; 0x6a <__zp_bss_size+0x2b>
    54cb: 85 0d        	sta	$d                      ; 0xd <__rc11>
    54cd: a5 04        	lda	$4                      ; 0x4 <__rc2>
    54cf: 65 6b        	adc	$6b                     ; 0x6b <__zp_bss_size+0x2c>
    54d1: 85 0c        	sta	$c                      ; 0xc <__rc10>
    54d3: a5 6c        	lda	$6c                     ; 0x6c <__zp_bss_size+0x2d>
    54d5: 69 00        	adc	#$0
    54d7: 85 04        	sta	$4                      ; 0x4 <__rc2>
    54d9: a5 6d        	lda	$6d                     ; 0x6d <__zp_bss_size+0x2e>
    54db: 69 00        	adc	#$0
    54dd: 85 05        	sta	$5                      ; 0x5 <__rc3>
    54df: 64 06        	stz	$6                      ; 0x6 <__zp_data_size>
    54e1: a0 1a        	ldy	#$1a
    54e3: 84 07        	sty	$7                      ; 0x7 <__rc5>
    54e5: 64 08        	stz	$8                      ; 0x8 <__rc6>
    54e7: 64 09        	stz	$9                      ; 0x9 <__rc7>
    54e9: a0 20        	ldy	#$20
    54eb: 84 0a        	sty	$a                      ; 0xa <__rc8>
    54ed: 64 0b        	stz	$b                      ; 0xb <__rc9>
    54ef: a6 0c        	ldx	$c                      ; 0xc <__rc10>
    54f1: a5 0d        	lda	$d                      ; 0xd <__rc11>
    54f3: 20 91 64     	jsr	$6491 <lcopy>
    54f6: ae 03 1a     	ldx	$1a03                   ; 0x1a03 <__bss_size+0x1250>
    54f9: f0 28        	beq	$5523 <getdirententry+0xc4>
    54fb: ae 00 1a     	ldx	$1a00                   ; 0x1a00 <__bss_size+0x124d>
    54fe: f0 0d        	beq	$550d <getdirententry+0xae>
    5500: 18           	clc
    5501: a5 70        	lda	$70                     ; 0x70 <__zp_bss_size+0x31>
    5503: 69 08        	adc	#$8
    5505: 85 70        	sta	$70                     ; 0x70 <__zp_bss_size+0x31>
    5507: a5 6e        	lda	$6e                     ; 0x6e <__zp_bss_size+0x2f>
    5509: 69 00        	adc	#$0
    550b: 80 02        	bra	$550f <getdirententry+0xb0>
    550d: a5 6e        	lda	$6e                     ; 0x6e <__zp_bss_size+0x2f>
    550f: a4 6f        	ldy	$6f                     ; 0x6f <__zp_bss_size+0x30>
    5511: a6 6f        	ldx	$6f                     ; 0x6f <__zp_bss_size+0x30>
    5513: e8           	inx
    5514: c4 69        	cpy	$69                     ; 0x69 <__zp_bss_size+0x2a>
    5516: f0 03        	beq	$551b <getdirententry+0xbc>
    5518: 4c 94 54     	jmp	$5494 <getdirententry+0x35>
    551b: a2 00        	ldx	#$0
    551d: 86 67        	stx	$67                     ; 0x67 <__zp_bss_size+0x28>
    551f: a2 1a        	ldx	#$1a
    5521: 86 68        	stx	$68                     ; 0x68 <__zp_bss_size+0x29>
    5523: a6 67        	ldx	$67                     ; 0x67 <__zp_bss_size+0x28>
    5525: 86 04        	stx	$4                      ; 0x4 <__rc2>
    5527: a6 68        	ldx	$68                     ; 0x68 <__zp_bss_size+0x29>
    5529: 86 05        	stx	$5                      ; 0x5 <__rc3>
    552b: 60           	rts

0000552c <getdirent>:
    552c: a4 16        	ldy	$16                     ; 0x16 <__rc20>
    552e: 5a           	phy
    552f: a4 17        	ldy	$17                     ; 0x17 <__rc21>
    5531: 5a           	phy
    5532: a4 18        	ldy	$18                     ; 0x18 <__rc22>
    5534: 5a           	phy
    5535: a4 19        	ldy	$19                     ; 0x19 <__rc23>
    5537: 5a           	phy
    5538: a4 1a        	ldy	$1a                     ; 0x1a <__rc24>
    553a: 8c 17 75     	sty	$7517                   ; 0x7517 <__data_load_start+0x7bb>
    553d: 85 18        	sta	$18                     ; 0x18 <__rc22>
    553f: 86 17        	stx	$17                     ; 0x17 <__rc21>
    5541: 64 16        	stz	$16                     ; 0x16 <__rc20>
    5543: 9c 80 d0     	stz	$d080                   ; 0xd080 <__heap_start+0x5b53>
    5546: a2 0e        	ldx	#$e
    5548: 64 04        	stz	$4                      ; 0x4 <__rc2>
    554a: 64 05        	stz	$5                      ; 0x5 <__rc3>
    554c: 64 06        	stz	$6                      ; 0x6 <__zp_data_size>
    554e: 86 07        	stx	$7                      ; 0x7 <__rc5>
    5550: 64 08        	stz	$8                      ; 0x8 <__rc6>
    5552: 64 09        	stz	$9                      ; 0x9 <__rc7>
    5554: a2 00        	ldx	#$0
    5556: a5 17        	lda	$17                     ; 0x17 <__rc21>
    5558: 20 14 66     	jsr	$6614 <__mulsi3>
    555b: a8           	tay
    555c: a5 05        	lda	$5                      ; 0x5 <__rc3>
    555e: 09 08        	ora	#$8
    5560: 85 05        	sta	$5                      ; 0x5 <__rc3>
    5562: a9 0e        	lda	#$e
    5564: 85 06        	sta	$6                      ; 0x6 <__zp_data_size>
    5566: 64 07        	stz	$7                      ; 0x7 <__rc5>
    5568: a5 18        	lda	$18                     ; 0x18 <__rc22>
    556a: 85 08        	sta	$8                      ; 0x8 <__rc6>
    556c: a9 28        	lda	#$28
    556e: 85 09        	sta	$9                      ; 0x9 <__rc7>
    5570: a9 03        	lda	#$3
    5572: 85 0a        	sta	$a                      ; 0xa <__rc8>
    5574: 98           	tya
    5575: 20 3b 4f     	jsr	$4f3b <readblockchain>
    5578: a2 00        	ldx	#$0
    557a: 86 18        	stx	$18                     ; 0x18 <__rc22>
    557c: a2 00        	ldx	#$0
    557e: 86 19        	stx	$19                     ; 0x19 <__rc23>
    5580: a2 70        	ldx	#$70
    5582: 8a           	txa
    5583: f0 21        	beq	$55a6 <getdirent+0x7a>
    5585: 86 1a        	stx	$1a                     ; 0x1a <__rc24>
    5587: a5 17        	lda	$17                     ; 0x17 <__rc21>
    5589: 20 5f 54     	jsr	$545f <getdirententry>
    558c: a6 05        	ldx	$5                      ; 0x5 <__rc3>
    558e: e4 19        	cpx	$19                     ; 0x19 <__rc23>
    5590: d0 0c        	bne	$559e <getdirent+0x72>
    5592: a5 1a        	lda	$1a                     ; 0x1a <__rc24>
    5594: a6 04        	ldx	$4                      ; 0x4 <__rc2>
    5596: e4 18        	cpx	$18                     ; 0x18 <__rc22>
    5598: d0 0a        	bne	$55a4 <getdirent+0x78>
    559a: aa           	tax
    559b: ca           	dex
    559c: 80 e4        	bra	$5582 <getdirent+0x56>
    559e: a6 1a        	ldx	$1a                     ; 0x1a <__rc24>
    55a0: 86 16        	stx	$16                     ; 0x16 <__rc20>
    55a2: 80 02        	bra	$55a6 <getdirent+0x7a>
    55a4: 85 16        	sta	$16                     ; 0x16 <__rc20>
    55a6: a5 16        	lda	$16                     ; 0x16 <__rc20>
    55a8: ae 17 75     	ldx	$7517                   ; 0x7517 <__data_load_start+0x7bb>
    55ab: 86 1a        	stx	$1a                     ; 0x1a <__rc24>
    55ad: fa           	plx
    55ae: 86 19        	stx	$19                     ; 0x19 <__rc23>
    55b0: fa           	plx
    55b1: 86 18        	stx	$18                     ; 0x18 <__rc22>
    55b3: fa           	plx
    55b4: 86 17        	stx	$17                     ; 0x17 <__rc21>
    55b6: fa           	plx
    55b7: 86 16        	stx	$16                     ; 0x16 <__rc20>
    55b9: 60           	rts

000055ba <cputln>:
    55ba: ae 11 72     	ldx	$7211                   ; 0x7211 <g_curScreenH>
    55bd: 86 06        	stx	$6                      ; 0x6 <__zp_data_size>
    55bf: a6 52        	ldx	$52                     ; 0x52 <g_curY>
    55c1: a9 00        	lda	#$0
    55c3: da           	phx
    55c4: 7a           	ply
    55c5: c8           	iny
    55c6: d0 01        	bne	$55c9 <cputln+0xf>
    55c8: 1a           	inc
    55c9: c9 00        	cmp	#$0
    55cb: d0 08        	bne	$55d5 <cputln+0x1b>
    55cd: c4 06        	cpy	$6                      ; 0x6 <__zp_data_size>
    55cf: b0 08        	bcs	$55d9 <cputln+0x1f>
    55d1: e8           	inx
    55d2: 4c d9 56     	jmp	$56d9 <cputln+0x11f>
    55d5: c9 00        	cmp	#$0
    55d7: 90 f8        	bcc	$55d1 <cputln+0x17>
    55d9: a6 50        	ldx	$50                     ; 0x50 <g_curScreenW>
    55db: 86 04        	stx	$4                      ; 0x4 <__rc2>
    55dd: 86 6c        	stx	$6c                     ; 0x6c <__zp_bss_size+0x2d>
    55df: a2 00        	ldx	#$0
    55e1: 64 05        	stz	$5                      ; 0x5 <__rc3>
    55e3: a5 06        	lda	$6                      ; 0x6 <__zp_data_size>
    55e5: 20 e2 65     	jsr	$65e2 <__mulhi3>
    55e8: 85 70        	sta	$70                     ; 0x70 <__zp_bss_size+0x31>
    55ea: 86 6f        	stx	$6f                     ; 0x6f <__zp_bss_size+0x30>
    55ec: 20 9d 61     	jsr	$619d <getscreenaddr>
    55ef: 86 06        	stx	$6                      ; 0x6 <__zp_data_size>
    55f1: 18           	clc
    55f2: a6 6c        	ldx	$6c                     ; 0x6c <__zp_bss_size+0x2d>
    55f4: 86 07        	stx	$7                      ; 0x7 <__rc5>
    55f6: 65 07        	adc	$7                      ; 0x7 <__rc5>
    55f8: 85 73        	sta	$73                     ; 0x73 <__zp_bss_size+0x34>
    55fa: 86 6c        	stx	$6c                     ; 0x6c <__zp_bss_size+0x2d>
    55fc: 86 6c        	stx	$6c                     ; 0x6c <__zp_bss_size+0x2d>
    55fe: a5 06        	lda	$6                      ; 0x6 <__zp_data_size>
    5600: 69 00        	adc	#$0
    5602: 85 72        	sta	$72                     ; 0x72 <__zp_bss_size+0x33>
    5604: a5 04        	lda	$4                      ; 0x4 <__rc2>
    5606: 69 00        	adc	#$0
    5608: 85 74        	sta	$74                     ; 0x74 <__zp_bss_size+0x35>
    560a: a5 05        	lda	$5                      ; 0x5 <__rc3>
    560c: 69 00        	adc	#$0
    560e: 85 75        	sta	$75                     ; 0x75 <__zp_bss_size+0x36>
    5610: 20 9d 61     	jsr	$619d <getscreenaddr>
    5613: 85 06        	sta	$6                      ; 0x6 <__zp_data_size>
    5615: 86 07        	stx	$7                      ; 0x7 <__rc5>
    5617: a6 04        	ldx	$4                      ; 0x4 <__rc2>
    5619: 86 08        	stx	$8                      ; 0x8 <__rc6>
    561b: a4 05        	ldy	$5                      ; 0x5 <__rc3>
    561d: a5 70        	lda	$70                     ; 0x70 <__zp_bss_size+0x31>
    561f: 38           	sec
    5620: a6 6c        	ldx	$6c                     ; 0x6c <__zp_bss_size+0x2d>
    5622: 86 04        	stx	$4                      ; 0x4 <__rc2>
    5624: e5 04        	sbc	$4                      ; 0x4 <__rc2>
    5626: 85 0a        	sta	$a                      ; 0xa <__rc8>
    5628: 85 6d        	sta	$6d                     ; 0x6d <__zp_bss_size+0x2e>
    562a: a5 6f        	lda	$6f                     ; 0x6f <__zp_bss_size+0x30>
    562c: e9 00        	sbc	#$0
    562e: a2 01        	ldx	#$1
    5630: b0 02        	bcs	$5634 <cputln+0x7a>
    5632: a2 00        	ldx	#$0
    5634: 86 71        	stx	$71                     ; 0x71 <__zp_bss_size+0x32>
    5636: 85 0b        	sta	$b                      ; 0xb <__rc9>
    5638: 85 6e        	sta	$6e                     ; 0x6e <__zp_bss_size+0x2f>
    563a: a6 74        	ldx	$74                     ; 0x74 <__zp_bss_size+0x35>
    563c: 86 04        	stx	$4                      ; 0x4 <__rc2>
    563e: a6 75        	ldx	$75                     ; 0x75 <__zp_bss_size+0x36>
    5640: 86 05        	stx	$5                      ; 0x5 <__rc3>
    5642: 84 09        	sty	$9                      ; 0x9 <__rc7>
    5644: a6 72        	ldx	$72                     ; 0x72 <__zp_bss_size+0x33>
    5646: a5 73        	lda	$73                     ; 0x73 <__zp_bss_size+0x34>
    5648: 20 91 64     	jsr	$6491 <lcopy>
    564b: a2 f8        	ldx	#$f8
    564d: a0 0f        	ldy	#$f
    564f: 86 04        	stx	$4                      ; 0x4 <__rc2>
    5651: 84 05        	sty	$5                      ; 0x5 <__rc3>
    5653: 64 06        	stz	$6                      ; 0x6 <__zp_data_size>
    5655: 64 07        	stz	$7                      ; 0x7 <__rc5>
    5657: 86 08        	stx	$8                      ; 0x8 <__rc6>
    5659: 84 09        	sty	$9                      ; 0x9 <__rc7>
    565b: a6 6d        	ldx	$6d                     ; 0x6d <__zp_bss_size+0x2e>
    565d: 86 0a        	stx	$a                      ; 0xa <__rc8>
    565f: a6 6e        	ldx	$6e                     ; 0x6e <__zp_bss_size+0x2f>
    5661: 86 0b        	stx	$b                      ; 0xb <__rc9>
    5663: a2 00        	ldx	#$0
    5665: a5 6c        	lda	$6c                     ; 0x6c <__zp_bss_size+0x2d>
    5667: 20 91 64     	jsr	$6491 <lcopy>
    566a: 20 9d 61     	jsr	$619d <getscreenaddr>
    566d: 86 07        	stx	$7                      ; 0x7 <__rc5>
    566f: a6 70        	ldx	$70                     ; 0x70 <__zp_bss_size+0x31>
    5671: 86 06        	stx	$6                      ; 0x6 <__zp_data_size>
    5673: 18           	clc
    5674: 65 06        	adc	$6                      ; 0x6 <__zp_data_size>
    5676: a8           	tay
    5677: a6 6f        	ldx	$6f                     ; 0x6f <__zp_bss_size+0x30>
    5679: 86 06        	stx	$6                      ; 0x6 <__zp_data_size>
    567b: a5 07        	lda	$7                      ; 0x7 <__rc5>
    567d: 65 06        	adc	$6                      ; 0x6 <__zp_data_size>
    567f: 85 08        	sta	$8                      ; 0x8 <__rc6>
    5681: a5 04        	lda	$4                      ; 0x4 <__rc2>
    5683: 69 00        	adc	#$0
    5685: 85 04        	sta	$4                      ; 0x4 <__rc2>
    5687: a5 05        	lda	$5                      ; 0x5 <__rc3>
    5689: 69 00        	adc	#$0
    568b: 85 06        	sta	$6                      ; 0x6 <__zp_data_size>
    568d: a6 6c        	ldx	$6c                     ; 0x6c <__zp_bss_size+0x2d>
    568f: 86 07        	stx	$7                      ; 0x7 <__rc5>
    5691: 86 6c        	stx	$6c                     ; 0x6c <__zp_bss_size+0x2d>
    5693: 38           	sec
    5694: 98           	tya
    5695: e5 07        	sbc	$7                      ; 0x7 <__rc5>
    5697: a8           	tay
    5698: a5 08        	lda	$8                      ; 0x8 <__rc6>
    569a: e9 00        	sbc	#$0
    569c: 85 09        	sta	$9                      ; 0x9 <__rc7>
    569e: a5 04        	lda	$4                      ; 0x4 <__rc2>
    56a0: e9 00        	sbc	#$0
    56a2: 85 04        	sta	$4                      ; 0x4 <__rc2>
    56a4: a5 06        	lda	$6                      ; 0x6 <__zp_data_size>
    56a6: e9 00        	sbc	#$0
    56a8: a2 20        	ldx	#$20
    56aa: 85 05        	sta	$5                      ; 0x5 <__rc3>
    56ac: 86 06        	stx	$6                      ; 0x6 <__zp_data_size>
    56ae: 64 08        	stz	$8                      ; 0x8 <__rc6>
    56b0: a6 09        	ldx	$9                      ; 0x9 <__rc7>
    56b2: 98           	tya
    56b3: 20 f8 64     	jsr	$64f8 <lfill>
    56b6: a6 71        	ldx	$71                     ; 0x71 <__zp_bss_size+0x32>
    56b8: e0 01        	cpx	#$1
    56ba: a9 f8        	lda	#$f8
    56bc: e9 00        	sbc	#$0
    56be: 85 04        	sta	$4                      ; 0x4 <__rc2>
    56c0: a9 0f        	lda	#$f
    56c2: e9 00        	sbc	#$0
    56c4: a2 01        	ldx	#$1
    56c6: 85 05        	sta	$5                      ; 0x5 <__rc3>
    56c8: 86 06        	stx	$6                      ; 0x6 <__zp_data_size>
    56ca: a6 6c        	ldx	$6c                     ; 0x6c <__zp_bss_size+0x2d>
    56cc: 86 07        	stx	$7                      ; 0x7 <__rc5>
    56ce: 64 08        	stz	$8                      ; 0x8 <__rc6>
    56d0: a6 6e        	ldx	$6e                     ; 0x6e <__zp_bss_size+0x2f>
    56d2: a5 6d        	lda	$6d                     ; 0x6d <__zp_bss_size+0x2e>
    56d4: 20 f8 64     	jsr	$64f8 <lfill>
    56d7: a6 52        	ldx	$52                     ; 0x52 <g_curY>
    56d9: 64 51        	stz	$51                     ; 0x51 <g_curX>
    56db: 86 52        	stx	$52                     ; 0x52 <g_curY>
    56dd: 60           	rts

000056de <csputdec>:
    56de: 85 72        	sta	$72                     ; 0x72 <__zp_bss_size+0x33>
    56e0: a4 06        	ldy	$6                      ; 0x6 <__zp_data_size>
    56e2: 84 70        	sty	$70                     ; 0x70 <__zp_bss_size+0x31>
    56e4: a4 04        	ldy	$4                      ; 0x4 <__rc2>
    56e6: 84 74        	sty	$74                     ; 0x74 <__zp_bss_size+0x35>
    56e8: a4 05        	ldy	$5                      ; 0x5 <__rc3>
    56ea: 84 75        	sty	$75                     ; 0x75 <__zp_bss_size+0x36>
    56ec: 64 81        	stz	$81                     ; 0x81 <__zp_bss_size+0x42>
    56ee: a0 09        	ldy	#$9
    56f0: 84 76        	sty	$76                     ; 0x76 <__zp_bss_size+0x37>
    56f2: 86 73        	stx	$73                     ; 0x73 <__zp_bss_size+0x34>
    56f4: a2 82        	ldx	#$82
    56f6: 86 0a        	stx	$a                      ; 0xa <__rc8>
    56f8: a2 00        	ldx	#$0
    56fa: 86 0b        	stx	$b                      ; 0xb <__rc9>
    56fc: a2 0a        	ldx	#$a
    56fe: 86 06        	stx	$6                      ; 0x6 <__zp_data_size>
    5700: 64 07        	stz	$7                      ; 0x7 <__rc5>
    5702: 64 08        	stz	$8                      ; 0x8 <__rc6>
    5704: 64 09        	stz	$9                      ; 0x9 <__rc7>
    5706: a6 73        	ldx	$73                     ; 0x73 <__zp_bss_size+0x34>
    5708: a5 72        	lda	$72                     ; 0x72 <__zp_bss_size+0x33>
    570a: 84 71        	sty	$71                     ; 0x71 <__zp_bss_size+0x32>
    570c: 20 d0 20     	jsr	$20d0 <__udivmodsi4>
    570f: 85 06        	sta	$6                      ; 0x6 <__zp_data_size>
    5711: a9 30        	lda	#$30
    5713: 05 82        	ora	$82                     ; 0x82 <__zp_bss_size+0x43>
    5715: a4 76        	ldy	$76                     ; 0x76 <__zp_bss_size+0x37>
    5717: 99 77 00     	sta	$77,y                   ; 0x77 <__zp_bss_size+0x38>
    571a: c6 71        	dec	$71                     ; 0x71 <__zp_bss_size+0x32>
    571c: a5 75        	lda	$75                     ; 0x75 <__zp_bss_size+0x36>
    571e: d0 0e        	bne	$572e <csputdec+0x50>
    5720: a5 74        	lda	$74                     ; 0x74 <__zp_bss_size+0x35>
    5722: d0 0e        	bne	$5732 <csputdec+0x54>
    5724: a5 73        	lda	$73                     ; 0x73 <__zp_bss_size+0x34>
    5726: d0 0c        	bne	$5734 <csputdec+0x56>
    5728: a5 72        	lda	$72                     ; 0x72 <__zp_bss_size+0x33>
    572a: c9 0a        	cmp	#$a
    572c: 80 08        	bra	$5736 <csputdec+0x58>
    572e: a5 75        	lda	$75                     ; 0x75 <__zp_bss_size+0x36>
    5730: 80 02        	bra	$5734 <csputdec+0x56>
    5732: a5 74        	lda	$74                     ; 0x74 <__zp_bss_size+0x35>
    5734: c9 00        	cmp	#$0
    5736: a4 06        	ldy	$6                      ; 0x6 <__zp_data_size>
    5738: 84 72        	sty	$72                     ; 0x72 <__zp_bss_size+0x33>
    573a: a4 04        	ldy	$4                      ; 0x4 <__rc2>
    573c: 84 74        	sty	$74                     ; 0x74 <__zp_bss_size+0x35>
    573e: a4 05        	ldy	$5                      ; 0x5 <__rc3>
    5740: 84 75        	sty	$75                     ; 0x75 <__zp_bss_size+0x36>
    5742: a4 71        	ldy	$71                     ; 0x71 <__zp_bss_size+0x32>
    5744: b0 aa        	bcs	$56f0 <csputdec+0x12>
    5746: 38           	sec
    5747: a9 0a        	lda	#$a
    5749: e5 70        	sbc	$70                     ; 0x70 <__zp_bss_size+0x31>
    574b: 85 05        	sta	$5                      ; 0x5 <__rc3>
    574d: a9 00        	lda	#$0
    574f: e9 00        	sbc	#$0
    5751: 85 06        	sta	$6                      ; 0x6 <__zp_data_size>
    5753: 80 06        	bra	$575b <csputdec+0x7d>
    5755: a9 20        	lda	#$20
    5757: 99 77 00     	sta	$77,y                   ; 0x77 <__zp_bss_size+0x38>
    575a: 88           	dey
    575b: 84 04        	sty	$4                      ; 0x4 <__rc2>
    575d: a6 05        	ldx	$5                      ; 0x5 <__rc3>
    575f: e4 04        	cpx	$4                      ; 0x4 <__rc2>
    5761: a5 06        	lda	$6                      ; 0x6 <__zp_data_size>
    5763: e9 00        	sbc	#$0
    5765: 50 02        	bvc	$5769 <csputdec+0x8b>
    5767: 49 80        	eor	#$80
    5769: a2 01        	ldx	#$1
    576b: c9 00        	cmp	#$0
    576d: 30 02        	bmi	$5771 <csputdec+0x93>
    576f: a2 00        	ldx	#$0
    5771: 98           	tya
    5772: d0 02        	bne	$5776 <csputdec+0x98>
    5774: a2 00        	ldx	#$0
    5776: 8a           	txa
    5777: d0 dc        	bne	$5755 <csputdec+0x77>
    5779: a9 77        	lda	#$77
    577b: 18           	clc
    577c: 84 04        	sty	$4                      ; 0x4 <__rc2>
    577e: 65 04        	adc	$4                      ; 0x4 <__rc2>
    5780: 85 04        	sta	$4                      ; 0x4 <__rc2>
    5782: a9 00        	lda	#$0
    5784: 69 00        	adc	#$0
    5786: 85 05        	sta	$5                      ; 0x5 <__rc3>
    5788: e6 04        	inc	$4                      ; 0x4 <__rc2>
    578a: d0 02        	bne	$578e <csputdec+0xb0>
    578c: e6 05        	inc	$5                      ; 0x5 <__rc3>
    578e: 4c d3 62     	jmp	$62d3 <cputs>

00005791 <asciitoscreencode_s>:
    5791: a2 34        	ldx	#$34
    5793: 86 06        	stx	$6                      ; 0x6 <__zp_data_size>
    5795: a2 03        	ldx	#$3
    5797: 86 07        	stx	$7                      ; 0x7 <__rc5>
    5799: b2 04        	lda	($4),z                  ; 0x4 <__rc2>
    579b: e6 04        	inc	$4                      ; 0x4 <__rc2>
    579d: d0 02        	bne	$57a1 <asciitoscreencode_s+0x10>
    579f: e6 05        	inc	$5                      ; 0x5 <__rc3>
    57a1: a0 20        	ldy	#$20
    57a3: c9 a0        	cmp	#$a0
    57a5: f0 11        	beq	$57b8 <asciitoscreencode_s+0x27>
    57a7: aa           	tax
    57a8: e0 c0        	cpx	#$c0
    57aa: 90 04        	bcc	$57b0 <asciitoscreencode_s+0x1f>
    57ac: 49 80        	eor	#$80
    57ae: 80 07        	bra	$57b7 <asciitoscreencode_s+0x26>
    57b0: c9 60        	cmp	#$60
    57b2: 90 12        	bcc	$57c6 <asciitoscreencode_s+0x35>
    57b4: 18           	clc
    57b5: 69 a0        	adc	#$a0
    57b7: a8           	tay
    57b8: 98           	tya
    57b9: 92 06        	sta	($6),z                  ; 0x6 <__zp_data_size>
    57bb: e6 06        	inc	$6                      ; 0x6 <__zp_data_size>
    57bd: d0 02        	bne	$57c1 <asciitoscreencode_s+0x30>
    57bf: e6 07        	inc	$7                      ; 0x7 <__rc5>
    57c1: 98           	tya
    57c2: d0 d5        	bne	$5799 <asciitoscreencode_s+0x8>
    57c4: 80 0d        	bra	$57d3 <asciitoscreencode_s+0x42>
    57c6: 18           	clc
    57c7: a8           	tay
    57c8: 69 a5        	adc	#$a5
    57ca: c9 05        	cmp	#$5
    57cc: b0 ea        	bcs	$57b8 <asciitoscreencode_s+0x27>
    57ce: aa           	tax
    57cf: b4 22        	ldy	$22,x                   ; 0x22 <__zp_data_start>
    57d1: 80 e5        	bra	$57b8 <asciitoscreencode_s+0x27>
    57d3: ae 34 03     	ldx	$334                    ; 0x334 <__basic_zp_end+0x2a4>
    57d6: f0 01        	beq	$57d9 <asciitoscreencode_s+0x48>
    57d8: 60           	rts
    57d9: a2 20        	ldx	#$20
    57db: 8e 34 03     	stx	$334                    ; 0x334 <__basic_zp_end+0x2a4>
    57de: 9c 35 03     	stz	$335                    ; 0x335 <__basic_zp_end+0x2a5>
    57e1: 60           	rts

000057e2 <clrhome>:
    57e2: a6 50        	ldx	$50                     ; 0x50 <g_curScreenW>
    57e4: ad 11 72     	lda	$7211                   ; 0x7211 <g_curScreenH>
    57e7: 86 04        	stx	$4                      ; 0x4 <__rc2>
    57e9: 64 05        	stz	$5                      ; 0x5 <__rc3>
    57eb: a2 00        	ldx	#$0
    57ed: 20 e2 65     	jsr	$65e2 <__mulhi3>
    57f0: a8           	tay
    57f1: ad 54 d0     	lda	$d054                   ; 0xd054 <__heap_start+0x5b27>
    57f4: 29 01        	and	#$1
    57f6: 85 04        	sta	$4                      ; 0x4 <__rc2>
    57f8: 98           	tya
    57f9: 20 b4 65     	jsr	$65b4 <__ashlhi3>
    57fc: 85 07        	sta	$7                      ; 0x7 <__rc5>
    57fe: 85 67        	sta	$67                     ; 0x67 <__zp_bss_size+0x28>
    5800: 86 08        	stx	$8                      ; 0x8 <__rc6>
    5802: 86 68        	stx	$68                     ; 0x68 <__zp_bss_size+0x29>
    5804: ad 63 d0     	lda	$d063                   ; 0xd063 <__heap_start+0x5b36>
    5807: 29 07        	and	#$7
    5809: ae 62 d0     	ldx	$d062                   ; 0xd062 <__heap_start+0x5b35>
    580c: ac 61 d0     	ldy	$d061                   ; 0xd061 <__heap_start+0x5b34>
    580f: 84 09        	sty	$9                      ; 0x9 <__rc7>
    5811: ac 60 d0     	ldy	$d060                   ; 0xd060 <__heap_start+0x5b33>
    5814: 86 04        	stx	$4                      ; 0x4 <__rc2>
    5816: 85 05        	sta	$5                      ; 0x5 <__rc3>
    5818: a2 20        	ldx	#$20
    581a: 86 06        	stx	$6                      ; 0x6 <__zp_data_size>
    581c: a6 09        	ldx	$9                      ; 0x9 <__rc7>
    581e: 98           	tya
    581f: 20 f8 64     	jsr	$64f8 <lfill>
    5822: a6 27        	ldx	$27                     ; 0x27 <g_curTextColor>
    5824: a0 f8        	ldy	#$f8
    5826: a9 0f        	lda	#$f
    5828: 84 04        	sty	$4                      ; 0x4 <__rc2>
    582a: 85 05        	sta	$5                      ; 0x5 <__rc3>
    582c: 86 06        	stx	$6                      ; 0x6 <__zp_data_size>
    582e: a6 67        	ldx	$67                     ; 0x67 <__zp_bss_size+0x28>
    5830: 86 07        	stx	$7                      ; 0x7 <__rc5>
    5832: a6 68        	ldx	$68                     ; 0x68 <__zp_bss_size+0x29>
    5834: 86 08        	stx	$8                      ; 0x8 <__rc6>
    5836: a2 00        	ldx	#$0
    5838: 8a           	txa
    5839: 20 f8 64     	jsr	$64f8 <lfill>
    583c: 64 51        	stz	$51                     ; 0x51 <g_curX>
    583e: 64 52        	stz	$52                     ; 0x52 <g_curY>
    5840: 60           	rts

00005841 <msprintf>:
    5841: 20 91 57     	jsr	$5791 <asciitoscreencode_s>
    5844: a2 34        	ldx	#$34
    5846: 86 04        	stx	$4                      ; 0x4 <__rc2>
    5848: a2 03        	ldx	#$3
    584a: 86 05        	stx	$5                      ; 0x5 <__rc3>
    584c: 4c d3 62     	jmp	$62d3 <cputs>

0000584f <mprintf>:
    584f: 85 6c        	sta	$6c                     ; 0x6c <__zp_bss_size+0x2d>
    5851: 86 6d        	stx	$6d                     ; 0x6d <__zp_bss_size+0x2e>
    5853: a6 06        	ldx	$6                      ; 0x6 <__zp_data_size>
    5855: 86 6e        	stx	$6e                     ; 0x6e <__zp_bss_size+0x2f>
    5857: a6 07        	ldx	$7                      ; 0x7 <__rc5>
    5859: 86 6f        	stx	$6f                     ; 0x6f <__zp_bss_size+0x30>
    585b: 20 91 57     	jsr	$5791 <asciitoscreencode_s>
    585e: a2 34        	ldx	#$34
    5860: 86 04        	stx	$4                      ; 0x4 <__rc2>
    5862: a2 03        	ldx	#$3
    5864: 86 05        	stx	$5                      ; 0x5 <__rc3>
    5866: 20 d3 62     	jsr	$62d3 <cputs>
    5869: 64 06        	stz	$6                      ; 0x6 <__zp_data_size>
    586b: a6 6e        	ldx	$6e                     ; 0x6e <__zp_bss_size+0x2f>
    586d: 86 04        	stx	$4                      ; 0x4 <__rc2>
    586f: a6 6f        	ldx	$6f                     ; 0x6f <__zp_bss_size+0x30>
    5871: 86 05        	stx	$5                      ; 0x5 <__rc3>
    5873: a6 6d        	ldx	$6d                     ; 0x6d <__zp_bss_size+0x2e>
    5875: a5 6c        	lda	$6c                     ; 0x6c <__zp_bss_size+0x2d>
    5877: 4c de 56     	jmp	$56de <csputdec>

0000587a <mhprintf>:
    587a: 8d 1f 75     	sta	$751f                   ; 0x751f <__data_load_start+0x7c3>
    587d: 8e 20 75     	stx	$7520                   ; 0x7520 <__data_load_start+0x7c4>
    5880: a6 04        	ldx	$4                      ; 0x4 <__rc2>
    5882: 8e 21 75     	stx	$7521                   ; 0x7521 <__data_load_start+0x7c5>
    5885: a6 05        	ldx	$5                      ; 0x5 <__rc3>
    5887: 8e 22 75     	stx	$7522                   ; 0x7522 <__data_load_start+0x7c6>
    588a: a2 32        	ldx	#$32
    588c: 86 04        	stx	$4                      ; 0x4 <__rc2>
    588e: a2 6a        	ldx	#$6a
    5890: 86 05        	stx	$5                      ; 0x5 <__rc3>
    5892: 20 91 57     	jsr	$5791 <asciitoscreencode_s>
    5895: a2 34        	ldx	#$34
    5897: 86 04        	stx	$4                      ; 0x4 <__rc2>
    5899: a2 03        	ldx	#$3
    589b: 86 05        	stx	$5                      ; 0x5 <__rc3>
    589d: 20 d3 62     	jsr	$62d3 <cputs>
    58a0: a2 02        	ldx	#$2
    58a2: ac 21 75     	ldy	$7521                   ; 0x7521 <__data_load_start+0x7c5>
    58a5: 84 04        	sty	$4                      ; 0x4 <__rc2>
    58a7: ac 22 75     	ldy	$7522                   ; 0x7522 <__data_load_start+0x7c6>
    58aa: 84 05        	sty	$5                      ; 0x5 <__rc3>
    58ac: 86 06        	stx	$6                      ; 0x6 <__zp_data_size>
    58ae: ae 20 75     	ldx	$7520                   ; 0x7520 <__data_load_start+0x7c4>
    58b1: ad 1f 75     	lda	$751f                   ; 0x751f <__data_load_start+0x7c3>
    58b4: 4c 5f 62     	jmp	$625f <cputhex>

000058b7 <mh4printf>:
    58b7: 8d 10 75     	sta	$7510                   ; 0x7510 <__data_load_start+0x7b4>
    58ba: 8e 11 75     	stx	$7511                   ; 0x7511 <__data_load_start+0x7b5>
    58bd: a6 04        	ldx	$4                      ; 0x4 <__rc2>
    58bf: 8e 12 75     	stx	$7512                   ; 0x7512 <__data_load_start+0x7b6>
    58c2: a6 05        	ldx	$5                      ; 0x5 <__rc3>
    58c4: 8e 13 75     	stx	$7513                   ; 0x7513 <__data_load_start+0x7b7>
    58c7: a2 d1        	ldx	#$d1
    58c9: 86 04        	stx	$4                      ; 0x4 <__rc2>
    58cb: a2 6b        	ldx	#$6b
    58cd: 86 05        	stx	$5                      ; 0x5 <__rc3>
    58cf: 20 91 57     	jsr	$5791 <asciitoscreencode_s>
    58d2: a2 34        	ldx	#$34
    58d4: 86 04        	stx	$4                      ; 0x4 <__rc2>
    58d6: a2 03        	ldx	#$3
    58d8: 86 05        	stx	$5                      ; 0x5 <__rc3>
    58da: 20 d3 62     	jsr	$62d3 <cputs>
    58dd: a2 04        	ldx	#$4
    58df: ac 12 75     	ldy	$7512                   ; 0x7512 <__data_load_start+0x7b6>
    58e2: 84 04        	sty	$4                      ; 0x4 <__rc2>
    58e4: ac 13 75     	ldy	$7513                   ; 0x7513 <__data_load_start+0x7b7>
    58e7: 84 05        	sty	$5                      ; 0x5 <__rc3>
    58e9: 86 06        	stx	$6                      ; 0x6 <__zp_data_size>
    58eb: ae 11 75     	ldx	$7511                   ; 0x7511 <__data_load_start+0x7b5>
    58ee: ad 10 75     	lda	$7510                   ; 0x7510 <__data_load_start+0x7b4>
    58f1: 4c 5f 62     	jmp	$625f <cputhex>

000058f4 <mcputsxy>:
    58f4: 85 6a        	sta	$6a                     ; 0x6a <__zp_bss_size+0x2b>
    58f6: 86 6b        	stx	$6b                     ; 0x6b <__zp_bss_size+0x2c>
    58f8: 20 91 57     	jsr	$5791 <asciitoscreencode_s>
    58fb: a2 34        	ldx	#$34
    58fd: 86 04        	stx	$4                      ; 0x4 <__rc2>
    58ff: a2 03        	ldx	#$3
    5901: 86 05        	stx	$5                      ; 0x5 <__rc3>
    5903: a6 6b        	ldx	$6b                     ; 0x6b <__zp_bss_size+0x2c>
    5905: a5 6a        	lda	$6a                     ; 0x6a <__zp_bss_size+0x2b>
    5907: 4c da 62     	jmp	$62da <cputsxy>

0000590a <mcbox>:
    590a: a8           	tay
    590b: 86 69        	stx	$69                     ; 0x69 <__zp_bss_size+0x2a>
    590d: a6 06        	ldx	$6                      ; 0x6 <__zp_data_size>
    590f: 86 67        	stx	$67                     ; 0x67 <__zp_bss_size+0x28>
    5911: a6 04        	ldx	$4                      ; 0x4 <__rc2>
    5913: a9 f0        	lda	#$f0
    5915: 25 27        	and	$27                     ; 0x27 <g_curTextColor>
    5917: 09 03        	ora	#$3
    5919: 85 27        	sta	$27                     ; 0x27 <g_curTextColor>
    591b: 38           	sec
    591c: 84 04        	sty	$4                      ; 0x4 <__rc2>
    591e: 8a           	txa
    591f: e5 04        	sbc	$4                      ; 0x4 <__rc2>
    5921: 85 6d        	sta	$6d                     ; 0x6d <__zp_bss_size+0x2e>
    5923: 8c 26 75     	sty	$7526                   ; 0x7526 <__data_load_start+0x7ca>
    5926: 84 6c        	sty	$6c                     ; 0x6c <__zp_bss_size+0x2d>
    5928: a5 69        	lda	$69                     ; 0x69 <__zp_bss_size+0x2a>
    592a: 8d 27 75     	sta	$7527                   ; 0x7527 <__data_load_start+0x7cb>
    592d: 8e 28 75     	stx	$7528                   ; 0x7528 <__data_load_start+0x7cc>
    5930: 86 6b        	stx	$6b                     ; 0x6b <__zp_bss_size+0x2c>
    5932: a6 05        	ldx	$5                      ; 0x5 <__rc3>
    5934: 8e 29 75     	stx	$7529                   ; 0x7529 <__data_load_start+0x7cd>
    5937: 86 6a        	stx	$6a                     ; 0x6a <__zp_bss_size+0x2b>
    5939: a2 26        	ldx	#$26
    593b: a0 75        	ldy	#$75
    593d: 86 04        	stx	$4                      ; 0x4 <__rc2>
    593f: 84 05        	sty	$5                      ; 0x5 <__rc3>
    5941: 20 b7 63     	jsr	$63b7 <fillrect>
    5944: a2 70        	ldx	#$70
    5946: 86 04        	stx	$4                      ; 0x4 <__rc2>
    5948: a6 69        	ldx	$69                     ; 0x69 <__zp_bss_size+0x2a>
    594a: a5 6c        	lda	$6c                     ; 0x6c <__zp_bss_size+0x2d>
    594c: 20 ba 61     	jsr	$61ba <cputcxy>
    594f: a2 6d        	ldx	#$6d
    5951: 86 04        	stx	$4                      ; 0x4 <__rc2>
    5953: a6 6a        	ldx	$6a                     ; 0x6a <__zp_bss_size+0x2b>
    5955: a4 6c        	ldy	$6c                     ; 0x6c <__zp_bss_size+0x2d>
    5957: 84 68        	sty	$68                     ; 0x68 <__zp_bss_size+0x29>
    5959: a5 6c        	lda	$6c                     ; 0x6c <__zp_bss_size+0x2d>
    595b: 20 ba 61     	jsr	$61ba <cputcxy>
    595e: a2 6e        	ldx	#$6e
    5960: 86 04        	stx	$4                      ; 0x4 <__rc2>
    5962: a6 69        	ldx	$69                     ; 0x69 <__zp_bss_size+0x2a>
    5964: a5 6b        	lda	$6b                     ; 0x6b <__zp_bss_size+0x2c>
    5966: 20 ba 61     	jsr	$61ba <cputcxy>
    5969: a2 7d        	ldx	#$7d
    596b: 86 04        	stx	$4                      ; 0x4 <__rc2>
    596d: a6 6a        	ldx	$6a                     ; 0x6a <__zp_bss_size+0x2b>
    596f: 86 6c        	stx	$6c                     ; 0x6c <__zp_bss_size+0x2d>
    5971: a4 6b        	ldy	$6b                     ; 0x6b <__zp_bss_size+0x2c>
    5973: 84 6a        	sty	$6a                     ; 0x6a <__zp_bss_size+0x2b>
    5975: a5 6b        	lda	$6b                     ; 0x6b <__zp_bss_size+0x2c>
    5977: 20 ba 61     	jsr	$61ba <cputcxy>
    597a: a5 6d        	lda	$6d                     ; 0x6d <__zp_bss_size+0x2e>
    597c: c9 02        	cmp	#$2
    597e: a6 6d        	ldx	$6d                     ; 0x6d <__zp_bss_size+0x2e>
    5980: 86 6e        	stx	$6e                     ; 0x6e <__zp_bss_size+0x2f>
    5982: b0 02        	bcs	$5986 <mcbox+0x7c>
    5984: a2 01        	ldx	#$1
    5986: a5 68        	lda	$68                     ; 0x68 <__zp_bss_size+0x29>
    5988: 85 6b        	sta	$6b                     ; 0x6b <__zp_bss_size+0x2c>
    598a: 80 1e        	bra	$59aa <mcbox+0xa0>
    598c: e6 68        	inc	$68                     ; 0x68 <__zp_bss_size+0x29>
    598e: a0 40        	ldy	#$40
    5990: 84 04        	sty	$4                      ; 0x4 <__rc2>
    5992: 86 6d        	stx	$6d                     ; 0x6d <__zp_bss_size+0x2e>
    5994: a6 69        	ldx	$69                     ; 0x69 <__zp_bss_size+0x2a>
    5996: a5 68        	lda	$68                     ; 0x68 <__zp_bss_size+0x29>
    5998: 20 ba 61     	jsr	$61ba <cputcxy>
    599b: a2 40        	ldx	#$40
    599d: 86 04        	stx	$4                      ; 0x4 <__rc2>
    599f: a6 6c        	ldx	$6c                     ; 0x6c <__zp_bss_size+0x2d>
    59a1: a5 68        	lda	$68                     ; 0x68 <__zp_bss_size+0x29>
    59a3: 20 ba 61     	jsr	$61ba <cputcxy>
    59a6: a6 6d        	ldx	$6d                     ; 0x6d <__zp_bss_size+0x2e>
    59a8: a5 6b        	lda	$6b                     ; 0x6b <__zp_bss_size+0x2c>
    59aa: ca           	dex
    59ab: d0 df        	bne	$598c <mcbox+0x82>
    59ad: a6 69        	ldx	$69                     ; 0x69 <__zp_bss_size+0x2a>
    59af: e8           	inx
    59b0: 86 68        	stx	$68                     ; 0x68 <__zp_bss_size+0x29>
    59b2: 80 1b        	bra	$59cf <mcbox+0xc5>
    59b4: a0 5d        	ldy	#$5d
    59b6: 84 04        	sty	$4                      ; 0x4 <__rc2>
    59b8: 86 69        	stx	$69                     ; 0x69 <__zp_bss_size+0x2a>
    59ba: a5 6b        	lda	$6b                     ; 0x6b <__zp_bss_size+0x2c>
    59bc: 20 ba 61     	jsr	$61ba <cputcxy>
    59bf: a2 5d        	ldx	#$5d
    59c1: 86 04        	stx	$4                      ; 0x4 <__rc2>
    59c3: a6 69        	ldx	$69                     ; 0x69 <__zp_bss_size+0x2a>
    59c5: a5 6a        	lda	$6a                     ; 0x6a <__zp_bss_size+0x2b>
    59c7: 20 ba 61     	jsr	$61ba <cputcxy>
    59ca: a6 69        	ldx	$69                     ; 0x69 <__zp_bss_size+0x2a>
    59cc: a5 6b        	lda	$6b                     ; 0x6b <__zp_bss_size+0x2c>
    59ce: e8           	inx
    59cf: e4 6c        	cpx	$6c                     ; 0x6c <__zp_bss_size+0x2d>
    59d1: 90 e1        	bcc	$59b4 <mcbox+0xaa>
    59d3: a6 67        	ldx	$67                     ; 0x67 <__zp_bss_size+0x28>
    59d5: d0 03        	bne	$59da <mcbox+0xd0>
    59d7: 4c 98 5a     	jmp	$5a98 <mcbox+0x18e>
    59da: a6 6c        	ldx	$6c                     ; 0x6c <__zp_bss_size+0x2d>
    59dc: ec 11 72     	cpx	$7211                   ; 0x7211 <g_curScreenH>
    59df: 90 03        	bcc	$59e4 <mcbox+0xda>
    59e1: 4c 98 5a     	jmp	$5a98 <mcbox+0x18e>
    59e4: a6 50        	ldx	$50                     ; 0x50 <g_curScreenW>
    59e6: 86 04        	stx	$4                      ; 0x4 <__rc2>
    59e8: a6 6a        	ldx	$6a                     ; 0x6a <__zp_bss_size+0x2b>
    59ea: e4 04        	cpx	$4                      ; 0x4 <__rc2>
    59ec: 90 03        	bcc	$59f1 <mcbox+0xe7>
    59ee: 4c 98 5a     	jmp	$5a98 <mcbox+0x18e>
    59f1: 64 05        	stz	$5                      ; 0x5 <__rc3>
    59f3: a6 6c        	ldx	$6c                     ; 0x6c <__zp_bss_size+0x2d>
    59f5: a0 00        	ldy	#$0
    59f7: e8           	inx
    59f8: d0 01        	bne	$59fb <mcbox+0xf1>
    59fa: c8           	iny
    59fb: 86 06        	stx	$6                      ; 0x6 <__zp_data_size>
    59fd: 84 6b        	sty	$6b                     ; 0x6b <__zp_bss_size+0x2c>
    59ff: a6 6b        	ldx	$6b                     ; 0x6b <__zp_bss_size+0x2c>
    5a01: 85 67        	sta	$67                     ; 0x67 <__zp_bss_size+0x28>
    5a03: a4 06        	ldy	$6                      ; 0x6 <__zp_data_size>
    5a05: 84 69        	sty	$69                     ; 0x69 <__zp_bss_size+0x2a>
    5a07: a5 06        	lda	$6                      ; 0x6 <__zp_data_size>
    5a09: 20 e2 65     	jsr	$65e2 <__mulhi3>
    5a0c: 85 04        	sta	$4                      ; 0x4 <__rc2>
    5a0e: 86 05        	stx	$5                      ; 0x5 <__rc3>
    5a10: 64 08        	stz	$8                      ; 0x8 <__rc6>
    5a12: 18           	clc
    5a13: a5 67        	lda	$67                     ; 0x67 <__zp_bss_size+0x28>
    5a15: 65 04        	adc	$4                      ; 0x4 <__rc2>
    5a17: 85 04        	sta	$4                      ; 0x4 <__rc2>
    5a19: a9 00        	lda	#$0
    5a1b: 65 05        	adc	$5                      ; 0x5 <__rc3>
    5a1d: 85 05        	sta	$5                      ; 0x5 <__rc3>
    5a1f: a9 00        	lda	#$0
    5a21: 69 00        	adc	#$0
    5a23: aa           	tax
    5a24: a9 00        	lda	#$0
    5a26: 69 00        	adc	#$0
    5a28: a8           	tay
    5a29: 18           	clc
    5a2a: a5 04        	lda	$4                      ; 0x4 <__rc2>
    5a2c: 69 01        	adc	#$1
    5a2e: 85 09        	sta	$9                      ; 0x9 <__rc7>
    5a30: a5 05        	lda	$5                      ; 0x5 <__rc3>
    5a32: 69 00        	adc	#$0
    5a34: 85 0a        	sta	$a                      ; 0xa <__rc8>
    5a36: 8a           	txa
    5a37: 69 f8        	adc	#$f8
    5a39: 85 04        	sta	$4                      ; 0x4 <__rc2>
    5a3b: 98           	tya
    5a3c: 69 0f        	adc	#$f
    5a3e: a0 0b        	ldy	#$b
    5a40: 85 05        	sta	$5                      ; 0x5 <__rc3>
    5a42: a6 6e        	ldx	$6e                     ; 0x6e <__zp_bss_size+0x2f>
    5a44: 86 07        	stx	$7                      ; 0x7 <__rc5>
    5a46: 84 06        	sty	$6                      ; 0x6 <__zp_data_size>
    5a48: a6 0a        	ldx	$a                      ; 0xa <__rc8>
    5a4a: a5 09        	lda	$9                      ; 0x9 <__rc7>
    5a4c: 20 f8 64     	jsr	$64f8 <lfill>
    5a4f: a6 6a        	ldx	$6a                     ; 0x6a <__zp_bss_size+0x2b>
    5a51: e8           	inx
    5a52: a4 68        	ldy	$68                     ; 0x68 <__zp_bss_size+0x29>
    5a54: 84 67        	sty	$67                     ; 0x67 <__zp_bss_size+0x28>
    5a56: 86 68        	stx	$68                     ; 0x68 <__zp_bss_size+0x29>
    5a58: 64 6a        	stz	$6a                     ; 0x6a <__zp_bss_size+0x2b>
    5a5a: 80 32        	bra	$5a8e <mcbox+0x184>
    5a5c: c0 00        	cpy	#$0
    5a5e: 90 38        	bcc	$5a98 <mcbox+0x18e>
    5a60: a5 50        	lda	$50                     ; 0x50 <g_curScreenW>
    5a62: a6 67        	ldx	$67                     ; 0x67 <__zp_bss_size+0x28>
    5a64: 86 04        	stx	$4                      ; 0x4 <__rc2>
    5a66: 64 05        	stz	$5                      ; 0x5 <__rc3>
    5a68: a2 00        	ldx	#$0
    5a6a: 20 e2 65     	jsr	$65e2 <__mulhi3>
    5a6d: 18           	clc
    5a6e: 65 68        	adc	$68                     ; 0x68 <__zp_bss_size+0x29>
    5a70: a8           	tay
    5a71: 8a           	txa
    5a72: 65 6a        	adc	$6a                     ; 0x6a <__zp_bss_size+0x2b>
    5a74: 85 07        	sta	$7                      ; 0x7 <__rc5>
    5a76: a9 f8        	lda	#$f8
    5a78: 69 00        	adc	#$0
    5a7a: 85 04        	sta	$4                      ; 0x4 <__rc2>
    5a7c: a9 0f        	lda	#$f
    5a7e: 69 00        	adc	#$0
    5a80: 85 05        	sta	$5                      ; 0x5 <__rc3>
    5a82: a2 0b        	ldx	#$b
    5a84: 86 06        	stx	$6                      ; 0x6 <__zp_data_size>
    5a86: a6 07        	ldx	$7                      ; 0x7 <__rc5>
    5a88: 98           	tya
    5a89: 20 87 20     	jsr	$2087 <lpoke>
    5a8c: e6 67        	inc	$67                     ; 0x67 <__zp_bss_size+0x28>
    5a8e: a4 6b        	ldy	$6b                     ; 0x6b <__zp_bss_size+0x2c>
    5a90: d0 ca        	bne	$5a5c <mcbox+0x152>
    5a92: a6 69        	ldx	$69                     ; 0x69 <__zp_bss_size+0x2a>
    5a94: e4 67        	cpx	$67                     ; 0x67 <__zp_bss_size+0x28>
    5a96: b0 c8        	bcs	$5a60 <mcbox+0x156>
    5a98: 60           	rts

00005a99 <messagebox>:
    5a99: 8d 25 75     	sta	$7525                   ; 0x7525 <__data_load_start+0x7c9>
    5a9c: a6 04        	ldx	$4                      ; 0x4 <__rc2>
    5a9e: 8e 23 75     	stx	$7523                   ; 0x7523 <__data_load_start+0x7c7>
    5aa1: a6 05        	ldx	$5                      ; 0x5 <__rc3>
    5aa3: 8e 24 75     	stx	$7524                   ; 0x7524 <__data_load_start+0x7c8>
    5aa6: a6 06        	ldx	$6                      ; 0x6 <__zp_data_size>
    5aa8: 8e 21 75     	stx	$7521                   ; 0x7521 <__data_load_start+0x7c5>
    5aab: a6 07        	ldx	$7                      ; 0x7 <__rc5>
    5aad: 8e 22 75     	stx	$7522                   ; 0x7522 <__data_load_start+0x7c6>
    5ab0: a6 08        	ldx	$8                      ; 0x8 <__rc6>
    5ab2: 8e 1f 75     	stx	$751f                   ; 0x751f <__data_load_start+0x7c3>
    5ab5: a6 09        	ldx	$9                      ; 0x9 <__rc7>
    5ab7: 8e 20 75     	stx	$7520                   ; 0x7520 <__data_load_start+0x7c4>
    5aba: a2 46        	ldx	#$46
    5abc: a9 0c        	lda	#$c
    5abe: a0 01        	ldy	#$1
    5ac0: 86 04        	stx	$4                      ; 0x4 <__rc2>
    5ac2: 84 06        	sty	$6                      ; 0x6 <__zp_data_size>
    5ac4: 85 05        	sta	$5                      ; 0x5 <__rc3>
    5ac6: a2 04        	ldx	#$4
    5ac8: a9 0a        	lda	#$a
    5aca: 20 0a 59     	jsr	$590a <mcbox>
    5acd: a9 20        	lda	#$20
    5acf: 05 27        	ora	$27                     ; 0x27 <g_curTextColor>
    5ad1: 85 27        	sta	$27                     ; 0x27 <g_curTextColor>
    5ad3: a9 0e        	lda	#$e
    5ad5: a2 c6        	ldx	#$c6
    5ad7: 86 04        	stx	$4                      ; 0x4 <__rc2>
    5ad9: a2 68        	ldx	#$68
    5adb: 86 05        	stx	$5                      ; 0x5 <__rc3>
    5add: a2 04        	ldx	#$4
    5adf: 20 f4 58     	jsr	$58f4 <mcputsxy>
    5ae2: a9 28        	lda	#$28
    5ae4: a2 96        	ldx	#$96
    5ae6: 86 04        	stx	$4                      ; 0x4 <__rc2>
    5ae8: a2 6a        	ldx	#$6a
    5aea: 86 05        	stx	$5                      ; 0x5 <__rc3>
    5aec: a2 04        	ldx	#$4
    5aee: 20 f4 58     	jsr	$58f4 <mcputsxy>
    5af1: a9 df        	lda	#$df
    5af3: 25 27        	and	$27                     ; 0x27 <g_curTextColor>
    5af5: 85 27        	sta	$27                     ; 0x27 <g_curTextColor>
    5af7: a2 06        	ldx	#$6
    5af9: ac 23 75     	ldy	$7523                   ; 0x7523 <__data_load_start+0x7c7>
    5afc: 84 04        	sty	$4                      ; 0x4 <__rc2>
    5afe: ac 24 75     	ldy	$7524                   ; 0x7524 <__data_load_start+0x7c8>
    5b01: 84 05        	sty	$5                      ; 0x5 <__rc3>
    5b03: a9 0c        	lda	#$c
    5b05: 20 f4 58     	jsr	$58f4 <mcputsxy>
    5b08: a2 07        	ldx	#$7
    5b0a: ac 21 75     	ldy	$7521                   ; 0x7521 <__data_load_start+0x7c5>
    5b0d: 84 04        	sty	$4                      ; 0x4 <__rc2>
    5b0f: ac 22 75     	ldy	$7522                   ; 0x7522 <__data_load_start+0x7c6>
    5b12: 84 05        	sty	$5                      ; 0x5 <__rc3>
    5b14: a9 0c        	lda	#$c
    5b16: 20 f4 58     	jsr	$58f4 <mcputsxy>
    5b19: a2 08        	ldx	#$8
    5b1b: ac 1f 75     	ldy	$751f                   ; 0x751f <__data_load_start+0x7c3>
    5b1e: 84 04        	sty	$4                      ; 0x4 <__rc2>
    5b20: ac 20 75     	ldy	$7520                   ; 0x7520 <__data_load_start+0x7c4>
    5b23: 84 05        	sty	$5                      ; 0x5 <__rc3>
    5b25: a9 0c        	lda	#$c
    5b27: 20 f4 58     	jsr	$58f4 <mcputsxy>
    5b2a: a9 20        	lda	#$20
    5b2c: 05 27        	ora	$27                     ; 0x27 <g_curTextColor>
    5b2e: 85 27        	sta	$27                     ; 0x27 <g_curTextColor>
    5b30: a2 ee        	ldx	#$ee
    5b32: 86 04        	stx	$4                      ; 0x4 <__rc2>
    5b34: a2 69        	ldx	#$69
    5b36: 86 05        	stx	$5                      ; 0x5 <__rc3>
    5b38: a2 0a        	ldx	#$a
    5b3a: a9 0c        	lda	#$c
    5b3c: 20 f4 58     	jsr	$58f4 <mcputsxy>
    5b3f: a9 3c        	lda	#$3c
    5b41: a2 3b        	ldx	#$3b
    5b43: 86 04        	stx	$4                      ; 0x4 <__rc2>
    5b45: a2 6a        	ldx	#$6a
    5b47: 86 05        	stx	$5                      ; 0x5 <__rc3>
    5b49: a2 0a        	ldx	#$a
    5b4b: 20 f4 58     	jsr	$58f4 <mcputsxy>
    5b4e: a9 df        	lda	#$df
    5b50: 25 27        	and	$27                     ; 0x27 <g_curTextColor>
    5b52: 85 27        	sta	$27                     ; 0x27 <g_curTextColor>
    5b54: ae 25 75     	ldx	$7525                   ; 0x7525 <__data_load_start+0x7c9>
    5b57: f0 36        	beq	$5b8f <messagebox+0xf6>
    5b59: a9 02        	lda	#$2
    5b5b: a2 9f        	ldx	#$9f
    5b5d: 86 04        	stx	$4                      ; 0x4 <__rc2>
    5b5f: a2 69        	ldx	#$69
    5b61: 86 05        	stx	$5                      ; 0x5 <__rc3>
    5b63: a2 01        	ldx	#$1
    5b65: 20 f4 58     	jsr	$58f4 <mcputsxy>
    5b68: a9 3a        	lda	#$3a
    5b6a: a2 44        	ldx	#$44
    5b6c: 86 04        	stx	$4                      ; 0x4 <__rc2>
    5b6e: a2 6a        	ldx	#$6a
    5b70: 86 05        	stx	$5                      ; 0x5 <__rc3>
    5b72: a2 01        	ldx	#$1
    5b74: 20 f4 58     	jsr	$58f4 <mcputsxy>
    5b77: 80 16        	bra	$5b8f <messagebox+0xf6>
    5b79: a2 d1        	ldx	#$d1
    5b7b: 86 04        	stx	$4                      ; 0x4 <__rc2>
    5b7d: a2 6b        	ldx	#$6b
    5b7f: 86 05        	stx	$5                      ; 0x5 <__rc3>
    5b81: 64 06        	stz	$6                      ; 0x6 <__zp_data_size>
    5b83: 64 07        	stz	$7                      ; 0x7 <__rc5>
    5b85: a2 00        	ldx	#$0
    5b87: 20 4f 58     	jsr	$584f <mprintf>
    5b8a: a9 20        	lda	#$20
    5b8c: 20 b1 61     	jsr	$61b1 <cputc>
    5b8f: 20 61 64     	jsr	$6461 <cgetc>
    5b92: c9 03        	cmp	#$3
    5b94: f0 08        	beq	$5b9e <messagebox+0x105>
    5b96: c9 0d        	cmp	#$d
    5b98: f0 07        	beq	$5ba1 <messagebox+0x108>
    5b9a: c9 1b        	cmp	#$1b
    5b9c: d0 db        	bne	$5b79 <messagebox+0xe0>
    5b9e: a9 00        	lda	#$0
    5ba0: 60           	rts
    5ba1: a9 01        	lda	#$1
    5ba3: 60           	rts

00005ba4 <progress>:
    5ba4: a6 16        	ldx	$16                     ; 0x16 <__rc20>
    5ba6: da           	phx
    5ba7: a6 17        	ldx	$17                     ; 0x17 <__rc21>
    5ba9: da           	phx
    5baa: 85 69        	sta	$69                     ; 0x69 <__zp_bss_size+0x2a>
    5bac: a6 04        	ldx	$4                      ; 0x4 <__rc2>
    5bae: 86 16        	stx	$16                     ; 0x16 <__rc20>
    5bb0: a6 05        	ldx	$5                      ; 0x5 <__rc3>
    5bb2: 86 17        	stx	$17                     ; 0x17 <__rc21>
    5bb4: a6 06        	ldx	$6                      ; 0x6 <__zp_data_size>
    5bb6: 86 67        	stx	$67                     ; 0x67 <__zp_bss_size+0x28>
    5bb8: a6 07        	ldx	$7                      ; 0x7 <__rc5>
    5bba: 86 68        	stx	$68                     ; 0x68 <__zp_bss_size+0x29>
    5bbc: a2 e9        	ldx	#$e9
    5bbe: 86 04        	stx	$4                      ; 0x4 <__rc2>
    5bc0: a2 6c        	ldx	#$6c
    5bc2: 86 05        	stx	$5                      ; 0x5 <__rc3>
    5bc4: 20 b7 63     	jsr	$63b7 <fillrect>
    5bc7: a2 06        	ldx	#$6
    5bc9: a4 16        	ldy	$16                     ; 0x16 <__rc20>
    5bcb: 84 04        	sty	$4                      ; 0x4 <__rc2>
    5bcd: a4 17        	ldy	$17                     ; 0x17 <__rc21>
    5bcf: 84 05        	sty	$5                      ; 0x5 <__rc3>
    5bd1: a4 69        	ldy	$69                     ; 0x69 <__zp_bss_size+0x2a>
    5bd3: 84 16        	sty	$16                     ; 0x16 <__rc20>
    5bd5: a9 0c        	lda	#$c
    5bd7: 20 f4 58     	jsr	$58f4 <mcputsxy>
    5bda: a2 07        	ldx	#$7
    5bdc: a4 67        	ldy	$67                     ; 0x67 <__zp_bss_size+0x28>
    5bde: 84 04        	sty	$4                      ; 0x4 <__rc2>
    5be0: a4 68        	ldy	$68                     ; 0x68 <__zp_bss_size+0x29>
    5be2: 84 05        	sty	$5                      ; 0x5 <__rc3>
    5be4: a9 0c        	lda	#$c
    5be6: 20 f4 58     	jsr	$58f4 <mcputsxy>
    5be9: a2 09        	ldx	#$9
    5beb: a0 a0        	ldy	#$a0
    5bed: 84 04        	sty	$4                      ; 0x4 <__rc2>
    5bef: a9 0c        	lda	#$c
    5bf1: 20 ba 61     	jsr	$61ba <cputcxy>
    5bf4: a2 00        	ldx	#$0
    5bf6: a5 16        	lda	$16                     ; 0x16 <__rc20>
    5bf8: 4a           	lsr
    5bf9: 85 17        	sta	$17                     ; 0x17 <__rc21>
    5bfb: 80 11        	bra	$5c0e <progress+0x6a>
    5bfd: a9 01        	lda	#$1
    5bff: a2 a0        	ldx	#$a0
    5c01: 29 01        	and	#$1
    5c03: d0 02        	bne	$5c07 <progress+0x63>
    5c05: a2 7b        	ldx	#$7b
    5c07: 8a           	txa
    5c08: 20 b1 61     	jsr	$61b1 <cputc>
    5c0b: a6 67        	ldx	$67                     ; 0x67 <__zp_bss_size+0x28>
    5c0d: e8           	inx
    5c0e: e0 32        	cpx	#$32
    5c10: f0 0a        	beq	$5c1c <progress+0x78>
    5c12: 86 67        	stx	$67                     ; 0x67 <__zp_bss_size+0x28>
    5c14: e4 17        	cpx	$17                     ; 0x17 <__rc21>
    5c16: 90 e5        	bcc	$5bfd <progress+0x59>
    5c18: a9 00        	lda	#$0
    5c1a: 80 e3        	bra	$5bff <progress+0x5b>
    5c1c: a9 65        	lda	#$65
    5c1e: 20 b1 61     	jsr	$61b1 <cputc>
    5c21: a2 ac        	ldx	#$ac
    5c23: 86 04        	stx	$4                      ; 0x4 <__rc2>
    5c25: a2 68        	ldx	#$68
    5c27: 86 05        	stx	$5                      ; 0x5 <__rc3>
    5c29: 64 06        	stz	$6                      ; 0x6 <__zp_data_size>
    5c2b: 64 07        	stz	$7                      ; 0x7 <__rc5>
    5c2d: a2 00        	ldx	#$0
    5c2f: a5 16        	lda	$16                     ; 0x16 <__rc20>
    5c31: 20 4f 58     	jsr	$584f <mprintf>
    5c34: a9 25        	lda	#$25
    5c36: 20 b1 61     	jsr	$61b1 <cputc>
    5c39: a9 0c        	lda	#$c
    5c3b: a2 99        	ldx	#$99
    5c3d: 86 04        	stx	$4                      ; 0x4 <__rc2>
    5c3f: a2 6b        	ldx	#$6b
    5c41: 86 05        	stx	$5                      ; 0x5 <__rc3>
    5c43: a2 0a        	ldx	#$a
    5c45: 20 f4 58     	jsr	$58f4 <mcputsxy>
    5c48: a9 3c        	lda	#$3c
    5c4a: a2 99        	ldx	#$99
    5c4c: 86 04        	stx	$4                      ; 0x4 <__rc2>
    5c4e: a2 6b        	ldx	#$6b
    5c50: 86 05        	stx	$5                      ; 0x5 <__rc3>
    5c52: a2 0a        	ldx	#$a
    5c54: 20 f4 58     	jsr	$58f4 <mcputsxy>
    5c57: fa           	plx
    5c58: 86 17        	stx	$17                     ; 0x17 <__rc21>
    5c5a: fa           	plx
    5c5b: 86 16        	stx	$16                     ; 0x16 <__rc20>
    5c5d: 60           	rts

00005c5e <shortcutprint>:
    5c5e: 85 67        	sta	$67                     ; 0x67 <__zp_bss_size+0x28>
    5c60: a9 f0        	lda	#$f0
    5c62: 25 27        	and	$27                     ; 0x27 <g_curTextColor>
    5c64: 09 01        	ora	#$1
    5c66: a6 27        	ldx	$27                     ; 0x27 <g_curTextColor>
    5c68: 86 68        	stx	$68                     ; 0x68 <__zp_bss_size+0x29>
    5c6a: 85 27        	sta	$27                     ; 0x27 <g_curTextColor>
    5c6c: a6 06        	ldx	$6                      ; 0x6 <__zp_data_size>
    5c6e: 86 69        	stx	$69                     ; 0x69 <__zp_bss_size+0x2a>
    5c70: a6 07        	ldx	$7                      ; 0x7 <__rc5>
    5c72: 86 6a        	stx	$6a                     ; 0x6a <__zp_bss_size+0x2b>
    5c74: 20 41 58     	jsr	$5841 <msprintf>
    5c77: a5 67        	lda	$67                     ; 0x67 <__zp_bss_size+0x28>
    5c79: f0 04        	beq	$5c7f <shortcutprint+0x21>
    5c7b: a2 03        	ldx	#$3
    5c7d: 80 02        	bra	$5c81 <shortcutprint+0x23>
    5c7f: a2 0c        	ldx	#$c
    5c81: 86 04        	stx	$4                      ; 0x4 <__rc2>
    5c83: a5 68        	lda	$68                     ; 0x68 <__zp_bss_size+0x29>
    5c85: 29 d0        	and	#$d0
    5c87: 05 04        	ora	$4                      ; 0x4 <__rc2>
    5c89: 85 67        	sta	$67                     ; 0x67 <__zp_bss_size+0x28>
    5c8b: 09 20        	ora	#$20
    5c8d: 85 27        	sta	$27                     ; 0x27 <g_curTextColor>
    5c8f: a6 69        	ldx	$69                     ; 0x69 <__zp_bss_size+0x2a>
    5c91: 86 04        	stx	$4                      ; 0x4 <__rc2>
    5c93: a6 6a        	ldx	$6a                     ; 0x6a <__zp_bss_size+0x2b>
    5c95: 86 05        	stx	$5                      ; 0x5 <__rc3>
    5c97: 20 41 58     	jsr	$5841 <msprintf>
    5c9a: a6 67        	ldx	$67                     ; 0x67 <__zp_bss_size+0x28>
    5c9c: 86 27        	stx	$27                     ; 0x27 <g_curTextColor>
    5c9e: 60           	rts

00005c9f <shortcuts>:
    5c9f: 64 51        	stz	$51                     ; 0x51 <g_curX>
    5ca1: a2 18        	ldx	#$18
    5ca3: 86 52        	stx	$52                     ; 0x52 <g_curY>
    5ca5: aa           	tax
    5ca6: 29 14        	and	#$14
    5ca8: d0 03        	bne	$5cad <shortcuts+0xe>
    5caa: 4c 7b 5d     	jmp	$5d7b <shortcuts+0xdc>
    5cad: a2 ab        	ldx	#$ab
    5caf: 86 04        	stx	$4                      ; 0x4 <__rc2>
    5cb1: a2 69        	ldx	#$69
    5cb3: 86 05        	stx	$5                      ; 0x5 <__rc3>
    5cb5: a2 b8        	ldx	#$b8
    5cb7: 86 06        	stx	$6                      ; 0x6 <__zp_data_size>
    5cb9: a2 6a        	ldx	#$6a
    5cbb: 86 07        	stx	$7                      ; 0x7 <__rc5>
    5cbd: a9 00        	lda	#$0
    5cbf: 20 5e 5c     	jsr	$5c5e <shortcutprint>
    5cc2: a2 76        	ldx	#$76
    5cc4: 86 04        	stx	$4                      ; 0x4 <__rc2>
    5cc6: a2 69        	ldx	#$69
    5cc8: 86 05        	stx	$5                      ; 0x5 <__rc3>
    5cca: a2 58        	ldx	#$58
    5ccc: 86 06        	stx	$6                      ; 0x6 <__zp_data_size>
    5cce: a2 69        	ldx	#$69
    5cd0: 86 07        	stx	$7                      ; 0x7 <__rc5>
    5cd2: a9 00        	lda	#$0
    5cd4: 20 5e 5c     	jsr	$5c5e <shortcutprint>
    5cd7: a2 bf        	ldx	#$bf
    5cd9: 86 04        	stx	$4                      ; 0x4 <__rc2>
    5cdb: a2 6a        	ldx	#$6a
    5cdd: 86 05        	stx	$5                      ; 0x5 <__rc3>
    5cdf: a2 ae        	ldx	#$ae
    5ce1: 86 06        	stx	$6                      ; 0x6 <__zp_data_size>
    5ce3: a2 69        	ldx	#$69
    5ce5: 86 07        	stx	$7                      ; 0x7 <__rc5>
    5ce7: a9 00        	lda	#$0
    5ce9: 20 5e 5c     	jsr	$5c5e <shortcutprint>
    5cec: a2 f7        	ldx	#$f7
    5cee: 86 04        	stx	$4                      ; 0x4 <__rc2>
    5cf0: a2 69        	ldx	#$69
    5cf2: 86 05        	stx	$5                      ; 0x5 <__rc3>
    5cf4: a2 59        	ldx	#$59
    5cf6: 86 06        	stx	$6                      ; 0x6 <__zp_data_size>
    5cf8: a2 6a        	ldx	#$6a
    5cfa: 86 07        	stx	$7                      ; 0x7 <__rc5>
    5cfc: a9 00        	lda	#$0
    5cfe: 20 5e 5c     	jsr	$5c5e <shortcutprint>
    5d01: a2 a5        	ldx	#$a5
    5d03: 86 04        	stx	$4                      ; 0x4 <__rc2>
    5d05: a2 68        	ldx	#$68
    5d07: 86 05        	stx	$5                      ; 0x5 <__rc3>
    5d09: a2 06        	ldx	#$6
    5d0b: 86 06        	stx	$6                      ; 0x6 <__zp_data_size>
    5d0d: a2 69        	ldx	#$69
    5d0f: 86 07        	stx	$7                      ; 0x7 <__rc5>
    5d11: a9 00        	lda	#$0
    5d13: 20 5e 5c     	jsr	$5c5e <shortcutprint>
    5d16: a2 be        	ldx	#$be
    5d18: 86 04        	stx	$4                      ; 0x4 <__rc2>
    5d1a: a2 69        	ldx	#$69
    5d1c: 86 05        	stx	$5                      ; 0x5 <__rc3>
    5d1e: a2 a5        	ldx	#$a5
    5d20: 86 06        	stx	$6                      ; 0x6 <__zp_data_size>
    5d22: a2 6b        	ldx	#$6b
    5d24: 86 07        	stx	$7                      ; 0x7 <__rc5>
    5d26: a9 00        	lda	#$0
    5d28: 20 5e 5c     	jsr	$5c5e <shortcutprint>
    5d2b: a2 a2        	ldx	#$a2
    5d2d: 86 04        	stx	$4                      ; 0x4 <__rc2>
    5d2f: a2 6b        	ldx	#$6b
    5d31: 86 05        	stx	$5                      ; 0x5 <__rc3>
    5d33: a2 ae        	ldx	#$ae
    5d35: 86 06        	stx	$6                      ; 0x6 <__zp_data_size>
    5d37: a2 68        	ldx	#$68
    5d39: 86 07        	stx	$7                      ; 0x7 <__rc5>
    5d3b: a9 00        	lda	#$0
    5d3d: 20 5e 5c     	jsr	$5c5e <shortcutprint>
    5d40: a2 1b        	ldx	#$1b
    5d42: 86 04        	stx	$4                      ; 0x4 <__rc2>
    5d44: a2 6c        	ldx	#$6c
    5d46: 86 05        	stx	$5                      ; 0x5 <__rc3>
    5d48: a2 92        	ldx	#$92
    5d4a: 86 06        	stx	$6                      ; 0x6 <__zp_data_size>
    5d4c: a2 6b        	ldx	#$6b
    5d4e: 86 07        	stx	$7                      ; 0x7 <__rc5>
    5d50: a9 00        	lda	#$0
    5d52: 20 5e 5c     	jsr	$5c5e <shortcutprint>
    5d55: a2 14        	ldx	#$14
    5d57: 86 04        	stx	$4                      ; 0x4 <__rc2>
    5d59: a2 6b        	ldx	#$6b
    5d5b: 86 05        	stx	$5                      ; 0x5 <__rc3>
    5d5d: a2 ca        	ldx	#$ca
    5d5f: 86 06        	stx	$6                      ; 0x6 <__zp_data_size>
    5d61: a2 6b        	ldx	#$6b
    5d63: 86 07        	stx	$7                      ; 0x7 <__rc5>
    5d65: a9 00        	lda	#$0
    5d67: 20 5e 5c     	jsr	$5c5e <shortcutprint>
    5d6a: a2 a8        	ldx	#$a8
    5d6c: 86 04        	stx	$4                      ; 0x4 <__rc2>
    5d6e: a2 68        	ldx	#$68
    5d70: 86 05        	stx	$5                      ; 0x5 <__rc3>
    5d72: a2 17        	ldx	#$17
    5d74: 86 06        	stx	$6                      ; 0x6 <__zp_data_size>
    5d76: a2 6b        	ldx	#$6b
    5d78: 4c 13 5f     	jmp	$5f13 <shortcuts+0x274>
    5d7b: 8a           	txa
    5d7c: 29 08        	and	#$8
    5d7e: f0 03        	beq	$5d83 <shortcuts+0xe4>
    5d80: 4c 48 5e     	jmp	$5e48 <shortcuts+0x1a9>
    5d83: 8a           	txa
    5d84: 29 03        	and	#$3
    5d86: d0 03        	bne	$5d8b <shortcuts+0xec>
    5d88: 4c 23 5f     	jmp	$5f23 <shortcuts+0x284>
    5d8b: a2 ab        	ldx	#$ab
    5d8d: 86 04        	stx	$4                      ; 0x4 <__rc2>
    5d8f: a2 69        	ldx	#$69
    5d91: 86 05        	stx	$5                      ; 0x5 <__rc3>
    5d93: a2 58        	ldx	#$58
    5d95: 86 06        	stx	$6                      ; 0x6 <__zp_data_size>
    5d97: a2 69        	ldx	#$69
    5d99: 86 07        	stx	$7                      ; 0x7 <__rc5>
    5d9b: a9 01        	lda	#$1
    5d9d: 20 5e 5c     	jsr	$5c5e <shortcutprint>
    5da0: a2 76        	ldx	#$76
    5da2: 86 04        	stx	$4                      ; 0x4 <__rc2>
    5da4: a2 69        	ldx	#$69
    5da6: 86 05        	stx	$5                      ; 0x5 <__rc3>
    5da8: a2 e7        	ldx	#$e7
    5daa: 86 06        	stx	$6                      ; 0x6 <__zp_data_size>
    5dac: a2 69        	ldx	#$69
    5dae: 86 07        	stx	$7                      ; 0x7 <__rc5>
    5db0: a9 00        	lda	#$0
    5db2: 20 5e 5c     	jsr	$5c5e <shortcutprint>
    5db5: a2 bf        	ldx	#$bf
    5db7: 86 04        	stx	$4                      ; 0x4 <__rc2>
    5db9: a2 6a        	ldx	#$6a
    5dbb: 86 05        	stx	$5                      ; 0x5 <__rc3>
    5dbd: a2 59        	ldx	#$59
    5dbf: 86 06        	stx	$6                      ; 0x6 <__zp_data_size>
    5dc1: a2 6a        	ldx	#$6a
    5dc3: 86 07        	stx	$7                      ; 0x7 <__rc5>
    5dc5: a9 00        	lda	#$0
    5dc7: 20 5e 5c     	jsr	$5c5e <shortcutprint>
    5dca: a2 f7        	ldx	#$f7
    5dcc: 86 04        	stx	$4                      ; 0x4 <__rc2>
    5dce: a2 69        	ldx	#$69
    5dd0: 86 05        	stx	$5                      ; 0x5 <__rc3>
    5dd2: a2 e7        	ldx	#$e7
    5dd4: 86 06        	stx	$6                      ; 0x6 <__zp_data_size>
    5dd6: a2 69        	ldx	#$69
    5dd8: 86 07        	stx	$7                      ; 0x7 <__rc5>
    5dda: a9 00        	lda	#$0
    5ddc: 20 5e 5c     	jsr	$5c5e <shortcutprint>
    5ddf: a2 a5        	ldx	#$a5
    5de1: 86 04        	stx	$4                      ; 0x4 <__rc2>
    5de3: a2 68        	ldx	#$68
    5de5: 86 05        	stx	$5                      ; 0x5 <__rc3>
    5de7: a2 a5        	ldx	#$a5
    5de9: 86 06        	stx	$6                      ; 0x6 <__zp_data_size>
    5deb: a2 6b        	ldx	#$6b
    5ded: 86 07        	stx	$7                      ; 0x7 <__rc5>
    5def: a9 00        	lda	#$0
    5df1: 20 5e 5c     	jsr	$5c5e <shortcutprint>
    5df4: a2 be        	ldx	#$be
    5df6: 86 04        	stx	$4                      ; 0x4 <__rc2>
    5df8: a2 69        	ldx	#$69
    5dfa: 86 05        	stx	$5                      ; 0x5 <__rc3>
    5dfc: a2 e7        	ldx	#$e7
    5dfe: 86 06        	stx	$6                      ; 0x6 <__zp_data_size>
    5e00: a2 69        	ldx	#$69
    5e02: 86 07        	stx	$7                      ; 0x7 <__rc5>
    5e04: a9 00        	lda	#$0
    5e06: 20 5e 5c     	jsr	$5c5e <shortcutprint>
    5e09: a2 a2        	ldx	#$a2
    5e0b: 86 04        	stx	$4                      ; 0x4 <__rc2>
    5e0d: a2 6b        	ldx	#$6b
    5e0f: 86 05        	stx	$5                      ; 0x5 <__rc3>
    5e11: a2 92        	ldx	#$92
    5e13: 86 06        	stx	$6                      ; 0x6 <__zp_data_size>
    5e15: a2 6b        	ldx	#$6b
    5e17: 86 07        	stx	$7                      ; 0x7 <__rc5>
    5e19: a9 01        	lda	#$1
    5e1b: 20 5e 5c     	jsr	$5c5e <shortcutprint>
    5e1e: a2 1b        	ldx	#$1b
    5e20: 86 04        	stx	$4                      ; 0x4 <__rc2>
    5e22: a2 6c        	ldx	#$6c
    5e24: 86 05        	stx	$5                      ; 0x5 <__rc3>
    5e26: a2 e7        	ldx	#$e7
    5e28: 86 06        	stx	$6                      ; 0x6 <__zp_data_size>
    5e2a: a2 69        	ldx	#$69
    5e2c: 86 07        	stx	$7                      ; 0x7 <__rc5>
    5e2e: a9 00        	lda	#$0
    5e30: 20 5e 5c     	jsr	$5c5e <shortcutprint>
    5e33: a2 14        	ldx	#$14
    5e35: 86 04        	stx	$4                      ; 0x4 <__rc2>
    5e37: a2 6b        	ldx	#$6b
    5e39: 86 05        	stx	$5                      ; 0x5 <__rc3>
    5e3b: a2 25        	ldx	#$25
    5e3d: 86 06        	stx	$6                      ; 0x6 <__zp_data_size>
    5e3f: a2 6c        	ldx	#$6c
    5e41: 86 07        	stx	$7                      ; 0x7 <__rc5>
    5e43: a9 01        	lda	#$1
    5e45: 4c 02 5f     	jmp	$5f02 <shortcuts+0x263>
    5e48: a2 ab        	ldx	#$ab
    5e4a: 86 04        	stx	$4                      ; 0x4 <__rc2>
    5e4c: a2 69        	ldx	#$69
    5e4e: 86 05        	stx	$5                      ; 0x5 <__rc3>
    5e50: a2 e7        	ldx	#$e7
    5e52: 86 06        	stx	$6                      ; 0x6 <__zp_data_size>
    5e54: a2 69        	ldx	#$69
    5e56: 86 07        	stx	$7                      ; 0x7 <__rc5>
    5e58: a9 00        	lda	#$0
    5e5a: 20 5e 5c     	jsr	$5c5e <shortcutprint>
    5e5d: a2 76        	ldx	#$76
    5e5f: 86 04        	stx	$4                      ; 0x4 <__rc2>
    5e61: a2 69        	ldx	#$69
    5e63: 86 05        	stx	$5                      ; 0x5 <__rc3>
    5e65: a2 e7        	ldx	#$e7
    5e67: 86 06        	stx	$6                      ; 0x6 <__zp_data_size>
    5e69: a2 69        	ldx	#$69
    5e6b: 86 07        	stx	$7                      ; 0x7 <__rc5>
    5e6d: a9 00        	lda	#$0
    5e6f: 20 5e 5c     	jsr	$5c5e <shortcutprint>
    5e72: a2 bf        	ldx	#$bf
    5e74: 86 04        	stx	$4                      ; 0x4 <__rc2>
    5e76: a2 6a        	ldx	#$6a
    5e78: 86 05        	stx	$5                      ; 0x5 <__rc3>
    5e7a: a2 e7        	ldx	#$e7
    5e7c: 86 06        	stx	$6                      ; 0x6 <__zp_data_size>
    5e7e: a2 69        	ldx	#$69
    5e80: 86 07        	stx	$7                      ; 0x7 <__rc5>
    5e82: a9 00        	lda	#$0
    5e84: 20 5e 5c     	jsr	$5c5e <shortcutprint>
    5e87: a2 f7        	ldx	#$f7
    5e89: 86 04        	stx	$4                      ; 0x4 <__rc2>
    5e8b: a2 69        	ldx	#$69
    5e8d: 86 05        	stx	$5                      ; 0x5 <__rc3>
    5e8f: a2 e7        	ldx	#$e7
    5e91: 86 06        	stx	$6                      ; 0x6 <__zp_data_size>
    5e93: a2 69        	ldx	#$69
    5e95: 86 07        	stx	$7                      ; 0x7 <__rc5>
    5e97: a9 00        	lda	#$0
    5e99: 20 5e 5c     	jsr	$5c5e <shortcutprint>
    5e9c: a9 01        	lda	#$1
    5e9e: a2 a5        	ldx	#$a5
    5ea0: 86 04        	stx	$4                      ; 0x4 <__rc2>
    5ea2: a2 68        	ldx	#$68
    5ea4: 86 05        	stx	$5                      ; 0x5 <__rc3>
    5ea6: a2 c1        	ldx	#$c1
    5ea8: 86 06        	stx	$6                      ; 0x6 <__zp_data_size>
    5eaa: a2 69        	ldx	#$69
    5eac: 86 07        	stx	$7                      ; 0x7 <__rc5>
    5eae: 20 5e 5c     	jsr	$5c5e <shortcutprint>
    5eb1: a2 be        	ldx	#$be
    5eb3: 86 04        	stx	$4                      ; 0x4 <__rc2>
    5eb5: a2 69        	ldx	#$69
    5eb7: 86 05        	stx	$5                      ; 0x5 <__rc3>
    5eb9: a2 e7        	ldx	#$e7
    5ebb: 86 06        	stx	$6                      ; 0x6 <__zp_data_size>
    5ebd: a2 69        	ldx	#$69
    5ebf: 86 07        	stx	$7                      ; 0x7 <__rc5>
    5ec1: a9 00        	lda	#$0
    5ec3: 20 5e 5c     	jsr	$5c5e <shortcutprint>
    5ec6: a2 a2        	ldx	#$a2
    5ec8: 86 04        	stx	$4                      ; 0x4 <__rc2>
    5eca: a2 6b        	ldx	#$6b
    5ecc: 86 05        	stx	$5                      ; 0x5 <__rc3>
    5ece: a2 e7        	ldx	#$e7
    5ed0: 86 06        	stx	$6                      ; 0x6 <__zp_data_size>
    5ed2: a2 69        	ldx	#$69
    5ed4: 86 07        	stx	$7                      ; 0x7 <__rc5>
    5ed6: a9 00        	lda	#$0
    5ed8: 20 5e 5c     	jsr	$5c5e <shortcutprint>
    5edb: a2 1b        	ldx	#$1b
    5edd: 86 04        	stx	$4                      ; 0x4 <__rc2>
    5edf: a2 6c        	ldx	#$6c
    5ee1: 86 05        	stx	$5                      ; 0x5 <__rc3>
    5ee3: a2 1e        	ldx	#$1e
    5ee5: 86 06        	stx	$6                      ; 0x6 <__zp_data_size>
    5ee7: a2 6c        	ldx	#$6c
    5ee9: 86 07        	stx	$7                      ; 0x7 <__rc5>
    5eeb: a9 00        	lda	#$0
    5eed: 20 5e 5c     	jsr	$5c5e <shortcutprint>
    5ef0: a2 14        	ldx	#$14
    5ef2: 86 04        	stx	$4                      ; 0x4 <__rc2>
    5ef4: a2 6b        	ldx	#$6b
    5ef6: 86 05        	stx	$5                      ; 0x5 <__rc3>
    5ef8: a2 e7        	ldx	#$e7
    5efa: 86 06        	stx	$6                      ; 0x6 <__zp_data_size>
    5efc: a2 69        	ldx	#$69
    5efe: 86 07        	stx	$7                      ; 0x7 <__rc5>
    5f00: a9 00        	lda	#$0
    5f02: 20 5e 5c     	jsr	$5c5e <shortcutprint>
    5f05: a2 a8        	ldx	#$a8
    5f07: 86 04        	stx	$4                      ; 0x4 <__rc2>
    5f09: a2 68        	ldx	#$68
    5f0b: 86 05        	stx	$5                      ; 0x5 <__rc3>
    5f0d: a2 b2        	ldx	#$b2
    5f0f: 86 06        	stx	$6                      ; 0x6 <__zp_data_size>
    5f11: a2 6a        	ldx	#$6a
    5f13: 86 07        	stx	$7                      ; 0x7 <__rc5>
    5f15: a9 00        	lda	#$0
    5f17: 20 5e 5c     	jsr	$5c5e <shortcutprint>
    5f1a: a9 f0        	lda	#$f0
    5f1c: 25 27        	and	$27                     ; 0x27 <g_curTextColor>
    5f1e: 09 03        	ora	#$3
    5f20: 85 27        	sta	$27                     ; 0x27 <g_curTextColor>
    5f22: 60           	rts
    5f23: a2 ab        	ldx	#$ab
    5f25: 86 04        	stx	$4                      ; 0x4 <__rc2>
    5f27: a2 69        	ldx	#$69
    5f29: 86 05        	stx	$5                      ; 0x5 <__rc3>
    5f2b: a2 b8        	ldx	#$b8
    5f2d: 86 06        	stx	$6                      ; 0x6 <__zp_data_size>
    5f2f: a2 6a        	ldx	#$6a
    5f31: 86 07        	stx	$7                      ; 0x7 <__rc5>
    5f33: a9 00        	lda	#$0
    5f35: 20 5e 5c     	jsr	$5c5e <shortcutprint>
    5f38: a2 76        	ldx	#$76
    5f3a: 86 04        	stx	$4                      ; 0x4 <__rc2>
    5f3c: a2 69        	ldx	#$69
    5f3e: 86 05        	stx	$5                      ; 0x5 <__rc3>
    5f40: a2 58        	ldx	#$58
    5f42: 86 06        	stx	$6                      ; 0x6 <__zp_data_size>
    5f44: a2 69        	ldx	#$69
    5f46: 86 07        	stx	$7                      ; 0x7 <__rc5>
    5f48: a9 01        	lda	#$1
    5f4a: 20 5e 5c     	jsr	$5c5e <shortcutprint>
    5f4d: a2 bf        	ldx	#$bf
    5f4f: 86 04        	stx	$4                      ; 0x4 <__rc2>
    5f51: a2 6a        	ldx	#$6a
    5f53: 86 05        	stx	$5                      ; 0x5 <__rc3>
    5f55: a2 ae        	ldx	#$ae
    5f57: 86 06        	stx	$6                      ; 0x6 <__zp_data_size>
    5f59: a2 69        	ldx	#$69
    5f5b: 86 07        	stx	$7                      ; 0x7 <__rc5>
    5f5d: a9 00        	lda	#$0
    5f5f: 20 5e 5c     	jsr	$5c5e <shortcutprint>
    5f62: a2 f7        	ldx	#$f7
    5f64: 86 04        	stx	$4                      ; 0x4 <__rc2>
    5f66: a2 69        	ldx	#$69
    5f68: 86 05        	stx	$5                      ; 0x5 <__rc3>
    5f6a: a2 59        	ldx	#$59
    5f6c: 86 06        	stx	$6                      ; 0x6 <__zp_data_size>
    5f6e: a2 6a        	ldx	#$6a
    5f70: 86 07        	stx	$7                      ; 0x7 <__rc5>
    5f72: a9 00        	lda	#$0
    5f74: 20 5e 5c     	jsr	$5c5e <shortcutprint>
    5f77: a2 a5        	ldx	#$a5
    5f79: 86 04        	stx	$4                      ; 0x4 <__rc2>
    5f7b: a2 68        	ldx	#$68
    5f7d: 86 05        	stx	$5                      ; 0x5 <__rc3>
    5f7f: a2 06        	ldx	#$6
    5f81: 86 06        	stx	$6                      ; 0x6 <__zp_data_size>
    5f83: a2 69        	ldx	#$69
    5f85: 86 07        	stx	$7                      ; 0x7 <__rc5>
    5f87: a9 01        	lda	#$1
    5f89: 20 5e 5c     	jsr	$5c5e <shortcutprint>
    5f8c: a2 be        	ldx	#$be
    5f8e: 86 04        	stx	$4                      ; 0x4 <__rc2>
    5f90: a2 69        	ldx	#$69
    5f92: 86 05        	stx	$5                      ; 0x5 <__rc3>
    5f94: a2 a5        	ldx	#$a5
    5f96: 86 06        	stx	$6                      ; 0x6 <__zp_data_size>
    5f98: a2 6b        	ldx	#$6b
    5f9a: 86 07        	stx	$7                      ; 0x7 <__rc5>
    5f9c: a9 00        	lda	#$0
    5f9e: 20 5e 5c     	jsr	$5c5e <shortcutprint>
    5fa1: a2 a2        	ldx	#$a2
    5fa3: 86 04        	stx	$4                      ; 0x4 <__rc2>
    5fa5: a2 6b        	ldx	#$6b
    5fa7: 86 05        	stx	$5                      ; 0x5 <__rc3>
    5fa9: a2 ae        	ldx	#$ae
    5fab: 86 06        	stx	$6                      ; 0x6 <__zp_data_size>
    5fad: a2 68        	ldx	#$68
    5faf: 86 07        	stx	$7                      ; 0x7 <__rc5>
    5fb1: a9 00        	lda	#$0
    5fb3: 20 5e 5c     	jsr	$5c5e <shortcutprint>
    5fb6: a2 1b        	ldx	#$1b
    5fb8: 86 04        	stx	$4                      ; 0x4 <__rc2>
    5fba: a2 6c        	ldx	#$6c
    5fbc: 86 05        	stx	$5                      ; 0x5 <__rc3>
    5fbe: a2 92        	ldx	#$92
    5fc0: 86 06        	stx	$6                      ; 0x6 <__zp_data_size>
    5fc2: a2 6b        	ldx	#$6b
    5fc4: 86 07        	stx	$7                      ; 0x7 <__rc5>
    5fc6: a9 01        	lda	#$1
    5fc8: 20 5e 5c     	jsr	$5c5e <shortcutprint>
    5fcb: a2 14        	ldx	#$14
    5fcd: 86 04        	stx	$4                      ; 0x4 <__rc2>
    5fcf: a2 6b        	ldx	#$6b
    5fd1: 86 05        	stx	$5                      ; 0x5 <__rc3>
    5fd3: a2 ca        	ldx	#$ca
    5fd5: 86 06        	stx	$6                      ; 0x6 <__zp_data_size>
    5fd7: a2 6b        	ldx	#$6b
    5fd9: 86 07        	stx	$7                      ; 0x7 <__rc5>
    5fdb: a9 00        	lda	#$0
    5fdd: 20 5e 5c     	jsr	$5c5e <shortcutprint>
    5fe0: a2 a8        	ldx	#$a8
    5fe2: 86 04        	stx	$4                      ; 0x4 <__rc2>
    5fe4: a2 68        	ldx	#$68
    5fe6: 86 05        	stx	$5                      ; 0x5 <__rc3>
    5fe8: a2 17        	ldx	#$17
    5fea: 86 06        	stx	$6                      ; 0x6 <__zp_data_size>
    5fec: a2 6b        	ldx	#$6b
    5fee: 86 07        	stx	$7                      ; 0x7 <__rc5>
    5ff0: a9 01        	lda	#$1
    5ff2: 4c 17 5f     	jmp	$5f17 <shortcuts+0x278>

00005ff5 <cgetcalt>:
    5ff5: a6 16        	ldx	$16                     ; 0x16 <__rc20>
    5ff7: da           	phx
    5ff8: a9 00        	lda	#$0
    5ffa: a6 04        	ldx	$4                      ; 0x4 <__rc2>
    5ffc: 86 16        	stx	$16                     ; 0x16 <__rc20>
    5ffe: 20 9f 5c     	jsr	$5c9f <shortcuts>
    6001: ad 10 d6     	lda	$d610                   ; 0xd610 <__heap_start+0x60e3>
    6004: d0 0b        	bne	$6011 <cgetcalt+0x1c>
    6006: ad 11 d6     	lda	$d611                   ; 0xd611 <__heap_start+0x60e4>
    6009: 85 04        	sta	$4                      ; 0x4 <__rc2>
    600b: c5 16        	cmp	$16                     ; 0x16 <__rc20>
    600d: f0 f2        	beq	$6001 <cgetcalt+0xc>
    600f: 80 e9        	bra	$5ffa <cgetcalt+0x5>
    6011: 9c 10 d6     	stz	$d610                   ; 0xd610 <__heap_start+0x60e3>
    6014: 64 51        	stz	$51                     ; 0x51 <g_curX>
    6016: 64 52        	stz	$52                     ; 0x52 <g_curY>
    6018: a6 16        	ldx	$16                     ; 0x16 <__rc20>
    601a: 7a           	ply
    601b: 84 16        	sty	$16                     ; 0x16 <__rc20>
    601d: 60           	rts

0000601e <UpdateSectors>:
    601e: a4 16        	ldy	$16                     ; 0x16 <__rc20>
    6020: 5a           	phy
    6021: a4 17        	ldy	$17                     ; 0x17 <__rc21>
    6023: 5a           	phy
    6024: a4 18        	ldy	$18                     ; 0x18 <__rc22>
    6026: 5a           	phy
    6027: a4 19        	ldy	$19                     ; 0x19 <__rc23>
    6029: 5a           	phy
    602a: a4 1a        	ldy	$1a                     ; 0x1a <__rc24>
    602c: 8c 10 75     	sty	$7510                   ; 0x7510 <__data_load_start+0x7b4>
    602f: a4 1b        	ldy	$1b                     ; 0x1b <__rc25>
    6031: 8c 11 75     	sty	$7511                   ; 0x7511 <__data_load_start+0x7b5>
    6034: a4 1c        	ldy	$1c                     ; 0x1c <__rc26>
    6036: 8c 12 75     	sty	$7512                   ; 0x7512 <__data_load_start+0x7b6>
    6039: a4 1d        	ldy	$1d                     ; 0x1d <__rc27>
    603b: 8c 13 75     	sty	$7513                   ; 0x7513 <__data_load_start+0x7b7>
    603e: a4 1e        	ldy	$1e                     ; 0x1e <__rc28>
    6040: 8c 14 75     	sty	$7514                   ; 0x7514 <__data_load_start+0x7b8>
    6043: a4 1f        	ldy	$1f                     ; 0x1f <__rc29>
    6045: 8c 15 75     	sty	$7515                   ; 0x7515 <__data_load_start+0x7b9>
    6048: a4 20        	ldy	$20                     ; 0x20 <__rc30>
    604a: 8c 16 75     	sty	$7516                   ; 0x7516 <__data_load_start+0x7ba>
    604d: 85 16        	sta	$16                     ; 0x16 <__rc20>
    604f: 86 17        	stx	$17                     ; 0x17 <__rc21>
    6051: 8a           	txa
    6052: 0a           	asl
    6053: 64 04        	stz	$4                      ; 0x4 <__rc2>
    6055: 26 04        	rol	$4                      ; 0x4 <__rc2>
    6057: 85 05        	sta	$5                      ; 0x5 <__rc3>
    6059: a9 e5        	lda	#$e5
    605b: 18           	clc
    605c: 65 05        	adc	$5                      ; 0x5 <__rc3>
    605e: aa           	tax
    605f: a9 6c        	lda	#$6c
    6061: 65 04        	adc	$4                      ; 0x4 <__rc2>
    6063: 86 04        	stx	$4                      ; 0x4 <__rc2>
    6065: a2 00        	ldx	#$0
    6067: 86 18        	stx	$18                     ; 0x18 <__rc22>
    6069: a2 16        	ldx	#$16
    606b: 86 19        	stx	$19                     ; 0x19 <__rc23>
    606d: 85 05        	sta	$5                      ; 0x5 <__rc3>
    606f: b2 04        	lda	($4),z                  ; 0x4 <__rc2>
    6071: a0 01        	ldy	#$1
    6073: 85 1e        	sta	$1e                     ; 0x1e <__rc28>
    6075: 85 1a        	sta	$1a                     ; 0x1a <__rc24>
    6077: b1 04        	lda	($4),y                  ; 0x4 <__rc2>
    6079: 85 1f        	sta	$1f                     ; 0x1f <__rc29>
    607b: 85 1b        	sta	$1b                     ; 0x1b <__rc25>
    607d: b2 1a        	lda	($1a),z                 ; 0x1a <__rc24>
    607f: 85 20        	sta	$20                     ; 0x20 <__rc30>
    6081: a2 11        	ldx	#$11
    6083: 86 04        	stx	$4                      ; 0x4 <__rc2>
    6085: 64 05        	stz	$5                      ; 0x5 <__rc3>
    6087: a2 00        	ldx	#$0
    6089: a5 17        	lda	$17                     ; 0x17 <__rc21>
    608b: 20 e2 65     	jsr	$65e2 <__mulhi3>
    608e: 85 04        	sta	$4                      ; 0x4 <__rc2>
    6090: 86 05        	stx	$5                      ; 0x5 <__rc3>
    6092: a9 ef        	lda	#$ef
    6094: 18           	clc
    6095: 65 04        	adc	$4                      ; 0x4 <__rc2>
    6097: 85 1c        	sta	$1c                     ; 0x1c <__rc26>
    6099: a9 71        	lda	#$71
    609b: 65 05        	adc	$5                      ; 0x5 <__rc3>
    609d: 85 1d        	sta	$1d                     ; 0x1d <__rc27>
    609f: 9c 80 d0     	stz	$d080                   ; 0xd080 <__heap_start+0x5b53>
    60a2: a2 00        	ldx	#$0
    60a4: 86 04        	stx	$4                      ; 0x4 <__rc2>
    60a6: a2 16        	ldx	#$16
    60a8: 86 05        	stx	$5                      ; 0x5 <__rc3>
    60aa: a2 28        	ldx	#$28
    60ac: 64 06        	stz	$6                      ; 0x6 <__zp_data_size>
    60ae: a5 20        	lda	$20                     ; 0x20 <__rc30>
    60b0: 20 83 4d     	jsr	$4d83 <GetOneSector>
    60b3: a0 00        	ldy	#$0
    60b5: 80 03        	bra	$60ba <UpdateSectors+0x9c>
    60b7: 91 1c        	sta	($1c),y                 ; 0x1c <__rc26>
    60b9: c8           	iny
    60ba: b9 04 16     	lda	$1604,y                 ; 0x1604 <__bss_size+0xe51>
    60bd: c9 a0        	cmp	#$a0
    60bf: f0 04        	beq	$60c5 <UpdateSectors+0xa7>
    60c1: c0 10        	cpy	#$10
    60c3: 90 f2        	bcc	$60b7 <UpdateSectors+0x99>
    60c5: a9 00        	lda	#$0
    60c7: 91 1c        	sta	($1c),y                 ; 0x1c <__rc26>
    60c9: 9c 80 d0     	stz	$d080                   ; 0xd080 <__heap_start+0x5b53>
    60cc: a5 17        	lda	$17                     ; 0x17 <__rc21>
    60ce: f0 04        	beq	$60d4 <UpdateSectors+0xb6>
    60d0: a2 1e        	ldx	#$1e
    60d2: 80 02        	bra	$60d6 <UpdateSectors+0xb8>
    60d4: a2 1c        	ldx	#$1c
    60d6: 64 07        	stz	$7                      ; 0x7 <__rc5>
    60d8: a9 28        	lda	#$28
    60da: a0 08        	ldy	#$8
    60dc: 84 05        	sty	$5                      ; 0x5 <__rc3>
    60de: a0 02        	ldy	#$2
    60e0: 84 06        	sty	$6                      ; 0x6 <__zp_data_size>
    60e2: 85 09        	sta	$9                      ; 0x9 <__rc7>
    60e4: 64 04        	stz	$4                      ; 0x4 <__rc2>
    60e6: a4 16        	ldy	$16                     ; 0x16 <__rc20>
    60e8: 84 08        	sty	$8                      ; 0x8 <__rc6>
    60ea: a0 01        	ldy	#$1
    60ec: 84 0a        	sty	$a                      ; 0xa <__rc8>
    60ee: a9 00        	lda	#$0
    60f0: 20 3b 4f     	jsr	$4f3b <readblockchain>
    60f3: a5 17        	lda	$17                     ; 0x17 <__rc21>
    60f5: 20 a2 4e     	jsr	$4ea2 <GetBAM>
    60f8: a2 00        	ldx	#$0
    60fa: 64 1d        	stz	$1d                     ; 0x1d <__rc27>
    60fc: 64 1c        	stz	$1c                     ; 0x1c <__rc26>
    60fe: 80 39        	bra	$6139 <UpdateSectors+0x11b>
    6100: 18           	clc
    6101: 8a           	txa
    6102: 69 d8        	adc	#$d8
    6104: a0 00        	ldy	#$0
    6106: 84 18        	sty	$18                     ; 0x18 <__rc22>
    6108: a0 17        	ldy	#$17
    610a: 84 19        	sty	$19                     ; 0x19 <__rc23>
    610c: 86 20        	stx	$20                     ; 0x20 <__rc30>
    610e: a2 06        	ldx	#$6
    6110: 86 04        	stx	$4                      ; 0x4 <__rc2>
    6112: 64 05        	stz	$5                      ; 0x5 <__rc3>
    6114: a2 00        	ldx	#$0
    6116: 20 e2 65     	jsr	$65e2 <__mulhi3>
    6119: 86 04        	stx	$4                      ; 0x4 <__rc2>
    611b: a6 20        	ldx	$20                     ; 0x20 <__rc30>
    611d: 18           	clc
    611e: 65 18        	adc	$18                     ; 0x18 <__rc22>
    6120: a8           	tay
    6121: a5 04        	lda	$4                      ; 0x4 <__rc2>
    6123: 65 19        	adc	$19                     ; 0x19 <__rc23>
    6125: 84 04        	sty	$4                      ; 0x4 <__rc2>
    6127: 85 05        	sta	$5                      ; 0x5 <__rc3>
    6129: 18           	clc
    612a: a5 1d        	lda	$1d                     ; 0x1d <__rc27>
    612c: a0 10        	ldy	#$10
    612e: 71 04        	adc	($4),y                  ; 0x4 <__rc2>
    6130: 85 1d        	sta	$1d                     ; 0x1d <__rc27>
    6132: a5 1c        	lda	$1c                     ; 0x1c <__rc26>
    6134: 69 00        	adc	#$0
    6136: 85 1c        	sta	$1c                     ; 0x1c <__rc26>
    6138: e8           	inx
    6139: e0 50        	cpx	#$50
    613b: f0 0b        	beq	$6148 <UpdateSectors+0x12a>
    613d: e0 28        	cpx	#$28
    613f: b0 bf        	bcs	$6100 <UpdateSectors+0xe2>
    6141: 8a           	txa
    6142: e0 27        	cpx	#$27
    6144: d0 c6        	bne	$610c <UpdateSectors+0xee>
    6146: 80 f0        	bra	$6138 <UpdateSectors+0x11a>
    6148: 18           	clc
    6149: a5 1e        	lda	$1e                     ; 0x1e <__rc28>
    614b: 69 44        	adc	#$44
    614d: 85 04        	sta	$4                      ; 0x4 <__rc2>
    614f: a5 1f        	lda	$1f                     ; 0x1f <__rc29>
    6151: 69 00        	adc	#$0
    6153: 85 05        	sta	$5                      ; 0x5 <__rc3>
    6155: a0 44        	ldy	#$44
    6157: a5 1d        	lda	$1d                     ; 0x1d <__rc27>
    6159: 91 1a        	sta	($1a),y                 ; 0x1a <__rc24>
    615b: a0 01        	ldy	#$1
    615d: a5 1c        	lda	$1c                     ; 0x1c <__rc26>
    615f: 91 04        	sta	($4),y                  ; 0x4 <__rc2>
    6161: a6 17        	ldx	$17                     ; 0x17 <__rc21>
    6163: a5 16        	lda	$16                     ; 0x16 <__rc20>
    6165: 20 2c 55     	jsr	$552c <getdirent>
    6168: a0 02        	ldy	#$2
    616a: 91 1a        	sta	($1a),y                 ; 0x1a <__rc24>
    616c: ae 16 75     	ldx	$7516                   ; 0x7516 <__data_load_start+0x7ba>
    616f: 86 20        	stx	$20                     ; 0x20 <__rc30>
    6171: ae 15 75     	ldx	$7515                   ; 0x7515 <__data_load_start+0x7b9>
    6174: 86 1f        	stx	$1f                     ; 0x1f <__rc29>
    6176: ae 14 75     	ldx	$7514                   ; 0x7514 <__data_load_start+0x7b8>
    6179: 86 1e        	stx	$1e                     ; 0x1e <__rc28>
    617b: ae 13 75     	ldx	$7513                   ; 0x7513 <__data_load_start+0x7b7>
    617e: 86 1d        	stx	$1d                     ; 0x1d <__rc27>
    6180: ae 12 75     	ldx	$7512                   ; 0x7512 <__data_load_start+0x7b6>
    6183: 86 1c        	stx	$1c                     ; 0x1c <__rc26>
    6185: ae 11 75     	ldx	$7511                   ; 0x7511 <__data_load_start+0x7b5>
    6188: 86 1b        	stx	$1b                     ; 0x1b <__rc25>
    618a: ae 10 75     	ldx	$7510                   ; 0x7510 <__data_load_start+0x7b4>
    618d: 86 1a        	stx	$1a                     ; 0x1a <__rc24>
    618f: fa           	plx
    6190: 86 19        	stx	$19                     ; 0x19 <__rc23>
    6192: fa           	plx
    6193: 86 18        	stx	$18                     ; 0x18 <__rc22>
    6195: fa           	plx
    6196: 86 17        	stx	$17                     ; 0x17 <__rc21>
    6198: fa           	plx
    6199: 86 16        	stx	$16                     ; 0x16 <__rc20>
    619b: 60           	rts

0000619c <escNOP>:
    619c: 60           	rts

0000619d <getscreenaddr>:
    619d: ad 63 d0     	lda	$d063                   ; 0xd063 <__heap_start+0x5b36>
    61a0: 29 07        	and	#$7
    61a2: ae 62 d0     	ldx	$d062                   ; 0xd062 <__heap_start+0x5b35>
    61a5: 86 04        	stx	$4                      ; 0x4 <__rc2>
    61a7: ae 61 d0     	ldx	$d061                   ; 0xd061 <__heap_start+0x5b34>
    61aa: ac 60 d0     	ldy	$d060                   ; 0xd060 <__heap_start+0x5b33>
    61ad: 85 05        	sta	$5                      ; 0x5 <__rc3>
    61af: 98           	tya
    61b0: 60           	rts

000061b1 <cputc>:
    61b1: 85 04        	sta	$4                      ; 0x4 <__rc2>
    61b3: a5 51        	lda	$51                     ; 0x51 <g_curX>
    61b5: a6 52        	ldx	$52                     ; 0x52 <g_curY>
    61b7: 4c ba 61     	jmp	$61ba <cputcxy>

000061ba <cputcxy>:
    61ba: 85 73        	sta	$73                     ; 0x73 <__zp_bss_size+0x34>
    61bc: a4 04        	ldy	$4                      ; 0x4 <__rc2>
    61be: 84 74        	sty	$74                     ; 0x74 <__zp_bss_size+0x35>
    61c0: a5 50        	lda	$50                     ; 0x50 <g_curScreenW>
    61c2: 86 72        	stx	$72                     ; 0x72 <__zp_bss_size+0x33>
    61c4: 86 04        	stx	$4                      ; 0x4 <__rc2>
    61c6: 64 05        	stz	$5                      ; 0x5 <__rc3>
    61c8: a2 00        	ldx	#$0
    61ca: 64 70        	stz	$70                     ; 0x70 <__zp_bss_size+0x31>
    61cc: 20 e2 65     	jsr	$65e2 <__mulhi3>
    61cf: 18           	clc
    61d0: 65 73        	adc	$73                     ; 0x73 <__zp_bss_size+0x34>
    61d2: 85 71        	sta	$71                     ; 0x71 <__zp_bss_size+0x32>
    61d4: 8a           	txa
    61d5: 69 00        	adc	#$0
    61d7: 85 6f        	sta	$6f                     ; 0x6f <__zp_bss_size+0x30>
    61d9: ad 63 d0     	lda	$d063                   ; 0xd063 <__heap_start+0x5b36>
    61dc: 29 07        	and	#$7
    61de: a8           	tay
    61df: ae 62 d0     	ldx	$d062                   ; 0xd062 <__heap_start+0x5b35>
    61e2: 86 05        	stx	$5                      ; 0x5 <__rc3>
    61e4: ae 61 d0     	ldx	$d061                   ; 0xd061 <__heap_start+0x5b34>
    61e7: 86 04        	stx	$4                      ; 0x4 <__rc2>
    61e9: a5 71        	lda	$71                     ; 0x71 <__zp_bss_size+0x32>
    61eb: 18           	clc
    61ec: 69 00        	adc	#$0
    61ee: 85 06        	sta	$6                      ; 0x6 <__zp_data_size>
    61f0: a5 6f        	lda	$6f                     ; 0x6f <__zp_bss_size+0x30>
    61f2: 65 04        	adc	$4                      ; 0x4 <__rc2>
    61f4: 85 08        	sta	$8                      ; 0x8 <__rc6>
    61f6: a5 05        	lda	$5                      ; 0x5 <__rc3>
    61f8: 69 00        	adc	#$0
    61fa: 85 05        	sta	$5                      ; 0x5 <__rc3>
    61fc: 98           	tya
    61fd: 69 00        	adc	#$0
    61ff: a8           	tay
    6200: ae 60 d0     	ldx	$d060                   ; 0xd060 <__heap_start+0x5b33>
    6203: 86 04        	stx	$4                      ; 0x4 <__rc2>
    6205: 18           	clc
    6206: a5 06        	lda	$6                      ; 0x6 <__zp_data_size>
    6208: 65 04        	adc	$4                      ; 0x4 <__rc2>
    620a: 85 07        	sta	$7                      ; 0x7 <__rc5>
    620c: a5 08        	lda	$8                      ; 0x8 <__rc6>
    620e: 69 00        	adc	#$0
    6210: 85 08        	sta	$8                      ; 0x8 <__rc6>
    6212: a5 05        	lda	$5                      ; 0x5 <__rc3>
    6214: 69 00        	adc	#$0
    6216: 85 04        	sta	$4                      ; 0x4 <__rc2>
    6218: 98           	tya
    6219: 69 00        	adc	#$0
    621b: 85 05        	sta	$5                      ; 0x5 <__rc3>
    621d: a6 74        	ldx	$74                     ; 0x74 <__zp_bss_size+0x35>
    621f: 86 06        	stx	$6                      ; 0x6 <__zp_data_size>
    6221: a6 08        	ldx	$8                      ; 0x8 <__rc6>
    6223: a5 07        	lda	$7                      ; 0x7 <__rc5>
    6225: 20 87 20     	jsr	$2087 <lpoke>
    6228: a6 27        	ldx	$27                     ; 0x27 <g_curTextColor>
    622a: a0 f8        	ldy	#$f8
    622c: a9 0f        	lda	#$f
    622e: 84 04        	sty	$4                      ; 0x4 <__rc2>
    6230: 85 05        	sta	$5                      ; 0x5 <__rc3>
    6232: 86 06        	stx	$6                      ; 0x6 <__zp_data_size>
    6234: a6 6f        	ldx	$6f                     ; 0x6f <__zp_bss_size+0x30>
    6236: a5 71        	lda	$71                     ; 0x71 <__zp_bss_size+0x32>
    6238: 20 87 20     	jsr	$2087 <lpoke>
    623b: a6 50        	ldx	$50                     ; 0x50 <g_curScreenW>
    623d: da           	phx
    623e: 7a           	ply
    623f: ca           	dex
    6240: c0 00        	cpy	#$0
    6242: d0 02        	bne	$6246 <cputcxy+0x8c>
    6244: c6 70        	dec	$70                     ; 0x70 <__zp_bss_size+0x31>
    6246: a5 70        	lda	$70                     ; 0x70 <__zp_bss_size+0x31>
    6248: d0 0b        	bne	$6255 <cputcxy+0x9b>
    624a: a4 72        	ldy	$72                     ; 0x72 <__zp_bss_size+0x33>
    624c: e4 73        	cpx	$73                     ; 0x73 <__zp_bss_size+0x34>
    624e: d0 07        	bne	$6257 <cputcxy+0x9d>
    6250: a2 00        	ldx	#$0
    6252: c8           	iny
    6253: 80 05        	bra	$625a <cputcxy+0xa0>
    6255: a4 72        	ldy	$72                     ; 0x72 <__zp_bss_size+0x33>
    6257: a6 73        	ldx	$73                     ; 0x73 <__zp_bss_size+0x34>
    6259: e8           	inx
    625a: 86 51        	stx	$51                     ; 0x51 <g_curX>
    625c: 84 52        	sty	$52                     ; 0x52 <g_curY>
    625e: 60           	rts

0000625f <cputhex>:
    625f: 85 05        	sta	$5                      ; 0x5 <__rc3>
    6261: 8a           	txa
    6262: 86 04        	stx	$4                      ; 0x4 <__rc2>
    6264: 29 0f        	and	#$f
    6266: a8           	tay
    6267: a5 05        	lda	$5                      ; 0x5 <__rc3>
    6269: 4a           	lsr
    626a: 4a           	lsr
    626b: 4a           	lsr
    626c: 4a           	lsr
    626d: 29 0f        	and	#$f
    626f: 85 07        	sta	$7                      ; 0x7 <__rc5>
    6271: 46 04        	lsr	$4                      ; 0x4 <__rc2>
    6273: 46 04        	lsr	$4                      ; 0x4 <__rc2>
    6275: 46 04        	lsr	$4                      ; 0x4 <__rc2>
    6277: 46 04        	lsr	$4                      ; 0x4 <__rc2>
    6279: a6 04        	ldx	$4                      ; 0x4 <__rc2>
    627b: bd 4c 6d     	lda	$6d4c,x                 ; 0x6d4c <hexDigits>
    627e: aa           	tax
    627f: a9 30        	lda	#$30
    6281: 8d 24 75     	sta	$7524                   ; 0x7524 <__data_load_start+0x7c8>
    6284: 8d 25 75     	sta	$7525                   ; 0x7525 <__data_load_start+0x7c9>
    6287: 8d 26 75     	sta	$7526                   ; 0x7526 <__data_load_start+0x7ca>
    628a: 8d 27 75     	sta	$7527                   ; 0x7527 <__data_load_start+0x7cb>
    628d: 8e 28 75     	stx	$7528                   ; 0x7528 <__data_load_start+0x7cc>
    6290: be 4c 6d     	ldx	$6d4c,y                 ; 0x6d4c <hexDigits>
    6293: 8e 29 75     	stx	$7529                   ; 0x7529 <__data_load_start+0x7cd>
    6296: a5 05        	lda	$5                      ; 0x5 <__rc3>
    6298: 29 0f        	and	#$f
    629a: a8           	tay
    629b: 38           	sec
    629c: a9 08        	lda	#$8
    629e: e5 06        	sbc	$6                      ; 0x6 <__zp_data_size>
    62a0: 85 04        	sta	$4                      ; 0x4 <__rc2>
    62a2: a9 00        	lda	#$0
    62a4: e9 00        	sbc	#$0
    62a6: 18           	clc
    62a7: 85 05        	sta	$5                      ; 0x5 <__rc3>
    62a9: a9 23        	lda	#$23
    62ab: 65 04        	adc	$4                      ; 0x4 <__rc2>
    62ad: 85 04        	sta	$4                      ; 0x4 <__rc2>
    62af: a9 75        	lda	#$75
    62b1: 65 05        	adc	$5                      ; 0x5 <__rc3>
    62b3: a6 07        	ldx	$7                      ; 0x7 <__rc5>
    62b5: 48           	pha
    62b6: bd 4c 6d     	lda	$6d4c,x                 ; 0x6d4c <hexDigits>
    62b9: aa           	tax
    62ba: 68           	pla
    62bb: 8e 2a 75     	stx	$752a                   ; 0x752a <__data_load_start+0x7ce>
    62be: be 4c 6d     	ldx	$6d4c,y                 ; 0x6d4c <hexDigits>
    62c1: 8e 2b 75     	stx	$752b                   ; 0x752b <__data_load_start+0x7cf>
    62c4: 85 05        	sta	$5                      ; 0x5 <__rc3>
    62c6: a9 24        	lda	#$24
    62c8: 8d 23 75     	sta	$7523                   ; 0x7523 <__data_load_start+0x7c7>
    62cb: 9c 2c 75     	stz	$752c                   ; 0x752c <__data_load_start+0x7d0>
    62ce: 92 04        	sta	($4),z                  ; 0x4 <__rc2>
    62d0: 4c d3 62     	jmp	$62d3 <cputs>

000062d3 <cputs>:
    62d3: a5 51        	lda	$51                     ; 0x51 <g_curX>
    62d5: a6 52        	ldx	$52                     ; 0x52 <g_curY>
    62d7: 4c da 62     	jmp	$62da <cputsxy>

000062da <cputsxy>:
    62da: 85 8c        	sta	$8c                     ; 0x8c <__zp_bss_size+0x4d>
    62dc: 86 8b        	stx	$8b                     ; 0x8b <__zp_bss_size+0x4c>
    62de: a6 04        	ldx	$4                      ; 0x4 <__rc2>
    62e0: 86 06        	stx	$6                      ; 0x6 <__zp_data_size>
    62e2: a6 05        	ldx	$5                      ; 0x5 <__rc3>
    62e4: 86 07        	stx	$7                      ; 0x7 <__rc5>
    62e6: a6 06        	ldx	$6                      ; 0x6 <__zp_data_size>
    62e8: 86 89        	stx	$89                     ; 0x89 <__zp_bss_size+0x4a>
    62ea: a6 07        	ldx	$7                      ; 0x7 <__rc5>
    62ec: 86 8a        	stx	$8a                     ; 0x8a <__zp_bss_size+0x4b>
    62ee: 20 80 65     	jsr	$6580 <strlen>
    62f1: 85 88        	sta	$88                     ; 0x88 <__zp_bss_size+0x49>
    62f3: a5 50        	lda	$50                     ; 0x50 <g_curScreenW>
    62f5: a6 8b        	ldx	$8b                     ; 0x8b <__zp_bss_size+0x4c>
    62f7: 86 04        	stx	$4                      ; 0x4 <__rc2>
    62f9: 64 05        	stz	$5                      ; 0x5 <__rc3>
    62fb: a2 00        	ldx	#$0
    62fd: 20 e2 65     	jsr	$65e2 <__mulhi3>
    6300: 86 05        	stx	$5                      ; 0x5 <__rc3>
    6302: a6 8c        	ldx	$8c                     ; 0x8c <__zp_bss_size+0x4d>
    6304: 86 04        	stx	$4                      ; 0x4 <__rc2>
    6306: 18           	clc
    6307: 65 04        	adc	$4                      ; 0x4 <__rc2>
    6309: a8           	tay
    630a: 85 8e        	sta	$8e                     ; 0x8e <__zp_bss_size+0x4f>
    630c: a5 05        	lda	$5                      ; 0x5 <__rc3>
    630e: 69 00        	adc	#$0
    6310: 85 8d        	sta	$8d                     ; 0x8d <__zp_bss_size+0x4e>
    6312: ad 63 d0     	lda	$d063                   ; 0xd063 <__heap_start+0x5b36>
    6315: 29 07        	and	#$7
    6317: 85 07        	sta	$7                      ; 0x7 <__rc5>
    6319: ae 62 d0     	ldx	$d062                   ; 0xd062 <__heap_start+0x5b35>
    631c: 86 06        	stx	$6                      ; 0x6 <__zp_data_size>
    631e: ae 61 d0     	ldx	$d061                   ; 0xd061 <__heap_start+0x5b34>
    6321: 86 04        	stx	$4                      ; 0x4 <__rc2>
    6323: 98           	tya
    6324: 18           	clc
    6325: 69 00        	adc	#$0
    6327: 85 08        	sta	$8                      ; 0x8 <__rc6>
    6329: a6 8d        	ldx	$8d                     ; 0x8d <__zp_bss_size+0x4e>
    632b: 8a           	txa
    632c: 65 04        	adc	$4                      ; 0x4 <__rc2>
    632e: 85 09        	sta	$9                      ; 0x9 <__rc7>
    6330: a5 06        	lda	$6                      ; 0x6 <__zp_data_size>
    6332: 69 00        	adc	#$0
    6334: 85 05        	sta	$5                      ; 0x5 <__rc3>
    6336: a5 07        	lda	$7                      ; 0x7 <__rc5>
    6338: 69 00        	adc	#$0
    633a: a8           	tay
    633b: ae 60 d0     	ldx	$d060                   ; 0xd060 <__heap_start+0x5b33>
    633e: 86 04        	stx	$4                      ; 0x4 <__rc2>
    6340: 18           	clc
    6341: a5 08        	lda	$8                      ; 0x8 <__rc6>
    6343: 65 04        	adc	$4                      ; 0x4 <__rc2>
    6345: 85 06        	sta	$6                      ; 0x6 <__zp_data_size>
    6347: a5 09        	lda	$9                      ; 0x9 <__rc7>
    6349: 69 00        	adc	#$0
    634b: 85 07        	sta	$7                      ; 0x7 <__rc5>
    634d: a5 05        	lda	$5                      ; 0x5 <__rc3>
    634f: 69 00        	adc	#$0
    6351: 85 08        	sta	$8                      ; 0x8 <__rc6>
    6353: 98           	tya
    6354: 69 00        	adc	#$0
    6356: 64 04        	stz	$4                      ; 0x4 <__rc2>
    6358: 64 05        	stz	$5                      ; 0x5 <__rc3>
    635a: 85 09        	sta	$9                      ; 0x9 <__rc7>
    635c: a6 88        	ldx	$88                     ; 0x88 <__zp_bss_size+0x49>
    635e: 86 0a        	stx	$a                      ; 0xa <__rc8>
    6360: 64 0b        	stz	$b                      ; 0xb <__rc9>
    6362: a6 89        	ldx	$89                     ; 0x89 <__zp_bss_size+0x4a>
    6364: 86 0c        	stx	$c                      ; 0xc <__rc10>
    6366: a6 8a        	ldx	$8a                     ; 0x8a <__zp_bss_size+0x4b>
    6368: a5 0c        	lda	$c                      ; 0xc <__rc10>
    636a: 20 91 64     	jsr	$6491 <lcopy>
    636d: a6 27        	ldx	$27                     ; 0x27 <g_curTextColor>
    636f: a0 f8        	ldy	#$f8
    6371: a9 0f        	lda	#$f
    6373: 84 04        	sty	$4                      ; 0x4 <__rc2>
    6375: 85 05        	sta	$5                      ; 0x5 <__rc3>
    6377: 86 06        	stx	$6                      ; 0x6 <__zp_data_size>
    6379: a6 88        	ldx	$88                     ; 0x88 <__zp_bss_size+0x49>
    637b: 86 07        	stx	$7                      ; 0x7 <__rc5>
    637d: 64 08        	stz	$8                      ; 0x8 <__rc6>
    637f: a6 8d        	ldx	$8d                     ; 0x8d <__zp_bss_size+0x4e>
    6381: a5 8e        	lda	$8e                     ; 0x8e <__zp_bss_size+0x4f>
    6383: 20 f8 64     	jsr	$64f8 <lfill>
    6386: a5 88        	lda	$88                     ; 0x88 <__zp_bss_size+0x49>
    6388: a6 8c        	ldx	$8c                     ; 0x8c <__zp_bss_size+0x4d>
    638a: 86 04        	stx	$4                      ; 0x4 <__rc2>
    638c: 18           	clc
    638d: 65 04        	adc	$4                      ; 0x4 <__rc2>
    638f: 85 08        	sta	$8                      ; 0x8 <__rc6>
    6391: a9 00        	lda	#$0
    6393: 69 00        	adc	#$0
    6395: a6 50        	ldx	$50                     ; 0x50 <g_curScreenW>
    6397: a0 86        	ldy	#$86
    6399: 84 06        	sty	$6                      ; 0x6 <__zp_data_size>
    639b: a0 00        	ldy	#$0
    639d: 84 07        	sty	$7                      ; 0x7 <__rc5>
    639f: 64 05        	stz	$5                      ; 0x5 <__rc3>
    63a1: 86 04        	stx	$4                      ; 0x4 <__rc2>
    63a3: aa           	tax
    63a4: a5 08        	lda	$8                      ; 0x8 <__rc6>
    63a6: 20 06 67     	jsr	$6706 <__udivmodhi4>
    63a9: a6 86        	ldx	$86                     ; 0x86 <__zp_bss_size+0x47>
    63ab: 18           	clc
    63ac: a4 8b        	ldy	$8b                     ; 0x8b <__zp_bss_size+0x4c>
    63ae: 84 04        	sty	$4                      ; 0x4 <__rc2>
    63b0: 65 04        	adc	$4                      ; 0x4 <__rc2>
    63b2: 85 52        	sta	$52                     ; 0x52 <g_curY>
    63b4: 86 51        	stx	$51                     ; 0x51 <g_curX>
    63b6: 60           	rts

000063b7 <fillrect>:
    63b7: a6 04        	ldx	$4                      ; 0x4 <__rc2>
    63b9: 86 6f        	stx	$6f                     ; 0x6f <__zp_bss_size+0x30>
    63bb: a6 05        	ldx	$5                      ; 0x5 <__rc3>
    63bd: 86 70        	stx	$70                     ; 0x70 <__zp_bss_size+0x31>
    63bf: a0 01        	ldy	#$1
    63c1: b1 04        	lda	($4),y                  ; 0x4 <__rc2>
    63c3: c8           	iny
    63c4: 85 71        	sta	$71                     ; 0x71 <__zp_bss_size+0x32>
    63c6: b1 04        	lda	($4),y                  ; 0x4 <__rc2>
    63c8: 38           	sec
    63c9: f2 04        	sbc	($4),z                  ; 0x4 <__rc2>
    63cb: 85 73        	sta	$73                     ; 0x73 <__zp_bss_size+0x34>
    63cd: 4c 55 64     	jmp	$6455 <fillrect+0x9e>
    63d0: a5 50        	lda	$50                     ; 0x50 <g_curScreenW>
    63d2: a6 71        	ldx	$71                     ; 0x71 <__zp_bss_size+0x32>
    63d4: 86 04        	stx	$4                      ; 0x4 <__rc2>
    63d6: 64 05        	stz	$5                      ; 0x5 <__rc3>
    63d8: a2 00        	ldx	#$0
    63da: 20 e2 65     	jsr	$65e2 <__mulhi3>
    63dd: 18           	clc
    63de: 72 6f        	adc	($6f),z                 ; 0x6f <__zp_bss_size+0x30>
    63e0: 85 74        	sta	$74                     ; 0x74 <__zp_bss_size+0x35>
    63e2: 8a           	txa
    63e3: 69 00        	adc	#$0
    63e5: 85 75        	sta	$75                     ; 0x75 <__zp_bss_size+0x36>
    63e7: ad 63 d0     	lda	$d063                   ; 0xd063 <__heap_start+0x5b36>
    63ea: 29 07        	and	#$7
    63ec: a8           	tay
    63ed: ae 62 d0     	ldx	$d062                   ; 0xd062 <__heap_start+0x5b35>
    63f0: 86 06        	stx	$6                      ; 0x6 <__zp_data_size>
    63f2: ae 61 d0     	ldx	$d061                   ; 0xd061 <__heap_start+0x5b34>
    63f5: 86 04        	stx	$4                      ; 0x4 <__rc2>
    63f7: ae 60 d0     	ldx	$d060                   ; 0xd060 <__heap_start+0x5b33>
    63fa: 86 05        	stx	$5                      ; 0x5 <__rc3>
    63fc: 18           	clc
    63fd: a5 74        	lda	$74                     ; 0x74 <__zp_bss_size+0x35>
    63ff: 69 00        	adc	#$0
    6401: aa           	tax
    6402: a5 75        	lda	$75                     ; 0x75 <__zp_bss_size+0x36>
    6404: 65 04        	adc	$4                      ; 0x4 <__rc2>
    6406: 85 07        	sta	$7                      ; 0x7 <__rc5>
    6408: a5 06        	lda	$6                      ; 0x6 <__zp_data_size>
    640a: 69 00        	adc	#$0
    640c: 85 04        	sta	$4                      ; 0x4 <__rc2>
    640e: 98           	tya
    640f: 69 00        	adc	#$0
    6411: 85 06        	sta	$6                      ; 0x6 <__zp_data_size>
    6413: 18           	clc
    6414: 8a           	txa
    6415: 65 05        	adc	$5                      ; 0x5 <__rc3>
    6417: a8           	tay
    6418: a5 07        	lda	$7                      ; 0x7 <__rc5>
    641a: 69 00        	adc	#$0
    641c: 85 09        	sta	$9                      ; 0x9 <__rc7>
    641e: a5 04        	lda	$4                      ; 0x4 <__rc2>
    6420: 69 00        	adc	#$0
    6422: 85 04        	sta	$4                      ; 0x4 <__rc2>
    6424: a5 06        	lda	$6                      ; 0x6 <__zp_data_size>
    6426: 69 00        	adc	#$0
    6428: 85 05        	sta	$5                      ; 0x5 <__rc3>
    642a: a2 20        	ldx	#$20
    642c: 86 06        	stx	$6                      ; 0x6 <__zp_data_size>
    642e: a6 73        	ldx	$73                     ; 0x73 <__zp_bss_size+0x34>
    6430: 86 07        	stx	$7                      ; 0x7 <__rc5>
    6432: 64 08        	stz	$8                      ; 0x8 <__rc6>
    6434: a6 09        	ldx	$9                      ; 0x9 <__rc7>
    6436: 98           	tya
    6437: 20 f8 64     	jsr	$64f8 <lfill>
    643a: a2 f8        	ldx	#$f8
    643c: 86 04        	stx	$4                      ; 0x4 <__rc2>
    643e: a2 0f        	ldx	#$f
    6440: 86 05        	stx	$5                      ; 0x5 <__rc3>
    6442: a2 03        	ldx	#$3
    6444: 86 06        	stx	$6                      ; 0x6 <__zp_data_size>
    6446: a6 73        	ldx	$73                     ; 0x73 <__zp_bss_size+0x34>
    6448: 86 07        	stx	$7                      ; 0x7 <__rc5>
    644a: 64 08        	stz	$8                      ; 0x8 <__rc6>
    644c: a6 75        	ldx	$75                     ; 0x75 <__zp_bss_size+0x36>
    644e: a5 74        	lda	$74                     ; 0x74 <__zp_bss_size+0x35>
    6450: 20 f8 64     	jsr	$64f8 <lfill>
    6453: e6 71        	inc	$71                     ; 0x71 <__zp_bss_size+0x32>
    6455: a0 03        	ldy	#$3
    6457: b1 6f        	lda	($6f),y                 ; 0x6f <__zp_bss_size+0x30>
    6459: c5 71        	cmp	$71                     ; 0x71 <__zp_bss_size+0x32>
    645b: 90 03        	bcc	$6460 <fillrect+0xa9>
    645d: 4c d0 63     	jmp	$63d0 <fillrect+0x19>
    6460: 60           	rts

00006461 <cgetc>:
    6461: ad 10 d6     	lda	$d610                   ; 0xd610 <__heap_start+0x60e3>
    6464: f0 fb        	beq	$6461 <cgetc>
    6466: 9c 10 d6     	stz	$d610                   ; 0xd610 <__heap_start+0x60e3>
    6469: 60           	rts

0000646a <do_dma>:
    646a: a2 00        	ldx	#$0
    646c: a0 53        	ldy	#$53
    646e: 84 04        	sty	$4                      ; 0x4 <__rc2>
    6470: a0 00        	ldy	#$0
    6472: 84 05        	sty	$5                      ; 0x5 <__rc3>
    6474: a4 04        	ldy	$4                      ; 0x4 <__rc2>
    6476: a9 47        	lda	#$47
    6478: 8d 2f d0     	sta	$d02f                   ; 0xd02f <__heap_start+0x5b02>
    647b: a9 53        	lda	#$53
    647d: 8d 2f d0     	sta	$d02f                   ; 0xd02f <__heap_start+0x5b02>
    6480: a9 41        	lda	#$41
    6482: 85 00        	sta	$0                      ; 0x0 <__data_size>
    6484: 9c 02 d7     	stz	$d702                   ; 0xd702 <__heap_start+0x61d5>
    6487: 9c 04 d7     	stz	$d704                   ; 0xd704 <__heap_start+0x61d7>
    648a: 8e 01 d7     	stx	$d701                   ; 0xd701 <__heap_start+0x61d4>
    648d: 8c 05 d7     	sty	$d705                   ; 0xd705 <__heap_start+0x61d8>
    6490: 60           	rts

00006491 <lcopy>:
    6491: 85 0c        	sta	$c                      ; 0xc <__rc10>
    6493: 86 0d        	stx	$d                      ; 0xd <__rc11>
    6495: a6 0a        	ldx	$a                      ; 0xa <__rc8>
    6497: a4 0b        	ldy	$b                      ; 0xb <__rc9>
    6499: a9 0b        	lda	#$b
    649b: 85 53        	sta	$53                     ; 0x53 <dmalist>
    649d: a9 80        	lda	#$80
    649f: 85 54        	sta	$54                     ; 0x54 <dmalist+0x1>
    64a1: 46 05        	lsr	$5                      ; 0x5 <__rc3>
    64a3: a5 04        	lda	$4                      ; 0x4 <__rc2>
    64a5: 6a           	ror
    64a6: 46 05        	lsr	$5                      ; 0x5 <__rc3>
    64a8: 6a           	ror
    64a9: 46 05        	lsr	$5                      ; 0x5 <__rc3>
    64ab: 6a           	ror
    64ac: 46 05        	lsr	$5                      ; 0x5 <__rc3>
    64ae: 6a           	ror
    64af: 85 55        	sta	$55                     ; 0x55 <dmalist+0x2>
    64b1: a9 81        	lda	#$81
    64b3: 85 56        	sta	$56                     ; 0x56 <dmalist+0x3>
    64b5: 46 09        	lsr	$9                      ; 0x9 <__rc7>
    64b7: a5 08        	lda	$8                      ; 0x8 <__rc6>
    64b9: 6a           	ror
    64ba: 46 09        	lsr	$9                      ; 0x9 <__rc7>
    64bc: 6a           	ror
    64bd: 46 09        	lsr	$9                      ; 0x9 <__rc7>
    64bf: 6a           	ror
    64c0: 46 09        	lsr	$9                      ; 0x9 <__rc7>
    64c2: 6a           	ror
    64c3: 85 57        	sta	$57                     ; 0x57 <dmalist+0x4>
    64c5: a9 85        	lda	#$85
    64c7: 85 58        	sta	$58                     ; 0x58 <dmalist+0x5>
    64c9: a9 01        	lda	#$1
    64cb: 85 59        	sta	$59                     ; 0x59 <dmalist+0x6>
    64cd: 64 5a        	stz	$5a                     ; 0x5a <dmalist+0x7>
    64cf: 64 64        	stz	$64                     ; 0x64 <dmalist+0x11>
    64d1: 64 5b        	stz	$5b                     ; 0x5b <dmalist+0x8>
    64d3: 86 5c        	stx	$5c                     ; 0x5c <dmalist+0x9>
    64d5: 84 5d        	sty	$5d                     ; 0x5d <dmalist+0xa>
    64d7: 64 64        	stz	$64                     ; 0x64 <dmalist+0x11>
    64d9: a6 0c        	ldx	$c                      ; 0xc <__rc10>
    64db: 86 5e        	stx	$5e                     ; 0x5e <dmalist+0xb>
    64dd: a6 0d        	ldx	$d                      ; 0xd <__rc11>
    64df: 86 5f        	stx	$5f                     ; 0x5f <dmalist+0xc>
    64e1: a5 04        	lda	$4                      ; 0x4 <__rc2>
    64e3: 29 0f        	and	#$f
    64e5: 85 60        	sta	$60                     ; 0x60 <dmalist+0xd>
    64e7: a6 06        	ldx	$6                      ; 0x6 <__zp_data_size>
    64e9: 86 61        	stx	$61                     ; 0x61 <dmalist+0xe>
    64eb: a6 07        	ldx	$7                      ; 0x7 <__rc5>
    64ed: 86 62        	stx	$62                     ; 0x62 <dmalist+0xf>
    64ef: a5 08        	lda	$8                      ; 0x8 <__rc6>
    64f1: 29 0f        	and	#$f
    64f3: 85 63        	sta	$63                     ; 0x63 <dmalist+0x10>
    64f5: 4c 6a 64     	jmp	$646a <do_dma>

000064f8 <lfill>:
    64f8: 85 09        	sta	$9                      ; 0x9 <__rc7>
    64fa: 86 0a        	stx	$a                      ; 0xa <__rc8>
    64fc: a6 07        	ldx	$7                      ; 0x7 <__rc5>
    64fe: a4 08        	ldy	$8                      ; 0x8 <__rc6>
    6500: a9 0b        	lda	#$b
    6502: 85 53        	sta	$53                     ; 0x53 <dmalist>
    6504: a9 80        	lda	#$80
    6506: 85 54        	sta	$54                     ; 0x54 <dmalist+0x1>
    6508: 64 55        	stz	$55                     ; 0x55 <dmalist+0x2>
    650a: 1a           	inc
    650b: 85 56        	sta	$56                     ; 0x56 <dmalist+0x3>
    650d: 46 05        	lsr	$5                      ; 0x5 <__rc3>
    650f: a5 04        	lda	$4                      ; 0x4 <__rc2>
    6511: 6a           	ror
    6512: 46 05        	lsr	$5                      ; 0x5 <__rc3>
    6514: 6a           	ror
    6515: 46 05        	lsr	$5                      ; 0x5 <__rc3>
    6517: 6a           	ror
    6518: 46 05        	lsr	$5                      ; 0x5 <__rc3>
    651a: 6a           	ror
    651b: 85 57        	sta	$57                     ; 0x57 <dmalist+0x4>
    651d: a9 85        	lda	#$85
    651f: 85 58        	sta	$58                     ; 0x58 <dmalist+0x5>
    6521: a9 01        	lda	#$1
    6523: 85 59        	sta	$59                     ; 0x59 <dmalist+0x6>
    6525: 64 5a        	stz	$5a                     ; 0x5a <dmalist+0x7>
    6527: a9 03        	lda	#$3
    6529: 85 5b        	sta	$5b                     ; 0x5b <dmalist+0x8>
    652b: 64 64        	stz	$64                     ; 0x64 <dmalist+0x11>
    652d: 86 5c        	stx	$5c                     ; 0x5c <dmalist+0x9>
    652f: 84 5d        	sty	$5d                     ; 0x5d <dmalist+0xa>
    6531: a6 06        	ldx	$6                      ; 0x6 <__zp_data_size>
    6533: 86 5e        	stx	$5e                     ; 0x5e <dmalist+0xb>
    6535: 64 5f        	stz	$5f                     ; 0x5f <dmalist+0xc>
    6537: a6 09        	ldx	$9                      ; 0x9 <__rc7>
    6539: 86 61        	stx	$61                     ; 0x61 <dmalist+0xe>
    653b: a6 0a        	ldx	$a                      ; 0xa <__rc8>
    653d: 86 62        	stx	$62                     ; 0x62 <dmalist+0xf>
    653f: a5 04        	lda	$4                      ; 0x4 <__rc2>
    6541: 29 0f        	and	#$f
    6543: 85 63        	sta	$63                     ; 0x63 <dmalist+0x10>
    6545: 4c 6a 64     	jmp	$646a <do_dma>

00006548 <strcpy>:
    6548: b2 06        	lda	($6),z                  ; 0x6 <__zp_data_size>
    654a: 92 04        	sta	($4),z                  ; 0x4 <__rc2>
    654c: b2 06        	lda	($6),z                  ; 0x6 <__zp_data_size>
    654e: f0 2f        	beq	$657f <strcpy+0x37>
    6550: a0 01        	ldy	#$1
    6552: a6 04        	ldx	$4                      ; 0x4 <__rc2>
    6554: 86 08        	stx	$8                      ; 0x8 <__rc6>
    6556: a6 05        	ldx	$5                      ; 0x5 <__rc3>
    6558: 86 09        	stx	$9                      ; 0x9 <__rc7>
    655a: a6 06        	ldx	$6                      ; 0x6 <__zp_data_size>
    655c: 86 0a        	stx	$a                      ; 0xa <__rc8>
    655e: a6 07        	ldx	$7                      ; 0x7 <__rc5>
    6560: 86 0b        	stx	$b                      ; 0xb <__rc9>
    6562: e6 0a        	inc	$a                      ; 0xa <__rc8>
    6564: d0 02        	bne	$6568 <strcpy+0x20>
    6566: e6 0b        	inc	$b                      ; 0xb <__rc9>
    6568: b1 06        	lda	($6),y                  ; 0x6 <__zp_data_size>
    656a: 91 08        	sta	($8),y                  ; 0x8 <__rc6>
    656c: b1 06        	lda	($6),y                  ; 0x6 <__zp_data_size>
    656e: e6 08        	inc	$8                      ; 0x8 <__rc6>
    6570: d0 02        	bne	$6574 <strcpy+0x2c>
    6572: e6 09        	inc	$9                      ; 0x9 <__rc7>
    6574: a6 0a        	ldx	$a                      ; 0xa <__rc8>
    6576: 86 06        	stx	$6                      ; 0x6 <__zp_data_size>
    6578: a6 0b        	ldx	$b                      ; 0xb <__rc9>
    657a: 86 07        	stx	$7                      ; 0x7 <__rc5>
    657c: aa           	tax
    657d: d0 e3        	bne	$6562 <strcpy+0x1a>
    657f: 60           	rts

00006580 <strlen>:
    6580: b2 04        	lda	($4),z                  ; 0x4 <__rc2>
    6582: f0 29        	beq	$65ad <strlen+0x2d>
    6584: a9 00        	lda	#$0
    6586: a0 01        	ldy	#$1
    6588: 64 06        	stz	$6                      ; 0x6 <__zp_data_size>
    658a: aa           	tax
    658b: 64 07        	stz	$7                      ; 0x7 <__rc5>
    658d: 18           	clc
    658e: 65 04        	adc	$4                      ; 0x4 <__rc2>
    6590: 85 08        	sta	$8                      ; 0x8 <__rc6>
    6592: a5 07        	lda	$7                      ; 0x7 <__rc5>
    6594: 65 05        	adc	$5                      ; 0x5 <__rc3>
    6596: e6 06        	inc	$6                      ; 0x6 <__zp_data_size>
    6598: d0 01        	bne	$659b <strlen+0x1b>
    659a: e8           	inx
    659b: 85 09        	sta	$9                      ; 0x9 <__rc7>
    659d: b1 08        	lda	($8),y                  ; 0x8 <__rc6>
    659f: 85 08        	sta	$8                      ; 0x8 <__rc6>
    65a1: a5 06        	lda	$6                      ; 0x6 <__zp_data_size>
    65a3: 86 07        	stx	$7                      ; 0x7 <__rc5>
    65a5: e6 08        	inc	$8                      ; 0x8 <__rc6>
    65a7: c6 08        	dec	$8                      ; 0x8 <__rc6>
    65a9: d0 e2        	bne	$658d <strlen+0xd>
    65ab: 80 04        	bra	$65b1 <strlen+0x31>
    65ad: 64 06        	stz	$6                      ; 0x6 <__zp_data_size>
    65af: a2 00        	ldx	#$0
    65b1: a5 06        	lda	$6                      ; 0x6 <__zp_data_size>
    65b3: 60           	rts

000065b4 <__ashlhi3>:
    65b4: 86 05        	stx	$5                      ; 0x5 <__rc3>
    65b6: a6 04        	ldx	$4                      ; 0x4 <__rc2>
    65b8: f0 0a        	beq	$65c4 <__ashlhi3+0x10>
    65ba: a6 04        	ldx	$4                      ; 0x4 <__rc2>
    65bc: ca           	dex
    65bd: 0a           	asl
    65be: 26 05        	rol	$5                      ; 0x5 <__rc3>
    65c0: e0 00        	cpx	#$0
    65c2: d0 f8        	bne	$65bc <__ashlhi3+0x8>
    65c4: a6 05        	ldx	$5                      ; 0x5 <__rc3>
    65c6: 60           	rts

000065c7 <__mulqi3>:
    65c7: e0 00        	cpx	#$0
    65c9: f0 14        	beq	$65df <__mulqi3+0x18>
    65cb: 85 04        	sta	$4                      ; 0x4 <__rc2>
    65cd: 86 05        	stx	$5                      ; 0x5 <__rc3>
    65cf: a9 00        	lda	#$0
    65d1: 46 05        	lsr	$5                      ; 0x5 <__rc3>
    65d3: 90 03        	bcc	$65d8 <__mulqi3+0x11>
    65d5: 18           	clc
    65d6: 65 04        	adc	$4                      ; 0x4 <__rc2>
    65d8: 06 04        	asl	$4                      ; 0x4 <__rc2>
    65da: a6 05        	ldx	$5                      ; 0x5 <__rc3>
    65dc: d0 f3        	bne	$65d1 <__mulqi3+0xa>
    65de: 60           	rts
    65df: a9 00        	lda	#$0
    65e1: 60           	rts

000065e2 <__mulhi3>:
    65e2: a4 05        	ldy	$5                      ; 0x5 <__rc3>
    65e4: d0 04        	bne	$65ea <__mulhi3+0x8>
    65e6: a4 04        	ldy	$4                      ; 0x4 <__rc2>
    65e8: f0 24        	beq	$660e <__mulhi3+0x2c>
    65ea: 85 06        	sta	$6                      ; 0x6 <__zp_data_size>
    65ec: 86 07        	stx	$7                      ; 0x7 <__rc5>
    65ee: a0 00        	ldy	#$0
    65f0: 98           	tya
    65f1: 46 05        	lsr	$5                      ; 0x5 <__rc3>
    65f3: 66 04        	ror	$4                      ; 0x4 <__rc2>
    65f5: 90 09        	bcc	$6600 <__mulhi3+0x1e>
    65f7: aa           	tax
    65f8: 98           	tya
    65f9: 18           	clc
    65fa: 65 06        	adc	$6                      ; 0x6 <__zp_data_size>
    65fc: a8           	tay
    65fd: 8a           	txa
    65fe: 65 07        	adc	$7                      ; 0x7 <__rc5>
    6600: 06 06        	asl	$6                      ; 0x6 <__zp_data_size>
    6602: 26 07        	rol	$7                      ; 0x7 <__rc5>
    6604: a6 05        	ldx	$5                      ; 0x5 <__rc3>
    6606: d0 e9        	bne	$65f1 <__mulhi3+0xf>
    6608: a6 04        	ldx	$4                      ; 0x4 <__rc2>
    660a: d0 e5        	bne	$65f1 <__mulhi3+0xf>
    660c: 80 03        	bra	$6611 <__mulhi3+0x2f>
    660e: a0 00        	ldy	#$0
    6610: 98           	tya
    6611: aa           	tax
    6612: 98           	tya
    6613: 60           	rts

00006614 <__mulsi3>:
    6614: a4 09        	ldy	$9                      ; 0x9 <__rc7>
    6616: d0 0f        	bne	$6627 <__mulsi3+0x13>
    6618: a4 08        	ldy	$8                      ; 0x8 <__rc6>
    661a: d0 0b        	bne	$6627 <__mulsi3+0x13>
    661c: a4 07        	ldy	$7                      ; 0x7 <__rc5>
    661e: d0 07        	bne	$6627 <__mulsi3+0x13>
    6620: a4 06        	ldy	$6                      ; 0x6 <__zp_data_size>
    6622: d0 03        	bne	$6627 <__mulsi3+0x13>
    6624: 4c 7b 66     	jmp	$667b <__mulsi3+0x67>
    6627: 85 0a        	sta	$a                      ; 0xa <__rc8>
    6629: 86 0b        	stx	$b                      ; 0xb <__rc9>
    662b: a0 00        	ldy	#$0
    662d: a2 00        	ldx	#$0
    662f: 64 0c        	stz	$c                      ; 0xc <__rc10>
    6631: 98           	tya
    6632: 46 09        	lsr	$9                      ; 0x9 <__rc7>
    6634: 66 08        	ror	$8                      ; 0x8 <__rc6>
    6636: 66 07        	ror	$7                      ; 0x7 <__rc5>
    6638: 66 06        	ror	$6                      ; 0x6 <__zp_data_size>
    663a: 90 15        	bcc	$6651 <__mulsi3+0x3d>
    663c: 85 0d        	sta	$d                      ; 0xd <__rc11>
    663e: 98           	tya
    663f: 18           	clc
    6640: 65 0a        	adc	$a                      ; 0xa <__rc8>
    6642: a8           	tay
    6643: 8a           	txa
    6644: 65 0b        	adc	$b                      ; 0xb <__rc9>
    6646: aa           	tax
    6647: a5 0c        	lda	$c                      ; 0xc <__rc10>
    6649: 65 04        	adc	$4                      ; 0x4 <__rc2>
    664b: 85 0c        	sta	$c                      ; 0xc <__rc10>
    664d: a5 0d        	lda	$d                      ; 0xd <__rc11>
    664f: 65 05        	adc	$5                      ; 0x5 <__rc3>
    6651: 06 0a        	asl	$a                      ; 0xa <__rc8>
    6653: 26 0b        	rol	$b                      ; 0xb <__rc9>
    6655: 26 04        	rol	$4                      ; 0x4 <__rc2>
    6657: 26 05        	rol	$5                      ; 0x5 <__rc3>
    6659: e6 09        	inc	$9                      ; 0x9 <__rc7>
    665b: c6 09        	dec	$9                      ; 0x9 <__rc7>
    665d: d0 d3        	bne	$6632 <__mulsi3+0x1e>
    665f: e6 08        	inc	$8                      ; 0x8 <__rc6>
    6661: c6 08        	dec	$8                      ; 0x8 <__rc6>
    6663: d0 cd        	bne	$6632 <__mulsi3+0x1e>
    6665: e6 07        	inc	$7                      ; 0x7 <__rc5>
    6667: c6 07        	dec	$7                      ; 0x7 <__rc5>
    6669: d0 c7        	bne	$6632 <__mulsi3+0x1e>
    666b: e6 06        	inc	$6                      ; 0x6 <__zp_data_size>
    666d: c6 06        	dec	$6                      ; 0x6 <__zp_data_size>
    666f: d0 c1        	bne	$6632 <__mulsi3+0x1e>
    6671: 5a           	phy
    6672: a4 0c        	ldy	$c                      ; 0xc <__rc10>
    6674: 84 04        	sty	$4                      ; 0x4 <__rc2>
    6676: 7a           	ply
    6677: 85 05        	sta	$5                      ; 0x5 <__rc3>
    6679: 98           	tya
    667a: 60           	rts
    667b: a0 00        	ldy	#$0
    667d: a2 00        	ldx	#$0
    667f: 64 0c        	stz	$c                      ; 0xc <__rc10>
    6681: 98           	tya
    6682: 80 ed        	bra	$6671 <__mulsi3+0x5d>

00006684 <__udivmodqi4>:
    6684: a8           	tay
    6685: a9 00        	lda	#$0
    6687: e0 00        	cpx	#$0
    6689: f0 39        	beq	$66c4 <__udivmodqi4+0x40>
    668b: 86 07        	stx	$7                      ; 0x7 <__rc5>
    668d: 84 09        	sty	$9                      ; 0x9 <__rc7>
    668f: c4 07        	cpy	$7                      ; 0x7 <__rc5>
    6691: b0 03        	bcs	$6696 <__udivmodqi4+0x12>
    6693: 4c ff 66     	jmp	$66ff <__udivmodqi4+0x7b>
    6696: a5 07        	lda	$7                      ; 0x7 <__rc5>
    6698: 10 03        	bpl	$669d <__udivmodqi4+0x19>
    669a: 4c f7 66     	jmp	$66f7 <__udivmodqi4+0x73>
    669d: a0 00        	ldy	#$0
    669f: a2 00        	ldx	#$0
    66a1: a5 07        	lda	$7                      ; 0x7 <__rc5>
    66a3: 85 06        	sta	$6                      ; 0x6 <__zp_data_size>
    66a5: 06 06        	asl	$6                      ; 0x6 <__zp_data_size>
    66a7: 64 08        	stz	$8                      ; 0x8 <__rc6>
    66a9: 26 08        	rol	$8                      ; 0x8 <__rc6>
    66ab: c4 08        	cpy	$8                      ; 0x8 <__rc6>
    66ad: d0 08        	bne	$66b7 <__udivmodqi4+0x33>
    66af: a5 09        	lda	$9                      ; 0x9 <__rc7>
    66b1: c5 06        	cmp	$6                      ; 0x6 <__zp_data_size>
    66b3: 90 13        	bcc	$66c8 <__udivmodqi4+0x44>
    66b5: 80 04        	bra	$66bb <__udivmodqi4+0x37>
    66b7: c4 08        	cpy	$8                      ; 0x8 <__rc6>
    66b9: 90 0d        	bcc	$66c8 <__udivmodqi4+0x44>
    66bb: e8           	inx
    66bc: a5 06        	lda	$6                      ; 0x6 <__zp_data_size>
    66be: 85 07        	sta	$7                      ; 0x7 <__rc5>
    66c0: 10 e3        	bpl	$66a5 <__udivmodqi4+0x21>
    66c2: 80 08        	bra	$66cc <__udivmodqi4+0x48>
    66c4: 84 09        	sty	$9                      ; 0x9 <__rc7>
    66c6: 80 37        	bra	$66ff <__udivmodqi4+0x7b>
    66c8: a4 07        	ldy	$7                      ; 0x7 <__rc5>
    66ca: 84 06        	sty	$6                      ; 0x6 <__zp_data_size>
    66cc: 38           	sec
    66cd: a5 09        	lda	$9                      ; 0x9 <__rc7>
    66cf: e5 06        	sbc	$6                      ; 0x6 <__zp_data_size>
    66d1: 85 09        	sta	$9                      ; 0x9 <__rc7>
    66d3: 8a           	txa
    66d4: f0 27        	beq	$66fd <__udivmodqi4+0x79>
    66d6: a9 01        	lda	#$1
    66d8: 46 06        	lsr	$6                      ; 0x6 <__zp_data_size>
    66da: 0a           	asl
    66db: a8           	tay
    66dc: a5 09        	lda	$9                      ; 0x9 <__rc7>
    66de: c5 06        	cmp	$6                      ; 0x6 <__zp_data_size>
    66e0: 90 0d        	bcc	$66ef <__udivmodqi4+0x6b>
    66e2: 85 07        	sta	$7                      ; 0x7 <__rc5>
    66e4: 98           	tya
    66e5: 09 01        	ora	#$1
    66e7: a8           	tay
    66e8: 38           	sec
    66e9: a5 07        	lda	$7                      ; 0x7 <__rc5>
    66eb: e5 06        	sbc	$6                      ; 0x6 <__zp_data_size>
    66ed: 85 09        	sta	$9                      ; 0x9 <__rc7>
    66ef: ca           	dex
    66f0: 98           	tya
    66f1: e0 00        	cpx	#$0
    66f3: d0 e3        	bne	$66d8 <__udivmodqi4+0x54>
    66f5: 80 08        	bra	$66ff <__udivmodqi4+0x7b>
    66f7: 38           	sec
    66f8: 98           	tya
    66f9: e5 07        	sbc	$7                      ; 0x7 <__rc5>
    66fb: 85 09        	sta	$9                      ; 0x9 <__rc7>
    66fd: a9 01        	lda	#$1
    66ff: aa           	tax
    6700: a5 09        	lda	$9                      ; 0x9 <__rc7>
    6702: 92 04        	sta	($4),z                  ; 0x4 <__rc2>
    6704: 8a           	txa
    6705: 60           	rts

00006706 <__udivmodhi4>:
    6706: 85 0b        	sta	$b                      ; 0xb <__rc9>
    6708: 8a           	txa
    6709: 64 08        	stz	$8                      ; 0x8 <__rc6>
    670b: a6 05        	ldx	$5                      ; 0x5 <__rc3>
    670d: d0 04        	bne	$6713 <__udivmodhi4+0xd>
    670f: a6 04        	ldx	$4                      ; 0x4 <__rc2>
    6711: f0 0a        	beq	$671d <__udivmodhi4+0x17>
    6713: c5 05        	cmp	$5                      ; 0x5 <__rc3>
    6715: d0 0b        	bne	$6722 <__udivmodhi4+0x1c>
    6717: a6 0b        	ldx	$b                      ; 0xb <__rc9>
    6719: e4 04        	cpx	$4                      ; 0x4 <__rc2>
    671b: b0 09        	bcs	$6726 <__udivmodhi4+0x20>
    671d: a2 00        	ldx	#$0
    671f: 4c cf 67     	jmp	$67cf <__udivmodhi4+0xc9>
    6722: c5 05        	cmp	$5                      ; 0x5 <__rc3>
    6724: 90 f7        	bcc	$671d <__udivmodhi4+0x17>
    6726: a8           	tay
    6727: a6 05        	ldx	$5                      ; 0x5 <__rc3>
    6729: 10 03        	bpl	$672e <__udivmodhi4+0x28>
    672b: 4c c3 67     	jmp	$67c3 <__udivmodhi4+0xbd>
    672e: a2 00        	ldx	#$0
    6730: 5a           	phy
    6731: a4 04        	ldy	$4                      ; 0x4 <__rc2>
    6733: 84 09        	sty	$9                      ; 0x9 <__rc7>
    6735: a4 05        	ldy	$5                      ; 0x5 <__rc3>
    6737: 84 0a        	sty	$a                      ; 0xa <__rc8>
    6739: 7a           	ply
    673a: 06 09        	asl	$9                      ; 0x9 <__rc7>
    673c: 26 0a        	rol	$a                      ; 0xa <__rc8>
    673e: c5 0a        	cmp	$a                      ; 0xa <__rc8>
    6740: d0 09        	bne	$674b <__udivmodhi4+0x45>
    6742: a5 0b        	lda	$b                      ; 0xb <__rc9>
    6744: c5 09        	cmp	$9                      ; 0x9 <__rc7>
    6746: 98           	tya
    6747: b0 06        	bcs	$674f <__udivmodhi4+0x49>
    6749: 80 17        	bra	$6762 <__udivmodhi4+0x5c>
    674b: c5 0a        	cmp	$a                      ; 0xa <__rc8>
    674d: 90 13        	bcc	$6762 <__udivmodhi4+0x5c>
    674f: e8           	inx
    6750: 5a           	phy
    6751: a4 09        	ldy	$9                      ; 0x9 <__rc7>
    6753: 84 04        	sty	$4                      ; 0x4 <__rc2>
    6755: a4 0a        	ldy	$a                      ; 0xa <__rc8>
    6757: 84 05        	sty	$5                      ; 0x5 <__rc3>
    6759: 7a           	ply
    675a: e6 0a        	inc	$a                      ; 0xa <__rc8>
    675c: c6 0a        	dec	$a                      ; 0xa <__rc8>
    675e: 10 da        	bpl	$673a <__udivmodhi4+0x34>
    6760: 80 08        	bra	$676a <__udivmodhi4+0x64>
    6762: a5 04        	lda	$4                      ; 0x4 <__rc2>
    6764: 85 09        	sta	$9                      ; 0x9 <__rc7>
    6766: a5 05        	lda	$5                      ; 0x5 <__rc3>
    6768: 85 0a        	sta	$a                      ; 0xa <__rc8>
    676a: 38           	sec
    676b: a5 0b        	lda	$b                      ; 0xb <__rc9>
    676d: e5 09        	sbc	$9                      ; 0x9 <__rc7>
    676f: 85 0b        	sta	$b                      ; 0xb <__rc9>
    6771: 98           	tya
    6772: e5 0a        	sbc	$a                      ; 0xa <__rc8>
    6774: e0 00        	cpx	#$0
    6776: d0 03        	bne	$677b <__udivmodhi4+0x75>
    6778: 4c cd 67     	jmp	$67cd <__udivmodhi4+0xc7>
    677b: 64 08        	stz	$8                      ; 0x8 <__rc6>
    677d: a0 01        	ldy	#$1
    677f: 84 8f        	sty	$8f                     ; 0x8f <__zp_bss_size+0x50>
    6781: 46 0a        	lsr	$a                      ; 0xa <__rc8>
    6783: 66 09        	ror	$9                      ; 0x9 <__rc7>
    6785: a4 8f        	ldy	$8f                     ; 0x8f <__zp_bss_size+0x50>
    6787: 84 04        	sty	$4                      ; 0x4 <__rc2>
    6789: 06 04        	asl	$4                      ; 0x4 <__rc2>
    678b: a0 01        	ldy	#$1
    678d: b0 02        	bcs	$6791 <__udivmodhi4+0x8b>
    678f: a0 00        	ldy	#$0
    6791: 84 05        	sty	$5                      ; 0x5 <__rc3>
    6793: a4 04        	ldy	$4                      ; 0x4 <__rc2>
    6795: 84 8f        	sty	$8f                     ; 0x8f <__zp_bss_size+0x50>
    6797: c5 0a        	cmp	$a                      ; 0xa <__rc8>
    6799: d0 22        	bne	$67bd <__udivmodhi4+0xb7>
    679b: a4 0b        	ldy	$b                      ; 0xb <__rc9>
    679d: c4 09        	cpy	$9                      ; 0x9 <__rc7>
    679f: 90 11        	bcc	$67b2 <__udivmodhi4+0xac>
    67a1: a8           	tay
    67a2: a5 8f        	lda	$8f                     ; 0x8f <__zp_bss_size+0x50>
    67a4: 09 01        	ora	#$1
    67a6: 85 8f        	sta	$8f                     ; 0x8f <__zp_bss_size+0x50>
    67a8: 38           	sec
    67a9: a5 0b        	lda	$b                      ; 0xb <__rc9>
    67ab: e5 09        	sbc	$9                      ; 0x9 <__rc7>
    67ad: 85 0b        	sta	$b                      ; 0xb <__rc9>
    67af: 98           	tya
    67b0: e5 0a        	sbc	$a                      ; 0xa <__rc8>
    67b2: a4 05        	ldy	$5                      ; 0x5 <__rc3>
    67b4: c0 01        	cpy	#$1
    67b6: 26 08        	rol	$8                      ; 0x8 <__rc6>
    67b8: ca           	dex
    67b9: d0 c6        	bne	$6781 <__udivmodhi4+0x7b>
    67bb: 80 14        	bra	$67d1 <__udivmodhi4+0xcb>
    67bd: c5 0a        	cmp	$a                      ; 0xa <__rc8>
    67bf: b0 e0        	bcs	$67a1 <__udivmodhi4+0x9b>
    67c1: 80 ef        	bra	$67b2 <__udivmodhi4+0xac>
    67c3: 38           	sec
    67c4: a5 0b        	lda	$b                      ; 0xb <__rc9>
    67c6: e5 04        	sbc	$4                      ; 0x4 <__rc2>
    67c8: 85 0b        	sta	$b                      ; 0xb <__rc9>
    67ca: 98           	tya
    67cb: e5 05        	sbc	$5                      ; 0x5 <__rc3>
    67cd: a2 01        	ldx	#$1
    67cf: 86 8f        	stx	$8f                     ; 0x8f <__zp_bss_size+0x50>
    67d1: aa           	tax
    67d2: a5 0b        	lda	$b                      ; 0xb <__rc9>
    67d4: 92 06        	sta	($6),z                  ; 0x6 <__zp_data_size>
    67d6: a0 01        	ldy	#$1
    67d8: 8a           	txa
    67d9: 91 06        	sta	($6),y                  ; 0x6 <__zp_data_size>
    67db: a6 08        	ldx	$8                      ; 0x8 <__rc6>
    67dd: a5 8f        	lda	$8f                     ; 0x8f <__zp_bss_size+0x50>
    67df: 60           	rts

000067e0 <memcpy>:
    67e0: a8           	tay
    67e1: 8a           	txa
    67e2: d0 03        	bne	$67e7 <memcpy+0x7>
    67e4: 98           	tya
    67e5: f0 25        	beq	$680c <memcpy+0x2c>
    67e7: a5 04        	lda	$4                      ; 0x4 <__rc2>
    67e9: 85 08        	sta	$8                      ; 0x8 <__rc6>
    67eb: a5 05        	lda	$5                      ; 0x5 <__rc3>
    67ed: 85 09        	sta	$9                      ; 0x9 <__rc7>
    67ef: b2 06        	lda	($6),z                  ; 0x6 <__zp_data_size>
    67f1: 92 08        	sta	($8),z                  ; 0x8 <__rc6>
    67f3: e6 08        	inc	$8                      ; 0x8 <__rc6>
    67f5: d0 02        	bne	$67f9 <memcpy+0x19>
    67f7: e6 09        	inc	$9                      ; 0x9 <__rc7>
    67f9: e6 06        	inc	$6                      ; 0x6 <__zp_data_size>
    67fb: d0 02        	bne	$67ff <memcpy+0x1f>
    67fd: e6 07        	inc	$7                      ; 0x7 <__rc5>
    67ff: 98           	tya
    6800: 88           	dey
    6801: c9 00        	cmp	#$0
    6803: d0 01        	bne	$6806 <memcpy+0x26>
    6805: ca           	dex
    6806: 8a           	txa
    6807: d0 e6        	bne	$67ef <memcpy+0xf>
    6809: 98           	tya
    680a: d0 e3        	bne	$67ef <memcpy+0xf>
    680c: 60           	rts

0000680d <__memset>:
    680d: 80 0f        	bra	$681e <__memset+0x11>
    680f: 92 04        	sta	($4),z                  ; 0x4 <__rc2>
    6811: e6 04        	inc	$4                      ; 0x4 <__rc2>
    6813: d0 02        	bne	$6817 <__memset+0xa>
    6815: e6 05        	inc	$5                      ; 0x5 <__rc3>
    6817: da           	phx
    6818: 7a           	ply
    6819: ca           	dex
    681a: c0 00        	cpy	#$0
    681c: f0 09        	beq	$6827 <__memset+0x1a>
    681e: a4 06        	ldy	$6                      ; 0x6 <__zp_data_size>
    6820: d0 ed        	bne	$680f <__memset+0x2>
    6822: e0 00        	cpx	#$0
    6824: d0 e9        	bne	$680f <__memset+0x2>
    6826: 60           	rts
    6827: c6 06        	dec	$6                      ; 0x6 <__zp_data_size>
    6829: 4c 1e 68     	jmp	$681e <__memset+0x11>
