
midnightmega.prg.elf:	file format elf32-mos

SYMBOL TABLE:
00002056 l       .text	00000000 fourbytes
0000205a l       .text	00000000 lpstore
00002075 l       .text	00000000 lprestore
00002015 l       .basic_header	00000000 next_line
0000fff0 l       *ABS*	00000000 PLOT
00000000 l    df *ABS*	00000000 zero-bss.c
00000000 l    df *ABS*	00000000 zero-zp-bss.c
00000000 l    df *ABS*	00000000 copy-zp-data.c
00000000 l    df *ABS*	00000000 ld-temp.o
0000d640 l       *ABS*	00000000 HTRAP00
0000d67f l       *ABS*	00000000 HTRAP3F
00002040 l       .text	00000000 shift
00000030 l     O .zp.bss	00000001 g_curScreenW
00000031 l     O .zp.bss	00000001 g_curScreenH
0000793f l     F .text	0000000b flushkeybuf
0000002b l     O .zp.data	00000001 g_curTextColor
00003a7d l     F .text	0000005e clrhome
00004d46 l     F .text	000028d6 navi
00003adb l     F .text	0000000e msprintf
00007c7e l     F .text	0000005c usleep
0000219e l     F .text	00000032 hyppo_setname
00008dbf l     O .bss	00000001 fnamehi.2
00007db8 l     F .text	0000003e strcpy
000021ca l       .text	00000000 errhypsetnam0
000021ce l       .text	00000000 donehypsetnam0
000021d0 l     F .text	00000063 getsfn
00002233 l     F .text	00000166 ShowAccess
00007e50 l     F .text	00000032 __mulhi3
00007c2e l     F .text	00000050 lfill
00007f88 l     F .text	00000070 __udivmodqi4
00000033 l     O .zp.bss	00000001 g_curY
00000032 l     O .zp.bss	00000001 g_curX
0000002f l     O .zp.bss	00000001 option.0
00003b14 l     F .text	00000016 mcputsxy
00003966 l     F .text	000000c6 csputdec
00007961 l     F .text	00000009 cputc
00002399 l     F .text	000000d2 ReadSector
0000002c l     O .zp.bss	00000001 lastdrive
0000002d l     O .zp.bss	00000001 prevtrack
0000002e l     O .zp.bss	00000001 lastdoublesector
00007f43 l     F .text	00000045 __umodqi3
0000246b l     F .text	0000009f WriteSector
0000250a l     F .text	00000043 GetOneSector
00007bc7 l     F .text	00000067 lcopy
0000254d l     F .text	00000084 PutWholeSector
000025d1 l     F .text	00000051 PutOneSector
00002622 l     F .text	00000039 GetBAM
0000265b l     F .text	00000060 PutBAM
000026bb l     F .text	0000009a readblockchain
00002755 l     F .text	00000302 BAMSectorUpdate
00007e3d l     F .text	00000013 __ashlhi3
00002a57 l     F .text	00000098 BAMSectorsFreeBlocks
00002aef l     F .text	0000012c FreeTracks
00002c1b l     F .text	000001fd FormatPartition
00003e5d l     F .text	000000b0 progress
0000391f l     F .text	00000016 strcopy
00002e18 l     F .text	000001a0 isallocatedBAMtracksector
00008d57 l     O .rodata	00000004 BAMsector
00002fb8 l     F .text	0000015e findnextBAMtracksector
00003116 l     F .text	0000008c tracksectorstring
00008de0 l     O .bss	00000050 s
000031a2 l     F .text	000000e2 getdirententry
00003284 l     F .text	0000039c writenewdirententry
00003620 l     F .text	000002ff deletedirententry
00007e82 l     F .text	000000c1 __udivhi3
00003935 l     F .text	00000031 strmakefilename
000080d4 l     F .text	000001ba __udivmodsi4
00007a0b l     F .text	00000007 cputs
00003a2c l     F .text	00000051 asciitoscreencode_s
00003ae9 l     F .text	0000002b mprintf
00007a12 l     F .text	000000db cputsxy
00003b2a l     F .text	0000018b mcbox
00007aed l     F .text	000000aa fillrect
0000796a l     F .text	000000a1 cputcxy
00003cb5 l     F .text	000001a8 messagebox
00008daf l     O .rodata	00000010 hexDigits
00007b97 l     F .text	00000009 cgetc
00003f0d l     F .text	0000010a inputbox
00004017 l     F .text	00000041 shortcutprint
00004058 l     F .text	000004ad shortcuts
00000027 l     O .zp.data	00000004 midnight
00004505 l     F .text	0000009f optionstring
000045a4 l     F .text	000005f8 UpdateSectors
00004685 l       .text	00000000 errgetproc1
00004689 l       .text	00000000 donegetproc1
00008f10 l     O .bss	00000022 disknames
000047b9 l       .text	00000000 errgetcurdrv2
000047bd l       .text	00000000 donegetcurdrv2
000047d6 l       .text	00000000 errhypopendir3
000047da l       .text	00000000 donehypopendir3
00004882 l       .text	00000000 hypreaddirloop4
0000489a l       .text	00000000 errhypreaddir4
0000489c l       .text	00000000 donehypreaddir4
00008dc0 l     O .bss	00000020 direntryblock2
00004b18 l       .text	00000000 errhypclosedir5
00004b1a l       .text	00000000 donehypclosedir5
00004b9c l     F .text	00000046 Deselect
00008e30 l     O .bss	000000e0 direntflags
00004be2 l     F .text	00000164 sizeselectcurrentifnone
00008f32 l     O .bss	00000001 legacyHDOSstate
0000794a l     F .text	00000017 petsciitoscreencode
00007690 l     F .text	00000269 text
000078f9 l     F .text	00000046 sidbong
00007e32 l     F .text	0000000b __ashlqi3
00008f33 l     O .bss	00000040 lfnname
000062eb l       .text	00000000 errhypfindfirst6
000062ed l       .text	00000000 donehypfindfirst6
00007cdf l     F .text	000000d9 atoi
000067a5 l       .text	00000000 errhyprmfile7
000067a9 l       .text	00000000 donehyprmfile7
000067b9 l       .text	00000000 errhypclosedir8
000067bb l       .text	00000000 donehypclosedir8
0000686b l       .text	00000000 errhypd81dosattach9
0000686f l       .text	00000000 donehypd81dosattach9
00006a29 l       .text	00000000 errhypfindfirst10
00006a2b l       .text	00000000 donehypfindfirst10
00006a4a l       .text	00000000 errhypopenfile11
00006a4c l       .text	00000000 donehypopenfile11
00006a76 l       .text	00000000 errhypreadfile12
00006a7a l       .text	00000000 donehypreadfile12
00006a99 l       .text	00000000 errhypclosefile13
00006a9d l       .text	00000000 donehypclosefile13
00006b71 l       .text	00000000 errhypfindfirst14
00006b73 l       .text	00000000 donehypfindfirst14
00006c49 l       .text	00000000 errhypchdir15
00006c4d l       .text	00000000 donehypchdir15
00006c94 l       .text	00000000 errhyprmfile16
00006c98 l       .text	00000000 donehyprmfile16
00006ca8 l       .text	00000000 errhypclosedir17
00006caa l       .text	00000000 donehypclosedir17
00006d0b l       .text	00000000 errhypchdir18
00006d0f l       .text	00000000 donehypchdir18
00006f98 l       .text	00000000 errhyp1att19
00006f9c l       .text	00000000 donehyp1att19
00006fb9 l       .text	00000000 errhyp0att20
00006fbd l       .text	00000000 donehyp0att20
00007170 l       .text	00000000 errhypd81dosattach21
00007174 l       .text	00000000 donehypd81dosattach21
000072cc l       .text	00000000 errhypd81dosattach22
000072d0 l       .text	00000000 donehypd81dosattach22
0000761c l     F .text	00000074 blockreadbyte
00007df6 l     F .text	0000003c strlen
00007ff8 l     F .text	000000dc __udivmodhi4
00007ba0 l     F .text	00000027 do_dma
00000034 l     O .zp.bss	00000014 dmalist
0000210c g     F .text	00000092 main
00002090 g       .text	00000000 lpoke
000020b1 g       .text	00000000 lpeek
00000007 g       *ABS*	00000000 __rc5
00000008 g       *ABS*	00000000 __rc6
00000009 g       *ABS*	00000000 __rc7
0000000a g       *ABS*	00000000 __rc8
00000004 g       *ABS*	00000000 __rc2
00000005 g       *ABS*	00000000 __rc3
00000006 g       *ABS*	00000000 __rc4
00002048 g       .text	00000000 __after_main
0000203d g       .text	00000000 __do_copy_zp_data
000020f5 g     F .text	00000017 __copy_zp_data
00002037 g       .text	00000000 __do_zero_bss
000020cf g     F .text	00000013 __zero_bss
0000203a g       .text	00000000 __do_zero_zp_bss
000020e2 g     F .text	00000013 __zero_zp_bss
0000202f g       .text	00000000 __do_init_stack
00007cda g     F .text	00000005 exit
0000204b g       .text	00000000 _fini
0000ff81  w      *ABS*	00000000 CINT
0000ff84  w      *ABS*	00000000 IOINIT
0000ff87  w      *ABS*	00000000 RAMTAS
0000ff8a  w      *ABS*	00000000 RESTOR
0000ff8d  w      *ABS*	00000000 VECTOR
0000ff90  w      *ABS*	00000000 SETMSG
0000ff93  w      *ABS*	00000000 SECOND
0000ff96  w      *ABS*	00000000 TKSA
0000ff99  w      *ABS*	00000000 MEMTOP
0000ff9c  w      *ABS*	00000000 MEMBOT
0000ff9f  w      *ABS*	00000000 SCNKEY
0000ffa2  w      *ABS*	00000000 SETTMO
0000ffa5  w      *ABS*	00000000 ACPTR
0000ffa8  w      *ABS*	00000000 CIOUT
0000ffab  w      *ABS*	00000000 UNTLK
0000ffae  w      *ABS*	00000000 UNLSN
0000ffb1  w      *ABS*	00000000 LISTEN
0000ffb4  w      *ABS*	00000000 TALK
0000ffb7  w      *ABS*	00000000 READST
0000ffba  w      *ABS*	00000000 SETLFS
0000ffbd  w      *ABS*	00000000 SETNAM
0000ffc0  w      *ABS*	00000000 OPEN
0000ffc3  w      *ABS*	00000000 CLOSE
0000ffc6  w      *ABS*	00000000 CHKIN
0000ffc9  w      *ABS*	00000000 CKOUT
0000ffc9  w      *ABS*	00000000 CHKOUT
0000ffcc  w      *ABS*	00000000 CLRCH
0000ffcc  w      *ABS*	00000000 CLRCHN
0000ffcf  w      *ABS*	00000000 BASIN
0000ffcf  w      *ABS*	00000000 CHRIN
0000ffd2  w      *ABS*	00000000 BSOUT
0000ffd2  w      *ABS*	00000000 CHROUT
0000ffd5  w      *ABS*	00000000 LOAD
0000ffd8  w      *ABS*	00000000 SAVE
0000ffdb  w      *ABS*	00000000 SETTIM
0000ffde  w      *ABS*	00000000 RDTIM
0000ffe1  w      *ABS*	00000000 STOP
0000ffe4  w      *ABS*	00000000 GETIN
0000ffe7  w      *ABS*	00000000 CLALL
0000ffea  w      *ABS*	00000000 UDTIM
0000ffed  w      *ABS*	00000000 SCREEN
0000fff3  w      *ABS*	00000000 IOBASE
0000ffc6 g       *ABS*	00000000 __CHKIN
0000ffc9 g       *ABS*	00000000 __CKOUT
0000ffc9 g       *ABS*	00000000 __CHKOUT
0000ffcc g       *ABS*	00000000 __CLRCH
0000ffcc g       *ABS*	00000000 __CLRCHN
0000ffcf g       *ABS*	00000000 __BASIN
0000ffcf g       *ABS*	00000000 __CHRIN
0000ffd2 g       *ABS*	00000000 __BSOUT
0000ffd2 g       *ABS*	00000000 __CHROUT
0000ffe1 g       *ABS*	00000000 __STOP
0000ffe4 g       *ABS*	00000000 __GETIN
0000ffe7 g       *ABS*	00000000 __CLALL
0000ffea g       *ABS*	00000000 __UDTIM
0000ff81 g       *ABS*	00000000 __CINT
0000ff84 g       *ABS*	00000000 __IOINIT
0000ff87 g       *ABS*	00000000 __RAMTAS
0000ff8a g       *ABS*	00000000 __RESTOR
0000ff8d g       *ABS*	00000000 __VECTOR
0000ff90 g       *ABS*	00000000 __SETMSG
0000ff93 g       *ABS*	00000000 __SECOND
0000ff96 g       *ABS*	00000000 __TKSA
0000ff99 g       *ABS*	00000000 __MEMTOP
0000ff9c g       *ABS*	00000000 __MEMBOT
0000ff9f g       *ABS*	00000000 __SCNKEY
0000ffa2 g       *ABS*	00000000 __SETTMO
0000ffa5 g       *ABS*	00000000 __ACPTR
0000ffa8 g       *ABS*	00000000 __CIOUT
0000ffab g       *ABS*	00000000 __UNTLK
0000ffae g       *ABS*	00000000 __UNLSN
0000ffb1 g       *ABS*	00000000 __LISTEN
0000ffb4 g       *ABS*	00000000 __TALK
0000ffb7 g       *ABS*	00000000 __READST
0000ffba g       *ABS*	00000000 __SETLFS
0000ffbd g       *ABS*	00000000 __SETNAM
0000ffc0 g       *ABS*	00000000 __OPEN
0000ffc3 g       *ABS*	00000000 __CLOSE
0000ffd5 g       *ABS*	00000000 __LOAD
0000ffd8 g       *ABS*	00000000 __SAVE
0000ffdb g       *ABS*	00000000 __SETTIM
0000ffde g       *ABS*	00000000 __RDTIM
0000ffed g       *ABS*	00000000 __SCREEN
0000fff3 g       *ABS*	00000000 __IOBASE
00001000  w      *ABS*	00000000 __heap_default_limit
0000828e  w    F .text	0000002c memcpy
000082ba  w    F .text	00000020 __memset
00002021 g       .text	00000000 _start
00000002 g       *ABS*	00000000 __basic_zp_start
00000002 g       *ABS*	00000000 __rc0
0000000c g       *ABS*	00000000 __rc10
0000000e g       *ABS*	00000000 __rc12
00000010 g       *ABS*	00000000 __rc14
00000012 g       *ABS*	00000000 __rc16
00000014 g       *ABS*	00000000 __rc18
00000016 g       *ABS*	00000000 __rc20
00000018 g       *ABS*	00000000 __rc22
0000001a g       *ABS*	00000000 __rc24
0000001c g       *ABS*	00000000 __rc26
0000001e g       *ABS*	00000000 __rc28
00000020 g       *ABS*	00000000 __rc30
00000021 g       *ABS*	00000000 __rc31
00000090 g       *ABS*	00000000 __basic_zp_end
0000001f g       *ABS*	00000000 __rc29
0000001d g       *ABS*	00000000 __rc27
0000001b g       *ABS*	00000000 __rc25
00000019 g       *ABS*	00000000 __rc23
00000017 g       *ABS*	00000000 __rc21
00000015 g       *ABS*	00000000 __rc19
00000013 g       *ABS*	00000000 __rc17
00000011 g       *ABS*	00000000 __rc15
0000000f g       *ABS*	00000000 __rc13
0000000d g       *ABS*	00000000 __rc11
0000000b g       *ABS*	00000000 __rc9
00000003 g       *ABS*	00000000 __rc1
00008f7c g       .noinit	00000000 __heap_start
00000022 g       .zp.data	00000000 __zp_data_start
00002017 g       *ABS*	00000000 __zp_data_load_start
0000000a g       *ABS*	00000000 __zp_data_size
0000002c g       .zp.bss	00000000 __zp_bss_start
0000001c g       *ABS*	00000000 __zp_bss_size
00002021 g       .text	00000000 _init
000082da g       .text	00000000 __init_array_start
000082da g       .text	00000000 __init_array_end
000082da g       .text	00000000 __fini_array_start
000082da g       .text	00000000 __fini_array_end
00008dbf g       .data	00000000 __data_start
00008dbf g       .data	00000000 __data_end
00008dbf g       *ABS*	00000000 __data_load_start
00000000 g       *ABS*	00000000 __data_size
00008dbf g       .bss	00000000 __bss_start
00008f73 g       .bss	00000000 __bss_end
000001b4 g       *ABS*	00000000 __bss_size
0000d000 g       *ABS*	00000000 __stack

Disassembly of section .text:

00002021 <_start>:
    2021: 78           	sei
    2022: a2 2f        	ldx	#$2f
    2024: 86 00        	stx	$0                      ; 0x2000 <__heap_default_limit+0x1000>
    2026: a2 3e        	ldx	#$3e
    2028: 86 01        	stx	$1                      ; 0x2001 <__heap_default_limit+0x1001>
    202a: a2 44        	ldx	#$44
    202c: 8e 30 d0     	stx	$d030                   ; 0xd030 <__heap_start+0x40b4>

0000202f <__do_init_stack>:
    202f: a9 00        	lda	#$0
    2031: 85 02        	sta	$2                      ; 0x2002 <__heap_default_limit+0x1002>
    2033: a9 d0        	lda	#$d0
    2035: 85 03        	sta	$3                      ; 0x2003 <__heap_default_limit+0x1003>

00002037 <__do_zero_bss>:
    2037: 20 cf 20     	jsr	$20cf <__zero_bss>

0000203a <__do_zero_zp_bss>:
    203a: 20 e2 20     	jsr	$20e2 <__zero_zp_bss>

0000203d <__do_copy_zp_data>:
    203d: 20 f5 20     	jsr	$20f5 <__copy_zp_data>

00002040 <shift>:
    2040: a9 0e        	lda	#$e
    2042: 20 d2 ff     	jsr	$ffd2 <__heap_start+0x7056>
    2045: 20 0c 21     	jsr	$210c <main>

00002048 <__after_main>:
    2048: 4c da 7c     	jmp	$7cda <exit>

0000204b <_fini>:
    204b: a2 3f        	ldx	#$3f
    204d: 86 01        	stx	$1                      ; 0x2001 <__heap_default_limit+0x1001>
    204f: a2 64        	ldx	#$64
    2051: 8e 30 d0     	stx	$d030                   ; 0xd030 <__heap_start+0x40b4>
    2054: 58           	cli
    2055: 60           	rts

00002056 <fourbytes>:
    2056: 00           	brk
    2057: 00           	brk
    2058: 00           	brk
    2059: 00           	brk

0000205a <lpstore>:
    205a: 48           	pha
    205b: ad 07 00     	lda	$7                      ; 0x7 <__rc5>
    205e: 8d 56 20     	sta	$2056                   ; 0x2056 <fourbytes>
    2061: ad 08 00     	lda	$8                      ; 0x8 <__rc6>
    2064: 8d 57 20     	sta	$2057                   ; 0x2057 <fourbytes+0x1>
    2067: ad 09 00     	lda	$9                      ; 0x9 <__rc7>
    206a: 8d 58 20     	sta	$2058                   ; 0x2058 <fourbytes+0x2>
    206d: ad 0a 00     	lda	$a                      ; 0xa <__zp_data_size>
    2070: 8d 59 20     	sta	$2059                   ; 0x2059 <fourbytes+0x3>
    2073: 68           	pla
    2074: 60           	rts

00002075 <lprestore>:
    2075: 48           	pha
    2076: ad 56 20     	lda	$2056                   ; 0x2056 <fourbytes>
    2079: 8d 07 00     	sta	$7                      ; 0x7 <__rc5>
    207c: ad 57 20     	lda	$2057                   ; 0x2057 <fourbytes+0x1>
    207f: 8d 08 00     	sta	$8                      ; 0x8 <__rc6>
    2082: ad 58 20     	lda	$2058                   ; 0x2058 <fourbytes+0x2>
    2085: 8d 09 00     	sta	$9                      ; 0x9 <__rc7>
    2088: ad 59 20     	lda	$2059                   ; 0x2059 <fourbytes+0x3>
    208b: 8d 0a 00     	sta	$a                      ; 0xa <__zp_data_size>
    208e: 68           	pla
    208f: 60           	rts

00002090 <lpoke>:
    2090: 20 5a 20     	jsr	$205a <lpstore>
    2093: 8d 07 00     	sta	$7                      ; 0x7 <__rc5>
    2096: 8e 08 00     	stx	$8                      ; 0x8 <__rc6>
    2099: ad 04 00     	lda	$4                      ; 0x4 <__rc2>
    209c: 8d 09 00     	sta	$9                      ; 0x9 <__rc7>
    209f: ad 05 00     	lda	$5                      ; 0x5 <__rc3>
    20a2: 8d 0a 00     	sta	$a                      ; 0xa <__zp_data_size>
    20a5: ad 06 00     	lda	$6                      ; 0x6 <__rc4>
    20a8: a3 00        	ldz	#$0
    20aa: ea 92 07     	sta	[$7],z                  ; 0x2007 <__heap_default_limit+0x1007>
    20ad: 20 75 20     	jsr	$2075 <lprestore>
    20b0: 60           	rts

000020b1 <lpeek>:
    20b1: 20 5a 20     	jsr	$205a <lpstore>
    20b4: 8d 06 00     	sta	$6                      ; 0x6 <__rc4>
    20b7: 8e 07 00     	stx	$7                      ; 0x7 <__rc5>
    20ba: ad 04 00     	lda	$4                      ; 0x4 <__rc2>
    20bd: 8d 08 00     	sta	$8                      ; 0x8 <__rc6>
    20c0: ad 05 00     	lda	$5                      ; 0x5 <__rc3>
    20c3: 8d 09 00     	sta	$9                      ; 0x9 <__rc7>
    20c6: a3 00        	ldz	#$0
    20c8: ea b2 06     	lda	[$6],z                  ; 0x2006 <__heap_default_limit+0x1006>
    20cb: 20 75 20     	jsr	$2075 <lprestore>
    20ce: 60           	rts

000020cf <__zero_bss>:
    20cf: a2 b4        	ldx	#$b4
    20d1: a0 01        	ldy	#$1
    20d3: a9 bf        	lda	#$bf
    20d5: 85 04        	sta	$4                      ; 0x2004 <__heap_default_limit+0x1004>
    20d7: a9 8d        	lda	#$8d
    20d9: 85 05        	sta	$5                      ; 0x2005 <__heap_default_limit+0x1005>
    20db: a9 00        	lda	#$0
    20dd: 84 06        	sty	$6                      ; 0x2006 <__heap_default_limit+0x1006>
    20df: 4c ba 82     	jmp	$82ba <__memset>

000020e2 <__zero_zp_bss>:
    20e2: a2 1c        	ldx	#$1c
    20e4: a0 00        	ldy	#$0
    20e6: a9 2c        	lda	#$2c
    20e8: 85 04        	sta	$4                      ; 0x2004 <__heap_default_limit+0x1004>
    20ea: a9 00        	lda	#$0
    20ec: 85 05        	sta	$5                      ; 0x2005 <__heap_default_limit+0x1005>
    20ee: a9 00        	lda	#$0
    20f0: 84 06        	sty	$6                      ; 0x2006 <__heap_default_limit+0x1006>
    20f2: 4c ba 82     	jmp	$82ba <__memset>

000020f5 <__copy_zp_data>:
    20f5: a9 0a        	lda	#$a
    20f7: a2 00        	ldx	#$0
    20f9: a0 22        	ldy	#$22
    20fb: 84 04        	sty	$4                      ; 0x2004 <__heap_default_limit+0x1004>
    20fd: a0 00        	ldy	#$0
    20ff: 84 05        	sty	$5                      ; 0x2005 <__heap_default_limit+0x1005>
    2101: a0 17        	ldy	#$17
    2103: 84 06        	sty	$6                      ; 0x2006 <__heap_default_limit+0x1006>
    2105: a0 20        	ldy	#$20
    2107: 84 07        	sty	$7                      ; 0x2007 <__heap_default_limit+0x1007>
    2109: 4c 8e 82     	jmp	$828e <memcpy>

0000210c <main>:
    210c: a2 47        	ldx	#$47
    210e: 8e 2f d0     	stx	$d02f                   ; 0xd02f <__heap_start+0x40b3>
    2111: a2 53        	ldx	#$53
    2113: 8e 2f d0     	stx	$d02f                   ; 0xd02f <__heap_start+0x40b3>
    2116: ad 5d d0     	lda	$d05d                   ; 0xd05d <__heap_start+0x40e1>
    2119: 29 7f        	and	#$7f
    211b: 8d 5d d0     	sta	$d05d                   ; 0xd05d <__heap_start+0x40e1>
    211e: 9c 68 d0     	stz	$d068                   ; 0xd068 <__heap_start+0x40ec>
    2121: a2 d8        	ldx	#$d8
    2123: 8e 69 d0     	stx	$d069                   ; 0xd069 <__heap_start+0x40ed>
    2126: a2 02        	ldx	#$2
    2128: 8e 6a d0     	stx	$d06a                   ; 0xd06a <__heap_start+0x40ee>
    212b: ac 31 d0     	ldy	$d031                   ; 0xd031 <__heap_start+0x40b5>
    212e: a2 28        	ldx	#$28
    2130: 98           	tya
    2131: 10 02        	bpl	$2135 <main+0x29>
    2133: a2 50        	ldx	#$50
    2135: 86 30        	stx	$30                     ; 0x2030 <__do_init_stack+0x1>
    2137: ad 31 d0     	lda	$d031                   ; 0xd031 <__heap_start+0x40b5>
    213a: 29 08        	and	#$8
    213c: a2 19        	ldx	#$19
    213e: a8           	tay
    213f: f0 02        	beq	$2143 <main+0x37>
    2141: a2 32        	ldx	#$32
    2143: 86 31        	stx	$31                     ; 0x2031 <__do_init_stack+0x2>
    2145: 20 3f 79     	jsr	$793f <flushkeybuf>
    2148: a9 f0        	lda	#$f0
    214a: 25 2b        	and	$2b                     ; 0x202b <_start+0xa>
    214c: 09 03        	ora	#$3
    214e: 85 2b        	sta	$2b                     ; 0x202b <_start+0xa>
    2150: 9c 20 d0     	stz	$d020                   ; 0xd020 <__heap_start+0x40a4>
    2153: a2 06        	ldx	#$6
    2155: 8e 21 d0     	stx	$d021                   ; 0xd021 <__heap_start+0x40a5>
    2158: ad 31 d0     	lda	$d031                   ; 0xd031 <__heap_start+0x40b5>
    215b: 09 80        	ora	#$80
    215d: 8d 31 d0     	sta	$d031                   ; 0xd031 <__heap_start+0x40b5>
    2160: a2 50        	ldx	#$50
    2162: 8e 4c d0     	stx	$d04c                   ; 0xd04c <__heap_start+0x40d0>
    2165: ad 31 d0     	lda	$d031                   ; 0xd031 <__heap_start+0x40b5>
    2168: 29 f7        	and	#$f7
    216a: 8d 31 d0     	sta	$d031                   ; 0xd031 <__heap_start+0x40b5>
    216d: 86 30        	stx	$30                     ; 0x2030 <__do_init_stack+0x1>
    216f: a2 19        	ldx	#$19
    2171: 86 31        	stx	$31                     ; 0x2031 <__do_init_stack+0x2>
    2173: 20 7d 3a     	jsr	$3a7d <clrhome>
    2176: 20 46 4d     	jsr	$4d46 <navi>
    2179: 20 7d 3a     	jsr	$3a7d <clrhome>
    217c: a2 41        	ldx	#$41
    217e: 86 04        	stx	$4                      ; 0x2004 <__heap_default_limit+0x1004>
    2180: a2 85        	ldx	#$85
    2182: 86 05        	stx	$5                      ; 0x2005 <__heap_default_limit+0x1005>
    2184: 20 db 3a     	jsr	$3adb <msprintf>
    2187: a9 80        	lda	#$80
    2189: a2 84        	ldx	#$84
    218b: a0 1e        	ldy	#$1e
    218d: 84 04        	sty	$4                      ; 0x2004 <__heap_default_limit+0x1004>
    218f: 64 05        	stz	$5                      ; 0x2005 <__heap_default_limit+0x1005>
    2191: 20 7e 7c     	jsr	$7c7e <usleep>
    2194: a2 00        	ldx	#$0
    2196: a9 7e        	lda	#$7e
    2198: 8d 40 d6     	sta	$d640                   ; 0xd640 <__heap_start+0x46c4>
    219b: b8           	clv
    219c: 8a           	txa
    219d: 60           	rts

0000219e <hyppo_setname>:
    219e: a6 04        	ldx	$4                      ; 0x2004 <__heap_default_limit+0x1004>
    21a0: 86 06        	stx	$6                      ; 0x2006 <__heap_default_limit+0x1006>
    21a2: a6 05        	ldx	$5                      ; 0x2005 <__heap_default_limit+0x1005>
    21a4: 86 07        	stx	$7                      ; 0x2007 <__heap_default_limit+0x1007>
    21a6: a2 1c        	ldx	#$1c
    21a8: a0 00        	ldy	#$0
    21aa: 84 04        	sty	$4                      ; 0x2004 <__heap_default_limit+0x1004>
    21ac: a0 1c        	ldy	#$1c
    21ae: 84 05        	sty	$5                      ; 0x2005 <__heap_default_limit+0x1005>
    21b0: 8e bf 8d     	stx	$8dbf                   ; 0x8dbf <fnamehi.2>
    21b3: 20 b8 7d     	jsr	$7db8 <strcpy>
    21b6: ac bf 8d     	ldy	$8dbf                   ; 0x8dbf <fnamehi.2>
    21b9: a2 00        	ldx	#$0
    21bb: a9 2e        	lda	#$2e
    21bd: 8d 40 d6     	sta	$d640                   ; 0xd640 <__heap_start+0x46c4>
    21c0: b8           	clv
    21c1: 90 07        	bcc	$21ca <errhypsetnam0>
    21c3: a9 00        	lda	#$0
    21c5: 85 04        	sta	$4                      ; 0x2004 <__heap_default_limit+0x1004>
    21c7: 4c ce 21     	jmp	$21ce <donehypsetnam0>

000021ca <errhypsetnam0>:
    21ca: a9 ff        	lda	#$ff
    21cc: 85 04        	sta	$4                      ; 0x2004 <__heap_default_limit+0x1004>

000021ce <donehypsetnam0>:
    21ce: ea           	nop
    21cf: 60           	rts

000021d0 <getsfn>:
    21d0: a2 00        	ldx	#$0
    21d2: a0 00        	ldy	#$0
    21d4: 80 0e        	bra	$21e4 <getsfn+0x14>
    21d6: c9 21        	cmp	#$21
    21d8: 90 09        	bcc	$21e3 <getsfn+0x13>
    21da: 84 04        	sty	$4                      ; 0x2004 <__heap_default_limit+0x1004>
    21dc: e6 04        	inc	$4                      ; 0x2004 <__heap_default_limit+0x1004>
    21de: 99 41 1c     	sta	$1c41,y                 ; 0x1c41 <__heap_default_limit+0xc41>
    21e1: a4 04        	ldy	$4                      ; 0x2004 <__heap_default_limit+0x1004>
    21e3: e8           	inx
    21e4: e0 08        	cpx	#$8
    21e6: f0 07        	beq	$21ef <getsfn+0x1f>
    21e8: bd 41 1b     	lda	$1b41,x                 ; 0x1b41 <__heap_default_limit+0xb41>
    21eb: c9 20        	cmp	#$20
    21ed: d0 e7        	bne	$21d6 <getsfn+0x6>
    21ef: 64 05        	stz	$5                      ; 0x2005 <__heap_default_limit+0x1005>
    21f1: a9 2e        	lda	#$2e
    21f3: 99 41 1c     	sta	$1c41,y                 ; 0x1c41 <__heap_default_limit+0xc41>
    21f6: 98           	tya
    21f7: 1a           	inc
    21f8: a2 00        	ldx	#$0
    21fa: 85 04        	sta	$4                      ; 0x2004 <__heap_default_limit+0x1004>
    21fc: 80 10        	bra	$220e <getsfn+0x3e>
    21fe: c9 21        	cmp	#$21
    2200: 90 0b        	bcc	$220d <getsfn+0x3d>
    2202: 84 06        	sty	$6                      ; 0x2006 <__heap_default_limit+0x1006>
    2204: a4 04        	ldy	$4                      ; 0x2004 <__heap_default_limit+0x1004>
    2206: 99 41 1c     	sta	$1c41,y                 ; 0x1c41 <__heap_default_limit+0xc41>
    2209: a4 06        	ldy	$6                      ; 0x2006 <__heap_default_limit+0x1006>
    220b: e6 04        	inc	$4                      ; 0x2004 <__heap_default_limit+0x1004>
    220d: e8           	inx
    220e: e0 03        	cpx	#$3
    2210: f0 07        	beq	$2219 <getsfn+0x49>
    2212: bd 49 1b     	lda	$1b49,x                 ; 0x1b49 <__heap_default_limit+0xb49>
    2215: c9 20        	cmp	#$20
    2217: d0 e5        	bne	$21fe <getsfn+0x2e>
    2219: 98           	tya
    221a: 1a           	inc
    221b: d0 02        	bne	$221f <getsfn+0x4f>
    221d: e6 05        	inc	$5                      ; 0x2005 <__heap_default_limit+0x1005>
    221f: a6 05        	ldx	$5                      ; 0x2005 <__heap_default_limit+0x1005>
    2221: d0 0a        	bne	$222d <getsfn+0x5d>
    2223: a6 04        	ldx	$4                      ; 0x2004 <__heap_default_limit+0x1004>
    2225: c5 04        	cmp	$4                      ; 0x2004 <__heap_default_limit+0x1004>
    2227: d0 06        	bne	$222f <getsfn+0x5f>
    2229: 5a           	phy
    222a: fa           	plx
    222b: 80 02        	bra	$222f <getsfn+0x5f>
    222d: a6 04        	ldx	$4                      ; 0x2004 <__heap_default_limit+0x1004>
    222f: 9e 41 1c     	stz	$1c41,x                 ; 0x1c41 <__heap_default_limit+0xc41>
    2232: 60           	rts

00002233 <ShowAccess>:
    2233: a8           	tay
    2234: a5 05        	lda	$5                      ; 0x2005 <__heap_default_limit+0x1005>
    2236: c9 02        	cmp	#$2
    2238: f0 03        	beq	$223d <ShowAccess+0xa>
    223a: 4c e4 22     	jmp	$22e4 <ShowAccess+0xb1>
    223d: a9 f0        	lda	#$f0
    223f: 25 2b        	and	$2b                     ; 0x202b <_start+0xa>
    2241: 09 03        	ora	#$3
    2243: 85 2b        	sta	$2b                     ; 0x202b <_start+0xa>
    2245: a5 30        	lda	$30                     ; 0x2030 <__do_init_stack+0x1>
    2247: a2 16        	ldx	#$16
    2249: 64 05        	stz	$5                      ; 0x2005 <__heap_default_limit+0x1005>
    224b: 86 04        	stx	$4                      ; 0x2004 <__heap_default_limit+0x1004>
    224d: a2 00        	ldx	#$0
    224f: 20 50 7e     	jsr	$7e50 <__mulhi3>
    2252: 18           	clc
    2253: 69 1a        	adc	#$1a
    2255: a8           	tay
    2256: 85 6b        	sta	$6b                     ; 0x206b <lpstore+0x11>
    2258: 8a           	txa
    2259: 69 00        	adc	#$0
    225b: 85 6a        	sta	$6a                     ; 0x206a <lpstore+0x10>
    225d: ad 63 d0     	lda	$d063                   ; 0xd063 <__heap_start+0x40e7>
    2260: 29 07        	and	#$7
    2262: 85 09        	sta	$9                      ; 0x2009 <__heap_default_limit+0x1009>
    2264: ae 62 d0     	ldx	$d062                   ; 0xd062 <__heap_start+0x40e6>
    2267: 86 08        	stx	$8                      ; 0x2008 <__heap_default_limit+0x1008>
    2269: ae 61 d0     	ldx	$d061                   ; 0xd061 <__heap_start+0x40e5>
    226c: 86 04        	stx	$4                      ; 0x2004 <__heap_default_limit+0x1004>
    226e: ae 60 d0     	ldx	$d060                   ; 0xd060 <__heap_start+0x40e4>
    2271: 86 05        	stx	$5                      ; 0x2005 <__heap_default_limit+0x1005>
    2273: 18           	clc
    2274: 98           	tya
    2275: 69 00        	adc	#$0
    2277: 85 07        	sta	$7                      ; 0x2007 <__heap_default_limit+0x1007>
    2279: a6 6a        	ldx	$6a                     ; 0x206a <lpstore+0x10>
    227b: 8a           	txa
    227c: 65 04        	adc	$4                      ; 0x2004 <__heap_default_limit+0x1004>
    227e: aa           	tax
    227f: a5 08        	lda	$8                      ; 0x2008 <__heap_default_limit+0x1008>
    2281: 69 00        	adc	#$0
    2283: 85 04        	sta	$4                      ; 0x2004 <__heap_default_limit+0x1004>
    2285: a5 09        	lda	$9                      ; 0x2009 <__heap_default_limit+0x1009>
    2287: 69 00        	adc	#$0
    2289: 85 06        	sta	$6                      ; 0x2006 <__heap_default_limit+0x1006>
    228b: a5 07        	lda	$7                      ; 0x2007 <__heap_default_limit+0x1007>
    228d: 18           	clc
    228e: 65 05        	adc	$5                      ; 0x2005 <__heap_default_limit+0x1005>
    2290: a8           	tay
    2291: 8a           	txa
    2292: 69 00        	adc	#$0
    2294: 85 09        	sta	$9                      ; 0x2009 <__heap_default_limit+0x1009>
    2296: a5 04        	lda	$4                      ; 0x2004 <__heap_default_limit+0x1004>
    2298: 69 00        	adc	#$0
    229a: 85 04        	sta	$4                      ; 0x2004 <__heap_default_limit+0x1004>
    229c: a5 06        	lda	$6                      ; 0x2006 <__heap_default_limit+0x1006>
    229e: 69 00        	adc	#$0
    22a0: a2 20        	ldx	#$20
    22a2: 85 05        	sta	$5                      ; 0x2005 <__heap_default_limit+0x1005>
    22a4: 86 06        	stx	$6                      ; 0x2006 <__heap_default_limit+0x1006>
    22a6: a2 0c        	ldx	#$c
    22a8: 86 07        	stx	$7                      ; 0x2007 <__heap_default_limit+0x1007>
    22aa: 64 08        	stz	$8                      ; 0x2008 <__heap_default_limit+0x1008>
    22ac: a6 09        	ldx	$9                      ; 0x2009 <__heap_default_limit+0x1009>
    22ae: 98           	tya
    22af: 20 2e 7c     	jsr	$7c2e <lfill>
    22b2: a6 2b        	ldx	$2b                     ; 0x202b <_start+0xa>
    22b4: a0 f8        	ldy	#$f8
    22b6: a9 0f        	lda	#$f
    22b8: 84 04        	sty	$4                      ; 0x2004 <__heap_default_limit+0x1004>
    22ba: 85 05        	sta	$5                      ; 0x2005 <__heap_default_limit+0x1005>
    22bc: 86 06        	stx	$6                      ; 0x2006 <__heap_default_limit+0x1006>
    22be: a2 0c        	ldx	#$c
    22c0: 86 07        	stx	$7                      ; 0x2007 <__heap_default_limit+0x1007>
    22c2: 64 08        	stz	$8                      ; 0x2008 <__heap_default_limit+0x1008>
    22c4: a6 6a        	ldx	$6a                     ; 0x206a <lpstore+0x10>
    22c6: a5 6b        	lda	$6b                     ; 0x206b <lpstore+0x11>
    22c8: 20 2e 7c     	jsr	$7c2e <lfill>
    22cb: a6 30        	ldx	$30                     ; 0x2030 <__do_init_stack+0x1>
    22cd: a0 69        	ldy	#$69
    22cf: a9 00        	lda	#$0
    22d1: 84 04        	sty	$4                      ; 0x2004 <__heap_default_limit+0x1004>
    22d3: 85 05        	sta	$5                      ; 0x2005 <__heap_default_limit+0x1005>
    22d5: a9 26        	lda	#$26
    22d7: 20 88 7f     	jsr	$7f88 <__udivmodqi4>
    22da: a6 69        	ldx	$69                     ; 0x2069 <lpstore+0xf>
    22dc: 18           	clc
    22dd: 69 16        	adc	#$16
    22df: 85 33        	sta	$33                     ; 0x2033 <__do_init_stack+0x4>
    22e1: 86 32        	stx	$32                     ; 0x2032 <__do_init_stack+0x3>
    22e3: 60           	rts
    22e4: 85 6a        	sta	$6a                     ; 0x206a <lpstore+0x10>
    22e6: a9 04        	lda	#$4
    22e8: 25 2f        	and	$2f                     ; 0x202f <__do_init_stack>
    22ea: d0 03        	bne	$22ef <ShowAccess+0xbc>
    22ec: 4c 98 23     	jmp	$2398 <ShowAccess+0x165>
    22ef: a5 2b        	lda	$2b                     ; 0x202b <_start+0xa>
    22f1: c0 00        	cpy	#$0
    22f3: f0 0c        	beq	$2301 <ShowAccess+0xce>
    22f5: 84 6d        	sty	$6d                     ; 0x206d <lpstore+0x13>
    22f7: 86 6c        	stx	$6c                     ; 0x206c <lpstore+0x12>
    22f9: a6 04        	ldx	$4                      ; 0x2004 <__heap_default_limit+0x1004>
    22fb: 86 6b        	stx	$6b                     ; 0x206b <lpstore+0x11>
    22fd: a2 0d        	ldx	#$d
    22ff: 80 0a        	bra	$230b <ShowAccess+0xd8>
    2301: 84 6d        	sty	$6d                     ; 0x206d <lpstore+0x13>
    2303: 86 6c        	stx	$6c                     ; 0x206c <lpstore+0x12>
    2305: a6 04        	ldx	$4                      ; 0x2004 <__heap_default_limit+0x1004>
    2307: 86 6b        	stx	$6b                     ; 0x206b <lpstore+0x11>
    2309: a2 0f        	ldx	#$f
    230b: 86 04        	stx	$4                      ; 0x2004 <__heap_default_limit+0x1004>
    230d: 29 d0        	and	#$d0
    230f: 05 04        	ora	$4                      ; 0x2004 <__heap_default_limit+0x1004>
    2311: 09 20        	ora	#$20
    2313: 85 2b        	sta	$2b                     ; 0x202b <_start+0xa>
    2315: a9 1a        	lda	#$1a
    2317: a2 16        	ldx	#$16
    2319: a0 cc        	ldy	#$cc
    231b: 84 04        	sty	$4                      ; 0x2004 <__heap_default_limit+0x1004>
    231d: a0 84        	ldy	#$84
    231f: 84 05        	sty	$5                      ; 0x2005 <__heap_default_limit+0x1005>
    2321: 20 14 3b     	jsr	$3b14 <mcputsxy>
    2324: a2 01        	ldx	#$1
    2326: 64 04        	stz	$4                      ; 0x2004 <__heap_default_limit+0x1004>
    2328: 64 05        	stz	$5                      ; 0x2005 <__heap_default_limit+0x1005>
    232a: 86 06        	stx	$6                      ; 0x2006 <__heap_default_limit+0x1006>
    232c: ca           	dex
    232d: a5 6d        	lda	$6d                     ; 0x206d <lpstore+0x13>
    232f: 20 66 39     	jsr	$3966 <csputdec>
    2332: a9 f0        	lda	#$f0
    2334: 25 2b        	and	$2b                     ; 0x202b <_start+0xa>
    2336: 09 08        	ora	#$8
    2338: 85 2b        	sta	$2b                     ; 0x202b <_start+0xa>
    233a: a9 54        	lda	#$54
    233c: 20 61 79     	jsr	$7961 <cputc>
    233f: a2 02        	ldx	#$2
    2341: 64 04        	stz	$4                      ; 0x2004 <__heap_default_limit+0x1004>
    2343: 64 05        	stz	$5                      ; 0x2005 <__heap_default_limit+0x1005>
    2345: 86 06        	stx	$6                      ; 0x2006 <__heap_default_limit+0x1006>
    2347: a2 00        	ldx	#$0
    2349: a5 6c        	lda	$6c                     ; 0x206c <lpstore+0x12>
    234b: 20 66 39     	jsr	$3966 <csputdec>
    234e: a9 f0        	lda	#$f0
    2350: 25 2b        	and	$2b                     ; 0x202b <_start+0xa>
    2352: 09 0e        	ora	#$e
    2354: 85 2b        	sta	$2b                     ; 0x202b <_start+0xa>
    2356: a9 53        	lda	#$53
    2358: 20 61 79     	jsr	$7961 <cputc>
    235b: 64 04        	stz	$4                      ; 0x2004 <__heap_default_limit+0x1004>
    235d: 64 05        	stz	$5                      ; 0x2005 <__heap_default_limit+0x1005>
    235f: a2 02        	ldx	#$2
    2361: 86 06        	stx	$6                      ; 0x2006 <__heap_default_limit+0x1006>
    2363: a2 00        	ldx	#$0
    2365: a5 6b        	lda	$6b                     ; 0x206b <lpstore+0x11>
    2367: 20 66 39     	jsr	$3966 <csputdec>
    236a: a9 20        	lda	#$20
    236c: 20 61 79     	jsr	$7961 <cputc>
    236f: a9 f0        	lda	#$f0
    2371: 25 2b        	and	$2b                     ; 0x202b <_start+0xa>
    2373: a0 57        	ldy	#$57
    2375: a2 02        	ldx	#$2
    2377: 86 04        	stx	$4                      ; 0x2004 <__heap_default_limit+0x1004>
    2379: a6 6a        	ldx	$6a                     ; 0x206a <lpstore+0x10>
    237b: e0 01        	cpx	#$1
    237d: f0 06        	beq	$2385 <ShowAccess+0x152>
    237f: a0 52        	ldy	#$52
    2381: a2 08        	ldx	#$8
    2383: 86 04        	stx	$4                      ; 0x2004 <__heap_default_limit+0x1004>
    2385: 05 04        	ora	$4                      ; 0x2004 <__heap_default_limit+0x1004>
    2387: 85 2b        	sta	$2b                     ; 0x202b <_start+0xa>
    2389: 98           	tya
    238a: 20 61 79     	jsr	$7961 <cputc>
    238d: a9 20        	lda	#$20
    238f: 20 61 79     	jsr	$7961 <cputc>
    2392: a9 df        	lda	#$df
    2394: 25 2b        	and	$2b                     ; 0x202b <_start+0xa>
    2396: 85 2b        	sta	$2b                     ; 0x202b <_start+0xa>
    2398: 60           	rts

00002399 <ReadSector>:
    2399: 86 64        	stx	$64                     ; 0x2064 <lpstore+0xa>
    239b: 64 05        	stz	$5                      ; 0x2005 <__heap_default_limit+0x1005>
    239d: a4 04        	ldy	$4                      ; 0x2004 <__heap_default_limit+0x1004>
    239f: 84 66        	sty	$66                     ; 0x2066 <lpstore+0xc>
    23a1: 85 65        	sta	$65                     ; 0x2065 <lpstore+0xb>
    23a3: 20 33 22     	jsr	$2233 <ShowAccess>
    23a6: a5 64        	lda	$64                     ; 0x2064 <lpstore+0xa>
    23a8: f0 17        	beq	$23c1 <ReadSector+0x28>
    23aa: a4 64        	ldy	$64                     ; 0x2064 <lpstore+0xa>
    23ac: a6 66        	ldx	$66                     ; 0x2066 <lpstore+0xc>
    23ae: e0 14        	cpx	#$14
    23b0: a2 01        	ldx	#$1
    23b2: b0 02        	bcs	$23b6 <ReadSector+0x1d>
    23b4: a2 00        	ldx	#$0
    23b6: 86 67        	stx	$67                     ; 0x2067 <lpstore+0xd>
    23b8: a5 65        	lda	$65                     ; 0x2065 <lpstore+0xb>
    23ba: b0 08        	bcs	$23c4 <ReadSector+0x2b>
    23bc: 18           	clc
    23bd: 69 28        	adc	#$28
    23bf: 80 06        	bra	$23c7 <ReadSector+0x2e>
    23c1: a9 fc        	lda	#$fc
    23c3: 60           	rts
    23c4: 18           	clc
    23c5: 69 20        	adc	#$20
    23c7: a6 2c        	ldx	$2c                     ; 0x202c <_start+0xb>
    23c9: 5a           	phy
    23ca: a4 66        	ldy	$66                     ; 0x2066 <lpstore+0xc>
    23cc: 84 04        	sty	$4                      ; 0x2004 <__heap_default_limit+0x1004>
    23ce: 46 04        	lsr	$4                      ; 0x2004 <__heap_default_limit+0x1004>
    23d0: a4 04        	ldy	$4                      ; 0x2004 <__heap_default_limit+0x1004>
    23d2: 84 65        	sty	$65                     ; 0x2065 <lpstore+0xb>
    23d4: 7a           	ply
    23d5: 85 04        	sta	$4                      ; 0x2004 <__heap_default_limit+0x1004>
    23d7: e4 04        	cpx	$4                      ; 0x2004 <__heap_default_limit+0x1004>
    23d9: d0 11        	bne	$23ec <ReadSector+0x53>
    23db: a6 2d        	ldx	$2d                     ; 0x202d <_start+0xc>
    23dd: 84 04        	sty	$4                      ; 0x2004 <__heap_default_limit+0x1004>
    23df: e4 04        	cpx	$4                      ; 0x2004 <__heap_default_limit+0x1004>
    23e1: d0 09        	bne	$23ec <ReadSector+0x53>
    23e3: a6 65        	ldx	$65                     ; 0x2065 <lpstore+0xb>
    23e5: e4 2e        	cpx	$2e                     ; 0x202e <_start+0xd>
    23e7: d0 03        	bne	$23ec <ReadSector+0x53>
    23e9: 4c 51 24     	jmp	$2451 <ReadSector+0xb8>
    23ec: 85 68        	sta	$68                     ; 0x2068 <lpstore+0xe>
    23ee: 8d 80 d0     	sta	$d080                   ; 0xd080 <__heap_start+0x4104>
    23f1: a2 20        	ldx	#$20
    23f3: 8e 81 d0     	stx	$d081                   ; 0xd081 <__heap_start+0x4105>
    23f6: ae 82 d0     	ldx	$d082                   ; 0xd082 <__heap_start+0x4106>
    23f9: 30 fb        	bmi	$23f6 <ReadSector+0x5d>
    23fb: a6 64        	ldx	$64                     ; 0x2064 <lpstore+0xa>
    23fd: ca           	dex
    23fe: 8e 84 d0     	stx	$d084                   ; 0xd084 <__heap_start+0x4108>
    2401: a2 14        	ldx	#$14
    2403: a5 66        	lda	$66                     ; 0x2066 <lpstore+0xc>
    2405: 20 43 7f     	jsr	$7f43 <__umodqi3>
    2408: 4a           	lsr
    2409: 1a           	inc
    240a: 8d 85 d0     	sta	$d085                   ; 0xd085 <__heap_start+0x4109>
    240d: a6 67        	ldx	$67                     ; 0x2067 <lpstore+0xd>
    240f: f0 04        	beq	$2415 <ReadSector+0x7c>
    2411: a2 01        	ldx	#$1
    2413: 80 02        	bra	$2417 <ReadSector+0x7e>
    2415: a2 00        	ldx	#$0
    2417: 8e 86 d0     	stx	$d086                   ; 0xd086 <__heap_start+0x410a>
    241a: a2 41        	ldx	#$41
    241c: 8e 81 d0     	stx	$d081                   ; 0xd081 <__heap_start+0x4105>
    241f: a4 64        	ldy	$64                     ; 0x2064 <lpstore+0xa>
    2421: ae 82 d0     	ldx	$d082                   ; 0xd082 <__heap_start+0x4106>
    2424: 30 fb        	bmi	$2421 <ReadSector+0x88>
    2426: ad 82 d0     	lda	$d082                   ; 0xd082 <__heap_start+0x4106>
    2429: 29 18        	and	#$18
    242b: f0 12        	beq	$243f <ReadSector+0xa6>
    242d: a2 40        	ldx	#$40
    242f: 8e 80 d0     	stx	$d080                   ; 0xd080 <__heap_start+0x4104>
    2432: a2 02        	ldx	#$2
    2434: 8e 20 d0     	stx	$d020                   ; 0xd020 <__heap_start+0x40a4>
    2437: 64 2d        	stz	$2d                     ; 0x202d <_start+0xc>
    2439: ae 82 d0     	ldx	$d082                   ; 0xd082 <__heap_start+0x4106>
    243c: a9 ff        	lda	#$ff
    243e: 60           	rts
    243f: ad 89 d6     	lda	$d689                   ; 0xd689 <__heap_start+0x470d>
    2442: 29 7f        	and	#$7f
    2444: 8d 89 d6     	sta	$d689                   ; 0xd689 <__heap_start+0x470d>
    2447: a5 68        	lda	$68                     ; 0x2068 <lpstore+0xe>
    2449: 85 2c        	sta	$2c                     ; 0x202c <_start+0xb>
    244b: 84 2d        	sty	$2d                     ; 0x202d <_start+0xc>
    244d: a6 65        	ldx	$65                     ; 0x2065 <lpstore+0xb>
    244f: 86 2e        	stx	$2e                     ; 0x202e <_start+0xd>
    2451: a6 66        	ldx	$66                     ; 0x2066 <lpstore+0xc>
    2453: 86 04        	stx	$4                      ; 0x2004 <__heap_default_limit+0x1004>
    2455: 85 06        	sta	$6                      ; 0x2006 <__heap_default_limit+0x1006>
    2457: a5 66        	lda	$66                     ; 0x2066 <lpstore+0xc>
    2459: 29 01        	and	#$1
    245b: 85 64        	sta	$64                     ; 0x2064 <lpstore+0xa>
    245d: a2 02        	ldx	#$2
    245f: 86 05        	stx	$5                      ; 0x2005 <__heap_default_limit+0x1005>
    2461: 5a           	phy
    2462: fa           	plx
    2463: a5 06        	lda	$6                      ; 0x2006 <__heap_default_limit+0x1006>
    2465: 20 33 22     	jsr	$2233 <ShowAccess>
    2468: a5 64        	lda	$64                     ; 0x2064 <lpstore+0xa>
    246a: 60           	rts

0000246b <WriteSector>:
    246b: 86 64        	stx	$64                     ; 0x2064 <lpstore+0xa>
    246d: a2 01        	ldx	#$1
    246f: a4 04        	ldy	$4                      ; 0x2004 <__heap_default_limit+0x1004>
    2471: 84 66        	sty	$66                     ; 0x2066 <lpstore+0xc>
    2473: 86 05        	stx	$5                      ; 0x2005 <__heap_default_limit+0x1005>
    2475: a6 64        	ldx	$64                     ; 0x2064 <lpstore+0xa>
    2477: 85 65        	sta	$65                     ; 0x2065 <lpstore+0xb>
    2479: 20 33 22     	jsr	$2233 <ShowAccess>
    247c: 64 2d        	stz	$2d                     ; 0x202d <_start+0xc>
    247e: a5 64        	lda	$64                     ; 0x2064 <lpstore+0xa>
    2480: d0 03        	bne	$2485 <WriteSector+0x1a>
    2482: 4c 09 25     	jmp	$2509 <WriteSector+0x9e>
    2485: a4 66        	ldy	$66                     ; 0x2066 <lpstore+0xc>
    2487: c0 14        	cpy	#$14
    2489: a2 01        	ldx	#$1
    248b: b0 02        	bcs	$248f <WriteSector+0x24>
    248d: a2 00        	ldx	#$0
    248f: 86 67        	stx	$67                     ; 0x2067 <lpstore+0xd>
    2491: a5 65        	lda	$65                     ; 0x2065 <lpstore+0xb>
    2493: b0 05        	bcs	$249a <WriteSector+0x2f>
    2495: 18           	clc
    2496: 69 28        	adc	#$28
    2498: 80 03        	bra	$249d <WriteSector+0x32>
    249a: 18           	clc
    249b: 69 20        	adc	#$20
    249d: 85 68        	sta	$68                     ; 0x2068 <lpstore+0xe>
    249f: 8d 80 d0     	sta	$d080                   ; 0xd080 <__heap_start+0x4104>
    24a2: a2 20        	ldx	#$20
    24a4: 8e 81 d0     	stx	$d081                   ; 0xd081 <__heap_start+0x4105>
    24a7: ae 82 d0     	ldx	$d082                   ; 0xd082 <__heap_start+0x4106>
    24aa: 30 fb        	bmi	$24a7 <WriteSector+0x3c>
    24ac: a6 64        	ldx	$64                     ; 0x2064 <lpstore+0xa>
    24ae: ca           	dex
    24af: 8e 84 d0     	stx	$d084                   ; 0xd084 <__heap_start+0x4108>
    24b2: a2 14        	ldx	#$14
    24b4: 84 65        	sty	$65                     ; 0x2065 <lpstore+0xb>
    24b6: 98           	tya
    24b7: 20 43 7f     	jsr	$7f43 <__umodqi3>
    24ba: 4a           	lsr
    24bb: 1a           	inc
    24bc: 8d 85 d0     	sta	$d085                   ; 0xd085 <__heap_start+0x4109>
    24bf: a6 67        	ldx	$67                     ; 0x2067 <lpstore+0xd>
    24c1: f0 04        	beq	$24c7 <WriteSector+0x5c>
    24c3: a2 01        	ldx	#$1
    24c5: 80 02        	bra	$24c9 <WriteSector+0x5e>
    24c7: a2 00        	ldx	#$0
    24c9: 8e 86 d0     	stx	$d086                   ; 0xd086 <__heap_start+0x410a>
    24cc: a2 84        	ldx	#$84
    24ce: 8e 81 d0     	stx	$d081                   ; 0xd081 <__heap_start+0x4105>
    24d1: a6 65        	ldx	$65                     ; 0x2065 <lpstore+0xb>
    24d3: 86 04        	stx	$4                      ; 0x2004 <__heap_default_limit+0x1004>
    24d5: ae 82 d0     	ldx	$d082                   ; 0xd082 <__heap_start+0x4106>
    24d8: 30 fb        	bmi	$24d5 <WriteSector+0x6a>
    24da: ad 83 d0     	lda	$d083                   ; 0xd083 <__heap_start+0x4107>
    24dd: 29 10        	and	#$10
    24df: d0 f4        	bne	$24d5 <WriteSector+0x6a>
    24e1: ad 82 d0     	lda	$d082                   ; 0xd082 <__heap_start+0x4106>
    24e4: 29 18        	and	#$18
    24e6: f0 0e        	beq	$24f6 <WriteSector+0x8b>
    24e8: a2 40        	ldx	#$40
    24ea: 8e 80 d0     	stx	$d080                   ; 0xd080 <__heap_start+0x4104>
    24ed: a2 02        	ldx	#$2
    24ef: 8e 20 d0     	stx	$d020                   ; 0xd020 <__heap_start+0x40a4>
    24f2: ae 82 d0     	ldx	$d082                   ; 0xd082 <__heap_start+0x4106>
    24f5: 60           	rts
    24f6: ad 89 d6     	lda	$d689                   ; 0xd689 <__heap_start+0x470d>
    24f9: 29 7f        	and	#$7f
    24fb: 8d 89 d6     	sta	$d689                   ; 0xd689 <__heap_start+0x470d>
    24fe: a2 02        	ldx	#$2
    2500: 86 05        	stx	$5                      ; 0x2005 <__heap_default_limit+0x1005>
    2502: a6 64        	ldx	$64                     ; 0x2064 <lpstore+0xa>
    2504: a5 68        	lda	$68                     ; 0x2068 <lpstore+0xe>
    2506: 20 33 22     	jsr	$2233 <ShowAccess>
    2509: 60           	rts

0000250a <GetOneSector>:
    250a: a4 06        	ldy	$6                      ; 0x2006 <__heap_default_limit+0x1006>
    250c: 48           	pha
    250d: a5 04        	lda	$4                      ; 0x2004 <__heap_default_limit+0x1004>
    250f: 85 53        	sta	$53                     ; 0x2053 <_fini+0x8>
    2511: a5 05        	lda	$5                      ; 0x2005 <__heap_default_limit+0x1005>
    2513: 85 54        	sta	$54                     ; 0x2054 <_fini+0x9>
    2515: 68           	pla
    2516: 84 04        	sty	$4                      ; 0x2004 <__heap_default_limit+0x1004>
    2518: 20 99 23     	jsr	$2399 <ReadSector>
    251b: c9 02        	cmp	#$2
    251d: b0 2d        	bcs	$254c <GetOneSector+0x42>
    251f: a0 fd        	ldy	#$fd
    2521: aa           	tax
    2522: f0 06        	beq	$252a <GetOneSector+0x20>
    2524: 85 55        	sta	$55                     ; 0x2055 <_fini+0xa>
    2526: a2 6d        	ldx	#$6d
    2528: 80 04        	bra	$252e <GetOneSector+0x24>
    252a: 85 55        	sta	$55                     ; 0x2055 <_fini+0xa>
    252c: a2 6c        	ldx	#$6c
    252e: a9 01        	lda	#$1
    2530: 84 04        	sty	$4                      ; 0x2004 <__heap_default_limit+0x1004>
    2532: a0 0f        	ldy	#$f
    2534: 84 05        	sty	$5                      ; 0x2005 <__heap_default_limit+0x1005>
    2536: a4 53        	ldy	$53                     ; 0x2053 <_fini+0x8>
    2538: 84 06        	sty	$6                      ; 0x2006 <__heap_default_limit+0x1006>
    253a: a4 54        	ldy	$54                     ; 0x2054 <_fini+0x9>
    253c: 84 07        	sty	$7                      ; 0x2007 <__heap_default_limit+0x1007>
    253e: 64 08        	stz	$8                      ; 0x2008 <__heap_default_limit+0x1008>
    2540: 64 09        	stz	$9                      ; 0x2009 <__heap_default_limit+0x1009>
    2542: 64 0a        	stz	$a                      ; 0x200a <__heap_default_limit+0x100a>
    2544: 85 0b        	sta	$b                      ; 0x200b <__heap_default_limit+0x100b>
    2546: 3a           	dec
    2547: 20 c7 7b     	jsr	$7bc7 <lcopy>
    254a: a5 55        	lda	$55                     ; 0x2055 <_fini+0xa>
    254c: 60           	rts

0000254d <PutWholeSector>:
    254d: 85 4b        	sta	$4b                     ; 0x204b <_fini>
    254f: 86 4c        	stx	$4c                     ; 0x204c <_fini+0x1>
    2551: a4 04        	ldy	$4                      ; 0x2004 <__heap_default_limit+0x1004>
    2553: 84 0c        	sty	$c                      ; 0x200c <__heap_default_limit+0x100c>
    2555: a4 05        	ldy	$5                      ; 0x2005 <__heap_default_limit+0x1005>
    2557: 84 0d        	sty	$d                      ; 0x200d <__heap_default_limit+0x100d>
    2559: a4 06        	ldy	$6                      ; 0x2006 <__heap_default_limit+0x1006>
    255b: 84 4d        	sty	$4d                     ; 0x204d <_fini+0x2>
    255d: a5 06        	lda	$6                      ; 0x2006 <__heap_default_limit+0x1006>
    255f: 29 01        	and	#$1
    2561: 29 01        	and	#$1
    2563: d0 1f        	bne	$2584 <PutWholeSector+0x37>
    2565: a0 6c        	ldy	#$6c
    2567: a9 fd        	lda	#$fd
    2569: a2 0f        	ldx	#$f
    256b: 64 04        	stz	$4                      ; 0x2004 <__heap_default_limit+0x1004>
    256d: 64 05        	stz	$5                      ; 0x2005 <__heap_default_limit+0x1005>
    256f: 64 06        	stz	$6                      ; 0x2006 <__heap_default_limit+0x1006>
    2571: 84 07        	sty	$7                      ; 0x2007 <__heap_default_limit+0x1007>
    2573: 85 08        	sta	$8                      ; 0x2008 <__heap_default_limit+0x1008>
    2575: 86 09        	stx	$9                      ; 0x2009 <__heap_default_limit+0x1009>
    2577: 64 0a        	stz	$a                      ; 0x200a <__heap_default_limit+0x100a>
    2579: a2 02        	ldx	#$2
    257b: 86 0b        	stx	$b                      ; 0x200b <__heap_default_limit+0x100b>
    257d: a6 0d        	ldx	$d                      ; 0x200d <__heap_default_limit+0x100d>
    257f: a5 0c        	lda	$c                      ; 0x200c <__heap_default_limit+0x100c>
    2581: 4c c1 25     	jmp	$25c1 <PutWholeSector+0x74>
    2584: a4 06        	ldy	$6                      ; 0x2006 <__heap_default_limit+0x1006>
    2586: 84 04        	sty	$4                      ; 0x2004 <__heap_default_limit+0x1004>
    2588: a5 4b        	lda	$4b                     ; 0x204b <_fini>
    258a: a4 4b        	ldy	$4b                     ; 0x204b <_fini>
    258c: 84 4e        	sty	$4e                     ; 0x204e <_fini+0x3>
    258e: a4 4c        	ldy	$4c                     ; 0x204c <_fini+0x1>
    2590: 84 4f        	sty	$4f                     ; 0x204f <_fini+0x4>
    2592: a4 0c        	ldy	$c                      ; 0x200c <__heap_default_limit+0x100c>
    2594: 84 4b        	sty	$4b                     ; 0x204b <_fini>
    2596: a4 0d        	ldy	$d                      ; 0x200d <__heap_default_limit+0x100d>
    2598: 84 4c        	sty	$4c                     ; 0x204c <_fini+0x1>
    259a: 20 99 23     	jsr	$2399 <ReadSector>
    259d: a0 6d        	ldy	#$6d
    259f: a9 fd        	lda	#$fd
    25a1: a2 0f        	ldx	#$f
    25a3: 64 04        	stz	$4                      ; 0x2004 <__heap_default_limit+0x1004>
    25a5: 64 05        	stz	$5                      ; 0x2005 <__heap_default_limit+0x1005>
    25a7: 64 06        	stz	$6                      ; 0x2006 <__heap_default_limit+0x1006>
    25a9: 84 07        	sty	$7                      ; 0x2007 <__heap_default_limit+0x1007>
    25ab: 85 08        	sta	$8                      ; 0x2008 <__heap_default_limit+0x1008>
    25ad: 86 09        	stx	$9                      ; 0x2009 <__heap_default_limit+0x1009>
    25af: 64 0a        	stz	$a                      ; 0x200a <__heap_default_limit+0x100a>
    25b1: a2 01        	ldx	#$1
    25b3: 86 0b        	stx	$b                      ; 0x200b <__heap_default_limit+0x100b>
    25b5: a6 4c        	ldx	$4c                     ; 0x204c <_fini+0x1>
    25b7: a5 4b        	lda	$4b                     ; 0x204b <_fini>
    25b9: a4 4f        	ldy	$4f                     ; 0x204f <_fini+0x4>
    25bb: 84 4c        	sty	$4c                     ; 0x204c <_fini+0x1>
    25bd: a4 4e        	ldy	$4e                     ; 0x204e <_fini+0x3>
    25bf: 84 4b        	sty	$4b                     ; 0x204b <_fini>
    25c1: 20 c7 7b     	jsr	$7bc7 <lcopy>
    25c4: a5 4d        	lda	$4d                     ; 0x204d <_fini+0x2>
    25c6: 29 fe        	and	#$fe
    25c8: 85 04        	sta	$4                      ; 0x2004 <__heap_default_limit+0x1004>
    25ca: a6 4c        	ldx	$4c                     ; 0x204c <_fini+0x1>
    25cc: a5 4b        	lda	$4b                     ; 0x204b <_fini>
    25ce: 4c 6b 24     	jmp	$246b <WriteSector>

000025d1 <PutOneSector>:
    25d1: 85 5e        	sta	$5e                     ; 0x205e <lpstore+0x4>
    25d3: 86 5f        	stx	$5f                     ; 0x205f <lpstore+0x5>
    25d5: a6 06        	ldx	$6                      ; 0x2006 <__heap_default_limit+0x1006>
    25d7: a4 04        	ldy	$4                      ; 0x2004 <__heap_default_limit+0x1004>
    25d9: 84 60        	sty	$60                     ; 0x2060 <lpstore+0x6>
    25db: a4 05        	ldy	$5                      ; 0x2005 <__heap_default_limit+0x1005>
    25dd: 84 61        	sty	$61                     ; 0x2061 <lpstore+0x7>
    25df: a5 06        	lda	$6                      ; 0x2006 <__heap_default_limit+0x1006>
    25e1: 29 01        	and	#$1
    25e3: 85 62        	sta	$62                     ; 0x2062 <lpstore+0x8>
    25e5: 86 63        	stx	$63                     ; 0x2063 <lpstore+0x9>
    25e7: 86 04        	stx	$4                      ; 0x2004 <__heap_default_limit+0x1004>
    25e9: a6 5f        	ldx	$5f                     ; 0x205f <lpstore+0x5>
    25eb: a5 5e        	lda	$5e                     ; 0x205e <lpstore+0x4>
    25ed: 20 99 23     	jsr	$2399 <ReadSector>
    25f0: 64 06        	stz	$6                      ; 0x2006 <__heap_default_limit+0x1006>
    25f2: a9 6c        	lda	#$6c
    25f4: a0 fd        	ldy	#$fd
    25f6: a6 62        	ldx	$62                     ; 0x2062 <lpstore+0x8>
    25f8: f0 02        	beq	$25fc <PutOneSector+0x2b>
    25fa: a9 6d        	lda	#$6d
    25fc: a2 01        	ldx	#$1
    25fe: 64 04        	stz	$4                      ; 0x2004 <__heap_default_limit+0x1004>
    2600: 64 05        	stz	$5                      ; 0x2005 <__heap_default_limit+0x1005>
    2602: 85 07        	sta	$7                      ; 0x2007 <__heap_default_limit+0x1007>
    2604: 84 08        	sty	$8                      ; 0x2008 <__heap_default_limit+0x1008>
    2606: a0 0f        	ldy	#$f
    2608: 84 09        	sty	$9                      ; 0x2009 <__heap_default_limit+0x1009>
    260a: 64 0a        	stz	$a                      ; 0x200a <__heap_default_limit+0x100a>
    260c: 86 0b        	stx	$b                      ; 0x200b <__heap_default_limit+0x100b>
    260e: a6 61        	ldx	$61                     ; 0x2061 <lpstore+0x7>
    2610: a5 60        	lda	$60                     ; 0x2060 <lpstore+0x6>
    2612: 20 c7 7b     	jsr	$7bc7 <lcopy>
    2615: a5 63        	lda	$63                     ; 0x2063 <lpstore+0x9>
    2617: 29 fe        	and	#$fe
    2619: 85 04        	sta	$4                      ; 0x2004 <__heap_default_limit+0x1004>
    261b: a6 5f        	ldx	$5f                     ; 0x205f <lpstore+0x5>
    261d: a5 5e        	lda	$5e                     ; 0x205e <lpstore+0x4>
    261f: 4c 6b 24     	jmp	$246b <WriteSector>

00002622 <GetBAM>:
    2622: 0a           	asl
    2623: aa           	tax
    2624: a9 00        	lda	#$0
    2626: 2a           	rol
    2627: a8           	tay
    2628: a9 00        	lda	#$0
    262a: 2a           	rol
    262b: 85 04        	sta	$4                      ; 0x2004 <__heap_default_limit+0x1004>
    262d: 8a           	txa
    262e: 18           	clc
    262f: 69 38        	adc	#$38
    2631: 85 0c        	sta	$c                      ; 0x200c <__heap_default_limit+0x100c>
    2633: 98           	tya
    2634: 69 00        	adc	#$0
    2636: 85 06        	sta	$6                      ; 0x2006 <__heap_default_limit+0x1006>
    2638: a5 04        	lda	$4                      ; 0x2004 <__heap_default_limit+0x1004>
    263a: 69 08        	adc	#$8
    263c: a2 17        	ldx	#$17
    263e: a0 02        	ldy	#$2
    2640: 48           	pha
    2641: a5 06        	lda	$6                      ; 0x2006 <__heap_default_limit+0x1006>
    2643: 85 04        	sta	$4                      ; 0x2004 <__heap_default_limit+0x1004>
    2645: 68           	pla
    2646: 85 05        	sta	$5                      ; 0x2005 <__heap_default_limit+0x1005>
    2648: 64 06        	stz	$6                      ; 0x2006 <__heap_default_limit+0x1006>
    264a: 86 07        	stx	$7                      ; 0x2007 <__heap_default_limit+0x1007>
    264c: 64 08        	stz	$8                      ; 0x2008 <__heap_default_limit+0x1008>
    264e: 64 09        	stz	$9                      ; 0x2009 <__heap_default_limit+0x1009>
    2650: 64 0a        	stz	$a                      ; 0x200a <__heap_default_limit+0x100a>
    2652: 84 0b        	sty	$b                      ; 0x200b <__heap_default_limit+0x100b>
    2654: a6 0c        	ldx	$c                      ; 0x200c <__heap_default_limit+0x100c>
    2656: a9 00        	lda	#$0
    2658: 4c c7 7b     	jmp	$7bc7 <lcopy>

0000265b <PutBAM>:
    265b: 8d 74 8f     	sta	$8f74                   ; 0x8f74 <__data_load_start+0x1b5>
    265e: 8e 73 8f     	stx	$8f73                   ; 0x8f73 <__data_load_start+0x1b4>
    2661: a6 04        	ldx	$4                      ; 0x2004 <__heap_default_limit+0x1004>
    2663: a0 00        	ldy	#$0
    2665: 84 04        	sty	$4                      ; 0x2004 <__heap_default_limit+0x1004>
    2667: a0 17        	ldy	#$17
    2669: 84 05        	sty	$5                      ; 0x2005 <__heap_default_limit+0x1005>
    266b: a0 01        	ldy	#$1
    266d: 84 06        	sty	$6                      ; 0x2006 <__heap_default_limit+0x1006>
    266f: 20 d1 25     	jsr	$25d1 <PutOneSector>
    2672: ae 00 17     	ldx	$1700                   ; 0x1700 <__heap_default_limit+0x700>
    2675: ac 01 17     	ldy	$1701                   ; 0x1701 <__heap_default_limit+0x701>
    2678: a9 00        	lda	#$0
    267a: 85 04        	sta	$4                      ; 0x2004 <__heap_default_limit+0x1004>
    267c: a9 18        	lda	#$18
    267e: 85 05        	sta	$5                      ; 0x2005 <__heap_default_limit+0x1005>
    2680: 84 06        	sty	$6                      ; 0x2006 <__heap_default_limit+0x1006>
    2682: ad 74 8f     	lda	$8f74                   ; 0x8f74 <__data_load_start+0x1b5>
    2685: 20 d1 25     	jsr	$25d1 <PutOneSector>
    2688: ae 73 8f     	ldx	$8f73                   ; 0x8f73 <__data_load_start+0x1b4>
    268b: 86 04        	stx	$4                      ; 0x2004 <__heap_default_limit+0x1004>
    268d: 06 04        	asl	$4                      ; 0x2004 <__heap_default_limit+0x1004>
    268f: a9 00        	lda	#$0
    2691: 2a           	rol
    2692: aa           	tax
    2693: a9 00        	lda	#$0
    2695: 2a           	rol
    2696: a8           	tay
    2697: a5 04        	lda	$4                      ; 0x2004 <__heap_default_limit+0x1004>
    2699: 18           	clc
    269a: 69 38        	adc	#$38
    269c: 85 07        	sta	$7                      ; 0x2007 <__heap_default_limit+0x1007>
    269e: 8a           	txa
    269f: 69 00        	adc	#$0
    26a1: 85 08        	sta	$8                      ; 0x2008 <__heap_default_limit+0x1008>
    26a3: 98           	tya
    26a4: 69 08        	adc	#$8
    26a6: a2 02        	ldx	#$2
    26a8: 64 04        	stz	$4                      ; 0x2004 <__heap_default_limit+0x1004>
    26aa: 64 05        	stz	$5                      ; 0x2005 <__heap_default_limit+0x1005>
    26ac: 64 06        	stz	$6                      ; 0x2006 <__heap_default_limit+0x1006>
    26ae: 85 09        	sta	$9                      ; 0x2009 <__heap_default_limit+0x1009>
    26b0: 64 0a        	stz	$a                      ; 0x200a <__heap_default_limit+0x100a>
    26b2: 86 0b        	stx	$b                      ; 0x200b <__heap_default_limit+0x100b>
    26b4: a2 17        	ldx	#$17
    26b6: a9 00        	lda	#$0
    26b8: 4c c7 7b     	jmp	$7bc7 <lcopy>

000026bb <readblockchain>:
    26bb: 85 4d        	sta	$4d                     ; 0x204d <_fini+0x2>
    26bd: 86 4e        	stx	$4e                     ; 0x204e <_fini+0x3>
    26bf: a6 04        	ldx	$4                      ; 0x2004 <__heap_default_limit+0x1004>
    26c1: 86 48        	stx	$48                     ; 0x2048 <__after_main>
    26c3: a6 05        	ldx	$5                      ; 0x2005 <__heap_default_limit+0x1005>
    26c5: 86 49        	stx	$49                     ; 0x2049 <__after_main+0x1>
    26c7: a6 06        	ldx	$6                      ; 0x2006 <__heap_default_limit+0x1006>
    26c9: 86 4a        	stx	$4a                     ; 0x204a <__after_main+0x2>
    26cb: a6 07        	ldx	$7                      ; 0x2007 <__heap_default_limit+0x1007>
    26cd: 86 4b        	stx	$4b                     ; 0x204b <_fini>
    26cf: a6 08        	ldx	$8                      ; 0x2008 <__heap_default_limit+0x1008>
    26d1: 86 4c        	stx	$4c                     ; 0x204c <_fini+0x1>
    26d3: a6 09        	ldx	$9                      ; 0x2009 <__heap_default_limit+0x1009>
    26d5: a4 0a        	ldy	$a                      ; 0x200a <__heap_default_limit+0x100a>
    26d7: 84 51        	sty	$51                     ; 0x2051 <_fini+0x6>
    26d9: 64 4f        	stz	$4f                     ; 0x204f <_fini+0x4>
    26db: a9 00        	lda	#$0
    26dd: c5 4b        	cmp	$4b                     ; 0x204b <_fini>
    26df: d0 09        	bne	$26ea <readblockchain+0x2f>
    26e1: a4 4f        	ldy	$4f                     ; 0x204f <_fini+0x4>
    26e3: c4 4a        	cpy	$4a                     ; 0x204a <__after_main+0x2>
    26e5: d0 03        	bne	$26ea <readblockchain+0x2f>
    26e7: 4c 48 27     	jmp	$2748 <readblockchain+0x8d>
    26ea: 85 50        	sta	$50                     ; 0x2050 <_fini+0x5>
    26ec: a0 00        	ldy	#$0
    26ee: 84 04        	sty	$4                      ; 0x2004 <__heap_default_limit+0x1004>
    26f0: a0 19        	ldy	#$19
    26f2: 84 05        	sty	$5                      ; 0x2005 <__heap_default_limit+0x1005>
    26f4: a4 51        	ldy	$51                     ; 0x2051 <_fini+0x6>
    26f6: 84 06        	sty	$6                      ; 0x2006 <__heap_default_limit+0x1006>
    26f8: a5 4c        	lda	$4c                     ; 0x204c <_fini+0x1>
    26fa: 20 0a 25     	jsr	$250a <GetOneSector>
    26fd: c9 02        	cmp	#$2
    26ff: 90 03        	bcc	$2704 <readblockchain+0x49>
    2701: 4c 52 27     	jmp	$2752 <readblockchain+0x97>
    2704: ae 00 19     	ldx	$1900                   ; 0x1900 <__heap_default_limit+0x900>
    2707: 86 52        	stx	$52                     ; 0x2052 <_fini+0x7>
    2709: a9 00        	lda	#$0
    270b: 18           	clc
    270c: 65 4d        	adc	$4d                     ; 0x204d <_fini+0x2>
    270e: 85 06        	sta	$6                      ; 0x2006 <__heap_default_limit+0x1006>
    2710: a5 4f        	lda	$4f                     ; 0x204f <_fini+0x4>
    2712: 65 4e        	adc	$4e                     ; 0x204e <_fini+0x3>
    2714: 85 07        	sta	$7                      ; 0x2007 <__heap_default_limit+0x1007>
    2716: a5 50        	lda	$50                     ; 0x2050 <_fini+0x5>
    2718: 65 48        	adc	$48                     ; 0x2048 <__after_main>
    271a: 85 08        	sta	$8                      ; 0x2008 <__heap_default_limit+0x1008>
    271c: a9 00        	lda	#$0
    271e: 65 49        	adc	$49                     ; 0x2049 <__after_main+0x1>
    2720: ae 01 19     	ldx	$1901                   ; 0x1901 <__heap_default_limit+0x901>
    2723: 86 51        	stx	$51                     ; 0x2051 <_fini+0x6>
    2725: 64 04        	stz	$4                      ; 0x2004 <__heap_default_limit+0x1004>
    2727: 64 05        	stz	$5                      ; 0x2005 <__heap_default_limit+0x1005>
    2729: 85 09        	sta	$9                      ; 0x2009 <__heap_default_limit+0x1009>
    272b: 64 0a        	stz	$a                      ; 0x200a <__heap_default_limit+0x100a>
    272d: a2 01        	ldx	#$1
    272f: 86 0b        	stx	$b                      ; 0x200b <__heap_default_limit+0x100b>
    2731: a2 19        	ldx	#$19
    2733: a9 00        	lda	#$0
    2735: 20 c7 7b     	jsr	$7bc7 <lcopy>
    2738: a5 50        	lda	$50                     ; 0x2050 <_fini+0x5>
    273a: a6 52        	ldx	$52                     ; 0x2052 <_fini+0x7>
    273c: e6 4f        	inc	$4f                     ; 0x204f <_fini+0x4>
    273e: d0 01        	bne	$2741 <readblockchain+0x86>
    2740: 1a           	inc
    2741: a4 52        	ldy	$52                     ; 0x2052 <_fini+0x7>
    2743: f0 0a        	beq	$274f <readblockchain+0x94>
    2745: 4c dd 26     	jmp	$26dd <readblockchain+0x22>
    2748: a9 fe        	lda	#$fe
    274a: e0 00        	cpx	#$0
    274c: f0 01        	beq	$274f <readblockchain+0x94>
    274e: 60           	rts
    274f: a9 00        	lda	#$0
    2751: 60           	rts
    2752: a9 ff        	lda	#$ff
    2754: 60           	rts

00002755 <BAMSectorUpdate>:
    2755: a8           	tay
    2756: c9 29        	cmp	#$29
    2758: 90 0e        	bcc	$2768 <BAMSectorUpdate+0x13>
    275a: a4 06        	ldy	$6                      ; 0x2006 <__heap_default_limit+0x1006>
    275c: 84 6d        	sty	$6d                     ; 0x206d <lpstore+0x13>
    275e: a4 07        	ldy	$7                      ; 0x2007 <__heap_default_limit+0x1007>
    2760: 84 6e        	sty	$6e                     ; 0x206e <lpstore+0x14>
    2762: 18           	clc
    2763: 69 d8        	adc	#$d8
    2765: a8           	tay
    2766: 80 08        	bra	$2770 <BAMSectorUpdate+0x1b>
    2768: a5 04        	lda	$4                      ; 0x2004 <__heap_default_limit+0x1004>
    276a: 85 6d        	sta	$6d                     ; 0x206d <lpstore+0x13>
    276c: a5 05        	lda	$5                      ; 0x2005 <__heap_default_limit+0x1005>
    276e: 85 6e        	sta	$6e                     ; 0x206e <lpstore+0x14>
    2770: 88           	dey
    2771: 84 05        	sty	$5                      ; 0x2005 <__heap_default_limit+0x1005>
    2773: a5 08        	lda	$8                      ; 0x2008 <__heap_default_limit+0x1008>
    2775: d0 03        	bne	$277a <BAMSectorUpdate+0x25>
    2777: 4c be 27     	jmp	$27be <BAMSectorUpdate+0x69>
    277a: da           	phx
    277b: 7a           	ply
    277c: e0 08        	cpx	#$8
    277e: 90 03        	bcc	$2783 <BAMSectorUpdate+0x2e>
    2780: 4c 11 28     	jmp	$2811 <BAMSectorUpdate+0xbc>
    2783: a2 00        	ldx	#$0
    2785: 86 73        	stx	$73                     ; 0x2073 <lpstore+0x19>
    2787: a5 05        	lda	$5                      ; 0x2005 <__heap_default_limit+0x1005>
    2789: 85 71        	sta	$71                     ; 0x2071 <lpstore+0x17>
    278b: 0a           	asl
    278c: 85 04        	sta	$4                      ; 0x2004 <__heap_default_limit+0x1004>
    278e: 8a           	txa
    278f: 2a           	rol
    2790: 85 05        	sta	$5                      ; 0x2005 <__heap_default_limit+0x1005>
    2792: a5 04        	lda	$4                      ; 0x2004 <__heap_default_limit+0x1004>
    2794: 0a           	asl
    2795: aa           	tax
    2796: a5 05        	lda	$5                      ; 0x2005 <__heap_default_limit+0x1005>
    2798: 2a           	rol
    2799: 85 06        	sta	$6                      ; 0x2006 <__heap_default_limit+0x1006>
    279b: 18           	clc
    279c: 8a           	txa
    279d: 65 04        	adc	$4                      ; 0x2004 <__heap_default_limit+0x1004>
    279f: 85 04        	sta	$4                      ; 0x2004 <__heap_default_limit+0x1004>
    27a1: a5 06        	lda	$6                      ; 0x2006 <__heap_default_limit+0x1006>
    27a3: 65 05        	adc	$5                      ; 0x2005 <__heap_default_limit+0x1005>
    27a5: 85 05        	sta	$5                      ; 0x2005 <__heap_default_limit+0x1005>
    27a7: 18           	clc
    27a8: a5 04        	lda	$4                      ; 0x2004 <__heap_default_limit+0x1004>
    27aa: 65 6d        	adc	$6d                     ; 0x206d <lpstore+0x13>
    27ac: 85 04        	sta	$4                      ; 0x2004 <__heap_default_limit+0x1004>
    27ae: a5 05        	lda	$5                      ; 0x2005 <__heap_default_limit+0x1005>
    27b0: 65 6e        	adc	$6e                     ; 0x206e <lpstore+0x14>
    27b2: aa           	tax
    27b3: 18           	clc
    27b4: a5 04        	lda	$4                      ; 0x2004 <__heap_default_limit+0x1004>
    27b6: 69 11        	adc	#$11
    27b8: 85 6f        	sta	$6f                     ; 0x206f <lpstore+0x15>
    27ba: 8a           	txa
    27bb: 4c c5 29     	jmp	$29c5 <BAMSectorUpdate+0x270>
    27be: da           	phx
    27bf: 7a           	ply
    27c0: e0 08        	cpx	#$8
    27c2: 90 03        	bcc	$27c7 <BAMSectorUpdate+0x72>
    27c4: 4c 6f 28     	jmp	$286f <BAMSectorUpdate+0x11a>
    27c7: 64 6f        	stz	$6f                     ; 0x206f <lpstore+0x15>
    27c9: a5 05        	lda	$5                      ; 0x2005 <__heap_default_limit+0x1005>
    27cb: 85 71        	sta	$71                     ; 0x2071 <lpstore+0x17>
    27cd: 0a           	asl
    27ce: 85 04        	sta	$4                      ; 0x2004 <__heap_default_limit+0x1004>
    27d0: a9 00        	lda	#$0
    27d2: 2a           	rol
    27d3: 85 05        	sta	$5                      ; 0x2005 <__heap_default_limit+0x1005>
    27d5: a5 04        	lda	$4                      ; 0x2004 <__heap_default_limit+0x1004>
    27d7: 0a           	asl
    27d8: aa           	tax
    27d9: a5 05        	lda	$5                      ; 0x2005 <__heap_default_limit+0x1005>
    27db: 2a           	rol
    27dc: 85 06        	sta	$6                      ; 0x2006 <__heap_default_limit+0x1006>
    27de: 18           	clc
    27df: 8a           	txa
    27e0: 65 04        	adc	$4                      ; 0x2004 <__heap_default_limit+0x1004>
    27e2: 85 04        	sta	$4                      ; 0x2004 <__heap_default_limit+0x1004>
    27e4: a5 06        	lda	$6                      ; 0x2006 <__heap_default_limit+0x1006>
    27e6: 65 05        	adc	$5                      ; 0x2005 <__heap_default_limit+0x1005>
    27e8: 85 07        	sta	$7                      ; 0x2007 <__heap_default_limit+0x1007>
    27ea: 18           	clc
    27eb: a5 04        	lda	$4                      ; 0x2004 <__heap_default_limit+0x1004>
    27ed: 65 6d        	adc	$6d                     ; 0x206d <lpstore+0x13>
    27ef: 85 06        	sta	$6                      ; 0x2006 <__heap_default_limit+0x1006>
    27f1: a6 6d        	ldx	$6d                     ; 0x206d <lpstore+0x13>
    27f3: 86 04        	stx	$4                      ; 0x2004 <__heap_default_limit+0x1004>
    27f5: a6 6e        	ldx	$6e                     ; 0x206e <lpstore+0x14>
    27f7: 86 05        	stx	$5                      ; 0x2005 <__heap_default_limit+0x1005>
    27f9: a6 04        	ldx	$4                      ; 0x2004 <__heap_default_limit+0x1004>
    27fb: 86 73        	stx	$73                     ; 0x2073 <lpstore+0x19>
    27fd: a6 05        	ldx	$5                      ; 0x2005 <__heap_default_limit+0x1005>
    27ff: 86 74        	stx	$74                     ; 0x2074 <lpstore+0x1a>
    2801: a5 07        	lda	$7                      ; 0x2007 <__heap_default_limit+0x1007>
    2803: 65 6e        	adc	$6e                     ; 0x206e <lpstore+0x14>
    2805: aa           	tax
    2806: 18           	clc
    2807: a5 06        	lda	$6                      ; 0x2006 <__heap_default_limit+0x1006>
    2809: 69 11        	adc	#$11
    280b: 85 6d        	sta	$6d                     ; 0x206d <lpstore+0x13>
    280d: 8a           	txa
    280e: 4c 09 2a     	jmp	$2a09 <BAMSectorUpdate+0x2b4>
    2811: c0 10        	cpy	#$10
    2813: a2 01        	ldx	#$1
    2815: b0 02        	bcs	$2819 <BAMSectorUpdate+0xc4>
    2817: a2 00        	ldx	#$0
    2819: 86 08        	stx	$8                      ; 0x2008 <__heap_default_limit+0x1008>
    281b: a5 6d        	lda	$6d                     ; 0x206d <lpstore+0x13>
    281d: 18           	clc
    281e: 69 10        	adc	#$10
    2820: 85 07        	sta	$7                      ; 0x2007 <__heap_default_limit+0x1007>
    2822: a5 6e        	lda	$6e                     ; 0x206e <lpstore+0x14>
    2824: 69 00        	adc	#$0
    2826: 85 06        	sta	$6                      ; 0x2006 <__heap_default_limit+0x1006>
    2828: a6 05        	ldx	$5                      ; 0x2005 <__heap_default_limit+0x1005>
    282a: 86 71        	stx	$71                     ; 0x2071 <lpstore+0x17>
    282c: 06 05        	asl	$5                      ; 0x2005 <__heap_default_limit+0x1005>
    282e: 64 04        	stz	$4                      ; 0x2004 <__heap_default_limit+0x1004>
    2830: 26 04        	rol	$4                      ; 0x2004 <__heap_default_limit+0x1004>
    2832: a5 05        	lda	$5                      ; 0x2005 <__heap_default_limit+0x1005>
    2834: 0a           	asl
    2835: a6 04        	ldx	$4                      ; 0x2004 <__heap_default_limit+0x1004>
    2837: 86 09        	stx	$9                      ; 0x2009 <__heap_default_limit+0x1009>
    2839: 26 09        	rol	$9                      ; 0x2009 <__heap_default_limit+0x1009>
    283b: a6 09        	ldx	$9                      ; 0x2009 <__heap_default_limit+0x1009>
    283d: 86 0a        	stx	$a                      ; 0x200a <__heap_default_limit+0x100a>
    283f: a6 08        	ldx	$8                      ; 0x2008 <__heap_default_limit+0x1008>
    2841: f0 03        	beq	$2846 <BAMSectorUpdate+0xf1>
    2843: 4c d3 28     	jmp	$28d3 <BAMSectorUpdate+0x17e>
    2846: a2 00        	ldx	#$0
    2848: 86 73        	stx	$73                     ; 0x2073 <lpstore+0x19>
    284a: 18           	clc
    284b: aa           	tax
    284c: 98           	tya
    284d: 69 f8        	adc	#$f8
    284f: a8           	tay
    2850: 18           	clc
    2851: 8a           	txa
    2852: 65 05        	adc	$5                      ; 0x2005 <__heap_default_limit+0x1005>
    2854: 85 05        	sta	$5                      ; 0x2005 <__heap_default_limit+0x1005>
    2856: a5 09        	lda	$9                      ; 0x2009 <__heap_default_limit+0x1009>
    2858: 65 04        	adc	$4                      ; 0x2004 <__heap_default_limit+0x1004>
    285a: 85 04        	sta	$4                      ; 0x2004 <__heap_default_limit+0x1004>
    285c: a5 07        	lda	$7                      ; 0x2007 <__heap_default_limit+0x1007>
    285e: 18           	clc
    285f: 65 05        	adc	$5                      ; 0x2005 <__heap_default_limit+0x1005>
    2861: aa           	tax
    2862: a5 06        	lda	$6                      ; 0x2006 <__heap_default_limit+0x1006>
    2864: 65 04        	adc	$4                      ; 0x2004 <__heap_default_limit+0x1004>
    2866: 85 04        	sta	$4                      ; 0x2004 <__heap_default_limit+0x1004>
    2868: 18           	clc
    2869: 8a           	txa
    286a: 69 02        	adc	#$2
    286c: 4c c1 29     	jmp	$29c1 <BAMSectorUpdate+0x26c>
    286f: c0 10        	cpy	#$10
    2871: a2 01        	ldx	#$1
    2873: b0 02        	bcs	$2877 <BAMSectorUpdate+0x122>
    2875: a2 00        	ldx	#$0
    2877: 86 08        	stx	$8                      ; 0x2008 <__heap_default_limit+0x1008>
    2879: 64 6f        	stz	$6f                     ; 0x206f <lpstore+0x15>
    287b: a5 6d        	lda	$6d                     ; 0x206d <lpstore+0x13>
    287d: 18           	clc
    287e: 69 10        	adc	#$10
    2880: 85 07        	sta	$7                      ; 0x2007 <__heap_default_limit+0x1007>
    2882: a5 6e        	lda	$6e                     ; 0x206e <lpstore+0x14>
    2884: 69 00        	adc	#$0
    2886: 85 06        	sta	$6                      ; 0x2006 <__heap_default_limit+0x1006>
    2888: a6 05        	ldx	$5                      ; 0x2005 <__heap_default_limit+0x1005>
    288a: 86 71        	stx	$71                     ; 0x2071 <lpstore+0x17>
    288c: 06 05        	asl	$5                      ; 0x2005 <__heap_default_limit+0x1005>
    288e: 64 04        	stz	$4                      ; 0x2004 <__heap_default_limit+0x1004>
    2890: 26 04        	rol	$4                      ; 0x2004 <__heap_default_limit+0x1004>
    2892: a5 05        	lda	$5                      ; 0x2005 <__heap_default_limit+0x1005>
    2894: 0a           	asl
    2895: a6 04        	ldx	$4                      ; 0x2004 <__heap_default_limit+0x1004>
    2897: 86 09        	stx	$9                      ; 0x2009 <__heap_default_limit+0x1009>
    2899: 26 09        	rol	$9                      ; 0x2009 <__heap_default_limit+0x1009>
    289b: a6 09        	ldx	$9                      ; 0x2009 <__heap_default_limit+0x1009>
    289d: 86 0a        	stx	$a                      ; 0x200a <__heap_default_limit+0x100a>
    289f: a6 08        	ldx	$8                      ; 0x2008 <__heap_default_limit+0x1008>
    28a1: f0 03        	beq	$28a6 <BAMSectorUpdate+0x151>
    28a3: 4c 05 29     	jmp	$2905 <BAMSectorUpdate+0x1b0>
    28a6: a6 6d        	ldx	$6d                     ; 0x206d <lpstore+0x13>
    28a8: 86 73        	stx	$73                     ; 0x2073 <lpstore+0x19>
    28aa: a6 6e        	ldx	$6e                     ; 0x206e <lpstore+0x14>
    28ac: 86 74        	stx	$74                     ; 0x2074 <lpstore+0x1a>
    28ae: 18           	clc
    28af: aa           	tax
    28b0: 98           	tya
    28b1: 69 f8        	adc	#$f8
    28b3: a8           	tay
    28b4: 18           	clc
    28b5: 8a           	txa
    28b6: 65 05        	adc	$5                      ; 0x2005 <__heap_default_limit+0x1005>
    28b8: 85 05        	sta	$5                      ; 0x2005 <__heap_default_limit+0x1005>
    28ba: a5 09        	lda	$9                      ; 0x2009 <__heap_default_limit+0x1009>
    28bc: 65 04        	adc	$4                      ; 0x2004 <__heap_default_limit+0x1004>
    28be: 85 04        	sta	$4                      ; 0x2004 <__heap_default_limit+0x1004>
    28c0: a5 07        	lda	$7                      ; 0x2007 <__heap_default_limit+0x1007>
    28c2: 18           	clc
    28c3: 65 05        	adc	$5                      ; 0x2005 <__heap_default_limit+0x1005>
    28c5: aa           	tax
    28c6: a5 06        	lda	$6                      ; 0x2006 <__heap_default_limit+0x1006>
    28c8: 65 04        	adc	$4                      ; 0x2004 <__heap_default_limit+0x1004>
    28ca: 85 04        	sta	$4                      ; 0x2004 <__heap_default_limit+0x1004>
    28cc: 18           	clc
    28cd: 8a           	txa
    28ce: 69 02        	adc	#$2
    28d0: 4c 05 2a     	jmp	$2a05 <BAMSectorUpdate+0x2b0>
    28d3: 85 09        	sta	$9                      ; 0x2009 <__heap_default_limit+0x1009>
    28d5: c0 18        	cpy	#$18
    28d7: 90 03        	bcc	$28dc <BAMSectorUpdate+0x187>
    28d9: 4c 3b 29     	jmp	$293b <BAMSectorUpdate+0x1e6>
    28dc: a2 00        	ldx	#$0
    28de: 86 73        	stx	$73                     ; 0x2073 <lpstore+0x19>
    28e0: 18           	clc
    28e1: 98           	tya
    28e2: 69 f0        	adc	#$f0
    28e4: a8           	tay
    28e5: a5 09        	lda	$9                      ; 0x2009 <__heap_default_limit+0x1009>
    28e7: 18           	clc
    28e8: 65 05        	adc	$5                      ; 0x2005 <__heap_default_limit+0x1005>
    28ea: 85 05        	sta	$5                      ; 0x2005 <__heap_default_limit+0x1005>
    28ec: a5 0a        	lda	$a                      ; 0x200a <__heap_default_limit+0x100a>
    28ee: 65 04        	adc	$4                      ; 0x2004 <__heap_default_limit+0x1004>
    28f0: 85 04        	sta	$4                      ; 0x2004 <__heap_default_limit+0x1004>
    28f2: a5 07        	lda	$7                      ; 0x2007 <__heap_default_limit+0x1007>
    28f4: 18           	clc
    28f5: 65 05        	adc	$5                      ; 0x2005 <__heap_default_limit+0x1005>
    28f7: aa           	tax
    28f8: a5 06        	lda	$6                      ; 0x2006 <__heap_default_limit+0x1006>
    28fa: 65 04        	adc	$4                      ; 0x2004 <__heap_default_limit+0x1004>
    28fc: 85 04        	sta	$4                      ; 0x2004 <__heap_default_limit+0x1004>
    28fe: 18           	clc
    28ff: 8a           	txa
    2900: 69 03        	adc	#$3
    2902: 4c c1 29     	jmp	$29c1 <BAMSectorUpdate+0x26c>
    2905: 85 09        	sta	$9                      ; 0x2009 <__heap_default_limit+0x1009>
    2907: c0 18        	cpy	#$18
    2909: 90 03        	bcc	$290e <BAMSectorUpdate+0x1b9>
    290b: 4c 6b 29     	jmp	$296b <BAMSectorUpdate+0x216>
    290e: a6 6d        	ldx	$6d                     ; 0x206d <lpstore+0x13>
    2910: 86 73        	stx	$73                     ; 0x2073 <lpstore+0x19>
    2912: a6 6e        	ldx	$6e                     ; 0x206e <lpstore+0x14>
    2914: 86 74        	stx	$74                     ; 0x2074 <lpstore+0x1a>
    2916: 18           	clc
    2917: 98           	tya
    2918: 69 f0        	adc	#$f0
    291a: a8           	tay
    291b: a5 09        	lda	$9                      ; 0x2009 <__heap_default_limit+0x1009>
    291d: 18           	clc
    291e: 65 05        	adc	$5                      ; 0x2005 <__heap_default_limit+0x1005>
    2920: 85 05        	sta	$5                      ; 0x2005 <__heap_default_limit+0x1005>
    2922: a5 0a        	lda	$a                      ; 0x200a <__heap_default_limit+0x100a>
    2924: 65 04        	adc	$4                      ; 0x2004 <__heap_default_limit+0x1004>
    2926: 85 04        	sta	$4                      ; 0x2004 <__heap_default_limit+0x1004>
    2928: a5 07        	lda	$7                      ; 0x2007 <__heap_default_limit+0x1007>
    292a: 18           	clc
    292b: 65 05        	adc	$5                      ; 0x2005 <__heap_default_limit+0x1005>
    292d: aa           	tax
    292e: a5 06        	lda	$6                      ; 0x2006 <__heap_default_limit+0x1006>
    2930: 65 04        	adc	$4                      ; 0x2004 <__heap_default_limit+0x1004>
    2932: 85 04        	sta	$4                      ; 0x2004 <__heap_default_limit+0x1004>
    2934: 18           	clc
    2935: 8a           	txa
    2936: 69 03        	adc	#$3
    2938: 4c 05 2a     	jmp	$2a05 <BAMSectorUpdate+0x2b0>
    293b: a2 00        	ldx	#$0
    293d: 86 73        	stx	$73                     ; 0x2073 <lpstore+0x19>
    293f: c0 20        	cpy	#$20
    2941: 90 03        	bcc	$2946 <BAMSectorUpdate+0x1f1>
    2943: 4c 9f 29     	jmp	$299f <BAMSectorUpdate+0x24a>
    2946: 18           	clc
    2947: 98           	tya
    2948: 69 e8        	adc	#$e8
    294a: a8           	tay
    294b: a5 09        	lda	$9                      ; 0x2009 <__heap_default_limit+0x1009>
    294d: 18           	clc
    294e: 65 05        	adc	$5                      ; 0x2005 <__heap_default_limit+0x1005>
    2950: 85 05        	sta	$5                      ; 0x2005 <__heap_default_limit+0x1005>
    2952: a5 0a        	lda	$a                      ; 0x200a <__heap_default_limit+0x100a>
    2954: 65 04        	adc	$4                      ; 0x2004 <__heap_default_limit+0x1004>
    2956: 85 04        	sta	$4                      ; 0x2004 <__heap_default_limit+0x1004>
    2958: a5 07        	lda	$7                      ; 0x2007 <__heap_default_limit+0x1007>
    295a: 18           	clc
    295b: 65 05        	adc	$5                      ; 0x2005 <__heap_default_limit+0x1005>
    295d: aa           	tax
    295e: a5 06        	lda	$6                      ; 0x2006 <__heap_default_limit+0x1006>
    2960: 65 04        	adc	$4                      ; 0x2004 <__heap_default_limit+0x1004>
    2962: 85 04        	sta	$4                      ; 0x2004 <__heap_default_limit+0x1004>
    2964: 18           	clc
    2965: 8a           	txa
    2966: 69 04        	adc	#$4
    2968: 4c c1 29     	jmp	$29c1 <BAMSectorUpdate+0x26c>
    296b: a6 6d        	ldx	$6d                     ; 0x206d <lpstore+0x13>
    296d: 86 73        	stx	$73                     ; 0x2073 <lpstore+0x19>
    296f: a6 6e        	ldx	$6e                     ; 0x206e <lpstore+0x14>
    2971: 86 74        	stx	$74                     ; 0x2074 <lpstore+0x1a>
    2973: c0 20        	cpy	#$20
    2975: 90 03        	bcc	$297a <BAMSectorUpdate+0x225>
    2977: 4c e3 29     	jmp	$29e3 <BAMSectorUpdate+0x28e>
    297a: 18           	clc
    297b: 98           	tya
    297c: 69 e8        	adc	#$e8
    297e: a8           	tay
    297f: a5 09        	lda	$9                      ; 0x2009 <__heap_default_limit+0x1009>
    2981: 18           	clc
    2982: 65 05        	adc	$5                      ; 0x2005 <__heap_default_limit+0x1005>
    2984: 85 05        	sta	$5                      ; 0x2005 <__heap_default_limit+0x1005>
    2986: a5 0a        	lda	$a                      ; 0x200a <__heap_default_limit+0x100a>
    2988: 65 04        	adc	$4                      ; 0x2004 <__heap_default_limit+0x1004>
    298a: 85 04        	sta	$4                      ; 0x2004 <__heap_default_limit+0x1004>
    298c: a5 07        	lda	$7                      ; 0x2007 <__heap_default_limit+0x1007>
    298e: 18           	clc
    298f: 65 05        	adc	$5                      ; 0x2005 <__heap_default_limit+0x1005>
    2991: aa           	tax
    2992: a5 06        	lda	$6                      ; 0x2006 <__heap_default_limit+0x1006>
    2994: 65 04        	adc	$4                      ; 0x2004 <__heap_default_limit+0x1004>
    2996: 85 04        	sta	$4                      ; 0x2004 <__heap_default_limit+0x1004>
    2998: 18           	clc
    2999: 8a           	txa
    299a: 69 04        	adc	#$4
    299c: 4c 05 2a     	jmp	$2a05 <BAMSectorUpdate+0x2b0>
    299f: 18           	clc
    29a0: 98           	tya
    29a1: 69 e0        	adc	#$e0
    29a3: a8           	tay
    29a4: a5 09        	lda	$9                      ; 0x2009 <__heap_default_limit+0x1009>
    29a6: 18           	clc
    29a7: 65 05        	adc	$5                      ; 0x2005 <__heap_default_limit+0x1005>
    29a9: 85 05        	sta	$5                      ; 0x2005 <__heap_default_limit+0x1005>
    29ab: a5 0a        	lda	$a                      ; 0x200a <__heap_default_limit+0x100a>
    29ad: 65 04        	adc	$4                      ; 0x2004 <__heap_default_limit+0x1004>
    29af: 85 04        	sta	$4                      ; 0x2004 <__heap_default_limit+0x1004>
    29b1: a5 07        	lda	$7                      ; 0x2007 <__heap_default_limit+0x1007>
    29b3: 18           	clc
    29b4: 65 05        	adc	$5                      ; 0x2005 <__heap_default_limit+0x1005>
    29b6: aa           	tax
    29b7: a5 06        	lda	$6                      ; 0x2006 <__heap_default_limit+0x1006>
    29b9: 65 04        	adc	$4                      ; 0x2004 <__heap_default_limit+0x1004>
    29bb: 85 04        	sta	$4                      ; 0x2004 <__heap_default_limit+0x1004>
    29bd: 18           	clc
    29be: 8a           	txa
    29bf: 69 05        	adc	#$5
    29c1: 85 6f        	sta	$6f                     ; 0x206f <lpstore+0x15>
    29c3: a5 04        	lda	$4                      ; 0x2004 <__heap_default_limit+0x1004>
    29c5: 69 00        	adc	#$0
    29c7: 85 70        	sta	$70                     ; 0x2070 <lpstore+0x16>
    29c9: a9 01        	lda	#$1
    29cb: a2 00        	ldx	#$0
    29cd: 84 04        	sty	$4                      ; 0x2004 <__heap_default_limit+0x1004>
    29cf: 20 3d 7e     	jsr	$7e3d <__ashlhi3>
    29d2: a2 ff        	ldx	#$ff
    29d4: 86 72        	stx	$72                     ; 0x2072 <lpstore+0x18>
    29d6: 49 ff        	eor	#$ff
    29d8: 32 6f        	and	($6f),z                 ; 0x206f <lpstore+0x15>
    29da: 92 6f        	sta	($6f),z                 ; 0x206f <lpstore+0x15>
    29dc: a6 73        	ldx	$73                     ; 0x2073 <lpstore+0x19>
    29de: 86 6f        	stx	$6f                     ; 0x206f <lpstore+0x15>
    29e0: 4c 25 2a     	jmp	$2a25 <BAMSectorUpdate+0x2d0>
    29e3: 18           	clc
    29e4: 98           	tya
    29e5: 69 e0        	adc	#$e0
    29e7: a8           	tay
    29e8: a5 09        	lda	$9                      ; 0x2009 <__heap_default_limit+0x1009>
    29ea: 18           	clc
    29eb: 65 05        	adc	$5                      ; 0x2005 <__heap_default_limit+0x1005>
    29ed: 85 05        	sta	$5                      ; 0x2005 <__heap_default_limit+0x1005>
    29ef: a5 0a        	lda	$a                      ; 0x200a <__heap_default_limit+0x100a>
    29f1: 65 04        	adc	$4                      ; 0x2004 <__heap_default_limit+0x1004>
    29f3: 85 04        	sta	$4                      ; 0x2004 <__heap_default_limit+0x1004>
    29f5: a5 07        	lda	$7                      ; 0x2007 <__heap_default_limit+0x1007>
    29f7: 18           	clc
    29f8: 65 05        	adc	$5                      ; 0x2005 <__heap_default_limit+0x1005>
    29fa: aa           	tax
    29fb: a5 06        	lda	$6                      ; 0x2006 <__heap_default_limit+0x1006>
    29fd: 65 04        	adc	$4                      ; 0x2004 <__heap_default_limit+0x1004>
    29ff: 85 04        	sta	$4                      ; 0x2004 <__heap_default_limit+0x1004>
    2a01: 18           	clc
    2a02: 8a           	txa
    2a03: 69 05        	adc	#$5
    2a05: 85 6d        	sta	$6d                     ; 0x206d <lpstore+0x13>
    2a07: a5 04        	lda	$4                      ; 0x2004 <__heap_default_limit+0x1004>
    2a09: 69 00        	adc	#$0
    2a0b: 85 6e        	sta	$6e                     ; 0x206e <lpstore+0x14>
    2a0d: a9 01        	lda	#$1
    2a0f: a2 00        	ldx	#$0
    2a11: 84 04        	sty	$4                      ; 0x2004 <__heap_default_limit+0x1004>
    2a13: a8           	tay
    2a14: 84 72        	sty	$72                     ; 0x2072 <lpstore+0x18>
    2a16: 20 3d 7e     	jsr	$7e3d <__ashlhi3>
    2a19: 12 6d        	ora	($6d),z                 ; 0x206d <lpstore+0x13>
    2a1b: 92 6d        	sta	($6d),z                 ; 0x206d <lpstore+0x13>
    2a1d: a6 73        	ldx	$73                     ; 0x2073 <lpstore+0x19>
    2a1f: 86 6d        	stx	$6d                     ; 0x206d <lpstore+0x13>
    2a21: a6 74        	ldx	$74                     ; 0x2074 <lpstore+0x1a>
    2a23: 86 6e        	stx	$6e                     ; 0x206e <lpstore+0x14>
    2a25: a6 71        	ldx	$71                     ; 0x2071 <lpstore+0x17>
    2a27: 86 04        	stx	$4                      ; 0x2004 <__heap_default_limit+0x1004>
    2a29: 06 04        	asl	$4                      ; 0x2004 <__heap_default_limit+0x1004>
    2a2b: 26 6f        	rol	$6f                     ; 0x206f <lpstore+0x15>
    2a2d: a5 04        	lda	$4                      ; 0x2004 <__heap_default_limit+0x1004>
    2a2f: 0a           	asl
    2a30: a6 6f        	ldx	$6f                     ; 0x206f <lpstore+0x15>
    2a32: 86 05        	stx	$5                      ; 0x2005 <__heap_default_limit+0x1005>
    2a34: 26 05        	rol	$5                      ; 0x2005 <__heap_default_limit+0x1005>
    2a36: 18           	clc
    2a37: 65 04        	adc	$4                      ; 0x2004 <__heap_default_limit+0x1004>
    2a39: aa           	tax
    2a3a: a5 05        	lda	$5                      ; 0x2005 <__heap_default_limit+0x1005>
    2a3c: 65 6f        	adc	$6f                     ; 0x206f <lpstore+0x15>
    2a3e: 85 04        	sta	$4                      ; 0x2004 <__heap_default_limit+0x1004>
    2a40: 18           	clc
    2a41: 8a           	txa
    2a42: 65 6d        	adc	$6d                     ; 0x206d <lpstore+0x13>
    2a44: aa           	tax
    2a45: a5 6e        	lda	$6e                     ; 0x206e <lpstore+0x14>
    2a47: 65 04        	adc	$4                      ; 0x2004 <__heap_default_limit+0x1004>
    2a49: 86 04        	stx	$4                      ; 0x2004 <__heap_default_limit+0x1004>
    2a4b: 85 05        	sta	$5                      ; 0x2005 <__heap_default_limit+0x1005>
    2a4d: a0 10        	ldy	#$10
    2a4f: 18           	clc
    2a50: a5 72        	lda	$72                     ; 0x2072 <lpstore+0x18>
    2a52: 71 04        	adc	($4),y                  ; 0x2004 <__heap_default_limit+0x1004>
    2a54: 91 04        	sta	($4),y                  ; 0x2004 <__heap_default_limit+0x1004>
    2a56: 60           	rts

00002a57 <BAMSectorsFreeBlocks>:
    2a57: 85 09        	sta	$9                      ; 0x2009 <__heap_default_limit+0x1009>
    2a59: 8a           	txa
    2a5a: ca           	dex
    2a5b: 18           	clc
    2a5c: 69 d7        	adc	#$d7
    2a5e: a8           	tay
    2a5f: 8a           	txa
    2a60: 49 ff        	eor	#$ff
    2a62: 18           	clc
    2a63: 65 09        	adc	$9                      ; 0x2009 <__heap_default_limit+0x1009>
    2a65: 85 0e        	sta	$e                      ; 0x200e <__heap_default_limit+0x100e>
    2a67: 64 0f        	stz	$f                      ; 0x200f <__heap_default_limit+0x100f>
    2a69: a9 ff        	lda	#$ff
    2a6b: 69 00        	adc	#$0
    2a6d: 85 0d        	sta	$d                      ; 0x200d <__heap_default_limit+0x100d>
    2a6f: 64 10        	stz	$10                     ; 0x2010 <__heap_default_limit+0x1010>
    2a71: 4c b9 2a     	jmp	$2ab9 <BAMSectorsFreeBlocks+0x62>
    2a74: 0a           	asl
    2a75: 85 09        	sta	$9                      ; 0x2009 <__heap_default_limit+0x1009>
    2a77: a9 00        	lda	#$0
    2a79: 2a           	rol
    2a7a: 85 0a        	sta	$a                      ; 0x200a <__heap_default_limit+0x100a>
    2a7c: a5 09        	lda	$9                      ; 0x2009 <__heap_default_limit+0x1009>
    2a7e: 0a           	asl
    2a7f: a8           	tay
    2a80: a5 0a        	lda	$a                      ; 0x200a <__heap_default_limit+0x100a>
    2a82: 2a           	rol
    2a83: 85 0b        	sta	$b                      ; 0x200b <__heap_default_limit+0x100b>
    2a85: 98           	tya
    2a86: 18           	clc
    2a87: 65 09        	adc	$9                      ; 0x2009 <__heap_default_limit+0x1009>
    2a89: 85 09        	sta	$9                      ; 0x2009 <__heap_default_limit+0x1009>
    2a8b: a5 0b        	lda	$b                      ; 0x200b <__heap_default_limit+0x100b>
    2a8d: 65 0a        	adc	$a                      ; 0x200a <__heap_default_limit+0x100a>
    2a8f: a8           	tay
    2a90: a5 09        	lda	$9                      ; 0x2009 <__heap_default_limit+0x1009>
    2a92: 18           	clc
    2a93: 65 04        	adc	$4                      ; 0x2004 <__heap_default_limit+0x1004>
    2a95: 85 0a        	sta	$a                      ; 0x200a <__heap_default_limit+0x100a>
    2a97: 98           	tya
    2a98: 65 05        	adc	$5                      ; 0x2005 <__heap_default_limit+0x1005>
    2a9a: 85 0b        	sta	$b                      ; 0x200b <__heap_default_limit+0x100b>
    2a9c: 18           	clc
    2a9d: a5 0f        	lda	$f                      ; 0x200f <__heap_default_limit+0x100f>
    2a9f: a0 10        	ldy	#$10
    2aa1: 71 0a        	adc	($a),y                  ; 0x200a <__heap_default_limit+0x100a>
    2aa3: 85 0f        	sta	$f                      ; 0x200f <__heap_default_limit+0x100f>
    2aa5: a5 10        	lda	$10                     ; 0x2010 <__heap_default_limit+0x1010>
    2aa7: 69 00        	adc	#$0
    2aa9: 85 10        	sta	$10                     ; 0x2010 <__heap_default_limit+0x1010>
    2aab: e8           	inx
    2aac: a4 0c        	ldy	$c                      ; 0x200c <__heap_default_limit+0x100c>
    2aae: c8           	iny
    2aaf: a9 ff        	lda	#$ff
    2ab1: c6 0e        	dec	$e                      ; 0x200e <__heap_default_limit+0x100e>
    2ab3: c5 0e        	cmp	$e                      ; 0x200e <__heap_default_limit+0x100e>
    2ab5: d0 02        	bne	$2ab9 <BAMSectorsFreeBlocks+0x62>
    2ab7: c6 0d        	dec	$d                      ; 0x200d <__heap_default_limit+0x100d>
    2ab9: 18           	clc
    2aba: 98           	tya
    2abb: 69 28        	adc	#$28
    2abd: c5 08        	cmp	$8                      ; 0x2008 <__heap_default_limit+0x1008>
    2abf: b0 29        	bcs	$2aea <BAMSectorsFreeBlocks+0x93>
    2ac1: 84 0c        	sty	$c                      ; 0x200c <__heap_default_limit+0x100c>
    2ac3: c0 d8        	cpy	#$d8
    2ac5: 8a           	txa
    2ac6: b0 09        	bcs	$2ad1 <BAMSectorsFreeBlocks+0x7a>
    2ac8: a5 06        	lda	$6                      ; 0x2006 <__heap_default_limit+0x1006>
    2aca: 85 04        	sta	$4                      ; 0x2004 <__heap_default_limit+0x1004>
    2acc: a5 07        	lda	$7                      ; 0x2007 <__heap_default_limit+0x1007>
    2ace: 85 05        	sta	$5                      ; 0x2005 <__heap_default_limit+0x1005>
    2ad0: 98           	tya
    2ad1: a4 0d        	ldy	$d                      ; 0x200d <__heap_default_limit+0x100d>
    2ad3: 48           	pha
    2ad4: a5 0e        	lda	$e                      ; 0x200e <__heap_default_limit+0x100e>
    2ad6: 85 09        	sta	$9                      ; 0x2009 <__heap_default_limit+0x1009>
    2ad8: 68           	pla
    2ad9: c0 00        	cpy	#$0
    2adb: f0 03        	beq	$2ae0 <BAMSectorsFreeBlocks+0x89>
    2add: 4c 74 2a     	jmp	$2a74 <BAMSectorsFreeBlocks+0x1d>
    2ae0: a4 09        	ldy	$9                      ; 0x2009 <__heap_default_limit+0x1009>
    2ae2: f0 03        	beq	$2ae7 <BAMSectorsFreeBlocks+0x90>
    2ae4: 4c 74 2a     	jmp	$2a74 <BAMSectorsFreeBlocks+0x1d>
    2ae7: 4c ab 2a     	jmp	$2aab <BAMSectorsFreeBlocks+0x54>
    2aea: a6 10        	ldx	$10                     ; 0x2010 <__heap_default_limit+0x1010>
    2aec: a5 0f        	lda	$f                      ; 0x200f <__heap_default_limit+0x100f>
    2aee: 60           	rts

00002aef <FreeTracks>:
    2aef: 86 4c        	stx	$4c                     ; 0x204c <_fini+0x1>
    2af1: a6 04        	ldx	$4                      ; 0x2004 <__heap_default_limit+0x1004>
    2af3: 86 4e        	stx	$4e                     ; 0x204e <_fini+0x3>
    2af5: a6 05        	ldx	$5                      ; 0x2005 <__heap_default_limit+0x1005>
    2af7: 86 4d        	stx	$4d                     ; 0x204d <_fini+0x2>
    2af9: a6 06        	ldx	$6                      ; 0x2006 <__heap_default_limit+0x1006>
    2afb: 86 48        	stx	$48                     ; 0x2048 <__after_main>
    2afd: a6 07        	ldx	$7                      ; 0x2007 <__heap_default_limit+0x1007>
    2aff: 86 49        	stx	$49                     ; 0x2049 <__after_main+0x1>
    2b01: a6 08        	ldx	$8                      ; 0x2008 <__heap_default_limit+0x1008>
    2b03: 86 4a        	stx	$4a                     ; 0x204a <__after_main+0x2>
    2b05: a6 09        	ldx	$9                      ; 0x2009 <__heap_default_limit+0x1009>
    2b07: 86 4b        	stx	$4b                     ; 0x204b <_fini>
    2b09: a2 00        	ldx	#$0
    2b0b: 86 4f        	stx	$4f                     ; 0x204f <_fini+0x4>
    2b0d: a2 17        	ldx	#$17
    2b0f: 86 50        	stx	$50                     ; 0x2050 <_fini+0x5>
    2b11: 20 22 26     	jsr	$2622 <GetBAM>
    2b14: a9 00        	lda	#$0
    2b16: 92 48        	sta	($48),z                 ; 0x2048 <__after_main>
    2b18: 92 4a        	sta	($4a),z                 ; 0x204a <__after_main+0x2>
    2b1a: a5 4c        	lda	$4c                     ; 0x204c <_fini+0x1>
    2b1c: a6 4c        	ldx	$4c                     ; 0x204c <_fini+0x1>
    2b1e: ca           	dex
    2b1f: 18           	clc
    2b20: 69 d7        	adc	#$d7
    2b22: 85 09        	sta	$9                      ; 0x2009 <__heap_default_limit+0x1009>
    2b24: a4 4e        	ldy	$4e                     ; 0x204e <_fini+0x3>
    2b26: 84 08        	sty	$8                      ; 0x2008 <__heap_default_limit+0x1008>
    2b28: a0 10        	ldy	#$10
    2b2a: 64 0c        	stz	$c                      ; 0x200c <__heap_default_limit+0x100c>
    2b2c: a9 00        	lda	#$0
    2b2e: 64 0b        	stz	$b                      ; 0x200b <__heap_default_limit+0x100b>
    2b30: 64 0d        	stz	$d                      ; 0x200d <__heap_default_limit+0x100d>
    2b32: e4 4e        	cpx	$4e                     ; 0x204e <_fini+0x3>
    2b34: 90 03        	bcc	$2b39 <FreeTracks+0x4a>
    2b36: 4c f8 2b     	jmp	$2bf8 <FreeTracks+0x109>
    2b39: 85 0e        	sta	$e                      ; 0x200e <__heap_default_limit+0x100e>
    2b3b: e0 28        	cpx	#$28
    2b3d: 86 0a        	stx	$a                      ; 0x200a <__heap_default_limit+0x100a>
    2b3f: 86 05        	stx	$5                      ; 0x2005 <__heap_default_limit+0x1005>
    2b41: a5 0c        	lda	$c                      ; 0x200c <__heap_default_limit+0x100c>
    2b43: 90 0d        	bcc	$2b52 <FreeTracks+0x63>
    2b45: a9 00        	lda	#$0
    2b47: a6 09        	ldx	$9                      ; 0x2009 <__heap_default_limit+0x1009>
    2b49: 86 05        	stx	$5                      ; 0x2005 <__heap_default_limit+0x1005>
    2b4b: aa           	tax
    2b4c: 86 4f        	stx	$4f                     ; 0x204f <_fini+0x4>
    2b4e: a2 18        	ldx	#$18
    2b50: 86 50        	stx	$50                     ; 0x2050 <_fini+0x5>
    2b52: 06 05        	asl	$5                      ; 0x2005 <__heap_default_limit+0x1005>
    2b54: 2a           	rol
    2b55: 85 06        	sta	$6                      ; 0x2006 <__heap_default_limit+0x1006>
    2b57: a5 05        	lda	$5                      ; 0x2005 <__heap_default_limit+0x1005>
    2b59: 0a           	asl
    2b5a: aa           	tax
    2b5b: a5 06        	lda	$6                      ; 0x2006 <__heap_default_limit+0x1006>
    2b5d: 2a           	rol
    2b5e: 85 07        	sta	$7                      ; 0x2007 <__heap_default_limit+0x1007>
    2b60: 8a           	txa
    2b61: 18           	clc
    2b62: 65 05        	adc	$5                      ; 0x2005 <__heap_default_limit+0x1005>
    2b64: 85 05        	sta	$5                      ; 0x2005 <__heap_default_limit+0x1005>
    2b66: a5 07        	lda	$7                      ; 0x2007 <__heap_default_limit+0x1007>
    2b68: 65 06        	adc	$6                      ; 0x2006 <__heap_default_limit+0x1006>
    2b6a: aa           	tax
    2b6b: a5 05        	lda	$5                      ; 0x2005 <__heap_default_limit+0x1005>
    2b6d: 18           	clc
    2b6e: 65 4f        	adc	$4f                     ; 0x204f <_fini+0x4>
    2b70: 85 06        	sta	$6                      ; 0x2006 <__heap_default_limit+0x1006>
    2b72: 8a           	txa
    2b73: 65 50        	adc	$50                     ; 0x2050 <_fini+0x5>
    2b75: 85 07        	sta	$7                      ; 0x2007 <__heap_default_limit+0x1007>
    2b77: b1 06        	lda	($6),y                  ; 0x2006 <__heap_default_limit+0x1006>
    2b79: c9 28        	cmp	#$28
    2b7b: 90 10        	bcc	$2b8d <FreeTracks+0x9e>
    2b7d: b2 48        	lda	($48),z                 ; 0x2048 <__after_main>
    2b7f: d0 07        	bne	$2b88 <FreeTracks+0x99>
    2b81: a5 09        	lda	$9                      ; 0x2009 <__heap_default_limit+0x1009>
    2b83: 18           	clc
    2b84: 69 29        	adc	#$29
    2b86: 92 48        	sta	($48),z                 ; 0x2048 <__after_main>
    2b88: a5 0e        	lda	$e                      ; 0x200e <__heap_default_limit+0x100e>
    2b8a: 1a           	inc
    2b8b: 80 29        	bra	$2bb6 <FreeTracks+0xc7>
    2b8d: a5 0e        	lda	$e                      ; 0x200e <__heap_default_limit+0x100e>
    2b8f: f0 23        	beq	$2bb4 <FreeTracks+0xc5>
    2b91: a5 0a        	lda	$a                      ; 0x200a <__heap_default_limit+0x100a>
    2b93: 92 4a        	sta	($4a),z                 ; 0x204a <__after_main+0x2>
    2b95: 38           	sec
    2b96: f2 48        	sbc	($48),z                 ; 0x2048 <__after_main>
    2b98: aa           	tax
    2b99: a5 0c        	lda	$c                      ; 0x200c <__heap_default_limit+0x100c>
    2b9b: e9 00        	sbc	#$0
    2b9d: 86 07        	stx	$7                      ; 0x2007 <__heap_default_limit+0x1007>
    2b9f: e4 4d        	cpx	$4d                     ; 0x204d <_fini+0x2>
    2ba1: aa           	tax
    2ba2: e9 00        	sbc	#$0
    2ba4: 50 02        	bvc	$2ba8 <FreeTracks+0xb9>
    2ba6: 49 80        	eor	#$80
    2ba8: c9 00        	cmp	#$0
    2baa: 10 16        	bpl	$2bc2 <FreeTracks+0xd3>
    2bac: a9 00        	lda	#$0
    2bae: 92 4a        	sta	($4a),z                 ; 0x204a <__after_main+0x2>
    2bb0: 92 48        	sta	($48),z                 ; 0x2048 <__after_main>
    2bb2: 80 02        	bra	$2bb6 <FreeTracks+0xc7>
    2bb4: a9 00        	lda	#$0
    2bb6: a6 0a        	ldx	$a                      ; 0x200a <__heap_default_limit+0x100a>
    2bb8: e8           	inx
    2bb9: d0 02        	bne	$2bbd <FreeTracks+0xce>
    2bbb: e6 0c        	inc	$c                      ; 0x200c <__heap_default_limit+0x100c>
    2bbd: e6 09        	inc	$9                      ; 0x2009 <__heap_default_limit+0x1009>
    2bbf: 4c 32 2b     	jmp	$2b32 <FreeTracks+0x43>
    2bc2: 38           	sec
    2bc3: a5 0d        	lda	$d                      ; 0x200d <__heap_default_limit+0x100d>
    2bc5: e5 0b        	sbc	$b                      ; 0x200b <__heap_default_limit+0x100b>
    2bc7: 85 05        	sta	$5                      ; 0x2005 <__heap_default_limit+0x1005>
    2bc9: a9 00        	lda	#$0
    2bcb: e9 00        	sbc	#$0
    2bcd: 85 06        	sta	$6                      ; 0x2006 <__heap_default_limit+0x1006>
    2bcf: a5 07        	lda	$7                      ; 0x2007 <__heap_default_limit+0x1007>
    2bd1: c5 05        	cmp	$5                      ; 0x2005 <__heap_default_limit+0x1005>
    2bd3: 8a           	txa
    2bd4: e5 06        	sbc	$6                      ; 0x2006 <__heap_default_limit+0x1006>
    2bd6: 50 02        	bvc	$2bda <FreeTracks+0xeb>
    2bd8: 49 80        	eor	#$80
    2bda: a6 0a        	ldx	$a                      ; 0x200a <__heap_default_limit+0x100a>
    2bdc: c9 00        	cmp	#$0
    2bde: 10 0d        	bpl	$2bed <FreeTracks+0xfe>
    2be0: a5 0d        	lda	$d                      ; 0x200d <__heap_default_limit+0x100d>
    2be2: 92 4a        	sta	($4a),z                 ; 0x204a <__after_main+0x2>
    2be4: a5 0b        	lda	$b                      ; 0x200b <__heap_default_limit+0x100b>
    2be6: 92 48        	sta	($48),z                 ; 0x2048 <__after_main>
    2be8: a9 00        	lda	#$0
    2bea: 4c b8 2b     	jmp	$2bb8 <FreeTracks+0xc9>
    2bed: b2 48        	lda	($48),z                 ; 0x2048 <__after_main>
    2bef: 85 0b        	sta	$b                      ; 0x200b <__heap_default_limit+0x100b>
    2bf1: a9 00        	lda	#$0
    2bf3: 86 0d        	stx	$d                      ; 0x200d <__heap_default_limit+0x100d>
    2bf5: 4c b8 2b     	jmp	$2bb8 <FreeTracks+0xc9>
    2bf8: 18           	clc
    2bf9: 72 48        	adc	($48),z                 ; 0x2048 <__after_main>
    2bfb: aa           	tax
    2bfc: a9 00        	lda	#$0
    2bfe: 69 00        	adc	#$0
    2c00: 85 04        	sta	$4                      ; 0x2004 <__heap_default_limit+0x1004>
    2c02: a0 00        	ldy	#$0
    2c04: c4 04        	cpy	$4                      ; 0x2004 <__heap_default_limit+0x1004>
    2c06: d0 0d        	bne	$2c15 <FreeTracks+0x126>
    2c08: 86 04        	stx	$4                      ; 0x2004 <__heap_default_limit+0x1004>
    2c0a: a6 4e        	ldx	$4e                     ; 0x204e <_fini+0x3>
    2c0c: e4 04        	cpx	$4                      ; 0x2004 <__heap_default_limit+0x1004>
    2c0e: b0 04        	bcs	$2c14 <FreeTracks+0x125>
    2c10: a5 4e        	lda	$4e                     ; 0x204e <_fini+0x3>
    2c12: 92 4a        	sta	($4a),z                 ; 0x204a <__after_main+0x2>
    2c14: 60           	rts
    2c15: c4 04        	cpy	$4                      ; 0x2004 <__heap_default_limit+0x1004>
    2c17: 90 f7        	bcc	$2c10 <FreeTracks+0x121>
    2c19: 80 f9        	bra	$2c14 <FreeTracks+0x125>

00002c1b <FormatPartition>:
    2c1b: a4 18        	ldy	$18                     ; 0x2018 <next_line+0x3>
    2c1d: 5a           	phy
    2c1e: a4 19        	ldy	$19                     ; 0x2019 <next_line+0x4>
    2c20: 5a           	phy
    2c21: 85 48        	sta	$48                     ; 0x2048 <__after_main>
    2c23: 86 4a        	stx	$4a                     ; 0x204a <__after_main+0x2>
    2c25: a6 04        	ldx	$4                      ; 0x2004 <__heap_default_limit+0x1004>
    2c27: 86 18        	stx	$18                     ; 0x2018 <next_line+0x3>
    2c29: a6 05        	ldx	$5                      ; 0x2005 <__heap_default_limit+0x1005>
    2c2b: 86 19        	stx	$19                     ; 0x2019 <next_line+0x4>
    2c2d: a2 18        	ldx	#$18
    2c2f: a0 01        	ldy	#$1
    2c31: 64 04        	stz	$4                      ; 0x2004 <__heap_default_limit+0x1004>
    2c33: 64 05        	stz	$5                      ; 0x2005 <__heap_default_limit+0x1005>
    2c35: 64 06        	stz	$6                      ; 0x2006 <__heap_default_limit+0x1006>
    2c37: 64 07        	stz	$7                      ; 0x2007 <__heap_default_limit+0x1007>
    2c39: 84 08        	sty	$8                      ; 0x2008 <__heap_default_limit+0x1008>
    2c3b: a9 00        	lda	#$0
    2c3d: 20 2e 7c     	jsr	$7c2e <lfill>
    2c40: a2 ff        	ldx	#$ff
    2c42: 8e 01 18     	stx	$1801                   ; 0x1801 <__heap_default_limit+0x801>
    2c45: 9c 00 17     	stz	$1700                   ; 0x1700 <__heap_default_limit+0x700>
    2c48: 8e 01 17     	stx	$1701                   ; 0x1701 <__heap_default_limit+0x701>
    2c4b: a2 44        	ldx	#$44
    2c4d: 8e 02 17     	stx	$1702                   ; 0x1702 <__heap_default_limit+0x702>
    2c50: a0 bb        	ldy	#$bb
    2c52: 8c 03 17     	sty	$1703                   ; 0x1703 <__heap_default_limit+0x703>
    2c55: a0 49        	ldy	#$49
    2c57: 8c 04 17     	sty	$1704                   ; 0x1704 <__heap_default_limit+0x704>
    2c5a: 8e 05 17     	stx	$1705                   ; 0x1705 <__heap_default_limit+0x705>
    2c5d: a2 40        	ldx	#$40
    2c5f: 8e 06 17     	stx	$1706                   ; 0x1706 <__heap_default_limit+0x706>
    2c62: a9 07        	lda	#$7
    2c64: a2 09        	ldx	#$9
    2c66: 64 04        	stz	$4                      ; 0x2004 <__heap_default_limit+0x1004>
    2c68: 64 05        	stz	$5                      ; 0x2005 <__heap_default_limit+0x1005>
    2c6a: 64 06        	stz	$6                      ; 0x2006 <__heap_default_limit+0x1006>
    2c6c: 86 07        	stx	$7                      ; 0x2007 <__heap_default_limit+0x1007>
    2c6e: 64 08        	stz	$8                      ; 0x2008 <__heap_default_limit+0x1008>
    2c70: a2 17        	ldx	#$17
    2c72: 20 2e 7c     	jsr	$7c2e <lfill>
    2c75: 64 05        	stz	$5                      ; 0x2005 <__heap_default_limit+0x1005>
    2c77: a2 28        	ldx	#$28
    2c79: 64 07        	stz	$7                      ; 0x2007 <__heap_default_limit+0x1007>
    2c7b: 80 27        	bra	$2ca4 <FormatPartition+0x89>
    2c7d: a9 28        	lda	#$28
    2c7f: a0 ff        	ldy	#$ff
    2c81: a6 05        	ldx	$5                      ; 0x2005 <__heap_default_limit+0x1005>
    2c83: 9d 10 17     	sta	$1710,x                 ; 0x1710 <__heap_default_limit+0x710>
    2c86: 98           	tya
    2c87: 9d 11 17     	sta	$1711,x                 ; 0x1711 <__heap_default_limit+0x711>
    2c8a: a9 ff        	lda	#$ff
    2c8c: 9d 12 17     	sta	$1712,x                 ; 0x1712 <__heap_default_limit+0x712>
    2c8f: 9d 13 17     	sta	$1713,x                 ; 0x1713 <__heap_default_limit+0x713>
    2c92: 9d 14 17     	sta	$1714,x                 ; 0x1714 <__heap_default_limit+0x714>
    2c95: 9d 15 17     	sta	$1715,x                 ; 0x1715 <__heap_default_limit+0x715>
    2c98: e6 07        	inc	$7                      ; 0x2007 <__heap_default_limit+0x1007>
    2c9a: 18           	clc
    2c9b: a5 05        	lda	$5                      ; 0x2005 <__heap_default_limit+0x1005>
    2c9d: 69 06        	adc	#$6
    2c9f: a6 06        	ldx	$6                      ; 0x2006 <__heap_default_limit+0x1006>
    2ca1: ca           	dex
    2ca2: 85 05        	sta	$5                      ; 0x2005 <__heap_default_limit+0x1005>
    2ca4: 8a           	txa
    2ca5: f0 19        	beq	$2cc0 <FormatPartition+0xa5>
    2ca7: 86 06        	stx	$6                      ; 0x2006 <__heap_default_limit+0x1006>
    2ca9: 18           	clc
    2caa: a5 07        	lda	$7                      ; 0x2007 <__heap_default_limit+0x1007>
    2cac: 69 29        	adc	#$29
    2cae: a6 4a        	ldx	$4a                     ; 0x204a <__after_main+0x2>
    2cb0: 86 04        	stx	$4                      ; 0x2004 <__heap_default_limit+0x1004>
    2cb2: c5 04        	cmp	$4                      ; 0x2004 <__heap_default_limit+0x1004>
    2cb4: f0 03        	beq	$2cb9 <FormatPartition+0x9e>
    2cb6: 4c 7d 2c     	jmp	$2c7d <FormatPartition+0x62>
    2cb9: a0 f0        	ldy	#$f0
    2cbb: a9 24        	lda	#$24
    2cbd: 4c 81 2c     	jmp	$2c81 <FormatPartition+0x66>
    2cc0: 64 49        	stz	$49                     ; 0x2049 <__after_main+0x1>
    2cc2: a2 2f        	ldx	#$2f
    2cc4: 86 04        	stx	$4                      ; 0x2004 <__heap_default_limit+0x1004>
    2cc6: a2 8a        	ldx	#$8a
    2cc8: 86 05        	stx	$5                      ; 0x2005 <__heap_default_limit+0x1005>
    2cca: a2 06        	ldx	#$6
    2ccc: 86 06        	stx	$6                      ; 0x2006 <__heap_default_limit+0x1006>
    2cce: a2 89        	ldx	#$89
    2cd0: 86 07        	stx	$7                      ; 0x2007 <__heap_default_limit+0x1007>
    2cd2: a9 1e        	lda	#$1e
    2cd4: 20 5d 3e     	jsr	$3e5d <progress>
    2cd7: a2 00        	ldx	#$0
    2cd9: 86 04        	stx	$4                      ; 0x2004 <__heap_default_limit+0x1004>
    2cdb: a2 17        	ldx	#$17
    2cdd: 86 05        	stx	$5                      ; 0x2005 <__heap_default_limit+0x1005>
    2cdf: a2 02        	ldx	#$2
    2ce1: 86 06        	stx	$6                      ; 0x2006 <__heap_default_limit+0x1006>
    2ce3: a6 4a        	ldx	$4a                     ; 0x204a <__after_main+0x2>
    2ce5: a5 48        	lda	$48                     ; 0x2048 <__after_main>
    2ce7: 20 4d 25     	jsr	$254d <PutWholeSector>
    2cea: a2 17        	ldx	#$17
    2cec: a9 18        	lda	#$18
    2cee: a0 01        	ldy	#$1
    2cf0: 64 04        	stz	$4                      ; 0x2004 <__heap_default_limit+0x1004>
    2cf2: 64 05        	stz	$5                      ; 0x2005 <__heap_default_limit+0x1005>
    2cf4: 64 06        	stz	$6                      ; 0x2006 <__heap_default_limit+0x1006>
    2cf6: 85 07        	sta	$7                      ; 0x2007 <__heap_default_limit+0x1007>
    2cf8: 64 08        	stz	$8                      ; 0x2008 <__heap_default_limit+0x1008>
    2cfa: 64 09        	stz	$9                      ; 0x2009 <__heap_default_limit+0x1009>
    2cfc: 64 0a        	stz	$a                      ; 0x200a <__heap_default_limit+0x100a>
    2cfe: 84 0b        	sty	$b                      ; 0x200b <__heap_default_limit+0x100b>
    2d00: a9 00        	lda	#$0
    2d02: 20 c7 7b     	jsr	$7bc7 <lcopy>
    2d05: a5 4a        	lda	$4a                     ; 0x204a <__after_main+0x2>
    2d07: 8d 00 18     	sta	$1800                   ; 0x1800 <__heap_default_limit+0x800>
    2d0a: a2 02        	ldx	#$2
    2d0c: 8e 01 18     	stx	$1801                   ; 0x1801 <__heap_default_limit+0x801>
    2d0f: c9 28        	cmp	#$28
    2d11: b0 03        	bcs	$2d16 <FormatPartition+0xfb>
    2d13: 4c 58 2d     	jmp	$2d58 <FormatPartition+0x13d>
    2d16: aa           	tax
    2d17: 18           	clc
    2d18: 69 d8        	adc	#$d8
    2d1a: 85 04        	sta	$4                      ; 0x2004 <__heap_default_limit+0x1004>
    2d1c: a9 00        	lda	#$0
    2d1e: 69 ff        	adc	#$ff
    2d20: 06 04        	asl	$4                      ; 0x2004 <__heap_default_limit+0x1004>
    2d22: 2a           	rol
    2d23: 85 05        	sta	$5                      ; 0x2005 <__heap_default_limit+0x1005>
    2d25: a5 04        	lda	$4                      ; 0x2004 <__heap_default_limit+0x1004>
    2d27: 0a           	asl
    2d28: a4 05        	ldy	$5                      ; 0x2005 <__heap_default_limit+0x1005>
    2d2a: 84 06        	sty	$6                      ; 0x2006 <__heap_default_limit+0x1006>
    2d2c: 26 06        	rol	$6                      ; 0x2006 <__heap_default_limit+0x1006>
    2d2e: 18           	clc
    2d2f: 65 04        	adc	$4                      ; 0x2004 <__heap_default_limit+0x1004>
    2d31: 85 04        	sta	$4                      ; 0x2004 <__heap_default_limit+0x1004>
    2d33: a5 06        	lda	$6                      ; 0x2006 <__heap_default_limit+0x1006>
    2d35: 65 05        	adc	$5                      ; 0x2005 <__heap_default_limit+0x1005>
    2d37: 85 05        	sta	$5                      ; 0x2005 <__heap_default_limit+0x1005>
    2d39: a9 10        	lda	#$10
    2d3b: 18           	clc
    2d3c: 65 04        	adc	$4                      ; 0x2004 <__heap_default_limit+0x1004>
    2d3e: 85 04        	sta	$4                      ; 0x2004 <__heap_default_limit+0x1004>
    2d40: a9 18        	lda	#$18
    2d42: 65 05        	adc	$5                      ; 0x2005 <__heap_default_limit+0x1005>
    2d44: 85 05        	sta	$5                      ; 0x2005 <__heap_default_limit+0x1005>
    2d46: a9 28        	lda	#$28
    2d48: 92 04        	sta	($4),z                  ; 0x2004 <__heap_default_limit+0x1004>
    2d4a: a9 ff        	lda	#$ff
    2d4c: a0 01        	ldy	#$1
    2d4e: 91 04        	sta	($4),y                  ; 0x2004 <__heap_default_limit+0x1004>
    2d50: 8a           	txa
    2d51: e0 28        	cpx	#$28
    2d53: f0 03        	beq	$2d58 <FormatPartition+0x13d>
    2d55: 4c 91 2d     	jmp	$2d91 <FormatPartition+0x176>
    2d58: 85 06        	sta	$6                      ; 0x2006 <__heap_default_limit+0x1006>
    2d5a: 3a           	dec
    2d5b: c9 ff        	cmp	#$ff
    2d5d: d0 02        	bne	$2d61 <FormatPartition+0x146>
    2d5f: c6 49        	dec	$49                     ; 0x2049 <__after_main+0x1>
    2d61: 0a           	asl
    2d62: 85 04        	sta	$4                      ; 0x2004 <__heap_default_limit+0x1004>
    2d64: 26 49        	rol	$49                     ; 0x2049 <__after_main+0x1>
    2d66: 0a           	asl
    2d67: a6 49        	ldx	$49                     ; 0x2049 <__after_main+0x1>
    2d69: 86 05        	stx	$5                      ; 0x2005 <__heap_default_limit+0x1005>
    2d6b: 26 05        	rol	$5                      ; 0x2005 <__heap_default_limit+0x1005>
    2d6d: 18           	clc
    2d6e: 65 04        	adc	$4                      ; 0x2004 <__heap_default_limit+0x1004>
    2d70: 85 04        	sta	$4                      ; 0x2004 <__heap_default_limit+0x1004>
    2d72: a5 05        	lda	$5                      ; 0x2005 <__heap_default_limit+0x1005>
    2d74: 65 49        	adc	$49                     ; 0x2049 <__after_main+0x1>
    2d76: 85 05        	sta	$5                      ; 0x2005 <__heap_default_limit+0x1005>
    2d78: a9 10        	lda	#$10
    2d7a: 18           	clc
    2d7b: 65 04        	adc	$4                      ; 0x2004 <__heap_default_limit+0x1004>
    2d7d: 85 04        	sta	$4                      ; 0x2004 <__heap_default_limit+0x1004>
    2d7f: a9 18        	lda	#$18
    2d81: 65 05        	adc	$5                      ; 0x2005 <__heap_default_limit+0x1005>
    2d83: 85 05        	sta	$5                      ; 0x2005 <__heap_default_limit+0x1005>
    2d85: a9 f0        	lda	#$f0
    2d87: a0 01        	ldy	#$1
    2d89: 91 04        	sta	($4),y                  ; 0x2004 <__heap_default_limit+0x1004>
    2d8b: a9 24        	lda	#$24
    2d8d: 92 04        	sta	($4),z                  ; 0x2004 <__heap_default_limit+0x1004>
    2d8f: a5 06        	lda	$6                      ; 0x2006 <__heap_default_limit+0x1006>
    2d91: a2 17        	ldx	#$17
    2d93: 85 49        	sta	$49                     ; 0x2049 <__after_main+0x1>
    2d95: 64 04        	stz	$4                      ; 0x2004 <__heap_default_limit+0x1004>
    2d97: 64 05        	stz	$5                      ; 0x2005 <__heap_default_limit+0x1005>
    2d99: 64 06        	stz	$6                      ; 0x2006 <__heap_default_limit+0x1006>
    2d9b: 64 07        	stz	$7                      ; 0x2007 <__heap_default_limit+0x1007>
    2d9d: 84 08        	sty	$8                      ; 0x2008 <__heap_default_limit+0x1008>
    2d9f: a9 00        	lda	#$0
    2da1: 20 2e 7c     	jsr	$7c2e <lfill>
    2da4: a6 49        	ldx	$49                     ; 0x2049 <__after_main+0x1>
    2da6: 8e 00 17     	stx	$1700                   ; 0x1700 <__heap_default_limit+0x700>
    2da9: a2 03        	ldx	#$3
    2dab: 8e 01 17     	stx	$1701                   ; 0x1701 <__heap_default_limit+0x701>
    2dae: a2 44        	ldx	#$44
    2db0: 8e 02 17     	stx	$1702                   ; 0x1702 <__heap_default_limit+0x702>
    2db3: a6 18        	ldx	$18                     ; 0x2018 <next_line+0x3>
    2db5: 86 04        	stx	$4                      ; 0x2004 <__heap_default_limit+0x1004>
    2db7: a6 19        	ldx	$19                     ; 0x2019 <next_line+0x4>
    2db9: 86 05        	stx	$5                      ; 0x2005 <__heap_default_limit+0x1005>
    2dbb: a2 04        	ldx	#$4
    2dbd: 86 06        	stx	$6                      ; 0x2006 <__heap_default_limit+0x1006>
    2dbf: a2 17        	ldx	#$17
    2dc1: 86 07        	stx	$7                      ; 0x2007 <__heap_default_limit+0x1007>
    2dc3: a9 10        	lda	#$10
    2dc5: 20 1f 39     	jsr	$391f <strcopy>
    2dc8: a2 a0        	ldx	#$a0
    2dca: 8e 14 17     	stx	$1714                   ; 0x1714 <__heap_default_limit+0x714>
    2dcd: 8e 15 17     	stx	$1715                   ; 0x1715 <__heap_default_limit+0x715>
    2dd0: a0 49        	ldy	#$49
    2dd2: 8c 16 17     	sty	$1716                   ; 0x1716 <__heap_default_limit+0x716>
    2dd5: a9 44        	lda	#$44
    2dd7: 8d 17 17     	sta	$1717                   ; 0x1717 <__heap_default_limit+0x717>
    2dda: 8e 18 17     	stx	$1718                   ; 0x1718 <__heap_default_limit+0x718>
    2ddd: a0 33        	ldy	#$33
    2ddf: 8c 19 17     	sty	$1719                   ; 0x1719 <__heap_default_limit+0x719>
    2de2: 8d 1a 17     	sta	$171a                   ; 0x171a <__heap_default_limit+0x71a>
    2de5: 8e 1b 17     	stx	$171b                   ; 0x171b <__heap_default_limit+0x71b>
    2de8: 8e 1c 17     	stx	$171c                   ; 0x171c <__heap_default_limit+0x71c>
    2deb: a2 2f        	ldx	#$2f
    2ded: 86 04        	stx	$4                      ; 0x2004 <__heap_default_limit+0x1004>
    2def: a2 8a        	ldx	#$8a
    2df1: 86 05        	stx	$5                      ; 0x2005 <__heap_default_limit+0x1005>
    2df3: a2 14        	ldx	#$14
    2df5: 86 06        	stx	$6                      ; 0x2006 <__heap_default_limit+0x1006>
    2df7: a2 89        	ldx	#$89
    2df9: 86 07        	stx	$7                      ; 0x2007 <__heap_default_limit+0x1007>
    2dfb: a9 3c        	lda	#$3c
    2dfd: 20 5d 3e     	jsr	$3e5d <progress>
    2e00: a2 00        	ldx	#$0
    2e02: 86 04        	stx	$4                      ; 0x2004 <__heap_default_limit+0x1004>
    2e04: a2 17        	ldx	#$17
    2e06: 86 05        	stx	$5                      ; 0x2005 <__heap_default_limit+0x1005>
    2e08: 64 06        	stz	$6                      ; 0x2006 <__heap_default_limit+0x1006>
    2e0a: a6 49        	ldx	$49                     ; 0x2049 <__after_main+0x1>
    2e0c: a5 48        	lda	$48                     ; 0x2048 <__after_main>
    2e0e: 20 4d 25     	jsr	$254d <PutWholeSector>
    2e11: fa           	plx
    2e12: 86 19        	stx	$19                     ; 0x2019 <next_line+0x4>
    2e14: fa           	plx
    2e15: 86 18        	stx	$18                     ; 0x2018 <next_line+0x3>
    2e17: 60           	rts

00002e18 <isallocatedBAMtracksector>:
    2e18: 86 06        	stx	$6                      ; 0x2006 <__heap_default_limit+0x1006>
    2e1a: aa           	tax
    2e1b: ca           	dex
    2e1c: 86 09        	stx	$9                      ; 0x2009 <__heap_default_limit+0x1009>
    2e1e: e0 28        	cpx	#$28
    2e20: a2 57        	ldx	#$57
    2e22: 86 04        	stx	$4                      ; 0x2004 <__heap_default_limit+0x1004>
    2e24: a2 8d        	ldx	#$8d
    2e26: 86 05        	stx	$5                      ; 0x2005 <__heap_default_limit+0x1005>
    2e28: 90 0d        	bcc	$2e37 <isallocatedBAMtracksector+0x1f>
    2e2a: 18           	clc
    2e2b: 69 d7        	adc	#$d7
    2e2d: a2 59        	ldx	#$59
    2e2f: 86 04        	stx	$4                      ; 0x2004 <__heap_default_limit+0x1004>
    2e31: a2 8d        	ldx	#$8d
    2e33: 86 05        	stx	$5                      ; 0x2005 <__heap_default_limit+0x1005>
    2e35: 85 09        	sta	$9                      ; 0x2009 <__heap_default_limit+0x1009>
    2e37: b2 04        	lda	($4),z                  ; 0x2004 <__heap_default_limit+0x1004>
    2e39: 85 08        	sta	$8                      ; 0x2008 <__heap_default_limit+0x1008>
    2e3b: a0 01        	ldy	#$1
    2e3d: b1 04        	lda	($4),y                  ; 0x2004 <__heap_default_limit+0x1004>
    2e3f: a6 06        	ldx	$6                      ; 0x2006 <__heap_default_limit+0x1006>
    2e41: e0 08        	cpx	#$8
    2e43: 90 03        	bcc	$2e48 <isallocatedBAMtracksector+0x30>
    2e45: 4c 8a 2e     	jmp	$2e8a <isallocatedBAMtracksector+0x72>
    2e48: 64 04        	stz	$4                      ; 0x2004 <__heap_default_limit+0x1004>
    2e4a: a6 09        	ldx	$9                      ; 0x2009 <__heap_default_limit+0x1009>
    2e4c: 86 05        	stx	$5                      ; 0x2005 <__heap_default_limit+0x1005>
    2e4e: 06 05        	asl	$5                      ; 0x2005 <__heap_default_limit+0x1005>
    2e50: 26 04        	rol	$4                      ; 0x2004 <__heap_default_limit+0x1004>
    2e52: a6 05        	ldx	$5                      ; 0x2005 <__heap_default_limit+0x1005>
    2e54: 86 07        	stx	$7                      ; 0x2007 <__heap_default_limit+0x1007>
    2e56: 06 07        	asl	$7                      ; 0x2007 <__heap_default_limit+0x1007>
    2e58: aa           	tax
    2e59: a4 04        	ldy	$4                      ; 0x2004 <__heap_default_limit+0x1004>
    2e5b: 84 09        	sty	$9                      ; 0x2009 <__heap_default_limit+0x1009>
    2e5d: 26 09        	rol	$9                      ; 0x2009 <__heap_default_limit+0x1009>
    2e5f: 18           	clc
    2e60: a5 07        	lda	$7                      ; 0x2007 <__heap_default_limit+0x1007>
    2e62: 65 05        	adc	$5                      ; 0x2005 <__heap_default_limit+0x1005>
    2e64: 85 05        	sta	$5                      ; 0x2005 <__heap_default_limit+0x1005>
    2e66: a5 09        	lda	$9                      ; 0x2009 <__heap_default_limit+0x1009>
    2e68: 65 04        	adc	$4                      ; 0x2004 <__heap_default_limit+0x1004>
    2e6a: 85 04        	sta	$4                      ; 0x2004 <__heap_default_limit+0x1004>
    2e6c: a5 08        	lda	$8                      ; 0x2008 <__heap_default_limit+0x1008>
    2e6e: 18           	clc
    2e6f: 65 05        	adc	$5                      ; 0x2005 <__heap_default_limit+0x1005>
    2e71: a8           	tay
    2e72: 8a           	txa
    2e73: 65 04        	adc	$4                      ; 0x2004 <__heap_default_limit+0x1004>
    2e75: 84 04        	sty	$4                      ; 0x2004 <__heap_default_limit+0x1004>
    2e77: 85 05        	sta	$5                      ; 0x2005 <__heap_default_limit+0x1005>
    2e79: a0 11        	ldy	#$11
    2e7b: b1 04        	lda	($4),y                  ; 0x2004 <__heap_default_limit+0x1004>
    2e7d: 85 48        	sta	$48                     ; 0x2048 <__after_main>
    2e7f: a9 01        	lda	#$1
    2e81: a2 00        	ldx	#$0
    2e83: a4 06        	ldy	$6                      ; 0x2006 <__heap_default_limit+0x1006>
    2e85: 84 04        	sty	$4                      ; 0x2004 <__heap_default_limit+0x1004>
    2e87: 4c 15 2f     	jmp	$2f15 <isallocatedBAMtracksector+0xfd>
    2e8a: 85 07        	sta	$7                      ; 0x2007 <__heap_default_limit+0x1007>
    2e8c: a6 06        	ldx	$6                      ; 0x2006 <__heap_default_limit+0x1006>
    2e8e: e0 10        	cpx	#$10
    2e90: 90 03        	bcc	$2e95 <isallocatedBAMtracksector+0x7d>
    2e92: 4c cf 2e     	jmp	$2ecf <isallocatedBAMtracksector+0xb7>
    2e95: 64 04        	stz	$4                      ; 0x2004 <__heap_default_limit+0x1004>
    2e97: a6 09        	ldx	$9                      ; 0x2009 <__heap_default_limit+0x1009>
    2e99: 86 05        	stx	$5                      ; 0x2005 <__heap_default_limit+0x1005>
    2e9b: 06 05        	asl	$5                      ; 0x2005 <__heap_default_limit+0x1005>
    2e9d: 26 04        	rol	$4                      ; 0x2004 <__heap_default_limit+0x1004>
    2e9f: a5 05        	lda	$5                      ; 0x2005 <__heap_default_limit+0x1005>
    2ea1: 0a           	asl
    2ea2: a6 04        	ldx	$4                      ; 0x2004 <__heap_default_limit+0x1004>
    2ea4: 86 09        	stx	$9                      ; 0x2009 <__heap_default_limit+0x1009>
    2ea6: 26 09        	rol	$9                      ; 0x2009 <__heap_default_limit+0x1009>
    2ea8: 18           	clc
    2ea9: 65 05        	adc	$5                      ; 0x2005 <__heap_default_limit+0x1005>
    2eab: 85 05        	sta	$5                      ; 0x2005 <__heap_default_limit+0x1005>
    2ead: a5 09        	lda	$9                      ; 0x2009 <__heap_default_limit+0x1009>
    2eaf: 65 04        	adc	$4                      ; 0x2004 <__heap_default_limit+0x1004>
    2eb1: 85 04        	sta	$4                      ; 0x2004 <__heap_default_limit+0x1004>
    2eb3: a5 08        	lda	$8                      ; 0x2008 <__heap_default_limit+0x1008>
    2eb5: 18           	clc
    2eb6: 65 05        	adc	$5                      ; 0x2005 <__heap_default_limit+0x1005>
    2eb8: aa           	tax
    2eb9: a5 07        	lda	$7                      ; 0x2007 <__heap_default_limit+0x1007>
    2ebb: 65 04        	adc	$4                      ; 0x2004 <__heap_default_limit+0x1004>
    2ebd: 86 04        	stx	$4                      ; 0x2004 <__heap_default_limit+0x1004>
    2ebf: 85 05        	sta	$5                      ; 0x2005 <__heap_default_limit+0x1005>
    2ec1: a0 12        	ldy	#$12
    2ec3: b1 04        	lda	($4),y                  ; 0x2004 <__heap_default_limit+0x1004>
    2ec5: 85 48        	sta	$48                     ; 0x2048 <__after_main>
    2ec7: a5 06        	lda	$6                      ; 0x2006 <__heap_default_limit+0x1006>
    2ec9: 18           	clc
    2eca: 69 f8        	adc	#$f8
    2ecc: 4c 0f 2f     	jmp	$2f0f <isallocatedBAMtracksector+0xf7>
    2ecf: a6 06        	ldx	$6                      ; 0x2006 <__heap_default_limit+0x1006>
    2ed1: e0 18        	cpx	#$18
    2ed3: 90 03        	bcc	$2ed8 <isallocatedBAMtracksector+0xc0>
    2ed5: 4c 26 2f     	jmp	$2f26 <isallocatedBAMtracksector+0x10e>
    2ed8: 64 04        	stz	$4                      ; 0x2004 <__heap_default_limit+0x1004>
    2eda: a6 09        	ldx	$9                      ; 0x2009 <__heap_default_limit+0x1009>
    2edc: 86 05        	stx	$5                      ; 0x2005 <__heap_default_limit+0x1005>
    2ede: 06 05        	asl	$5                      ; 0x2005 <__heap_default_limit+0x1005>
    2ee0: 26 04        	rol	$4                      ; 0x2004 <__heap_default_limit+0x1004>
    2ee2: a5 05        	lda	$5                      ; 0x2005 <__heap_default_limit+0x1005>
    2ee4: 0a           	asl
    2ee5: a6 04        	ldx	$4                      ; 0x2004 <__heap_default_limit+0x1004>
    2ee7: 86 09        	stx	$9                      ; 0x2009 <__heap_default_limit+0x1009>
    2ee9: 26 09        	rol	$9                      ; 0x2009 <__heap_default_limit+0x1009>
    2eeb: 18           	clc
    2eec: 65 05        	adc	$5                      ; 0x2005 <__heap_default_limit+0x1005>
    2eee: 85 05        	sta	$5                      ; 0x2005 <__heap_default_limit+0x1005>
    2ef0: a5 09        	lda	$9                      ; 0x2009 <__heap_default_limit+0x1009>
    2ef2: 65 04        	adc	$4                      ; 0x2004 <__heap_default_limit+0x1004>
    2ef4: 85 04        	sta	$4                      ; 0x2004 <__heap_default_limit+0x1004>
    2ef6: a5 08        	lda	$8                      ; 0x2008 <__heap_default_limit+0x1008>
    2ef8: 18           	clc
    2ef9: 65 05        	adc	$5                      ; 0x2005 <__heap_default_limit+0x1005>
    2efb: aa           	tax
    2efc: a5 07        	lda	$7                      ; 0x2007 <__heap_default_limit+0x1007>
    2efe: 65 04        	adc	$4                      ; 0x2004 <__heap_default_limit+0x1004>
    2f00: 86 04        	stx	$4                      ; 0x2004 <__heap_default_limit+0x1004>
    2f02: 85 05        	sta	$5                      ; 0x2005 <__heap_default_limit+0x1005>
    2f04: a0 13        	ldy	#$13
    2f06: b1 04        	lda	($4),y                  ; 0x2004 <__heap_default_limit+0x1004>
    2f08: 85 48        	sta	$48                     ; 0x2048 <__after_main>
    2f0a: a5 06        	lda	$6                      ; 0x2006 <__heap_default_limit+0x1006>
    2f0c: 18           	clc
    2f0d: 69 f0        	adc	#$f0
    2f0f: a2 00        	ldx	#$0
    2f11: 85 04        	sta	$4                      ; 0x2004 <__heap_default_limit+0x1004>
    2f13: a9 01        	lda	#$1
    2f15: 20 3d 7e     	jsr	$7e3d <__ashlhi3>
    2f18: a2 01        	ldx	#$1
    2f1a: a4 48        	ldy	$48                     ; 0x2048 <__after_main>
    2f1c: 84 04        	sty	$4                      ; 0x2004 <__heap_default_limit+0x1004>
    2f1e: 25 04        	and	$4                      ; 0x2004 <__heap_default_limit+0x1004>
    2f20: f0 02        	beq	$2f24 <isallocatedBAMtracksector+0x10c>
    2f22: a2 00        	ldx	#$0
    2f24: 8a           	txa
    2f25: 60           	rts
    2f26: a6 06        	ldx	$6                      ; 0x2006 <__heap_default_limit+0x1006>
    2f28: e0 20        	cpx	#$20
    2f2a: a2 01        	ldx	#$1
    2f2c: b0 02        	bcs	$2f30 <isallocatedBAMtracksector+0x118>
    2f2e: a2 00        	ldx	#$0
    2f30: 86 0a        	stx	$a                      ; 0x200a <__heap_default_limit+0x100a>
    2f32: 64 04        	stz	$4                      ; 0x2004 <__heap_default_limit+0x1004>
    2f34: 18           	clc
    2f35: a6 09        	ldx	$9                      ; 0x2009 <__heap_default_limit+0x1009>
    2f37: 86 05        	stx	$5                      ; 0x2005 <__heap_default_limit+0x1005>
    2f39: a5 08        	lda	$8                      ; 0x2008 <__heap_default_limit+0x1008>
    2f3b: 69 10        	adc	#$10
    2f3d: aa           	tax
    2f3e: a5 07        	lda	$7                      ; 0x2007 <__heap_default_limit+0x1007>
    2f40: 69 00        	adc	#$0
    2f42: a8           	tay
    2f43: 06 05        	asl	$5                      ; 0x2005 <__heap_default_limit+0x1005>
    2f45: 26 04        	rol	$4                      ; 0x2004 <__heap_default_limit+0x1004>
    2f47: a5 05        	lda	$5                      ; 0x2005 <__heap_default_limit+0x1005>
    2f49: 0a           	asl
    2f4a: 5a           	phy
    2f4b: a4 04        	ldy	$4                      ; 0x2004 <__heap_default_limit+0x1004>
    2f4d: 84 07        	sty	$7                      ; 0x2007 <__heap_default_limit+0x1007>
    2f4f: 7a           	ply
    2f50: 26 07        	rol	$7                      ; 0x2007 <__heap_default_limit+0x1007>
    2f52: e6 0a        	inc	$a                      ; 0x200a <__heap_default_limit+0x100a>
    2f54: c6 0a        	dec	$a                      ; 0x200a <__heap_default_limit+0x100a>
    2f56: d0 24        	bne	$2f7c <isallocatedBAMtracksector+0x164>
    2f58: 18           	clc
    2f59: 65 05        	adc	$5                      ; 0x2005 <__heap_default_limit+0x1005>
    2f5b: 85 05        	sta	$5                      ; 0x2005 <__heap_default_limit+0x1005>
    2f5d: a5 07        	lda	$7                      ; 0x2007 <__heap_default_limit+0x1007>
    2f5f: 65 04        	adc	$4                      ; 0x2004 <__heap_default_limit+0x1004>
    2f61: 85 04        	sta	$4                      ; 0x2004 <__heap_default_limit+0x1004>
    2f63: 8a           	txa
    2f64: 18           	clc
    2f65: 65 05        	adc	$5                      ; 0x2005 <__heap_default_limit+0x1005>
    2f67: aa           	tax
    2f68: 98           	tya
    2f69: 65 04        	adc	$4                      ; 0x2004 <__heap_default_limit+0x1004>
    2f6b: 86 04        	stx	$4                      ; 0x2004 <__heap_default_limit+0x1004>
    2f6d: 85 05        	sta	$5                      ; 0x2005 <__heap_default_limit+0x1005>
    2f6f: a0 04        	ldy	#$4
    2f71: b1 04        	lda	($4),y                  ; 0x2004 <__heap_default_limit+0x1004>
    2f73: 85 48        	sta	$48                     ; 0x2048 <__after_main>
    2f75: a5 06        	lda	$6                      ; 0x2006 <__heap_default_limit+0x1006>
    2f77: 18           	clc
    2f78: 69 e8        	adc	#$e8
    2f7a: 80 22        	bra	$2f9e <isallocatedBAMtracksector+0x186>
    2f7c: 18           	clc
    2f7d: 65 05        	adc	$5                      ; 0x2005 <__heap_default_limit+0x1005>
    2f7f: 85 05        	sta	$5                      ; 0x2005 <__heap_default_limit+0x1005>
    2f81: a5 07        	lda	$7                      ; 0x2007 <__heap_default_limit+0x1007>
    2f83: 65 04        	adc	$4                      ; 0x2004 <__heap_default_limit+0x1004>
    2f85: 85 04        	sta	$4                      ; 0x2004 <__heap_default_limit+0x1004>
    2f87: 8a           	txa
    2f88: 18           	clc
    2f89: 65 05        	adc	$5                      ; 0x2005 <__heap_default_limit+0x1005>
    2f8b: aa           	tax
    2f8c: 98           	tya
    2f8d: 65 04        	adc	$4                      ; 0x2004 <__heap_default_limit+0x1004>
    2f8f: 86 04        	stx	$4                      ; 0x2004 <__heap_default_limit+0x1004>
    2f91: 85 05        	sta	$5                      ; 0x2005 <__heap_default_limit+0x1005>
    2f93: a0 05        	ldy	#$5
    2f95: b1 04        	lda	($4),y                  ; 0x2004 <__heap_default_limit+0x1004>
    2f97: 85 48        	sta	$48                     ; 0x2048 <__after_main>
    2f99: a5 06        	lda	$6                      ; 0x2006 <__heap_default_limit+0x1006>
    2f9b: 18           	clc
    2f9c: 69 e0        	adc	#$e0
    2f9e: a2 00        	ldx	#$0
    2fa0: 85 04        	sta	$4                      ; 0x2004 <__heap_default_limit+0x1004>
    2fa2: a9 01        	lda	#$1
    2fa4: 20 3d 7e     	jsr	$7e3d <__ashlhi3>
    2fa7: a6 48        	ldx	$48                     ; 0x2048 <__after_main>
    2fa9: 86 04        	stx	$4                      ; 0x2004 <__heap_default_limit+0x1004>
    2fab: 25 04        	and	$4                      ; 0x2004 <__heap_default_limit+0x1004>
    2fad: a2 01        	ldx	#$1
    2faf: a8           	tay
    2fb0: f0 03        	beq	$2fb5 <isallocatedBAMtracksector+0x19d>
    2fb2: 4c 22 2f     	jmp	$2f22 <isallocatedBAMtracksector+0x10a>
    2fb5: 4c 24 2f     	jmp	$2f24 <isallocatedBAMtracksector+0x10c>

00002fb8 <findnextBAMtracksector>:
    2fb8: 85 62        	sta	$62                     ; 0x2062 <lpstore+0x8>
    2fba: 86 68        	stx	$68                     ; 0x2068 <lpstore+0xe>
    2fbc: a6 09        	ldx	$9                      ; 0x2009 <__heap_default_limit+0x1009>
    2fbe: 86 63        	stx	$63                     ; 0x2063 <lpstore+0x9>
    2fc0: a6 04        	ldx	$4                      ; 0x2004 <__heap_default_limit+0x1004>
    2fc2: 86 64        	stx	$64                     ; 0x2064 <lpstore+0xa>
    2fc4: a6 05        	ldx	$5                      ; 0x2005 <__heap_default_limit+0x1005>
    2fc6: 86 65        	stx	$65                     ; 0x2065 <lpstore+0xb>
    2fc8: a6 06        	ldx	$6                      ; 0x2006 <__heap_default_limit+0x1006>
    2fca: 86 6a        	stx	$6a                     ; 0x206a <lpstore+0x10>
    2fcc: a6 07        	ldx	$7                      ; 0x2007 <__heap_default_limit+0x1007>
    2fce: 86 6b        	stx	$6b                     ; 0x206b <lpstore+0x11>
    2fd0: 64 60        	stz	$60                     ; 0x2060 <lpstore+0x6>
    2fd2: a2 ff        	ldx	#$ff
    2fd4: c6 08        	dec	$8                      ; 0x2008 <__heap_default_limit+0x1008>
    2fd6: e4 08        	cpx	$8                      ; 0x2008 <__heap_default_limit+0x1008>
    2fd8: d0 02        	bne	$2fdc <findnextBAMtracksector+0x24>
    2fda: c6 60        	dec	$60                     ; 0x2060 <lpstore+0x6>
    2fdc: a6 08        	ldx	$8                      ; 0x2008 <__heap_default_limit+0x1008>
    2fde: 86 6c        	stx	$6c                     ; 0x206c <lpstore+0x12>
    2fe0: a4 08        	ldy	$8                      ; 0x2008 <__heap_default_limit+0x1008>
    2fe2: c4 63        	cpy	$63                     ; 0x2063 <lpstore+0x9>
    2fe4: 90 03        	bcc	$2fe9 <findnextBAMtracksector+0x31>
    2fe6: 4c 10 31     	jmp	$3110 <findnextBAMtracksector+0x158>
    2fe9: a6 68        	ldx	$68                     ; 0x2068 <lpstore+0xe>
    2feb: e0 28        	cpx	#$28
    2fed: d0 1d        	bne	$300c <findnextBAMtracksector+0x54>
    2fef: b9 5f 8d     	lda	$8d5f,y                 ; 0x8d5f <BAMsector+0x8>
    2ff2: a6 62        	ldx	$62                     ; 0x2062 <lpstore+0x8>
    2ff4: f0 01        	beq	$2ff7 <findnextBAMtracksector+0x3f>
    2ff6: 1a           	inc
    2ff7: c9 50        	cmp	#$50
    2ff9: 90 25        	bcc	$3020 <findnextBAMtracksector+0x68>
    2ffb: 84 69        	sty	$69                     ; 0x2069 <lpstore+0xf>
    2ffd: a2 57        	ldx	#$57
    2fff: 86 04        	stx	$4                      ; 0x2004 <__heap_default_limit+0x1004>
    3001: a2 8d        	ldx	#$8d
    3003: 86 05        	stx	$5                      ; 0x2005 <__heap_default_limit+0x1005>
    3005: 64 5e        	stz	$5e                     ; 0x205e <lpstore+0x4>
    3007: a9 00        	lda	#$0
    3009: 4c 41 30     	jmp	$3041 <findnextBAMtracksector+0x89>
    300c: a5 62        	lda	$62                     ; 0x2062 <lpstore+0x8>
    300e: d0 0f        	bne	$301f <findnextBAMtracksector+0x67>
    3010: a5 60        	lda	$60                     ; 0x2060 <lpstore+0x6>
    3012: d0 0b        	bne	$301f <findnextBAMtracksector+0x67>
    3014: 84 04        	sty	$4                      ; 0x2004 <__heap_default_limit+0x1004>
    3016: a6 6c        	ldx	$6c                     ; 0x206c <lpstore+0x12>
    3018: e4 04        	cpx	$4                      ; 0x2004 <__heap_default_limit+0x1004>
    301a: d0 03        	bne	$301f <findnextBAMtracksector+0x67>
    301c: 4c 0c 31     	jmp	$310c <findnextBAMtracksector+0x154>
    301f: 98           	tya
    3020: c9 28        	cmp	#$28
    3022: a2 57        	ldx	#$57
    3024: 86 04        	stx	$4                      ; 0x2004 <__heap_default_limit+0x1004>
    3026: a2 8d        	ldx	#$8d
    3028: 86 05        	stx	$5                      ; 0x2005 <__heap_default_limit+0x1005>
    302a: b0 06        	bcs	$3032 <findnextBAMtracksector+0x7a>
    302c: 84 69        	sty	$69                     ; 0x2069 <lpstore+0xf>
    302e: 85 5e        	sta	$5e                     ; 0x205e <lpstore+0x4>
    3030: 80 0f        	bra	$3041 <findnextBAMtracksector+0x89>
    3032: 84 69        	sty	$69                     ; 0x2069 <lpstore+0xf>
    3034: 85 5e        	sta	$5e                     ; 0x205e <lpstore+0x4>
    3036: 18           	clc
    3037: 69 d8        	adc	#$d8
    3039: a2 59        	ldx	#$59
    303b: 86 04        	stx	$4                      ; 0x2004 <__heap_default_limit+0x1004>
    303d: a2 8d        	ldx	#$8d
    303f: 86 05        	stx	$5                      ; 0x2005 <__heap_default_limit+0x1005>
    3041: 0a           	asl
    3042: 85 06        	sta	$6                      ; 0x2006 <__heap_default_limit+0x1006>
    3044: a9 00        	lda	#$0
    3046: 2a           	rol
    3047: 85 07        	sta	$7                      ; 0x2007 <__heap_default_limit+0x1007>
    3049: a5 06        	lda	$6                      ; 0x2006 <__heap_default_limit+0x1006>
    304b: 0a           	asl
    304c: aa           	tax
    304d: a5 07        	lda	$7                      ; 0x2007 <__heap_default_limit+0x1007>
    304f: 2a           	rol
    3050: a8           	tay
    3051: 18           	clc
    3052: 8a           	txa
    3053: 65 06        	adc	$6                      ; 0x2006 <__heap_default_limit+0x1006>
    3055: 85 06        	sta	$6                      ; 0x2006 <__heap_default_limit+0x1006>
    3057: 98           	tya
    3058: 65 07        	adc	$7                      ; 0x2007 <__heap_default_limit+0x1007>
    305a: aa           	tax
    305b: 18           	clc
    305c: a5 06        	lda	$6                      ; 0x2006 <__heap_default_limit+0x1006>
    305e: 72 04        	adc	($4),z                  ; 0x2004 <__heap_default_limit+0x1004>
    3060: 85 66        	sta	$66                     ; 0x2066 <lpstore+0xc>
    3062: a0 01        	ldy	#$1
    3064: 8a           	txa
    3065: 71 04        	adc	($4),y                  ; 0x2004 <__heap_default_limit+0x1004>
    3067: 85 67        	sta	$67                     ; 0x2067 <lpstore+0xd>
    3069: a2 00        	ldx	#$0
    306b: 4c bf 30     	jmp	$30bf <findnextBAMtracksector+0x107>
    306e: e0 10        	cpx	#$10
    3070: b0 0f        	bcs	$3081 <findnextBAMtracksector+0xc9>
    3072: a0 12        	ldy	#$12
    3074: b1 66        	lda	($66),y                 ; 0x2066 <lpstore+0xc>
    3076: 85 5f        	sta	$5f                     ; 0x205f <lpstore+0x5>
    3078: 18           	clc
    3079: 86 61        	stx	$61                     ; 0x2061 <lpstore+0x7>
    307b: 8a           	txa
    307c: 69 f8        	adc	#$f8
    307e: 4c af 30     	jmp	$30af <findnextBAMtracksector+0xf7>
    3081: e0 18        	cpx	#$18
    3083: b0 0e        	bcs	$3093 <findnextBAMtracksector+0xdb>
    3085: a0 13        	ldy	#$13
    3087: b1 66        	lda	($66),y                 ; 0x2066 <lpstore+0xc>
    3089: 85 5f        	sta	$5f                     ; 0x205f <lpstore+0x5>
    308b: 18           	clc
    308c: 86 61        	stx	$61                     ; 0x2061 <lpstore+0x7>
    308e: 8a           	txa
    308f: 69 f0        	adc	#$f0
    3091: 80 1c        	bra	$30af <findnextBAMtracksector+0xf7>
    3093: 86 61        	stx	$61                     ; 0x2061 <lpstore+0x7>
    3095: e0 20        	cpx	#$20
    3097: b0 0c        	bcs	$30a5 <findnextBAMtracksector+0xed>
    3099: a0 14        	ldy	#$14
    309b: b1 66        	lda	($66),y                 ; 0x2066 <lpstore+0xc>
    309d: 85 5f        	sta	$5f                     ; 0x205f <lpstore+0x5>
    309f: 18           	clc
    30a0: 8a           	txa
    30a1: 69 e8        	adc	#$e8
    30a3: 80 0a        	bra	$30af <findnextBAMtracksector+0xf7>
    30a5: a0 15        	ldy	#$15
    30a7: b1 66        	lda	($66),y                 ; 0x2066 <lpstore+0xc>
    30a9: 85 5f        	sta	$5f                     ; 0x205f <lpstore+0x5>
    30ab: 18           	clc
    30ac: 8a           	txa
    30ad: 69 e0        	adc	#$e0
    30af: 85 04        	sta	$4                      ; 0x2004 <__heap_default_limit+0x1004>
    30b1: a2 00        	ldx	#$0
    30b3: a9 01        	lda	#$1
    30b5: 20 3d 7e     	jsr	$7e3d <__ashlhi3>
    30b8: 25 5f        	and	$5f                     ; 0x205f <lpstore+0x5>
    30ba: d0 20        	bne	$30dc <findnextBAMtracksector+0x124>
    30bc: a6 61        	ldx	$61                     ; 0x2061 <lpstore+0x7>
    30be: e8           	inx
    30bf: e0 28        	cpx	#$28
    30c1: f0 13        	beq	$30d6 <findnextBAMtracksector+0x11e>
    30c3: e0 08        	cpx	#$8
    30c5: 90 03        	bcc	$30ca <findnextBAMtracksector+0x112>
    30c7: 4c 6e 30     	jmp	$306e <findnextBAMtracksector+0xb6>
    30ca: a0 11        	ldy	#$11
    30cc: 86 04        	stx	$4                      ; 0x2004 <__heap_default_limit+0x1004>
    30ce: b1 66        	lda	($66),y                 ; 0x2066 <lpstore+0xc>
    30d0: 85 5f        	sta	$5f                     ; 0x205f <lpstore+0x5>
    30d2: 86 61        	stx	$61                     ; 0x2061 <lpstore+0x7>
    30d4: 80 db        	bra	$30b1 <findnextBAMtracksector+0xf9>
    30d6: a4 69        	ldy	$69                     ; 0x2069 <lpstore+0xf>
    30d8: c8           	iny
    30d9: 4c e2 2f     	jmp	$2fe2 <findnextBAMtracksector+0x2a>
    30dc: a2 01        	ldx	#$1
    30de: e6 5e        	inc	$5e                     ; 0x205e <lpstore+0x4>
    30e0: a0 00        	ldy	#$0
    30e2: 84 04        	sty	$4                      ; 0x2004 <__heap_default_limit+0x1004>
    30e4: a0 17        	ldy	#$17
    30e6: 84 05        	sty	$5                      ; 0x2005 <__heap_default_limit+0x1005>
    30e8: a0 00        	ldy	#$0
    30ea: 84 06        	sty	$6                      ; 0x2006 <__heap_default_limit+0x1006>
    30ec: a0 18        	ldy	#$18
    30ee: 84 07        	sty	$7                      ; 0x2007 <__heap_default_limit+0x1007>
    30f0: 86 08        	stx	$8                      ; 0x2008 <__heap_default_limit+0x1008>
    30f2: a6 61        	ldx	$61                     ; 0x2061 <lpstore+0x7>
    30f4: 86 5f        	stx	$5f                     ; 0x205f <lpstore+0x5>
    30f6: a5 5e        	lda	$5e                     ; 0x205e <lpstore+0x4>
    30f8: 20 55 27     	jsr	$2755 <BAMSectorUpdate>
    30fb: a5 5e        	lda	$5e                     ; 0x205e <lpstore+0x4>
    30fd: 92 64        	sta	($64),z                 ; 0x2064 <lpstore+0xa>
    30ff: a6 6a        	ldx	$6a                     ; 0x206a <lpstore+0x10>
    3101: 86 04        	stx	$4                      ; 0x2004 <__heap_default_limit+0x1004>
    3103: a6 6b        	ldx	$6b                     ; 0x206b <lpstore+0x11>
    3105: 86 05        	stx	$5                      ; 0x2005 <__heap_default_limit+0x1005>
    3107: a5 5f        	lda	$5f                     ; 0x205f <lpstore+0x5>
    3109: 92 04        	sta	($4),z                  ; 0x2004 <__heap_default_limit+0x1004>
    310b: 60           	rts
    310c: c8           	iny
    310d: 4c 1f 30     	jmp	$301f <findnextBAMtracksector+0x67>
    3110: a9 ff        	lda	#$ff
    3112: 64 5f        	stz	$5f                     ; 0x205f <lpstore+0x5>
    3114: 80 e7        	bra	$30fd <findnextBAMtracksector+0x145>

00003116 <tracksectorstring>:
    3116: 86 4a        	stx	$4a                     ; 0x204a <__after_main+0x2>
    3118: a2 54        	ldx	#$54
    311a: 8e e0 8d     	stx	$8de0                   ; 0x8de0 <s>
    311d: a2 72        	ldx	#$72
    311f: 8e e1 8d     	stx	$8de1                   ; 0x8de1 <s+0x1>
    3122: a2 61        	ldx	#$61
    3124: 8e e2 8d     	stx	$8de2                   ; 0x8de2 <s+0x2>
    3127: a2 63        	ldx	#$63
    3129: 8e e3 8d     	stx	$8de3                   ; 0x8de3 <s+0x3>
    312c: a2 6b        	ldx	#$6b
    312e: 8e e4 8d     	stx	$8de4                   ; 0x8de4 <s+0x4>
    3131: a2 3a        	ldx	#$3a
    3133: 8e e5 8d     	stx	$8de5                   ; 0x8de5 <s+0x5>
    3136: a2 20        	ldx	#$20
    3138: 8e e6 8d     	stx	$8de6                   ; 0x8de6 <s+0x6>
    313b: a2 49        	ldx	#$49
    313d: a0 00        	ldy	#$0
    313f: 86 04        	stx	$4                      ; 0x2004 <__heap_default_limit+0x1004>
    3141: 84 05        	sty	$5                      ; 0x2005 <__heap_default_limit+0x1005>
    3143: a2 0a        	ldx	#$a
    3145: 20 88 7f     	jsr	$7f88 <__udivmodqi4>
    3148: 18           	clc
    3149: 69 30        	adc	#$30
    314b: aa           	tax
    314c: a5 49        	lda	$49                     ; 0x2049 <__after_main+0x1>
    314e: 8e e7 8d     	stx	$8de7                   ; 0x8de7 <s+0x7>
    3151: 09 30        	ora	#$30
    3153: 8d e8 8d     	sta	$8de8                   ; 0x8de8 <s+0x8>
    3156: a2 53        	ldx	#$53
    3158: 8e ea 8d     	stx	$8dea                   ; 0x8dea <s+0xa>
    315b: a2 65        	ldx	#$65
    315d: 8e eb 8d     	stx	$8deb                   ; 0x8deb <s+0xb>
    3160: a2 63        	ldx	#$63
    3162: 8e ec 8d     	stx	$8dec                   ; 0x8dec <s+0xc>
    3165: a2 74        	ldx	#$74
    3167: 8e ed 8d     	stx	$8ded                   ; 0x8ded <s+0xd>
    316a: a2 6f        	ldx	#$6f
    316c: 8e ee 8d     	stx	$8dee                   ; 0x8dee <s+0xe>
    316f: a2 72        	ldx	#$72
    3171: 8e ef 8d     	stx	$8def                   ; 0x8def <s+0xf>
    3174: a2 3a        	ldx	#$3a
    3176: 8e f0 8d     	stx	$8df0                   ; 0x8df0 <s+0x10>
    3179: a2 20        	ldx	#$20
    317b: 8e e9 8d     	stx	$8de9                   ; 0x8de9 <s+0x9>
    317e: 8e f1 8d     	stx	$8df1                   ; 0x8df1 <s+0x11>
    3181: a2 48        	ldx	#$48
    3183: a0 00        	ldy	#$0
    3185: 86 04        	stx	$4                      ; 0x2004 <__heap_default_limit+0x1004>
    3187: 84 05        	sty	$5                      ; 0x2005 <__heap_default_limit+0x1005>
    3189: a2 0a        	ldx	#$a
    318b: a5 4a        	lda	$4a                     ; 0x204a <__after_main+0x2>
    318d: 20 88 7f     	jsr	$7f88 <__udivmodqi4>
    3190: a6 48        	ldx	$48                     ; 0x2048 <__after_main>
    3192: 18           	clc
    3193: 69 30        	adc	#$30
    3195: 8d f2 8d     	sta	$8df2                   ; 0x8df2 <s+0x12>
    3198: 8a           	txa
    3199: 09 30        	ora	#$30
    319b: 8d f3 8d     	sta	$8df3                   ; 0x8df3 <s+0x13>
    319e: 9c f4 8d     	stz	$8df4                   ; 0x8df4 <s+0x14>
    31a1: 60           	rts

000031a2 <getdirententry>:
    31a2: 86 4c        	stx	$4c                     ; 0x204c <_fini+0x1>
    31a4: 0a           	asl
    31a5: 85 04        	sta	$4                      ; 0x2004 <__heap_default_limit+0x1004>
    31a7: a0 00        	ldy	#$0
    31a9: 98           	tya
    31aa: 2a           	rol
    31ab: 85 05        	sta	$5                      ; 0x2005 <__heap_default_limit+0x1005>
    31ad: 98           	tya
    31ae: 2a           	rol
    31af: 85 06        	sta	$6                      ; 0x2006 <__heap_default_limit+0x1006>
    31b1: a5 04        	lda	$4                      ; 0x2004 <__heap_default_limit+0x1004>
    31b3: 0a           	asl
    31b4: aa           	tax
    31b5: a5 05        	lda	$5                      ; 0x2005 <__heap_default_limit+0x1005>
    31b7: 2a           	rol
    31b8: 85 09        	sta	$9                      ; 0x2009 <__heap_default_limit+0x1009>
    31ba: a5 06        	lda	$6                      ; 0x2006 <__heap_default_limit+0x1006>
    31bc: 85 08        	sta	$8                      ; 0x2008 <__heap_default_limit+0x1008>
    31be: 26 08        	rol	$8                      ; 0x2008 <__heap_default_limit+0x1008>
    31c0: 8a           	txa
    31c1: 0a           	asl
    31c2: 26 09        	rol	$9                      ; 0x2009 <__heap_default_limit+0x1009>
    31c4: 26 08        	rol	$8                      ; 0x2008 <__heap_default_limit+0x1008>
    31c6: 0a           	asl
    31c7: 26 09        	rol	$9                      ; 0x2009 <__heap_default_limit+0x1009>
    31c9: 26 08        	rol	$8                      ; 0x2008 <__heap_default_limit+0x1008>
    31cb: 38           	sec
    31cc: e5 04        	sbc	$4                      ; 0x2004 <__heap_default_limit+0x1004>
    31ce: 85 4d        	sta	$4d                     ; 0x204d <_fini+0x2>
    31d0: a5 09        	lda	$9                      ; 0x2009 <__heap_default_limit+0x1009>
    31d2: e5 05        	sbc	$5                      ; 0x2005 <__heap_default_limit+0x1005>
    31d4: 85 4e        	sta	$4e                     ; 0x204e <_fini+0x3>
    31d6: a5 08        	lda	$8                      ; 0x2008 <__heap_default_limit+0x1008>
    31d8: e5 06        	sbc	$6                      ; 0x2006 <__heap_default_limit+0x1006>
    31da: a2 08        	ldx	#$8
    31dc: 86 53        	stx	$53                     ; 0x2053 <_fini+0x8>
    31de: 09 08        	ora	#$8
    31e0: 85 4f        	sta	$4f                     ; 0x204f <_fini+0x4>
    31e2: 98           	tya
    31e3: 64 51        	stz	$51                     ; 0x2051 <_fini+0x6>
    31e5: aa           	tax
    31e6: 86 04        	stx	$4                      ; 0x2004 <__heap_default_limit+0x1004>
    31e8: c4 04        	cpy	$4                      ; 0x2004 <__heap_default_limit+0x1004>
    31ea: d0 0a        	bne	$31f6 <getdirententry+0x54>
    31ec: 86 52        	stx	$52                     ; 0x2052 <_fini+0x7>
    31ee: a6 53        	ldx	$53                     ; 0x2053 <_fini+0x8>
    31f0: 86 04        	stx	$4                      ; 0x2004 <__heap_default_limit+0x1004>
    31f2: c5 04        	cmp	$4                      ; 0x2004 <__heap_default_limit+0x1004>
    31f4: 80 06        	bra	$31fc <getdirententry+0x5a>
    31f6: 86 52        	stx	$52                     ; 0x2052 <_fini+0x7>
    31f8: 86 04        	stx	$4                      ; 0x2004 <__heap_default_limit+0x1004>
    31fa: c4 04        	cpy	$4                      ; 0x2004 <__heap_default_limit+0x1004>
    31fc: a2 00        	ldx	#$0
    31fe: 86 04        	stx	$4                      ; 0x2004 <__heap_default_limit+0x1004>
    3200: a2 00        	ldx	#$0
    3202: 86 05        	stx	$5                      ; 0x2005 <__heap_default_limit+0x1005>
    3204: 90 03        	bcc	$3209 <getdirententry+0x67>
    3206: 4c 83 32     	jmp	$3283 <getdirententry+0xe1>
    3209: 85 50        	sta	$50                     ; 0x2050 <_fini+0x5>
    320b: 4a           	lsr
    320c: 64 04        	stz	$4                      ; 0x2004 <__heap_default_limit+0x1004>
    320e: 66 04        	ror	$4                      ; 0x2004 <__heap_default_limit+0x1004>
    3210: 4a           	lsr
    3211: 66 04        	ror	$4                      ; 0x2004 <__heap_default_limit+0x1004>
    3213: 4a           	lsr
    3214: 85 05        	sta	$5                      ; 0x2005 <__heap_default_limit+0x1005>
    3216: 66 04        	ror	$4                      ; 0x2004 <__heap_default_limit+0x1004>
    3218: a9 00        	lda	#$0
    321a: 18           	clc
    321b: 65 04        	adc	$4                      ; 0x2004 <__heap_default_limit+0x1004>
    321d: 85 0c        	sta	$c                      ; 0x200c <__heap_default_limit+0x100c>
    321f: a5 4d        	lda	$4d                     ; 0x204d <_fini+0x2>
    3221: 65 05        	adc	$5                      ; 0x2005 <__heap_default_limit+0x1005>
    3223: 85 0d        	sta	$d                      ; 0x200d <__heap_default_limit+0x100d>
    3225: a5 4e        	lda	$4e                     ; 0x204e <_fini+0x3>
    3227: 69 00        	adc	#$0
    3229: 85 04        	sta	$4                      ; 0x2004 <__heap_default_limit+0x1004>
    322b: a5 4f        	lda	$4f                     ; 0x204f <_fini+0x4>
    322d: 69 00        	adc	#$0
    322f: 85 05        	sta	$5                      ; 0x2005 <__heap_default_limit+0x1005>
    3231: a2 c0        	ldx	#$c0
    3233: 86 06        	stx	$6                      ; 0x2006 <__heap_default_limit+0x1006>
    3235: a2 1b        	ldx	#$1b
    3237: 86 07        	stx	$7                      ; 0x2007 <__heap_default_limit+0x1007>
    3239: 64 08        	stz	$8                      ; 0x2008 <__heap_default_limit+0x1008>
    323b: 64 09        	stz	$9                      ; 0x2009 <__heap_default_limit+0x1009>
    323d: a2 20        	ldx	#$20
    323f: 86 0a        	stx	$a                      ; 0x200a <__heap_default_limit+0x100a>
    3241: 64 0b        	stz	$b                      ; 0x200b <__heap_default_limit+0x100b>
    3243: a6 0d        	ldx	$d                      ; 0x200d <__heap_default_limit+0x100d>
    3245: a5 0c        	lda	$c                      ; 0x200c <__heap_default_limit+0x100c>
    3247: 20 c7 7b     	jsr	$7bc7 <lcopy>
    324a: ae c0 1b     	ldx	$1bc0                   ; 0x1bc0 <__heap_default_limit+0xbc0>
    324d: f0 0d        	beq	$325c <getdirententry+0xba>
    324f: 18           	clc
    3250: a5 53        	lda	$53                     ; 0x2053 <_fini+0x8>
    3252: 69 08        	adc	#$8
    3254: 85 53        	sta	$53                     ; 0x2053 <_fini+0x8>
    3256: a5 52        	lda	$52                     ; 0x2052 <_fini+0x7>
    3258: 69 00        	adc	#$0
    325a: 85 52        	sta	$52                     ; 0x2052 <_fini+0x7>
    325c: ae c2 1b     	ldx	$1bc2                   ; 0x1bc2 <__heap_default_limit+0xbc2>
    325f: a0 00        	ldy	#$0
    3261: 8a           	txa
    3262: d0 06        	bne	$326a <getdirententry+0xc8>
    3264: a9 01        	lda	#$1
    3266: 25 2f        	and	$2f                     ; 0x202f <__do_init_stack>
    3268: f0 09        	beq	$3273 <getdirententry+0xd1>
    326a: a6 51        	ldx	$51                     ; 0x2051 <_fini+0x6>
    326c: e4 4c        	cpx	$4c                     ; 0x204c <_fini+0x1>
    326e: f0 0b        	beq	$327b <getdirententry+0xd9>
    3270: e8           	inx
    3271: 86 51        	stx	$51                     ; 0x2051 <_fini+0x6>
    3273: a5 50        	lda	$50                     ; 0x2050 <_fini+0x5>
    3275: 1a           	inc
    3276: a6 52        	ldx	$52                     ; 0x2052 <_fini+0x7>
    3278: 4c e6 31     	jmp	$31e6 <getdirententry+0x44>
    327b: a2 c0        	ldx	#$c0
    327d: 86 04        	stx	$4                      ; 0x2004 <__heap_default_limit+0x1004>
    327f: a2 1b        	ldx	#$1b
    3281: 86 05        	stx	$5                      ; 0x2005 <__heap_default_limit+0x1005>
    3283: 60           	rts

00003284 <writenewdirententry>:
    3284: 8d 74 8f     	sta	$8f74                   ; 0x8f74 <__data_load_start+0x1b5>
    3287: 8a           	txa
    3288: a6 04        	ldx	$4                      ; 0x2004 <__heap_default_limit+0x1004>
    328a: 86 48        	stx	$48                     ; 0x2048 <__after_main>
    328c: a6 05        	ldx	$5                      ; 0x2005 <__heap_default_limit+0x1005>
    328e: 8e 78 8f     	stx	$8f78                   ; 0x8f78 <__data_load_start+0x1b9>
    3291: a6 06        	ldx	$6                      ; 0x2006 <__heap_default_limit+0x1006>
    3293: 8e 79 8f     	stx	$8f79                   ; 0x8f79 <__data_load_start+0x1ba>
    3296: a6 08        	ldx	$8                      ; 0x2008 <__heap_default_limit+0x1008>
    3298: 86 4a        	stx	$4a                     ; 0x204a <__after_main+0x2>
    329a: a6 09        	ldx	$9                      ; 0x2009 <__heap_default_limit+0x1009>
    329c: 86 4b        	stx	$4b                     ; 0x204b <_fini>
    329e: 0a           	asl
    329f: 85 04        	sta	$4                      ; 0x2004 <__heap_default_limit+0x1004>
    32a1: a9 00        	lda	#$0
    32a3: 2a           	rol
    32a4: 85 05        	sta	$5                      ; 0x2005 <__heap_default_limit+0x1005>
    32a6: a9 00        	lda	#$0
    32a8: 2a           	rol
    32a9: 85 06        	sta	$6                      ; 0x2006 <__heap_default_limit+0x1006>
    32ab: a5 04        	lda	$4                      ; 0x2004 <__heap_default_limit+0x1004>
    32ad: 0a           	asl
    32ae: a8           	tay
    32af: a5 05        	lda	$5                      ; 0x2005 <__heap_default_limit+0x1005>
    32b1: 2a           	rol
    32b2: aa           	tax
    32b3: a5 06        	lda	$6                      ; 0x2006 <__heap_default_limit+0x1006>
    32b5: 85 08        	sta	$8                      ; 0x2008 <__heap_default_limit+0x1008>
    32b7: 26 08        	rol	$8                      ; 0x2008 <__heap_default_limit+0x1008>
    32b9: 98           	tya
    32ba: 0a           	asl
    32bb: 86 07        	stx	$7                      ; 0x2007 <__heap_default_limit+0x1007>
    32bd: 26 07        	rol	$7                      ; 0x2007 <__heap_default_limit+0x1007>
    32bf: 26 08        	rol	$8                      ; 0x2008 <__heap_default_limit+0x1008>
    32c1: 0a           	asl
    32c2: 26 07        	rol	$7                      ; 0x2007 <__heap_default_limit+0x1007>
    32c4: 26 08        	rol	$8                      ; 0x2008 <__heap_default_limit+0x1008>
    32c6: 38           	sec
    32c7: e5 04        	sbc	$4                      ; 0x2004 <__heap_default_limit+0x1004>
    32c9: 85 4d        	sta	$4d                     ; 0x204d <_fini+0x2>
    32cb: 8d 76 8f     	sta	$8f76                   ; 0x8f76 <__data_load_start+0x1b7>
    32ce: a5 07        	lda	$7                      ; 0x2007 <__heap_default_limit+0x1007>
    32d0: e5 05        	sbc	$5                      ; 0x2005 <__heap_default_limit+0x1005>
    32d2: 85 58        	sta	$58                     ; 0x2058 <fourbytes+0x2>
    32d4: 8d 75 8f     	sta	$8f75                   ; 0x8f75 <__data_load_start+0x1b6>
    32d7: a5 08        	lda	$8                      ; 0x2008 <__heap_default_limit+0x1008>
    32d9: e5 06        	sbc	$6                      ; 0x2006 <__heap_default_limit+0x1006>
    32db: a2 08        	ldx	#$8
    32dd: 86 55        	stx	$55                     ; 0x2055 <_fini+0xa>
    32df: 09 08        	ora	#$8
    32e1: 85 49        	sta	$49                     ; 0x2049 <__after_main+0x1>
    32e3: 8d 77 8f     	sta	$8f77                   ; 0x8f77 <__data_load_start+0x1b8>
    32e6: a2 03        	ldx	#$3
    32e8: 86 5a        	stx	$5a                     ; 0x205a <lpstore>
    32ea: a6 48        	ldx	$48                     ; 0x2048 <__after_main>
    32ec: 86 5b        	stx	$5b                     ; 0x205b <lpstore+0x1>
    32ee: 64 50        	stz	$50                     ; 0x2050 <_fini+0x5>
    32f0: 64 4c        	stz	$4c                     ; 0x204c <_fini+0x1>
    32f2: a2 00        	ldx	#$0
    32f4: 86 59        	stx	$59                     ; 0x2059 <fourbytes+0x3>
    32f6: 64 51        	stz	$51                     ; 0x2051 <_fini+0x6>
    32f8: 4c 9c 33     	jmp	$339c <writenewdirententry+0x118>
    32fb: 85 04        	sta	$4                      ; 0x2004 <__heap_default_limit+0x1004>
    32fd: c4 04        	cpy	$4                      ; 0x2004 <__heap_default_limit+0x1004>
    32ff: 90 03        	bcc	$3304 <writenewdirententry+0x80>
    3301: 4c e2 33     	jmp	$33e2 <writenewdirententry+0x15e>
    3304: a4 4a        	ldy	$4a                     ; 0x204a <__after_main+0x2>
    3306: 84 4e        	sty	$4e                     ; 0x204e <_fini+0x3>
    3308: a4 4b        	ldy	$4b                     ; 0x204b <_fini>
    330a: 84 4f        	sty	$4f                     ; 0x204f <_fini+0x4>
    330c: a4 48        	ldy	$48                     ; 0x2048 <__after_main>
    330e: 84 4a        	sty	$4a                     ; 0x204a <__after_main+0x2>
    3310: 86 48        	stx	$48                     ; 0x2048 <__after_main>
    3312: a9 00        	lda	#$0
    3314: 18           	clc
    3315: 65 53        	adc	$53                     ; 0x2053 <_fini+0x8>
    3317: 85 0c        	sta	$c                      ; 0x200c <__heap_default_limit+0x100c>
    3319: a5 4d        	lda	$4d                     ; 0x204d <_fini+0x2>
    331b: 65 52        	adc	$52                     ; 0x2052 <_fini+0x7>
    331d: 85 0d        	sta	$d                      ; 0x200d <__heap_default_limit+0x100d>
    331f: a6 58        	ldx	$58                     ; 0x2058 <fourbytes+0x2>
    3321: 8a           	txa
    3322: 69 00        	adc	#$0
    3324: 85 04        	sta	$4                      ; 0x2004 <__heap_default_limit+0x1004>
    3326: a5 49        	lda	$49                     ; 0x2049 <__after_main+0x1>
    3328: 69 00        	adc	#$0
    332a: a6 04        	ldx	$4                      ; 0x2004 <__heap_default_limit+0x1004>
    332c: 86 5c        	stx	$5c                     ; 0x205c <lpstore+0x2>
    332e: 85 5d        	sta	$5d                     ; 0x205d <lpstore+0x3>
    3330: 85 05        	sta	$5                      ; 0x2005 <__heap_default_limit+0x1005>
    3332: a2 e0        	ldx	#$e0
    3334: 86 06        	stx	$6                      ; 0x2006 <__heap_default_limit+0x1006>
    3336: a2 1b        	ldx	#$1b
    3338: 86 07        	stx	$7                      ; 0x2007 <__heap_default_limit+0x1007>
    333a: 64 08        	stz	$8                      ; 0x2008 <__heap_default_limit+0x1008>
    333c: 64 09        	stz	$9                      ; 0x2009 <__heap_default_limit+0x1009>
    333e: a2 20        	ldx	#$20
    3340: 86 0a        	stx	$a                      ; 0x200a <__heap_default_limit+0x100a>
    3342: 64 0b        	stz	$b                      ; 0x200b <__heap_default_limit+0x100b>
    3344: a6 0d        	ldx	$d                      ; 0x200d <__heap_default_limit+0x100d>
    3346: 86 53        	stx	$53                     ; 0x2053 <_fini+0x8>
    3348: a5 0c        	lda	$c                      ; 0x200c <__heap_default_limit+0x100c>
    334a: 85 52        	sta	$52                     ; 0x2052 <_fini+0x7>
    334c: 20 c7 7b     	jsr	$7bc7 <lcopy>
    334f: a6 48        	ldx	$48                     ; 0x2048 <__after_main>
    3351: a5 48        	lda	$48                     ; 0x2048 <__after_main>
    3353: 29 07        	and	#$7
    3355: d0 12        	bne	$3369 <writenewdirententry+0xe5>
    3357: 8a           	txa
    3358: d0 03        	bne	$335d <writenewdirententry+0xd9>
    335a: 4c 9b 35     	jmp	$359b <writenewdirententry+0x317>
    335d: 86 59        	stx	$59                     ; 0x2059 <fourbytes+0x3>
    335f: a6 4c        	ldx	$4c                     ; 0x204c <_fini+0x1>
    3361: 86 5b        	stx	$5b                     ; 0x205b <lpstore+0x1>
    3363: a6 48        	ldx	$48                     ; 0x2048 <__after_main>
    3365: a4 50        	ldy	$50                     ; 0x2050 <_fini+0x5>
    3367: 84 5a        	sty	$5a                     ; 0x205a <lpstore>
    3369: ac e0 1b     	ldy	$1be0                   ; 0x1be0 <__heap_default_limit+0xbe0>
    336c: a5 4a        	lda	$4a                     ; 0x204a <__after_main+0x2>
    336e: 85 48        	sta	$48                     ; 0x2048 <__after_main>
    3370: 98           	tya
    3371: f0 16        	beq	$3389 <writenewdirententry+0x105>
    3373: 18           	clc
    3374: 84 4c        	sty	$4c                     ; 0x204c <_fini+0x1>
    3376: a5 55        	lda	$55                     ; 0x2055 <_fini+0xa>
    3378: 69 08        	adc	#$8
    337a: 85 55        	sta	$55                     ; 0x2055 <_fini+0xa>
    337c: a5 51        	lda	$51                     ; 0x2051 <_fini+0x6>
    337e: 69 00        	adc	#$0
    3380: 85 51        	sta	$51                     ; 0x2051 <_fini+0x6>
    3382: ac e1 1b     	ldy	$1be1                   ; 0x1be1 <__heap_default_limit+0xbe1>
    3385: 84 50        	sty	$50                     ; 0x2050 <_fini+0x5>
    3387: a4 4c        	ldy	$4c                     ; 0x204c <_fini+0x1>
    3389: a5 4e        	lda	$4e                     ; 0x204e <_fini+0x3>
    338b: 85 4a        	sta	$4a                     ; 0x204a <__after_main+0x2>
    338d: a5 4f        	lda	$4f                     ; 0x204f <_fini+0x4>
    338f: 85 4b        	sta	$4b                     ; 0x204b <_fini>
    3391: a9 0f        	lda	#$f
    3393: 2d e2 1b     	and	$1be2                   ; 0x1be2 <__heap_default_limit+0xbe2>
    3396: d0 03        	bne	$339b <writenewdirententry+0x117>
    3398: 4c a2 35     	jmp	$35a2 <writenewdirententry+0x31e>
    339b: e8           	inx
    339c: 8a           	txa
    339d: 4a           	lsr
    339e: a0 01        	ldy	#$1
    33a0: b0 02        	bcs	$33a4 <writenewdirententry+0x120>
    33a2: a0 00        	ldy	#$0
    33a4: 84 07        	sty	$7                      ; 0x2007 <__heap_default_limit+0x1007>
    33a6: 4a           	lsr
    33a7: a0 01        	ldy	#$1
    33a9: b0 02        	bcs	$33ad <writenewdirententry+0x129>
    33ab: a0 00        	ldy	#$0
    33ad: 84 06        	sty	$6                      ; 0x2006 <__heap_default_limit+0x1006>
    33af: 85 04        	sta	$4                      ; 0x2004 <__heap_default_limit+0x1004>
    33b1: 64 53        	stz	$53                     ; 0x2053 <_fini+0x8>
    33b3: a4 07        	ldy	$7                      ; 0x2007 <__heap_default_limit+0x1007>
    33b5: c0 01        	cpy	#$1
    33b7: 66 53        	ror	$53                     ; 0x2053 <_fini+0x8>
    33b9: 46 04        	lsr	$4                      ; 0x2004 <__heap_default_limit+0x1004>
    33bb: a4 04        	ldy	$4                      ; 0x2004 <__heap_default_limit+0x1004>
    33bd: 84 57        	sty	$57                     ; 0x2057 <fourbytes+0x1>
    33bf: a4 06        	ldy	$6                      ; 0x2006 <__heap_default_limit+0x1006>
    33c1: c0 01        	cpy	#$1
    33c3: 66 53        	ror	$53                     ; 0x2053 <_fini+0x8>
    33c5: 4a           	lsr
    33c6: 85 52        	sta	$52                     ; 0x2052 <_fini+0x7>
    33c8: 66 53        	ror	$53                     ; 0x2053 <_fini+0x8>
    33ca: a5 51        	lda	$51                     ; 0x2051 <_fini+0x6>
    33cc: a0 00        	ldy	#$0
    33ce: c4 51        	cpy	$51                     ; 0x2051 <_fini+0x6>
    33d0: f0 03        	beq	$33d5 <writenewdirententry+0x151>
    33d2: 4c fb 32     	jmp	$32fb <writenewdirententry+0x77>
    33d5: 8a           	txa
    33d6: a6 55        	ldx	$55                     ; 0x2055 <_fini+0xa>
    33d8: 86 04        	stx	$4                      ; 0x2004 <__heap_default_limit+0x1004>
    33da: aa           	tax
    33db: c5 04        	cmp	$4                      ; 0x2004 <__heap_default_limit+0x1004>
    33dd: b0 03        	bcs	$33e2 <writenewdirententry+0x15e>
    33df: 4c 04 33     	jmp	$3304 <writenewdirententry+0x80>
    33e2: a6 4c        	ldx	$4c                     ; 0x204c <_fini+0x1>
    33e4: 86 54        	stx	$54                     ; 0x2054 <_fini+0x9>
    33e6: a6 50        	ldx	$50                     ; 0x2050 <_fini+0x5>
    33e8: 8e 73 8f     	stx	$8f73                   ; 0x8f73 <__data_load_start+0x1b4>
    33eb: a6 59        	ldx	$59                     ; 0x2059 <fourbytes+0x3>
    33ed: 86 4c        	stx	$4c                     ; 0x204c <_fini+0x1>
    33ef: 46 4c        	lsr	$4c                     ; 0x204c <_fini+0x1>
    33f1: a9 00        	lda	#$0
    33f3: 6a           	ror
    33f4: 46 4c        	lsr	$4c                     ; 0x204c <_fini+0x1>
    33f6: 6a           	ror
    33f7: a6 4c        	ldx	$4c                     ; 0x204c <_fini+0x1>
    33f9: 86 05        	stx	$5                      ; 0x2005 <__heap_default_limit+0x1005>
    33fb: 46 05        	lsr	$5                      ; 0x2005 <__heap_default_limit+0x1005>
    33fd: 6a           	ror
    33fe: 85 04        	sta	$4                      ; 0x2004 <__heap_default_limit+0x1004>
    3400: a9 00        	lda	#$0
    3402: 18           	clc
    3403: 65 04        	adc	$4                      ; 0x2004 <__heap_default_limit+0x1004>
    3405: 85 51        	sta	$51                     ; 0x2051 <_fini+0x6>
    3407: a5 4d        	lda	$4d                     ; 0x204d <_fini+0x2>
    3409: 8d 7a 8f     	sta	$8f7a                   ; 0x8f7a <__data_load_start+0x1bb>
    340c: a5 05        	lda	$5                      ; 0x2005 <__heap_default_limit+0x1005>
    340e: 65 4d        	adc	$4d                     ; 0x204d <_fini+0x2>
    3410: 85 0c        	sta	$c                      ; 0x200c <__heap_default_limit+0x100c>
    3412: a6 58        	ldx	$58                     ; 0x2058 <fourbytes+0x2>
    3414: 8a           	txa
    3415: 86 50        	stx	$50                     ; 0x2050 <_fini+0x5>
    3417: 69 00        	adc	#$0
    3419: 85 4d        	sta	$4d                     ; 0x204d <_fini+0x2>
    341b: a5 49        	lda	$49                     ; 0x2049 <__after_main+0x1>
    341d: a6 49        	ldx	$49                     ; 0x2049 <__after_main+0x1>
    341f: 86 4e        	stx	$4e                     ; 0x204e <_fini+0x3>
    3421: 69 00        	adc	#$0
    3423: a0 e0        	ldy	#$e0
    3425: a2 1b        	ldx	#$1b
    3427: 48           	pha
    3428: a5 4d        	lda	$4d                     ; 0x204d <_fini+0x2>
    342a: 85 04        	sta	$4                      ; 0x2004 <__heap_default_limit+0x1004>
    342c: 68           	pla
    342d: 85 05        	sta	$5                      ; 0x2005 <__heap_default_limit+0x1005>
    342f: 85 4f        	sta	$4f                     ; 0x204f <_fini+0x4>
    3431: 84 06        	sty	$6                      ; 0x2006 <__heap_default_limit+0x1006>
    3433: 86 07        	stx	$7                      ; 0x2007 <__heap_default_limit+0x1007>
    3435: 64 08        	stz	$8                      ; 0x2008 <__heap_default_limit+0x1008>
    3437: 64 09        	stz	$9                      ; 0x2009 <__heap_default_limit+0x1009>
    3439: a2 20        	ldx	#$20
    343b: 86 0a        	stx	$a                      ; 0x200a <__heap_default_limit+0x100a>
    343d: 64 0b        	stz	$b                      ; 0x200b <__heap_default_limit+0x100b>
    343f: a6 0c        	ldx	$c                      ; 0x200c <__heap_default_limit+0x100c>
    3441: 86 49        	stx	$49                     ; 0x2049 <__after_main+0x1>
    3443: a6 0c        	ldx	$c                      ; 0x200c <__heap_default_limit+0x100c>
    3445: a5 51        	lda	$51                     ; 0x2051 <_fini+0x6>
    3447: 20 c7 7b     	jsr	$7bc7 <lcopy>
    344a: a2 54        	ldx	#$54
    344c: a0 00        	ldy	#$0
    344e: 86 04        	stx	$4                      ; 0x2004 <__heap_default_limit+0x1004>
    3450: 84 05        	sty	$5                      ; 0x2005 <__heap_default_limit+0x1005>
    3452: a2 73        	ldx	#$73
    3454: a0 8f        	ldy	#$8f
    3456: 86 06        	stx	$6                      ; 0x2006 <__heap_default_limit+0x1006>
    3458: 84 07        	sty	$7                      ; 0x2007 <__heap_default_limit+0x1007>
    345a: a9 01        	lda	#$1
    345c: ae 78 8f     	ldx	$8f78                   ; 0x8f78 <__data_load_start+0x1b9>
    345f: 86 08        	stx	$8                      ; 0x2008 <__heap_default_limit+0x1008>
    3461: ae 79 8f     	ldx	$8f79                   ; 0x8f79 <__data_load_start+0x1ba>
    3464: 86 09        	stx	$9                      ; 0x2009 <__heap_default_limit+0x1009>
    3466: a6 48        	ldx	$48                     ; 0x2048 <__after_main>
    3468: 20 b8 2f     	jsr	$2fb8 <findnextBAMtracksector>
    346b: a6 54        	ldx	$54                     ; 0x2054 <_fini+0x9>
    346d: 86 59        	stx	$59                     ; 0x2059 <fourbytes+0x3>
    346f: a6 54        	ldx	$54                     ; 0x2054 <_fini+0x9>
    3471: 8e e0 1b     	stx	$1be0                   ; 0x1be0 <__heap_default_limit+0xbe0>
    3474: ae 73 8f     	ldx	$8f73                   ; 0x8f73 <__data_load_start+0x1b4>
    3477: 8e 78 8f     	stx	$8f78                   ; 0x8f78 <__data_load_start+0x1b9>
    347a: ae 73 8f     	ldx	$8f73                   ; 0x8f73 <__data_load_start+0x1b4>
    347d: 8e e1 1b     	stx	$1be1                   ; 0x1be1 <__heap_default_limit+0xbe1>
    3480: a6 51        	ldx	$51                     ; 0x2051 <_fini+0x6>
    3482: 86 06        	stx	$6                      ; 0x2006 <__heap_default_limit+0x1006>
    3484: a6 49        	ldx	$49                     ; 0x2049 <__after_main+0x1>
    3486: 86 07        	stx	$7                      ; 0x2007 <__heap_default_limit+0x1007>
    3488: a6 4d        	ldx	$4d                     ; 0x204d <_fini+0x2>
    348a: 86 08        	stx	$8                      ; 0x2008 <__heap_default_limit+0x1008>
    348c: a6 4f        	ldx	$4f                     ; 0x204f <_fini+0x4>
    348e: 86 09        	stx	$9                      ; 0x2009 <__heap_default_limit+0x1009>
    3490: 64 04        	stz	$4                      ; 0x2004 <__heap_default_limit+0x1004>
    3492: 64 05        	stz	$5                      ; 0x2005 <__heap_default_limit+0x1005>
    3494: a2 20        	ldx	#$20
    3496: 86 0a        	stx	$a                      ; 0x200a <__heap_default_limit+0x100a>
    3498: 64 0b        	stz	$b                      ; 0x200b <__heap_default_limit+0x100b>
    349a: a2 1b        	ldx	#$1b
    349c: a9 e0        	lda	#$e0
    349e: 20 c7 7b     	jsr	$7bc7 <lcopy>
    34a1: a5 4c        	lda	$4c                     ; 0x204c <_fini+0x1>
    34a3: 4a           	lsr
    34a4: 18           	clc
    34a5: ae 76 8f     	ldx	$8f76                   ; 0x8f76 <__data_load_start+0x1b7>
    34a8: 86 49        	stx	$49                     ; 0x2049 <__after_main+0x1>
    34aa: 65 49        	adc	$49                     ; 0x2049 <__after_main+0x1>
    34ac: 85 0c        	sta	$c                      ; 0x200c <__heap_default_limit+0x100c>
    34ae: a9 00        	lda	#$0
    34b0: ae 75 8f     	ldx	$8f75                   ; 0x8f75 <__data_load_start+0x1b6>
    34b3: 86 4c        	stx	$4c                     ; 0x204c <_fini+0x1>
    34b5: 65 4c        	adc	$4c                     ; 0x204c <_fini+0x1>
    34b7: 85 04        	sta	$4                      ; 0x2004 <__heap_default_limit+0x1004>
    34b9: a9 00        	lda	#$0
    34bb: ae 77 8f     	ldx	$8f77                   ; 0x8f77 <__data_load_start+0x1b8>
    34be: 86 4d        	stx	$4d                     ; 0x204d <_fini+0x2>
    34c0: 65 4d        	adc	$4d                     ; 0x204d <_fini+0x2>
    34c2: a2 19        	ldx	#$19
    34c4: 85 05        	sta	$5                      ; 0x2005 <__heap_default_limit+0x1005>
    34c6: 64 06        	stz	$6                      ; 0x2006 <__heap_default_limit+0x1006>
    34c8: 86 07        	stx	$7                      ; 0x2007 <__heap_default_limit+0x1007>
    34ca: 64 08        	stz	$8                      ; 0x2008 <__heap_default_limit+0x1008>
    34cc: 64 09        	stz	$9                      ; 0x2009 <__heap_default_limit+0x1009>
    34ce: 64 0a        	stz	$a                      ; 0x200a <__heap_default_limit+0x100a>
    34d0: a9 00        	lda	#$0
    34d2: a2 01        	ldx	#$1
    34d4: 86 0b        	stx	$b                      ; 0x200b <__heap_default_limit+0x100b>
    34d6: a6 0c        	ldx	$c                      ; 0x200c <__heap_default_limit+0x100c>
    34d8: 20 c7 7b     	jsr	$7bc7 <lcopy>
    34db: a2 00        	ldx	#$0
    34dd: 86 04        	stx	$4                      ; 0x2004 <__heap_default_limit+0x1004>
    34df: a2 19        	ldx	#$19
    34e1: 86 05        	stx	$5                      ; 0x2005 <__heap_default_limit+0x1005>
    34e3: a6 04        	ldx	$4                      ; 0x2004 <__heap_default_limit+0x1004>
    34e5: 86 55        	stx	$55                     ; 0x2055 <_fini+0xa>
    34e7: a6 05        	ldx	$5                      ; 0x2005 <__heap_default_limit+0x1005>
    34e9: 86 56        	stx	$56                     ; 0x2056 <fourbytes>
    34eb: a6 55        	ldx	$55                     ; 0x2055 <_fini+0xa>
    34ed: 86 04        	stx	$4                      ; 0x2004 <__heap_default_limit+0x1004>
    34ef: a6 56        	ldx	$56                     ; 0x2056 <fourbytes>
    34f1: 86 05        	stx	$5                      ; 0x2005 <__heap_default_limit+0x1005>
    34f3: a6 5a        	ldx	$5a                     ; 0x205a <lpstore>
    34f5: 86 06        	stx	$6                      ; 0x2006 <__heap_default_limit+0x1006>
    34f7: a6 5b        	ldx	$5b                     ; 0x205b <lpstore+0x1>
    34f9: ac 74 8f     	ldy	$8f74                   ; 0x8f74 <__data_load_start+0x1b5>
    34fc: 84 48        	sty	$48                     ; 0x2048 <__after_main>
    34fe: 98           	tya
    34ff: 20 d1 25     	jsr	$25d1 <PutOneSector>
    3502: a9 00        	lda	#$0
    3504: 18           	clc
    3505: 65 53        	adc	$53                     ; 0x2053 <_fini+0x8>
    3507: 85 51        	sta	$51                     ; 0x2051 <_fini+0x6>
    3509: ae 7a 8f     	ldx	$8f7a                   ; 0x8f7a <__data_load_start+0x1bb>
    350c: 8a           	txa
    350d: 65 52        	adc	$52                     ; 0x2052 <_fini+0x7>
    350f: a8           	tay
    3510: a5 50        	lda	$50                     ; 0x2050 <_fini+0x5>
    3512: 69 00        	adc	#$0
    3514: 85 4f        	sta	$4f                     ; 0x204f <_fini+0x4>
    3516: a5 4e        	lda	$4e                     ; 0x204e <_fini+0x3>
    3518: 69 00        	adc	#$0
    351a: a6 4f        	ldx	$4f                     ; 0x204f <_fini+0x4>
    351c: 86 04        	stx	$4                      ; 0x2004 <__heap_default_limit+0x1004>
    351e: 85 05        	sta	$5                      ; 0x2005 <__heap_default_limit+0x1005>
    3520: 85 50        	sta	$50                     ; 0x2050 <_fini+0x5>
    3522: 64 06        	stz	$6                      ; 0x2006 <__heap_default_limit+0x1006>
    3524: 64 07        	stz	$7                      ; 0x2007 <__heap_default_limit+0x1007>
    3526: a2 01        	ldx	#$1
    3528: 86 08        	stx	$8                      ; 0x2008 <__heap_default_limit+0x1008>
    352a: 84 4e        	sty	$4e                     ; 0x204e <_fini+0x3>
    352c: a6 4e        	ldx	$4e                     ; 0x204e <_fini+0x3>
    352e: a5 51        	lda	$51                     ; 0x2051 <_fini+0x6>
    3530: 20 2e 7c     	jsr	$7c2e <lfill>
    3533: a9 00        	lda	#$0
    3535: 92 4a        	sta	($4a),z                 ; 0x204a <__after_main+0x2>
    3537: 3a           	dec
    3538: a0 01        	ldy	#$1
    353a: 91 4a        	sta	($4a),y                 ; 0x204a <__after_main+0x2>
    353c: a6 51        	ldx	$51                     ; 0x2051 <_fini+0x6>
    353e: 86 06        	stx	$6                      ; 0x2006 <__heap_default_limit+0x1006>
    3540: a6 4e        	ldx	$4e                     ; 0x204e <_fini+0x3>
    3542: 86 07        	stx	$7                      ; 0x2007 <__heap_default_limit+0x1007>
    3544: a6 4f        	ldx	$4f                     ; 0x204f <_fini+0x4>
    3546: 86 08        	stx	$8                      ; 0x2008 <__heap_default_limit+0x1008>
    3548: 64 04        	stz	$4                      ; 0x2004 <__heap_default_limit+0x1004>
    354a: 64 05        	stz	$5                      ; 0x2005 <__heap_default_limit+0x1005>
    354c: 64 0b        	stz	$b                      ; 0x200b <__heap_default_limit+0x100b>
    354e: a6 50        	ldx	$50                     ; 0x2050 <_fini+0x5>
    3550: 86 09        	stx	$9                      ; 0x2009 <__heap_default_limit+0x1009>
    3552: a2 20        	ldx	#$20
    3554: 86 0a        	stx	$a                      ; 0x200a <__heap_default_limit+0x100a>
    3556: a6 4b        	ldx	$4b                     ; 0x204b <_fini>
    3558: a5 4a        	lda	$4a                     ; 0x204a <__after_main+0x2>
    355a: 20 c7 7b     	jsr	$7bc7 <lcopy>
    355d: a6 57        	ldx	$57                     ; 0x2057 <fourbytes+0x1>
    355f: 8a           	txa
    3560: 18           	clc
    3561: 65 49        	adc	$49                     ; 0x2049 <__after_main+0x1>
    3563: a8           	tay
    3564: a9 00        	lda	#$0
    3566: 65 4c        	adc	$4c                     ; 0x204c <_fini+0x1>
    3568: 85 04        	sta	$4                      ; 0x2004 <__heap_default_limit+0x1004>
    356a: a9 00        	lda	#$0
    356c: 65 4d        	adc	$4d                     ; 0x204d <_fini+0x2>
    356e: 85 05        	sta	$5                      ; 0x2005 <__heap_default_limit+0x1005>
    3570: a2 19        	ldx	#$19
    3572: 86 07        	stx	$7                      ; 0x2007 <__heap_default_limit+0x1007>
    3574: a2 01        	ldx	#$1
    3576: 86 0b        	stx	$b                      ; 0x200b <__heap_default_limit+0x100b>
    3578: 64 06        	stz	$6                      ; 0x2006 <__heap_default_limit+0x1006>
    357a: 64 08        	stz	$8                      ; 0x2008 <__heap_default_limit+0x1008>
    357c: 64 09        	stz	$9                      ; 0x2009 <__heap_default_limit+0x1009>
    357e: 64 0a        	stz	$a                      ; 0x200a <__heap_default_limit+0x100a>
    3580: a9 00        	lda	#$0
    3582: 5a           	phy
    3583: fa           	plx
    3584: 20 c7 7b     	jsr	$7bc7 <lcopy>
    3587: a6 55        	ldx	$55                     ; 0x2055 <_fini+0xa>
    3589: 86 04        	stx	$4                      ; 0x2004 <__heap_default_limit+0x1004>
    358b: a6 56        	ldx	$56                     ; 0x2056 <fourbytes>
    358d: 86 05        	stx	$5                      ; 0x2005 <__heap_default_limit+0x1005>
    358f: ae 78 8f     	ldx	$8f78                   ; 0x8f78 <__data_load_start+0x1b9>
    3592: 86 06        	stx	$6                      ; 0x2006 <__heap_default_limit+0x1006>
    3594: a6 59        	ldx	$59                     ; 0x2059 <fourbytes+0x3>
    3596: a5 48        	lda	$48                     ; 0x2048 <__after_main>
    3598: 4c d1 25     	jmp	$25d1 <PutOneSector>
    359b: a0 00        	ldy	#$0
    359d: 84 59        	sty	$59                     ; 0x2059 <fourbytes+0x3>
    359f: 4c 69 33     	jmp	$3369 <writenewdirententry+0xe5>
    35a2: 98           	tya
    35a3: 92 4a        	sta	($4a),z                 ; 0x204a <__after_main+0x2>
    35a5: ad e1 1b     	lda	$1be1                   ; 0x1be1 <__heap_default_limit+0xbe1>
    35a8: a0 01        	ldy	#$1
    35aa: 91 4a        	sta	($4a),y                 ; 0x204a <__after_main+0x2>
    35ac: a2 20        	ldx	#$20
    35ae: a4 52        	ldy	$52                     ; 0x2052 <_fini+0x7>
    35b0: 84 06        	sty	$6                      ; 0x2006 <__heap_default_limit+0x1006>
    35b2: a4 53        	ldy	$53                     ; 0x2053 <_fini+0x8>
    35b4: 84 07        	sty	$7                      ; 0x2007 <__heap_default_limit+0x1007>
    35b6: a4 5c        	ldy	$5c                     ; 0x205c <lpstore+0x2>
    35b8: 84 08        	sty	$8                      ; 0x2008 <__heap_default_limit+0x1008>
    35ba: 64 04        	stz	$4                      ; 0x2004 <__heap_default_limit+0x1004>
    35bc: 64 05        	stz	$5                      ; 0x2005 <__heap_default_limit+0x1005>
    35be: a4 5d        	ldy	$5d                     ; 0x205d <lpstore+0x3>
    35c0: 84 09        	sty	$9                      ; 0x2009 <__heap_default_limit+0x1009>
    35c2: 86 0a        	stx	$a                      ; 0x200a <__heap_default_limit+0x100a>
    35c4: 64 0b        	stz	$b                      ; 0x200b <__heap_default_limit+0x100b>
    35c6: a6 4b        	ldx	$4b                     ; 0x204b <_fini>
    35c8: a5 4a        	lda	$4a                     ; 0x204a <__after_main+0x2>
    35ca: 20 c7 7b     	jsr	$7bc7 <lcopy>
    35cd: 18           	clc
    35ce: a6 57        	ldx	$57                     ; 0x2057 <fourbytes+0x1>
    35d0: 8a           	txa
    35d1: ae 76 8f     	ldx	$8f76                   ; 0x8f76 <__data_load_start+0x1b7>
    35d4: 86 04        	stx	$4                      ; 0x2004 <__heap_default_limit+0x1004>
    35d6: 65 04        	adc	$4                      ; 0x2004 <__heap_default_limit+0x1004>
    35d8: a8           	tay
    35d9: a9 00        	lda	#$0
    35db: ae 75 8f     	ldx	$8f75                   ; 0x8f75 <__data_load_start+0x1b6>
    35de: 86 04        	stx	$4                      ; 0x2004 <__heap_default_limit+0x1004>
    35e0: 65 04        	adc	$4                      ; 0x2004 <__heap_default_limit+0x1004>
    35e2: 85 05        	sta	$5                      ; 0x2005 <__heap_default_limit+0x1005>
    35e4: a9 00        	lda	#$0
    35e6: ae 77 8f     	ldx	$8f77                   ; 0x8f77 <__data_load_start+0x1b8>
    35e9: 86 04        	stx	$4                      ; 0x2004 <__heap_default_limit+0x1004>
    35eb: 65 04        	adc	$4                      ; 0x2004 <__heap_default_limit+0x1004>
    35ed: a2 19        	ldx	#$19
    35ef: 5a           	phy
    35f0: a4 05        	ldy	$5                      ; 0x2005 <__heap_default_limit+0x1005>
    35f2: 84 04        	sty	$4                      ; 0x2004 <__heap_default_limit+0x1004>
    35f4: 7a           	ply
    35f5: 85 05        	sta	$5                      ; 0x2005 <__heap_default_limit+0x1005>
    35f7: 86 07        	stx	$7                      ; 0x2007 <__heap_default_limit+0x1007>
    35f9: a2 01        	ldx	#$1
    35fb: 86 0b        	stx	$b                      ; 0x200b <__heap_default_limit+0x100b>
    35fd: 64 06        	stz	$6                      ; 0x2006 <__heap_default_limit+0x1006>
    35ff: 64 08        	stz	$8                      ; 0x2008 <__heap_default_limit+0x1008>
    3601: 64 09        	stz	$9                      ; 0x2009 <__heap_default_limit+0x1009>
    3603: 64 0a        	stz	$a                      ; 0x200a <__heap_default_limit+0x100a>
    3605: a9 00        	lda	#$0
    3607: 5a           	phy
    3608: fa           	plx
    3609: 20 c7 7b     	jsr	$7bc7 <lcopy>
    360c: a2 00        	ldx	#$0
    360e: 86 04        	stx	$4                      ; 0x2004 <__heap_default_limit+0x1004>
    3610: a2 19        	ldx	#$19
    3612: 86 05        	stx	$5                      ; 0x2005 <__heap_default_limit+0x1005>
    3614: a6 5a        	ldx	$5a                     ; 0x205a <lpstore>
    3616: 86 06        	stx	$6                      ; 0x2006 <__heap_default_limit+0x1006>
    3618: a6 5b        	ldx	$5b                     ; 0x205b <lpstore+0x1>
    361a: ad 74 8f     	lda	$8f74                   ; 0x8f74 <__data_load_start+0x1b5>
    361d: 4c d1 25     	jmp	$25d1 <PutOneSector>

00003620 <deletedirententry>:
    3620: a4 16        	ldy	$16                     ; 0x2016 <next_line+0x1>
    3622: 5a           	phy
    3623: a4 17        	ldy	$17                     ; 0x2017 <next_line+0x2>
    3625: 5a           	phy
    3626: a4 18        	ldy	$18                     ; 0x2018 <next_line+0x3>
    3628: 5a           	phy
    3629: a4 19        	ldy	$19                     ; 0x2019 <next_line+0x4>
    362b: 5a           	phy
    362c: 8d 75 8f     	sta	$8f75                   ; 0x8f75 <__data_load_start+0x1b6>
    362f: 8a           	txa
    3630: a4 04        	ldy	$4                      ; 0x2004 <__heap_default_limit+0x1004>
    3632: a6 05        	ldx	$5                      ; 0x2005 <__heap_default_limit+0x1005>
    3634: 86 51        	stx	$51                     ; 0x2051 <_fini+0x6>
    3636: 0a           	asl
    3637: 85 04        	sta	$4                      ; 0x2004 <__heap_default_limit+0x1004>
    3639: a9 00        	lda	#$0
    363b: 2a           	rol
    363c: 85 05        	sta	$5                      ; 0x2005 <__heap_default_limit+0x1005>
    363e: a9 00        	lda	#$0
    3640: 2a           	rol
    3641: 85 06        	sta	$6                      ; 0x2006 <__heap_default_limit+0x1006>
    3643: a5 04        	lda	$4                      ; 0x2004 <__heap_default_limit+0x1004>
    3645: 0a           	asl
    3646: 85 07        	sta	$7                      ; 0x2007 <__heap_default_limit+0x1007>
    3648: a5 05        	lda	$5                      ; 0x2005 <__heap_default_limit+0x1005>
    364a: 2a           	rol
    364b: aa           	tax
    364c: a5 06        	lda	$6                      ; 0x2006 <__heap_default_limit+0x1006>
    364e: 85 08        	sta	$8                      ; 0x2008 <__heap_default_limit+0x1008>
    3650: 26 08        	rol	$8                      ; 0x2008 <__heap_default_limit+0x1008>
    3652: a5 07        	lda	$7                      ; 0x2007 <__heap_default_limit+0x1007>
    3654: 0a           	asl
    3655: 86 07        	stx	$7                      ; 0x2007 <__heap_default_limit+0x1007>
    3657: 26 07        	rol	$7                      ; 0x2007 <__heap_default_limit+0x1007>
    3659: 26 08        	rol	$8                      ; 0x2008 <__heap_default_limit+0x1008>
    365b: 0a           	asl
    365c: 26 07        	rol	$7                      ; 0x2007 <__heap_default_limit+0x1007>
    365e: 26 08        	rol	$8                      ; 0x2008 <__heap_default_limit+0x1008>
    3660: 38           	sec
    3661: e5 04        	sbc	$4                      ; 0x2004 <__heap_default_limit+0x1004>
    3663: 85 19        	sta	$19                     ; 0x2019 <next_line+0x4>
    3665: 8d 76 8f     	sta	$8f76                   ; 0x8f76 <__data_load_start+0x1b7>
    3668: a5 07        	lda	$7                      ; 0x2007 <__heap_default_limit+0x1007>
    366a: e5 05        	sbc	$5                      ; 0x2005 <__heap_default_limit+0x1005>
    366c: 85 48        	sta	$48                     ; 0x2048 <__after_main>
    366e: 8d 77 8f     	sta	$8f77                   ; 0x8f77 <__data_load_start+0x1b8>
    3671: a5 08        	lda	$8                      ; 0x2008 <__heap_default_limit+0x1008>
    3673: e5 06        	sbc	$6                      ; 0x2006 <__heap_default_limit+0x1006>
    3675: a2 08        	ldx	#$8
    3677: 86 50        	stx	$50                     ; 0x2050 <_fini+0x5>
    3679: 09 08        	ora	#$8
    367b: 85 18        	sta	$18                     ; 0x2018 <next_line+0x3>
    367d: a2 03        	ldx	#$3
    367f: 8e 73 8f     	stx	$8f73                   ; 0x8f73 <__data_load_start+0x1b4>
    3682: 98           	tya
    3683: 8d 78 8f     	sta	$8f78                   ; 0x8f78 <__data_load_start+0x1b9>
    3686: 8c 74 8f     	sty	$8f74                   ; 0x8f74 <__data_load_start+0x1b5>
    3689: a0 00        	ldy	#$0
    368b: 64 17        	stz	$17                     ; 0x2017 <next_line+0x2>
    368d: 98           	tya
    368e: aa           	tax
    368f: 64 05        	stz	$5                      ; 0x2005 <__heap_default_limit+0x1005>
    3691: 64 4d        	stz	$4d                     ; 0x204d <_fini+0x2>
    3693: 4c 54 37     	jmp	$3754 <deletedirententry+0x134>
    3696: 5a           	phy
    3697: a4 05        	ldy	$5                      ; 0x2005 <__heap_default_limit+0x1005>
    3699: 84 4b        	sty	$4b                     ; 0x204b <_fini>
    369b: 7a           	ply
    369c: c4 05        	cpy	$5                      ; 0x2005 <__heap_default_limit+0x1005>
    369e: 90 03        	bcc	$36a3 <deletedirententry+0x83>
    36a0: 4c 6e 37     	jmp	$376e <deletedirententry+0x14e>
    36a3: 85 49        	sta	$49                     ; 0x2049 <__after_main+0x1>
    36a5: 86 04        	stx	$4                      ; 0x2004 <__heap_default_limit+0x1004>
    36a7: 46 04        	lsr	$4                      ; 0x2004 <__heap_default_limit+0x1004>
    36a9: a9 00        	lda	#$0
    36ab: 6a           	ror
    36ac: 46 04        	lsr	$4                      ; 0x2004 <__heap_default_limit+0x1004>
    36ae: 6a           	ror
    36af: a6 04        	ldx	$4                      ; 0x2004 <__heap_default_limit+0x1004>
    36b1: 86 52        	stx	$52                     ; 0x2052 <_fini+0x7>
    36b3: 46 04        	lsr	$4                      ; 0x2004 <__heap_default_limit+0x1004>
    36b5: a6 04        	ldx	$4                      ; 0x2004 <__heap_default_limit+0x1004>
    36b7: 86 05        	stx	$5                      ; 0x2005 <__heap_default_limit+0x1005>
    36b9: 6a           	ror
    36ba: 85 04        	sta	$4                      ; 0x2004 <__heap_default_limit+0x1004>
    36bc: a9 00        	lda	#$0
    36be: 18           	clc
    36bf: 65 04        	adc	$4                      ; 0x2004 <__heap_default_limit+0x1004>
    36c1: 85 0d        	sta	$d                      ; 0x200d <__heap_default_limit+0x100d>
    36c3: a5 05        	lda	$5                      ; 0x2005 <__heap_default_limit+0x1005>
    36c5: 65 19        	adc	$19                     ; 0x2019 <next_line+0x4>
    36c7: 85 0c        	sta	$c                      ; 0x200c <__heap_default_limit+0x100c>
    36c9: a5 48        	lda	$48                     ; 0x2048 <__after_main>
    36cb: 69 00        	adc	#$0
    36cd: 85 04        	sta	$4                      ; 0x2004 <__heap_default_limit+0x1004>
    36cf: a5 18        	lda	$18                     ; 0x2018 <next_line+0x3>
    36d1: 69 00        	adc	#$0
    36d3: a6 04        	ldx	$4                      ; 0x2004 <__heap_default_limit+0x1004>
    36d5: 86 4f        	stx	$4f                     ; 0x204f <_fini+0x4>
    36d7: 85 16        	sta	$16                     ; 0x2016 <next_line+0x1>
    36d9: 85 05        	sta	$5                      ; 0x2005 <__heap_default_limit+0x1005>
    36db: a2 c0        	ldx	#$c0
    36dd: 86 06        	stx	$6                      ; 0x2006 <__heap_default_limit+0x1006>
    36df: a2 1b        	ldx	#$1b
    36e1: 86 07        	stx	$7                      ; 0x2007 <__heap_default_limit+0x1007>
    36e3: 64 08        	stz	$8                      ; 0x2008 <__heap_default_limit+0x1008>
    36e5: 64 09        	stz	$9                      ; 0x2009 <__heap_default_limit+0x1009>
    36e7: a2 20        	ldx	#$20
    36e9: 86 0a        	stx	$a                      ; 0x200a <__heap_default_limit+0x100a>
    36eb: 64 0b        	stz	$b                      ; 0x200b <__heap_default_limit+0x100b>
    36ed: a6 0c        	ldx	$c                      ; 0x200c <__heap_default_limit+0x100c>
    36ef: 86 4c        	stx	$4c                     ; 0x204c <_fini+0x1>
    36f1: a5 0d        	lda	$d                      ; 0x200d <__heap_default_limit+0x100d>
    36f3: 85 4e        	sta	$4e                     ; 0x204e <_fini+0x3>
    36f5: 20 c7 7b     	jsr	$7bc7 <lcopy>
    36f8: a5 4a        	lda	$4a                     ; 0x204a <__after_main+0x2>
    36fa: f0 10        	beq	$370c <deletedirententry+0xec>
    36fc: a5 4a        	lda	$4a                     ; 0x204a <__after_main+0x2>
    36fe: 29 07        	and	#$7
    3700: d0 0a        	bne	$370c <deletedirententry+0xec>
    3702: a6 17        	ldx	$17                     ; 0x2017 <next_line+0x2>
    3704: 8e 74 8f     	stx	$8f74                   ; 0x8f74 <__data_load_start+0x1b5>
    3707: a6 4d        	ldx	$4d                     ; 0x204d <_fini+0x2>
    3709: 8e 73 8f     	stx	$8f73                   ; 0x8f73 <__data_load_start+0x1b4>
    370c: ae c0 1b     	ldx	$1bc0                   ; 0x1bc0 <__heap_default_limit+0xbc0>
    370f: a0 00        	ldy	#$0
    3711: 8a           	txa
    3712: f0 14        	beq	$3728 <deletedirententry+0x108>
    3714: 18           	clc
    3715: a5 50        	lda	$50                     ; 0x2050 <_fini+0x5>
    3717: 69 08        	adc	#$8
    3719: 85 50        	sta	$50                     ; 0x2050 <_fini+0x5>
    371b: a5 4b        	lda	$4b                     ; 0x204b <_fini>
    371d: 69 00        	adc	#$0
    371f: 85 4b        	sta	$4b                     ; 0x204b <_fini>
    3721: ad c1 1b     	lda	$1bc1                   ; 0x1bc1 <__heap_default_limit+0xbc1>
    3724: 85 4d        	sta	$4d                     ; 0x204d <_fini+0x2>
    3726: 86 17        	stx	$17                     ; 0x2017 <next_line+0x2>
    3728: ad c2 1b     	lda	$1bc2                   ; 0x1bc2 <__heap_default_limit+0xbc2>
    372b: a6 4a        	ldx	$4a                     ; 0x204a <__after_main+0x2>
    372d: 85 4a        	sta	$4a                     ; 0x204a <__after_main+0x2>
    372f: c9 00        	cmp	#$0
    3731: d0 0a        	bne	$373d <deletedirententry+0x11d>
    3733: a9 01        	lda	#$1
    3735: 25 2f        	and	$2f                     ; 0x202f <__do_init_stack>
    3737: d0 04        	bne	$373d <deletedirententry+0x11d>
    3739: a5 49        	lda	$49                     ; 0x2049 <__after_main+0x1>
    373b: 80 10        	bra	$374d <deletedirententry+0x12d>
    373d: a5 49        	lda	$49                     ; 0x2049 <__after_main+0x1>
    373f: a4 51        	ldy	$51                     ; 0x2051 <_fini+0x6>
    3741: 84 04        	sty	$4                      ; 0x2004 <__heap_default_limit+0x1004>
    3743: c5 04        	cmp	$4                      ; 0x2004 <__heap_default_limit+0x1004>
    3745: d0 03        	bne	$374a <deletedirententry+0x12a>
    3747: 4c 7b 37     	jmp	$377b <deletedirententry+0x15b>
    374a: 1a           	inc
    374b: a0 00        	ldy	#$0
    374d: e8           	inx
    374e: 5a           	phy
    374f: a4 4b        	ldy	$4b                     ; 0x204b <_fini>
    3751: 84 05        	sty	$5                      ; 0x2005 <__heap_default_limit+0x1005>
    3753: 7a           	ply
    3754: 86 4a        	stx	$4a                     ; 0x204a <__after_main+0x2>
    3756: c4 05        	cpy	$5                      ; 0x2005 <__heap_default_limit+0x1005>
    3758: f0 03        	beq	$375d <deletedirententry+0x13d>
    375a: 4c 96 36     	jmp	$3696 <deletedirententry+0x76>
    375d: a6 05        	ldx	$5                      ; 0x2005 <__heap_default_limit+0x1005>
    375f: 86 4b        	stx	$4b                     ; 0x204b <_fini>
    3761: a6 50        	ldx	$50                     ; 0x2050 <_fini+0x5>
    3763: 86 04        	stx	$4                      ; 0x2004 <__heap_default_limit+0x1004>
    3765: a6 4a        	ldx	$4a                     ; 0x204a <__after_main+0x2>
    3767: e4 04        	cpx	$4                      ; 0x2004 <__heap_default_limit+0x1004>
    3769: b0 03        	bcs	$376e <deletedirententry+0x14e>
    376b: 4c a3 36     	jmp	$36a3 <deletedirententry+0x83>
    376e: fa           	plx
    376f: 86 19        	stx	$19                     ; 0x2019 <next_line+0x4>
    3771: fa           	plx
    3772: 86 18        	stx	$18                     ; 0x2018 <next_line+0x3>
    3774: fa           	plx
    3775: 86 17        	stx	$17                     ; 0x2017 <next_line+0x2>
    3777: fa           	plx
    3778: 86 16        	stx	$16                     ; 0x2016 <next_line+0x1>
    377a: 60           	rts
    377b: 9c c2 1b     	stz	$1bc2                   ; 0x1bc2 <__heap_default_limit+0xbc2>
    377e: a9 c0        	lda	#$c0
    3780: a2 1b        	ldx	#$1b
    3782: a0 20        	ldy	#$20
    3784: 48           	pha
    3785: a5 4e        	lda	$4e                     ; 0x204e <_fini+0x3>
    3787: 85 06        	sta	$6                      ; 0x2006 <__heap_default_limit+0x1006>
    3789: a5 4c        	lda	$4c                     ; 0x204c <_fini+0x1>
    378b: 85 07        	sta	$7                      ; 0x2007 <__heap_default_limit+0x1007>
    378d: a5 4f        	lda	$4f                     ; 0x204f <_fini+0x4>
    378f: 85 08        	sta	$8                      ; 0x2008 <__heap_default_limit+0x1008>
    3791: a5 16        	lda	$16                     ; 0x2016 <next_line+0x1>
    3793: 85 09        	sta	$9                      ; 0x2009 <__heap_default_limit+0x1009>
    3795: 68           	pla
    3796: 84 0a        	sty	$a                      ; 0x200a <__heap_default_limit+0x100a>
    3798: 64 04        	stz	$4                      ; 0x2004 <__heap_default_limit+0x1004>
    379a: 64 05        	stz	$5                      ; 0x2005 <__heap_default_limit+0x1005>
    379c: 64 0b        	stz	$b                      ; 0x200b <__heap_default_limit+0x100b>
    379e: 20 c7 7b     	jsr	$7bc7 <lcopy>
    37a1: a2 01        	ldx	#$1
    37a3: a5 52        	lda	$52                     ; 0x2052 <_fini+0x7>
    37a5: 4a           	lsr
    37a6: ac 76 8f     	ldy	$8f76                   ; 0x8f76 <__data_load_start+0x1b7>
    37a9: 84 04        	sty	$4                      ; 0x2004 <__heap_default_limit+0x1004>
    37ab: 18           	clc
    37ac: 65 04        	adc	$4                      ; 0x2004 <__heap_default_limit+0x1004>
    37ae: 85 0c        	sta	$c                      ; 0x200c <__heap_default_limit+0x100c>
    37b0: a9 00        	lda	#$0
    37b2: ac 77 8f     	ldy	$8f77                   ; 0x8f77 <__data_load_start+0x1b8>
    37b5: 84 04        	sty	$4                      ; 0x2004 <__heap_default_limit+0x1004>
    37b7: 65 04        	adc	$4                      ; 0x2004 <__heap_default_limit+0x1004>
    37b9: 85 04        	sta	$4                      ; 0x2004 <__heap_default_limit+0x1004>
    37bb: a5 18        	lda	$18                     ; 0x2018 <next_line+0x3>
    37bd: 64 05        	stz	$5                      ; 0x2005 <__heap_default_limit+0x1005>
    37bf: 65 05        	adc	$5                      ; 0x2005 <__heap_default_limit+0x1005>
    37c1: a0 19        	ldy	#$19
    37c3: 85 05        	sta	$5                      ; 0x2005 <__heap_default_limit+0x1005>
    37c5: 64 06        	stz	$6                      ; 0x2006 <__heap_default_limit+0x1006>
    37c7: 84 07        	sty	$7                      ; 0x2007 <__heap_default_limit+0x1007>
    37c9: 64 08        	stz	$8                      ; 0x2008 <__heap_default_limit+0x1008>
    37cb: 64 09        	stz	$9                      ; 0x2009 <__heap_default_limit+0x1009>
    37cd: 64 0a        	stz	$a                      ; 0x200a <__heap_default_limit+0x100a>
    37cf: 86 0b        	stx	$b                      ; 0x200b <__heap_default_limit+0x100b>
    37d1: a6 0c        	ldx	$c                      ; 0x200c <__heap_default_limit+0x100c>
    37d3: a9 00        	lda	#$0
    37d5: 20 c7 7b     	jsr	$7bc7 <lcopy>
    37d8: a2 00        	ldx	#$0
    37da: 86 04        	stx	$4                      ; 0x2004 <__heap_default_limit+0x1004>
    37dc: a2 19        	ldx	#$19
    37de: 86 05        	stx	$5                      ; 0x2005 <__heap_default_limit+0x1005>
    37e0: ae 73 8f     	ldx	$8f73                   ; 0x8f73 <__data_load_start+0x1b4>
    37e3: 86 06        	stx	$6                      ; 0x2006 <__heap_default_limit+0x1006>
    37e5: ae 74 8f     	ldx	$8f74                   ; 0x8f74 <__data_load_start+0x1b5>
    37e8: ad 75 8f     	lda	$8f75                   ; 0x8f75 <__data_load_start+0x1b6>
    37eb: 20 d1 25     	jsr	$25d1 <PutOneSector>
    37ee: a5 4a        	lda	$4a                     ; 0x204a <__after_main+0x2>
    37f0: 29 0f        	and	#$f
    37f2: c9 05        	cmp	#$5
    37f4: d0 07        	bne	$37fd <deletedirententry+0x1dd>
    37f6: 64 16        	stz	$16                     ; 0x2016 <next_line+0x1>
    37f8: a2 00        	ldx	#$0
    37fa: 4c fc 38     	jmp	$38fc <deletedirententry+0x2dc>
    37fd: ae c3 1b     	ldx	$1bc3                   ; 0x1bc3 <__heap_default_limit+0xbc3>
    3800: 86 16        	stx	$16                     ; 0x2016 <next_line+0x1>
    3802: ae c4 1b     	ldx	$1bc4                   ; 0x1bc4 <__heap_default_limit+0xbc4>
    3805: 86 17        	stx	$17                     ; 0x2017 <next_line+0x2>
    3807: a2 00        	ldx	#$0
    3809: 86 04        	stx	$4                      ; 0x2004 <__heap_default_limit+0x1004>
    380b: a2 17        	ldx	#$17
    380d: 86 05        	stx	$5                      ; 0x2005 <__heap_default_limit+0x1005>
    380f: a2 01        	ldx	#$1
    3811: 86 06        	stx	$6                      ; 0x2006 <__heap_default_limit+0x1006>
    3813: ae 78 8f     	ldx	$8f78                   ; 0x8f78 <__data_load_start+0x1b9>
    3816: ad 75 8f     	lda	$8f75                   ; 0x8f75 <__data_load_start+0x1b6>
    3819: 20 0a 25     	jsr	$250a <GetOneSector>
    381c: c9 02        	cmp	#$2
    381e: 90 03        	bcc	$3823 <deletedirententry+0x203>
    3820: 4c 6e 37     	jmp	$376e <deletedirententry+0x14e>
    3823: ae 00 17     	ldx	$1700                   ; 0x1700 <__heap_default_limit+0x700>
    3826: ac 01 17     	ldy	$1701                   ; 0x1701 <__heap_default_limit+0x701>
    3829: a9 00        	lda	#$0
    382b: 85 04        	sta	$4                      ; 0x2004 <__heap_default_limit+0x1004>
    382d: a9 18        	lda	#$18
    382f: 85 05        	sta	$5                      ; 0x2005 <__heap_default_limit+0x1005>
    3831: 84 06        	sty	$6                      ; 0x2006 <__heap_default_limit+0x1006>
    3833: ad 75 8f     	lda	$8f75                   ; 0x8f75 <__data_load_start+0x1b6>
    3836: 20 0a 25     	jsr	$250a <GetOneSector>
    3839: c9 02        	cmp	#$2
    383b: 90 03        	bcc	$3840 <deletedirententry+0x220>
    383d: 4c 6e 37     	jmp	$376e <deletedirententry+0x14e>
    3840: a6 16        	ldx	$16                     ; 0x2016 <next_line+0x1>
    3842: a4 17        	ldy	$17                     ; 0x2017 <next_line+0x2>
    3844: 80 33        	bra	$3879 <deletedirententry+0x259>
    3846: a9 00        	lda	#$0
    3848: 85 04        	sta	$4                      ; 0x2004 <__heap_default_limit+0x1004>
    384a: a9 19        	lda	#$19
    384c: 85 05        	sta	$5                      ; 0x2005 <__heap_default_limit+0x1005>
    384e: 84 06        	sty	$6                      ; 0x2006 <__heap_default_limit+0x1006>
    3850: 86 16        	stx	$16                     ; 0x2016 <next_line+0x1>
    3852: 84 17        	sty	$17                     ; 0x2017 <next_line+0x2>
    3854: ad 75 8f     	lda	$8f75                   ; 0x8f75 <__data_load_start+0x1b6>
    3857: 20 0a 25     	jsr	$250a <GetOneSector>
    385a: a2 00        	ldx	#$0
    385c: 86 04        	stx	$4                      ; 0x2004 <__heap_default_limit+0x1004>
    385e: a2 17        	ldx	#$17
    3860: 86 05        	stx	$5                      ; 0x2005 <__heap_default_limit+0x1005>
    3862: a2 00        	ldx	#$0
    3864: 86 06        	stx	$6                      ; 0x2006 <__heap_default_limit+0x1006>
    3866: a2 18        	ldx	#$18
    3868: 86 07        	stx	$7                      ; 0x2007 <__heap_default_limit+0x1007>
    386a: 64 08        	stz	$8                      ; 0x2008 <__heap_default_limit+0x1008>
    386c: a6 17        	ldx	$17                     ; 0x2017 <next_line+0x2>
    386e: a5 16        	lda	$16                     ; 0x2016 <next_line+0x1>
    3870: 20 55 27     	jsr	$2755 <BAMSectorUpdate>
    3873: ae 00 19     	ldx	$1900                   ; 0x1900 <__heap_default_limit+0x900>
    3876: ac 01 19     	ldy	$1901                   ; 0x1901 <__heap_default_limit+0x901>
    3879: 8a           	txa
    387a: d0 ca        	bne	$3846 <deletedirententry+0x226>
    387c: a2 00        	ldx	#$0
    387e: 86 04        	stx	$4                      ; 0x2004 <__heap_default_limit+0x1004>
    3880: a2 17        	ldx	#$17
    3882: 86 05        	stx	$5                      ; 0x2005 <__heap_default_limit+0x1005>
    3884: a2 01        	ldx	#$1
    3886: 86 06        	stx	$6                      ; 0x2006 <__heap_default_limit+0x1006>
    3888: ae 78 8f     	ldx	$8f78                   ; 0x8f78 <__data_load_start+0x1b9>
    388b: ac 75 8f     	ldy	$8f75                   ; 0x8f75 <__data_load_start+0x1b6>
    388e: 84 16        	sty	$16                     ; 0x2016 <next_line+0x1>
    3890: 98           	tya
    3891: 20 d1 25     	jsr	$25d1 <PutOneSector>
    3894: ae 00 17     	ldx	$1700                   ; 0x1700 <__heap_default_limit+0x700>
    3897: ac 01 17     	ldy	$1701                   ; 0x1701 <__heap_default_limit+0x701>
    389a: a9 00        	lda	#$0
    389c: 85 04        	sta	$4                      ; 0x2004 <__heap_default_limit+0x1004>
    389e: a9 18        	lda	#$18
    38a0: 85 05        	sta	$5                      ; 0x2005 <__heap_default_limit+0x1005>
    38a2: 84 06        	sty	$6                      ; 0x2006 <__heap_default_limit+0x1006>
    38a4: a5 16        	lda	$16                     ; 0x2016 <next_line+0x1>
    38a6: 20 d1 25     	jsr	$25d1 <PutOneSector>
    38a9: 4c 6e 37     	jmp	$376e <deletedirententry+0x14e>
    38ac: e4 04        	cpx	$4                      ; 0x2004 <__heap_default_limit+0x1004>
    38ae: 90 03        	bcc	$38b3 <deletedirententry+0x293>
    38b0: 4c 6e 37     	jmp	$376e <deletedirententry+0x14e>
    38b3: 86 17        	stx	$17                     ; 0x2017 <next_line+0x2>
    38b5: a2 28        	ldx	#$28
    38b7: 86 04        	stx	$4                      ; 0x2004 <__heap_default_limit+0x1004>
    38b9: 64 05        	stz	$5                      ; 0x2005 <__heap_default_limit+0x1005>
    38bb: a6 17        	ldx	$17                     ; 0x2017 <next_line+0x2>
    38bd: a5 16        	lda	$16                     ; 0x2016 <next_line+0x1>
    38bf: 20 82 7e     	jsr	$7e82 <__udivhi3>
    38c2: aa           	tax
    38c3: 0a           	asl
    38c4: 0a           	asl
    38c5: 0a           	asl
    38c6: 85 04        	sta	$4                      ; 0x2004 <__heap_default_limit+0x1004>
    38c8: 0a           	asl
    38c9: 0a           	asl
    38ca: 18           	clc
    38cb: 65 04        	adc	$4                      ; 0x2004 <__heap_default_limit+0x1004>
    38cd: 85 04        	sta	$4                      ; 0x2004 <__heap_default_limit+0x1004>
    38cf: 18           	clc
    38d0: 8a           	txa
    38d1: 6d c3 1b     	adc	$1bc3                   ; 0x1bc3 <__heap_default_limit+0xbc3>
    38d4: a8           	tay
    38d5: a5 16        	lda	$16                     ; 0x2016 <next_line+0x1>
    38d7: 18           	clc
    38d8: 6d c4 1b     	adc	$1bc4                   ; 0x1bc4 <__heap_default_limit+0xbc4>
    38db: 38           	sec
    38dc: e5 04        	sbc	$4                      ; 0x2004 <__heap_default_limit+0x1004>
    38de: a2 00        	ldx	#$0
    38e0: 86 04        	stx	$4                      ; 0x2004 <__heap_default_limit+0x1004>
    38e2: a2 17        	ldx	#$17
    38e4: 86 05        	stx	$5                      ; 0x2005 <__heap_default_limit+0x1005>
    38e6: a2 00        	ldx	#$0
    38e8: 86 06        	stx	$6                      ; 0x2006 <__heap_default_limit+0x1006>
    38ea: a2 18        	ldx	#$18
    38ec: 86 07        	stx	$7                      ; 0x2007 <__heap_default_limit+0x1007>
    38ee: 64 08        	stz	$8                      ; 0x2008 <__heap_default_limit+0x1008>
    38f0: aa           	tax
    38f1: 98           	tya
    38f2: 20 55 27     	jsr	$2755 <BAMSectorUpdate>
    38f5: a6 17        	ldx	$17                     ; 0x2017 <next_line+0x2>
    38f7: e6 16        	inc	$16                     ; 0x2016 <next_line+0x1>
    38f9: d0 01        	bne	$38fc <deletedirententry+0x2dc>
    38fb: e8           	inx
    38fc: ad de 1b     	lda	$1bde                   ; 0x1bde <__heap_default_limit+0xbde>
    38ff: ac df 1b     	ldy	$1bdf                   ; 0x1bdf <__heap_default_limit+0xbdf>
    3902: 18           	clc
    3903: 69 28        	adc	#$28
    3905: 85 05        	sta	$5                      ; 0x2005 <__heap_default_limit+0x1005>
    3907: 98           	tya
    3908: 69 00        	adc	#$0
    390a: 85 04        	sta	$4                      ; 0x2004 <__heap_default_limit+0x1004>
    390c: e4 04        	cpx	$4                      ; 0x2004 <__heap_default_limit+0x1004>
    390e: f0 03        	beq	$3913 <deletedirententry+0x2f3>
    3910: 4c ac 38     	jmp	$38ac <deletedirententry+0x28c>
    3913: a4 16        	ldy	$16                     ; 0x2016 <next_line+0x1>
    3915: c4 05        	cpy	$5                      ; 0x2005 <__heap_default_limit+0x1005>
    3917: 90 03        	bcc	$391c <deletedirententry+0x2fc>
    3919: 4c 6e 37     	jmp	$376e <deletedirententry+0x14e>
    391c: 4c b3 38     	jmp	$38b3 <deletedirententry+0x293>

0000391f <strcopy>:
    391f: 85 08        	sta	$8                      ; 0x2008 <__heap_default_limit+0x1008>
    3921: a0 00        	ldy	#$0
    3923: 80 03        	bra	$3928 <strcopy+0x9>
    3925: 91 06        	sta	($6),y                  ; 0x2006 <__heap_default_limit+0x1006>
    3927: c8           	iny
    3928: b1 04        	lda	($4),y                  ; 0x2004 <__heap_default_limit+0x1004>
    392a: f0 04        	beq	$3930 <strcopy+0x11>
    392c: c4 08        	cpy	$8                      ; 0x2008 <__heap_default_limit+0x1008>
    392e: 90 f5        	bcc	$3925 <strcopy+0x6>
    3930: a9 00        	lda	#$0
    3932: 91 06        	sta	($6),y                  ; 0x2006 <__heap_default_limit+0x1006>
    3934: 60           	rts

00003935 <strmakefilename>:
    3935: a0 00        	ldy	#$0
    3937: 80 03        	bra	$393c <strmakefilename+0x7>
    3939: 91 06        	sta	($6),y                  ; 0x2006 <__heap_default_limit+0x1006>
    393b: c8           	iny
    393c: b1 04        	lda	($4),y                  ; 0x2004 <__heap_default_limit+0x1004>
    393e: f0 04        	beq	$3944 <strmakefilename+0xf>
    3940: c0 10        	cpy	#$10
    3942: 90 f5        	bcc	$3939 <strmakefilename+0x4>
    3944: 64 04        	stz	$4                      ; 0x2004 <__heap_default_limit+0x1004>
    3946: 5a           	phy
    3947: fa           	plx
    3948: 80 13        	bra	$395d <strmakefilename+0x28>
    394a: a5 06        	lda	$6                      ; 0x2006 <__heap_default_limit+0x1006>
    394c: 18           	clc
    394d: 65 04        	adc	$4                      ; 0x2004 <__heap_default_limit+0x1004>
    394f: 85 08        	sta	$8                      ; 0x2008 <__heap_default_limit+0x1008>
    3951: a5 07        	lda	$7                      ; 0x2007 <__heap_default_limit+0x1007>
    3953: 69 00        	adc	#$0
    3955: 85 09        	sta	$9                      ; 0x2009 <__heap_default_limit+0x1009>
    3957: a9 a0        	lda	#$a0
    3959: 91 08        	sta	($8),y                  ; 0x2008 <__heap_default_limit+0x1008>
    395b: e6 04        	inc	$4                      ; 0x2004 <__heap_default_limit+0x1004>
    395d: 98           	tya
    395e: 18           	clc
    395f: 65 04        	adc	$4                      ; 0x2004 <__heap_default_limit+0x1004>
    3961: c9 10        	cmp	#$10
    3963: d0 e5        	bne	$394a <strmakefilename+0x15>
    3965: 60           	rts

00003966 <csputdec>:
    3966: 86 07        	stx	$7                      ; 0x2007 <__heap_default_limit+0x1007>
    3968: a6 06        	ldx	$6                      ; 0x2006 <__heap_default_limit+0x1006>
    396a: 86 6e        	stx	$6e                     ; 0x206e <lpstore+0x14>
    396c: a6 04        	ldx	$4                      ; 0x2004 <__heap_default_limit+0x1004>
    396e: 86 74        	stx	$74                     ; 0x2074 <lpstore+0x1a>
    3970: a6 05        	ldx	$5                      ; 0x2005 <__heap_default_limit+0x1005>
    3972: 86 75        	stx	$75                     ; 0x2075 <lprestore>
    3974: 64 81        	stz	$81                     ; 0x2081 <lprestore+0xc>
    3976: a0 09        	ldy	#$9
    3978: a2 82        	ldx	#$82
    397a: 86 70        	stx	$70                     ; 0x2070 <lpstore+0x16>
    397c: a2 00        	ldx	#$0
    397e: 86 71        	stx	$71                     ; 0x2071 <lpstore+0x17>
    3980: a6 07        	ldx	$7                      ; 0x2007 <__heap_default_limit+0x1007>
    3982: 84 76        	sty	$76                     ; 0x2076 <lprestore+0x1>
    3984: 48           	pha
    3985: a5 70        	lda	$70                     ; 0x2070 <lpstore+0x16>
    3987: 85 0a        	sta	$a                      ; 0x200a <__heap_default_limit+0x100a>
    3989: a5 71        	lda	$71                     ; 0x2071 <lpstore+0x17>
    398b: 85 0b        	sta	$b                      ; 0x200b <__heap_default_limit+0x100b>
    398d: 68           	pla
    398e: 84 6f        	sty	$6f                     ; 0x206f <lpstore+0x15>
    3990: a0 0a        	ldy	#$a
    3992: 84 06        	sty	$6                      ; 0x2006 <__heap_default_limit+0x1006>
    3994: 64 07        	stz	$7                      ; 0x2007 <__heap_default_limit+0x1007>
    3996: 64 08        	stz	$8                      ; 0x2008 <__heap_default_limit+0x1008>
    3998: 64 09        	stz	$9                      ; 0x2009 <__heap_default_limit+0x1009>
    399a: 86 73        	stx	$73                     ; 0x2073 <lpstore+0x19>
    399c: 85 72        	sta	$72                     ; 0x2072 <lpstore+0x18>
    399e: 20 d4 80     	jsr	$80d4 <__udivmodsi4>
    39a1: 85 07        	sta	$7                      ; 0x2007 <__heap_default_limit+0x1007>
    39a3: a9 30        	lda	#$30
    39a5: 05 82        	ora	$82                     ; 0x2082 <lprestore+0xd>
    39a7: c6 6f        	dec	$6f                     ; 0x206f <lpstore+0x15>
    39a9: a4 76        	ldy	$76                     ; 0x2076 <lprestore+0x1>
    39ab: 99 77 00     	sta	$77,y                   ; 0x77 <__rc31+0x56>
    39ae: a5 75        	lda	$75                     ; 0x2075 <lprestore>
    39b0: d0 0e        	bne	$39c0 <csputdec+0x5a>
    39b2: a5 74        	lda	$74                     ; 0x2074 <lpstore+0x1a>
    39b4: d0 0e        	bne	$39c4 <csputdec+0x5e>
    39b6: a5 73        	lda	$73                     ; 0x2073 <lpstore+0x19>
    39b8: d0 0e        	bne	$39c8 <csputdec+0x62>
    39ba: a4 72        	ldy	$72                     ; 0x2072 <lpstore+0x18>
    39bc: c0 0a        	cpy	#$a
    39be: 80 0c        	bra	$39cc <csputdec+0x66>
    39c0: a4 75        	ldy	$75                     ; 0x2075 <lprestore>
    39c2: 80 06        	bra	$39ca <csputdec+0x64>
    39c4: a4 74        	ldy	$74                     ; 0x2074 <lpstore+0x1a>
    39c6: 80 02        	bra	$39ca <csputdec+0x64>
    39c8: a4 73        	ldy	$73                     ; 0x2073 <lpstore+0x19>
    39ca: c0 00        	cpy	#$0
    39cc: a5 07        	lda	$7                      ; 0x2007 <__heap_default_limit+0x1007>
    39ce: a4 04        	ldy	$4                      ; 0x2004 <__heap_default_limit+0x1004>
    39d0: 84 74        	sty	$74                     ; 0x2074 <lpstore+0x1a>
    39d2: a4 05        	ldy	$5                      ; 0x2005 <__heap_default_limit+0x1005>
    39d4: 84 75        	sty	$75                     ; 0x2075 <lprestore>
    39d6: a4 6f        	ldy	$6f                     ; 0x206f <lpstore+0x15>
    39d8: 90 03        	bcc	$39dd <csputdec+0x77>
    39da: 4c 82 39     	jmp	$3982 <csputdec+0x1c>
    39dd: 38           	sec
    39de: a9 0a        	lda	#$a
    39e0: e5 6e        	sbc	$6e                     ; 0x206e <lpstore+0x14>
    39e2: 85 05        	sta	$5                      ; 0x2005 <__heap_default_limit+0x1005>
    39e4: a9 00        	lda	#$0
    39e6: e9 00        	sbc	#$0
    39e8: 85 06        	sta	$6                      ; 0x2006 <__heap_default_limit+0x1006>
    39ea: 80 1d        	bra	$3a09 <csputdec+0xa3>
    39ec: c9 00        	cmp	#$0
    39ee: a9 00        	lda	#$0
    39f0: b0 02        	bcs	$39f4 <csputdec+0x8e>
    39f2: a9 01        	lda	#$1
    39f4: c0 00        	cpy	#$0
    39f6: f0 04        	beq	$39fc <csputdec+0x96>
    39f8: 29 01        	and	#$1
    39fa: 80 02        	bra	$39fe <csputdec+0x98>
    39fc: a9 00        	lda	#$0
    39fe: aa           	tax
    39ff: f0 13        	beq	$3a14 <csputdec+0xae>
    3a01: a9 20        	lda	#$20
    3a03: 99 77 00     	sta	$77,y                   ; 0x77 <__rc31+0x56>
    3a06: 88           	dey
    3a07: a5 06        	lda	$6                      ; 0x2006 <__heap_default_limit+0x1006>
    3a09: aa           	tax
    3a0a: d0 e0        	bne	$39ec <csputdec+0x86>
    3a0c: 84 04        	sty	$4                      ; 0x2004 <__heap_default_limit+0x1004>
    3a0e: a6 05        	ldx	$5                      ; 0x2005 <__heap_default_limit+0x1005>
    3a10: e4 04        	cpx	$4                      ; 0x2004 <__heap_default_limit+0x1004>
    3a12: 80 da        	bra	$39ee <csputdec+0x88>
    3a14: a9 77        	lda	#$77
    3a16: 18           	clc
    3a17: 84 04        	sty	$4                      ; 0x2004 <__heap_default_limit+0x1004>
    3a19: 65 04        	adc	$4                      ; 0x2004 <__heap_default_limit+0x1004>
    3a1b: 85 04        	sta	$4                      ; 0x2004 <__heap_default_limit+0x1004>
    3a1d: a9 00        	lda	#$0
    3a1f: 69 00        	adc	#$0
    3a21: 85 05        	sta	$5                      ; 0x2005 <__heap_default_limit+0x1005>
    3a23: e6 04        	inc	$4                      ; 0x2004 <__heap_default_limit+0x1004>
    3a25: d0 02        	bne	$3a29 <csputdec+0xc3>
    3a27: e6 05        	inc	$5                      ; 0x2005 <__heap_default_limit+0x1005>
    3a29: 4c 0b 7a     	jmp	$7a0b <cputs>

00003a2c <asciitoscreencode_s>:
    3a2c: a2 34        	ldx	#$34
    3a2e: 86 06        	stx	$6                      ; 0x2006 <__heap_default_limit+0x1006>
    3a30: a2 03        	ldx	#$3
    3a32: 86 07        	stx	$7                      ; 0x2007 <__heap_default_limit+0x1007>
    3a34: b2 04        	lda	($4),z                  ; 0x2004 <__heap_default_limit+0x1004>
    3a36: e6 04        	inc	$4                      ; 0x2004 <__heap_default_limit+0x1004>
    3a38: d0 02        	bne	$3a3c <asciitoscreencode_s+0x10>
    3a3a: e6 05        	inc	$5                      ; 0x2005 <__heap_default_limit+0x1005>
    3a3c: a0 20        	ldy	#$20
    3a3e: c9 a0        	cmp	#$a0
    3a40: f0 11        	beq	$3a53 <asciitoscreencode_s+0x27>
    3a42: aa           	tax
    3a43: e0 c0        	cpx	#$c0
    3a45: 90 04        	bcc	$3a4b <asciitoscreencode_s+0x1f>
    3a47: 29 7f        	and	#$7f
    3a49: 80 07        	bra	$3a52 <asciitoscreencode_s+0x26>
    3a4b: c9 60        	cmp	#$60
    3a4d: 90 12        	bcc	$3a61 <asciitoscreencode_s+0x35>
    3a4f: 18           	clc
    3a50: 69 a0        	adc	#$a0
    3a52: a8           	tay
    3a53: 98           	tya
    3a54: 92 06        	sta	($6),z                  ; 0x2006 <__heap_default_limit+0x1006>
    3a56: e6 06        	inc	$6                      ; 0x2006 <__heap_default_limit+0x1006>
    3a58: d0 02        	bne	$3a5c <asciitoscreencode_s+0x30>
    3a5a: e6 07        	inc	$7                      ; 0x2007 <__heap_default_limit+0x1007>
    3a5c: 98           	tya
    3a5d: d0 d5        	bne	$3a34 <asciitoscreencode_s+0x8>
    3a5f: 80 0d        	bra	$3a6e <asciitoscreencode_s+0x42>
    3a61: a8           	tay
    3a62: 18           	clc
    3a63: 69 a5        	adc	#$a5
    3a65: c9 05        	cmp	#$5
    3a67: b0 ea        	bcs	$3a53 <asciitoscreencode_s+0x27>
    3a69: aa           	tax
    3a6a: b4 22        	ldy	$22,x                   ; 0x2022 <_start+0x1>
    3a6c: 80 e5        	bra	$3a53 <asciitoscreencode_s+0x27>
    3a6e: ae 34 03     	ldx	$334                    ; 0x334 <__bss_size+0x180>
    3a71: f0 01        	beq	$3a74 <asciitoscreencode_s+0x48>
    3a73: 60           	rts
    3a74: a2 20        	ldx	#$20
    3a76: 8e 34 03     	stx	$334                    ; 0x334 <__bss_size+0x180>
    3a79: 9c 35 03     	stz	$335                    ; 0x335 <__bss_size+0x181>
    3a7c: 60           	rts

00003a7d <clrhome>:
    3a7d: a6 30        	ldx	$30                     ; 0x2030 <__do_init_stack+0x1>
    3a7f: a5 31        	lda	$31                     ; 0x2031 <__do_init_stack+0x2>
    3a81: 86 04        	stx	$4                      ; 0x2004 <__heap_default_limit+0x1004>
    3a83: 64 05        	stz	$5                      ; 0x2005 <__heap_default_limit+0x1005>
    3a85: a2 00        	ldx	#$0
    3a87: 20 50 7e     	jsr	$7e50 <__mulhi3>
    3a8a: a8           	tay
    3a8b: ad 54 d0     	lda	$d054                   ; 0xd054 <__heap_start+0x40d8>
    3a8e: 29 01        	and	#$1
    3a90: 85 04        	sta	$4                      ; 0x2004 <__heap_default_limit+0x1004>
    3a92: 98           	tya
    3a93: 20 3d 7e     	jsr	$7e3d <__ashlhi3>
    3a96: 85 07        	sta	$7                      ; 0x2007 <__heap_default_limit+0x1007>
    3a98: 85 48        	sta	$48                     ; 0x2048 <__after_main>
    3a9a: 86 08        	stx	$8                      ; 0x2008 <__heap_default_limit+0x1008>
    3a9c: 86 49        	stx	$49                     ; 0x2049 <__after_main+0x1>
    3a9e: ad 63 d0     	lda	$d063                   ; 0xd063 <__heap_start+0x40e7>
    3aa1: 29 07        	and	#$7
    3aa3: ae 62 d0     	ldx	$d062                   ; 0xd062 <__heap_start+0x40e6>
    3aa6: ac 61 d0     	ldy	$d061                   ; 0xd061 <__heap_start+0x40e5>
    3aa9: 84 09        	sty	$9                      ; 0x2009 <__heap_default_limit+0x1009>
    3aab: ac 60 d0     	ldy	$d060                   ; 0xd060 <__heap_start+0x40e4>
    3aae: 86 04        	stx	$4                      ; 0x2004 <__heap_default_limit+0x1004>
    3ab0: 85 05        	sta	$5                      ; 0x2005 <__heap_default_limit+0x1005>
    3ab2: a2 20        	ldx	#$20
    3ab4: 86 06        	stx	$6                      ; 0x2006 <__heap_default_limit+0x1006>
    3ab6: a6 09        	ldx	$9                      ; 0x2009 <__heap_default_limit+0x1009>
    3ab8: 98           	tya
    3ab9: 20 2e 7c     	jsr	$7c2e <lfill>
    3abc: a6 2b        	ldx	$2b                     ; 0x202b <_start+0xa>
    3abe: a0 f8        	ldy	#$f8
    3ac0: a9 0f        	lda	#$f
    3ac2: 84 04        	sty	$4                      ; 0x2004 <__heap_default_limit+0x1004>
    3ac4: 85 05        	sta	$5                      ; 0x2005 <__heap_default_limit+0x1005>
    3ac6: 86 06        	stx	$6                      ; 0x2006 <__heap_default_limit+0x1006>
    3ac8: a6 48        	ldx	$48                     ; 0x2048 <__after_main>
    3aca: 86 07        	stx	$7                      ; 0x2007 <__heap_default_limit+0x1007>
    3acc: a6 49        	ldx	$49                     ; 0x2049 <__after_main+0x1>
    3ace: 86 08        	stx	$8                      ; 0x2008 <__heap_default_limit+0x1008>
    3ad0: a2 00        	ldx	#$0
    3ad2: 8a           	txa
    3ad3: 20 2e 7c     	jsr	$7c2e <lfill>
    3ad6: 64 32        	stz	$32                     ; 0x2032 <__do_init_stack+0x3>
    3ad8: 64 33        	stz	$33                     ; 0x2033 <__do_init_stack+0x4>
    3ada: 60           	rts

00003adb <msprintf>:
    3adb: 20 2c 3a     	jsr	$3a2c <asciitoscreencode_s>
    3ade: a2 34        	ldx	#$34
    3ae0: 86 04        	stx	$4                      ; 0x2004 <__heap_default_limit+0x1004>
    3ae2: a2 03        	ldx	#$3
    3ae4: 86 05        	stx	$5                      ; 0x2005 <__heap_default_limit+0x1005>
    3ae6: 4c 0b 7a     	jmp	$7a0b <cputs>

00003ae9 <mprintf>:
    3ae9: 85 54        	sta	$54                     ; 0x2054 <_fini+0x9>
    3aeb: 86 55        	stx	$55                     ; 0x2055 <_fini+0xa>
    3aed: a6 06        	ldx	$6                      ; 0x2006 <__heap_default_limit+0x1006>
    3aef: 86 56        	stx	$56                     ; 0x2056 <fourbytes>
    3af1: a6 07        	ldx	$7                      ; 0x2007 <__heap_default_limit+0x1007>
    3af3: 86 57        	stx	$57                     ; 0x2057 <fourbytes+0x1>
    3af5: 20 2c 3a     	jsr	$3a2c <asciitoscreencode_s>
    3af8: a2 34        	ldx	#$34
    3afa: 86 04        	stx	$4                      ; 0x2004 <__heap_default_limit+0x1004>
    3afc: a2 03        	ldx	#$3
    3afe: 86 05        	stx	$5                      ; 0x2005 <__heap_default_limit+0x1005>
    3b00: 20 0b 7a     	jsr	$7a0b <cputs>
    3b03: 64 06        	stz	$6                      ; 0x2006 <__heap_default_limit+0x1006>
    3b05: a6 56        	ldx	$56                     ; 0x2056 <fourbytes>
    3b07: 86 04        	stx	$4                      ; 0x2004 <__heap_default_limit+0x1004>
    3b09: a6 57        	ldx	$57                     ; 0x2057 <fourbytes+0x1>
    3b0b: 86 05        	stx	$5                      ; 0x2005 <__heap_default_limit+0x1005>
    3b0d: a6 55        	ldx	$55                     ; 0x2055 <_fini+0xa>
    3b0f: a5 54        	lda	$54                     ; 0x2054 <_fini+0x9>
    3b11: 4c 66 39     	jmp	$3966 <csputdec>

00003b14 <mcputsxy>:
    3b14: 85 6e        	sta	$6e                     ; 0x206e <lpstore+0x14>
    3b16: 86 6f        	stx	$6f                     ; 0x206f <lpstore+0x15>
    3b18: 20 2c 3a     	jsr	$3a2c <asciitoscreencode_s>
    3b1b: a2 34        	ldx	#$34
    3b1d: 86 04        	stx	$4                      ; 0x2004 <__heap_default_limit+0x1004>
    3b1f: a2 03        	ldx	#$3
    3b21: 86 05        	stx	$5                      ; 0x2005 <__heap_default_limit+0x1005>
    3b23: a6 6f        	ldx	$6f                     ; 0x206f <lpstore+0x15>
    3b25: a5 6e        	lda	$6e                     ; 0x206e <lpstore+0x14>
    3b27: 4c 12 7a     	jmp	$7a12 <cputsxy>

00003b2a <mcbox>:
    3b2a: a8           	tay
    3b2b: 86 62        	stx	$62                     ; 0x2062 <lpstore+0x8>
    3b2d: a6 06        	ldx	$6                      ; 0x2006 <__heap_default_limit+0x1006>
    3b2f: 86 66        	stx	$66                     ; 0x2066 <lpstore+0xc>
    3b31: a6 04        	ldx	$4                      ; 0x2004 <__heap_default_limit+0x1004>
    3b33: 38           	sec
    3b34: 85 04        	sta	$4                      ; 0x2004 <__heap_default_limit+0x1004>
    3b36: 8a           	txa
    3b37: e5 04        	sbc	$4                      ; 0x2004 <__heap_default_limit+0x1004>
    3b39: 85 60        	sta	$60                     ; 0x2060 <lpstore+0x6>
    3b3b: a9 f0        	lda	#$f0
    3b3d: 25 2b        	and	$2b                     ; 0x202b <_start+0xa>
    3b3f: 09 03        	ora	#$3
    3b41: 85 2b        	sta	$2b                     ; 0x202b <_start+0xa>
    3b43: 84 67        	sty	$67                     ; 0x2067 <lpstore+0xd>
    3b45: 84 64        	sty	$64                     ; 0x2064 <lpstore+0xa>
    3b47: a5 62        	lda	$62                     ; 0x2062 <lpstore+0x8>
    3b49: 85 68        	sta	$68                     ; 0x2068 <lpstore+0xe>
    3b4b: 86 69        	stx	$69                     ; 0x2069 <lpstore+0xf>
    3b4d: 86 61        	stx	$61                     ; 0x2061 <lpstore+0x7>
    3b4f: a6 05        	ldx	$5                      ; 0x2005 <__heap_default_limit+0x1005>
    3b51: 86 6a        	stx	$6a                     ; 0x206a <lpstore+0x10>
    3b53: 86 63        	stx	$63                     ; 0x2063 <lpstore+0x9>
    3b55: a2 67        	ldx	#$67
    3b57: a0 00        	ldy	#$0
    3b59: 86 04        	stx	$4                      ; 0x2004 <__heap_default_limit+0x1004>
    3b5b: 84 05        	sty	$5                      ; 0x2005 <__heap_default_limit+0x1005>
    3b5d: 20 ed 7a     	jsr	$7aed <fillrect>
    3b60: a2 70        	ldx	#$70
    3b62: 86 04        	stx	$4                      ; 0x2004 <__heap_default_limit+0x1004>
    3b64: a6 62        	ldx	$62                     ; 0x2062 <lpstore+0x8>
    3b66: a5 64        	lda	$64                     ; 0x2064 <lpstore+0xa>
    3b68: 20 6a 79     	jsr	$796a <cputcxy>
    3b6b: a2 6d        	ldx	#$6d
    3b6d: 86 04        	stx	$4                      ; 0x2004 <__heap_default_limit+0x1004>
    3b6f: a6 63        	ldx	$63                     ; 0x2063 <lpstore+0x9>
    3b71: a5 64        	lda	$64                     ; 0x2064 <lpstore+0xa>
    3b73: 20 6a 79     	jsr	$796a <cputcxy>
    3b76: a2 6e        	ldx	#$6e
    3b78: 86 04        	stx	$4                      ; 0x2004 <__heap_default_limit+0x1004>
    3b7a: a6 62        	ldx	$62                     ; 0x2062 <lpstore+0x8>
    3b7c: a5 61        	lda	$61                     ; 0x2061 <lpstore+0x7>
    3b7e: 20 6a 79     	jsr	$796a <cputcxy>
    3b81: a2 7d        	ldx	#$7d
    3b83: 86 04        	stx	$4                      ; 0x2004 <__heap_default_limit+0x1004>
    3b85: a6 63        	ldx	$63                     ; 0x2063 <lpstore+0x9>
    3b87: 86 65        	stx	$65                     ; 0x2065 <lpstore+0xb>
    3b89: a4 61        	ldy	$61                     ; 0x2061 <lpstore+0x7>
    3b8b: 84 63        	sty	$63                     ; 0x2063 <lpstore+0x9>
    3b8d: a5 61        	lda	$61                     ; 0x2061 <lpstore+0x7>
    3b8f: 20 6a 79     	jsr	$796a <cputcxy>
    3b92: a5 60        	lda	$60                     ; 0x2060 <lpstore+0x6>
    3b94: c9 02        	cmp	#$2
    3b96: a6 60        	ldx	$60                     ; 0x2060 <lpstore+0x6>
    3b98: 86 6c        	stx	$6c                     ; 0x206c <lpstore+0x12>
    3b9a: b0 02        	bcs	$3b9e <mcbox+0x74>
    3b9c: a9 01        	lda	#$1
    3b9e: a6 64        	ldx	$64                     ; 0x2064 <lpstore+0xa>
    3ba0: 86 61        	stx	$61                     ; 0x2061 <lpstore+0x7>
    3ba2: 80 1c        	bra	$3bc0 <mcbox+0x96>
    3ba4: e6 61        	inc	$61                     ; 0x2061 <lpstore+0x7>
    3ba6: a2 40        	ldx	#$40
    3ba8: 86 04        	stx	$4                      ; 0x2004 <__heap_default_limit+0x1004>
    3baa: a6 62        	ldx	$62                     ; 0x2062 <lpstore+0x8>
    3bac: 85 60        	sta	$60                     ; 0x2060 <lpstore+0x6>
    3bae: a5 61        	lda	$61                     ; 0x2061 <lpstore+0x7>
    3bb0: 20 6a 79     	jsr	$796a <cputcxy>
    3bb3: a2 40        	ldx	#$40
    3bb5: 86 04        	stx	$4                      ; 0x2004 <__heap_default_limit+0x1004>
    3bb7: a6 65        	ldx	$65                     ; 0x2065 <lpstore+0xb>
    3bb9: a5 61        	lda	$61                     ; 0x2061 <lpstore+0x7>
    3bbb: 20 6a 79     	jsr	$796a <cputcxy>
    3bbe: a5 60        	lda	$60                     ; 0x2060 <lpstore+0x6>
    3bc0: 3a           	dec
    3bc1: d0 e1        	bne	$3ba4 <mcbox+0x7a>
    3bc3: a5 62        	lda	$62                     ; 0x2062 <lpstore+0x8>
    3bc5: 1a           	inc
    3bc6: a6 65        	ldx	$65                     ; 0x2065 <lpstore+0xb>
    3bc8: 86 61        	stx	$61                     ; 0x2061 <lpstore+0x7>
    3bca: 85 6b        	sta	$6b                     ; 0x206b <lpstore+0x11>
    3bcc: 80 1a        	bra	$3be8 <mcbox+0xbe>
    3bce: a2 5d        	ldx	#$5d
    3bd0: 86 04        	stx	$4                      ; 0x2004 <__heap_default_limit+0x1004>
    3bd2: 85 60        	sta	$60                     ; 0x2060 <lpstore+0x6>
    3bd4: aa           	tax
    3bd5: a5 64        	lda	$64                     ; 0x2064 <lpstore+0xa>
    3bd7: 20 6a 79     	jsr	$796a <cputcxy>
    3bda: a2 5d        	ldx	#$5d
    3bdc: 86 04        	stx	$4                      ; 0x2004 <__heap_default_limit+0x1004>
    3bde: a6 60        	ldx	$60                     ; 0x2060 <lpstore+0x6>
    3be0: a5 63        	lda	$63                     ; 0x2063 <lpstore+0x9>
    3be2: 20 6a 79     	jsr	$796a <cputcxy>
    3be5: a5 60        	lda	$60                     ; 0x2060 <lpstore+0x6>
    3be7: 1a           	inc
    3be8: c5 61        	cmp	$61                     ; 0x2061 <lpstore+0x7>
    3bea: 90 e2        	bcc	$3bce <mcbox+0xa4>
    3bec: a5 66        	lda	$66                     ; 0x2066 <lpstore+0xc>
    3bee: d0 03        	bne	$3bf3 <mcbox+0xc9>
    3bf0: 4c b4 3c     	jmp	$3cb4 <mcbox+0x18a>
    3bf3: a6 65        	ldx	$65                     ; 0x2065 <lpstore+0xb>
    3bf5: e4 31        	cpx	$31                     ; 0x2031 <__do_init_stack+0x2>
    3bf7: 90 03        	bcc	$3bfc <mcbox+0xd2>
    3bf9: 4c b4 3c     	jmp	$3cb4 <mcbox+0x18a>
    3bfc: a6 30        	ldx	$30                     ; 0x2030 <__do_init_stack+0x1>
    3bfe: 86 04        	stx	$4                      ; 0x2004 <__heap_default_limit+0x1004>
    3c00: a6 63        	ldx	$63                     ; 0x2063 <lpstore+0x9>
    3c02: e4 04        	cpx	$4                      ; 0x2004 <__heap_default_limit+0x1004>
    3c04: 90 03        	bcc	$3c09 <mcbox+0xdf>
    3c06: 4c b4 3c     	jmp	$3cb4 <mcbox+0x18a>
    3c09: 64 05        	stz	$5                      ; 0x2005 <__heap_default_limit+0x1005>
    3c0b: a6 65        	ldx	$65                     ; 0x2065 <lpstore+0xb>
    3c0d: a0 00        	ldy	#$0
    3c0f: e8           	inx
    3c10: d0 01        	bne	$3c13 <mcbox+0xe9>
    3c12: c8           	iny
    3c13: 8a           	txa
    3c14: 84 65        	sty	$65                     ; 0x2065 <lpstore+0xb>
    3c16: a6 65        	ldx	$65                     ; 0x2065 <lpstore+0xb>
    3c18: 85 62        	sta	$62                     ; 0x2062 <lpstore+0x8>
    3c1a: 20 50 7e     	jsr	$7e50 <__mulhi3>
    3c1d: 85 04        	sta	$4                      ; 0x2004 <__heap_default_limit+0x1004>
    3c1f: 86 05        	stx	$5                      ; 0x2005 <__heap_default_limit+0x1005>
    3c21: 64 08        	stz	$8                      ; 0x2008 <__heap_default_limit+0x1008>
    3c23: 18           	clc
    3c24: a5 64        	lda	$64                     ; 0x2064 <lpstore+0xa>
    3c26: 65 04        	adc	$4                      ; 0x2004 <__heap_default_limit+0x1004>
    3c28: aa           	tax
    3c29: a9 00        	lda	#$0
    3c2b: 65 05        	adc	$5                      ; 0x2005 <__heap_default_limit+0x1005>
    3c2d: 85 04        	sta	$4                      ; 0x2004 <__heap_default_limit+0x1004>
    3c2f: a9 00        	lda	#$0
    3c31: 69 00        	adc	#$0
    3c33: 85 05        	sta	$5                      ; 0x2005 <__heap_default_limit+0x1005>
    3c35: a9 00        	lda	#$0
    3c37: 69 00        	adc	#$0
    3c39: 85 06        	sta	$6                      ; 0x2006 <__heap_default_limit+0x1006>
    3c3b: 18           	clc
    3c3c: 8a           	txa
    3c3d: 69 01        	adc	#$1
    3c3f: a8           	tay
    3c40: a5 04        	lda	$4                      ; 0x2004 <__heap_default_limit+0x1004>
    3c42: 69 00        	adc	#$0
    3c44: 85 09        	sta	$9                      ; 0x2009 <__heap_default_limit+0x1009>
    3c46: a5 05        	lda	$5                      ; 0x2005 <__heap_default_limit+0x1005>
    3c48: 69 f8        	adc	#$f8
    3c4a: 85 04        	sta	$4                      ; 0x2004 <__heap_default_limit+0x1004>
    3c4c: a5 06        	lda	$6                      ; 0x2006 <__heap_default_limit+0x1006>
    3c4e: 69 0f        	adc	#$f
    3c50: a2 0b        	ldx	#$b
    3c52: 85 05        	sta	$5                      ; 0x2005 <__heap_default_limit+0x1005>
    3c54: 86 06        	stx	$6                      ; 0x2006 <__heap_default_limit+0x1006>
    3c56: a6 6c        	ldx	$6c                     ; 0x206c <lpstore+0x12>
    3c58: 86 07        	stx	$7                      ; 0x2007 <__heap_default_limit+0x1007>
    3c5a: a6 09        	ldx	$9                      ; 0x2009 <__heap_default_limit+0x1009>
    3c5c: 98           	tya
    3c5d: 20 2e 7c     	jsr	$7c2e <lfill>
    3c60: a6 63        	ldx	$63                     ; 0x2063 <lpstore+0x9>
    3c62: 86 61        	stx	$61                     ; 0x2061 <lpstore+0x7>
    3c64: e6 61        	inc	$61                     ; 0x2061 <lpstore+0x7>
    3c66: a6 6b        	ldx	$6b                     ; 0x206b <lpstore+0x11>
    3c68: 86 60        	stx	$60                     ; 0x2060 <lpstore+0x6>
    3c6a: 64 63        	stz	$63                     ; 0x2063 <lpstore+0x9>
    3c6c: 4c a4 3c     	jmp	$3ca4 <mcbox+0x17a>
    3c6f: c0 00        	cpy	#$0
    3c71: b0 03        	bcs	$3c76 <mcbox+0x14c>
    3c73: 4c b4 3c     	jmp	$3cb4 <mcbox+0x18a>
    3c76: a5 30        	lda	$30                     ; 0x2030 <__do_init_stack+0x1>
    3c78: a6 60        	ldx	$60                     ; 0x2060 <lpstore+0x6>
    3c7a: 86 04        	stx	$4                      ; 0x2004 <__heap_default_limit+0x1004>
    3c7c: 64 05        	stz	$5                      ; 0x2005 <__heap_default_limit+0x1005>
    3c7e: a2 00        	ldx	#$0
    3c80: 20 50 7e     	jsr	$7e50 <__mulhi3>
    3c83: 18           	clc
    3c84: 65 61        	adc	$61                     ; 0x2061 <lpstore+0x7>
    3c86: a8           	tay
    3c87: 8a           	txa
    3c88: 65 63        	adc	$63                     ; 0x2063 <lpstore+0x9>
    3c8a: 85 07        	sta	$7                      ; 0x2007 <__heap_default_limit+0x1007>
    3c8c: a9 f8        	lda	#$f8
    3c8e: 69 00        	adc	#$0
    3c90: 85 04        	sta	$4                      ; 0x2004 <__heap_default_limit+0x1004>
    3c92: a9 0f        	lda	#$f
    3c94: 69 00        	adc	#$0
    3c96: 85 05        	sta	$5                      ; 0x2005 <__heap_default_limit+0x1005>
    3c98: a2 0b        	ldx	#$b
    3c9a: 86 06        	stx	$6                      ; 0x2006 <__heap_default_limit+0x1006>
    3c9c: a6 07        	ldx	$7                      ; 0x2007 <__heap_default_limit+0x1007>
    3c9e: 98           	tya
    3c9f: 20 90 20     	jsr	$2090 <lpoke>
    3ca2: e6 60        	inc	$60                     ; 0x2060 <lpstore+0x6>
    3ca4: a4 65        	ldy	$65                     ; 0x2065 <lpstore+0xb>
    3ca6: f0 03        	beq	$3cab <mcbox+0x181>
    3ca8: 4c 6f 3c     	jmp	$3c6f <mcbox+0x145>
    3cab: a6 62        	ldx	$62                     ; 0x2062 <lpstore+0x8>
    3cad: e4 60        	cpx	$60                     ; 0x2060 <lpstore+0x6>
    3caf: 90 03        	bcc	$3cb4 <mcbox+0x18a>
    3cb1: 4c 76 3c     	jmp	$3c76 <mcbox+0x14c>
    3cb4: 60           	rts

00003cb5 <messagebox>:
    3cb5: 85 5e        	sta	$5e                     ; 0x205e <lpstore+0x4>
    3cb7: 86 4d        	stx	$4d                     ; 0x204d <_fini+0x2>
    3cb9: a6 0a        	ldx	$a                      ; 0x200a <__heap_default_limit+0x100a>
    3cbb: 86 4c        	stx	$4c                     ; 0x204c <_fini+0x1>
    3cbd: a6 04        	ldx	$4                      ; 0x2004 <__heap_default_limit+0x1004>
    3cbf: 86 5c        	stx	$5c                     ; 0x205c <lpstore+0x2>
    3cc1: a6 05        	ldx	$5                      ; 0x2005 <__heap_default_limit+0x1005>
    3cc3: 86 5d        	stx	$5d                     ; 0x205d <lpstore+0x3>
    3cc5: a6 06        	ldx	$6                      ; 0x2006 <__heap_default_limit+0x1006>
    3cc7: 86 5a        	stx	$5a                     ; 0x205a <lpstore>
    3cc9: a6 07        	ldx	$7                      ; 0x2007 <__heap_default_limit+0x1007>
    3ccb: 86 5b        	stx	$5b                     ; 0x205b <lpstore+0x1>
    3ccd: a6 08        	ldx	$8                      ; 0x2008 <__heap_default_limit+0x1008>
    3ccf: 86 58        	stx	$58                     ; 0x2058 <fourbytes+0x2>
    3cd1: a6 09        	ldx	$9                      ; 0x2009 <__heap_default_limit+0x1009>
    3cd3: 86 59        	stx	$59                     ; 0x2059 <fourbytes+0x3>
    3cd5: a9 46        	lda	#$46
    3cd7: a2 0c        	ldx	#$c
    3cd9: a0 01        	ldy	#$1
    3cdb: 85 04        	sta	$4                      ; 0x2004 <__heap_default_limit+0x1004>
    3cdd: 86 05        	stx	$5                      ; 0x2005 <__heap_default_limit+0x1005>
    3cdf: 84 06        	sty	$6                      ; 0x2006 <__heap_default_limit+0x1006>
    3ce1: a2 04        	ldx	#$4
    3ce3: a9 0a        	lda	#$a
    3ce5: 20 2a 3b     	jsr	$3b2a <mcbox>
    3ce8: a9 20        	lda	#$20
    3cea: 05 2b        	ora	$2b                     ; 0x202b <_start+0xa>
    3cec: 85 2b        	sta	$2b                     ; 0x202b <_start+0xa>
    3cee: a9 0e        	lda	#$e
    3cf0: a2 11        	ldx	#$11
    3cf2: 86 04        	stx	$4                      ; 0x2004 <__heap_default_limit+0x1004>
    3cf4: a2 84        	ldx	#$84
    3cf6: 86 05        	stx	$5                      ; 0x2005 <__heap_default_limit+0x1005>
    3cf8: a2 04        	ldx	#$4
    3cfa: 20 14 3b     	jsr	$3b14 <mcputsxy>
    3cfd: a9 28        	lda	#$28
    3cff: a2 16        	ldx	#$16
    3d01: 86 04        	stx	$4                      ; 0x2004 <__heap_default_limit+0x1004>
    3d03: a2 88        	ldx	#$88
    3d05: 86 05        	stx	$5                      ; 0x2005 <__heap_default_limit+0x1005>
    3d07: a2 04        	ldx	#$4
    3d09: 20 14 3b     	jsr	$3b14 <mcputsxy>
    3d0c: a9 df        	lda	#$df
    3d0e: 25 2b        	and	$2b                     ; 0x202b <_start+0xa>
    3d10: 85 2b        	sta	$2b                     ; 0x202b <_start+0xa>
    3d12: a2 06        	ldx	#$6
    3d14: a4 5c        	ldy	$5c                     ; 0x205c <lpstore+0x2>
    3d16: 84 04        	sty	$4                      ; 0x2004 <__heap_default_limit+0x1004>
    3d18: a4 5d        	ldy	$5d                     ; 0x205d <lpstore+0x3>
    3d1a: 84 05        	sty	$5                      ; 0x2005 <__heap_default_limit+0x1005>
    3d1c: a9 0c        	lda	#$c
    3d1e: 20 14 3b     	jsr	$3b14 <mcputsxy>
    3d21: a2 07        	ldx	#$7
    3d23: a4 5a        	ldy	$5a                     ; 0x205a <lpstore>
    3d25: 84 04        	sty	$4                      ; 0x2004 <__heap_default_limit+0x1004>
    3d27: a4 5b        	ldy	$5b                     ; 0x205b <lpstore+0x1>
    3d29: 84 05        	sty	$5                      ; 0x2005 <__heap_default_limit+0x1005>
    3d2b: a9 0c        	lda	#$c
    3d2d: 20 14 3b     	jsr	$3b14 <mcputsxy>
    3d30: a2 08        	ldx	#$8
    3d32: a4 58        	ldy	$58                     ; 0x2058 <fourbytes+0x2>
    3d34: 84 04        	sty	$4                      ; 0x2004 <__heap_default_limit+0x1004>
    3d36: a4 59        	ldy	$59                     ; 0x2059 <fourbytes+0x3>
    3d38: 84 05        	sty	$5                      ; 0x2005 <__heap_default_limit+0x1005>
    3d3a: a9 0c        	lda	#$c
    3d3c: 20 14 3b     	jsr	$3b14 <mcputsxy>
    3d3f: a4 5e        	ldy	$5e                     ; 0x205e <lpstore+0x4>
    3d41: c0 03        	cpy	#$3
    3d43: f0 03        	beq	$3d48 <messagebox+0x93>
    3d45: 4c d8 3d     	jmp	$3dd8 <messagebox+0x123>
    3d48: a2 a4        	ldx	#$a4
    3d4a: 86 04        	stx	$4                      ; 0x2004 <__heap_default_limit+0x1004>
    3d4c: a2 89        	ldx	#$89
    3d4e: 86 05        	stx	$5                      ; 0x2005 <__heap_default_limit+0x1005>
    3d50: 98           	tya
    3d51: 85 5e        	sta	$5e                     ; 0x205e <lpstore+0x4>
    3d53: 20 2c 3a     	jsr	$3a2c <asciitoscreencode_s>
    3d56: a2 34        	ldx	#$34
    3d58: 86 04        	stx	$4                      ; 0x2004 <__heap_default_limit+0x1004>
    3d5a: a2 03        	ldx	#$3
    3d5c: 86 05        	stx	$5                      ; 0x2005 <__heap_default_limit+0x1005>
    3d5e: 20 0b 7a     	jsr	$7a0b <cputs>
    3d61: a2 24        	ldx	#$24
    3d63: 86 4e        	stx	$4e                     ; 0x204e <_fini+0x3>
    3d65: a9 4e        	lda	#$4e
    3d67: a2 00        	ldx	#$0
    3d69: 85 04        	sta	$4                      ; 0x2004 <__heap_default_limit+0x1004>
    3d6b: 86 05        	stx	$5                      ; 0x2005 <__heap_default_limit+0x1005>
    3d6d: e6 04        	inc	$4                      ; 0x2004 <__heap_default_limit+0x1004>
    3d6f: d0 02        	bne	$3d73 <messagebox+0xbe>
    3d71: e6 05        	inc	$5                      ; 0x2005 <__heap_default_limit+0x1005>
    3d73: 18           	clc
    3d74: 69 04        	adc	#$4
    3d76: 85 06        	sta	$6                      ; 0x2006 <__heap_default_limit+0x1006>
    3d78: a9 00        	lda	#$0
    3d7a: 69 00        	adc	#$0
    3d7c: a6 06        	ldx	$6                      ; 0x2006 <__heap_default_limit+0x1006>
    3d7e: 86 58        	stx	$58                     ; 0x2058 <fourbytes+0x2>
    3d80: 85 59        	sta	$59                     ; 0x2059 <fourbytes+0x3>
    3d82: 46 4c        	lsr	$4c                     ; 0x204c <_fini+0x1>
    3d84: a5 4d        	lda	$4d                     ; 0x204d <_fini+0x2>
    3d86: a6 4d        	ldx	$4d                     ; 0x204d <_fini+0x2>
    3d88: 86 5f        	stx	$5f                     ; 0x205f <lpstore+0x5>
    3d8a: 6a           	ror
    3d8b: 46 4c        	lsr	$4c                     ; 0x204c <_fini+0x1>
    3d8d: 6a           	ror
    3d8e: 46 4c        	lsr	$4c                     ; 0x204c <_fini+0x1>
    3d90: 6a           	ror
    3d91: 46 4c        	lsr	$4c                     ; 0x204c <_fini+0x1>
    3d93: 6a           	ror
    3d94: 85 4c        	sta	$4c                     ; 0x204c <_fini+0x1>
    3d96: 4a           	lsr
    3d97: 4a           	lsr
    3d98: 4a           	lsr
    3d99: 4a           	lsr
    3d9a: 29 0f        	and	#$f
    3d9c: 85 4d        	sta	$4d                     ; 0x204d <_fini+0x2>
    3d9e: a9 30        	lda	#$30
    3da0: a2 05        	ldx	#$5
    3da2: 64 06        	stz	$6                      ; 0x2006 <__heap_default_limit+0x1006>
    3da4: 20 ba 82     	jsr	$82ba <__memset>
    3da7: a6 4d        	ldx	$4d                     ; 0x204d <_fini+0x2>
    3da9: bd af 8d     	lda	$8daf,x                 ; 0x8daf <hexDigits>
    3dac: aa           	tax
    3dad: 86 54        	stx	$54                     ; 0x2054 <_fini+0x9>
    3daf: a5 4c        	lda	$4c                     ; 0x204c <_fini+0x1>
    3db1: 29 0f        	and	#$f
    3db3: aa           	tax
    3db4: bd af 8d     	lda	$8daf,x                 ; 0x8daf <hexDigits>
    3db7: aa           	tax
    3db8: 86 55        	stx	$55                     ; 0x2055 <_fini+0xa>
    3dba: a5 5f        	lda	$5f                     ; 0x205f <lpstore+0x5>
    3dbc: 29 0f        	and	#$f
    3dbe: aa           	tax
    3dbf: bd af 8d     	lda	$8daf,x                 ; 0x8daf <hexDigits>
    3dc2: aa           	tax
    3dc3: 86 56        	stx	$56                     ; 0x2056 <fourbytes>
    3dc5: 64 57        	stz	$57                     ; 0x2057 <fourbytes+0x1>
    3dc7: a2 24        	ldx	#$24
    3dc9: 86 52        	stx	$52                     ; 0x2052 <_fini+0x7>
    3dcb: a6 58        	ldx	$58                     ; 0x2058 <fourbytes+0x2>
    3dcd: 86 04        	stx	$4                      ; 0x2004 <__heap_default_limit+0x1004>
    3dcf: a6 59        	ldx	$59                     ; 0x2059 <fourbytes+0x3>
    3dd1: 86 05        	stx	$5                      ; 0x2005 <__heap_default_limit+0x1005>
    3dd3: 20 0b 7a     	jsr	$7a0b <cputs>
    3dd6: a4 5e        	ldy	$5e                     ; 0x205e <lpstore+0x4>
    3dd8: a9 20        	lda	#$20
    3dda: 05 2b        	ora	$2b                     ; 0x202b <_start+0xa>
    3ddc: 85 2b        	sta	$2b                     ; 0x202b <_start+0xa>
    3dde: c0 04        	cpy	#$4
    3de0: d0 18        	bne	$3dfa <messagebox+0x145>
    3de2: a9 25        	lda	#$25
    3de4: a2 0a        	ldx	#$a
    3de6: a0 bd        	ldy	#$bd
    3de8: 84 04        	sty	$4                      ; 0x2004 <__heap_default_limit+0x1004>
    3dea: a0 86        	ldy	#$86
    3dec: 84 05        	sty	$5                      ; 0x2005 <__heap_default_limit+0x1005>
    3dee: 20 14 3b     	jsr	$3b14 <mcputsxy>
    3df1: a9 df        	lda	#$df
    3df3: 25 2b        	and	$2b                     ; 0x202b <_start+0xa>
    3df5: 85 2b        	sta	$2b                     ; 0x202b <_start+0xa>
    3df7: 4c 48 3e     	jmp	$3e48 <messagebox+0x193>
    3dfa: 84 4c        	sty	$4c                     ; 0x204c <_fini+0x1>
    3dfc: a9 3c        	lda	#$3c
    3dfe: a2 07        	ldx	#$7
    3e00: 86 04        	stx	$4                      ; 0x2004 <__heap_default_limit+0x1004>
    3e02: a2 87        	ldx	#$87
    3e04: 86 05        	stx	$5                      ; 0x2005 <__heap_default_limit+0x1005>
    3e06: a2 0a        	ldx	#$a
    3e08: 20 14 3b     	jsr	$3b14 <mcputsxy>
    3e0b: a9 0c        	lda	#$c
    3e0d: a2 bd        	ldx	#$bd
    3e0f: 86 04        	stx	$4                      ; 0x2004 <__heap_default_limit+0x1004>
    3e11: a2 86        	ldx	#$86
    3e13: 86 05        	stx	$5                      ; 0x2005 <__heap_default_limit+0x1005>
    3e15: a2 0a        	ldx	#$a
    3e17: 20 14 3b     	jsr	$3b14 <mcputsxy>
    3e1a: a9 df        	lda	#$df
    3e1c: 25 2b        	and	$2b                     ; 0x202b <_start+0xa>
    3e1e: 85 2b        	sta	$2b                     ; 0x202b <_start+0xa>
    3e20: a6 4c        	ldx	$4c                     ; 0x204c <_fini+0x1>
    3e22: e0 02        	cpx	#$2
    3e24: f0 31        	beq	$3e57 <messagebox+0x1a2>
    3e26: e0 01        	cpx	#$1
    3e28: d0 1e        	bne	$3e48 <messagebox+0x193>
    3e2a: a9 02        	lda	#$2
    3e2c: a2 82        	ldx	#$82
    3e2e: 86 04        	stx	$4                      ; 0x2004 <__heap_default_limit+0x1004>
    3e30: a2 85        	ldx	#$85
    3e32: 86 05        	stx	$5                      ; 0x2005 <__heap_default_limit+0x1005>
    3e34: a2 01        	ldx	#$1
    3e36: 20 14 3b     	jsr	$3b14 <mcputsxy>
    3e39: a9 3a        	lda	#$3a
    3e3b: a2 a7        	ldx	#$a7
    3e3d: 86 04        	stx	$4                      ; 0x2004 <__heap_default_limit+0x1004>
    3e3f: a2 87        	ldx	#$87
    3e41: 86 05        	stx	$5                      ; 0x2005 <__heap_default_limit+0x1005>
    3e43: a2 01        	ldx	#$1
    3e45: 20 14 3b     	jsr	$3b14 <mcputsxy>
    3e48: 20 97 7b     	jsr	$7b97 <cgetc>
    3e4b: c9 03        	cmp	#$3
    3e4d: f0 0b        	beq	$3e5a <messagebox+0x1a5>
    3e4f: c9 1b        	cmp	#$1b
    3e51: f0 07        	beq	$3e5a <messagebox+0x1a5>
    3e53: c9 0d        	cmp	#$d
    3e55: d0 f1        	bne	$3e48 <messagebox+0x193>
    3e57: a9 01        	lda	#$1
    3e59: 60           	rts
    3e5a: a9 00        	lda	#$0
    3e5c: 60           	rts

00003e5d <progress>:
    3e5d: 85 4f        	sta	$4f                     ; 0x204f <_fini+0x4>
    3e5f: a6 04        	ldx	$4                      ; 0x2004 <__heap_default_limit+0x1004>
    3e61: 86 4b        	stx	$4b                     ; 0x204b <_fini>
    3e63: a6 05        	ldx	$5                      ; 0x2005 <__heap_default_limit+0x1005>
    3e65: 86 4c        	stx	$4c                     ; 0x204c <_fini+0x1>
    3e67: a6 06        	ldx	$6                      ; 0x2006 <__heap_default_limit+0x1006>
    3e69: 86 4d        	stx	$4d                     ; 0x204d <_fini+0x2>
    3e6b: a6 07        	ldx	$7                      ; 0x2007 <__heap_default_limit+0x1007>
    3e6d: 86 4e        	stx	$4e                     ; 0x204e <_fini+0x3>
    3e6f: a2 5b        	ldx	#$5b
    3e71: 86 04        	stx	$4                      ; 0x2004 <__heap_default_limit+0x1004>
    3e73: a2 8d        	ldx	#$8d
    3e75: 86 05        	stx	$5                      ; 0x2005 <__heap_default_limit+0x1005>
    3e77: 20 ed 7a     	jsr	$7aed <fillrect>
    3e7a: a2 06        	ldx	#$6
    3e7c: a4 4b        	ldy	$4b                     ; 0x204b <_fini>
    3e7e: 84 04        	sty	$4                      ; 0x2004 <__heap_default_limit+0x1004>
    3e80: a4 4c        	ldy	$4c                     ; 0x204c <_fini+0x1>
    3e82: 84 05        	sty	$5                      ; 0x2005 <__heap_default_limit+0x1005>
    3e84: a4 4f        	ldy	$4f                     ; 0x204f <_fini+0x4>
    3e86: 84 4b        	sty	$4b                     ; 0x204b <_fini>
    3e88: a9 0c        	lda	#$c
    3e8a: 20 14 3b     	jsr	$3b14 <mcputsxy>
    3e8d: a2 07        	ldx	#$7
    3e8f: a4 4d        	ldy	$4d                     ; 0x204d <_fini+0x2>
    3e91: 84 04        	sty	$4                      ; 0x2004 <__heap_default_limit+0x1004>
    3e93: a4 4e        	ldy	$4e                     ; 0x204e <_fini+0x3>
    3e95: 84 05        	sty	$5                      ; 0x2005 <__heap_default_limit+0x1005>
    3e97: a9 0c        	lda	#$c
    3e99: 20 14 3b     	jsr	$3b14 <mcputsxy>
    3e9c: a2 09        	ldx	#$9
    3e9e: a0 a0        	ldy	#$a0
    3ea0: 84 04        	sty	$4                      ; 0x2004 <__heap_default_limit+0x1004>
    3ea2: a9 0c        	lda	#$c
    3ea4: 20 6a 79     	jsr	$796a <cputcxy>
    3ea7: a5 4b        	lda	$4b                     ; 0x204b <_fini>
    3ea9: 4a           	lsr
    3eaa: 85 4c        	sta	$4c                     ; 0x204c <_fini+0x1>
    3eac: a2 00        	ldx	#$0
    3eae: 80 14        	bra	$3ec4 <progress+0x67>
    3eb0: 86 4d        	stx	$4d                     ; 0x204d <_fini+0x2>
    3eb2: a9 01        	lda	#$1
    3eb4: 29 01        	and	#$1
    3eb6: a2 a0        	ldx	#$a0
    3eb8: a8           	tay
    3eb9: d0 02        	bne	$3ebd <progress+0x60>
    3ebb: a2 7b        	ldx	#$7b
    3ebd: 8a           	txa
    3ebe: 20 61 79     	jsr	$7961 <cputc>
    3ec1: a6 4d        	ldx	$4d                     ; 0x204d <_fini+0x2>
    3ec3: e8           	inx
    3ec4: e0 32        	cpx	#$32
    3ec6: f0 0a        	beq	$3ed2 <progress+0x75>
    3ec8: e4 4c        	cpx	$4c                     ; 0x204c <_fini+0x1>
    3eca: 90 e4        	bcc	$3eb0 <progress+0x53>
    3ecc: 86 4d        	stx	$4d                     ; 0x204d <_fini+0x2>
    3ece: a9 00        	lda	#$0
    3ed0: 80 e2        	bra	$3eb4 <progress+0x57>
    3ed2: a9 65        	lda	#$65
    3ed4: 20 61 79     	jsr	$7961 <cputc>
    3ed7: a2 c7        	ldx	#$c7
    3ed9: 86 04        	stx	$4                      ; 0x2004 <__heap_default_limit+0x1004>
    3edb: a2 83        	ldx	#$83
    3edd: 86 05        	stx	$5                      ; 0x2005 <__heap_default_limit+0x1005>
    3edf: 64 06        	stz	$6                      ; 0x2006 <__heap_default_limit+0x1006>
    3ee1: 64 07        	stz	$7                      ; 0x2007 <__heap_default_limit+0x1007>
    3ee3: a2 00        	ldx	#$0
    3ee5: a5 4b        	lda	$4b                     ; 0x204b <_fini>
    3ee7: 20 e9 3a     	jsr	$3ae9 <mprintf>
    3eea: a9 25        	lda	#$25
    3eec: 20 61 79     	jsr	$7961 <cputc>
    3eef: a9 0c        	lda	#$c
    3ef1: a2 dd        	ldx	#$dd
    3ef3: 86 04        	stx	$4                      ; 0x2004 <__heap_default_limit+0x1004>
    3ef5: a2 89        	ldx	#$89
    3ef7: 86 05        	stx	$5                      ; 0x2005 <__heap_default_limit+0x1005>
    3ef9: a2 0a        	ldx	#$a
    3efb: 20 14 3b     	jsr	$3b14 <mcputsxy>
    3efe: a9 3c        	lda	#$3c
    3f00: a2 dd        	ldx	#$dd
    3f02: 86 04        	stx	$4                      ; 0x2004 <__heap_default_limit+0x1004>
    3f04: a2 89        	ldx	#$89
    3f06: 86 05        	stx	$5                      ; 0x2005 <__heap_default_limit+0x1005>
    3f08: a2 0a        	ldx	#$a
    3f0a: 4c 14 3b     	jmp	$3b14 <mcputsxy>

00003f0d <inputbox>:
    3f0d: a6 16        	ldx	$16                     ; 0x2016 <next_line+0x1>
    3f0f: da           	phx
    3f10: a6 17        	ldx	$17                     ; 0x2017 <next_line+0x2>
    3f12: da           	phx
    3f13: a6 04        	ldx	$4                      ; 0x2004 <__heap_default_limit+0x1004>
    3f15: 86 16        	stx	$16                     ; 0x2016 <next_line+0x1>
    3f17: a6 05        	ldx	$5                      ; 0x2005 <__heap_default_limit+0x1005>
    3f19: 86 17        	stx	$17                     ; 0x2017 <next_line+0x2>
    3f1b: a6 06        	ldx	$6                      ; 0x2006 <__heap_default_limit+0x1006>
    3f1d: 86 04        	stx	$4                      ; 0x2004 <__heap_default_limit+0x1004>
    3f1f: a6 07        	ldx	$7                      ; 0x2007 <__heap_default_limit+0x1007>
    3f21: 86 05        	stx	$5                      ; 0x2005 <__heap_default_limit+0x1005>
    3f23: a9 02        	lda	#$2
    3f25: a2 32        	ldx	#$32
    3f27: 86 06        	stx	$6                      ; 0x2006 <__heap_default_limit+0x1006>
    3f29: a2 85        	ldx	#$85
    3f2b: 86 07        	stx	$7                      ; 0x2007 <__heap_default_limit+0x1007>
    3f2d: a2 32        	ldx	#$32
    3f2f: 86 08        	stx	$8                      ; 0x2008 <__heap_default_limit+0x1008>
    3f31: a2 85        	ldx	#$85
    3f33: 86 09        	stx	$9                      ; 0x2009 <__heap_default_limit+0x1009>
    3f35: 64 0a        	stz	$a                      ; 0x200a <__heap_default_limit+0x100a>
    3f37: 64 0b        	stz	$b                      ; 0x200b <__heap_default_limit+0x100b>
    3f39: 64 0c        	stz	$c                      ; 0x200c <__heap_default_limit+0x100c>
    3f3b: a2 00        	ldx	#$0
    3f3d: 20 b5 3c     	jsr	$3cb5 <messagebox>
    3f40: a2 0c        	ldx	#$c
    3f42: 86 32        	stx	$32                     ; 0x2032 <__do_init_stack+0x3>
    3f44: a2 08        	ldx	#$8
    3f46: 86 33        	stx	$33                     ; 0x2033 <__do_init_stack+0x4>
    3f48: a2 00        	ldx	#$0
    3f4a: 86 04        	stx	$4                      ; 0x2004 <__heap_default_limit+0x1004>
    3f4c: a2 00        	ldx	#$0
    3f4e: 86 05        	stx	$5                      ; 0x2005 <__heap_default_limit+0x1005>
    3f50: a6 17        	ldx	$17                     ; 0x2017 <next_line+0x2>
    3f52: e4 05        	cpx	$5                      ; 0x2005 <__heap_default_limit+0x1005>
    3f54: d0 09        	bne	$3f5f <inputbox+0x52>
    3f56: a6 16        	ldx	$16                     ; 0x2016 <next_line+0x1>
    3f58: e4 04        	cpx	$4                      ; 0x2004 <__heap_default_limit+0x1004>
    3f5a: d0 03        	bne	$3f5f <inputbox+0x52>
    3f5c: 4c fc 3f     	jmp	$3ffc <inputbox+0xef>
    3f5f: 20 3f 79     	jsr	$793f <flushkeybuf>
    3f62: a9 00        	lda	#$0
    3f64: a8           	tay
    3f65: 80 03        	bra	$3f6a <inputbox+0x5d>
    3f67: 91 16        	sta	($16),y                 ; 0x2016 <next_line+0x1>
    3f69: c8           	iny
    3f6a: c0 38        	cpy	#$38
    3f6c: d0 f9        	bne	$3f67 <inputbox+0x5a>
    3f6e: a2 00        	ldx	#$0
    3f70: 80 05        	bra	$3f77 <inputbox+0x6a>
    3f72: a6 48        	ldx	$48                     ; 0x2048 <__after_main>
    3f74: e8           	inx
    3f75: 91 16        	sta	($16),y                 ; 0x2016 <next_line+0x1>
    3f77: 86 48        	stx	$48                     ; 0x2048 <__after_main>
    3f79: 80 2d        	bra	$3fa8 <inputbox+0x9b>
    3f7b: a2 0c        	ldx	#$c
    3f7d: 86 32        	stx	$32                     ; 0x2032 <__do_init_stack+0x3>
    3f7f: a2 08        	ldx	#$8
    3f81: 86 33        	stx	$33                     ; 0x2033 <__do_init_stack+0x4>
    3f83: a9 10        	lda	#$10
    3f85: 05 2b        	ora	$2b                     ; 0x202b <_start+0xa>
    3f87: 85 2b        	sta	$2b                     ; 0x202b <_start+0xa>
    3f89: a9 e0        	lda	#$e0
    3f8b: 20 61 79     	jsr	$7961 <cputc>
    3f8e: a9 ef        	lda	#$ef
    3f90: 25 2b        	and	$2b                     ; 0x202b <_start+0xa>
    3f92: 85 2b        	sta	$2b                     ; 0x202b <_start+0xa>
    3f94: 20 97 7b     	jsr	$7b97 <cgetc>
    3f97: c9 0d        	cmp	#$d
    3f99: d0 03        	bne	$3f9e <inputbox+0x91>
    3f9b: 4c f5 3f     	jmp	$3ff5 <inputbox+0xe8>
    3f9e: c9 14        	cmp	#$14
    3fa0: f0 1c        	beq	$3fbe <inputbox+0xb1>
    3fa2: a4 48        	ldy	$48                     ; 0x2048 <__after_main>
    3fa4: c0 37        	cpy	#$37
    3fa6: 90 30        	bcc	$3fd8 <inputbox+0xcb>
    3fa8: b2 16        	lda	($16),z                 ; 0x2016 <next_line+0x1>
    3faa: f0 cf        	beq	$3f7b <inputbox+0x6e>
    3fac: a6 16        	ldx	$16                     ; 0x2016 <next_line+0x1>
    3fae: 86 04        	stx	$4                      ; 0x2004 <__heap_default_limit+0x1004>
    3fb0: a6 17        	ldx	$17                     ; 0x2017 <next_line+0x2>
    3fb2: 86 05        	stx	$5                      ; 0x2005 <__heap_default_limit+0x1005>
    3fb4: a2 08        	ldx	#$8
    3fb6: a9 0c        	lda	#$c
    3fb8: 20 12 7a     	jsr	$7a12 <cputsxy>
    3fbb: 4c 83 3f     	jmp	$3f83 <inputbox+0x76>
    3fbe: a2 00        	ldx	#$0
    3fc0: a5 48        	lda	$48                     ; 0x2048 <__after_main>
    3fc2: d0 03        	bne	$3fc7 <inputbox+0xba>
    3fc4: 4c 77 3f     	jmp	$3f77 <inputbox+0x6a>
    3fc7: c6 32        	dec	$32                     ; 0x2032 <__do_init_stack+0x3>
    3fc9: a9 20        	lda	#$20
    3fcb: 20 61 79     	jsr	$7961 <cputc>
    3fce: a4 48        	ldy	$48                     ; 0x2048 <__after_main>
    3fd0: 88           	dey
    3fd1: a9 00        	lda	#$0
    3fd3: 5a           	phy
    3fd4: fa           	plx
    3fd5: 4c 75 3f     	jmp	$3f75 <inputbox+0x68>
    3fd8: c9 61        	cmp	#$61
    3fda: b0 03        	bcs	$3fdf <inputbox+0xd2>
    3fdc: 4c 72 3f     	jmp	$3f72 <inputbox+0x65>
    3fdf: c9 7b        	cmp	#$7b
    3fe1: 90 03        	bcc	$3fe6 <inputbox+0xd9>
    3fe3: 4c 72 3f     	jmp	$3f72 <inputbox+0x65>
    3fe6: aa           	tax
    3fe7: ad 18 0d     	lda	$d18                    ; 0xd18 <__bss_size+0xb64>
    3fea: 29 fd        	and	#$fd
    3fec: f0 25        	beq	$4013 <inputbox+0x106>
    3fee: 18           	clc
    3fef: 8a           	txa
    3ff0: 69 e0        	adc	#$e0
    3ff2: 4c 72 3f     	jmp	$3f72 <inputbox+0x65>
    3ff5: c6 32        	dec	$32                     ; 0x2032 <__do_init_stack+0x3>
    3ff7: a9 20        	lda	#$20
    3ff9: 20 61 79     	jsr	$7961 <cputc>
    3ffc: a2 01        	ldx	#$1
    3ffe: 86 32        	stx	$32                     ; 0x2032 <__do_init_stack+0x3>
    4000: a2 0a        	ldx	#$a
    4002: 86 33        	stx	$33                     ; 0x2033 <__do_init_stack+0x4>
    4004: a6 16        	ldx	$16                     ; 0x2016 <next_line+0x1>
    4006: 86 04        	stx	$4                      ; 0x2004 <__heap_default_limit+0x1004>
    4008: a6 17        	ldx	$17                     ; 0x2017 <next_line+0x2>
    400a: 86 05        	stx	$5                      ; 0x2005 <__heap_default_limit+0x1005>
    400c: fa           	plx
    400d: 86 17        	stx	$17                     ; 0x2017 <next_line+0x2>
    400f: fa           	plx
    4010: 86 16        	stx	$16                     ; 0x2016 <next_line+0x1>
    4012: 60           	rts
    4013: 8a           	txa
    4014: 4c 72 3f     	jmp	$3f72 <inputbox+0x65>

00004017 <shortcutprint>:
    4017: 85 4b        	sta	$4b                     ; 0x204b <_fini>
    4019: a6 06        	ldx	$6                      ; 0x2006 <__heap_default_limit+0x1006>
    401b: 86 4d        	stx	$4d                     ; 0x204d <_fini+0x2>
    401d: a6 07        	ldx	$7                      ; 0x2007 <__heap_default_limit+0x1007>
    401f: 86 4e        	stx	$4e                     ; 0x204e <_fini+0x3>
    4021: a6 2b        	ldx	$2b                     ; 0x202b <_start+0xa>
    4023: 86 4c        	stx	$4c                     ; 0x204c <_fini+0x1>
    4025: a9 f0        	lda	#$f0
    4027: 25 2b        	and	$2b                     ; 0x202b <_start+0xa>
    4029: 09 01        	ora	#$1
    402b: 85 2b        	sta	$2b                     ; 0x202b <_start+0xa>
    402d: 20 db 3a     	jsr	$3adb <msprintf>
    4030: a5 4b        	lda	$4b                     ; 0x204b <_fini>
    4032: f0 04        	beq	$4038 <shortcutprint+0x21>
    4034: a2 03        	ldx	#$3
    4036: 80 02        	bra	$403a <shortcutprint+0x23>
    4038: a2 0c        	ldx	#$c
    403a: 86 04        	stx	$4                      ; 0x2004 <__heap_default_limit+0x1004>
    403c: a5 4c        	lda	$4c                     ; 0x204c <_fini+0x1>
    403e: 29 d0        	and	#$d0
    4040: 05 04        	ora	$4                      ; 0x2004 <__heap_default_limit+0x1004>
    4042: 85 4b        	sta	$4b                     ; 0x204b <_fini>
    4044: 09 20        	ora	#$20
    4046: 85 2b        	sta	$2b                     ; 0x202b <_start+0xa>
    4048: a6 4d        	ldx	$4d                     ; 0x204d <_fini+0x2>
    404a: 86 04        	stx	$4                      ; 0x2004 <__heap_default_limit+0x1004>
    404c: a6 4e        	ldx	$4e                     ; 0x204e <_fini+0x3>
    404e: 86 05        	stx	$5                      ; 0x2005 <__heap_default_limit+0x1005>
    4050: 20 db 3a     	jsr	$3adb <msprintf>
    4053: a6 4b        	ldx	$4b                     ; 0x204b <_fini>
    4055: 86 2b        	stx	$2b                     ; 0x202b <_start+0xa>
    4057: 60           	rts

00004058 <shortcuts>:
    4058: 85 04        	sta	$4                      ; 0x2004 <__heap_default_limit+0x1004>
    405a: 64 32        	stz	$32                     ; 0x2032 <__do_init_stack+0x3>
    405c: a0 18        	ldy	#$18
    405e: 84 33        	sty	$33                     ; 0x2033 <__do_init_stack+0x4>
    4060: 29 14        	and	#$14
    4062: d0 03        	bne	$4067 <shortcuts+0xf>
    4064: 4c 35 41     	jmp	$4135 <shortcuts+0xdd>
    4067: a2 ca        	ldx	#$ca
    4069: 86 04        	stx	$4                      ; 0x2004 <__heap_default_limit+0x1004>
    406b: a2 85        	ldx	#$85
    406d: 86 05        	stx	$5                      ; 0x2005 <__heap_default_limit+0x1005>
    406f: a2 9b        	ldx	#$9b
    4071: 86 06        	stx	$6                      ; 0x2006 <__heap_default_limit+0x1006>
    4073: a2 88        	ldx	#$88
    4075: 86 07        	stx	$7                      ; 0x2007 <__heap_default_limit+0x1007>
    4077: a9 00        	lda	#$0
    4079: 20 17 40     	jsr	$4017 <shortcutprint>
    407c: a2 33        	ldx	#$33
    407e: 86 04        	stx	$4                      ; 0x2004 <__heap_default_limit+0x1004>
    4080: a2 85        	ldx	#$85
    4082: 86 05        	stx	$5                      ; 0x2005 <__heap_default_limit+0x1005>
    4084: a2 cf        	ldx	#$cf
    4086: 86 06        	stx	$6                      ; 0x2006 <__heap_default_limit+0x1006>
    4088: a2 84        	ldx	#$84
    408a: 86 07        	stx	$7                      ; 0x2007 <__heap_default_limit+0x1007>
    408c: a9 00        	lda	#$0
    408e: 20 17 40     	jsr	$4017 <shortcutprint>
    4091: a2 a2        	ldx	#$a2
    4093: 86 04        	stx	$4                      ; 0x2004 <__heap_default_limit+0x1004>
    4095: a2 88        	ldx	#$88
    4097: 86 05        	stx	$5                      ; 0x2005 <__heap_default_limit+0x1005>
    4099: a2 cd        	ldx	#$cd
    409b: 86 06        	stx	$6                      ; 0x2006 <__heap_default_limit+0x1006>
    409d: a2 85        	ldx	#$85
    409f: 86 07        	stx	$7                      ; 0x2007 <__heap_default_limit+0x1007>
    40a1: a9 00        	lda	#$0
    40a3: 20 17 40     	jsr	$4017 <shortcutprint>
    40a6: a2 ba        	ldx	#$ba
    40a8: 86 04        	stx	$4                      ; 0x2004 <__heap_default_limit+0x1004>
    40aa: a2 86        	ldx	#$86
    40ac: 86 05        	stx	$5                      ; 0x2005 <__heap_default_limit+0x1005>
    40ae: a2 bc        	ldx	#$bc
    40b0: 86 06        	stx	$6                      ; 0x2006 <__heap_default_limit+0x1006>
    40b2: a2 87        	ldx	#$87
    40b4: 86 07        	stx	$7                      ; 0x2007 <__heap_default_limit+0x1007>
    40b6: a9 00        	lda	#$0
    40b8: 20 17 40     	jsr	$4017 <shortcutprint>
    40bb: a2 a6        	ldx	#$a6
    40bd: 86 04        	stx	$4                      ; 0x2004 <__heap_default_limit+0x1004>
    40bf: a2 83        	ldx	#$83
    40c1: 86 05        	stx	$5                      ; 0x2005 <__heap_default_limit+0x1005>
    40c3: a2 69        	ldx	#$69
    40c5: 86 06        	stx	$6                      ; 0x2006 <__heap_default_limit+0x1006>
    40c7: a2 84        	ldx	#$84
    40c9: 86 07        	stx	$7                      ; 0x2007 <__heap_default_limit+0x1007>
    40cb: a9 00        	lda	#$0
    40cd: 20 17 40     	jsr	$4017 <shortcutprint>
    40d0: a2 2d        	ldx	#$2d
    40d2: 86 04        	stx	$4                      ; 0x2004 <__heap_default_limit+0x1004>
    40d4: a2 86        	ldx	#$86
    40d6: 86 05        	stx	$5                      ; 0x2005 <__heap_default_limit+0x1005>
    40d8: a2 15        	ldx	#$15
    40da: 86 06        	stx	$6                      ; 0x2006 <__heap_default_limit+0x1006>
    40dc: a2 8a        	ldx	#$8a
    40de: 86 07        	stx	$7                      ; 0x2007 <__heap_default_limit+0x1007>
    40e0: a9 00        	lda	#$0
    40e2: 20 17 40     	jsr	$4017 <shortcutprint>
    40e5: a2 e6        	ldx	#$e6
    40e7: 86 04        	stx	$4                      ; 0x2004 <__heap_default_limit+0x1004>
    40e9: a2 89        	ldx	#$89
    40eb: 86 05        	stx	$5                      ; 0x2005 <__heap_default_limit+0x1005>
    40ed: a2 db        	ldx	#$db
    40ef: 86 06        	stx	$6                      ; 0x2006 <__heap_default_limit+0x1006>
    40f1: a2 83        	ldx	#$83
    40f3: 86 07        	stx	$7                      ; 0x2007 <__heap_default_limit+0x1007>
    40f5: a9 00        	lda	#$0
    40f7: 20 17 40     	jsr	$4017 <shortcutprint>
    40fa: a2 5c        	ldx	#$5c
    40fc: 86 04        	stx	$4                      ; 0x2004 <__heap_default_limit+0x1004>
    40fe: a2 8b        	ldx	#$8b
    4100: 86 05        	stx	$5                      ; 0x2005 <__heap_default_limit+0x1005>
    4102: a2 a6        	ldx	#$a6
    4104: 86 06        	stx	$6                      ; 0x2006 <__heap_default_limit+0x1006>
    4106: a2 89        	ldx	#$89
    4108: 86 07        	stx	$7                      ; 0x2007 <__heap_default_limit+0x1007>
    410a: a9 00        	lda	#$0
    410c: 20 17 40     	jsr	$4017 <shortcutprint>
    410f: a2 1f        	ldx	#$1f
    4111: 86 04        	stx	$4                      ; 0x2004 <__heap_default_limit+0x1004>
    4113: a2 89        	ldx	#$89
    4115: 86 05        	stx	$5                      ; 0x2005 <__heap_default_limit+0x1005>
    4117: a2 56        	ldx	#$56
    4119: 86 06        	stx	$6                      ; 0x2006 <__heap_default_limit+0x1006>
    411b: a2 8a        	ldx	#$8a
    411d: 86 07        	stx	$7                      ; 0x2007 <__heap_default_limit+0x1007>
    411f: a9 00        	lda	#$0
    4121: 20 17 40     	jsr	$4017 <shortcutprint>
    4124: a2 a9        	ldx	#$a9
    4126: 86 04        	stx	$4                      ; 0x2004 <__heap_default_limit+0x1004>
    4128: a2 83        	ldx	#$83
    412a: 86 05        	stx	$5                      ; 0x2005 <__heap_default_limit+0x1005>
    412c: a2 22        	ldx	#$22
    412e: 86 06        	stx	$6                      ; 0x2006 <__heap_default_limit+0x1006>
    4130: a2 89        	ldx	#$89
    4132: 4c 47 42     	jmp	$4247 <shortcuts+0x1ef>
    4135: a5 04        	lda	$4                      ; 0x2004 <__heap_default_limit+0x1004>
    4137: 29 09        	and	#$9
    4139: c9 09        	cmp	#$9
    413b: f0 0d        	beq	$414a <shortcuts+0xf2>
    413d: a4 04        	ldy	$4                      ; 0x2004 <__heap_default_limit+0x1004>
    413f: a5 04        	lda	$4                      ; 0x2004 <__heap_default_limit+0x1004>
    4141: 29 0a        	and	#$a
    4143: c9 0a        	cmp	#$a
    4145: f0 03        	beq	$414a <shortcuts+0xf2>
    4147: 4c 57 42     	jmp	$4257 <shortcuts+0x1ff>
    414a: a9 00        	lda	#$0
    414c: 86 48        	stx	$48                     ; 0x2048 <__after_main>
    414e: a2 ca        	ldx	#$ca
    4150: 86 04        	stx	$4                      ; 0x2004 <__heap_default_limit+0x1004>
    4152: a2 85        	ldx	#$85
    4154: 86 05        	stx	$5                      ; 0x2005 <__heap_default_limit+0x1005>
    4156: a2 61        	ldx	#$61
    4158: 86 06        	stx	$6                      ; 0x2006 <__heap_default_limit+0x1006>
    415a: a2 86        	ldx	#$86
    415c: 86 07        	stx	$7                      ; 0x2007 <__heap_default_limit+0x1007>
    415e: 20 17 40     	jsr	$4017 <shortcutprint>
    4161: a2 33        	ldx	#$33
    4163: 86 04        	stx	$4                      ; 0x2004 <__heap_default_limit+0x1004>
    4165: a2 85        	ldx	#$85
    4167: 86 05        	stx	$5                      ; 0x2005 <__heap_default_limit+0x1005>
    4169: a2 61        	ldx	#$61
    416b: 86 06        	stx	$6                      ; 0x2006 <__heap_default_limit+0x1006>
    416d: a2 86        	ldx	#$86
    416f: 86 07        	stx	$7                      ; 0x2007 <__heap_default_limit+0x1007>
    4171: a9 00        	lda	#$0
    4173: 20 17 40     	jsr	$4017 <shortcutprint>
    4176: a2 a2        	ldx	#$a2
    4178: 86 04        	stx	$4                      ; 0x2004 <__heap_default_limit+0x1004>
    417a: a2 88        	ldx	#$88
    417c: 86 05        	stx	$5                      ; 0x2005 <__heap_default_limit+0x1005>
    417e: a2 61        	ldx	#$61
    4180: 86 06        	stx	$6                      ; 0x2006 <__heap_default_limit+0x1006>
    4182: a2 86        	ldx	#$86
    4184: 86 07        	stx	$7                      ; 0x2007 <__heap_default_limit+0x1007>
    4186: a9 00        	lda	#$0
    4188: 20 17 40     	jsr	$4017 <shortcutprint>
    418b: a2 ba        	ldx	#$ba
    418d: 86 04        	stx	$4                      ; 0x2004 <__heap_default_limit+0x1004>
    418f: a2 86        	ldx	#$86
    4191: 86 05        	stx	$5                      ; 0x2005 <__heap_default_limit+0x1005>
    4193: a2 61        	ldx	#$61
    4195: 86 06        	stx	$6                      ; 0x2006 <__heap_default_limit+0x1006>
    4197: a2 86        	ldx	#$86
    4199: 86 07        	stx	$7                      ; 0x2007 <__heap_default_limit+0x1007>
    419b: a9 00        	lda	#$0
    419d: 20 17 40     	jsr	$4017 <shortcutprint>
    41a0: a2 a6        	ldx	#$a6
    41a2: 86 04        	stx	$4                      ; 0x2004 <__heap_default_limit+0x1004>
    41a4: a2 83        	ldx	#$83
    41a6: 86 05        	stx	$5                      ; 0x2005 <__heap_default_limit+0x1005>
    41a8: a2 61        	ldx	#$61
    41aa: 86 06        	stx	$6                      ; 0x2006 <__heap_default_limit+0x1006>
    41ac: a2 86        	ldx	#$86
    41ae: 86 07        	stx	$7                      ; 0x2007 <__heap_default_limit+0x1007>
    41b0: a9 00        	lda	#$0
    41b2: 20 17 40     	jsr	$4017 <shortcutprint>
    41b5: a2 2d        	ldx	#$2d
    41b7: 86 04        	stx	$4                      ; 0x2004 <__heap_default_limit+0x1004>
    41b9: a2 86        	ldx	#$86
    41bb: 86 05        	stx	$5                      ; 0x2005 <__heap_default_limit+0x1005>
    41bd: a2 61        	ldx	#$61
    41bf: 86 06        	stx	$6                      ; 0x2006 <__heap_default_limit+0x1006>
    41c1: a2 86        	ldx	#$86
    41c3: 86 07        	stx	$7                      ; 0x2007 <__heap_default_limit+0x1007>
    41c5: a9 00        	lda	#$0
    41c7: 20 17 40     	jsr	$4017 <shortcutprint>
    41ca: a0 01        	ldy	#$1
    41cc: a6 48        	ldx	$48                     ; 0x2048 <__after_main>
    41ce: 86 04        	stx	$4                      ; 0x2004 <__heap_default_limit+0x1004>
    41d0: 06 04        	asl	$4                      ; 0x2004 <__heap_default_limit+0x1004>
    41d2: 64 05        	stz	$5                      ; 0x2005 <__heap_default_limit+0x1005>
    41d4: 26 05        	rol	$5                      ; 0x2005 <__heap_default_limit+0x1005>
    41d6: a9 27        	lda	#$27
    41d8: 18           	clc
    41d9: 65 04        	adc	$4                      ; 0x2004 <__heap_default_limit+0x1004>
    41db: 85 04        	sta	$4                      ; 0x2004 <__heap_default_limit+0x1004>
    41dd: a9 00        	lda	#$0
    41df: 65 05        	adc	$5                      ; 0x2005 <__heap_default_limit+0x1005>
    41e1: 85 05        	sta	$5                      ; 0x2005 <__heap_default_limit+0x1005>
    41e3: b2 04        	lda	($4),z                  ; 0x2004 <__heap_default_limit+0x1004>
    41e5: aa           	tax
    41e6: b1 04        	lda	($4),y                  ; 0x2004 <__heap_default_limit+0x1004>
    41e8: 86 04        	stx	$4                      ; 0x2004 <__heap_default_limit+0x1004>
    41ea: 85 05        	sta	$5                      ; 0x2005 <__heap_default_limit+0x1005>
    41ec: a0 47        	ldy	#$47
    41ee: b1 04        	lda	($4),y                  ; 0x2004 <__heap_default_limit+0x1004>
    41f0: 85 04        	sta	$4                      ; 0x2004 <__heap_default_limit+0x1004>
    41f2: a9 01        	lda	#$1
    41f4: a6 04        	ldx	$4                      ; 0x2004 <__heap_default_limit+0x1004>
    41f6: e0 28        	cpx	#$28
    41f8: f0 02        	beq	$41fc <shortcuts+0x1a4>
    41fa: a9 00        	lda	#$0
    41fc: a2 e6        	ldx	#$e6
    41fe: 86 04        	stx	$4                      ; 0x2004 <__heap_default_limit+0x1004>
    4200: a2 89        	ldx	#$89
    4202: 86 05        	stx	$5                      ; 0x2005 <__heap_default_limit+0x1005>
    4204: a2 5f        	ldx	#$5f
    4206: 86 06        	stx	$6                      ; 0x2006 <__heap_default_limit+0x1006>
    4208: a2 8b        	ldx	#$8b
    420a: 86 07        	stx	$7                      ; 0x2007 <__heap_default_limit+0x1007>
    420c: 20 17 40     	jsr	$4017 <shortcutprint>
    420f: a2 5c        	ldx	#$5c
    4211: 86 04        	stx	$4                      ; 0x2004 <__heap_default_limit+0x1004>
    4213: a2 8b        	ldx	#$8b
    4215: 86 05        	stx	$5                      ; 0x2005 <__heap_default_limit+0x1005>
    4217: a2 61        	ldx	#$61
    4219: 86 06        	stx	$6                      ; 0x2006 <__heap_default_limit+0x1006>
    421b: a2 86        	ldx	#$86
    421d: 86 07        	stx	$7                      ; 0x2007 <__heap_default_limit+0x1007>
    421f: a9 00        	lda	#$0
    4221: 20 17 40     	jsr	$4017 <shortcutprint>
    4224: a2 1f        	ldx	#$1f
    4226: 86 04        	stx	$4                      ; 0x2004 <__heap_default_limit+0x1004>
    4228: a2 89        	ldx	#$89
    422a: 86 05        	stx	$5                      ; 0x2005 <__heap_default_limit+0x1005>
    422c: a2 61        	ldx	#$61
    422e: 86 06        	stx	$6                      ; 0x2006 <__heap_default_limit+0x1006>
    4230: a2 86        	ldx	#$86
    4232: 86 07        	stx	$7                      ; 0x2007 <__heap_default_limit+0x1007>
    4234: a9 00        	lda	#$0
    4236: 20 17 40     	jsr	$4017 <shortcutprint>
    4239: a2 a9        	ldx	#$a9
    423b: 86 04        	stx	$4                      ; 0x2004 <__heap_default_limit+0x1004>
    423d: a2 83        	ldx	#$83
    423f: 86 05        	stx	$5                      ; 0x2005 <__heap_default_limit+0x1005>
    4241: a2 10        	ldx	#$10
    4243: 86 06        	stx	$6                      ; 0x2006 <__heap_default_limit+0x1006>
    4245: a2 88        	ldx	#$88
    4247: 86 07        	stx	$7                      ; 0x2007 <__heap_default_limit+0x1007>
    4249: a9 00        	lda	#$0
    424b: 20 17 40     	jsr	$4017 <shortcutprint>
    424e: a9 f0        	lda	#$f0
    4250: 25 2b        	and	$2b                     ; 0x202b <_start+0xa>
    4252: 09 03        	ora	#$3
    4254: 85 2b        	sta	$2b                     ; 0x202b <_start+0xa>
    4256: 60           	rts
    4257: 98           	tya
    4258: 29 08        	and	#$8
    425a: f0 03        	beq	$425f <shortcuts+0x207>
    425c: 4c 25 43     	jmp	$4325 <shortcuts+0x2cd>
    425f: a5 04        	lda	$4                      ; 0x2004 <__heap_default_limit+0x1004>
    4261: 29 03        	and	#$3
    4263: d0 03        	bne	$4268 <shortcuts+0x210>
    4265: 4c 33 44     	jmp	$4433 <shortcuts+0x3db>
    4268: a2 ca        	ldx	#$ca
    426a: 86 04        	stx	$4                      ; 0x2004 <__heap_default_limit+0x1004>
    426c: a2 85        	ldx	#$85
    426e: 86 05        	stx	$5                      ; 0x2005 <__heap_default_limit+0x1005>
    4270: a2 cf        	ldx	#$cf
    4272: 86 06        	stx	$6                      ; 0x2006 <__heap_default_limit+0x1006>
    4274: a2 84        	ldx	#$84
    4276: 86 07        	stx	$7                      ; 0x2007 <__heap_default_limit+0x1007>
    4278: a9 01        	lda	#$1
    427a: 20 17 40     	jsr	$4017 <shortcutprint>
    427d: a2 33        	ldx	#$33
    427f: 86 04        	stx	$4                      ; 0x2004 <__heap_default_limit+0x1004>
    4281: a2 85        	ldx	#$85
    4283: 86 05        	stx	$5                      ; 0x2005 <__heap_default_limit+0x1005>
    4285: a2 61        	ldx	#$61
    4287: 86 06        	stx	$6                      ; 0x2006 <__heap_default_limit+0x1006>
    4289: a2 86        	ldx	#$86
    428b: 86 07        	stx	$7                      ; 0x2007 <__heap_default_limit+0x1007>
    428d: a9 00        	lda	#$0
    428f: 20 17 40     	jsr	$4017 <shortcutprint>
    4292: a2 a2        	ldx	#$a2
    4294: 86 04        	stx	$4                      ; 0x2004 <__heap_default_limit+0x1004>
    4296: a2 88        	ldx	#$88
    4298: 86 05        	stx	$5                      ; 0x2005 <__heap_default_limit+0x1005>
    429a: a2 bc        	ldx	#$bc
    429c: 86 06        	stx	$6                      ; 0x2006 <__heap_default_limit+0x1006>
    429e: a2 87        	ldx	#$87
    42a0: 86 07        	stx	$7                      ; 0x2007 <__heap_default_limit+0x1007>
    42a2: a9 00        	lda	#$0
    42a4: 20 17 40     	jsr	$4017 <shortcutprint>
    42a7: a2 ba        	ldx	#$ba
    42a9: 86 04        	stx	$4                      ; 0x2004 <__heap_default_limit+0x1004>
    42ab: a2 86        	ldx	#$86
    42ad: 86 05        	stx	$5                      ; 0x2005 <__heap_default_limit+0x1005>
    42af: a2 61        	ldx	#$61
    42b1: 86 06        	stx	$6                      ; 0x2006 <__heap_default_limit+0x1006>
    42b3: a2 86        	ldx	#$86
    42b5: 86 07        	stx	$7                      ; 0x2007 <__heap_default_limit+0x1007>
    42b7: a9 00        	lda	#$0
    42b9: 20 17 40     	jsr	$4017 <shortcutprint>
    42bc: a2 a6        	ldx	#$a6
    42be: 86 04        	stx	$4                      ; 0x2004 <__heap_default_limit+0x1004>
    42c0: a2 83        	ldx	#$83
    42c2: 86 05        	stx	$5                      ; 0x2005 <__heap_default_limit+0x1005>
    42c4: a2 15        	ldx	#$15
    42c6: 86 06        	stx	$6                      ; 0x2006 <__heap_default_limit+0x1006>
    42c8: a2 8a        	ldx	#$8a
    42ca: 86 07        	stx	$7                      ; 0x2007 <__heap_default_limit+0x1007>
    42cc: a9 00        	lda	#$0
    42ce: 20 17 40     	jsr	$4017 <shortcutprint>
    42d1: a2 2d        	ldx	#$2d
    42d3: 86 04        	stx	$4                      ; 0x2004 <__heap_default_limit+0x1004>
    42d5: a2 86        	ldx	#$86
    42d7: 86 05        	stx	$5                      ; 0x2005 <__heap_default_limit+0x1005>
    42d9: a2 61        	ldx	#$61
    42db: 86 06        	stx	$6                      ; 0x2006 <__heap_default_limit+0x1006>
    42dd: a2 86        	ldx	#$86
    42df: 86 07        	stx	$7                      ; 0x2007 <__heap_default_limit+0x1007>
    42e1: a9 00        	lda	#$0
    42e3: 20 17 40     	jsr	$4017 <shortcutprint>
    42e6: a2 e6        	ldx	#$e6
    42e8: 86 04        	stx	$4                      ; 0x2004 <__heap_default_limit+0x1004>
    42ea: a2 89        	ldx	#$89
    42ec: 86 05        	stx	$5                      ; 0x2005 <__heap_default_limit+0x1005>
    42ee: a2 a6        	ldx	#$a6
    42f0: 86 06        	stx	$6                      ; 0x2006 <__heap_default_limit+0x1006>
    42f2: a2 89        	ldx	#$89
    42f4: 86 07        	stx	$7                      ; 0x2007 <__heap_default_limit+0x1007>
    42f6: a9 01        	lda	#$1
    42f8: 20 17 40     	jsr	$4017 <shortcutprint>
    42fb: a2 5c        	ldx	#$5c
    42fd: 86 04        	stx	$4                      ; 0x2004 <__heap_default_limit+0x1004>
    42ff: a2 8b        	ldx	#$8b
    4301: 86 05        	stx	$5                      ; 0x2005 <__heap_default_limit+0x1005>
    4303: a2 61        	ldx	#$61
    4305: 86 06        	stx	$6                      ; 0x2006 <__heap_default_limit+0x1006>
    4307: a2 86        	ldx	#$86
    4309: 86 07        	stx	$7                      ; 0x2007 <__heap_default_limit+0x1007>
    430b: a9 00        	lda	#$0
    430d: 20 17 40     	jsr	$4017 <shortcutprint>
    4310: a2 1f        	ldx	#$1f
    4312: 86 04        	stx	$4                      ; 0x2004 <__heap_default_limit+0x1004>
    4314: a2 89        	ldx	#$89
    4316: 86 05        	stx	$5                      ; 0x2005 <__heap_default_limit+0x1005>
    4318: a2 66        	ldx	#$66
    431a: 86 06        	stx	$6                      ; 0x2006 <__heap_default_limit+0x1006>
    431c: a2 8b        	ldx	#$8b
    431e: 86 07        	stx	$7                      ; 0x2007 <__heap_default_limit+0x1007>
    4320: a9 01        	lda	#$1
    4322: 4c 36 42     	jmp	$4236 <shortcuts+0x1de>
    4325: 86 48        	stx	$48                     ; 0x2048 <__after_main>
    4327: a2 ca        	ldx	#$ca
    4329: 86 04        	stx	$4                      ; 0x2004 <__heap_default_limit+0x1004>
    432b: a2 85        	ldx	#$85
    432d: 86 05        	stx	$5                      ; 0x2005 <__heap_default_limit+0x1005>
    432f: a2 61        	ldx	#$61
    4331: 86 06        	stx	$6                      ; 0x2006 <__heap_default_limit+0x1006>
    4333: a2 86        	ldx	#$86
    4335: 86 07        	stx	$7                      ; 0x2007 <__heap_default_limit+0x1007>
    4337: a9 00        	lda	#$0
    4339: 20 17 40     	jsr	$4017 <shortcutprint>
    433c: a2 33        	ldx	#$33
    433e: 86 04        	stx	$4                      ; 0x2004 <__heap_default_limit+0x1004>
    4340: a2 85        	ldx	#$85
    4342: 86 05        	stx	$5                      ; 0x2005 <__heap_default_limit+0x1005>
    4344: a2 61        	ldx	#$61
    4346: 86 06        	stx	$6                      ; 0x2006 <__heap_default_limit+0x1006>
    4348: a2 86        	ldx	#$86
    434a: 86 07        	stx	$7                      ; 0x2007 <__heap_default_limit+0x1007>
    434c: a9 00        	lda	#$0
    434e: 20 17 40     	jsr	$4017 <shortcutprint>
    4351: a9 01        	lda	#$1
    4353: a2 a2        	ldx	#$a2
    4355: 86 04        	stx	$4                      ; 0x2004 <__heap_default_limit+0x1004>
    4357: a2 88        	ldx	#$88
    4359: 86 05        	stx	$5                      ; 0x2005 <__heap_default_limit+0x1005>
    435b: a2 28        	ldx	#$28
    435d: 86 06        	stx	$6                      ; 0x2006 <__heap_default_limit+0x1006>
    435f: a2 89        	ldx	#$89
    4361: 86 07        	stx	$7                      ; 0x2007 <__heap_default_limit+0x1007>
    4363: 20 17 40     	jsr	$4017 <shortcutprint>
    4366: a2 ba        	ldx	#$ba
    4368: 86 04        	stx	$4                      ; 0x2004 <__heap_default_limit+0x1004>
    436a: a2 86        	ldx	#$86
    436c: 86 05        	stx	$5                      ; 0x2005 <__heap_default_limit+0x1005>
    436e: a2 61        	ldx	#$61
    4370: 86 06        	stx	$6                      ; 0x2006 <__heap_default_limit+0x1006>
    4372: a2 86        	ldx	#$86
    4374: 86 07        	stx	$7                      ; 0x2007 <__heap_default_limit+0x1007>
    4376: a9 00        	lda	#$0
    4378: 20 17 40     	jsr	$4017 <shortcutprint>
    437b: a6 48        	ldx	$48                     ; 0x2048 <__after_main>
    437d: 86 04        	stx	$4                      ; 0x2004 <__heap_default_limit+0x1004>
    437f: 06 04        	asl	$4                      ; 0x2004 <__heap_default_limit+0x1004>
    4381: a9 00        	lda	#$0
    4383: 2a           	rol
    4384: 85 05        	sta	$5                      ; 0x2005 <__heap_default_limit+0x1005>
    4386: a9 27        	lda	#$27
    4388: 18           	clc
    4389: 65 04        	adc	$4                      ; 0x2004 <__heap_default_limit+0x1004>
    438b: 85 04        	sta	$4                      ; 0x2004 <__heap_default_limit+0x1004>
    438d: a9 00        	lda	#$0
    438f: 65 05        	adc	$5                      ; 0x2005 <__heap_default_limit+0x1005>
    4391: 85 05        	sta	$5                      ; 0x2005 <__heap_default_limit+0x1005>
    4393: b2 04        	lda	($4),z                  ; 0x2004 <__heap_default_limit+0x1004>
    4395: 85 06        	sta	$6                      ; 0x2006 <__heap_default_limit+0x1006>
    4397: a2 01        	ldx	#$1
    4399: 86 4a        	stx	$4a                     ; 0x204a <__after_main+0x2>
    439b: a0 01        	ldy	#$1
    439d: b1 04        	lda	($4),y                  ; 0x2004 <__heap_default_limit+0x1004>
    439f: 85 07        	sta	$7                      ; 0x2007 <__heap_default_limit+0x1007>
    43a1: a0 47        	ldy	#$47
    43a3: a6 06        	ldx	$6                      ; 0x2006 <__heap_default_limit+0x1006>
    43a5: 86 04        	stx	$4                      ; 0x2004 <__heap_default_limit+0x1004>
    43a7: 85 05        	sta	$5                      ; 0x2005 <__heap_default_limit+0x1005>
    43a9: a6 04        	ldx	$4                      ; 0x2004 <__heap_default_limit+0x1004>
    43ab: 86 48        	stx	$48                     ; 0x2048 <__after_main>
    43ad: a6 05        	ldx	$5                      ; 0x2005 <__heap_default_limit+0x1005>
    43af: 86 49        	stx	$49                     ; 0x2049 <__after_main+0x1>
    43b1: b1 06        	lda	($6),y                  ; 0x2006 <__heap_default_limit+0x1006>
    43b3: a2 01        	ldx	#$1
    43b5: c9 28        	cmp	#$28
    43b7: f0 02        	beq	$43bb <shortcuts+0x363>
    43b9: a2 00        	ldx	#$0
    43bb: a0 a6        	ldy	#$a6
    43bd: 84 04        	sty	$4                      ; 0x2004 <__heap_default_limit+0x1004>
    43bf: a0 83        	ldy	#$83
    43c1: 84 05        	sty	$5                      ; 0x2005 <__heap_default_limit+0x1005>
    43c3: a0 30        	ldy	#$30
    43c5: 84 06        	sty	$6                      ; 0x2006 <__heap_default_limit+0x1006>
    43c7: a0 86        	ldy	#$86
    43c9: 84 07        	sty	$7                      ; 0x2007 <__heap_default_limit+0x1007>
    43cb: 8a           	txa
    43cc: 20 17 40     	jsr	$4017 <shortcutprint>
    43cf: a9 00        	lda	#$0
    43d1: a2 2d        	ldx	#$2d
    43d3: 86 04        	stx	$4                      ; 0x2004 <__heap_default_limit+0x1004>
    43d5: a2 86        	ldx	#$86
    43d7: 86 05        	stx	$5                      ; 0x2005 <__heap_default_limit+0x1005>
    43d9: a2 61        	ldx	#$61
    43db: 86 06        	stx	$6                      ; 0x2006 <__heap_default_limit+0x1006>
    43dd: a2 86        	ldx	#$86
    43df: 86 07        	stx	$7                      ; 0x2007 <__heap_default_limit+0x1007>
    43e1: 20 17 40     	jsr	$4017 <shortcutprint>
    43e4: a9 01        	lda	#$1
    43e6: a2 e6        	ldx	#$e6
    43e8: 86 04        	stx	$4                      ; 0x2004 <__heap_default_limit+0x1004>
    43ea: a2 89        	ldx	#$89
    43ec: 86 05        	stx	$5                      ; 0x2005 <__heap_default_limit+0x1005>
    43ee: a2 90        	ldx	#$90
    43f0: 86 06        	stx	$6                      ; 0x2006 <__heap_default_limit+0x1006>
    43f2: a2 8b        	ldx	#$8b
    43f4: 86 07        	stx	$7                      ; 0x2007 <__heap_default_limit+0x1007>
    43f6: 20 17 40     	jsr	$4017 <shortcutprint>
    43f9: a6 48        	ldx	$48                     ; 0x2048 <__after_main>
    43fb: 86 04        	stx	$4                      ; 0x2004 <__heap_default_limit+0x1004>
    43fd: a6 49        	ldx	$49                     ; 0x2049 <__after_main+0x1>
    43ff: 86 05        	stx	$5                      ; 0x2005 <__heap_default_limit+0x1005>
    4401: a0 47        	ldy	#$47
    4403: b1 04        	lda	($4),y                  ; 0x2004 <__heap_default_limit+0x1004>
    4405: c9 28        	cmp	#$28
    4407: f0 04        	beq	$440d <shortcuts+0x3b5>
    4409: a2 00        	ldx	#$0
    440b: 86 4a        	stx	$4a                     ; 0x204a <__after_main+0x2>
    440d: a2 5c        	ldx	#$5c
    440f: 86 04        	stx	$4                      ; 0x2004 <__heap_default_limit+0x1004>
    4411: a2 8b        	ldx	#$8b
    4413: 86 05        	stx	$5                      ; 0x2005 <__heap_default_limit+0x1005>
    4415: a2 5f        	ldx	#$5f
    4417: 86 06        	stx	$6                      ; 0x2006 <__heap_default_limit+0x1006>
    4419: a2 8b        	ldx	#$8b
    441b: 86 07        	stx	$7                      ; 0x2007 <__heap_default_limit+0x1007>
    441d: a5 4a        	lda	$4a                     ; 0x204a <__after_main+0x2>
    441f: 20 17 40     	jsr	$4017 <shortcutprint>
    4422: a2 1f        	ldx	#$1f
    4424: 86 04        	stx	$4                      ; 0x2004 <__heap_default_limit+0x1004>
    4426: a2 89        	ldx	#$89
    4428: 86 05        	stx	$5                      ; 0x2005 <__heap_default_limit+0x1005>
    442a: a2 61        	ldx	#$61
    442c: 86 06        	stx	$6                      ; 0x2006 <__heap_default_limit+0x1006>
    442e: a2 86        	ldx	#$86
    4430: 4c 32 42     	jmp	$4232 <shortcuts+0x1da>
    4433: a2 ca        	ldx	#$ca
    4435: 86 04        	stx	$4                      ; 0x2004 <__heap_default_limit+0x1004>
    4437: a2 85        	ldx	#$85
    4439: 86 05        	stx	$5                      ; 0x2005 <__heap_default_limit+0x1005>
    443b: a2 9b        	ldx	#$9b
    443d: 86 06        	stx	$6                      ; 0x2006 <__heap_default_limit+0x1006>
    443f: a2 88        	ldx	#$88
    4441: 86 07        	stx	$7                      ; 0x2007 <__heap_default_limit+0x1007>
    4443: a9 01        	lda	#$1
    4445: 20 17 40     	jsr	$4017 <shortcutprint>
    4448: a2 33        	ldx	#$33
    444a: 86 04        	stx	$4                      ; 0x2004 <__heap_default_limit+0x1004>
    444c: a2 85        	ldx	#$85
    444e: 86 05        	stx	$5                      ; 0x2005 <__heap_default_limit+0x1005>
    4450: a2 cf        	ldx	#$cf
    4452: 86 06        	stx	$6                      ; 0x2006 <__heap_default_limit+0x1006>
    4454: a2 84        	ldx	#$84
    4456: 86 07        	stx	$7                      ; 0x2007 <__heap_default_limit+0x1007>
    4458: a9 01        	lda	#$1
    445a: 20 17 40     	jsr	$4017 <shortcutprint>
    445d: a2 a2        	ldx	#$a2
    445f: 86 04        	stx	$4                      ; 0x2004 <__heap_default_limit+0x1004>
    4461: a2 88        	ldx	#$88
    4463: 86 05        	stx	$5                      ; 0x2005 <__heap_default_limit+0x1005>
    4465: a2 cd        	ldx	#$cd
    4467: 86 06        	stx	$6                      ; 0x2006 <__heap_default_limit+0x1006>
    4469: a2 85        	ldx	#$85
    446b: 86 07        	stx	$7                      ; 0x2007 <__heap_default_limit+0x1007>
    446d: a9 00        	lda	#$0
    446f: 20 17 40     	jsr	$4017 <shortcutprint>
    4472: a2 ba        	ldx	#$ba
    4474: 86 04        	stx	$4                      ; 0x2004 <__heap_default_limit+0x1004>
    4476: a2 86        	ldx	#$86
    4478: 86 05        	stx	$5                      ; 0x2005 <__heap_default_limit+0x1005>
    447a: a2 bc        	ldx	#$bc
    447c: 86 06        	stx	$6                      ; 0x2006 <__heap_default_limit+0x1006>
    447e: a2 87        	ldx	#$87
    4480: 86 07        	stx	$7                      ; 0x2007 <__heap_default_limit+0x1007>
    4482: a9 00        	lda	#$0
    4484: 20 17 40     	jsr	$4017 <shortcutprint>
    4487: a2 a6        	ldx	#$a6
    4489: 86 04        	stx	$4                      ; 0x2004 <__heap_default_limit+0x1004>
    448b: a2 83        	ldx	#$83
    448d: 86 05        	stx	$5                      ; 0x2005 <__heap_default_limit+0x1005>
    448f: a2 69        	ldx	#$69
    4491: 86 06        	stx	$6                      ; 0x2006 <__heap_default_limit+0x1006>
    4493: a2 84        	ldx	#$84
    4495: 86 07        	stx	$7                      ; 0x2007 <__heap_default_limit+0x1007>
    4497: a9 01        	lda	#$1
    4499: 20 17 40     	jsr	$4017 <shortcutprint>
    449c: a2 2d        	ldx	#$2d
    449e: 86 04        	stx	$4                      ; 0x2004 <__heap_default_limit+0x1004>
    44a0: a2 86        	ldx	#$86
    44a2: 86 05        	stx	$5                      ; 0x2005 <__heap_default_limit+0x1005>
    44a4: a2 15        	ldx	#$15
    44a6: 86 06        	stx	$6                      ; 0x2006 <__heap_default_limit+0x1006>
    44a8: a2 8a        	ldx	#$8a
    44aa: 86 07        	stx	$7                      ; 0x2007 <__heap_default_limit+0x1007>
    44ac: a9 00        	lda	#$0
    44ae: 20 17 40     	jsr	$4017 <shortcutprint>
    44b1: a2 e6        	ldx	#$e6
    44b3: 86 04        	stx	$4                      ; 0x2004 <__heap_default_limit+0x1004>
    44b5: a2 89        	ldx	#$89
    44b7: 86 05        	stx	$5                      ; 0x2005 <__heap_default_limit+0x1005>
    44b9: a2 db        	ldx	#$db
    44bb: 86 06        	stx	$6                      ; 0x2006 <__heap_default_limit+0x1006>
    44bd: a2 83        	ldx	#$83
    44bf: 86 07        	stx	$7                      ; 0x2007 <__heap_default_limit+0x1007>
    44c1: a9 01        	lda	#$1
    44c3: 20 17 40     	jsr	$4017 <shortcutprint>
    44c6: a2 5c        	ldx	#$5c
    44c8: 86 04        	stx	$4                      ; 0x2004 <__heap_default_limit+0x1004>
    44ca: a2 8b        	ldx	#$8b
    44cc: 86 05        	stx	$5                      ; 0x2005 <__heap_default_limit+0x1005>
    44ce: a2 a6        	ldx	#$a6
    44d0: 86 06        	stx	$6                      ; 0x2006 <__heap_default_limit+0x1006>
    44d2: a2 89        	ldx	#$89
    44d4: 86 07        	stx	$7                      ; 0x2007 <__heap_default_limit+0x1007>
    44d6: a9 01        	lda	#$1
    44d8: 20 17 40     	jsr	$4017 <shortcutprint>
    44db: a2 1f        	ldx	#$1f
    44dd: 86 04        	stx	$4                      ; 0x2004 <__heap_default_limit+0x1004>
    44df: a2 89        	ldx	#$89
    44e1: 86 05        	stx	$5                      ; 0x2005 <__heap_default_limit+0x1005>
    44e3: a2 56        	ldx	#$56
    44e5: 86 06        	stx	$6                      ; 0x2006 <__heap_default_limit+0x1006>
    44e7: a2 8a        	ldx	#$8a
    44e9: 86 07        	stx	$7                      ; 0x2007 <__heap_default_limit+0x1007>
    44eb: a9 01        	lda	#$1
    44ed: 20 17 40     	jsr	$4017 <shortcutprint>
    44f0: a2 a9        	ldx	#$a9
    44f2: 86 04        	stx	$4                      ; 0x2004 <__heap_default_limit+0x1004>
    44f4: a2 83        	ldx	#$83
    44f6: 86 05        	stx	$5                      ; 0x2005 <__heap_default_limit+0x1005>
    44f8: a2 22        	ldx	#$22
    44fa: 86 06        	stx	$6                      ; 0x2006 <__heap_default_limit+0x1006>
    44fc: a2 89        	ldx	#$89
    44fe: 86 07        	stx	$7                      ; 0x2007 <__heap_default_limit+0x1007>
    4500: a9 01        	lda	#$1
    4502: 4c 4b 42     	jmp	$424b <shortcuts+0x1f3>

00004505 <optionstring>:
    4505: 86 08        	stx	$8                      ; 0x2008 <__heap_default_limit+0x1008>
    4507: a6 06        	ldx	$6                      ; 0x2006 <__heap_default_limit+0x1006>
    4509: 25 08        	and	$8                      ; 0x2008 <__heap_default_limit+0x1008>
    450b: f0 04        	beq	$4511 <optionstring+0xc>
    450d: a0 2a        	ldy	#$2a
    450f: 80 02        	bra	$4513 <optionstring+0xe>
    4511: a0 6f        	ldy	#$6f
    4513: 8c e0 8d     	sty	$8de0                   ; 0x8de0 <s>
    4516: a0 20        	ldy	#$20
    4518: 8c e1 8d     	sty	$8de1                   ; 0x8de1 <s+0x1>
    451b: a9 3e        	lda	#$3e
    451d: e4 07        	cpx	$7                      ; 0x2007 <__heap_default_limit+0x1007>
    451f: f0 02        	beq	$4523 <optionstring+0x1e>
    4521: a9 20        	lda	#$20
    4523: 8d e2 8d     	sta	$8de2                   ; 0x8de2 <s+0x2>
    4526: 8c e3 8d     	sty	$8de3                   ; 0x8de3 <s+0x3>
    4529: a0 00        	ldy	#$0
    452b: 80 04        	bra	$4531 <optionstring+0x2c>
    452d: 99 e4 8d     	sta	$8de4,y                 ; 0x8de4 <s+0x4>
    4530: c8           	iny
    4531: b1 04        	lda	($4),y                  ; 0x2004 <__heap_default_limit+0x1004>
    4533: f0 04        	beq	$4539 <optionstring+0x34>
    4535: c0 28        	cpy	#$28
    4537: 90 f4        	bcc	$452d <optionstring+0x28>
    4539: 38           	sec
    453a: a9 10        	lda	#$10
    453c: 84 04        	sty	$4                      ; 0x2004 <__heap_default_limit+0x1004>
    453e: e5 04        	sbc	$4                      ; 0x2004 <__heap_default_limit+0x1004>
    4540: 90 04        	bcc	$4546 <optionstring+0x41>
    4542: 85 05        	sta	$5                      ; 0x2005 <__heap_default_limit+0x1005>
    4544: 80 02        	bra	$4548 <optionstring+0x43>
    4546: 64 05        	stz	$5                      ; 0x2005 <__heap_default_limit+0x1005>
    4548: 64 04        	stz	$4                      ; 0x2004 <__heap_default_limit+0x1004>
    454a: 80 13        	bra	$455f <optionstring+0x5a>
    454c: a9 e4        	lda	#$e4
    454e: 18           	clc
    454f: 65 04        	adc	$4                      ; 0x2004 <__heap_default_limit+0x1004>
    4551: 85 08        	sta	$8                      ; 0x2008 <__heap_default_limit+0x1008>
    4553: a9 8d        	lda	#$8d
    4555: 69 00        	adc	#$0
    4557: 85 09        	sta	$9                      ; 0x2009 <__heap_default_limit+0x1009>
    4559: a9 20        	lda	#$20
    455b: 91 08        	sta	($8),y                  ; 0x2008 <__heap_default_limit+0x1008>
    455d: e6 04        	inc	$4                      ; 0x2004 <__heap_default_limit+0x1004>
    455f: a5 05        	lda	$5                      ; 0x2005 <__heap_default_limit+0x1005>
    4561: c5 04        	cmp	$4                      ; 0x2004 <__heap_default_limit+0x1004>
    4563: d0 e7        	bne	$454c <optionstring+0x47>
    4565: c0 11        	cpy	#$11
    4567: b0 02        	bcs	$456b <optionstring+0x66>
    4569: a0 10        	ldy	#$10
    456b: 84 04        	sty	$4                      ; 0x2004 <__heap_default_limit+0x1004>
    456d: 98           	tya
    456e: 18           	clc
    456f: 69 04        	adc	#$4
    4571: a8           	tay
    4572: a9 20        	lda	#$20
    4574: 99 e0 8d     	sta	$8de0,y                 ; 0x8de0 <s>
    4577: 18           	clc
    4578: a5 04        	lda	$4                      ; 0x2004 <__heap_default_limit+0x1004>
    457a: 69 05        	adc	#$5
    457c: a8           	tay
    457d: a9 3c        	lda	#$3c
    457f: e4 07        	cpx	$7                      ; 0x2007 <__heap_default_limit+0x1007>
    4581: f0 02        	beq	$4585 <optionstring+0x80>
    4583: a9 20        	lda	#$20
    4585: 99 e0 8d     	sta	$8de0,y                 ; 0x8de0 <s>
    4588: 18           	clc
    4589: a5 04        	lda	$4                      ; 0x2004 <__heap_default_limit+0x1004>
    458b: 69 06        	adc	#$6
    458d: aa           	tax
    458e: 9e e0 8d     	stz	$8de0,x                 ; 0x8de0 <s>
    4591: a5 07        	lda	$7                      ; 0x2007 <__heap_default_limit+0x1007>
    4593: 18           	clc
    4594: 69 06        	adc	#$6
    4596: a2 e0        	ldx	#$e0
    4598: 86 04        	stx	$4                      ; 0x2004 <__heap_default_limit+0x1004>
    459a: a2 8d        	ldx	#$8d
    459c: 86 05        	stx	$5                      ; 0x2005 <__heap_default_limit+0x1005>
    459e: aa           	tax
    459f: a9 0c        	lda	#$c
    45a1: 4c 14 3b     	jmp	$3b14 <mcputsxy>

000045a4 <UpdateSectors>:
    45a4: 48           	pha
    45a5: 18           	clc
    45a6: a5 02        	lda	$2                      ; 0x2002 <__heap_default_limit+0x1002>
    45a8: 69 f2        	adc	#$f2
    45aa: 85 02        	sta	$2                      ; 0x2002 <__heap_default_limit+0x1002>
    45ac: a5 03        	lda	$3                      ; 0x2003 <__heap_default_limit+0x1003>
    45ae: 69 ff        	adc	#$ff
    45b0: 85 03        	sta	$3                      ; 0x2003 <__heap_default_limit+0x1003>
    45b2: 68           	pla
    45b3: a4 16        	ldy	$16                     ; 0x2016 <next_line+0x1>
    45b5: 5a           	phy
    45b6: a4 17        	ldy	$17                     ; 0x2017 <next_line+0x2>
    45b8: 5a           	phy
    45b9: a4 18        	ldy	$18                     ; 0x2018 <next_line+0x3>
    45bb: 5a           	phy
    45bc: a4 19        	ldy	$19                     ; 0x2019 <next_line+0x4>
    45be: 5a           	phy
    45bf: 48           	pha
    45c0: a5 1a        	lda	$1a                     ; 0x201a <next_line+0x5>
    45c2: a0 07        	ldy	#$7
    45c4: 91 02        	sta	($2),y                  ; 0x2002 <__heap_default_limit+0x1002>
    45c6: a5 1b        	lda	$1b                     ; 0x201b <next_line+0x6>
    45c8: 88           	dey
    45c9: 91 02        	sta	($2),y                  ; 0x2002 <__heap_default_limit+0x1002>
    45cb: a5 1c        	lda	$1c                     ; 0x201c <next_line+0x7>
    45cd: 88           	dey
    45ce: 91 02        	sta	($2),y                  ; 0x2002 <__heap_default_limit+0x1002>
    45d0: a5 1d        	lda	$1d                     ; 0x201d <next_line+0x8>
    45d2: 88           	dey
    45d3: 91 02        	sta	($2),y                  ; 0x2002 <__heap_default_limit+0x1002>
    45d5: a5 1e        	lda	$1e                     ; 0x201e <next_line+0x9>
    45d7: 88           	dey
    45d8: 91 02        	sta	($2),y                  ; 0x2002 <__heap_default_limit+0x1002>
    45da: a5 1f        	lda	$1f                     ; 0x201f <next_line+0xa>
    45dc: 88           	dey
    45dd: 91 02        	sta	($2),y                  ; 0x2002 <__heap_default_limit+0x1002>
    45df: a5 20        	lda	$20                     ; 0x2020 <next_line+0xb>
    45e1: 88           	dey
    45e2: 91 02        	sta	($2),y                  ; 0x2002 <__heap_default_limit+0x1002>
    45e4: a5 21        	lda	$21                     ; 0x2021 <_start>
    45e6: 88           	dey
    45e7: 91 02        	sta	($2),y                  ; 0x2002 <__heap_default_limit+0x1002>
    45e9: 68           	pla
    45ea: 85 16        	sta	$16                     ; 0x2016 <next_line+0x1>
    45ec: 86 1c        	stx	$1c                     ; 0x201c <next_line+0x7>
    45ee: 64 21        	stz	$21                     ; 0x2021 <_start>
    45f0: 86 17        	stx	$17                     ; 0x2017 <next_line+0x2>
    45f2: 06 17        	asl	$17                     ; 0x2017 <next_line+0x2>
    45f4: a9 01        	lda	#$1
    45f6: b0 02        	bcs	$45fa <UpdateSectors+0x56>
    45f8: a9 00        	lda	#$0
    45fa: a0 09        	ldy	#$9
    45fc: 91 02        	sta	($2),y                  ; 0x2002 <__heap_default_limit+0x1002>
    45fe: 26 21        	rol	$21                     ; 0x2021 <_start>
    4600: a9 27        	lda	#$27
    4602: 18           	clc
    4603: 65 17        	adc	$17                     ; 0x2017 <next_line+0x2>
    4605: a8           	tay
    4606: a9 00        	lda	#$0
    4608: 65 21        	adc	$21                     ; 0x2021 <_start>
    460a: a6 17        	ldx	$17                     ; 0x2017 <next_line+0x2>
    460c: 86 06        	stx	$6                      ; 0x2006 <__heap_default_limit+0x1006>
    460e: 06 06        	asl	$6                      ; 0x2006 <__heap_default_limit+0x1006>
    4610: 48           	pha
    4611: 5a           	phy
    4612: a9 01        	lda	#$1
    4614: b0 02        	bcs	$4618 <UpdateSectors+0x74>
    4616: a9 00        	lda	#$0
    4618: a0 08        	ldy	#$8
    461a: 91 02        	sta	($2),y                  ; 0x2002 <__heap_default_limit+0x1002>
    461c: 26 21        	rol	$21                     ; 0x2021 <_start>
    461e: 06 06        	asl	$6                      ; 0x2006 <__heap_default_limit+0x1006>
    4620: a9 01        	lda	#$1
    4622: b0 02        	bcs	$4626 <UpdateSectors+0x82>
    4624: a9 00        	lda	#$0
    4626: a0 0a        	ldy	#$a
    4628: 91 02        	sta	($2),y                  ; 0x2002 <__heap_default_limit+0x1002>
    462a: 26 21        	rol	$21                     ; 0x2021 <_start>
    462c: 06 06        	asl	$6                      ; 0x2006 <__heap_default_limit+0x1006>
    462e: a9 01        	lda	#$1
    4630: b0 02        	bcs	$4634 <UpdateSectors+0x90>
    4632: a9 00        	lda	#$0
    4634: a0 0b        	ldy	#$b
    4636: 91 02        	sta	($2),y                  ; 0x2002 <__heap_default_limit+0x1002>
    4638: 7a           	ply
    4639: 68           	pla
    463a: 26 21        	rol	$21                     ; 0x2021 <_start>
    463c: 84 04        	sty	$4                      ; 0x2004 <__heap_default_limit+0x1004>
    463e: 85 05        	sta	$5                      ; 0x2005 <__heap_default_limit+0x1005>
    4640: a0 01        	ldy	#$1
    4642: b1 04        	lda	($4),y                  ; 0x2004 <__heap_default_limit+0x1004>
    4644: a8           	tay
    4645: b2 04        	lda	($4),z                  ; 0x2004 <__heap_default_limit+0x1004>
    4647: 85 04        	sta	$4                      ; 0x2004 <__heap_default_limit+0x1004>
    4649: 85 1a        	sta	$1a                     ; 0x201a <next_line+0x5>
    464b: 84 1e        	sty	$1e                     ; 0x201e <next_line+0x9>
    464d: 84 1b        	sty	$1b                     ; 0x201b <next_line+0x6>
    464f: a0 46        	ldy	#$46
    4651: a9 01        	lda	#$1
    4653: 31 1a        	and	($1a),y                 ; 0x201a <next_line+0x5>
    4655: a6 06        	ldx	$6                      ; 0x2006 <__heap_default_limit+0x1006>
    4657: 86 1d        	stx	$1d                     ; 0x201d <next_line+0x8>
    4659: 85 20        	sta	$20                     ; 0x2020 <next_line+0xb>
    465b: a5 04        	lda	$4                      ; 0x2004 <__heap_default_limit+0x1004>
    465d: a6 20        	ldx	$20                     ; 0x2020 <next_line+0xb>
    465f: d0 03        	bne	$4664 <UpdateSectors+0xc0>
    4661: 4c 5c 47     	jmp	$475c <donegetproc1+0xd3>
    4664: 18           	clc
    4665: 85 1f        	sta	$1f                     ; 0x201f <next_line+0xa>
    4667: 69 03        	adc	#$3
    4669: 85 06        	sta	$6                      ; 0x2006 <__heap_default_limit+0x1006>
    466b: a5 1e        	lda	$1e                     ; 0x201e <next_line+0x9>
    466d: 69 00        	adc	#$0
    466f: 85 07        	sta	$7                      ; 0x2007 <__heap_default_limit+0x1007>
    4671: a0 1c        	ldy	#$1c
    4673: 8c bf 8d     	sty	$8dbf                   ; 0x8dbf <fnamehi.2>
    4676: a2 00        	ldx	#$0
    4678: a9 48        	lda	#$48
    467a: 8d 40 d6     	sta	$d640                   ; 0xd640 <__heap_start+0x46c4>
    467d: b8           	clv
    467e: 90 05        	bcc	$4685 <errgetproc1>
    4680: 85 04        	sta	$4                      ; 0x2004 <__heap_default_limit+0x1004>
    4682: 4c 89 46     	jmp	$4689 <donegetproc1>

00004685 <errgetproc1>:
    4685: a9 ff        	lda	#$ff
    4687: 85 04        	sta	$4                      ; 0x2004 <__heap_default_limit+0x1004>

00004689 <donegetproc1>:
    4689: ea           	nop
    468a: ad a1 d6     	lda	$d6a1                   ; 0xd6a1 <__heap_start+0x4725>
    468d: a6 16        	ldx	$16                     ; 0x2016 <next_line+0x1>
    468f: f0 11        	beq	$46a2 <donegetproc1+0x19>
    4691: 29 04        	and	#$4
    4693: d0 1e        	bne	$46b3 <donegetproc1+0x2a>
    4695: a2 35        	ldx	#$35
    4697: 86 04        	stx	$4                      ; 0x2004 <__heap_default_limit+0x1004>
    4699: a2 1c        	ldx	#$1c
    469b: 86 05        	stx	$5                      ; 0x2005 <__heap_default_limit+0x1005>
    469d: ad 14 1c     	lda	$1c14                   ; 0x1c14 <__heap_default_limit+0xc14>
    46a0: 80 1b        	bra	$46bd <donegetproc1+0x34>
    46a2: 29 01        	and	#$1
    46a4: d0 0d        	bne	$46b3 <donegetproc1+0x2a>
    46a6: a2 15        	ldx	#$15
    46a8: 86 04        	stx	$4                      ; 0x2004 <__heap_default_limit+0x1004>
    46aa: a2 1c        	ldx	#$1c
    46ac: 86 05        	stx	$5                      ; 0x2005 <__heap_default_limit+0x1005>
    46ae: ad 13 1c     	lda	$1c13                   ; 0x1c13 <__heap_default_limit+0xc13>
    46b1: 80 0a        	bra	$46bd <donegetproc1+0x34>
    46b3: a2 37        	ldx	#$37
    46b5: 86 04        	stx	$4                      ; 0x2004 <__heap_default_limit+0x1004>
    46b7: a2 86        	ldx	#$86
    46b9: 86 05        	stx	$5                      ; 0x2005 <__heap_default_limit+0x1005>
    46bb: a9 10        	lda	#$10
    46bd: 20 1f 39     	jsr	$391f <strcopy>
    46c0: 18           	clc
    46c1: a5 1d        	lda	$1d                     ; 0x201d <next_line+0x8>
    46c3: 65 1c        	adc	$1c                     ; 0x201c <next_line+0x7>
    46c5: 85 04        	sta	$4                      ; 0x2004 <__heap_default_limit+0x1004>
    46c7: a5 21        	lda	$21                     ; 0x2021 <_start>
    46c9: 69 00        	adc	#$0
    46cb: 85 05        	sta	$5                      ; 0x2005 <__heap_default_limit+0x1005>
    46cd: a9 10        	lda	#$10
    46cf: 18           	clc
    46d0: 65 04        	adc	$4                      ; 0x2004 <__heap_default_limit+0x1004>
    46d2: 85 18        	sta	$18                     ; 0x2018 <next_line+0x3>
    46d4: a9 8f        	lda	#$8f
    46d6: 65 05        	adc	$5                      ; 0x2005 <__heap_default_limit+0x1005>
    46d8: 85 19        	sta	$19                     ; 0x2019 <next_line+0x4>
    46da: a0 47        	ldy	#$47
    46dc: b1 1a        	lda	($1a),y                 ; 0x201a <next_line+0x5>
    46de: 64 06        	stz	$6                      ; 0x2006 <__heap_default_limit+0x1006>
    46e0: a2 00        	ldx	#$0
    46e2: 86 04        	stx	$4                      ; 0x2004 <__heap_default_limit+0x1004>
    46e4: a2 17        	ldx	#$17
    46e6: 86 05        	stx	$5                      ; 0x2005 <__heap_default_limit+0x1005>
    46e8: aa           	tax
    46e9: a5 16        	lda	$16                     ; 0x2016 <next_line+0x1>
    46eb: 20 0a 25     	jsr	$250a <GetOneSector>
    46ee: c9 02        	cmp	#$2
    46f0: b0 18        	bcs	$470a <donegetproc1+0x81>
    46f2: a0 00        	ldy	#$0
    46f4: 80 03        	bra	$46f9 <donegetproc1+0x70>
    46f6: 91 18        	sta	($18),y                 ; 0x2018 <next_line+0x3>
    46f8: c8           	iny
    46f9: b9 04 17     	lda	$1704,y                 ; 0x1704 <__heap_default_limit+0x704>
    46fc: c9 a0        	cmp	#$a0
    46fe: f0 04        	beq	$4704 <donegetproc1+0x7b>
    4700: c0 10        	cpy	#$10
    4702: 90 f2        	bcc	$46f6 <donegetproc1+0x6d>
    4704: a9 00        	lda	#$0
    4706: 91 18        	sta	($18),y                 ; 0x2018 <next_line+0x3>
    4708: 80 15        	bra	$471f <donegetproc1+0x96>
    470a: a2 9b        	ldx	#$9b
    470c: 86 04        	stx	$4                      ; 0x2004 <__heap_default_limit+0x1004>
    470e: a2 83        	ldx	#$83
    4710: 86 05        	stx	$5                      ; 0x2005 <__heap_default_limit+0x1005>
    4712: a6 18        	ldx	$18                     ; 0x2018 <next_line+0x3>
    4714: 86 06        	stx	$6                      ; 0x2006 <__heap_default_limit+0x1006>
    4716: a6 19        	ldx	$19                     ; 0x2019 <next_line+0x4>
    4718: 86 07        	stx	$7                      ; 0x2007 <__heap_default_limit+0x1007>
    471a: a9 10        	lda	#$10
    471c: 20 1f 39     	jsr	$391f <strcopy>
    471f: a0 47        	ldy	#$47
    4721: b1 1a        	lda	($1a),y                 ; 0x201a <next_line+0x5>
    4723: 85 09        	sta	$9                      ; 0x2009 <__heap_default_limit+0x1009>
    4725: a5 1c        	lda	$1c                     ; 0x201c <next_line+0x7>
    4727: f0 04        	beq	$472d <donegetproc1+0xa4>
    4729: a2 3a        	ldx	#$3a
    472b: 80 02        	bra	$472f <donegetproc1+0xa6>
    472d: a2 38        	ldx	#$38
    472f: 64 07        	stz	$7                      ; 0x2007 <__heap_default_limit+0x1007>
    4731: a9 01        	lda	#$1
    4733: 64 04        	stz	$4                      ; 0x2004 <__heap_default_limit+0x1004>
    4735: a0 08        	ldy	#$8
    4737: 84 05        	sty	$5                      ; 0x2005 <__heap_default_limit+0x1005>
    4739: a0 02        	ldy	#$2
    473b: 84 06        	sty	$6                      ; 0x2006 <__heap_default_limit+0x1006>
    473d: a4 16        	ldy	$16                     ; 0x2016 <next_line+0x1>
    473f: 84 08        	sty	$8                      ; 0x2008 <__heap_default_limit+0x1008>
    4741: 85 0a        	sta	$a                      ; 0x200a <__heap_default_limit+0x100a>
    4743: 3a           	dec
    4744: 20 bb 26     	jsr	$26bb <readblockchain>
    4747: c9 02        	cmp	#$2
    4749: b0 03        	bcs	$474e <donegetproc1+0xc5>
    474b: 4c 03 4a     	jmp	$4a03 <donehypreaddir4+0x167>
    474e: a0 46        	ldy	#$46
    4750: a9 fe        	lda	#$fe
    4752: 31 1a        	and	($1a),y                 ; 0x201a <next_line+0x5>
    4754: 91 1a        	sta	($1a),y                 ; 0x201a <next_line+0x5>
    4756: a6 1d        	ldx	$1d                     ; 0x201d <next_line+0x8>
    4758: 86 06        	stx	$6                      ; 0x2006 <__heap_default_limit+0x1006>
    475a: a5 1f        	lda	$1f                     ; 0x201f <next_line+0xa>
    475c: 85 16        	sta	$16                     ; 0x2016 <next_line+0x1>
    475e: a5 06        	lda	$6                      ; 0x2006 <__heap_default_limit+0x1006>
    4760: 18           	clc
    4761: 65 1c        	adc	$1c                     ; 0x201c <next_line+0x7>
    4763: 85 04        	sta	$4                      ; 0x2004 <__heap_default_limit+0x1004>
    4765: a5 21        	lda	$21                     ; 0x2021 <_start>
    4767: 69 00        	adc	#$0
    4769: 85 05        	sta	$5                      ; 0x2005 <__heap_default_limit+0x1005>
    476b: a9 10        	lda	#$10
    476d: 18           	clc
    476e: 65 04        	adc	$4                      ; 0x2004 <__heap_default_limit+0x1004>
    4770: 85 06        	sta	$6                      ; 0x2006 <__heap_default_limit+0x1006>
    4772: a9 8f        	lda	#$8f
    4774: 65 05        	adc	$5                      ; 0x2005 <__heap_default_limit+0x1005>
    4776: 85 07        	sta	$7                      ; 0x2007 <__heap_default_limit+0x1007>
    4778: a2 ff        	ldx	#$ff
    477a: 8a           	txa
    477b: a0 0d        	ldy	#$d
    477d: 91 02        	sta	($2),y                  ; 0x2002 <__heap_default_limit+0x1002>
    477f: a2 21        	ldx	#$21
    4781: 86 04        	stx	$4                      ; 0x2004 <__heap_default_limit+0x1004>
    4783: a2 84        	ldx	#$84
    4785: 86 05        	stx	$5                      ; 0x2005 <__heap_default_limit+0x1005>
    4787: a9 10        	lda	#$10
    4789: 20 1f 39     	jsr	$391f <strcopy>
    478c: a5 16        	lda	$16                     ; 0x2016 <next_line+0x1>
    478e: a0 0c        	ldy	#$c
    4790: 91 02        	sta	($2),y                  ; 0x2002 <__heap_default_limit+0x1002>
    4792: 18           	clc
    4793: 69 03        	adc	#$3
    4795: 85 06        	sta	$6                      ; 0x2006 <__heap_default_limit+0x1006>
    4797: a5 1e        	lda	$1e                     ; 0x201e <next_line+0x9>
    4799: 69 00        	adc	#$0
    479b: 85 07        	sta	$7                      ; 0x2007 <__heap_default_limit+0x1007>
    479d: a2 21        	ldx	#$21
    479f: 86 04        	stx	$4                      ; 0x2004 <__heap_default_limit+0x1004>
    47a1: a2 84        	ldx	#$84
    47a3: 86 05        	stx	$5                      ; 0x2005 <__heap_default_limit+0x1005>
    47a5: a9 10        	lda	#$10
    47a7: 20 1f 39     	jsr	$391f <strcopy>
    47aa: a2 00        	ldx	#$0
    47ac: a9 04        	lda	#$4
    47ae: 8d 40 d6     	sta	$d640                   ; 0xd640 <__heap_start+0x46c4>
    47b1: b8           	clv
    47b2: 90 05        	bcc	$47b9 <errgetcurdrv2>
    47b4: 85 04        	sta	$4                      ; 0x2004 <__heap_default_limit+0x1004>
    47b6: 4c bd 47     	jmp	$47bd <donegetcurdrv2>

000047b9 <errgetcurdrv2>:
    47b9: a9 ff        	lda	#$ff
    47bb: 85 04        	sta	$4                      ; 0x2004 <__heap_default_limit+0x1004>

000047bd <donegetcurdrv2>:
    47bd: ea           	nop
    47be: a6 04        	ldx	$4                      ; 0x2004 <__heap_default_limit+0x1004>
    47c0: e0 ff        	cpx	#$ff
    47c2: d0 03        	bne	$47c7 <donegetcurdrv2+0xa>
    47c4: 4c 1b 4b     	jmp	$4b1b <donehypclosedir5+0x1>
    47c7: a2 00        	ldx	#$0
    47c9: a9 12        	lda	#$12
    47cb: 8d 40 d6     	sta	$d640                   ; 0xd640 <__heap_start+0x46c4>
    47ce: b8           	clv
    47cf: 90 05        	bcc	$47d6 <errhypopendir3>
    47d1: 85 04        	sta	$4                      ; 0x2004 <__heap_default_limit+0x1004>
    47d3: 4c da 47     	jmp	$47da <donehypopendir3>

000047d6 <errhypopendir3>:
    47d6: a9 ff        	lda	#$ff
    47d8: 85 04        	sta	$4                      ; 0x2004 <__heap_default_limit+0x1004>

000047da <donehypopendir3>:
    47da: ea           	nop
    47db: a6 04        	ldx	$4                      ; 0x2004 <__heap_default_limit+0x1004>
    47dd: e0 84        	cpx	#$84
    47df: d0 03        	bne	$47e4 <donehypopendir3+0xa>
    47e1: 4c 1b 4b     	jmp	$4b1b <donehypclosedir5+0x1>
    47e4: a4 1e        	ldy	$1e                     ; 0x201e <next_line+0x9>
    47e6: e0 87        	cpx	#$87
    47e8: d0 03        	bne	$47ed <donehypopendir3+0x13>
    47ea: 4c fe 4a     	jmp	$4afe <donehypreaddir4+0x262>
    47ed: 98           	tya
    47ee: e0 ff        	cpx	#$ff
    47f0: d0 03        	bne	$47f5 <donehypopendir3+0x1b>
    47f2: 4c 1d 4b     	jmp	$4b1d <donehypclosedir5+0x3>
    47f5: 86 18        	stx	$18                     ; 0x2018 <next_line+0x3>
    47f7: a9 00        	lda	#$0
    47f9: 48           	pha
    47fa: a0 09        	ldy	#$9
    47fc: b1 02        	lda	($2),y                  ; 0x2002 <__heap_default_limit+0x1002>
    47fe: c9 01        	cmp	#$1
    4800: 68           	pla
    4801: 2a           	rol
    4802: 85 04        	sta	$4                      ; 0x2004 <__heap_default_limit+0x1004>
    4804: a9 00        	lda	#$0
    4806: 2a           	rol
    4807: 85 05        	sta	$5                      ; 0x2005 <__heap_default_limit+0x1005>
    4809: a6 04        	ldx	$4                      ; 0x2004 <__heap_default_limit+0x1004>
    480b: 86 09        	stx	$9                      ; 0x2009 <__heap_default_limit+0x1009>
    480d: 48           	pha
    480e: 88           	dey
    480f: b1 02        	lda	($2),y                  ; 0x2002 <__heap_default_limit+0x1002>
    4811: c9 01        	cmp	#$1
    4813: 68           	pla
    4814: 26 09        	rol	$9                      ; 0x2009 <__heap_default_limit+0x1009>
    4816: 85 08        	sta	$8                      ; 0x2008 <__heap_default_limit+0x1008>
    4818: 26 08        	rol	$8                      ; 0x2008 <__heap_default_limit+0x1008>
    481a: a0 0a        	ldy	#$a
    481c: b1 02        	lda	($2),y                  ; 0x2002 <__heap_default_limit+0x1002>
    481e: c9 01        	cmp	#$1
    4820: 26 09        	rol	$9                      ; 0x2009 <__heap_default_limit+0x1009>
    4822: 26 08        	rol	$8                      ; 0x2008 <__heap_default_limit+0x1008>
    4824: c8           	iny
    4825: b1 02        	lda	($2),y                  ; 0x2002 <__heap_default_limit+0x1002>
    4827: c9 01        	cmp	#$1
    4829: 26 09        	rol	$9                      ; 0x2009 <__heap_default_limit+0x1009>
    482b: 26 08        	rol	$8                      ; 0x2008 <__heap_default_limit+0x1008>
    482d: 38           	sec
    482e: a5 1d        	lda	$1d                     ; 0x201d <next_line+0x8>
    4830: e5 17        	sbc	$17                     ; 0x2017 <next_line+0x2>
    4832: a0 0d        	ldy	#$d
    4834: 91 02        	sta	($2),y                  ; 0x2002 <__heap_default_limit+0x1002>
    4836: a5 09        	lda	$9                      ; 0x2009 <__heap_default_limit+0x1009>
    4838: e5 04        	sbc	$4                      ; 0x2004 <__heap_default_limit+0x1004>
    483a: a0 0b        	ldy	#$b
    483c: 91 02        	sta	($2),y                  ; 0x2002 <__heap_default_limit+0x1002>
    483e: a5 08        	lda	$8                      ; 0x2008 <__heap_default_limit+0x1008>
    4840: e5 05        	sbc	$5                      ; 0x2005 <__heap_default_limit+0x1005>
    4842: 88           	dey
    4843: 91 02        	sta	($2),y                  ; 0x2002 <__heap_default_limit+0x1002>
    4845: 09 08        	ora	#$8
    4847: 88           	dey
    4848: 91 02        	sta	($2),y                  ; 0x2002 <__heap_default_limit+0x1002>
    484a: a2 ff        	ldx	#$ff
    484c: a0 00        	ldy	#$0
    484e: 64 16        	stz	$16                     ; 0x2016 <next_line+0x1>
    4850: 84 04        	sty	$4                      ; 0x2004 <__heap_default_limit+0x1004>
    4852: a9 01        	lda	#$1
    4854: 86 1c        	stx	$1c                     ; 0x201c <next_line+0x7>
    4856: e0 00        	cpx	#$0
    4858: f0 02        	beq	$485c <donehypopendir3+0x82>
    485a: a9 00        	lda	#$0
    485c: a6 16        	ldx	$16                     ; 0x2016 <next_line+0x1>
    485e: e0 70        	cpx	#$70
    4860: a2 01        	ldx	#$1
    4862: a0 01        	ldy	#$1
    4864: b0 01        	bcs	$4867 <donehypopendir3+0x8d>
    4866: a8           	tay
    4867: a5 04        	lda	$4                      ; 0x2004 <__heap_default_limit+0x1004>
    4869: c9 85        	cmp	#$85
    486b: f0 02        	beq	$486f <donehypopendir3+0x95>
    486d: a2 00        	ldx	#$0
    486f: a9 01        	lda	#$1
    4871: c0 00        	cpy	#$0
    4873: d0 01        	bne	$4876 <donehypopendir3+0x9c>
    4875: 8a           	txa
    4876: aa           	tax
    4877: f0 03        	beq	$487c <donehypopendir3+0xa2>
    4879: 4c 01 4b     	jmp	$4b01 <donehypreaddir4+0x265>
    487c: a4 18        	ldy	$18                     ; 0x2018 <next_line+0x3>
    487e: da           	phx
    487f: a2 00        	ldx	#$0
    4881: 8a           	txa

00004882 <hypreaddirloop4>:
    4882: 9d 00 1b     	sta	$1b00,x                 ; 0x1b00 <__heap_default_limit+0xb00>
    4885: ca           	dex
    4886: d0 fa        	bne	$4882 <hypreaddirloop4>
    4888: fa           	plx
    4889: 98           	tya
    488a: aa           	tax
    488b: a0 1b        	ldy	#$1b
    488d: a9 14        	lda	#$14
    488f: 8d 40 d6     	sta	$d640                   ; 0xd640 <__heap_start+0x46c4>
    4892: b8           	clv
    4893: 90 05        	bcc	$489a <errhypreaddir4>
    4895: 86 04        	stx	$4                      ; 0x2004 <__heap_default_limit+0x1004>
    4897: 4c 9c 48     	jmp	$489c <donehypreaddir4>

0000489a <errhypreaddir4>:
    489a: 85 04        	sta	$4                      ; 0x2004 <__heap_default_limit+0x1004>

0000489c <donehypreaddir4>:
    489c: ea           	nop
    489d: ae 40 1b     	ldx	$1b40                   ; 0x1b40 <__heap_default_limit+0xb40>
    48a0: e0 40        	cpx	#$40
    48a2: a0 3f        	ldy	#$3f
    48a4: 84 06        	sty	$6                      ; 0x2006 <__heap_default_limit+0x1006>
    48a6: a0 1b        	ldy	#$1b
    48a8: 84 07        	sty	$7                      ; 0x2007 <__heap_default_limit+0x1007>
    48aa: b0 0f        	bcs	$48bb <donehypreaddir4+0x1f>
    48ac: 86 05        	stx	$5                      ; 0x2005 <__heap_default_limit+0x1005>
    48ae: a9 00        	lda	#$0
    48b0: 18           	clc
    48b1: 65 05        	adc	$5                      ; 0x2005 <__heap_default_limit+0x1005>
    48b3: 85 06        	sta	$6                      ; 0x2006 <__heap_default_limit+0x1006>
    48b5: a9 1b        	lda	#$1b
    48b7: 69 00        	adc	#$0
    48b9: 85 07        	sta	$7                      ; 0x2007 <__heap_default_limit+0x1007>
    48bb: a4 04        	ldy	$4                      ; 0x2004 <__heap_default_limit+0x1004>
    48bd: a9 00        	lda	#$0
    48bf: 92 06        	sta	($6),z                  ; 0x2006 <__heap_default_limit+0x1006>
    48c1: c0 85        	cpy	#$85
    48c3: f0 04        	beq	$48c9 <donehypreaddir4+0x2d>
    48c5: c0 ff        	cpy	#$ff
    48c7: d0 0e        	bne	$48d7 <donehypreaddir4+0x3b>
    48c9: a2 20        	ldx	#$20
    48cb: 8e c5 8d     	stx	$8dc5                   ; 0x8dc5 <direntryblock2+0x5>
    48ce: 9c c6 8d     	stz	$8dc6                   ; 0x8dc6 <direntryblock2+0x6>
    48d1: a6 1c        	ldx	$1c                     ; 0x201c <next_line+0x7>
    48d3: ca           	dex
    48d4: 4c 50 48     	jmp	$4850 <donehypopendir3+0x76>
    48d7: a9 10        	lda	#$10
    48d9: 2d 56 1b     	and	$1b56                   ; 0x1b56 <__heap_default_limit+0xb56>
    48dc: d0 1b        	bne	$48f9 <donehypreaddir4+0x5d>
    48de: ae 49 1b     	ldx	$1b49                   ; 0x1b49 <__heap_default_limit+0xb49>
    48e1: e0 64        	cpx	#$64
    48e3: f0 04        	beq	$48e9 <donehypreaddir4+0x4d>
    48e5: e0 44        	cpx	#$44
    48e7: d0 e0        	bne	$48c9 <donehypreaddir4+0x2d>
    48e9: ae 4a 1b     	ldx	$1b4a                   ; 0x1b4a <__heap_default_limit+0xb4a>
    48ec: e0 38        	cpx	#$38
    48ee: d0 d9        	bne	$48c9 <donehypreaddir4+0x2d>
    48f0: ae 4b 1b     	ldx	$1b4b                   ; 0x1b4b <__heap_default_limit+0xb4b>
    48f3: e0 31        	cpx	#$31
    48f5: d0 d2        	bne	$48c9 <donehypreaddir4+0x2d>
    48f7: 80 0e        	bra	$4907 <donehypreaddir4+0x6b>
    48f9: ae 41 1b     	ldx	$1b41                   ; 0x1b41 <__heap_default_limit+0xb41>
    48fc: e0 2e        	cpx	#$2e
    48fe: d0 07        	bne	$4907 <donehypreaddir4+0x6b>
    4900: ae 42 1b     	ldx	$1b42                   ; 0x1b42 <__heap_default_limit+0xb42>
    4903: e0 20        	cpx	#$20
    4905: f0 d7        	beq	$48de <donehypreaddir4+0x42>
    4907: 84 1f        	sty	$1f                     ; 0x201f <next_line+0xa>
    4909: 20 d0 21     	jsr	$21d0 <getsfn>
    490c: 20 d0 21     	jsr	$21d0 <getsfn>
    490f: a2 c5        	ldx	#$c5
    4911: 86 04        	stx	$4                      ; 0x2004 <__heap_default_limit+0x1004>
    4913: a2 8d        	ldx	#$8d
    4915: 86 05        	stx	$5                      ; 0x2005 <__heap_default_limit+0x1005>
    4917: a2 41        	ldx	#$41
    4919: 86 06        	stx	$6                      ; 0x2006 <__heap_default_limit+0x1006>
    491b: a2 1c        	ldx	#$1c
    491d: 86 07        	stx	$7                      ; 0x2007 <__heap_default_limit+0x1007>
    491f: 20 b8 7d     	jsr	$7db8 <strcpy>
    4922: ae 4e 1b     	ldx	$1b4e                   ; 0x1b4e <__heap_default_limit+0xb4e>
    4925: ac 50 1b     	ldy	$1b50                   ; 0x1b50 <__heap_default_limit+0xb50>
    4928: a9 80        	lda	#$80
    492a: 0d 51 1b     	ora	$1b51                   ; 0x1b51 <__heap_default_limit+0xb51>
    492d: 8d c0 8d     	sta	$8dc0                   ; 0x8dc0 <direntryblock2>
    4930: 8c c1 8d     	sty	$8dc1                   ; 0x8dc1 <direntryblock2+0x1>
    4933: a9 80        	lda	#$80
    4935: 0d 4f 1b     	ora	$1b4f                   ; 0x1b4f <__heap_default_limit+0xb4f>
    4938: 8d c3 8d     	sta	$8dc3                   ; 0x8dc3 <direntryblock2+0x3>
    493b: 8e c4 8d     	stx	$8dc4                   ; 0x8dc4 <direntryblock2+0x4>
    493e: a9 40        	lda	#$40
    4940: 0d 56 1b     	ora	$1b56                   ; 0x1b56 <__heap_default_limit+0xb56>
    4943: 8d c2 8d     	sta	$8dc2                   ; 0x8dc2 <direntryblock2+0x2>
    4946: ae 53 1b     	ldx	$1b53                   ; 0x1b53 <__heap_default_limit+0xb53>
    4949: 86 04        	stx	$4                      ; 0x2004 <__heap_default_limit+0x1004>
    494b: ae 54 1b     	ldx	$1b54                   ; 0x1b54 <__heap_default_limit+0xb54>
    494e: 86 05        	stx	$5                      ; 0x2005 <__heap_default_limit+0x1005>
    4950: ad 55 1b     	lda	$1b55                   ; 0x1b55 <__heap_default_limit+0xb55>
    4953: 4a           	lsr
    4954: 66 05        	ror	$5                      ; 0x2005 <__heap_default_limit+0x1005>
    4956: 66 04        	ror	$4                      ; 0x2004 <__heap_default_limit+0x1004>
    4958: 4a           	lsr
    4959: a5 05        	lda	$5                      ; 0x2005 <__heap_default_limit+0x1005>
    495b: 6a           	ror
    495c: 66 04        	ror	$4                      ; 0x2004 <__heap_default_limit+0x1004>
    495e: a6 04        	ldx	$4                      ; 0x2004 <__heap_default_limit+0x1004>
    4960: 8e de 8d     	stx	$8dde                   ; 0x8dde <direntryblock2+0x1e>
    4963: 8d df 8d     	sta	$8ddf                   ; 0x8ddf <direntryblock2+0x1f>
    4966: a6 16        	ldx	$16                     ; 0x2016 <next_line+0x1>
    4968: 86 19        	stx	$19                     ; 0x2019 <next_line+0x4>
    496a: a5 16        	lda	$16                     ; 0x2016 <next_line+0x1>
    496c: 4a           	lsr
    496d: 64 04        	stz	$4                      ; 0x2004 <__heap_default_limit+0x1004>
    496f: 66 04        	ror	$4                      ; 0x2004 <__heap_default_limit+0x1004>
    4971: 4a           	lsr
    4972: 66 04        	ror	$4                      ; 0x2004 <__heap_default_limit+0x1004>
    4974: 4a           	lsr
    4975: 85 16        	sta	$16                     ; 0x2016 <next_line+0x1>
    4977: 66 04        	ror	$4                      ; 0x2004 <__heap_default_limit+0x1004>
    4979: a6 04        	ldx	$4                      ; 0x2004 <__heap_default_limit+0x1004>
    497b: 86 17        	stx	$17                     ; 0x2017 <next_line+0x2>
    497d: a9 00        	lda	#$0
    497f: 18           	clc
    4980: 65 04        	adc	$4                      ; 0x2004 <__heap_default_limit+0x1004>
    4982: 85 06        	sta	$6                      ; 0x2006 <__heap_default_limit+0x1006>
    4984: a0 0d        	ldy	#$d
    4986: b1 02        	lda	($2),y                  ; 0x2002 <__heap_default_limit+0x1002>
    4988: 85 1d        	sta	$1d                     ; 0x201d <next_line+0x8>
    498a: 65 16        	adc	$16                     ; 0x2016 <next_line+0x1>
    498c: 85 07        	sta	$7                      ; 0x2007 <__heap_default_limit+0x1007>
    498e: a0 0b        	ldy	#$b
    4990: b1 02        	lda	($2),y                  ; 0x2002 <__heap_default_limit+0x1002>
    4992: 85 21        	sta	$21                     ; 0x2021 <_start>
    4994: 69 00        	adc	#$0
    4996: 85 08        	sta	$8                      ; 0x2008 <__heap_default_limit+0x1008>
    4998: a0 09        	ldy	#$9
    499a: b1 02        	lda	($2),y                  ; 0x2002 <__heap_default_limit+0x1002>
    499c: 69 00        	adc	#$0
    499e: 64 04        	stz	$4                      ; 0x2004 <__heap_default_limit+0x1004>
    49a0: 64 05        	stz	$5                      ; 0x2005 <__heap_default_limit+0x1005>
    49a2: 85 09        	sta	$9                      ; 0x2009 <__heap_default_limit+0x1009>
    49a4: a2 20        	ldx	#$20
    49a6: 86 0a        	stx	$a                      ; 0x200a <__heap_default_limit+0x100a>
    49a8: 64 0b        	stz	$b                      ; 0x200b <__heap_default_limit+0x100b>
    49aa: a2 8d        	ldx	#$8d
    49ac: a9 c0        	lda	#$c0
    49ae: 20 c7 7b     	jsr	$7bc7 <lcopy>
    49b1: 06 17        	asl	$17                     ; 0x2017 <next_line+0x2>
    49b3: 26 16        	rol	$16                     ; 0x2016 <next_line+0x1>
    49b5: a9 00        	lda	#$0
    49b7: 18           	clc
    49b8: 65 17        	adc	$17                     ; 0x2017 <next_line+0x2>
    49ba: aa           	tax
    49bb: a5 1d        	lda	$1d                     ; 0x201d <next_line+0x8>
    49bd: 65 16        	adc	$16                     ; 0x2016 <next_line+0x1>
    49bf: 85 07        	sta	$7                      ; 0x2007 <__heap_default_limit+0x1007>
    49c1: a5 21        	lda	$21                     ; 0x2021 <_start>
    49c3: 69 00        	adc	#$0
    49c5: a8           	tay
    49c6: 5a           	phy
    49c7: a0 0a        	ldy	#$a
    49c9: b1 02        	lda	($2),y                  ; 0x2002 <__heap_default_limit+0x1002>
    49cb: 7a           	ply
    49cc: 69 00        	adc	#$0
    49ce: 85 04        	sta	$4                      ; 0x2004 <__heap_default_limit+0x1004>
    49d0: 18           	clc
    49d1: 8a           	txa
    49d2: 69 00        	adc	#$0
    49d4: 85 06        	sta	$6                      ; 0x2006 <__heap_default_limit+0x1006>
    49d6: a5 07        	lda	$7                      ; 0x2007 <__heap_default_limit+0x1007>
    49d8: 69 1c        	adc	#$1c
    49da: 85 07        	sta	$7                      ; 0x2007 <__heap_default_limit+0x1007>
    49dc: 98           	tya
    49dd: 69 00        	adc	#$0
    49df: 85 08        	sta	$8                      ; 0x2008 <__heap_default_limit+0x1008>
    49e1: a5 04        	lda	$4                      ; 0x2004 <__heap_default_limit+0x1004>
    49e3: 69 08        	adc	#$8
    49e5: 64 04        	stz	$4                      ; 0x2004 <__heap_default_limit+0x1004>
    49e7: 64 05        	stz	$5                      ; 0x2005 <__heap_default_limit+0x1005>
    49e9: 85 09        	sta	$9                      ; 0x2009 <__heap_default_limit+0x1009>
    49eb: a2 40        	ldx	#$40
    49ed: 86 0a        	stx	$a                      ; 0x200a <__heap_default_limit+0x100a>
    49ef: 64 0b        	stz	$b                      ; 0x200b <__heap_default_limit+0x100b>
    49f1: a2 1b        	ldx	#$1b
    49f3: a9 00        	lda	#$0
    49f5: 20 c7 7b     	jsr	$7bc7 <lcopy>
    49f8: a4 1f        	ldy	$1f                     ; 0x201f <next_line+0xa>
    49fa: e6 19        	inc	$19                     ; 0x2019 <next_line+0x4>
    49fc: a6 19        	ldx	$19                     ; 0x2019 <next_line+0x4>
    49fe: 86 16        	stx	$16                     ; 0x2016 <next_line+0x1>
    4a00: 4c d1 48     	jmp	$48d1 <donehypreaddir4+0x35>
    4a03: a0 47        	ldy	#$47
    4a05: b1 1a        	lda	($1a),y                 ; 0x201a <next_line+0x5>
    4a07: 85 18        	sta	$18                     ; 0x2018 <next_line+0x3>
    4a09: c8           	iny
    4a0a: b1 1a        	lda	($1a),y                 ; 0x201a <next_line+0x5>
    4a0c: 85 19        	sta	$19                     ; 0x2019 <next_line+0x4>
    4a0e: c8           	iny
    4a0f: b1 1a        	lda	($1a),y                 ; 0x201a <next_line+0x5>
    4a11: 85 20        	sta	$20                     ; 0x2020 <next_line+0xb>
    4a13: a5 1c        	lda	$1c                     ; 0x201c <next_line+0x7>
    4a15: 20 22 26     	jsr	$2622 <GetBAM>
    4a18: a2 00        	ldx	#$0
    4a1a: 86 04        	stx	$4                      ; 0x2004 <__heap_default_limit+0x1004>
    4a1c: a2 17        	ldx	#$17
    4a1e: 86 05        	stx	$5                      ; 0x2005 <__heap_default_limit+0x1005>
    4a20: a2 00        	ldx	#$0
    4a22: 86 06        	stx	$6                      ; 0x2006 <__heap_default_limit+0x1006>
    4a24: a2 18        	ldx	#$18
    4a26: 86 07        	stx	$7                      ; 0x2007 <__heap_default_limit+0x1007>
    4a28: a6 20        	ldx	$20                     ; 0x2020 <next_line+0xb>
    4a2a: 86 08        	stx	$8                      ; 0x2008 <__heap_default_limit+0x1008>
    4a2c: a6 19        	ldx	$19                     ; 0x2019 <next_line+0x4>
    4a2e: a5 18        	lda	$18                     ; 0x2018 <next_line+0x3>
    4a30: 20 57 2a     	jsr	$2a57 <BAMSectorsFreeBlocks>
    4a33: 85 04        	sta	$4                      ; 0x2004 <__heap_default_limit+0x1004>
    4a35: 18           	clc
    4a36: a5 1f        	lda	$1f                     ; 0x201f <next_line+0xa>
    4a38: 69 44        	adc	#$44
    4a3a: 85 08        	sta	$8                      ; 0x2008 <__heap_default_limit+0x1008>
    4a3c: a5 1e        	lda	$1e                     ; 0x201e <next_line+0x9>
    4a3e: 69 00        	adc	#$0
    4a40: 85 09        	sta	$9                      ; 0x2009 <__heap_default_limit+0x1009>
    4a42: a0 44        	ldy	#$44
    4a44: a5 04        	lda	$4                      ; 0x2004 <__heap_default_limit+0x1004>
    4a46: 91 1a        	sta	($1a),y                 ; 0x201a <next_line+0x5>
    4a48: a9 00        	lda	#$0
    4a4a: 48           	pha
    4a4b: a0 09        	ldy	#$9
    4a4d: b1 02        	lda	($2),y                  ; 0x2002 <__heap_default_limit+0x1002>
    4a4f: c9 01        	cmp	#$1
    4a51: 68           	pla
    4a52: 2a           	rol
    4a53: 64 04        	stz	$4                      ; 0x2004 <__heap_default_limit+0x1004>
    4a55: 26 04        	rol	$4                      ; 0x2004 <__heap_default_limit+0x1004>
    4a57: 85 05        	sta	$5                      ; 0x2005 <__heap_default_limit+0x1005>
    4a59: a4 04        	ldy	$4                      ; 0x2004 <__heap_default_limit+0x1004>
    4a5b: 84 0b        	sty	$b                      ; 0x200b <__heap_default_limit+0x100b>
    4a5d: 48           	pha
    4a5e: a0 08        	ldy	#$8
    4a60: b1 02        	lda	($2),y                  ; 0x2002 <__heap_default_limit+0x1002>
    4a62: c9 01        	cmp	#$1
    4a64: 68           	pla
    4a65: 2a           	rol
    4a66: a4 04        	ldy	$4                      ; 0x2004 <__heap_default_limit+0x1004>
    4a68: 84 0a        	sty	$a                      ; 0x200a <__heap_default_limit+0x100a>
    4a6a: 26 0a        	rol	$a                      ; 0x200a <__heap_default_limit+0x100a>
    4a6c: 48           	pha
    4a6d: a0 0a        	ldy	#$a
    4a6f: b1 02        	lda	($2),y                  ; 0x2002 <__heap_default_limit+0x1002>
    4a71: c9 01        	cmp	#$1
    4a73: 68           	pla
    4a74: 2a           	rol
    4a75: 26 0a        	rol	$a                      ; 0x200a <__heap_default_limit+0x100a>
    4a77: 48           	pha
    4a78: c8           	iny
    4a79: b1 02        	lda	($2),y                  ; 0x2002 <__heap_default_limit+0x1002>
    4a7b: c9 01        	cmp	#$1
    4a7d: 68           	pla
    4a7e: 2a           	rol
    4a7f: a8           	tay
    4a80: 26 0a        	rol	$a                      ; 0x200a <__heap_default_limit+0x100a>
    4a82: 38           	sec
    4a83: a5 1d        	lda	$1d                     ; 0x201d <next_line+0x8>
    4a85: e5 17        	sbc	$17                     ; 0x2017 <next_line+0x2>
    4a87: 85 0c        	sta	$c                      ; 0x200c <__heap_default_limit+0x100c>
    4a89: 98           	tya
    4a8a: e5 05        	sbc	$5                      ; 0x2005 <__heap_default_limit+0x1005>
    4a8c: 85 04        	sta	$4                      ; 0x2004 <__heap_default_limit+0x1004>
    4a8e: a5 0a        	lda	$a                      ; 0x200a <__heap_default_limit+0x100a>
    4a90: e5 0b        	sbc	$b                      ; 0x200b <__heap_default_limit+0x100b>
    4a92: 85 05        	sta	$5                      ; 0x2005 <__heap_default_limit+0x1005>
    4a94: a0 01        	ldy	#$1
    4a96: 8a           	txa
    4a97: 91 08        	sta	($8),y                  ; 0x2008 <__heap_default_limit+0x1008>
    4a99: a0 47        	ldy	#$47
    4a9b: b1 1a        	lda	($1a),y                 ; 0x201a <next_line+0x5>
    4a9d: 85 09        	sta	$9                      ; 0x2009 <__heap_default_limit+0x1009>
    4a9f: a5 05        	lda	$5                      ; 0x2005 <__heap_default_limit+0x1005>
    4aa1: 09 08        	ora	#$8
    4aa3: a2 0e        	ldx	#$e
    4aa5: a0 03        	ldy	#$3
    4aa7: 85 05        	sta	$5                      ; 0x2005 <__heap_default_limit+0x1005>
    4aa9: 86 06        	stx	$6                      ; 0x2006 <__heap_default_limit+0x1006>
    4aab: 64 07        	stz	$7                      ; 0x2007 <__heap_default_limit+0x1007>
    4aad: a6 16        	ldx	$16                     ; 0x2016 <next_line+0x1>
    4aaf: 86 08        	stx	$8                      ; 0x2008 <__heap_default_limit+0x1008>
    4ab1: 84 0a        	sty	$a                      ; 0x200a <__heap_default_limit+0x100a>
    4ab3: a6 0c        	ldx	$c                      ; 0x200c <__heap_default_limit+0x100c>
    4ab5: a9 00        	lda	#$0
    4ab7: 20 bb 26     	jsr	$26bb <readblockchain>
    4aba: c9 02        	cmp	#$2
    4abc: 90 05        	bcc	$4ac3 <donehypreaddir4+0x227>
    4abe: a9 ff        	lda	#$ff
    4ac0: 4c 55 4b     	jmp	$4b55 <donehypclosedir5+0x3b>
    4ac3: a2 70        	ldx	#$70
    4ac5: a9 71        	lda	#$71
    4ac7: 64 16        	stz	$16                     ; 0x2016 <next_line+0x1>
    4ac9: a0 00        	ldy	#$0
    4acb: 84 18        	sty	$18                     ; 0x2018 <next_line+0x3>
    4acd: a0 00        	ldy	#$0
    4acf: 84 19        	sty	$19                     ; 0x2019 <next_line+0x4>
    4ad1: 86 17        	stx	$17                     ; 0x2017 <next_line+0x2>
    4ad3: a6 16        	ldx	$16                     ; 0x2016 <next_line+0x1>
    4ad5: 30 e7        	bmi	$4abe <donehypreaddir4+0x222>
    4ad7: 3a           	dec
    4ad8: 85 1d        	sta	$1d                     ; 0x201d <next_line+0x8>
    4ada: aa           	tax
    4adb: a5 1c        	lda	$1c                     ; 0x201c <next_line+0x7>
    4add: 20 a2 31     	jsr	$31a2 <getdirententry>
    4ae0: a6 05        	ldx	$5                      ; 0x2005 <__heap_default_limit+0x1005>
    4ae2: a0 ff        	ldy	#$ff
    4ae4: c6 17        	dec	$17                     ; 0x2017 <next_line+0x2>
    4ae6: c4 17        	cpy	$17                     ; 0x2017 <next_line+0x2>
    4ae8: d0 02        	bne	$4aec <donehypreaddir4+0x250>
    4aea: c6 16        	dec	$16                     ; 0x2016 <next_line+0x1>
    4aec: e4 19        	cpx	$19                     ; 0x2019 <next_line+0x4>
    4aee: f0 03        	beq	$4af3 <donehypreaddir4+0x257>
    4af0: 4c 53 4b     	jmp	$4b53 <donehypclosedir5+0x39>
    4af3: a6 04        	ldx	$4                      ; 0x2004 <__heap_default_limit+0x1004>
    4af5: a5 1d        	lda	$1d                     ; 0x201d <next_line+0x8>
    4af7: e4 18        	cpx	$18                     ; 0x2018 <next_line+0x3>
    4af9: f0 d8        	beq	$4ad3 <donehypreaddir4+0x237>
    4afb: 4c 55 4b     	jmp	$4b55 <donehypclosedir5+0x3b>
    4afe: 98           	tya
    4aff: 80 1c        	bra	$4b1d <donehypclosedir5+0x3>
    4b01: c6 16        	dec	$16                     ; 0x2016 <next_line+0x1>
    4b03: a5 16        	lda	$16                     ; 0x2016 <next_line+0x1>
    4b05: a0 0d        	ldy	#$d
    4b07: 91 02        	sta	($2),y                  ; 0x2002 <__heap_default_limit+0x1002>
    4b09: a6 18        	ldx	$18                     ; 0x2018 <next_line+0x3>
    4b0b: a9 16        	lda	#$16
    4b0d: 8d 40 d6     	sta	$d640                   ; 0xd640 <__heap_start+0x46c4>
    4b10: b8           	clv
    4b11: 90 05        	bcc	$4b18 <errhypclosedir5>
    4b13: 86 04        	stx	$4                      ; 0x2004 <__heap_default_limit+0x1004>
    4b15: 4c 1a 4b     	jmp	$4b1a <donehypclosedir5>

00004b18 <errhypclosedir5>:
    4b18: 85 04        	sta	$4                      ; 0x2004 <__heap_default_limit+0x1004>

00004b1a <donehypclosedir5>:
    4b1a: ea           	nop
    4b1b: a5 1e        	lda	$1e                     ; 0x201e <next_line+0x9>
    4b1d: a0 02        	ldy	#$2
    4b1f: aa           	tax
    4b20: 5a           	phy
    4b21: a0 0d        	ldy	#$d
    4b23: b1 02        	lda	($2),y                  ; 0x2002 <__heap_default_limit+0x1002>
    4b25: 7a           	ply
    4b26: 91 1a        	sta	($1a),y                 ; 0x201a <next_line+0x5>
    4b28: a0 44        	ldy	#$44
    4b2a: 18           	clc
    4b2b: 5a           	phy
    4b2c: a0 0c        	ldy	#$c
    4b2e: b1 02        	lda	($2),y                  ; 0x2002 <__heap_default_limit+0x1002>
    4b30: 7a           	ply
    4b31: 69 44        	adc	#$44
    4b33: 85 04        	sta	$4                      ; 0x2004 <__heap_default_limit+0x1004>
    4b35: 8a           	txa
    4b36: 69 00        	adc	#$0
    4b38: 85 05        	sta	$5                      ; 0x2005 <__heap_default_limit+0x1005>
    4b3a: a9 ff        	lda	#$ff
    4b3c: 91 1a        	sta	($1a),y                 ; 0x201a <next_line+0x5>
    4b3e: a0 01        	ldy	#$1
    4b40: 91 04        	sta	($4),y                  ; 0x2004 <__heap_default_limit+0x1004>
    4b42: a5 20        	lda	$20                     ; 0x2020 <next_line+0xb>
    4b44: f0 13        	beq	$4b59 <donehypclosedir5+0x3f>
    4b46: a9 fe        	lda	#$fe
    4b48: a0 44        	ldy	#$44
    4b4a: 91 1a        	sta	($1a),y                 ; 0x201a <next_line+0x5>
    4b4c: 1a           	inc
    4b4d: a0 01        	ldy	#$1
    4b4f: 91 04        	sta	($4),y                  ; 0x2004 <__heap_default_limit+0x1004>
    4b51: 80 06        	bra	$4b59 <donehypclosedir5+0x3f>
    4b53: a5 1d        	lda	$1d                     ; 0x201d <next_line+0x8>
    4b55: a0 02        	ldy	#$2
    4b57: 91 1a        	sta	($1a),y                 ; 0x201a <next_line+0x5>
    4b59: a0 00        	ldy	#$0
    4b5b: b1 02        	lda	($2),y                  ; 0x2002 <__heap_default_limit+0x1002>
    4b5d: 85 21        	sta	$21                     ; 0x2021 <_start>
    4b5f: c8           	iny
    4b60: b1 02        	lda	($2),y                  ; 0x2002 <__heap_default_limit+0x1002>
    4b62: 85 20        	sta	$20                     ; 0x2020 <next_line+0xb>
    4b64: c8           	iny
    4b65: b1 02        	lda	($2),y                  ; 0x2002 <__heap_default_limit+0x1002>
    4b67: 85 1f        	sta	$1f                     ; 0x201f <next_line+0xa>
    4b69: c8           	iny
    4b6a: b1 02        	lda	($2),y                  ; 0x2002 <__heap_default_limit+0x1002>
    4b6c: 85 1e        	sta	$1e                     ; 0x201e <next_line+0x9>
    4b6e: c8           	iny
    4b6f: b1 02        	lda	($2),y                  ; 0x2002 <__heap_default_limit+0x1002>
    4b71: 85 1d        	sta	$1d                     ; 0x201d <next_line+0x8>
    4b73: c8           	iny
    4b74: b1 02        	lda	($2),y                  ; 0x2002 <__heap_default_limit+0x1002>
    4b76: 85 1c        	sta	$1c                     ; 0x201c <next_line+0x7>
    4b78: c8           	iny
    4b79: b1 02        	lda	($2),y                  ; 0x2002 <__heap_default_limit+0x1002>
    4b7b: 85 1b        	sta	$1b                     ; 0x201b <next_line+0x6>
    4b7d: c8           	iny
    4b7e: b1 02        	lda	($2),y                  ; 0x2002 <__heap_default_limit+0x1002>
    4b80: 85 1a        	sta	$1a                     ; 0x201a <next_line+0x5>
    4b82: fa           	plx
    4b83: 86 19        	stx	$19                     ; 0x2019 <next_line+0x4>
    4b85: fa           	plx
    4b86: 86 18        	stx	$18                     ; 0x2018 <next_line+0x3>
    4b88: fa           	plx
    4b89: 86 17        	stx	$17                     ; 0x2017 <next_line+0x2>
    4b8b: fa           	plx
    4b8c: 86 16        	stx	$16                     ; 0x2016 <next_line+0x1>
    4b8e: 18           	clc
    4b8f: a5 02        	lda	$2                      ; 0x2002 <__heap_default_limit+0x1002>
    4b91: 69 0e        	adc	#$e
    4b93: 85 02        	sta	$2                      ; 0x2002 <__heap_default_limit+0x1002>
    4b95: a5 03        	lda	$3                      ; 0x2003 <__heap_default_limit+0x1003>
    4b97: 69 00        	adc	#$0
    4b99: 85 03        	sta	$3                      ; 0x2003 <__heap_default_limit+0x1003>
    4b9b: 60           	rts

00004b9c <Deselect>:
    4b9c: 0a           	asl
    4b9d: a0 00        	ldy	#$0
    4b9f: 64 04        	stz	$4                      ; 0x2004 <__heap_default_limit+0x1004>
    4ba1: 26 04        	rol	$4                      ; 0x2004 <__heap_default_limit+0x1004>
    4ba3: 0a           	asl
    4ba4: 26 04        	rol	$4                      ; 0x2004 <__heap_default_limit+0x1004>
    4ba6: 0a           	asl
    4ba7: 26 04        	rol	$4                      ; 0x2004 <__heap_default_limit+0x1004>
    4ba9: 0a           	asl
    4baa: 85 05        	sta	$5                      ; 0x2005 <__heap_default_limit+0x1005>
    4bac: 26 04        	rol	$4                      ; 0x2004 <__heap_default_limit+0x1004>
    4bae: 0a           	asl
    4baf: a6 04        	ldx	$4                      ; 0x2004 <__heap_default_limit+0x1004>
    4bb1: 86 07        	stx	$7                      ; 0x2007 <__heap_default_limit+0x1007>
    4bb3: 26 07        	rol	$7                      ; 0x2007 <__heap_default_limit+0x1007>
    4bb5: 0a           	asl
    4bb6: 26 07        	rol	$7                      ; 0x2007 <__heap_default_limit+0x1007>
    4bb8: 0a           	asl
    4bb9: 26 07        	rol	$7                      ; 0x2007 <__heap_default_limit+0x1007>
    4bbb: 38           	sec
    4bbc: e5 05        	sbc	$5                      ; 0x2005 <__heap_default_limit+0x1005>
    4bbe: 85 05        	sta	$5                      ; 0x2005 <__heap_default_limit+0x1005>
    4bc0: a5 07        	lda	$7                      ; 0x2007 <__heap_default_limit+0x1007>
    4bc2: e5 04        	sbc	$4                      ; 0x2004 <__heap_default_limit+0x1004>
    4bc4: 85 04        	sta	$4                      ; 0x2004 <__heap_default_limit+0x1004>
    4bc6: a9 30        	lda	#$30
    4bc8: 18           	clc
    4bc9: 65 05        	adc	$5                      ; 0x2005 <__heap_default_limit+0x1005>
    4bcb: aa           	tax
    4bcc: a9 8e        	lda	#$8e
    4bce: 65 04        	adc	$4                      ; 0x2004 <__heap_default_limit+0x1004>
    4bd0: 86 04        	stx	$4                      ; 0x2004 <__heap_default_limit+0x1004>
    4bd2: 85 05        	sta	$5                      ; 0x2005 <__heap_default_limit+0x1005>
    4bd4: 80 07        	bra	$4bdd <Deselect+0x41>
    4bd6: a9 fe        	lda	#$fe
    4bd8: 31 04        	and	($4),y                  ; 0x2004 <__heap_default_limit+0x1004>
    4bda: 91 04        	sta	($4),y                  ; 0x2004 <__heap_default_limit+0x1004>
    4bdc: c8           	iny
    4bdd: c0 70        	cpy	#$70
    4bdf: d0 f5        	bne	$4bd6 <Deselect+0x3a>
    4be1: 60           	rts

00004be2 <sizeselectcurrentifnone>:
    4be2: a6 18        	ldx	$18                     ; 0x2018 <next_line+0x3>
    4be4: da           	phx
    4be5: a6 19        	ldx	$19                     ; 0x2019 <next_line+0x4>
    4be7: da           	phx
    4be8: 85 48        	sta	$48                     ; 0x2048 <__after_main>
    4bea: 0a           	asl
    4beb: aa           	tax
    4bec: a9 00        	lda	#$0
    4bee: 2a           	rol
    4bef: 85 04        	sta	$4                      ; 0x2004 <__heap_default_limit+0x1004>
    4bf1: 8a           	txa
    4bf2: 8e 73 8f     	stx	$8f73                   ; 0x8f73 <__data_load_start+0x1b4>
    4bf5: 0a           	asl
    4bf6: a6 04        	ldx	$4                      ; 0x2004 <__heap_default_limit+0x1004>
    4bf8: 8e 74 8f     	stx	$8f74                   ; 0x8f74 <__data_load_start+0x1b5>
    4bfb: 26 04        	rol	$4                      ; 0x2004 <__heap_default_limit+0x1004>
    4bfd: 0a           	asl
    4bfe: 26 04        	rol	$4                      ; 0x2004 <__heap_default_limit+0x1004>
    4c00: 0a           	asl
    4c01: 85 05        	sta	$5                      ; 0x2005 <__heap_default_limit+0x1005>
    4c03: 26 04        	rol	$4                      ; 0x2004 <__heap_default_limit+0x1004>
    4c05: a6 04        	ldx	$4                      ; 0x2004 <__heap_default_limit+0x1004>
    4c07: 86 06        	stx	$6                      ; 0x2006 <__heap_default_limit+0x1006>
    4c09: 0a           	asl
    4c0a: a6 04        	ldx	$4                      ; 0x2004 <__heap_default_limit+0x1004>
    4c0c: 86 07        	stx	$7                      ; 0x2007 <__heap_default_limit+0x1007>
    4c0e: 26 07        	rol	$7                      ; 0x2007 <__heap_default_limit+0x1007>
    4c10: 0a           	asl
    4c11: 26 07        	rol	$7                      ; 0x2007 <__heap_default_limit+0x1007>
    4c13: 0a           	asl
    4c14: 26 07        	rol	$7                      ; 0x2007 <__heap_default_limit+0x1007>
    4c16: 38           	sec
    4c17: 8d 78 8f     	sta	$8f78                   ; 0x8f78 <__data_load_start+0x1b9>
    4c1a: a6 05        	ldx	$5                      ; 0x2005 <__heap_default_limit+0x1005>
    4c1c: 8e 75 8f     	stx	$8f75                   ; 0x8f75 <__data_load_start+0x1b6>
    4c1f: e5 05        	sbc	$5                      ; 0x2005 <__heap_default_limit+0x1005>
    4c21: 85 04        	sta	$4                      ; 0x2004 <__heap_default_limit+0x1004>
    4c23: a6 07        	ldx	$7                      ; 0x2007 <__heap_default_limit+0x1007>
    4c25: 8e 77 8f     	stx	$8f77                   ; 0x8f77 <__data_load_start+0x1b8>
    4c28: a5 07        	lda	$7                      ; 0x2007 <__heap_default_limit+0x1007>
    4c2a: a6 06        	ldx	$6                      ; 0x2006 <__heap_default_limit+0x1006>
    4c2c: 8e 76 8f     	stx	$8f76                   ; 0x8f76 <__data_load_start+0x1b7>
    4c2f: e5 06        	sbc	$6                      ; 0x2006 <__heap_default_limit+0x1006>
    4c31: 85 05        	sta	$5                      ; 0x2005 <__heap_default_limit+0x1005>
    4c33: a9 30        	lda	#$30
    4c35: 18           	clc
    4c36: 65 04        	adc	$4                      ; 0x2004 <__heap_default_limit+0x1004>
    4c38: 85 18        	sta	$18                     ; 0x2018 <next_line+0x3>
    4c3a: a9 8e        	lda	#$8e
    4c3c: 65 05        	adc	$5                      ; 0x2005 <__heap_default_limit+0x1005>
    4c3e: 85 19        	sta	$19                     ; 0x2019 <next_line+0x4>
    4c40: a9 00        	lda	#$0
    4c42: 64 4a        	stz	$4a                     ; 0x204a <__after_main+0x2>
    4c44: aa           	tax
    4c45: a8           	tay
    4c46: 80 03        	bra	$4c4b <sizeselectcurrentifnone+0x69>
    4c48: c8           	iny
    4c49: a5 49        	lda	$49                     ; 0x2049 <__after_main+0x1>
    4c4b: c0 70        	cpy	#$70
    4c4d: d0 03        	bne	$4c52 <sizeselectcurrentifnone+0x70>
    4c4f: 4c bc 4c     	jmp	$4cbc <sizeselectcurrentifnone+0xda>
    4c52: 85 49        	sta	$49                     ; 0x2049 <__after_main+0x1>
    4c54: a9 01        	lda	#$1
    4c56: 31 18        	and	($18),y                 ; 0x2018 <next_line+0x3>
    4c58: f0 ee        	beq	$4c48 <sizeselectcurrentifnone+0x66>
    4c5a: 5a           	phy
    4c5b: fa           	plx
    4c5c: a5 48        	lda	$48                     ; 0x2048 <__after_main>
    4c5e: 84 4b        	sty	$4b                     ; 0x204b <_fini>
    4c60: 20 a2 31     	jsr	$31a2 <getdirententry>
    4c63: a5 04        	lda	$4                      ; 0x2004 <__heap_default_limit+0x1004>
    4c65: 18           	clc
    4c66: 69 1e        	adc	#$1e
    4c68: 85 06        	sta	$6                      ; 0x2006 <__heap_default_limit+0x1006>
    4c6a: a5 05        	lda	$5                      ; 0x2005 <__heap_default_limit+0x1005>
    4c6c: 69 00        	adc	#$0
    4c6e: 85 07        	sta	$7                      ; 0x2007 <__heap_default_limit+0x1007>
    4c70: 18           	clc
    4c71: a5 49        	lda	$49                     ; 0x2049 <__after_main+0x1>
    4c73: a0 1e        	ldy	#$1e
    4c75: 71 04        	adc	($4),y                  ; 0x2004 <__heap_default_limit+0x1004>
    4c77: 85 49        	sta	$49                     ; 0x2049 <__after_main+0x1>
    4c79: a5 4a        	lda	$4a                     ; 0x204a <__after_main+0x2>
    4c7b: a0 01        	ldy	#$1
    4c7d: 71 06        	adc	($6),y                  ; 0x2006 <__heap_default_limit+0x1006>
    4c7f: 85 4a        	sta	$4a                     ; 0x204a <__after_main+0x2>
    4c81: a9 0f        	lda	#$f
    4c83: c8           	iny
    4c84: 31 04        	and	($4),y                  ; 0x2004 <__heap_default_limit+0x1004>
    4c86: a4 4b        	ldy	$4b                     ; 0x204b <_fini>
    4c88: a2 01        	ldx	#$1
    4c8a: c9 05        	cmp	#$5
    4c8c: f0 03        	beq	$4c91 <sizeselectcurrentifnone+0xaf>
    4c8e: 4c 48 4c     	jmp	$4c48 <sizeselectcurrentifnone+0x66>
    4c91: a9 04        	lda	#$4
    4c93: a2 32        	ldx	#$32
    4c95: 86 04        	stx	$4                      ; 0x2004 <__heap_default_limit+0x1004>
    4c97: a2 88        	ldx	#$88
    4c99: 86 05        	stx	$5                      ; 0x2005 <__heap_default_limit+0x1005>
    4c9b: a2 6d        	ldx	#$6d
    4c9d: 86 06        	stx	$6                      ; 0x2006 <__heap_default_limit+0x1006>
    4c9f: a2 8b        	ldx	#$8b
    4ca1: 86 07        	stx	$7                      ; 0x2007 <__heap_default_limit+0x1007>
    4ca3: a2 c7        	ldx	#$c7
    4ca5: 86 08        	stx	$8                      ; 0x2008 <__heap_default_limit+0x1008>
    4ca7: a2 83        	ldx	#$83
    4ca9: 86 09        	stx	$9                      ; 0x2009 <__heap_default_limit+0x1009>
    4cab: 64 0a        	stz	$a                      ; 0x200a <__heap_default_limit+0x100a>
    4cad: 64 0b        	stz	$b                      ; 0x200b <__heap_default_limit+0x100b>
    4caf: 64 0c        	stz	$c                      ; 0x200c <__heap_default_limit+0x100c>
    4cb1: a2 00        	ldx	#$0
    4cb3: 20 b5 3c     	jsr	$3cb5 <messagebox>
    4cb6: a9 ff        	lda	#$ff
    4cb8: aa           	tax
    4cb9: 4c 3f 4d     	jmp	$4d3f <sizeselectcurrentifnone+0x15d>
    4cbc: e0 00        	cpx	#$0
    4cbe: f0 05        	beq	$4cc5 <sizeselectcurrentifnone+0xe3>
    4cc0: a6 4a        	ldx	$4a                     ; 0x204a <__after_main+0x2>
    4cc2: 4c 3f 4d     	jmp	$4d3f <sizeselectcurrentifnone+0x15d>
    4cc5: 85 19        	sta	$19                     ; 0x2019 <next_line+0x4>
    4cc7: a9 27        	lda	#$27
    4cc9: ae 73 8f     	ldx	$8f73                   ; 0x8f73 <__data_load_start+0x1b4>
    4ccc: 86 04        	stx	$4                      ; 0x2004 <__heap_default_limit+0x1004>
    4cce: 18           	clc
    4ccf: 65 04        	adc	$4                      ; 0x2004 <__heap_default_limit+0x1004>
    4cd1: a8           	tay
    4cd2: ae 74 8f     	ldx	$8f74                   ; 0x8f74 <__data_load_start+0x1b5>
    4cd5: 86 04        	stx	$4                      ; 0x2004 <__heap_default_limit+0x1004>
    4cd7: a9 00        	lda	#$0
    4cd9: 65 04        	adc	$4                      ; 0x2004 <__heap_default_limit+0x1004>
    4cdb: 84 04        	sty	$4                      ; 0x2004 <__heap_default_limit+0x1004>
    4cdd: 85 05        	sta	$5                      ; 0x2005 <__heap_default_limit+0x1005>
    4cdf: b2 04        	lda	($4),z                  ; 0x2004 <__heap_default_limit+0x1004>
    4ce1: aa           	tax
    4ce2: a0 01        	ldy	#$1
    4ce4: b1 04        	lda	($4),y                  ; 0x2004 <__heap_default_limit+0x1004>
    4ce6: 86 04        	stx	$4                      ; 0x2004 <__heap_default_limit+0x1004>
    4ce8: 85 05        	sta	$5                      ; 0x2005 <__heap_default_limit+0x1005>
    4cea: 38           	sec
    4ceb: ae 75 8f     	ldx	$8f75                   ; 0x8f75 <__data_load_start+0x1b6>
    4cee: 86 06        	stx	$6                      ; 0x2006 <__heap_default_limit+0x1006>
    4cf0: ad 78 8f     	lda	$8f78                   ; 0x8f78 <__data_load_start+0x1b9>
    4cf3: e5 06        	sbc	$6                      ; 0x2006 <__heap_default_limit+0x1006>
    4cf5: 85 06        	sta	$6                      ; 0x2006 <__heap_default_limit+0x1006>
    4cf7: ae 76 8f     	ldx	$8f76                   ; 0x8f76 <__data_load_start+0x1b7>
    4cfa: 86 07        	stx	$7                      ; 0x2007 <__heap_default_limit+0x1007>
    4cfc: ad 77 8f     	lda	$8f77                   ; 0x8f77 <__data_load_start+0x1b8>
    4cff: e5 07        	sbc	$7                      ; 0x2007 <__heap_default_limit+0x1007>
    4d01: 85 07        	sta	$7                      ; 0x2007 <__heap_default_limit+0x1007>
    4d03: a9 30        	lda	#$30
    4d05: 18           	clc
    4d06: 65 06        	adc	$6                      ; 0x2006 <__heap_default_limit+0x1006>
    4d08: 85 06        	sta	$6                      ; 0x2006 <__heap_default_limit+0x1006>
    4d0a: a9 8e        	lda	#$8e
    4d0c: 65 07        	adc	$7                      ; 0x2007 <__heap_default_limit+0x1007>
    4d0e: 85 07        	sta	$7                      ; 0x2007 <__heap_default_limit+0x1007>
    4d10: b1 04        	lda	($4),y                  ; 0x2004 <__heap_default_limit+0x1004>
    4d12: a8           	tay
    4d13: a9 01        	lda	#$1
    4d15: 11 06        	ora	($6),y                  ; 0x2006 <__heap_default_limit+0x1006>
    4d17: 91 06        	sta	($6),y                  ; 0x2006 <__heap_default_limit+0x1006>
    4d19: 5a           	phy
    4d1a: fa           	plx
    4d1b: a5 48        	lda	$48                     ; 0x2048 <__after_main>
    4d1d: 20 a2 31     	jsr	$31a2 <getdirententry>
    4d20: a5 04        	lda	$4                      ; 0x2004 <__heap_default_limit+0x1004>
    4d22: 18           	clc
    4d23: 69 1e        	adc	#$1e
    4d25: 85 06        	sta	$6                      ; 0x2006 <__heap_default_limit+0x1006>
    4d27: a5 05        	lda	$5                      ; 0x2005 <__heap_default_limit+0x1005>
    4d29: 69 00        	adc	#$0
    4d2b: 85 07        	sta	$7                      ; 0x2007 <__heap_default_limit+0x1007>
    4d2d: a5 19        	lda	$19                     ; 0x2019 <next_line+0x4>
    4d2f: a0 1e        	ldy	#$1e
    4d31: 18           	clc
    4d32: 71 04        	adc	($4),y                  ; 0x2004 <__heap_default_limit+0x1004>
    4d34: 85 04        	sta	$4                      ; 0x2004 <__heap_default_limit+0x1004>
    4d36: a5 4a        	lda	$4a                     ; 0x204a <__after_main+0x2>
    4d38: a0 01        	ldy	#$1
    4d3a: 71 06        	adc	($6),y                  ; 0x2006 <__heap_default_limit+0x1006>
    4d3c: aa           	tax
    4d3d: a5 04        	lda	$4                      ; 0x2004 <__heap_default_limit+0x1004>
    4d3f: 7a           	ply
    4d40: 84 19        	sty	$19                     ; 0x2019 <next_line+0x4>
    4d42: 7a           	ply
    4d43: 84 18        	sty	$18                     ; 0x2018 <next_line+0x3>
    4d45: 60           	rts

00004d46 <navi>:
    4d46: 18           	clc
    4d47: a5 02        	lda	$2                      ; 0x2002 <__heap_default_limit+0x1002>
    4d49: 69 da        	adc	#$da
    4d4b: 85 02        	sta	$2                      ; 0x2002 <__heap_default_limit+0x1002>
    4d4d: a5 03        	lda	$3                      ; 0x2003 <__heap_default_limit+0x1003>
    4d4f: 69 ff        	adc	#$ff
    4d51: 85 03        	sta	$3                      ; 0x2003 <__heap_default_limit+0x1003>
    4d53: a6 16        	ldx	$16                     ; 0x2016 <next_line+0x1>
    4d55: da           	phx
    4d56: a6 17        	ldx	$17                     ; 0x2017 <next_line+0x2>
    4d58: da           	phx
    4d59: a6 18        	ldx	$18                     ; 0x2018 <next_line+0x3>
    4d5b: da           	phx
    4d5c: a6 19        	ldx	$19                     ; 0x2019 <next_line+0x4>
    4d5e: da           	phx
    4d5f: a5 1a        	lda	$1a                     ; 0x201a <next_line+0x5>
    4d61: a0 07        	ldy	#$7
    4d63: 91 02        	sta	($2),y                  ; 0x2002 <__heap_default_limit+0x1002>
    4d65: a5 1b        	lda	$1b                     ; 0x201b <next_line+0x6>
    4d67: 88           	dey
    4d68: 91 02        	sta	($2),y                  ; 0x2002 <__heap_default_limit+0x1002>
    4d6a: a5 1c        	lda	$1c                     ; 0x201c <next_line+0x7>
    4d6c: 88           	dey
    4d6d: 91 02        	sta	($2),y                  ; 0x2002 <__heap_default_limit+0x1002>
    4d6f: a5 1d        	lda	$1d                     ; 0x201d <next_line+0x8>
    4d71: 88           	dey
    4d72: 91 02        	sta	($2),y                  ; 0x2002 <__heap_default_limit+0x1002>
    4d74: a5 1e        	lda	$1e                     ; 0x201e <next_line+0x9>
    4d76: 88           	dey
    4d77: 91 02        	sta	($2),y                  ; 0x2002 <__heap_default_limit+0x1002>
    4d79: a5 1f        	lda	$1f                     ; 0x201f <next_line+0xa>
    4d7b: 88           	dey
    4d7c: 91 02        	sta	($2),y                  ; 0x2002 <__heap_default_limit+0x1002>
    4d7e: a5 20        	lda	$20                     ; 0x2020 <next_line+0xb>
    4d80: 88           	dey
    4d81: 91 02        	sta	($2),y                  ; 0x2002 <__heap_default_limit+0x1002>
    4d83: a5 21        	lda	$21                     ; 0x2021 <_start>
    4d85: 88           	dey
    4d86: 91 02        	sta	($2),y                  ; 0x2002 <__heap_default_limit+0x1002>
    4d88: a2 06        	ldx	#$6
    4d8a: 86 2f        	stx	$2f                     ; 0x202f <__do_init_stack>
    4d8c: a9 00        	lda	#$0
    4d8e: 8d 40 d6     	sta	$d640                   ; 0xd640 <__heap_start+0x46c4>
    4d91: b8           	clv
    4d92: 9c 03 17     	stz	$1703                   ; 0x1703 <__heap_default_limit+0x703>
    4d95: a3 00        	ldz	#$0
    4d97: 86 17        	stx	$17                     ; 0x2017 <next_line+0x2>
    4d99: 84 16        	sty	$16                     ; 0x2016 <next_line+0x1>
    4d9b: ae 03 17     	ldx	$1703                   ; 0x1703 <__heap_default_limit+0x703>
    4d9e: 86 18        	stx	$18                     ; 0x2018 <next_line+0x3>
    4da0: a2 64        	ldx	#$64
    4da2: 86 04        	stx	$4                      ; 0x2004 <__heap_default_limit+0x1004>
    4da4: 64 05        	stz	$5                      ; 0x2005 <__heap_default_limit+0x1005>
    4da6: a2 00        	ldx	#$0
    4da8: 20 50 7e     	jsr	$7e50 <__mulhi3>
    4dab: 18           	clc
    4dac: 65 17        	adc	$17                     ; 0x2017 <next_line+0x2>
    4dae: a8           	tay
    4daf: 8a           	txa
    4db0: 69 00        	adc	#$0
    4db2: d0 08        	bne	$4dbc <navi+0x76>
    4db4: c0 66        	cpy	#$66
    4db6: b0 08        	bcs	$4dc0 <navi+0x7a>
    4db8: a0 01        	ldy	#$1
    4dba: 80 26        	bra	$4de2 <navi+0x9c>
    4dbc: c9 00        	cmp	#$0
    4dbe: 90 f8        	bcc	$4db8 <navi+0x72>
    4dc0: a2 00        	ldx	#$0
    4dc2: a0 64        	ldy	#$64
    4dc4: 64 05        	stz	$5                      ; 0x2005 <__heap_default_limit+0x1005>
    4dc6: 84 04        	sty	$4                      ; 0x2004 <__heap_default_limit+0x1004>
    4dc8: a5 16        	lda	$16                     ; 0x2016 <next_line+0x1>
    4dca: 20 50 7e     	jsr	$7e50 <__mulhi3>
    4dcd: 18           	clc
    4dce: 65 18        	adc	$18                     ; 0x2018 <next_line+0x3>
    4dd0: a8           	tay
    4dd1: 8a           	txa
    4dd2: 69 00        	adc	#$0
    4dd4: d0 04        	bne	$4dda <navi+0x94>
    4dd6: c0 67        	cpy	#$67
    4dd8: 80 02        	bra	$4ddc <navi+0x96>
    4dda: c9 00        	cmp	#$0
    4ddc: a0 01        	ldy	#$1
    4dde: 90 02        	bcc	$4de2 <navi+0x9c>
    4de0: a0 00        	ldy	#$0
    4de2: a2 34        	ldx	#$34
    4de4: 86 1a        	stx	$1a                     ; 0x201a <next_line+0x5>
    4de6: a2 03        	ldx	#$3
    4de8: 86 1b        	stx	$1b                     ; 0x201b <next_line+0x6>
    4dea: 8c 32 8f     	sty	$8f32                   ; 0x8f32 <legacyHDOSstate>
    4ded: a2 28        	ldx	#$28
    4def: 8a           	txa
    4df0: a0 1d        	ldy	#$1d
    4df2: 91 02        	sta	($2),y                  ; 0x2002 <__heap_default_limit+0x1002>
    4df4: a0 00        	ldy	#$0
    4df6: 64 19        	stz	$19                     ; 0x2019 <next_line+0x4>
    4df8: 4c 7d 4e     	jmp	$4e7d <navi+0x137>
    4dfb: a6 19        	ldx	$19                     ; 0x2019 <next_line+0x4>
    4dfd: 84 18        	sty	$18                     ; 0x2018 <next_line+0x3>
    4dff: b4 27        	ldy	$27,x                   ; 0x2027 <_start+0x6>
    4e01: b5 28        	lda	$28,x                   ; 0x2028 <_start+0x7>
    4e03: aa           	tax
    4e04: 84 16        	sty	$16                     ; 0x2016 <next_line+0x1>
    4e06: 86 17        	stx	$17                     ; 0x2017 <next_line+0x2>
    4e08: a5 18        	lda	$18                     ; 0x2018 <next_line+0x3>
    4e0a: 92 16        	sta	($16),z                 ; 0x2016 <next_line+0x1>
    4e0c: 18           	clc
    4e0d: 98           	tya
    4e0e: 69 03        	adc	#$3
    4e10: 85 04        	sta	$4                      ; 0x2004 <__heap_default_limit+0x1004>
    4e12: 8a           	txa
    4e13: 69 00        	adc	#$0
    4e15: 85 05        	sta	$5                      ; 0x2005 <__heap_default_limit+0x1005>
    4e17: a2 c6        	ldx	#$c6
    4e19: 86 06        	stx	$6                      ; 0x2006 <__heap_default_limit+0x1006>
    4e1b: a2 86        	ldx	#$86
    4e1d: 86 07        	stx	$7                      ; 0x2007 <__heap_default_limit+0x1007>
    4e1f: a2 00        	ldx	#$0
    4e21: a9 10        	lda	#$10
    4e23: 20 8e 82     	jsr	$828e <memcpy>
    4e26: a9 01        	lda	#$1
    4e28: a0 46        	ldy	#$46
    4e2a: 11 16        	ora	($16),y                 ; 0x2016 <next_line+0x1>
    4e2c: 91 16        	sta	($16),y                 ; 0x2016 <next_line+0x1>
    4e2e: a9 28        	lda	#$28
    4e30: c8           	iny
    4e31: 91 16        	sta	($16),y                 ; 0x2016 <next_line+0x1>
    4e33: c8           	iny
    4e34: a9 01        	lda	#$1
    4e36: 91 16        	sta	($16),y                 ; 0x2016 <next_line+0x1>
    4e38: c8           	iny
    4e39: a9 50        	lda	#$50
    4e3b: 91 16        	sta	($16),y                 ; 0x2016 <next_line+0x1>
    4e3d: a0 01        	ldy	#$1
    4e3f: a9 00        	lda	#$0
    4e41: 91 16        	sta	($16),y                 ; 0x2016 <next_line+0x1>
    4e43: a2 42        	ldx	#$42
    4e45: 86 04        	stx	$4                      ; 0x2004 <__heap_default_limit+0x1004>
    4e47: a2 86        	ldx	#$86
    4e49: 86 05        	stx	$5                      ; 0x2005 <__heap_default_limit+0x1005>
    4e4b: a2 70        	ldx	#$70
    4e4d: 86 06        	stx	$6                      ; 0x2006 <__heap_default_limit+0x1006>
    4e4f: a2 84        	ldx	#$84
    4e51: 86 07        	stx	$7                      ; 0x2007 <__heap_default_limit+0x1007>
    4e53: a0 1d        	ldy	#$1d
    4e55: b1 02        	lda	($2),y                  ; 0x2002 <__heap_default_limit+0x1002>
    4e57: 85 1c        	sta	$1c                     ; 0x201c <next_line+0x7>
    4e59: 20 5d 3e     	jsr	$3e5d <progress>
    4e5c: b2 16        	lda	($16),z                 ; 0x2016 <next_line+0x1>
    4e5e: a6 18        	ldx	$18                     ; 0x2018 <next_line+0x3>
    4e60: 20 a4 45     	jsr	$45a4 <UpdateSectors>
    4e63: a5 18        	lda	$18                     ; 0x2018 <next_line+0x3>
    4e65: 20 9c 4b     	jsr	$4b9c <Deselect>
    4e68: a5 19        	lda	$19                     ; 0x2019 <next_line+0x4>
    4e6a: a4 18        	ldy	$18                     ; 0x2018 <next_line+0x3>
    4e6c: 18           	clc
    4e6d: 69 02        	adc	#$2
    4e6f: 85 19        	sta	$19                     ; 0x2019 <next_line+0x4>
    4e71: c8           	iny
    4e72: 18           	clc
    4e73: a5 1c        	lda	$1c                     ; 0x201c <next_line+0x7>
    4e75: 69 28        	adc	#$28
    4e77: 5a           	phy
    4e78: a0 1d        	ldy	#$1d
    4e7a: 91 02        	sta	($2),y                  ; 0x2002 <__heap_default_limit+0x1002>
    4e7c: 7a           	ply
    4e7d: c0 02        	cpy	#$2
    4e7f: f0 03        	beq	$4e84 <navi+0x13e>
    4e81: 4c fb 4d     	jmp	$4dfb <navi+0xb5>
    4e84: a2 00        	ldx	#$0
    4e86: 64 16        	stz	$16                     ; 0x2016 <next_line+0x1>
    4e88: a5 16        	lda	$16                     ; 0x2016 <next_line+0x1>
    4e8a: d0 07        	bne	$4e93 <navi+0x14d>
    4e8c: e0 70        	cpx	#$70
    4e8e: d0 03        	bne	$4e93 <navi+0x14d>
    4e90: 4c 72 4f     	jmp	$4f72 <navi+0x22c>
    4e93: a9 00        	lda	#$0
    4e95: 86 17        	stx	$17                     ; 0x2017 <next_line+0x2>
    4e97: 20 a2 31     	jsr	$31a2 <getdirententry>
    4e9a: a2 00        	ldx	#$0
    4e9c: a4 04        	ldy	$4                      ; 0x2004 <__heap_default_limit+0x1004>
    4e9e: 84 18        	sty	$18                     ; 0x2018 <next_line+0x3>
    4ea0: a4 05        	ldy	$5                      ; 0x2005 <__heap_default_limit+0x1005>
    4ea2: 84 19        	sty	$19                     ; 0x2019 <next_line+0x4>
    4ea4: a4 18        	ldy	$18                     ; 0x2018 <next_line+0x3>
    4ea6: 84 06        	sty	$6                      ; 0x2006 <__heap_default_limit+0x1006>
    4ea8: a0 05        	ldy	#$5
    4eaa: 80 01        	bra	$4ead <navi+0x167>
    4eac: e8           	inx
    4ead: 86 04        	stx	$4                      ; 0x2004 <__heap_default_limit+0x1004>
    4eaf: a5 18        	lda	$18                     ; 0x2018 <next_line+0x3>
    4eb1: 18           	clc
    4eb2: 65 04        	adc	$4                      ; 0x2004 <__heap_default_limit+0x1004>
    4eb4: 85 04        	sta	$4                      ; 0x2004 <__heap_default_limit+0x1004>
    4eb6: a5 19        	lda	$19                     ; 0x2019 <next_line+0x4>
    4eb8: 69 00        	adc	#$0
    4eba: 85 05        	sta	$5                      ; 0x2005 <__heap_default_limit+0x1005>
    4ebc: b1 04        	lda	($4),y                  ; 0x2004 <__heap_default_limit+0x1004>
    4ebe: dd 47 8c     	cmp	$8c47,x                 ; 0x8c47 <__zp_data_load_start+0x6c30>
    4ec1: d0 0a        	bne	$4ecd <navi+0x187>
    4ec3: e0 11        	cpx	#$11
    4ec5: f0 13        	beq	$4eda <navi+0x194>
    4ec7: c9 00        	cmp	#$0
    4ec9: d0 e1        	bne	$4eac <navi+0x166>
    4ecb: 80 0d        	bra	$4eda <navi+0x194>
    4ecd: a6 17        	ldx	$17                     ; 0x2017 <next_line+0x2>
    4ecf: e8           	inx
    4ed0: f0 03        	beq	$4ed5 <navi+0x18f>
    4ed2: 4c 88 4e     	jmp	$4e88 <navi+0x142>
    4ed5: e6 16        	inc	$16                     ; 0x2016 <next_line+0x1>
    4ed7: 4c 88 4e     	jmp	$4e88 <navi+0x142>
    4eda: ae 00 1d     	ldx	$1d00                   ; 0x1d00 <__heap_default_limit+0xd00>
    4edd: a0 03        	ldy	#$3
    4edf: b1 18        	lda	($18),y                 ; 0x2018 <next_line+0x3>
    4ee1: 85 09        	sta	$9                      ; 0x2009 <__heap_default_limit+0x1009>
    4ee3: c8           	iny
    4ee4: b1 18        	lda	($18),y                 ; 0x2018 <next_line+0x3>
    4ee6: 85 0a        	sta	$a                      ; 0x200a <__heap_default_limit+0x100a>
    4ee8: a9 0c        	lda	#$c
    4eea: a0 32        	ldy	#$32
    4eec: 85 04        	sta	$4                      ; 0x2004 <__heap_default_limit+0x1004>
    4eee: a9 08        	lda	#$8
    4ef0: 85 05        	sta	$5                      ; 0x2005 <__heap_default_limit+0x1005>
    4ef2: 84 06        	sty	$6                      ; 0x2006 <__heap_default_limit+0x1006>
    4ef4: 86 08        	stx	$8                      ; 0x2008 <__heap_default_limit+0x1008>
    4ef6: 64 07        	stz	$7                      ; 0x2007 <__heap_default_limit+0x1007>
    4ef8: a2 bc        	ldx	#$bc
    4efa: a9 00        	lda	#$0
    4efc: 20 bb 26     	jsr	$26bb <readblockchain>
    4eff: a2 01        	ldx	#$1
    4f01: a8           	tay
    4f02: f0 02        	beq	$4f06 <navi+0x1c0>
    4f04: a2 00        	ldx	#$0
    4f06: a9 00        	lda	#$0
    4f08: e0 00        	cpx	#$0
    4f0a: d0 02        	bne	$4f0e <navi+0x1c8>
    4f0c: a9 01        	lda	#$1
    4f0e: 48           	pha
    4f0f: a5 18        	lda	$18                     ; 0x2018 <next_line+0x3>
    4f11: a0 0d        	ldy	#$d
    4f13: 91 02        	sta	($2),y                  ; 0x2002 <__heap_default_limit+0x1002>
    4f15: a5 19        	lda	$19                     ; 0x2019 <next_line+0x4>
    4f17: c8           	iny
    4f18: 91 02        	sta	($2),y                  ; 0x2002 <__heap_default_limit+0x1002>
    4f1a: 68           	pla
    4f1b: 29 01        	and	#$1
    4f1d: a0 1d        	ldy	#$1d
    4f1f: 91 02        	sta	($2),y                  ; 0x2002 <__heap_default_limit+0x1002>
    4f21: 8a           	txa
    4f22: f0 03        	beq	$4f27 <navi+0x1e1>
    4f24: 4c 5b 4f     	jmp	$4f5b <navi+0x215>
    4f27: a2 d6        	ldx	#$d6
    4f29: 86 16        	stx	$16                     ; 0x2016 <next_line+0x1>
    4f2b: a2 84        	ldx	#$84
    4f2d: 86 17        	stx	$17                     ; 0x2017 <next_line+0x2>
    4f2f: a2 34        	ldx	#$34
    4f31: 86 18        	stx	$18                     ; 0x2018 <next_line+0x3>
    4f33: a2 03        	ldx	#$3
    4f35: 86 19        	stx	$19                     ; 0x2019 <next_line+0x4>
    4f37: b2 16        	lda	($16),z                 ; 0x2016 <next_line+0x1>
    4f39: e6 16        	inc	$16                     ; 0x2016 <next_line+0x1>
    4f3b: d0 02        	bne	$4f3f <navi+0x1f9>
    4f3d: e6 17        	inc	$17                     ; 0x2017 <next_line+0x2>
    4f3f: 20 4a 79     	jsr	$794a <petsciitoscreencode>
    4f42: 92 18        	sta	($18),z                 ; 0x2018 <next_line+0x3>
    4f44: e6 18        	inc	$18                     ; 0x2018 <next_line+0x3>
    4f46: d0 02        	bne	$4f4a <navi+0x204>
    4f48: e6 19        	inc	$19                     ; 0x2019 <next_line+0x4>
    4f4a: aa           	tax
    4f4b: d0 ea        	bne	$4f37 <navi+0x1f1>
    4f4d: a2 34        	ldx	#$34
    4f4f: 86 04        	stx	$4                      ; 0x2004 <__heap_default_limit+0x1004>
    4f51: a2 03        	ldx	#$3
    4f53: 86 05        	stx	$5                      ; 0x2005 <__heap_default_limit+0x1005>
    4f55: 20 0b 7a     	jsr	$7a0b <cputs>
    4f58: 20 97 7b     	jsr	$7b97 <cgetc>
    4f5b: a2 00        	ldx	#$0
    4f5d: 8a           	txa
    4f5e: 20 90 76     	jsr	$7690 <text>
    4f61: a9 01        	lda	#$1
    4f63: a2 00        	ldx	#$0
    4f65: 20 90 76     	jsr	$7690 <text>
    4f68: a9 14        	lda	#$14
    4f6a: a2 00        	ldx	#$0
    4f6c: 20 58 40     	jsr	$4058 <shortcuts>
    4f6f: 4c a9 4f     	jmp	$4fa9 <navi+0x263>
    4f72: a5 18        	lda	$18                     ; 0x2018 <next_line+0x3>
    4f74: a0 0d        	ldy	#$d
    4f76: 91 02        	sta	($2),y                  ; 0x2002 <__heap_default_limit+0x1002>
    4f78: a5 19        	lda	$19                     ; 0x2019 <next_line+0x4>
    4f7a: c8           	iny
    4f7b: 91 02        	sta	($2),y                  ; 0x2002 <__heap_default_limit+0x1002>
    4f7d: a9 04        	lda	#$4
    4f7f: a2 c3        	ldx	#$c3
    4f81: 86 04        	stx	$4                      ; 0x2004 <__heap_default_limit+0x1004>
    4f83: a2 87        	ldx	#$87
    4f85: 86 05        	stx	$5                      ; 0x2005 <__heap_default_limit+0x1005>
    4f87: a2 7c        	ldx	#$7c
    4f89: 86 06        	stx	$6                      ; 0x2006 <__heap_default_limit+0x1006>
    4f8b: a2 86        	ldx	#$86
    4f8d: 86 07        	stx	$7                      ; 0x2007 <__heap_default_limit+0x1007>
    4f8f: a2 c7        	ldx	#$c7
    4f91: 86 08        	stx	$8                      ; 0x2008 <__heap_default_limit+0x1008>
    4f93: a2 83        	ldx	#$83
    4f95: 86 09        	stx	$9                      ; 0x2009 <__heap_default_limit+0x1009>
    4f97: 64 0a        	stz	$a                      ; 0x200a <__heap_default_limit+0x100a>
    4f99: 64 0b        	stz	$b                      ; 0x200b <__heap_default_limit+0x100b>
    4f9b: 64 0c        	stz	$c                      ; 0x200c <__heap_default_limit+0x100c>
    4f9d: a2 00        	ldx	#$0
    4f9f: 20 b5 3c     	jsr	$3cb5 <messagebox>
    4fa2: a2 01        	ldx	#$1
    4fa4: 8a           	txa
    4fa5: a0 1d        	ldy	#$1d
    4fa7: 91 02        	sta	($2),y                  ; 0x2002 <__heap_default_limit+0x1002>
    4fa9: a9 01        	lda	#$1
    4fab: a2 58        	ldx	#$58
    4fad: 86 04        	stx	$4                      ; 0x2004 <__heap_default_limit+0x1004>
    4faf: a2 8c        	ldx	#$8c
    4fb1: 86 05        	stx	$5                      ; 0x2005 <__heap_default_limit+0x1005>
    4fb3: a2 97        	ldx	#$97
    4fb5: 86 06        	stx	$6                      ; 0x2006 <__heap_default_limit+0x1006>
    4fb7: a2 8b        	ldx	#$8b
    4fb9: 86 07        	stx	$7                      ; 0x2007 <__heap_default_limit+0x1007>
    4fbb: a2 3d        	ldx	#$3d
    4fbd: 86 08        	stx	$8                      ; 0x2008 <__heap_default_limit+0x1008>
    4fbf: a2 87        	ldx	#$87
    4fc1: 86 09        	stx	$9                      ; 0x2009 <__heap_default_limit+0x1009>
    4fc3: 64 0a        	stz	$a                      ; 0x200a <__heap_default_limit+0x100a>
    4fc5: 64 0b        	stz	$b                      ; 0x200b <__heap_default_limit+0x100b>
    4fc7: 64 0c        	stz	$c                      ; 0x200c <__heap_default_limit+0x100c>
    4fc9: a2 00        	ldx	#$0
    4fcb: 20 b5 3c     	jsr	$3cb5 <messagebox>
    4fce: aa           	tax
    4fcf: d0 03        	bne	$4fd4 <navi+0x28e>
    4fd1: 4c 3b 6f     	jmp	$6f3b <donehypchdir18+0x22c>
    4fd4: a0 1d        	ldy	#$1d
    4fd6: b1 02        	lda	($2),y                  ; 0x2002 <__heap_default_limit+0x1002>
    4fd8: 85 04        	sta	$4                      ; 0x2004 <__heap_default_limit+0x1004>
    4fda: a5 04        	lda	$4                      ; 0x2004 <__heap_default_limit+0x1004>
    4fdc: f0 03        	beq	$4fe1 <navi+0x29b>
    4fde: 4c 3b 6f     	jmp	$6f3b <donehypchdir18+0x22c>
    4fe1: 64 16        	stz	$16                     ; 0x2016 <next_line+0x1>
    4fe3: a9 00        	lda	#$0
    4fe5: a0 10        	ldy	#$10
    4fe7: 91 02        	sta	($2),y                  ; 0x2002 <__heap_default_limit+0x1002>
    4fe9: 9c 80 d0     	stz	$d080                   ; 0xd080 <__heap_start+0x4104>
    4fec: 64 2d        	stz	$2d                     ; 0x202d <_start+0xc>
    4fee: a2 30        	ldx	#$30
    4ff0: 86 18        	stx	$18                     ; 0x2018 <next_line+0x3>
    4ff2: a2 8e        	ldx	#$8e
    4ff4: 86 19        	stx	$19                     ; 0x2019 <next_line+0x4>
    4ff6: 64 16        	stz	$16                     ; 0x2016 <next_line+0x1>
    4ff8: 64 04        	stz	$4                      ; 0x2004 <__heap_default_limit+0x1004>
    4ffa: a9 00        	lda	#$0
    4ffc: a0 1d        	ldy	#$1d
    4ffe: 91 02        	sta	($2),y                  ; 0x2002 <__heap_default_limit+0x1002>
    5000: a0 1b        	ldy	#$1b
    5002: 91 02        	sta	($2),y                  ; 0x2002 <__heap_default_limit+0x1002>
    5004: 64 1e        	stz	$1e                     ; 0x201e <next_line+0x9>
    5006: 64 1a        	stz	$1a                     ; 0x201a <next_line+0x5>
    5008: a5 1a        	lda	$1a                     ; 0x201a <next_line+0x5>
    500a: d0 09        	bne	$5015 <navi+0x2cf>
    500c: a6 1e        	ldx	$1e                     ; 0x201e <next_line+0x9>
    500e: e0 02        	cpx	#$2
    5010: d0 03        	bne	$5015 <navi+0x2cf>
    5012: 4c f5 54     	jmp	$54f5 <navi+0x7af>
    5015: a5 16        	lda	$16                     ; 0x2016 <next_line+0x1>
    5017: a0 17        	ldy	#$17
    5019: 91 02        	sta	($2),y                  ; 0x2002 <__heap_default_limit+0x1002>
    501b: a0 1b        	ldy	#$1b
    501d: b1 02        	lda	($2),y                  ; 0x2002 <__heap_default_limit+0x1002>
    501f: aa           	tax
    5020: b4 27        	ldy	$27,x                   ; 0x2027 <_start+0x6>
    5022: b5 28        	lda	$28,x                   ; 0x2028 <_start+0x7>
    5024: aa           	tax
    5025: 98           	tya
    5026: 5a           	phy
    5027: a0 19        	ldy	#$19
    5029: 91 02        	sta	($2),y                  ; 0x2002 <__heap_default_limit+0x1002>
    502b: 7a           	ply
    502c: 84 1c        	sty	$1c                     ; 0x201c <next_line+0x7>
    502e: 8a           	txa
    502f: a0 1a        	ldy	#$1a
    5031: 91 02        	sta	($2),y                  ; 0x2002 <__heap_default_limit+0x1002>
    5033: 86 1d        	stx	$1d                     ; 0x201d <next_line+0x8>
    5035: a0 02        	ldy	#$2
    5037: b1 1c        	lda	($1c),y                 ; 0x201c <next_line+0x7>
    5039: 88           	dey
    503a: d1 1c        	cmp	($1c),y                 ; 0x201c <next_line+0x7>
    503c: 90 06        	bcc	$5044 <navi+0x2fe>
    503e: c9 ff        	cmp	#$ff
    5040: d0 04        	bne	$5046 <navi+0x300>
    5042: a9 00        	lda	#$0
    5044: 91 1c        	sta	($1c),y                 ; 0x201c <next_line+0x7>
    5046: a5 1e        	lda	$1e                     ; 0x201e <next_line+0x9>
    5048: 0a           	asl
    5049: 0a           	asl
    504a: 0a           	asl
    504b: 85 04        	sta	$4                      ; 0x2004 <__heap_default_limit+0x1004>
    504d: 0a           	asl
    504e: 0a           	asl
    504f: 18           	clc
    5050: 65 04        	adc	$4                      ; 0x2004 <__heap_default_limit+0x1004>
    5052: 85 16        	sta	$16                     ; 0x2016 <next_line+0x1>
    5054: 18           	clc
    5055: 69 27        	adc	#$27
    5057: 85 04        	sta	$4                      ; 0x2004 <__heap_default_limit+0x1004>
    5059: a2 17        	ldx	#$17
    505b: 86 05        	stx	$5                      ; 0x2005 <__heap_default_limit+0x1005>
    505d: 64 06        	stz	$6                      ; 0x2006 <__heap_default_limit+0x1006>
    505f: a2 00        	ldx	#$0
    5061: a5 16        	lda	$16                     ; 0x2016 <next_line+0x1>
    5063: 20 2a 3b     	jsr	$3b2a <mcbox>
    5066: a9 20        	lda	#$20
    5068: 05 2b        	ora	$2b                     ; 0x202b <_start+0xa>
    506a: 85 2b        	sta	$2b                     ; 0x202b <_start+0xa>
    506c: a6 16        	ldx	$16                     ; 0x2016 <next_line+0x1>
    506e: 86 17        	stx	$17                     ; 0x2017 <next_line+0x2>
    5070: a5 16        	lda	$16                     ; 0x2016 <next_line+0x1>
    5072: 09 02        	ora	#$2
    5074: a2 c7        	ldx	#$c7
    5076: 86 04        	stx	$4                      ; 0x2004 <__heap_default_limit+0x1004>
    5078: a2 83        	ldx	#$83
    507a: 86 05        	stx	$5                      ; 0x2005 <__heap_default_limit+0x1005>
    507c: a2 00        	ldx	#$0
    507e: 85 16        	sta	$16                     ; 0x2016 <next_line+0x1>
    5080: 20 14 3b     	jsr	$3b14 <mcputsxy>
    5083: a0 1d        	ldy	#$1d
    5085: b1 02        	lda	($2),y                  ; 0x2002 <__heap_default_limit+0x1002>
    5087: 85 04        	sta	$4                      ; 0x2004 <__heap_default_limit+0x1004>
    5089: a9 10        	lda	#$10
    508b: 18           	clc
    508c: 65 04        	adc	$4                      ; 0x2004 <__heap_default_limit+0x1004>
    508e: 85 04        	sta	$4                      ; 0x2004 <__heap_default_limit+0x1004>
    5090: a9 8f        	lda	#$8f
    5092: 69 00        	adc	#$0
    5094: 85 05        	sta	$5                      ; 0x2005 <__heap_default_limit+0x1005>
    5096: 20 db 3a     	jsr	$3adb <msprintf>
    5099: a9 20        	lda	#$20
    509b: 20 61 79     	jsr	$7961 <cputc>
    509e: a9 01        	lda	#$1
    50a0: a0 46        	ldy	#$46
    50a2: 31 1c        	and	($1c),y                 ; 0x201c <next_line+0x7>
    50a4: f0 29        	beq	$50cf <navi+0x389>
    50a6: a5 32        	lda	$32                     ; 0x2032 <__do_init_stack+0x3>
    50a8: 1a           	inc
    50a9: a2 c7        	ldx	#$c7
    50ab: 86 04        	stx	$4                      ; 0x2004 <__heap_default_limit+0x1004>
    50ad: a2 83        	ldx	#$83
    50af: 86 05        	stx	$5                      ; 0x2005 <__heap_default_limit+0x1005>
    50b1: a2 00        	ldx	#$0
    50b3: 20 14 3b     	jsr	$3b14 <mcputsxy>
    50b6: a0 19        	ldy	#$19
    50b8: b1 02        	lda	($2),y                  ; 0x2002 <__heap_default_limit+0x1002>
    50ba: 18           	clc
    50bb: 69 03        	adc	#$3
    50bd: aa           	tax
    50be: c8           	iny
    50bf: b1 02        	lda	($2),y                  ; 0x2002 <__heap_default_limit+0x1002>
    50c1: 69 00        	adc	#$0
    50c3: 86 04        	stx	$4                      ; 0x2004 <__heap_default_limit+0x1004>
    50c5: 85 05        	sta	$5                      ; 0x2005 <__heap_default_limit+0x1005>
    50c7: 20 db 3a     	jsr	$3adb <msprintf>
    50ca: a9 20        	lda	#$20
    50cc: 20 61 79     	jsr	$7961 <cputc>
    50cf: a2 c9        	ldx	#$c9
    50d1: 86 04        	stx	$4                      ; 0x2004 <__heap_default_limit+0x1004>
    50d3: a2 88        	ldx	#$88
    50d5: 86 05        	stx	$5                      ; 0x2005 <__heap_default_limit+0x1005>
    50d7: a2 17        	ldx	#$17
    50d9: a5 16        	lda	$16                     ; 0x2016 <next_line+0x1>
    50db: 20 14 3b     	jsr	$3b14 <mcputsxy>
    50de: b2 1c        	lda	($1c),z                 ; 0x201c <next_line+0x7>
    50e0: 64 04        	stz	$4                      ; 0x2004 <__heap_default_limit+0x1004>
    50e2: 64 05        	stz	$5                      ; 0x2005 <__heap_default_limit+0x1005>
    50e4: 64 06        	stz	$6                      ; 0x2006 <__heap_default_limit+0x1006>
    50e6: a2 00        	ldx	#$0
    50e8: 20 66 39     	jsr	$3966 <csputdec>
    50eb: a9 20        	lda	#$20
    50ed: 20 61 79     	jsr	$7961 <cputc>
    50f0: a0 02        	ldy	#$2
    50f2: b1 1c        	lda	($1c),y                 ; 0x201c <next_line+0x7>
    50f4: c9 ff        	cmp	#$ff
    50f6: d0 03        	bne	$50fb <navi+0x3b5>
    50f8: 4c 89 53     	jmp	$5389 <navi+0x643>
    50fb: a0 12        	ldy	#$12
    50fd: 91 02        	sta	($2),y                  ; 0x2002 <__heap_default_limit+0x1002>
    50ff: a5 1a        	lda	$1a                     ; 0x201a <next_line+0x5>
    5101: a0 15        	ldy	#$15
    5103: 91 02        	sta	($2),y                  ; 0x2002 <__heap_default_limit+0x1002>
    5105: a0 01        	ldy	#$1
    5107: b1 1c        	lda	($1c),y                 ; 0x201c <next_line+0x7>
    5109: a0 13        	ldy	#$13
    510b: 91 02        	sta	($2),y                  ; 0x2002 <__heap_default_limit+0x1002>
    510d: c9 15        	cmp	#$15
    510f: 64 16        	stz	$16                     ; 0x2016 <next_line+0x1>
    5111: 64 1f        	stz	$1f                     ; 0x201f <next_line+0xa>
    5113: a2 00        	ldx	#$0
    5115: 90 0a        	bcc	$5121 <navi+0x3db>
    5117: 18           	clc
    5118: 69 eb        	adc	#$eb
    511a: 85 1f        	sta	$1f                     ; 0x201f <next_line+0xa>
    511c: a9 00        	lda	#$0
    511e: 69 ff        	adc	#$ff
    5120: aa           	tax
    5121: a5 1f        	lda	$1f                     ; 0x201f <next_line+0xa>
    5123: 18           	clc
    5124: 65 18        	adc	$18                     ; 0x2018 <next_line+0x3>
    5126: 85 20        	sta	$20                     ; 0x2020 <next_line+0xb>
    5128: 8a           	txa
    5129: a0 14        	ldy	#$14
    512b: 91 02        	sta	($2),y                  ; 0x2002 <__heap_default_limit+0x1002>
    512d: 65 19        	adc	$19                     ; 0x2019 <next_line+0x4>
    512f: 85 21        	sta	$21                     ; 0x2021 <_start>
    5131: a5 17        	lda	$17                     ; 0x2017 <next_line+0x2>
    5133: 09 01        	ora	#$1
    5135: a0 11        	ldy	#$11
    5137: 91 02        	sta	($2),y                  ; 0x2002 <__heap_default_limit+0x1002>
    5139: a6 16        	ldx	$16                     ; 0x2016 <next_line+0x1>
    513b: e0 16        	cpx	#$16
    513d: d0 03        	bne	$5142 <navi+0x3fc>
    513f: 4c 7b 53     	jmp	$537b <navi+0x635>
    5142: a5 1f        	lda	$1f                     ; 0x201f <next_line+0xa>
    5144: 18           	clc
    5145: 65 16        	adc	$16                     ; 0x2016 <next_line+0x1>
    5147: a2 01        	ldx	#$1
    5149: b0 02        	bcs	$514d <navi+0x407>
    514b: a2 00        	ldx	#$0
    514d: 86 18        	stx	$18                     ; 0x2018 <next_line+0x3>
    514f: 85 19        	sta	$19                     ; 0x2019 <next_line+0x4>
    5151: aa           	tax
    5152: a5 1e        	lda	$1e                     ; 0x201e <next_line+0x9>
    5154: 20 a2 31     	jsr	$31a2 <getdirententry>
    5157: a6 04        	ldx	$4                      ; 0x2004 <__heap_default_limit+0x1004>
    5159: 86 1a        	stx	$1a                     ; 0x201a <next_line+0x5>
    515b: a6 05        	ldx	$5                      ; 0x2005 <__heap_default_limit+0x1005>
    515d: 86 1b        	stx	$1b                     ; 0x201b <next_line+0x6>
    515f: a6 1b        	ldx	$1b                     ; 0x201b <next_line+0x6>
    5161: a0 00        	ldy	#$0
    5163: 84 04        	sty	$4                      ; 0x2004 <__heap_default_limit+0x1004>
    5165: a0 00        	ldy	#$0
    5167: 84 05        	sty	$5                      ; 0x2005 <__heap_default_limit+0x1005>
    5169: e4 05        	cpx	$5                      ; 0x2005 <__heap_default_limit+0x1005>
    516b: d0 09        	bne	$5176 <navi+0x430>
    516d: a6 1a        	ldx	$1a                     ; 0x201a <next_line+0x5>
    516f: e4 04        	cpx	$4                      ; 0x2004 <__heap_default_limit+0x1004>
    5171: d0 03        	bne	$5176 <navi+0x430>
    5173: 4c 7b 53     	jmp	$537b <navi+0x635>
    5176: a0 14        	ldy	#$14
    5178: b1 02        	lda	($2),y                  ; 0x2002 <__heap_default_limit+0x1002>
    517a: a6 18        	ldx	$18                     ; 0x2018 <next_line+0x3>
    517c: e0 01        	cpx	#$1
    517e: 69 00        	adc	#$0
    5180: 85 18        	sta	$18                     ; 0x2018 <next_line+0x3>
    5182: a2 00        	ldx	#$0
    5184: e4 18        	cpx	$18                     ; 0x2018 <next_line+0x3>
    5186: d0 0b        	bne	$5193 <navi+0x44d>
    5188: a0 12        	ldy	#$12
    518a: b1 02        	lda	($2),y                  ; 0x2002 <__heap_default_limit+0x1002>
    518c: c5 19        	cmp	$19                     ; 0x2019 <next_line+0x4>
    518e: b0 0a        	bcs	$519a <navi+0x454>
    5190: 4c 7b 53     	jmp	$537b <navi+0x635>
    5193: e4 18        	cpx	$18                     ; 0x2018 <next_line+0x3>
    5195: b0 03        	bcs	$519a <navi+0x454>
    5197: 4c 7b 53     	jmp	$537b <navi+0x635>
    519a: a5 18        	lda	$18                     ; 0x2018 <next_line+0x3>
    519c: d0 0f        	bne	$51ad <navi+0x467>
    519e: a0 13        	ldy	#$13
    51a0: b1 02        	lda	($2),y                  ; 0x2002 <__heap_default_limit+0x1002>
    51a2: 85 04        	sta	$4                      ; 0x2004 <__heap_default_limit+0x1004>
    51a4: a6 19        	ldx	$19                     ; 0x2019 <next_line+0x4>
    51a6: e4 04        	cpx	$4                      ; 0x2004 <__heap_default_limit+0x1004>
    51a8: d0 03        	bne	$51ad <navi+0x467>
    51aa: 4c 9d 54     	jmp	$549d <navi+0x757>
    51ad: a9 01        	lda	#$1
    51af: 29 01        	and	#$1
    51b1: a2 20        	ldx	#$20
    51b3: a8           	tay
    51b4: d0 02        	bne	$51b8 <navi+0x472>
    51b6: a2 3e        	ldx	#$3e
    51b8: 8e e0 8d     	stx	$8de0                   ; 0x8de0 <s>
    51bb: a2 20        	ldx	#$20
    51bd: 8e e1 8d     	stx	$8de1                   ; 0x8de1 <s+0x1>
    51c0: a0 00        	ldy	#$0
    51c2: 80 04        	bra	$51c8 <navi+0x482>
    51c4: 99 e2 8d     	sta	$8de2,y                 ; 0x8de2 <s+0x2>
    51c7: c8           	iny
    51c8: 84 06        	sty	$6                      ; 0x2006 <__heap_default_limit+0x1006>
    51ca: 98           	tya
    51cb: 18           	clc
    51cc: 65 1a        	adc	$1a                     ; 0x201a <next_line+0x5>
    51ce: 85 04        	sta	$4                      ; 0x2004 <__heap_default_limit+0x1004>
    51d0: a5 1b        	lda	$1b                     ; 0x201b <next_line+0x6>
    51d2: 69 00        	adc	#$0
    51d4: 85 05        	sta	$5                      ; 0x2005 <__heap_default_limit+0x1005>
    51d6: a0 05        	ldy	#$5
    51d8: b1 04        	lda	($4),y                  ; 0x2004 <__heap_default_limit+0x1004>
    51da: c9 a0        	cmp	#$a0
    51dc: f0 0f        	beq	$51ed <navi+0x4a7>
    51de: aa           	tax
    51df: f0 0c        	beq	$51ed <navi+0x4a7>
    51e1: a4 06        	ldy	$6                      ; 0x2006 <__heap_default_limit+0x1006>
    51e3: c0 10        	cpy	#$10
    51e5: d0 dd        	bne	$51c4 <navi+0x47e>
    51e7: a2 10        	ldx	#$10
    51e9: a9 12        	lda	#$12
    51eb: 80 07        	bra	$51f4 <navi+0x4ae>
    51ed: a6 06        	ldx	$6                      ; 0x2006 <__heap_default_limit+0x1006>
    51ef: a5 06        	lda	$6                      ; 0x2006 <__heap_default_limit+0x1006>
    51f1: 18           	clc
    51f2: 69 02        	adc	#$2
    51f4: a8           	tay
    51f5: 18           	clc
    51f6: 69 10        	adc	#$10
    51f8: 86 04        	stx	$4                      ; 0x2004 <__heap_default_limit+0x1004>
    51fa: 38           	sec
    51fb: e5 04        	sbc	$4                      ; 0x2004 <__heap_default_limit+0x1004>
    51fd: 85 05        	sta	$5                      ; 0x2005 <__heap_default_limit+0x1005>
    51ff: 18           	clc
    5200: 8a           	txa
    5201: 69 f0        	adc	#$f0
    5203: 85 04        	sta	$4                      ; 0x2004 <__heap_default_limit+0x1004>
    5205: 5a           	phy
    5206: fa           	plx
    5207: a5 05        	lda	$5                      ; 0x2005 <__heap_default_limit+0x1005>
    5209: 80 0c        	bra	$5217 <navi+0x4d1>
    520b: c8           	iny
    520c: a9 20        	lda	#$20
    520e: 9d e0 8d     	sta	$8de0,x                 ; 0x8de0 <s>
    5211: a5 05        	lda	$5                      ; 0x2005 <__heap_default_limit+0x1005>
    5213: e6 04        	inc	$4                      ; 0x2004 <__heap_default_limit+0x1004>
    5215: 5a           	phy
    5216: fa           	plx
    5217: e6 04        	inc	$4                      ; 0x2004 <__heap_default_limit+0x1004>
    5219: c6 04        	dec	$4                      ; 0x2004 <__heap_default_limit+0x1004>
    521b: d0 ee        	bne	$520b <navi+0x4c5>
    521d: aa           	tax
    521e: e8           	inx
    521f: a8           	tay
    5220: 85 04        	sta	$4                      ; 0x2004 <__heap_default_limit+0x1004>
    5222: a9 20        	lda	#$20
    5224: 99 e0 8d     	sta	$8de0,y                 ; 0x8de0 <s>
    5227: a5 04        	lda	$4                      ; 0x2004 <__heap_default_limit+0x1004>
    5229: 18           	clc
    522a: 69 02        	adc	#$2
    522c: a8           	tay
    522d: a9 5d        	lda	#$5d
    522f: 9d e0 8d     	sta	$8de0,x                 ; 0x8de0 <s>
    5232: a5 04        	lda	$4                      ; 0x2004 <__heap_default_limit+0x1004>
    5234: 18           	clc
    5235: 69 03        	adc	#$3
    5237: 85 06        	sta	$6                      ; 0x2006 <__heap_default_limit+0x1006>
    5239: a9 20        	lda	#$20
    523b: 99 e0 8d     	sta	$8de0,y                 ; 0x8de0 <s>
    523e: a0 02        	ldy	#$2
    5240: b1 1a        	lda	($1a),y                 ; 0x201a <next_line+0x5>
    5242: aa           	tax
    5243: 29 40        	and	#$40
    5245: d0 2b        	bne	$5272 <navi+0x52c>
    5247: 8a           	txa
    5248: 29 0f        	and	#$f
    524a: 85 07        	sta	$7                      ; 0x2007 <__heap_default_limit+0x1007>
    524c: a5 04        	lda	$4                      ; 0x2004 <__heap_default_limit+0x1004>
    524e: 18           	clc
    524f: 69 04        	adc	#$4
    5251: a8           	tay
    5252: a5 04        	lda	$4                      ; 0x2004 <__heap_default_limit+0x1004>
    5254: 18           	clc
    5255: 69 05        	adc	#$5
    5257: 85 04        	sta	$4                      ; 0x2004 <__heap_default_limit+0x1004>
    5259: a2 00        	ldx	#$0
    525b: a9 ff        	lda	#$ff
    525d: c6 07        	dec	$7                      ; 0x2007 <__heap_default_limit+0x1007>
    525f: c5 07        	cmp	$7                      ; 0x2007 <__heap_default_limit+0x1007>
    5261: d0 03        	bne	$5266 <navi+0x520>
    5263: 4c a2 54     	jmp	$54a2 <navi+0x75c>
    5266: a5 07        	lda	$7                      ; 0x2007 <__heap_default_limit+0x1007>
    5268: e0 00        	cpx	#$0
    526a: f0 03        	beq	$526f <navi+0x529>
    526c: 4c af 54     	jmp	$54af <navi+0x769>
    526f: 4c a6 54     	jmp	$54a6 <navi+0x760>
    5272: 8a           	txa
    5273: 29 bf        	and	#$bf
    5275: a8           	tay
    5276: a5 04        	lda	$4                      ; 0x2004 <__heap_default_limit+0x1004>
    5278: 18           	clc
    5279: 69 04        	adc	#$4
    527b: 85 07        	sta	$7                      ; 0x2007 <__heap_default_limit+0x1007>
    527d: a5 04        	lda	$4                      ; 0x2004 <__heap_default_limit+0x1004>
    527f: 18           	clc
    5280: 69 05        	adc	#$5
    5282: aa           	tax
    5283: c0 10        	cpy	#$10
    5285: f0 03        	beq	$528a <navi+0x544>
    5287: 4c cb 54     	jmp	$54cb <navi+0x785>
    528a: 4c b8 54     	jmp	$54b8 <navi+0x772>
    528d: a6 06        	ldx	$6                      ; 0x2006 <__heap_default_limit+0x1006>
    528f: 9d e0 8d     	sta	$8de0,x                 ; 0x8de0 <s>
    5292: a9 45        	lda	#$45
    5294: 99 e0 8d     	sta	$8de0,y                 ; 0x8de0 <s>
    5297: a9 4c        	lda	#$4c
    5299: a6 04        	ldx	$4                      ; 0x2004 <__heap_default_limit+0x1004>
    529b: 9d e0 8d     	sta	$8de0,x                 ; 0x8de0 <s>
    529e: a5 05        	lda	$5                      ; 0x2005 <__heap_default_limit+0x1005>
    52a0: 18           	clc
    52a1: 69 06        	adc	#$6
    52a3: aa           	tax
    52a4: a5 05        	lda	$5                      ; 0x2005 <__heap_default_limit+0x1005>
    52a6: 18           	clc
    52a7: 69 07        	adc	#$7
    52a9: a8           	tay
    52aa: a9 20        	lda	#$20
    52ac: 9d e0 8d     	sta	$8de0,x                 ; 0x8de0 <s>
    52af: a5 05        	lda	$5                      ; 0x2005 <__heap_default_limit+0x1005>
    52b1: 18           	clc
    52b2: 69 08        	adc	#$8
    52b4: aa           	tax
    52b5: a9 5d        	lda	#$5d
    52b7: 99 e0 8d     	sta	$8de0,y                 ; 0x8de0 <s>
    52ba: 18           	clc
    52bb: a5 05        	lda	$5                      ; 0x2005 <__heap_default_limit+0x1005>
    52bd: 69 09        	adc	#$9
    52bf: a8           	tay
    52c0: a9 20        	lda	#$20
    52c2: 9d e0 8d     	sta	$8de0,x                 ; 0x8de0 <s>
    52c5: 5a           	phy
    52c6: fa           	plx
    52c7: 9e e0 8d     	stz	$8de0,x                 ; 0x8de0 <s>
    52ca: a2 07        	ldx	#$7
    52cc: 86 04        	stx	$4                      ; 0x2004 <__heap_default_limit+0x1004>
    52ce: a9 01        	lda	#$1
    52d0: a4 16        	ldy	$16                     ; 0x2016 <next_line+0x1>
    52d2: 31 20        	and	($20),y                 ; 0x2020 <next_line+0xb>
    52d4: 29 01        	and	#$1
    52d6: d0 0d        	bne	$52e5 <navi+0x59f>
    52d8: a0 02        	ldy	#$2
    52da: b1 1a        	lda	($1a),y                 ; 0x201a <next_line+0x5>
    52dc: d0 03        	bne	$52e1 <navi+0x59b>
    52de: 4c f0 54     	jmp	$54f0 <navi+0x7aa>
    52e1: a2 03        	ldx	#$3
    52e3: 86 04        	stx	$4                      ; 0x2004 <__heap_default_limit+0x1004>
    52e5: a9 f0        	lda	#$f0
    52e7: 25 2b        	and	$2b                     ; 0x202b <_start+0xa>
    52e9: 05 04        	ora	$4                      ; 0x2004 <__heap_default_limit+0x1004>
    52eb: a6 18        	ldx	$18                     ; 0x2018 <next_line+0x3>
    52ed: d0 11        	bne	$5300 <navi+0x5ba>
    52ef: 48           	pha
    52f0: a0 13        	ldy	#$13
    52f2: b1 02        	lda	($2),y                  ; 0x2002 <__heap_default_limit+0x1002>
    52f4: 85 04        	sta	$4                      ; 0x2004 <__heap_default_limit+0x1004>
    52f6: 68           	pla
    52f7: a6 19        	ldx	$19                     ; 0x2019 <next_line+0x4>
    52f9: e4 04        	cpx	$4                      ; 0x2004 <__heap_default_limit+0x1004>
    52fb: d0 03        	bne	$5300 <navi+0x5ba>
    52fd: 4c da 54     	jmp	$54da <navi+0x794>
    5300: 29 df        	and	#$df
    5302: 85 2b        	sta	$2b                     ; 0x202b <_start+0xa>
    5304: a6 16        	ldx	$16                     ; 0x2016 <next_line+0x1>
    5306: e8           	inx
    5307: a0 e0        	ldy	#$e0
    5309: 84 04        	sty	$4                      ; 0x2004 <__heap_default_limit+0x1004>
    530b: a0 8d        	ldy	#$8d
    530d: 84 05        	sty	$5                      ; 0x2005 <__heap_default_limit+0x1005>
    530f: 86 16        	stx	$16                     ; 0x2016 <next_line+0x1>
    5311: a0 11        	ldy	#$11
    5313: b1 02        	lda	($2),y                  ; 0x2002 <__heap_default_limit+0x1002>
    5315: 20 12 7a     	jsr	$7a12 <cputsxy>
    5318: a5 1a        	lda	$1a                     ; 0x201a <next_line+0x5>
    531a: 18           	clc
    531b: 69 1e        	adc	#$1e
    531d: 85 04        	sta	$4                      ; 0x2004 <__heap_default_limit+0x1004>
    531f: a5 1b        	lda	$1b                     ; 0x201b <next_line+0x6>
    5321: 69 00        	adc	#$0
    5323: 85 05        	sta	$5                      ; 0x2005 <__heap_default_limit+0x1005>
    5325: a0 1e        	ldy	#$1e
    5327: b1 1a        	lda	($1a),y                 ; 0x201a <next_line+0x5>
    5329: 85 06        	sta	$6                      ; 0x2006 <__heap_default_limit+0x1006>
    532b: a0 01        	ldy	#$1
    532d: b1 04        	lda	($4),y                  ; 0x2004 <__heap_default_limit+0x1004>
    532f: d0 07        	bne	$5338 <navi+0x5f2>
    5331: a6 06        	ldx	$6                      ; 0x2006 <__heap_default_limit+0x1006>
    5333: d0 03        	bne	$5338 <navi+0x5f2>
    5335: 4c d8 57     	jmp	$57d8 <navi+0xa92>
    5338: a4 06        	ldy	$6                      ; 0x2006 <__heap_default_limit+0x1006>
    533a: 64 04        	stz	$4                      ; 0x2004 <__heap_default_limit+0x1004>
    533c: 64 05        	stz	$5                      ; 0x2005 <__heap_default_limit+0x1005>
    533e: a2 05        	ldx	#$5
    5340: 86 06        	stx	$6                      ; 0x2006 <__heap_default_limit+0x1006>
    5342: aa           	tax
    5343: 98           	tya
    5344: 20 66 39     	jsr	$3966 <csputdec>
    5347: a5 18        	lda	$18                     ; 0x2018 <next_line+0x3>
    5349: d0 0f        	bne	$535a <navi+0x614>
    534b: a0 13        	ldy	#$13
    534d: b1 02        	lda	($2),y                  ; 0x2002 <__heap_default_limit+0x1002>
    534f: 85 04        	sta	$4                      ; 0x2004 <__heap_default_limit+0x1004>
    5351: a6 19        	ldx	$19                     ; 0x2019 <next_line+0x4>
    5353: e4 04        	cpx	$4                      ; 0x2004 <__heap_default_limit+0x1004>
    5355: d0 03        	bne	$535a <navi+0x614>
    5357: 4c eb 54     	jmp	$54eb <navi+0x7a5>
    535a: a9 01        	lda	#$1
    535c: 29 01        	and	#$1
    535e: 85 18        	sta	$18                     ; 0x2018 <next_line+0x3>
    5360: a9 20        	lda	#$20
    5362: 20 61 79     	jsr	$7961 <cputc>
    5365: a9 20        	lda	#$20
    5367: a6 18        	ldx	$18                     ; 0x2018 <next_line+0x3>
    5369: d0 02        	bne	$536d <navi+0x627>
    536b: a9 3c        	lda	#$3c
    536d: 20 61 79     	jsr	$7961 <cputc>
    5370: a9 f0        	lda	#$f0
    5372: 25 2b        	and	$2b                     ; 0x202b <_start+0xa>
    5374: 09 03        	ora	#$3
    5376: 85 2b        	sta	$2b                     ; 0x202b <_start+0xa>
    5378: 4c 39 51     	jmp	$5139 <navi+0x3f3>
    537b: a9 df        	lda	#$df
    537d: 25 2b        	and	$2b                     ; 0x202b <_start+0xa>
    537f: 85 2b        	sta	$2b                     ; 0x202b <_start+0xa>
    5381: a0 15        	ldy	#$15
    5383: b1 02        	lda	($2),y                  ; 0x2002 <__heap_default_limit+0x1002>
    5385: 85 1a        	sta	$1a                     ; 0x201a <next_line+0x5>
    5387: 80 12        	bra	$539b <navi+0x655>
    5389: a5 17        	lda	$17                     ; 0x2017 <next_line+0x2>
    538b: 18           	clc
    538c: 69 11        	adc	#$11
    538e: a2 7a        	ldx	#$7a
    5390: 86 04        	stx	$4                      ; 0x2004 <__heap_default_limit+0x1004>
    5392: a2 83        	ldx	#$83
    5394: 86 05        	stx	$5                      ; 0x2005 <__heap_default_limit+0x1005>
    5396: a2 03        	ldx	#$3
    5398: 20 14 3b     	jsr	$3b14 <mcputsxy>
    539b: 18           	clc
    539c: a0 19        	ldy	#$19
    539e: b1 02        	lda	($2),y                  ; 0x2002 <__heap_default_limit+0x1002>
    53a0: 69 44        	adc	#$44
    53a2: aa           	tax
    53a3: c8           	iny
    53a4: b1 02        	lda	($2),y                  ; 0x2002 <__heap_default_limit+0x1002>
    53a6: 69 00        	adc	#$0
    53a8: 86 18        	stx	$18                     ; 0x2018 <next_line+0x3>
    53aa: 86 04        	stx	$4                      ; 0x2004 <__heap_default_limit+0x1004>
    53ac: 85 16        	sta	$16                     ; 0x2016 <next_line+0x1>
    53ae: 85 05        	sta	$5                      ; 0x2005 <__heap_default_limit+0x1005>
    53b0: a0 44        	ldy	#$44
    53b2: b1 1c        	lda	($1c),y                 ; 0x201c <next_line+0x7>
    53b4: aa           	tax
    53b5: a0 01        	ldy	#$1
    53b7: b1 04        	lda	($4),y                  ; 0x2004 <__heap_default_limit+0x1004>
    53b9: c9 ff        	cmp	#$ff
    53bb: d0 1b        	bne	$53d8 <navi+0x692>
    53bd: 86 04        	stx	$4                      ; 0x2004 <__heap_default_limit+0x1004>
    53bf: e0 ff        	cpx	#$ff
    53c1: d0 17        	bne	$53da <navi+0x694>
    53c3: 18           	clc
    53c4: a5 17        	lda	$17                     ; 0x2017 <next_line+0x2>
    53c6: 69 0c        	adc	#$c
    53c8: a2 e3        	ldx	#$e3
    53ca: 86 04        	stx	$4                      ; 0x2004 <__heap_default_limit+0x1004>
    53cc: a2 85        	ldx	#$85
    53ce: 86 05        	stx	$5                      ; 0x2005 <__heap_default_limit+0x1005>
    53d0: a2 17        	ldx	#$17
    53d2: 20 14 3b     	jsr	$3b14 <mcputsxy>
    53d5: 4c 5e 54     	jmp	$545e <navi+0x718>
    53d8: 86 04        	stx	$4                      ; 0x2004 <__heap_default_limit+0x1004>
    53da: aa           	tax
    53db: e0 ff        	cpx	#$ff
    53dd: f0 03        	beq	$53e2 <navi+0x69c>
    53df: 4c 23 54     	jmp	$5423 <navi+0x6dd>
    53e2: a6 04        	ldx	$4                      ; 0x2004 <__heap_default_limit+0x1004>
    53e4: e0 fe        	cpx	#$fe
    53e6: f0 03        	beq	$53eb <navi+0x6a5>
    53e8: 4c 23 54     	jmp	$5423 <navi+0x6dd>
    53eb: a9 e0        	lda	#$e0
    53ed: 25 2b        	and	$2b                     ; 0x202b <_start+0xa>
    53ef: 09 18        	ora	#$18
    53f1: 85 2b        	sta	$2b                     ; 0x202b <_start+0xa>
    53f3: 18           	clc
    53f4: a5 17        	lda	$17                     ; 0x2017 <next_line+0x2>
    53f6: 69 0c        	adc	#$c
    53f8: a2 e3        	ldx	#$e3
    53fa: 86 04        	stx	$4                      ; 0x2004 <__heap_default_limit+0x1004>
    53fc: a2 87        	ldx	#$87
    53fe: 86 05        	stx	$5                      ; 0x2005 <__heap_default_limit+0x1005>
    5400: a2 17        	ldx	#$17
    5402: 20 14 3b     	jsr	$3b14 <mcputsxy>
    5405: a9 ef        	lda	#$ef
    5407: 25 2b        	and	$2b                     ; 0x202b <_start+0xa>
    5409: 85 2b        	sta	$2b                     ; 0x202b <_start+0xa>
    540b: 20 f9 78     	jsr	$78f9 <sidbong>
    540e: a6 18        	ldx	$18                     ; 0x2018 <next_line+0x3>
    5410: 86 04        	stx	$4                      ; 0x2004 <__heap_default_limit+0x1004>
    5412: a6 16        	ldx	$16                     ; 0x2016 <next_line+0x1>
    5414: 86 05        	stx	$5                      ; 0x2005 <__heap_default_limit+0x1005>
    5416: a9 ff        	lda	#$ff
    5418: a0 44        	ldy	#$44
    541a: 91 1c        	sta	($1c),y                 ; 0x201c <next_line+0x7>
    541c: a0 01        	ldy	#$1
    541e: 91 04        	sta	($4),y                  ; 0x2004 <__heap_default_limit+0x1004>
    5420: 4c 5e 54     	jmp	$545e <navi+0x718>
    5423: 18           	clc
    5424: a5 17        	lda	$17                     ; 0x2017 <next_line+0x2>
    5426: 69 0c        	adc	#$c
    5428: a2 c7        	ldx	#$c7
    542a: 86 04        	stx	$4                      ; 0x2004 <__heap_default_limit+0x1004>
    542c: a2 83        	ldx	#$83
    542e: 86 05        	stx	$5                      ; 0x2005 <__heap_default_limit+0x1005>
    5430: a2 17        	ldx	#$17
    5432: 20 14 3b     	jsr	$3b14 <mcputsxy>
    5435: a6 18        	ldx	$18                     ; 0x2018 <next_line+0x3>
    5437: 86 04        	stx	$4                      ; 0x2004 <__heap_default_limit+0x1004>
    5439: a6 16        	ldx	$16                     ; 0x2016 <next_line+0x1>
    543b: 86 05        	stx	$5                      ; 0x2005 <__heap_default_limit+0x1005>
    543d: a0 44        	ldy	#$44
    543f: b1 1c        	lda	($1c),y                 ; 0x201c <next_line+0x7>
    5441: 85 07        	sta	$7                      ; 0x2007 <__heap_default_limit+0x1007>
    5443: a0 01        	ldy	#$1
    5445: b1 04        	lda	($4),y                  ; 0x2004 <__heap_default_limit+0x1004>
    5447: 64 04        	stz	$4                      ; 0x2004 <__heap_default_limit+0x1004>
    5449: 64 05        	stz	$5                      ; 0x2005 <__heap_default_limit+0x1005>
    544b: 64 06        	stz	$6                      ; 0x2006 <__heap_default_limit+0x1006>
    544d: aa           	tax
    544e: a5 07        	lda	$7                      ; 0x2007 <__heap_default_limit+0x1007>
    5450: 20 66 39     	jsr	$3966 <csputdec>
    5453: a2 2f        	ldx	#$2f
    5455: 86 04        	stx	$4                      ; 0x2004 <__heap_default_limit+0x1004>
    5457: a2 89        	ldx	#$89
    5459: 86 05        	stx	$5                      ; 0x2005 <__heap_default_limit+0x1005>
    545b: 20 db 3a     	jsr	$3adb <msprintf>
    545e: a0 17        	ldy	#$17
    5460: b1 02        	lda	($2),y                  ; 0x2002 <__heap_default_limit+0x1002>
    5462: 85 06        	sta	$6                      ; 0x2006 <__heap_default_limit+0x1006>
    5464: a9 df        	lda	#$df
    5466: 25 2b        	and	$2b                     ; 0x202b <_start+0xa>
    5468: 85 2b        	sta	$2b                     ; 0x202b <_start+0xa>
    546a: 18           	clc
    546b: a0 1b        	ldy	#$1b
    546d: b1 02        	lda	($2),y                  ; 0x2002 <__heap_default_limit+0x1002>
    546f: 69 02        	adc	#$2
    5471: 91 02        	sta	($2),y                  ; 0x2002 <__heap_default_limit+0x1002>
    5473: 18           	clc
    5474: a0 1d        	ldy	#$1d
    5476: b1 02        	lda	($2),y                  ; 0x2002 <__heap_default_limit+0x1002>
    5478: 69 11        	adc	#$11
    547a: 91 02        	sta	($2),y                  ; 0x2002 <__heap_default_limit+0x1002>
    547c: a6 06        	ldx	$6                      ; 0x2006 <__heap_default_limit+0x1006>
    547e: 86 04        	stx	$4                      ; 0x2004 <__heap_default_limit+0x1004>
    5480: a9 a0        	lda	#$a0
    5482: 18           	clc
    5483: 65 04        	adc	$4                      ; 0x2004 <__heap_default_limit+0x1004>
    5485: 85 18        	sta	$18                     ; 0x2018 <next_line+0x3>
    5487: a9 8e        	lda	#$8e
    5489: 69 00        	adc	#$0
    548b: 85 19        	sta	$19                     ; 0x2019 <next_line+0x4>
    548d: 18           	clc
    548e: a5 06        	lda	$6                      ; 0x2006 <__heap_default_limit+0x1006>
    5490: 69 70        	adc	#$70
    5492: e6 1e        	inc	$1e                     ; 0x201e <next_line+0x9>
    5494: d0 02        	bne	$5498 <navi+0x752>
    5496: e6 1a        	inc	$1a                     ; 0x201a <next_line+0x5>
    5498: 85 16        	sta	$16                     ; 0x2016 <next_line+0x1>
    549a: 4c 08 50     	jmp	$5008 <navi+0x2c2>
    549d: a9 00        	lda	#$0
    549f: 4c af 51     	jmp	$51af <navi+0x469>
    54a2: ca           	dex
    54a3: 4c 66 52     	jmp	$5266 <navi+0x520>
    54a6: c9 05        	cmp	#$5
    54a8: 90 09        	bcc	$54b3 <navi+0x76d>
    54aa: a9 44        	lda	#$44
    54ac: 4c 8d 52     	jmp	$528d <navi+0x547>
    54af: e0 00        	cpx	#$0
    54b1: b0 f7        	bcs	$54aa <navi+0x764>
    54b3: 0a           	asl
    54b4: aa           	tax
    54b5: 7c da 82     	jmp	($82da,x)               ; 0x82da <__zp_data_load_start+0x62c3>
    54b8: a9 44        	lda	#$44
    54ba: a4 06        	ldy	$6                      ; 0x2006 <__heap_default_limit+0x1006>
    54bc: 99 e0 8d     	sta	$8de0,y                 ; 0x8de0 <s>
    54bf: a9 49        	lda	#$49
    54c1: a4 07        	ldy	$7                      ; 0x2007 <__heap_default_limit+0x1007>
    54c3: 99 e0 8d     	sta	$8de0,y                 ; 0x8de0 <s>
    54c6: a9 52        	lda	#$52
    54c8: 4c 9b 52     	jmp	$529b <navi+0x555>
    54cb: a9 20        	lda	#$20
    54cd: a4 06        	ldy	$6                      ; 0x2006 <__heap_default_limit+0x1006>
    54cf: 99 e0 8d     	sta	$8de0,y                 ; 0x8de0 <s>
    54d2: a4 07        	ldy	$7                      ; 0x2007 <__heap_default_limit+0x1007>
    54d4: 99 e0 8d     	sta	$8de0,y                 ; 0x8de0 <s>
    54d7: 4c 9b 52     	jmp	$529b <navi+0x555>
    54da: 48           	pha
    54db: a0 15        	ldy	#$15
    54dd: b1 02        	lda	($2),y                  ; 0x2002 <__heap_default_limit+0x1002>
    54df: aa           	tax
    54e0: 68           	pla
    54e1: e0 00        	cpx	#$0
    54e3: f0 03        	beq	$54e8 <navi+0x7a2>
    54e5: 4c 00 53     	jmp	$5300 <navi+0x5ba>
    54e8: 4c e6 57     	jmp	$57e6 <navi+0xaa0>
    54eb: a9 00        	lda	#$0
    54ed: 4c 5c 53     	jmp	$535c <navi+0x616>
    54f0: a2 0c        	ldx	#$c
    54f2: 4c e3 52     	jmp	$52e3 <navi+0x59d>
    54f5: a9 00        	lda	#$0
    54f7: 48           	pha
    54f8: a0 10        	ldy	#$10
    54fa: b1 02        	lda	($2),y                  ; 0x2002 <__heap_default_limit+0x1002>
    54fc: 85 16        	sta	$16                     ; 0x2016 <next_line+0x1>
    54fe: 68           	pla
    54ff: a6 04        	ldx	$4                      ; 0x2004 <__heap_default_limit+0x1004>
    5501: 86 1b        	stx	$1b                     ; 0x201b <next_line+0x6>
    5503: a6 16        	ldx	$16                     ; 0x2016 <next_line+0x1>
    5505: 20 58 40     	jsr	$4058 <shortcuts>
    5508: a0 01        	ldy	#$1
    550a: ae 10 d6     	ldx	$d610                   ; 0xd610 <__heap_start+0x4694>
    550d: d0 0b        	bne	$551a <navi+0x7d4>
    550f: ad 11 d6     	lda	$d611                   ; 0xd611 <__heap_start+0x4695>
    5512: 85 04        	sta	$4                      ; 0x2004 <__heap_default_limit+0x1004>
    5514: c5 1b        	cmp	$1b                     ; 0x201b <next_line+0x6>
    5516: f0 f2        	beq	$550a <navi+0x7c4>
    5518: 80 e5        	bra	$54ff <navi+0x7b9>
    551a: 38           	sec
    551b: 86 1c        	stx	$1c                     ; 0x201c <next_line+0x7>
    551d: 8a           	txa
    551e: e9 f1        	sbc	#$f1
    5520: 85 09        	sta	$9                      ; 0x2009 <__heap_default_limit+0x1009>
    5522: a5 1b        	lda	$1b                     ; 0x201b <next_line+0x6>
    5524: a2 01        	ldx	#$1
    5526: b0 02        	bcs	$552a <navi+0x7e4>
    5528: a2 00        	ldx	#$0
    552a: 86 08        	stx	$8                      ; 0x2008 <__heap_default_limit+0x1008>
    552c: e9 00        	sbc	#$0
    552e: 48           	pha
    552f: 5a           	phy
    5530: a5 16        	lda	$16                     ; 0x2016 <next_line+0x1>
    5532: a0 10        	ldy	#$10
    5534: 91 02        	sta	($2),y                  ; 0x2002 <__heap_default_limit+0x1002>
    5536: a6 16        	ldx	$16                     ; 0x2016 <next_line+0x1>
    5538: 86 1a        	stx	$1a                     ; 0x201a <next_line+0x5>
    553a: 06 1a        	asl	$1a                     ; 0x201a <next_line+0x5>
    553c: 64 17        	stz	$17                     ; 0x2017 <next_line+0x2>
    553e: 26 17        	rol	$17                     ; 0x2017 <next_line+0x2>
    5540: a2 01        	ldx	#$1
    5542: b0 02        	bcs	$5546 <navi+0x800>
    5544: a2 00        	ldx	#$0
    5546: 86 19        	stx	$19                     ; 0x2019 <next_line+0x4>
    5548: a6 1a        	ldx	$1a                     ; 0x201a <next_line+0x5>
    554a: 86 1f        	stx	$1f                     ; 0x201f <next_line+0xa>
    554c: 06 1f        	asl	$1f                     ; 0x201f <next_line+0xa>
    554e: a6 17        	ldx	$17                     ; 0x2017 <next_line+0x2>
    5550: 86 1e        	stx	$1e                     ; 0x201e <next_line+0x9>
    5552: 26 1e        	rol	$1e                     ; 0x201e <next_line+0x9>
    5554: a2 01        	ldx	#$1
    5556: b0 02        	bcs	$555a <navi+0x814>
    5558: a2 00        	ldx	#$0
    555a: 86 1d        	stx	$1d                     ; 0x201d <next_line+0x8>
    555c: 06 1f        	asl	$1f                     ; 0x201f <next_line+0xa>
    555e: 26 1e        	rol	$1e                     ; 0x201e <next_line+0x9>
    5560: a2 01        	ldx	#$1
    5562: b0 02        	bcs	$5566 <navi+0x820>
    5564: a2 00        	ldx	#$0
    5566: 86 20        	stx	$20                     ; 0x2020 <next_line+0xb>
    5568: a6 1f        	ldx	$1f                     ; 0x201f <next_line+0xa>
    556a: 86 16        	stx	$16                     ; 0x2016 <next_line+0x1>
    556c: a6 1e        	ldx	$1e                     ; 0x201e <next_line+0x9>
    556e: 86 18        	stx	$18                     ; 0x2018 <next_line+0x3>
    5570: 06 1f        	asl	$1f                     ; 0x201f <next_line+0xa>
    5572: 26 1e        	rol	$1e                     ; 0x201e <next_line+0x9>
    5574: a6 1f        	ldx	$1f                     ; 0x201f <next_line+0xa>
    5576: 86 05        	stx	$5                      ; 0x2005 <__heap_default_limit+0x1005>
    5578: a6 1e        	ldx	$1e                     ; 0x201e <next_line+0x9>
    557a: 86 04        	stx	$4                      ; 0x2004 <__heap_default_limit+0x1004>
    557c: 06 05        	asl	$5                      ; 0x2005 <__heap_default_limit+0x1005>
    557e: 26 04        	rol	$4                      ; 0x2004 <__heap_default_limit+0x1004>
    5580: 06 05        	asl	$5                      ; 0x2005 <__heap_default_limit+0x1005>
    5582: 26 04        	rol	$4                      ; 0x2004 <__heap_default_limit+0x1004>
    5584: 06 05        	asl	$5                      ; 0x2005 <__heap_default_limit+0x1005>
    5586: a6 05        	ldx	$5                      ; 0x2005 <__heap_default_limit+0x1005>
    5588: 86 21        	stx	$21                     ; 0x2021 <_start>
    558a: 26 04        	rol	$4                      ; 0x2004 <__heap_default_limit+0x1004>
    558c: a5 04        	lda	$4                      ; 0x2004 <__heap_default_limit+0x1004>
    558e: a0 1d        	ldy	#$1d
    5590: 91 02        	sta	($2),y                  ; 0x2002 <__heap_default_limit+0x1002>
    5592: 7a           	ply
    5593: 68           	pla
    5594: 9c 10 d6     	stz	$d610                   ; 0xd610 <__heap_start+0x4694>
    5597: 9c 20 d0     	stz	$d020                   ; 0xd020 <__heap_start+0x40a4>
    559a: f0 03        	beq	$559f <navi+0x859>
    559c: 4c 4f 57     	jmp	$574f <navi+0xa09>
    559f: a5 09        	lda	$9                      ; 0x2009 <__heap_default_limit+0x1009>
    55a1: c9 19        	cmp	#$19
    55a3: 90 03        	bcc	$55a8 <navi+0x862>
    55a5: 4c 58 57     	jmp	$5758 <navi+0xa12>
    55a8: 0a           	asl
    55a9: aa           	tax
    55aa: 7c f0 82     	jmp	($82f0,x)               ; 0x82f0 <__zp_data_load_start+0x62d9>
    55ad: a2 00        	ldx	#$0
    55af: a9 14        	lda	#$14
    55b1: 20 58 40     	jsr	$4058 <shortcuts>
    55b4: 64 16        	stz	$16                     ; 0x2016 <next_line+0x1>
    55b6: 4c 00 56     	jmp	$5600 <navi+0x8ba>
    55b9: e6 16        	inc	$16                     ; 0x2016 <next_line+0x1>
    55bb: 4c 00 56     	jmp	$5600 <navi+0x8ba>
    55be: 20 f9 78     	jsr	$78f9 <sidbong>
    55c1: a2 a5        	ldx	#$a5
    55c3: 86 04        	stx	$4                      ; 0x2004 <__heap_default_limit+0x1004>
    55c5: a2 88        	ldx	#$88
    55c7: 86 05        	stx	$5                      ; 0x2005 <__heap_default_limit+0x1005>
    55c9: a2 ad        	ldx	#$ad
    55cb: 86 06        	stx	$6                      ; 0x2006 <__heap_default_limit+0x1006>
    55cd: a2 89        	ldx	#$89
    55cf: 86 07        	stx	$7                      ; 0x2007 <__heap_default_limit+0x1007>
    55d1: a2 7a        	ldx	#$7a
    55d3: 86 08        	stx	$8                      ; 0x2008 <__heap_default_limit+0x1008>
    55d5: a2 85        	ldx	#$85
    55d7: 86 09        	stx	$9                      ; 0x2009 <__heap_default_limit+0x1009>
    55d9: 64 0a        	stz	$a                      ; 0x200a <__heap_default_limit+0x100a>
    55db: 64 0b        	stz	$b                      ; 0x200b <__heap_default_limit+0x100b>
    55dd: 64 0c        	stz	$c                      ; 0x200c <__heap_default_limit+0x100c>
    55df: a2 00        	ldx	#$0
    55e1: a9 04        	lda	#$4
    55e3: 20 b5 3c     	jsr	$3cb5 <messagebox>
    55e6: 80 18        	bra	$5600 <navi+0x8ba>
    55e8: 64 16        	stz	$16                     ; 0x2016 <next_line+0x1>
    55ea: a5 18        	lda	$18                     ; 0x2018 <next_line+0x3>
    55ec: f0 12        	beq	$5600 <navi+0x8ba>
    55ee: a6 18        	ldx	$18                     ; 0x2018 <next_line+0x3>
    55f0: ca           	dex
    55f1: 86 16        	stx	$16                     ; 0x2016 <next_line+0x1>
    55f3: 80 0b        	bra	$5600 <navi+0x8ba>
    55f5: a6 16        	ldx	$16                     ; 0x2016 <next_line+0x1>
    55f7: a9 01        	lda	#$1
    55f9: 20 32 7e     	jsr	$7e32 <__ashlqi3>
    55fc: 45 2f        	eor	$2f                     ; 0x202f <__do_init_stack>
    55fe: 85 2f        	sta	$2f                     ; 0x202f <__do_init_stack>
    5600: a2 46        	ldx	#$46
    5602: 86 04        	stx	$4                      ; 0x2004 <__heap_default_limit+0x1004>
    5604: a2 14        	ldx	#$14
    5606: 86 05        	stx	$5                      ; 0x2005 <__heap_default_limit+0x1005>
    5608: a2 01        	ldx	#$1
    560a: 86 06        	stx	$6                      ; 0x2006 <__heap_default_limit+0x1006>
    560c: a2 04        	ldx	#$4
    560e: a9 0a        	lda	#$a
    5610: 20 2a 3b     	jsr	$3b2a <mcbox>
    5613: a9 20        	lda	#$20
    5615: 05 2b        	ora	$2b                     ; 0x202b <_start+0xa>
    5617: 85 2b        	sta	$2b                     ; 0x202b <_start+0xa>
    5619: a2 11        	ldx	#$11
    561b: 86 04        	stx	$4                      ; 0x2004 <__heap_default_limit+0x1004>
    561d: a2 84        	ldx	#$84
    561f: 86 05        	stx	$5                      ; 0x2005 <__heap_default_limit+0x1005>
    5621: a2 04        	ldx	#$4
    5623: a9 0e        	lda	#$e
    5625: 20 14 3b     	jsr	$3b14 <mcputsxy>
    5628: a2 10        	ldx	#$10
    562a: 86 04        	stx	$4                      ; 0x2004 <__heap_default_limit+0x1004>
    562c: a2 87        	ldx	#$87
    562e: 86 05        	stx	$5                      ; 0x2005 <__heap_default_limit+0x1005>
    5630: a2 04        	ldx	#$4
    5632: a9 1f        	lda	#$1f
    5634: 20 14 3b     	jsr	$3b14 <mcputsxy>
    5637: a2 16        	ldx	#$16
    5639: 86 04        	stx	$4                      ; 0x2004 <__heap_default_limit+0x1004>
    563b: a2 88        	ldx	#$88
    563d: 86 05        	stx	$5                      ; 0x2005 <__heap_default_limit+0x1005>
    563f: a2 04        	ldx	#$4
    5641: a9 28        	lda	#$28
    5643: 20 14 3b     	jsr	$3b14 <mcputsxy>
    5646: a9 df        	lda	#$df
    5648: 25 2b        	and	$2b                     ; 0x202b <_start+0xa>
    564a: 85 2b        	sta	$2b                     ; 0x202b <_start+0xa>
    564c: a2 18        	ldx	#$18
    564e: 86 04        	stx	$4                      ; 0x2004 <__heap_default_limit+0x1004>
    5650: a2 87        	ldx	#$87
    5652: 86 05        	stx	$5                      ; 0x2005 <__heap_default_limit+0x1005>
    5654: a2 10        	ldx	#$10
    5656: a9 17        	lda	#$17
    5658: 20 14 3b     	jsr	$3b14 <mcputsxy>
    565b: a9 20        	lda	#$20
    565d: 05 2b        	ora	$2b                     ; 0x202b <_start+0xa>
    565f: 85 2b        	sta	$2b                     ; 0x202b <_start+0xa>
    5661: a2 bd        	ldx	#$bd
    5663: 86 04        	stx	$4                      ; 0x2004 <__heap_default_limit+0x1004>
    5665: a2 86        	ldx	#$86
    5667: 86 05        	stx	$5                      ; 0x2005 <__heap_default_limit+0x1005>
    5669: a2 12        	ldx	#$12
    566b: a9 24        	lda	#$24
    566d: 20 14 3b     	jsr	$3b14 <mcputsxy>
    5670: a9 df        	lda	#$df
    5672: 25 2b        	and	$2b                     ; 0x202b <_start+0xa>
    5674: 85 2b        	sta	$2b                     ; 0x202b <_start+0xa>
    5676: a6 16        	ldx	$16                     ; 0x2016 <next_line+0x1>
    5678: e0 05        	cpx	#$5
    567a: 90 02        	bcc	$567e <navi+0x938>
    567c: a2 04        	ldx	#$4
    567e: a5 2f        	lda	$2f                     ; 0x202f <__do_init_stack>
    5680: a0 d4        	ldy	#$d4
    5682: 84 04        	sty	$4                      ; 0x2004 <__heap_default_limit+0x1004>
    5684: a0 85        	ldy	#$85
    5686: 84 05        	sty	$5                      ; 0x2005 <__heap_default_limit+0x1005>
    5688: 86 06        	stx	$6                      ; 0x2006 <__heap_default_limit+0x1006>
    568a: 64 07        	stz	$7                      ; 0x2007 <__heap_default_limit+0x1007>
    568c: 86 16        	stx	$16                     ; 0x2016 <next_line+0x1>
    568e: a2 01        	ldx	#$1
    5690: 20 05 45     	jsr	$4505 <optionstring>
    5693: a5 2f        	lda	$2f                     ; 0x202f <__do_init_stack>
    5695: a2 5d        	ldx	#$5d
    5697: 86 04        	stx	$4                      ; 0x2004 <__heap_default_limit+0x1004>
    5699: a2 8a        	ldx	#$8a
    569b: 86 05        	stx	$5                      ; 0x2005 <__heap_default_limit+0x1005>
    569d: a6 16        	ldx	$16                     ; 0x2016 <next_line+0x1>
    569f: 86 06        	stx	$6                      ; 0x2006 <__heap_default_limit+0x1006>
    56a1: a2 01        	ldx	#$1
    56a3: 86 07        	stx	$7                      ; 0x2007 <__heap_default_limit+0x1007>
    56a5: e8           	inx
    56a6: 20 05 45     	jsr	$4505 <optionstring>
    56a9: a5 2f        	lda	$2f                     ; 0x202f <__do_init_stack>
    56ab: a2 ad        	ldx	#$ad
    56ad: 86 04        	stx	$4                      ; 0x2004 <__heap_default_limit+0x1004>
    56af: a2 83        	ldx	#$83
    56b1: 86 05        	stx	$5                      ; 0x2005 <__heap_default_limit+0x1005>
    56b3: a6 16        	ldx	$16                     ; 0x2016 <next_line+0x1>
    56b5: 86 06        	stx	$6                      ; 0x2006 <__heap_default_limit+0x1006>
    56b7: a2 02        	ldx	#$2
    56b9: 86 07        	stx	$7                      ; 0x2007 <__heap_default_limit+0x1007>
    56bb: a2 04        	ldx	#$4
    56bd: 20 05 45     	jsr	$4505 <optionstring>
    56c0: a5 2f        	lda	$2f                     ; 0x202f <__do_init_stack>
    56c2: a2 5c        	ldx	#$5c
    56c4: 86 04        	stx	$4                      ; 0x2004 <__heap_default_limit+0x1004>
    56c6: a2 85        	ldx	#$85
    56c8: 86 05        	stx	$5                      ; 0x2005 <__heap_default_limit+0x1005>
    56ca: 48           	pha
    56cb: a5 04        	lda	$4                      ; 0x2004 <__heap_default_limit+0x1004>
    56cd: a0 1d        	ldy	#$1d
    56cf: 91 02        	sta	($2),y                  ; 0x2002 <__heap_default_limit+0x1002>
    56d1: a5 05        	lda	$5                      ; 0x2005 <__heap_default_limit+0x1005>
    56d3: c8           	iny
    56d4: 91 02        	sta	($2),y                  ; 0x2002 <__heap_default_limit+0x1002>
    56d6: 88           	dey
    56d7: b1 02        	lda	($2),y                  ; 0x2002 <__heap_default_limit+0x1002>
    56d9: 85 04        	sta	$4                      ; 0x2004 <__heap_default_limit+0x1004>
    56db: c8           	iny
    56dc: b1 02        	lda	($2),y                  ; 0x2002 <__heap_default_limit+0x1002>
    56de: 85 05        	sta	$5                      ; 0x2005 <__heap_default_limit+0x1005>
    56e0: 68           	pla
    56e1: a6 16        	ldx	$16                     ; 0x2016 <next_line+0x1>
    56e3: 86 06        	stx	$6                      ; 0x2006 <__heap_default_limit+0x1006>
    56e5: a2 03        	ldx	#$3
    56e7: 86 07        	stx	$7                      ; 0x2007 <__heap_default_limit+0x1007>
    56e9: a2 08        	ldx	#$8
    56eb: 20 05 45     	jsr	$4505 <optionstring>
    56ee: a5 2f        	lda	$2f                     ; 0x202f <__do_init_stack>
    56f0: 48           	pha
    56f1: a0 1d        	ldy	#$1d
    56f3: b1 02        	lda	($2),y                  ; 0x2002 <__heap_default_limit+0x1002>
    56f5: 85 04        	sta	$4                      ; 0x2004 <__heap_default_limit+0x1004>
    56f7: c8           	iny
    56f8: b1 02        	lda	($2),y                  ; 0x2002 <__heap_default_limit+0x1002>
    56fa: 85 05        	sta	$5                      ; 0x2005 <__heap_default_limit+0x1005>
    56fc: 68           	pla
    56fd: a6 16        	ldx	$16                     ; 0x2016 <next_line+0x1>
    56ff: 86 18        	stx	$18                     ; 0x2018 <next_line+0x3>
    5701: a6 16        	ldx	$16                     ; 0x2016 <next_line+0x1>
    5703: 86 06        	stx	$6                      ; 0x2006 <__heap_default_limit+0x1006>
    5705: a2 04        	ldx	#$4
    5707: 86 07        	stx	$7                      ; 0x2007 <__heap_default_limit+0x1007>
    5709: a2 10        	ldx	#$10
    570b: 20 05 45     	jsr	$4505 <optionstring>
    570e: 20 97 7b     	jsr	$7b97 <cgetc>
    5711: c9 91        	cmp	#$91
    5713: d0 03        	bne	$5718 <navi+0x9d2>
    5715: 4c e8 55     	jmp	$55e8 <navi+0x8a2>
    5718: c9 9d        	cmp	#$9d
    571a: d0 03        	bne	$571f <navi+0x9d9>
    571c: 4c e8 55     	jmp	$55e8 <navi+0x8a2>
    571f: c9 03        	cmp	#$3
    5721: d0 03        	bne	$5726 <navi+0x9e0>
    5723: 4c be 55     	jmp	$55be <navi+0x878>
    5726: c9 11        	cmp	#$11
    5728: d0 03        	bne	$572d <navi+0x9e7>
    572a: 4c b9 55     	jmp	$55b9 <navi+0x873>
    572d: c9 1b        	cmp	#$1b
    572f: d0 03        	bne	$5734 <navi+0x9ee>
    5731: 4c be 55     	jmp	$55be <navi+0x878>
    5734: c9 1d        	cmp	#$1d
    5736: d0 03        	bne	$573b <navi+0x9f5>
    5738: 4c b9 55     	jmp	$55b9 <navi+0x873>
    573b: c9 20        	cmp	#$20
    573d: d0 03        	bne	$5742 <navi+0x9fc>
    573f: 4c f5 55     	jmp	$55f5 <navi+0x8af>
    5742: c9 0d        	cmp	#$d
    5744: d0 03        	bne	$5749 <navi+0xa03>
    5746: 4c 1e 5b     	jmp	$5b1e <navi+0xdd8>
    5749: 20 f9 78     	jsr	$78f9 <sidbong>
    574c: 4c 00 56     	jmp	$5600 <navi+0x8ba>
    574f: c9 00        	cmp	#$0
    5751: a5 09        	lda	$9                      ; 0x2009 <__heap_default_limit+0x1009>
    5753: b0 03        	bcs	$5758 <navi+0xa12>
    5755: 4c a8 55     	jmp	$55a8 <navi+0x862>
    5758: aa           	tax
    5759: a5 1b        	lda	$1b                     ; 0x201b <next_line+0x6>
    575b: 5a           	phy
    575c: a4 08        	ldy	$8                      ; 0x2008 <__heap_default_limit+0x1008>
    575e: c0 01        	cpy	#$1
    5760: 7a           	ply
    5761: e9 01        	sbc	#$1
    5763: f0 03        	beq	$5768 <navi+0xa22>
    5765: 4c cb 57     	jmp	$57cb <navi+0xa85>
    5768: e0 0a        	cpx	#$a
    576a: b0 03        	bcs	$576f <navi+0xa29>
    576c: 4c d2 57     	jmp	$57d2 <navi+0xa8c>
    576f: a5 1b        	lda	$1b                     ; 0x201b <next_line+0x6>
    5771: 5a           	phy
    5772: a4 08        	ldy	$8                      ; 0x2008 <__heap_default_limit+0x1008>
    5774: c0 01        	cpy	#$1
    5776: 7a           	ply
    5777: e9 02        	sbc	#$2
    5779: f0 03        	beq	$577e <navi+0xa38>
    577b: 4c fc 57     	jmp	$57fc <navi+0xab6>
    577e: 8a           	txa
    577f: e0 0a        	cpx	#$a
    5781: b0 03        	bcs	$5786 <navi+0xa40>
    5783: 4c 04 58     	jmp	$5804 <navi+0xabe>
    5786: 38           	sec
    5787: a5 1c        	lda	$1c                     ; 0x201c <next_line+0x7>
    5789: e9 1b        	sbc	#$1b
    578b: aa           	tax
    578c: a5 1b        	lda	$1b                     ; 0x201b <next_line+0x6>
    578e: e9 00        	sbc	#$0
    5790: f0 03        	beq	$5795 <navi+0xa4f>
    5792: 4c 14 59     	jmp	$5914 <navi+0xbce>
    5795: 8a           	txa
    5796: e0 06        	cpx	#$6
    5798: b0 03        	bcs	$579d <navi+0xa57>
    579a: 4c 1c 59     	jmp	$591c <navi+0xbd6>
    579d: a5 1b        	lda	$1b                     ; 0x201b <next_line+0x6>
    579f: d0 09        	bne	$57aa <navi+0xa64>
    57a1: a6 1c        	ldx	$1c                     ; 0x201c <next_line+0x7>
    57a3: e0 03        	cpx	#$3
    57a5: d0 03        	bne	$57aa <navi+0xa64>
    57a7: 4c ee 61     	jmp	$61ee <navi+0x14a8>
    57aa: a5 1b        	lda	$1b                     ; 0x201b <next_line+0x6>
    57ac: f0 03        	beq	$57b1 <navi+0xa6b>
    57ae: 4c 0a 5c     	jmp	$5c0a <navi+0xec4>
    57b1: a6 1c        	ldx	$1c                     ; 0x201c <next_line+0x7>
    57b3: e0 09        	cpx	#$9
    57b5: f0 03        	beq	$57ba <navi+0xa74>
    57b7: 4c 0a 5c     	jmp	$5c0a <navi+0xec4>
    57ba: a0 10        	ldy	#$10
    57bc: b1 02        	lda	($2),y                  ; 0x2002 <__heap_default_limit+0x1002>
    57be: f0 03        	beq	$57c3 <navi+0xa7d>
    57c0: 4c 19 5d     	jmp	$5d19 <navi+0xfd3>
    57c3: a2 01        	ldx	#$1
    57c5: 8a           	txa
    57c6: 91 02        	sta	($2),y                  ; 0x2002 <__heap_default_limit+0x1002>
    57c8: 4c e9 4f     	jmp	$4fe9 <navi+0x2a3>
    57cb: c9 00        	cmp	#$0
    57cd: 90 03        	bcc	$57d2 <navi+0xa8c>
    57cf: 4c 6f 57     	jmp	$576f <navi+0xa29>
    57d2: 8a           	txa
    57d3: 0a           	asl
    57d4: aa           	tax
    57d5: 7c 22 83     	jmp	($8322,x)               ; 0x8322 <__zp_data_load_start+0x630b>
    57d8: a2 aa        	ldx	#$aa
    57da: 86 04        	stx	$4                      ; 0x2004 <__heap_default_limit+0x1004>
    57dc: a2 8a        	ldx	#$8a
    57de: 86 05        	stx	$5                      ; 0x2005 <__heap_default_limit+0x1005>
    57e0: 20 0b 7a     	jsr	$7a0b <cputs>
    57e3: 4c 47 53     	jmp	$5347 <navi+0x601>
    57e6: 48           	pha
    57e7: a0 10        	ldy	#$10
    57e9: b1 02        	lda	($2),y                  ; 0x2002 <__heap_default_limit+0x1002>
    57eb: 85 04        	sta	$4                      ; 0x2004 <__heap_default_limit+0x1004>
    57ed: 68           	pla
    57ee: a6 1e        	ldx	$1e                     ; 0x201e <next_line+0x9>
    57f0: e4 04        	cpx	$4                      ; 0x2004 <__heap_default_limit+0x1004>
    57f2: f0 03        	beq	$57f7 <navi+0xab1>
    57f4: 4c 00 53     	jmp	$5300 <navi+0x5ba>
    57f7: 09 20        	ora	#$20
    57f9: 4c 02 53     	jmp	$5302 <navi+0x5bc>
    57fc: c9 00        	cmp	#$0
    57fe: 8a           	txa
    57ff: 90 03        	bcc	$5804 <navi+0xabe>
    5801: 4c 86 57     	jmp	$5786 <navi+0xa40>
    5804: 0a           	asl
    5805: aa           	tax
    5806: 7c 36 83     	jmp	($8336,x)               ; 0x8336 <__zp_data_load_start+0x631f>
    5809: 20 f9 78     	jsr	$78f9 <sidbong>
    580c: 4c e9 4f     	jmp	$4fe9 <navi+0x2a3>
    580f: a9 27        	lda	#$27
    5811: 18           	clc
    5812: 65 1a        	adc	$1a                     ; 0x201a <next_line+0x5>
    5814: 85 04        	sta	$4                      ; 0x2004 <__heap_default_limit+0x1004>
    5816: a9 00        	lda	#$0
    5818: 65 17        	adc	$17                     ; 0x2017 <next_line+0x2>
    581a: 85 05        	sta	$5                      ; 0x2005 <__heap_default_limit+0x1005>
    581c: b2 04        	lda	($4),z                  ; 0x2004 <__heap_default_limit+0x1004>
    581e: 85 16        	sta	$16                     ; 0x2016 <next_line+0x1>
    5820: b1 04        	lda	($4),y                  ; 0x2004 <__heap_default_limit+0x1004>
    5822: 85 17        	sta	$17                     ; 0x2017 <next_line+0x2>
    5824: b1 16        	lda	($16),y                 ; 0x2016 <next_line+0x1>
    5826: aa           	tax
    5827: a0 10        	ldy	#$10
    5829: b1 02        	lda	($2),y                  ; 0x2002 <__heap_default_limit+0x1002>
    582b: 85 1a        	sta	$1a                     ; 0x201a <next_line+0x5>
    582d: 20 a2 31     	jsr	$31a2 <getdirententry>
    5830: a6 04        	ldx	$4                      ; 0x2004 <__heap_default_limit+0x1004>
    5832: 86 18        	stx	$18                     ; 0x2018 <next_line+0x3>
    5834: a6 05        	ldx	$5                      ; 0x2005 <__heap_default_limit+0x1005>
    5836: 86 19        	stx	$19                     ; 0x2019 <next_line+0x4>
    5838: a0 02        	ldy	#$2
    583a: b1 04        	lda	($4),y                  ; 0x2004 <__heap_default_limit+0x1004>
    583c: 85 06        	sta	$6                      ; 0x2006 <__heap_default_limit+0x1006>
    583e: 29 0f        	and	#$f
    5840: d0 03        	bne	$5845 <navi+0xaff>
    5842: 4c c9 5a     	jmp	$5ac9 <navi+0xd83>
    5845: a8           	tay
    5846: a9 04        	lda	#$4
    5848: a6 1b        	ldx	$1b                     ; 0x201b <next_line+0x6>
    584a: f0 03        	beq	$584f <navi+0xb09>
    584c: 4c ea 59     	jmp	$59ea <navi+0xca4>
    584f: a6 1c        	ldx	$1c                     ; 0x201c <next_line+0x7>
    5851: e0 f5        	cpx	#$f5
    5853: f0 03        	beq	$5858 <navi+0xb12>
    5855: 4c ea 59     	jmp	$59ea <navi+0xca4>
    5858: c0 05        	cpy	#$5
    585a: f0 03        	beq	$585f <navi+0xb19>
    585c: 4c 44 66     	jmp	$6644 <donehypfindfirst6+0x357>
    585f: 48           	pha
    5860: a5 18        	lda	$18                     ; 0x2018 <next_line+0x3>
    5862: a0 0d        	ldy	#$d
    5864: 91 02        	sta	($2),y                  ; 0x2002 <__heap_default_limit+0x1002>
    5866: a5 19        	lda	$19                     ; 0x2019 <next_line+0x4>
    5868: c8           	iny
    5869: 91 02        	sta	($2),y                  ; 0x2002 <__heap_default_limit+0x1002>
    586b: 68           	pla
    586c: a2 af        	ldx	#$af
    586e: 86 04        	stx	$4                      ; 0x2004 <__heap_default_limit+0x1004>
    5870: a2 8a        	ldx	#$8a
    5872: 86 05        	stx	$5                      ; 0x2005 <__heap_default_limit+0x1005>
    5874: a2 c9        	ldx	#$c9
    5876: 86 06        	stx	$6                      ; 0x2006 <__heap_default_limit+0x1006>
    5878: a2 83        	ldx	#$83
    587a: 4c a3 68     	jmp	$68a3 <donehypd81dosattach9+0x34>
    587d: ae 11 d6     	ldx	$d611                   ; 0xd611 <__heap_start+0x4695>
    5880: e0 01        	cpx	#$1
    5882: d0 03        	bne	$5887 <navi+0xb41>
    5884: 4c 3b 6f     	jmp	$6f3b <donehypchdir18+0x22c>
    5887: ae 11 d6     	ldx	$d611                   ; 0xd611 <__heap_start+0x4695>
    588a: e0 02        	cpx	#$2
    588c: f0 03        	beq	$5891 <navi+0xb4b>
    588e: 4c e9 4f     	jmp	$4fe9 <navi+0x2a3>
    5891: 4c 3b 6f     	jmp	$6f3b <donehypchdir18+0x22c>
    5894: a9 27        	lda	#$27
    5896: 18           	clc
    5897: 65 1a        	adc	$1a                     ; 0x201a <next_line+0x5>
    5899: 85 04        	sta	$4                      ; 0x2004 <__heap_default_limit+0x1004>
    589b: a9 00        	lda	#$0
    589d: 65 17        	adc	$17                     ; 0x2017 <next_line+0x2>
    589f: 85 05        	sta	$5                      ; 0x2005 <__heap_default_limit+0x1005>
    58a1: b2 04        	lda	($4),z                  ; 0x2004 <__heap_default_limit+0x1004>
    58a3: 85 06        	sta	$6                      ; 0x2006 <__heap_default_limit+0x1006>
    58a5: b1 04        	lda	($4),y                  ; 0x2004 <__heap_default_limit+0x1004>
    58a7: a4 06        	ldy	$6                      ; 0x2006 <__heap_default_limit+0x1006>
    58a9: 84 16        	sty	$16                     ; 0x2016 <next_line+0x1>
    58ab: 84 1e        	sty	$1e                     ; 0x201e <next_line+0x9>
    58ad: 85 17        	sta	$17                     ; 0x2017 <next_line+0x2>
    58af: 85 1f        	sta	$1f                     ; 0x201f <next_line+0xa>
    58b1: a0 47        	ldy	#$47
    58b3: b1 1e        	lda	($1e),y                 ; 0x201e <next_line+0x9>
    58b5: c9 28        	cmp	#$28
    58b7: d0 0d        	bne	$58c6 <navi+0xb80>
    58b9: a9 01        	lda	#$1
    58bb: a0 46        	ldy	#$46
    58bd: 31 1e        	and	($1e),y                 ; 0x201e <next_line+0x9>
    58bf: 29 01        	and	#$1
    58c1: f0 03        	beq	$58c6 <navi+0xb80>
    58c3: 4c 73 61     	jmp	$6173 <navi+0x142d>
    58c6: a2 af        	ldx	#$af
    58c8: 86 04        	stx	$4                      ; 0x2004 <__heap_default_limit+0x1004>
    58ca: a2 8c        	ldx	#$8c
    58cc: 86 05        	stx	$5                      ; 0x2005 <__heap_default_limit+0x1005>
    58ce: a2 fd        	ldx	#$fd
    58d0: 86 06        	stx	$6                      ; 0x2006 <__heap_default_limit+0x1006>
    58d2: a2 85        	ldx	#$85
    58d4: 86 07        	stx	$7                      ; 0x2007 <__heap_default_limit+0x1007>
    58d6: a2 c7        	ldx	#$c7
    58d8: 86 08        	stx	$8                      ; 0x2008 <__heap_default_limit+0x1008>
    58da: a2 83        	ldx	#$83
    58dc: 4c 61 61     	jmp	$6161 <navi+0x141b>
    58df: a9 27        	lda	#$27
    58e1: 18           	clc
    58e2: 65 1a        	adc	$1a                     ; 0x201a <next_line+0x5>
    58e4: 85 04        	sta	$4                      ; 0x2004 <__heap_default_limit+0x1004>
    58e6: a9 00        	lda	#$0
    58e8: 65 17        	adc	$17                     ; 0x2017 <next_line+0x2>
    58ea: 85 05        	sta	$5                      ; 0x2005 <__heap_default_limit+0x1005>
    58ec: b2 04        	lda	($4),z                  ; 0x2004 <__heap_default_limit+0x1004>
    58ee: 85 06        	sta	$6                      ; 0x2006 <__heap_default_limit+0x1006>
    58f0: b1 04        	lda	($4),y                  ; 0x2004 <__heap_default_limit+0x1004>
    58f2: 85 07        	sta	$7                      ; 0x2007 <__heap_default_limit+0x1007>
    58f4: a9 01        	lda	#$1
    58f6: a0 46        	ldy	#$46
    58f8: 51 06        	eor	($6),y                  ; 0x2006 <__heap_default_limit+0x1006>
    58fa: 91 06        	sta	($6),y                  ; 0x2006 <__heap_default_limit+0x1006>
    58fc: a9 28        	lda	#$28
    58fe: a0 47        	ldy	#$47
    5900: 91 06        	sta	($6),y                  ; 0x2006 <__heap_default_limit+0x1006>
    5902: a9 01        	lda	#$1
    5904: c8           	iny
    5905: 91 06        	sta	($6),y                  ; 0x2006 <__heap_default_limit+0x1006>
    5907: a9 50        	lda	#$50
    5909: c8           	iny
    590a: 91 06        	sta	($6),y                  ; 0x2006 <__heap_default_limit+0x1006>
    590c: b2 06        	lda	($6),z                  ; 0x2006 <__heap_default_limit+0x1006>
    590e: 48           	pha
    590f: a0 10        	ldy	#$10
    5911: 4c d7 5b     	jmp	$5bd7 <navi+0xe91>
    5914: c9 00        	cmp	#$0
    5916: 8a           	txa
    5917: 90 03        	bcc	$591c <navi+0xbd6>
    5919: 4c 9d 57     	jmp	$579d <navi+0xa57>
    591c: 0a           	asl
    591d: aa           	tax
    591e: 7c e4 82     	jmp	($82e4,x)               ; 0x82e4 <__zp_data_load_start+0x62cd>
    5921: a9 27        	lda	#$27
    5923: 18           	clc
    5924: 65 1a        	adc	$1a                     ; 0x201a <next_line+0x5>
    5926: 85 04        	sta	$4                      ; 0x2004 <__heap_default_limit+0x1004>
    5928: a9 00        	lda	#$0
    592a: 65 17        	adc	$17                     ; 0x2017 <next_line+0x2>
    592c: 85 05        	sta	$5                      ; 0x2005 <__heap_default_limit+0x1005>
    592e: b2 04        	lda	($4),z                  ; 0x2004 <__heap_default_limit+0x1004>
    5930: aa           	tax
    5931: b1 04        	lda	($4),y                  ; 0x2004 <__heap_default_limit+0x1004>
    5933: 86 04        	stx	$4                      ; 0x2004 <__heap_default_limit+0x1004>
    5935: 85 05        	sta	$5                      ; 0x2005 <__heap_default_limit+0x1005>
    5937: a9 0a        	lda	#$a
    5939: 18           	clc
    593a: 71 04        	adc	($4),y                  ; 0x2004 <__heap_default_limit+0x1004>
    593c: 91 04        	sta	($4),y                  ; 0x2004 <__heap_default_limit+0x1004>
    593e: 4c e9 4f     	jmp	$4fe9 <navi+0x2a3>
    5941: 64 1a        	stz	$1a                     ; 0x201a <next_line+0x5>
    5943: a2 00        	ldx	#$0
    5945: a9 14        	lda	#$14
    5947: 20 58 40     	jsr	$4058 <shortcuts>
    594a: a4 1a        	ldy	$1a                     ; 0x201a <next_line+0x5>
    594c: a2 8d        	ldx	#$8d
    594e: 84 16        	sty	$16                     ; 0x2016 <next_line+0x1>
    5950: c0 02        	cpy	#$2
    5952: f0 02        	beq	$5956 <navi+0xc10>
    5954: a2 6a        	ldx	#$6a
    5956: a0 7b        	ldy	#$7b
    5958: 98           	tya
    5959: a0 1d        	ldy	#$1d
    595b: 91 02        	sta	($2),y                  ; 0x2002 <__heap_default_limit+0x1002>
    595d: a9 01        	lda	#$1
    595f: a4 16        	ldy	$16                     ; 0x2016 <next_line+0x1>
    5961: c0 01        	cpy	#$1
    5963: f0 14        	beq	$5979 <navi+0xc33>
    5965: 48           	pha
    5966: 8a           	txa
    5967: a0 1d        	ldy	#$1d
    5969: 91 02        	sta	($2),y                  ; 0x2002 <__heap_default_limit+0x1002>
    596b: 68           	pla
    596c: 80 0b        	bra	$5979 <navi+0xc33>
    596e: a6 16        	ldx	$16                     ; 0x2016 <next_line+0x1>
    5970: e0 02        	cpx	#$2
    5972: a9 01        	lda	#$1
    5974: b0 03        	bcs	$5979 <navi+0xc33>
    5976: 4c e1 59     	jmp	$59e1 <navi+0xc9b>
    5979: aa           	tax
    597a: a9 64        	lda	#$64
    597c: 20 90 76     	jsr	$7690 <text>
    597f: a2 20        	ldx	#$20
    5981: 86 04        	stx	$4                      ; 0x2004 <__heap_default_limit+0x1004>
    5983: a2 18        	ldx	#$18
    5985: a9 07        	lda	#$7
    5987: 20 6a 79     	jsr	$796a <cputcxy>
    598a: a2 82        	ldx	#$82
    598c: 86 04        	stx	$4                      ; 0x2004 <__heap_default_limit+0x1004>
    598e: a2 85        	ldx	#$85
    5990: 86 05        	stx	$5                      ; 0x2005 <__heap_default_limit+0x1005>
    5992: 20 db 3a     	jsr	$3adb <msprintf>
    5995: a9 20        	lda	#$20
    5997: 20 61 79     	jsr	$7961 <cputc>
    599a: a2 01        	ldx	#$1
    599c: a0 1d        	ldy	#$1d
    599e: b1 02        	lda	($2),y                  ; 0x2002 <__heap_default_limit+0x1002>
    59a0: 20 90 76     	jsr	$7690 <text>
    59a3: 20 97 7b     	jsr	$7b97 <cgetc>
    59a6: c9 11        	cmp	#$11
    59a8: d0 03        	bne	$59ad <navi+0xc67>
    59aa: 4c 6e 59     	jmp	$596e <navi+0xc28>
    59ad: c9 20        	cmp	#$20
    59af: d0 03        	bne	$59b4 <navi+0xc6e>
    59b1: 4c e9 4f     	jmp	$4fe9 <navi+0x2a3>
    59b4: c9 03        	cmp	#$3
    59b6: d0 03        	bne	$59bb <navi+0xc75>
    59b8: 4c e9 4f     	jmp	$4fe9 <navi+0x2a3>
    59bb: c9 0d        	cmp	#$d
    59bd: d0 03        	bne	$59c2 <navi+0xc7c>
    59bf: 4c e9 4f     	jmp	$4fe9 <navi+0x2a3>
    59c2: c9 1b        	cmp	#$1b
    59c4: d0 03        	bne	$59c9 <navi+0xc83>
    59c6: 4c e9 4f     	jmp	$4fe9 <navi+0x2a3>
    59c9: c9 91        	cmp	#$91
    59cb: f0 08        	beq	$59d5 <navi+0xc8f>
    59cd: 20 f9 78     	jsr	$78f9 <sidbong>
    59d0: a9 01        	lda	#$1
    59d2: 4c 79 59     	jmp	$5979 <navi+0xc33>
    59d5: 64 1a        	stz	$1a                     ; 0x201a <next_line+0x5>
    59d7: a5 16        	lda	$16                     ; 0x2016 <next_line+0x1>
    59d9: f0 03        	beq	$59de <navi+0xc98>
    59db: 4c 23 63     	jmp	$6323 <donehypfindfirst6+0x36>
    59de: 4c 4a 59     	jmp	$594a <navi+0xc04>
    59e1: a6 16        	ldx	$16                     ; 0x2016 <next_line+0x1>
    59e3: 86 1a        	stx	$1a                     ; 0x201a <next_line+0x5>
    59e5: e6 1a        	inc	$1a                     ; 0x201a <next_line+0x5>
    59e7: 4c 4a 59     	jmp	$594a <navi+0xc04>
    59ea: c0 05        	cpy	#$5
    59ec: f0 03        	beq	$59f1 <navi+0xcab>
    59ee: 4c ee 5a     	jmp	$5aee <navi+0xda8>
    59f1: a0 02        	ldy	#$2
    59f3: b1 16        	lda	($16),y                 ; 0x2016 <next_line+0x1>
    59f5: c9 ff        	cmp	#$ff
    59f7: d0 03        	bne	$59fc <navi+0xcb6>
    59f9: 4c ee 5a     	jmp	$5aee <navi+0xda8>
    59fc: 38           	sec
    59fd: a5 21        	lda	$21                     ; 0x2021 <_start>
    59ff: e5 1f        	sbc	$1f                     ; 0x201f <next_line+0xa>
    5a01: 85 04        	sta	$4                      ; 0x2004 <__heap_default_limit+0x1004>
    5a03: a0 1d        	ldy	#$1d
    5a05: b1 02        	lda	($2),y                  ; 0x2002 <__heap_default_limit+0x1002>
    5a07: e5 1e        	sbc	$1e                     ; 0x201e <next_line+0x9>
    5a09: 85 05        	sta	$5                      ; 0x2005 <__heap_default_limit+0x1005>
    5a0b: a9 9f        	lda	#$9f
    5a0d: 18           	clc
    5a0e: 65 04        	adc	$4                      ; 0x2004 <__heap_default_limit+0x1004>
    5a10: 85 04        	sta	$4                      ; 0x2004 <__heap_default_limit+0x1004>
    5a12: a9 8e        	lda	#$8e
    5a14: 65 05        	adc	$5                      ; 0x2005 <__heap_default_limit+0x1005>
    5a16: 85 05        	sta	$5                      ; 0x2005 <__heap_default_limit+0x1005>
    5a18: a2 90        	ldx	#$90
    5a1a: a0 ff        	ldy	#$ff
    5a1c: 98           	tya
    5a1d: d0 03        	bne	$5a22 <navi+0xcdc>
    5a1f: 4c 4d 5a     	jmp	$5a4d <navi+0xd07>
    5a22: a9 01        	lda	#$1
    5a24: 32 04        	and	($4),z                  ; 0x2004 <__heap_default_limit+0x1004>
    5a26: 64 06        	stz	$6                      ; 0x2006 <__heap_default_limit+0x1006>
    5a28: 48           	pha
    5a29: a9 00        	lda	#$0
    5a2b: 5a           	phy
    5a2c: a0 0f        	ldy	#$f
    5a2e: 91 02        	sta	($2),y                  ; 0x2002 <__heap_default_limit+0x1002>
    5a30: 7a           	ply
    5a31: 68           	pla
    5a32: f0 08        	beq	$5a3c <navi+0xcf6>
    5a34: a9 01        	lda	#$1
    5a36: 5a           	phy
    5a37: a0 0f        	ldy	#$f
    5a39: 91 02        	sta	($2),y                  ; 0x2002 <__heap_default_limit+0x1002>
    5a3b: 7a           	ply
    5a3c: a9 ff        	lda	#$ff
    5a3e: c6 04        	dec	$4                      ; 0x2004 <__heap_default_limit+0x1004>
    5a40: c5 04        	cmp	$4                      ; 0x2004 <__heap_default_limit+0x1004>
    5a42: d0 02        	bne	$5a46 <navi+0xd00>
    5a44: c6 05        	dec	$5                      ; 0x2005 <__heap_default_limit+0x1005>
    5a46: e8           	inx
    5a47: d0 d3        	bne	$5a1c <navi+0xcd6>
    5a49: c8           	iny
    5a4a: 4c 1c 5a     	jmp	$5a1c <navi+0xcd6>
    5a4d: 8a           	txa
    5a4e: f0 03        	beq	$5a53 <navi+0xd0d>
    5a50: 4c 22 5a     	jmp	$5a22 <navi+0xcdc>
    5a53: a0 0f        	ldy	#$f
    5a55: b1 02        	lda	($2),y                  ; 0x2002 <__heap_default_limit+0x1002>
    5a57: c9 02        	cmp	#$2
    5a59: b0 03        	bcs	$5a5e <navi+0xd18>
    5a5b: 4c 5d 66     	jmp	$665d <donehypfindfirst6+0x370>
    5a5e: a5 18        	lda	$18                     ; 0x2018 <next_line+0x3>
    5a60: a0 0d        	ldy	#$d
    5a62: 91 02        	sta	($2),y                  ; 0x2002 <__heap_default_limit+0x1002>
    5a64: a5 19        	lda	$19                     ; 0x2019 <next_line+0x4>
    5a66: c8           	iny
    5a67: 91 02        	sta	($2),y                  ; 0x2002 <__heap_default_limit+0x1002>
    5a69: a2 cf        	ldx	#$cf
    5a6b: 86 04        	stx	$4                      ; 0x2004 <__heap_default_limit+0x1004>
    5a6d: a2 88        	ldx	#$88
    5a6f: 86 05        	stx	$5                      ; 0x2005 <__heap_default_limit+0x1005>
    5a71: a2 8f        	ldx	#$8f
    5a73: 86 06        	stx	$6                      ; 0x2006 <__heap_default_limit+0x1006>
    5a75: a2 85        	ldx	#$85
    5a77: 86 07        	stx	$7                      ; 0x2007 <__heap_default_limit+0x1007>
    5a79: a2 82        	ldx	#$82
    5a7b: 86 08        	stx	$8                      ; 0x2008 <__heap_default_limit+0x1008>
    5a7d: a2 83        	ldx	#$83
    5a7f: 4c 61 61     	jmp	$6161 <navi+0x141b>
    5a82: a9 43        	lda	#$43
    5a84: a6 06        	ldx	$6                      ; 0x2006 <__heap_default_limit+0x1006>
    5a86: 9d e0 8d     	sta	$8de0,x                 ; 0x8de0 <s>
    5a89: 3a           	dec
    5a8a: 99 e0 8d     	sta	$8de0,y                 ; 0x8de0 <s>
    5a8d: a9 4d        	lda	#$4d
    5a8f: 4c 99 52     	jmp	$5299 <navi+0x553>
    5a92: a9 55        	lda	#$55
    5a94: a6 06        	ldx	$6                      ; 0x2006 <__heap_default_limit+0x1006>
    5a96: 9d e0 8d     	sta	$8de0,x                 ; 0x8de0 <s>
    5a99: a9 53        	lda	#$53
    5a9b: 99 e0 8d     	sta	$8de0,y                 ; 0x8de0 <s>
    5a9e: 3a           	dec
    5a9f: 4c 99 52     	jmp	$5299 <navi+0x553>
    5aa2: a9 52        	lda	#$52
    5aa4: 4c 8d 52     	jmp	$528d <navi+0x547>
    5aa7: a9 53        	lda	#$53
    5aa9: a6 06        	ldx	$6                      ; 0x2006 <__heap_default_limit+0x1006>
    5aab: 9d e0 8d     	sta	$8de0,x                 ; 0x8de0 <s>
    5aae: a9 45        	lda	#$45
    5ab0: 99 e0 8d     	sta	$8de0,y                 ; 0x8de0 <s>
    5ab3: a9 51        	lda	#$51
    5ab5: 4c 99 52     	jmp	$5299 <navi+0x553>
    5ab8: a9 50        	lda	#$50
    5aba: a6 06        	ldx	$6                      ; 0x2006 <__heap_default_limit+0x1006>
    5abc: 9d e0 8d     	sta	$8de0,x                 ; 0x8de0 <s>
    5abf: a9 52        	lda	#$52
    5ac1: 99 e0 8d     	sta	$8de0,y                 ; 0x8de0 <s>
    5ac4: a9 47        	lda	#$47
    5ac6: 4c 99 52     	jmp	$5299 <navi+0x553>
    5ac9: a9 01        	lda	#$1
    5acb: a0 46        	ldy	#$46
    5acd: 31 16        	and	($16),y                 ; 0x2016 <next_line+0x1>
    5acf: f0 03        	beq	$5ad4 <navi+0xd8e>
    5ad1: 4c 39 61     	jmp	$6139 <navi+0x13f3>
    5ad4: a5 1b        	lda	$1b                     ; 0x201b <next_line+0x6>
    5ad6: d0 09        	bne	$5ae1 <navi+0xd9b>
    5ad8: a6 1c        	ldx	$1c                     ; 0x201c <next_line+0x7>
    5ada: e0 f5        	cpx	#$f5
    5adc: d0 03        	bne	$5ae1 <navi+0xd9b>
    5ade: 4c c6 6b     	jmp	$6bc6 <donehypfindfirst14+0x53>
    5ae1: a0 10        	ldy	#$10
    5ae3: b1 02        	lda	($2),y                  ; 0x2002 <__heap_default_limit+0x1002>
    5ae5: 85 1a        	sta	$1a                     ; 0x201a <next_line+0x5>
    5ae7: a5 06        	lda	$6                      ; 0x2006 <__heap_default_limit+0x1006>
    5ae9: d0 03        	bne	$5aee <navi+0xda8>
    5aeb: 4c 83 63     	jmp	$6383 <donehypfindfirst6+0x96>
    5aee: a5 18        	lda	$18                     ; 0x2018 <next_line+0x3>
    5af0: 18           	clc
    5af1: 69 1e        	adc	#$1e
    5af3: 85 04        	sta	$4                      ; 0x2004 <__heap_default_limit+0x1004>
    5af5: a5 19        	lda	$19                     ; 0x2019 <next_line+0x4>
    5af7: 69 00        	adc	#$0
    5af9: 85 05        	sta	$5                      ; 0x2005 <__heap_default_limit+0x1005>
    5afb: a0 1e        	ldy	#$1e
    5afd: b1 18        	lda	($18),y                 ; 0x2018 <next_line+0x3>
    5aff: 85 06        	sta	$6                      ; 0x2006 <__heap_default_limit+0x1006>
    5b01: a0 01        	ldy	#$1
    5b03: b1 04        	lda	($4),y                  ; 0x2004 <__heap_default_limit+0x1004>
    5b05: d0 07        	bne	$5b0e <navi+0xdc8>
    5b07: a5 06        	lda	$6                      ; 0x2006 <__heap_default_limit+0x1006>
    5b09: d0 03        	bne	$5b0e <navi+0xdc8>
    5b0b: 4c 83 63     	jmp	$6383 <donehypfindfirst6+0x96>
    5b0e: a5 1a        	lda	$1a                     ; 0x201a <next_line+0x5>
    5b10: d0 03        	bne	$5b15 <navi+0xdcf>
    5b12: 4c 82 62     	jmp	$6282 <navi+0x153c>
    5b15: a2 3d        	ldx	#$3d
    5b17: 86 08        	stx	$8                      ; 0x2008 <__heap_default_limit+0x1008>
    5b19: a2 89        	ldx	#$89
    5b1b: 4c 88 62     	jmp	$6288 <navi+0x1542>
    5b1e: a2 c7        	ldx	#$c7
    5b20: 86 04        	stx	$4                      ; 0x2004 <__heap_default_limit+0x1004>
    5b22: a2 83        	ldx	#$83
    5b24: 86 05        	stx	$5                      ; 0x2005 <__heap_default_limit+0x1005>
    5b26: a5 04        	lda	$4                      ; 0x2004 <__heap_default_limit+0x1004>
    5b28: a0 1d        	ldy	#$1d
    5b2a: 91 02        	sta	($2),y                  ; 0x2002 <__heap_default_limit+0x1002>
    5b2c: a5 05        	lda	$5                      ; 0x2005 <__heap_default_limit+0x1005>
    5b2e: c8           	iny
    5b2f: 91 02        	sta	($2),y                  ; 0x2002 <__heap_default_limit+0x1002>
    5b31: 88           	dey
    5b32: b1 02        	lda	($2),y                  ; 0x2002 <__heap_default_limit+0x1002>
    5b34: 85 04        	sta	$4                      ; 0x2004 <__heap_default_limit+0x1004>
    5b36: c8           	iny
    5b37: b1 02        	lda	($2),y                  ; 0x2002 <__heap_default_limit+0x1002>
    5b39: 85 05        	sta	$5                      ; 0x2005 <__heap_default_limit+0x1005>
    5b3b: 88           	dey
    5b3c: b1 02        	lda	($2),y                  ; 0x2002 <__heap_default_limit+0x1002>
    5b3e: 85 06        	sta	$6                      ; 0x2006 <__heap_default_limit+0x1006>
    5b40: c8           	iny
    5b41: b1 02        	lda	($2),y                  ; 0x2002 <__heap_default_limit+0x1002>
    5b43: 85 07        	sta	$7                      ; 0x2007 <__heap_default_limit+0x1007>
    5b45: 88           	dey
    5b46: b1 02        	lda	($2),y                  ; 0x2002 <__heap_default_limit+0x1002>
    5b48: 85 08        	sta	$8                      ; 0x2008 <__heap_default_limit+0x1008>
    5b4a: c8           	iny
    5b4b: b1 02        	lda	($2),y                  ; 0x2002 <__heap_default_limit+0x1002>
    5b4d: 85 09        	sta	$9                      ; 0x2009 <__heap_default_limit+0x1009>
    5b4f: 64 0a        	stz	$a                      ; 0x200a <__heap_default_limit+0x100a>
    5b51: 64 0b        	stz	$b                      ; 0x200b <__heap_default_limit+0x100b>
    5b53: 64 0c        	stz	$c                      ; 0x200c <__heap_default_limit+0x100c>
    5b55: a2 00        	ldx	#$0
    5b57: a9 02        	lda	#$2
    5b59: 20 b5 3c     	jsr	$3cb5 <messagebox>
    5b5c: a2 cc        	ldx	#$cc
    5b5e: 86 04        	stx	$4                      ; 0x2004 <__heap_default_limit+0x1004>
    5b60: a2 8b        	ldx	#$8b
    5b62: 86 05        	stx	$5                      ; 0x2005 <__heap_default_limit+0x1005>
    5b64: a2 52        	ldx	#$52
    5b66: 86 06        	stx	$6                      ; 0x2006 <__heap_default_limit+0x1006>
    5b68: a2 86        	ldx	#$86
    5b6a: 86 07        	stx	$7                      ; 0x2007 <__heap_default_limit+0x1007>
    5b6c: a9 14        	lda	#$14
    5b6e: 20 5d 3e     	jsr	$3e5d <progress>
    5b71: a0 01        	ldy	#$1
    5b73: 18           	clc
    5b74: a9 27        	lda	#$27
    5b76: 65 1a        	adc	$1a                     ; 0x201a <next_line+0x5>
    5b78: 85 04        	sta	$4                      ; 0x2004 <__heap_default_limit+0x1004>
    5b7a: a9 00        	lda	#$0
    5b7c: 65 17        	adc	$17                     ; 0x2017 <next_line+0x2>
    5b7e: 85 05        	sta	$5                      ; 0x2005 <__heap_default_limit+0x1005>
    5b80: b2 04        	lda	($4),z                  ; 0x2004 <__heap_default_limit+0x1004>
    5b82: aa           	tax
    5b83: b1 04        	lda	($4),y                  ; 0x2004 <__heap_default_limit+0x1004>
    5b85: 86 04        	stx	$4                      ; 0x2004 <__heap_default_limit+0x1004>
    5b87: 85 05        	sta	$5                      ; 0x2005 <__heap_default_limit+0x1005>
    5b89: b2 04        	lda	($4),z                  ; 0x2004 <__heap_default_limit+0x1004>
    5b8b: 48           	pha
    5b8c: a0 10        	ldy	#$10
    5b8e: b1 02        	lda	($2),y                  ; 0x2002 <__heap_default_limit+0x1002>
    5b90: 85 16        	sta	$16                     ; 0x2016 <next_line+0x1>
    5b92: 68           	pla
    5b93: a6 16        	ldx	$16                     ; 0x2016 <next_line+0x1>
    5b95: 20 a4 45     	jsr	$45a4 <UpdateSectors>
    5b98: a5 16        	lda	$16                     ; 0x2016 <next_line+0x1>
    5b9a: 20 9c 4b     	jsr	$4b9c <Deselect>
    5b9d: a2 01        	ldx	#$1
    5b9f: a5 16        	lda	$16                     ; 0x2016 <next_line+0x1>
    5ba1: f0 02        	beq	$5ba5 <navi+0xe5f>
    5ba3: a2 00        	ldx	#$0
    5ba5: a9 01        	lda	#$1
    5ba7: a8           	tay
    5ba8: 48           	pha
    5ba9: 98           	tya
    5baa: a0 1d        	ldy	#$1d
    5bac: 91 02        	sta	($2),y                  ; 0x2002 <__heap_default_limit+0x1002>
    5bae: 68           	pla
    5baf: e0 00        	cpx	#$0
    5bb1: d0 02        	bne	$5bb5 <navi+0xe6f>
    5bb3: a9 00        	lda	#$0
    5bb5: 0a           	asl
    5bb6: a8           	tay
    5bb7: b9 27 00     	lda	$27,y                   ; 0x27 <midnight>
    5bba: 48           	pha
    5bbb: b9 28 00     	lda	$28,y                   ; 0x28 <midnight+0x1>
    5bbe: a8           	tay
    5bbf: 68           	pla
    5bc0: 85 04        	sta	$4                      ; 0x2004 <__heap_default_limit+0x1004>
    5bc2: 84 05        	sty	$5                      ; 0x2005 <__heap_default_limit+0x1005>
    5bc4: b2 04        	lda	($4),z                  ; 0x2004 <__heap_default_limit+0x1004>
    5bc6: e0 00        	cpx	#$0
    5bc8: d0 0a        	bne	$5bd4 <navi+0xe8e>
    5bca: 64 04        	stz	$4                      ; 0x2004 <__heap_default_limit+0x1004>
    5bcc: 48           	pha
    5bcd: a9 00        	lda	#$0
    5bcf: a0 1d        	ldy	#$1d
    5bd1: 91 02        	sta	($2),y                  ; 0x2002 <__heap_default_limit+0x1002>
    5bd3: 68           	pla
    5bd4: 48           	pha
    5bd5: a0 1d        	ldy	#$1d
    5bd7: b1 02        	lda	($2),y                  ; 0x2002 <__heap_default_limit+0x1002>
    5bd9: 85 16        	sta	$16                     ; 0x2016 <next_line+0x1>
    5bdb: 68           	pla
    5bdc: a6 16        	ldx	$16                     ; 0x2016 <next_line+0x1>
    5bde: 20 a4 45     	jsr	$45a4 <UpdateSectors>
    5be1: a5 16        	lda	$16                     ; 0x2016 <next_line+0x1>
    5be3: 20 9c 4b     	jsr	$4b9c <Deselect>
    5be6: 4c e9 4f     	jmp	$4fe9 <navi+0x2a3>
    5be9: ae 32 8f     	ldx	$8f32                   ; 0x8f32 <legacyHDOSstate>
    5bec: d0 03        	bne	$5bf1 <navi+0xeab>
    5bee: 4c 2b 63     	jmp	$632b <donehypfindfirst6+0x3e>
    5bf1: a2 0b        	ldx	#$b
    5bf3: 86 04        	stx	$4                      ; 0x2004 <__heap_default_limit+0x1004>
    5bf5: a2 8d        	ldx	#$8d
    5bf7: 86 05        	stx	$5                      ; 0x2005 <__heap_default_limit+0x1005>
    5bf9: a2 d3        	ldx	#$d3
    5bfb: 86 06        	stx	$6                      ; 0x2006 <__heap_default_limit+0x1006>
    5bfd: a2 8c        	ldx	#$8c
    5bff: 86 07        	stx	$7                      ; 0x2007 <__heap_default_limit+0x1007>
    5c01: a2 35        	ldx	#$35
    5c03: 86 08        	stx	$8                      ; 0x2008 <__heap_default_limit+0x1008>
    5c05: a2 8d        	ldx	#$8d
    5c07: 4c 61 61     	jmp	$6161 <navi+0x141b>
    5c0a: a6 1c        	ldx	$1c                     ; 0x201c <next_line+0x7>
    5c0c: a5 1b        	lda	$1b                     ; 0x201b <next_line+0x6>
    5c0e: f0 03        	beq	$5c13 <navi+0xecd>
    5c10: 4c 22 5d     	jmp	$5d22 <navi+0xfdc>
    5c13: e0 0d        	cpx	#$d
    5c15: f0 03        	beq	$5c1a <navi+0xed4>
    5c17: 4c 22 5d     	jmp	$5d22 <navi+0xfdc>
    5c1a: a9 27        	lda	#$27
    5c1c: 18           	clc
    5c1d: 65 1a        	adc	$1a                     ; 0x201a <next_line+0x5>
    5c1f: 85 04        	sta	$4                      ; 0x2004 <__heap_default_limit+0x1004>
    5c21: a9 00        	lda	#$0
    5c23: 65 17        	adc	$17                     ; 0x2017 <next_line+0x2>
    5c25: 85 05        	sta	$5                      ; 0x2005 <__heap_default_limit+0x1005>
    5c27: b2 04        	lda	($4),z                  ; 0x2004 <__heap_default_limit+0x1004>
    5c29: 85 1e        	sta	$1e                     ; 0x201e <next_line+0x9>
    5c2b: b1 04        	lda	($4),y                  ; 0x2004 <__heap_default_limit+0x1004>
    5c2d: 85 1f        	sta	$1f                     ; 0x201f <next_line+0xa>
    5c2f: b1 1e        	lda	($1e),y                 ; 0x201e <next_line+0x9>
    5c31: aa           	tax
    5c32: a0 10        	ldy	#$10
    5c34: b1 02        	lda	($2),y                  ; 0x2002 <__heap_default_limit+0x1002>
    5c36: 20 a2 31     	jsr	$31a2 <getdirententry>
    5c39: a5 04        	lda	$4                      ; 0x2004 <__heap_default_limit+0x1004>
    5c3b: a0 0d        	ldy	#$d
    5c3d: 91 02        	sta	($2),y                  ; 0x2002 <__heap_default_limit+0x1002>
    5c3f: a5 05        	lda	$5                      ; 0x2005 <__heap_default_limit+0x1005>
    5c41: c8           	iny
    5c42: 91 02        	sta	($2),y                  ; 0x2002 <__heap_default_limit+0x1002>
    5c44: a9 00        	lda	#$0
    5c46: a6 19        	ldx	$19                     ; 0x2019 <next_line+0x4>
    5c48: e0 01        	cpx	#$1
    5c4a: 2a           	rol
    5c4b: 85 04        	sta	$4                      ; 0x2004 <__heap_default_limit+0x1004>
    5c4d: a6 1d        	ldx	$1d                     ; 0x201d <next_line+0x8>
    5c4f: e0 01        	cpx	#$1
    5c51: 2a           	rol
    5c52: a6 20        	ldx	$20                     ; 0x2020 <next_line+0xb>
    5c54: e0 01        	cpx	#$1
    5c56: 2a           	rol
    5c57: 85 07        	sta	$7                      ; 0x2007 <__heap_default_limit+0x1007>
    5c59: 06 16        	asl	$16                     ; 0x2016 <next_line+0x1>
    5c5b: 26 18        	rol	$18                     ; 0x2018 <next_line+0x3>
    5c5d: 26 07        	rol	$7                      ; 0x2007 <__heap_default_limit+0x1007>
    5c5f: 38           	sec
    5c60: a5 16        	lda	$16                     ; 0x2016 <next_line+0x1>
    5c62: e5 1a        	sbc	$1a                     ; 0x201a <next_line+0x5>
    5c64: 85 08        	sta	$8                      ; 0x2008 <__heap_default_limit+0x1008>
    5c66: a5 18        	lda	$18                     ; 0x2018 <next_line+0x3>
    5c68: e5 17        	sbc	$17                     ; 0x2017 <next_line+0x2>
    5c6a: 85 06        	sta	$6                      ; 0x2006 <__heap_default_limit+0x1006>
    5c6c: a5 07        	lda	$7                      ; 0x2007 <__heap_default_limit+0x1007>
    5c6e: e5 04        	sbc	$4                      ; 0x2004 <__heap_default_limit+0x1004>
    5c70: 85 07        	sta	$7                      ; 0x2007 <__heap_default_limit+0x1007>
    5c72: a0 01        	ldy	#$1
    5c74: b1 1e        	lda	($1e),y                 ; 0x201e <next_line+0x9>
    5c76: 4a           	lsr
    5c77: 64 04        	stz	$4                      ; 0x2004 <__heap_default_limit+0x1004>
    5c79: 66 04        	ror	$4                      ; 0x2004 <__heap_default_limit+0x1004>
    5c7b: 4a           	lsr
    5c7c: 85 05        	sta	$5                      ; 0x2005 <__heap_default_limit+0x1005>
    5c7e: 66 04        	ror	$4                      ; 0x2004 <__heap_default_limit+0x1004>
    5c80: a9 00        	lda	#$0
    5c82: 18           	clc
    5c83: 65 04        	adc	$4                      ; 0x2004 <__heap_default_limit+0x1004>
    5c85: a8           	tay
    5c86: a5 08        	lda	$8                      ; 0x2008 <__heap_default_limit+0x1008>
    5c88: 65 05        	adc	$5                      ; 0x2005 <__heap_default_limit+0x1005>
    5c8a: 85 05        	sta	$5                      ; 0x2005 <__heap_default_limit+0x1005>
    5c8c: a5 06        	lda	$6                      ; 0x2006 <__heap_default_limit+0x1006>
    5c8e: 69 00        	adc	#$0
    5c90: aa           	tax
    5c91: a5 07        	lda	$7                      ; 0x2007 <__heap_default_limit+0x1007>
    5c93: 69 00        	adc	#$0
    5c95: 85 04        	sta	$4                      ; 0x2004 <__heap_default_limit+0x1004>
    5c97: 18           	clc
    5c98: 98           	tya
    5c99: 69 00        	adc	#$0
    5c9b: 85 0c        	sta	$c                      ; 0x200c <__heap_default_limit+0x100c>
    5c9d: a5 05        	lda	$5                      ; 0x2005 <__heap_default_limit+0x1005>
    5c9f: 69 1c        	adc	#$1c
    5ca1: a8           	tay
    5ca2: 8a           	txa
    5ca3: 69 00        	adc	#$0
    5ca5: aa           	tax
    5ca6: a5 04        	lda	$4                      ; 0x2004 <__heap_default_limit+0x1004>
    5ca8: 69 08        	adc	#$8
    5caa: 86 04        	stx	$4                      ; 0x2004 <__heap_default_limit+0x1004>
    5cac: 85 05        	sta	$5                      ; 0x2005 <__heap_default_limit+0x1005>
    5cae: a2 33        	ldx	#$33
    5cb0: 86 06        	stx	$6                      ; 0x2006 <__heap_default_limit+0x1006>
    5cb2: a2 8f        	ldx	#$8f
    5cb4: 86 07        	stx	$7                      ; 0x2007 <__heap_default_limit+0x1007>
    5cb6: 64 08        	stz	$8                      ; 0x2008 <__heap_default_limit+0x1008>
    5cb8: 64 09        	stz	$9                      ; 0x2009 <__heap_default_limit+0x1009>
    5cba: a2 40        	ldx	#$40
    5cbc: 86 0a        	stx	$a                      ; 0x200a <__heap_default_limit+0x100a>
    5cbe: 64 0b        	stz	$b                      ; 0x200b <__heap_default_limit+0x100b>
    5cc0: 5a           	phy
    5cc1: fa           	plx
    5cc2: a5 0c        	lda	$c                      ; 0x200c <__heap_default_limit+0x100c>
    5cc4: 20 c7 7b     	jsr	$7bc7 <lcopy>
    5cc7: a9 01        	lda	#$1
    5cc9: a0 46        	ldy	#$46
    5ccb: 31 1e        	and	($1e),y                 ; 0x201e <next_line+0x9>
    5ccd: 29 01        	and	#$1
    5ccf: aa           	tax
    5cd0: a0 02        	ldy	#$2
    5cd2: 5a           	phy
    5cd3: a0 0d        	ldy	#$d
    5cd5: b1 02        	lda	($2),y                  ; 0x2002 <__heap_default_limit+0x1002>
    5cd7: 85 04        	sta	$4                      ; 0x2004 <__heap_default_limit+0x1004>
    5cd9: c8           	iny
    5cda: b1 02        	lda	($2),y                  ; 0x2002 <__heap_default_limit+0x1002>
    5cdc: 7a           	ply
    5cdd: 85 05        	sta	$5                      ; 0x2005 <__heap_default_limit+0x1005>
    5cdf: b1 04        	lda	($4),y                  ; 0x2004 <__heap_default_limit+0x1004>
    5ce1: e0 00        	cpx	#$0
    5ce3: f0 03        	beq	$5ce8 <navi+0xfa2>
    5ce5: 4c e4 68     	jmp	$68e4 <donehypd81dosattach9+0x75>
    5ce8: 29 10        	and	#$10
    5cea: f0 03        	beq	$5cef <navi+0xfa9>
    5cec: 4c eb 6c     	jmp	$6ceb <donehypclosedir17+0x41>
    5cef: b2 1e        	lda	($1e),z                 ; 0x201e <next_line+0x9>
    5cf1: 85 17        	sta	$17                     ; 0x2017 <next_line+0x2>
    5cf3: a2 33        	ldx	#$33
    5cf5: 86 04        	stx	$4                      ; 0x2004 <__heap_default_limit+0x1004>
    5cf7: a2 8f        	ldx	#$8f
    5cf9: 86 05        	stx	$5                      ; 0x2005 <__heap_default_limit+0x1005>
    5cfb: 20 9e 21     	jsr	$219e <hyppo_setname>
    5cfe: ae 32 8f     	ldx	$8f32                   ; 0x8f32 <legacyHDOSstate>
    5d01: a0 10        	ldy	#$10
    5d03: b1 02        	lda	($2),y                  ; 0x2002 <__heap_default_limit+0x1002>
    5d05: 85 16        	sta	$16                     ; 0x2016 <next_line+0x1>
    5d07: a5 17        	lda	$17                     ; 0x2017 <next_line+0x2>
    5d09: d0 03        	bne	$5d0e <navi+0xfc8>
    5d0b: 4c a0 6f     	jmp	$6fa0 <donehyp1att19+0x4>
    5d0e: a0 04        	ldy	#$4
    5d10: 8a           	txa
    5d11: f0 03        	beq	$5d16 <navi+0xfd0>
    5d13: 4c 87 6f     	jmp	$6f87 <donehypchdir18+0x278>
    5d16: 4c 61 71     	jmp	$7161 <donehyp0att20+0x1a4>
    5d19: 64 04        	stz	$4                      ; 0x2004 <__heap_default_limit+0x1004>
    5d1b: a9 00        	lda	#$0
    5d1d: 91 02        	sta	($2),y                  ; 0x2002 <__heap_default_limit+0x1002>
    5d1f: 4c e9 4f     	jmp	$4fe9 <navi+0x2a3>
    5d22: a5 1b        	lda	$1b                     ; 0x201b <next_line+0x6>
    5d24: f0 03        	beq	$5d29 <navi+0xfe3>
    5d26: 4c e0 61     	jmp	$61e0 <navi+0x149a>
    5d29: e0 11        	cpx	#$11
    5d2b: f0 03        	beq	$5d30 <navi+0xfea>
    5d2d: 4c e0 61     	jmp	$61e0 <navi+0x149a>
    5d30: a9 27        	lda	#$27
    5d32: 18           	clc
    5d33: 65 1a        	adc	$1a                     ; 0x201a <next_line+0x5>
    5d35: 85 04        	sta	$4                      ; 0x2004 <__heap_default_limit+0x1004>
    5d37: a9 00        	lda	#$0
    5d39: 65 17        	adc	$17                     ; 0x2017 <next_line+0x2>
    5d3b: 85 05        	sta	$5                      ; 0x2005 <__heap_default_limit+0x1005>
    5d3d: b2 04        	lda	($4),z                  ; 0x2004 <__heap_default_limit+0x1004>
    5d3f: aa           	tax
    5d40: b1 04        	lda	($4),y                  ; 0x2004 <__heap_default_limit+0x1004>
    5d42: 86 04        	stx	$4                      ; 0x2004 <__heap_default_limit+0x1004>
    5d44: 85 05        	sta	$5                      ; 0x2005 <__heap_default_limit+0x1005>
    5d46: b1 04        	lda	($4),y                  ; 0x2004 <__heap_default_limit+0x1004>
    5d48: 1a           	inc
    5d49: 91 04        	sta	($4),y                  ; 0x2004 <__heap_default_limit+0x1004>
    5d4b: 4c e9 4f     	jmp	$4fe9 <navi+0x2a3>
    5d4e: c0 70        	cpy	#$70
    5d50: d0 03        	bne	$5d55 <navi+0x100f>
    5d52: 4c c1 6f     	jmp	$6fc1 <donehyp0att20+0x4>
    5d55: a9 01        	lda	#$1
    5d57: 31 08        	and	($8),y                  ; 0x2008 <__heap_default_limit+0x1008>
    5d59: d0 03        	bne	$5d5e <navi+0x1018>
    5d5b: 4c 81 60     	jmp	$6081 <navi+0x133b>
    5d5e: 5a           	phy
    5d5f: a5 08        	lda	$8                      ; 0x2008 <__heap_default_limit+0x1008>
    5d61: a0 15        	ldy	#$15
    5d63: 91 02        	sta	($2),y                  ; 0x2002 <__heap_default_limit+0x1002>
    5d65: a5 09        	lda	$9                      ; 0x2009 <__heap_default_limit+0x1009>
    5d67: c8           	iny
    5d68: 91 02        	sta	($2),y                  ; 0x2002 <__heap_default_limit+0x1002>
    5d6a: 7a           	ply
    5d6b: 98           	tya
    5d6c: 5a           	phy
    5d6d: a0 14        	ldy	#$14
    5d6f: 91 02        	sta	($2),y                  ; 0x2002 <__heap_default_limit+0x1002>
    5d71: 7a           	ply
    5d72: 5a           	phy
    5d73: fa           	plx
    5d74: a0 10        	ldy	#$10
    5d76: b1 02        	lda	($2),y                  ; 0x2002 <__heap_default_limit+0x1002>
    5d78: 20 a2 31     	jsr	$31a2 <getdirententry>
    5d7b: a6 04        	ldx	$4                      ; 0x2004 <__heap_default_limit+0x1004>
    5d7d: 86 18        	stx	$18                     ; 0x2018 <next_line+0x3>
    5d7f: a6 05        	ldx	$5                      ; 0x2005 <__heap_default_limit+0x1005>
    5d81: 86 19        	stx	$19                     ; 0x2019 <next_line+0x4>
    5d83: a2 cc        	ldx	#$cc
    5d85: 86 04        	stx	$4                      ; 0x2004 <__heap_default_limit+0x1004>
    5d87: a2 8b        	ldx	#$8b
    5d89: 86 05        	stx	$5                      ; 0x2005 <__heap_default_limit+0x1005>
    5d8b: a5 04        	lda	$4                      ; 0x2004 <__heap_default_limit+0x1004>
    5d8d: a0 1d        	ldy	#$1d
    5d8f: 91 02        	sta	($2),y                  ; 0x2002 <__heap_default_limit+0x1002>
    5d91: a5 05        	lda	$5                      ; 0x2005 <__heap_default_limit+0x1005>
    5d93: c8           	iny
    5d94: 91 02        	sta	($2),y                  ; 0x2002 <__heap_default_limit+0x1002>
    5d96: 88           	dey
    5d97: b1 02        	lda	($2),y                  ; 0x2002 <__heap_default_limit+0x1002>
    5d99: 85 04        	sta	$4                      ; 0x2004 <__heap_default_limit+0x1004>
    5d9b: c8           	iny
    5d9c: b1 02        	lda	($2),y                  ; 0x2002 <__heap_default_limit+0x1002>
    5d9e: 85 05        	sta	$5                      ; 0x2005 <__heap_default_limit+0x1005>
    5da0: a2 27        	ldx	#$27
    5da2: 86 06        	stx	$6                      ; 0x2006 <__heap_default_limit+0x1006>
    5da4: a2 8b        	ldx	#$8b
    5da6: 86 07        	stx	$7                      ; 0x2007 <__heap_default_limit+0x1007>
    5da8: a9 14        	lda	#$14
    5daa: 20 5d 3e     	jsr	$3e5d <progress>
    5dad: a0 1b        	ldy	#$1b
    5daf: b1 02        	lda	($2),y                  ; 0x2002 <__heap_default_limit+0x1002>
    5db1: 85 04        	sta	$4                      ; 0x2004 <__heap_default_limit+0x1004>
    5db3: c8           	iny
    5db4: b1 02        	lda	($2),y                  ; 0x2002 <__heap_default_limit+0x1002>
    5db6: 85 05        	sta	$5                      ; 0x2005 <__heap_default_limit+0x1005>
    5db8: b2 04        	lda	($4),z                  ; 0x2004 <__heap_default_limit+0x1004>
    5dba: 85 08        	sta	$8                      ; 0x2008 <__heap_default_limit+0x1008>
    5dbc: a0 03        	ldy	#$3
    5dbe: b1 18        	lda	($18),y                 ; 0x2018 <next_line+0x3>
    5dc0: 85 09        	sta	$9                      ; 0x2009 <__heap_default_limit+0x1009>
    5dc2: c8           	iny
    5dc3: b1 18        	lda	($18),y                 ; 0x2018 <next_line+0x3>
    5dc5: 64 04        	stz	$4                      ; 0x2004 <__heap_default_limit+0x1004>
    5dc7: a2 08        	ldx	#$8
    5dc9: 86 05        	stx	$5                      ; 0x2005 <__heap_default_limit+0x1005>
    5dcb: a2 80        	ldx	#$80
    5dcd: 86 06        	stx	$6                      ; 0x2006 <__heap_default_limit+0x1006>
    5dcf: a2 0c        	ldx	#$c
    5dd1: 86 07        	stx	$7                      ; 0x2007 <__heap_default_limit+0x1007>
    5dd3: 85 0a        	sta	$a                      ; 0x200a <__heap_default_limit+0x100a>
    5dd5: a2 3c        	ldx	#$3c
    5dd7: a9 00        	lda	#$0
    5dd9: 20 bb 26     	jsr	$26bb <readblockchain>
    5ddc: a0 1d        	ldy	#$1d
    5dde: b1 02        	lda	($2),y                  ; 0x2002 <__heap_default_limit+0x1002>
    5de0: 85 04        	sta	$4                      ; 0x2004 <__heap_default_limit+0x1004>
    5de2: c8           	iny
    5de3: b1 02        	lda	($2),y                  ; 0x2002 <__heap_default_limit+0x1002>
    5de5: 85 05        	sta	$5                      ; 0x2005 <__heap_default_limit+0x1005>
    5de7: a2 52        	ldx	#$52
    5de9: 86 06        	stx	$6                      ; 0x2006 <__heap_default_limit+0x1006>
    5deb: a2 86        	ldx	#$86
    5ded: 86 07        	stx	$7                      ; 0x2007 <__heap_default_limit+0x1007>
    5def: 98           	tya
    5df0: 20 5d 3e     	jsr	$3e5d <progress>
    5df3: a0 1a        	ldy	#$1a
    5df5: b1 02        	lda	($2),y                  ; 0x2002 <__heap_default_limit+0x1002>
    5df7: 20 22 26     	jsr	$2622 <GetBAM>
    5dfa: a2 2f        	ldx	#$2f
    5dfc: 86 04        	stx	$4                      ; 0x2004 <__heap_default_limit+0x1004>
    5dfe: a2 8a        	ldx	#$8a
    5e00: 86 05        	stx	$5                      ; 0x2005 <__heap_default_limit+0x1005>
    5e02: a2 e2        	ldx	#$e2
    5e04: 86 06        	stx	$6                      ; 0x2006 <__heap_default_limit+0x1006>
    5e06: a2 83        	ldx	#$83
    5e08: 86 07        	stx	$7                      ; 0x2007 <__heap_default_limit+0x1007>
    5e0a: a9 28        	lda	#$28
    5e0c: 20 5d 3e     	jsr	$3e5d <progress>
    5e0f: b2 1a        	lda	($1a),z                 ; 0x201a <next_line+0x5>
    5e11: a0 12        	ldy	#$12
    5e13: 91 02        	sta	($2),y                  ; 0x2002 <__heap_default_limit+0x1002>
    5e15: a0 47        	ldy	#$47
    5e17: b1 1a        	lda	($1a),y                 ; 0x201a <next_line+0x5>
    5e19: 85 0c        	sta	$c                      ; 0x200c <__heap_default_limit+0x100c>
    5e1b: c8           	iny
    5e1c: b1 1a        	lda	($1a),y                 ; 0x201a <next_line+0x5>
    5e1e: 85 0a        	sta	$a                      ; 0x200a <__heap_default_limit+0x100a>
    5e20: c8           	iny
    5e21: 5a           	phy
    5e22: a5 1a        	lda	$1a                     ; 0x201a <next_line+0x5>
    5e24: a0 17        	ldy	#$17
    5e26: 91 02        	sta	($2),y                  ; 0x2002 <__heap_default_limit+0x1002>
    5e28: a5 1b        	lda	$1b                     ; 0x201b <next_line+0x6>
    5e2a: c8           	iny
    5e2b: 91 02        	sta	($2),y                  ; 0x2002 <__heap_default_limit+0x1002>
    5e2d: 7a           	ply
    5e2e: b1 1a        	lda	($1a),y                 ; 0x201a <next_line+0x5>
    5e30: a8           	tay
    5e31: 18           	clc
    5e32: 5a           	phy
    5e33: a5 02        	lda	$2                      ; 0x2002 <__heap_default_limit+0x1002>
    5e35: 69 25        	adc	#$25
    5e37: 85 06        	sta	$6                      ; 0x2006 <__heap_default_limit+0x1006>
    5e39: a5 03        	lda	$3                      ; 0x2003 <__heap_default_limit+0x1003>
    5e3b: 69 00        	adc	#$0
    5e3d: 85 07        	sta	$7                      ; 0x2007 <__heap_default_limit+0x1007>
    5e3f: a9 00        	lda	#$0
    5e41: 48           	pha
    5e42: a5 06        	lda	$6                      ; 0x2006 <__heap_default_limit+0x1006>
    5e44: a0 0a        	ldy	#$a
    5e46: 91 02        	sta	($2),y                  ; 0x2002 <__heap_default_limit+0x1002>
    5e48: a5 07        	lda	$7                      ; 0x2007 <__heap_default_limit+0x1007>
    5e4a: c8           	iny
    5e4b: 91 02        	sta	($2),y                  ; 0x2002 <__heap_default_limit+0x1002>
    5e4d: 68           	pla
    5e4e: 92 06        	sta	($6),z                  ; 0x2006 <__heap_default_limit+0x1006>
    5e50: 18           	clc
    5e51: a5 02        	lda	$2                      ; 0x2002 <__heap_default_limit+0x1002>
    5e53: 69 24        	adc	#$24
    5e55: 85 1a        	sta	$1a                     ; 0x201a <next_line+0x5>
    5e57: a5 03        	lda	$3                      ; 0x2003 <__heap_default_limit+0x1003>
    5e59: 69 00        	adc	#$0
    5e5b: 85 1b        	sta	$1b                     ; 0x201b <next_line+0x6>
    5e5d: a9 ff        	lda	#$ff
    5e5f: aa           	tax
    5e60: 48           	pha
    5e61: 8a           	txa
    5e62: a0 1d        	ldy	#$1d
    5e64: 91 02        	sta	($2),y                  ; 0x2002 <__heap_default_limit+0x1002>
    5e66: 68           	pla
    5e67: 92 1a        	sta	($1a),z                 ; 0x201a <next_line+0x5>
    5e69: 18           	clc
    5e6a: a5 02        	lda	$2                      ; 0x2002 <__heap_default_limit+0x1002>
    5e6c: 69 23        	adc	#$23
    5e6e: 85 1e        	sta	$1e                     ; 0x201e <next_line+0x9>
    5e70: a5 03        	lda	$3                      ; 0x2003 <__heap_default_limit+0x1003>
    5e72: 69 00        	adc	#$0
    5e74: 85 1f        	sta	$1f                     ; 0x201f <next_line+0xa>
    5e76: a6 1e        	ldx	$1e                     ; 0x201e <next_line+0x9>
    5e78: 86 04        	stx	$4                      ; 0x2004 <__heap_default_limit+0x1004>
    5e7a: 85 05        	sta	$5                      ; 0x2005 <__heap_default_limit+0x1005>
    5e7c: 18           	clc
    5e7d: a5 02        	lda	$2                      ; 0x2002 <__heap_default_limit+0x1002>
    5e7f: 69 22        	adc	#$22
    5e81: 85 20        	sta	$20                     ; 0x2020 <next_line+0xb>
    5e83: a5 03        	lda	$3                      ; 0x2003 <__heap_default_limit+0x1003>
    5e85: 69 00        	adc	#$0
    5e87: 85 21        	sta	$21                     ; 0x2021 <_start>
    5e89: a6 20        	ldx	$20                     ; 0x2020 <next_line+0xb>
    5e8b: 86 06        	stx	$6                      ; 0x2006 <__heap_default_limit+0x1006>
    5e8d: 85 07        	sta	$7                      ; 0x2007 <__heap_default_limit+0x1007>
    5e8f: a5 0a        	lda	$a                      ; 0x200a <__heap_default_limit+0x100a>
    5e91: a0 0d        	ldy	#$d
    5e93: 91 02        	sta	($2),y                  ; 0x2002 <__heap_default_limit+0x1002>
    5e95: 7a           	ply
    5e96: a6 0a        	ldx	$a                      ; 0x200a <__heap_default_limit+0x100a>
    5e98: 86 08        	stx	$8                      ; 0x2008 <__heap_default_limit+0x1008>
    5e9a: 84 09        	sty	$9                      ; 0x2009 <__heap_default_limit+0x1009>
    5e9c: 98           	tya
    5e9d: a0 0c        	ldy	#$c
    5e9f: 91 02        	sta	($2),y                  ; 0x2002 <__heap_default_limit+0x1002>
    5ea1: a6 0c        	ldx	$c                      ; 0x200c <__heap_default_limit+0x100c>
    5ea3: 8a           	txa
    5ea4: a0 11        	ldy	#$11
    5ea6: 91 02        	sta	($2),y                  ; 0x2002 <__heap_default_limit+0x1002>
    5ea8: a9 00        	lda	#$0
    5eaa: 20 b8 2f     	jsr	$2fb8 <findnextBAMtracksector>
    5ead: b2 1e        	lda	($1e),z                 ; 0x201e <next_line+0x9>
    5eaf: aa           	tax
    5eb0: b2 20        	lda	($20),z                 ; 0x2020 <next_line+0xb>
    5eb2: 64 1c        	stz	$1c                     ; 0x201c <next_line+0x7>
    5eb4: 64 17        	stz	$17                     ; 0x2017 <next_line+0x2>
    5eb6: a0 13        	ldy	#$13
    5eb8: 91 02        	sta	($2),y                  ; 0x2002 <__heap_default_limit+0x1002>
    5eba: 85 1e        	sta	$1e                     ; 0x201e <next_line+0x9>
    5ebc: 8a           	txa
    5ebd: a0 19        	ldy	#$19
    5ebf: 91 02        	sta	($2),y                  ; 0x2002 <__heap_default_limit+0x1002>
    5ec1: a0 00        	ldy	#$0
    5ec3: 4c 8c 5f     	jmp	$5f8c <navi+0x1246>
    5ec6: c0 0c        	cpy	#$c
    5ec8: 90 03        	bcc	$5ecd <navi+0x1187>
    5eca: 4c 9c 5f     	jmp	$5f9c <navi+0x1256>
    5ecd: 85 16        	sta	$16                     ; 0x2016 <next_line+0x1>
    5ecf: a5 1c        	lda	$1c                     ; 0x201c <next_line+0x7>
    5ed1: 18           	clc
    5ed2: 69 3c        	adc	#$3c
    5ed4: 85 0c        	sta	$c                      ; 0x200c <__heap_default_limit+0x100c>
    5ed6: 84 1f        	sty	$1f                     ; 0x201f <next_line+0xa>
    5ed8: 98           	tya
    5ed9: 69 00        	adc	#$0
    5edb: 85 04        	sta	$4                      ; 0x2004 <__heap_default_limit+0x1004>
    5edd: a9 00        	lda	#$0
    5edf: 69 08        	adc	#$8
    5ee1: 85 05        	sta	$5                      ; 0x2005 <__heap_default_limit+0x1005>
    5ee3: 64 06        	stz	$6                      ; 0x2006 <__heap_default_limit+0x1006>
    5ee5: a2 19        	ldx	#$19
    5ee7: 86 07        	stx	$7                      ; 0x2007 <__heap_default_limit+0x1007>
    5ee9: 64 08        	stz	$8                      ; 0x2008 <__heap_default_limit+0x1008>
    5eeb: 64 09        	stz	$9                      ; 0x2009 <__heap_default_limit+0x1009>
    5eed: 64 0a        	stz	$a                      ; 0x200a <__heap_default_limit+0x100a>
    5eef: a2 01        	ldx	#$1
    5ef1: 86 0b        	stx	$b                      ; 0x200b <__heap_default_limit+0x100b>
    5ef3: a6 0c        	ldx	$c                      ; 0x200c <__heap_default_limit+0x100c>
    5ef5: a9 00        	lda	#$0
    5ef7: 20 c7 7b     	jsr	$7bc7 <lcopy>
    5efa: ae 00 19     	ldx	$1900                   ; 0x1900 <__heap_default_limit+0x900>
    5efd: d0 03        	bne	$5f02 <navi+0x11bc>
    5eff: 4c 60 5f     	jmp	$5f60 <navi+0x121a>
    5f02: a0 0a        	ldy	#$a
    5f04: b1 02        	lda	($2),y                  ; 0x2002 <__heap_default_limit+0x1002>
    5f06: 85 20        	sta	$20                     ; 0x2020 <next_line+0xb>
    5f08: c8           	iny
    5f09: b1 02        	lda	($2),y                  ; 0x2002 <__heap_default_limit+0x1002>
    5f0b: 85 21        	sta	$21                     ; 0x2021 <_start>
    5f0d: a6 20        	ldx	$20                     ; 0x2020 <next_line+0xb>
    5f0f: 86 04        	stx	$4                      ; 0x2004 <__heap_default_limit+0x1004>
    5f11: 85 05        	sta	$5                      ; 0x2005 <__heap_default_limit+0x1005>
    5f13: a6 1a        	ldx	$1a                     ; 0x201a <next_line+0x5>
    5f15: 86 06        	stx	$6                      ; 0x2006 <__heap_default_limit+0x1006>
    5f17: a6 1b        	ldx	$1b                     ; 0x201b <next_line+0x6>
    5f19: 86 07        	stx	$7                      ; 0x2007 <__heap_default_limit+0x1007>
    5f1b: a9 00        	lda	#$0
    5f1d: 48           	pha
    5f1e: a0 0d        	ldy	#$d
    5f20: b1 02        	lda	($2),y                  ; 0x2002 <__heap_default_limit+0x1002>
    5f22: 85 08        	sta	$8                      ; 0x2008 <__heap_default_limit+0x1008>
    5f24: 88           	dey
    5f25: b1 02        	lda	($2),y                  ; 0x2002 <__heap_default_limit+0x1002>
    5f27: 85 09        	sta	$9                      ; 0x2009 <__heap_default_limit+0x1009>
    5f29: a0 11        	ldy	#$11
    5f2b: b1 02        	lda	($2),y                  ; 0x2002 <__heap_default_limit+0x1002>
    5f2d: aa           	tax
    5f2e: 68           	pla
    5f2f: 20 b8 2f     	jsr	$2fb8 <findnextBAMtracksector>
    5f32: b2 20        	lda	($20),z                 ; 0x2020 <next_line+0xb>
    5f34: 85 17        	sta	$17                     ; 0x2017 <next_line+0x2>
    5f36: b2 20        	lda	($20),z                 ; 0x2020 <next_line+0xb>
    5f38: 8d 00 19     	sta	$1900                   ; 0x1900 <__heap_default_limit+0x900>
    5f3b: b2 1a        	lda	($1a),z                 ; 0x201a <next_line+0x5>
    5f3d: a0 1d        	ldy	#$1d
    5f3f: 91 02        	sta	($2),y                  ; 0x2002 <__heap_default_limit+0x1002>
    5f41: b2 1a        	lda	($1a),z                 ; 0x201a <next_line+0x5>
    5f43: 8d 01 19     	sta	$1901                   ; 0x1901 <__heap_default_limit+0x901>
    5f46: a5 17        	lda	$17                     ; 0x2017 <next_line+0x2>
    5f48: f0 14        	beq	$5f5e <navi+0x1218>
    5f4a: a6 16        	ldx	$16                     ; 0x2016 <next_line+0x1>
    5f4c: e4 17        	cpx	$17                     ; 0x2017 <next_line+0x2>
    5f4e: d0 10        	bne	$5f60 <navi+0x121a>
    5f50: b1 02        	lda	($2),y                  ; 0x2002 <__heap_default_limit+0x1002>
    5f52: 45 1e        	eor	$1e                     ; 0x201e <next_line+0x9>
    5f54: c9 02        	cmp	#$2
    5f56: 90 03        	bcc	$5f5b <navi+0x1215>
    5f58: 4c 32 61     	jmp	$6132 <navi+0x13ec>
    5f5b: 4c 8f 60     	jmp	$608f <navi+0x1349>
    5f5e: 64 17        	stz	$17                     ; 0x2017 <next_line+0x2>
    5f60: a2 00        	ldx	#$0
    5f62: 86 04        	stx	$4                      ; 0x2004 <__heap_default_limit+0x1004>
    5f64: a2 19        	ldx	#$19
    5f66: 86 05        	stx	$5                      ; 0x2005 <__heap_default_limit+0x1005>
    5f68: a6 1e        	ldx	$1e                     ; 0x201e <next_line+0x9>
    5f6a: 86 06        	stx	$6                      ; 0x2006 <__heap_default_limit+0x1006>
    5f6c: a6 16        	ldx	$16                     ; 0x2016 <next_line+0x1>
    5f6e: a0 12        	ldy	#$12
    5f70: b1 02        	lda	($2),y                  ; 0x2002 <__heap_default_limit+0x1002>
    5f72: 20 d1 25     	jsr	$25d1 <PutOneSector>
    5f75: ae 00 19     	ldx	$1900                   ; 0x1900 <__heap_default_limit+0x900>
    5f78: a4 1f        	ldy	$1f                     ; 0x201f <next_line+0xa>
    5f7a: 8a           	txa
    5f7b: f0 1f        	beq	$5f9c <navi+0x1256>
    5f7d: e6 1c        	inc	$1c                     ; 0x201c <next_line+0x7>
    5f7f: d0 01        	bne	$5f82 <navi+0x123c>
    5f81: c8           	iny
    5f82: 5a           	phy
    5f83: a0 1d        	ldy	#$1d
    5f85: b1 02        	lda	($2),y                  ; 0x2002 <__heap_default_limit+0x1002>
    5f87: 7a           	ply
    5f88: 85 1e        	sta	$1e                     ; 0x201e <next_line+0x9>
    5f8a: a5 17        	lda	$17                     ; 0x2017 <next_line+0x2>
    5f8c: c0 0c        	cpy	#$c
    5f8e: f0 03        	beq	$5f93 <navi+0x124d>
    5f90: 4c c6 5e     	jmp	$5ec6 <navi+0x1180>
    5f93: a6 1c        	ldx	$1c                     ; 0x201c <next_line+0x7>
    5f95: e0 80        	cpx	#$80
    5f97: b0 03        	bcs	$5f9c <navi+0x1256>
    5f99: 4c cd 5e     	jmp	$5ecd <navi+0x1187>
    5f9c: 5a           	phy
    5f9d: a0 17        	ldy	#$17
    5f9f: b1 02        	lda	($2),y                  ; 0x2002 <__heap_default_limit+0x1002>
    5fa1: 85 1a        	sta	$1a                     ; 0x201a <next_line+0x5>
    5fa3: c8           	iny
    5fa4: b1 02        	lda	($2),y                  ; 0x2002 <__heap_default_limit+0x1002>
    5fa6: 7a           	ply
    5fa7: 85 1b        	sta	$1b                     ; 0x201b <next_line+0x6>
    5fa9: a5 17        	lda	$17                     ; 0x2017 <next_line+0x2>
    5fab: d0 03        	bne	$5fb0 <navi+0x126a>
    5fad: 4c e4 5f     	jmp	$5fe4 <navi+0x129e>
    5fb0: c0 0c        	cpy	#$c
    5fb2: f0 03        	beq	$5fb7 <navi+0x1271>
    5fb4: 4c 85 60     	jmp	$6085 <navi+0x133f>
    5fb7: a6 1c        	ldx	$1c                     ; 0x201c <next_line+0x7>
    5fb9: e0 80        	cpx	#$80
    5fbb: 90 27        	bcc	$5fe4 <navi+0x129e>
    5fbd: a2 19        	ldx	#$19
    5fbf: 86 04        	stx	$4                      ; 0x2004 <__heap_default_limit+0x1004>
    5fc1: a2 8b        	ldx	#$8b
    5fc3: 86 05        	stx	$5                      ; 0x2005 <__heap_default_limit+0x1005>
    5fc5: a2 60        	ldx	#$60
    5fc7: 86 06        	stx	$6                      ; 0x2006 <__heap_default_limit+0x1006>
    5fc9: a2 83        	ldx	#$83
    5fcb: 86 07        	stx	$7                      ; 0x2007 <__heap_default_limit+0x1007>
    5fcd: a2 29        	ldx	#$29
    5fcf: 86 08        	stx	$8                      ; 0x2008 <__heap_default_limit+0x1008>
    5fd1: a2 86        	ldx	#$86
    5fd3: 86 09        	stx	$9                      ; 0x2009 <__heap_default_limit+0x1009>
    5fd5: a2 0c        	ldx	#$c
    5fd7: 86 0a        	stx	$a                      ; 0x200a <__heap_default_limit+0x100a>
    5fd9: 64 0b        	stz	$b                      ; 0x200b <__heap_default_limit+0x100b>
    5fdb: 64 0c        	stz	$c                      ; 0x200c <__heap_default_limit+0x100c>
    5fdd: a2 80        	ldx	#$80
    5fdf: a9 03        	lda	#$3
    5fe1: 20 b5 3c     	jsr	$3cb5 <messagebox>
    5fe4: a0 03        	ldy	#$3
    5fe6: 5a           	phy
    5fe7: a0 19        	ldy	#$19
    5fe9: b1 02        	lda	($2),y                  ; 0x2002 <__heap_default_limit+0x1002>
    5feb: 7a           	ply
    5fec: 91 18        	sta	($18),y                 ; 0x2018 <next_line+0x3>
    5fee: a0 13        	ldy	#$13
    5ff0: b1 02        	lda	($2),y                  ; 0x2002 <__heap_default_limit+0x1002>
    5ff2: a0 04        	ldy	#$4
    5ff4: 91 18        	sta	($18),y                 ; 0x2018 <next_line+0x3>
    5ff6: a2 2f        	ldx	#$2f
    5ff8: 86 04        	stx	$4                      ; 0x2004 <__heap_default_limit+0x1004>
    5ffa: a2 8a        	ldx	#$8a
    5ffc: 86 05        	stx	$5                      ; 0x2005 <__heap_default_limit+0x1005>
    5ffe: a5 04        	lda	$4                      ; 0x2004 <__heap_default_limit+0x1004>
    6000: a0 1d        	ldy	#$1d
    6002: 91 02        	sta	($2),y                  ; 0x2002 <__heap_default_limit+0x1002>
    6004: a5 05        	lda	$5                      ; 0x2005 <__heap_default_limit+0x1005>
    6006: c8           	iny
    6007: 91 02        	sta	($2),y                  ; 0x2002 <__heap_default_limit+0x1002>
    6009: 88           	dey
    600a: b1 02        	lda	($2),y                  ; 0x2002 <__heap_default_limit+0x1002>
    600c: 85 04        	sta	$4                      ; 0x2004 <__heap_default_limit+0x1004>
    600e: c8           	iny
    600f: b1 02        	lda	($2),y                  ; 0x2002 <__heap_default_limit+0x1002>
    6011: 85 05        	sta	$5                      ; 0x2005 <__heap_default_limit+0x1005>
    6013: a2 a5        	ldx	#$a5
    6015: 86 06        	stx	$6                      ; 0x2006 <__heap_default_limit+0x1006>
    6017: a2 8c        	ldx	#$8c
    6019: 86 07        	stx	$7                      ; 0x2007 <__heap_default_limit+0x1007>
    601b: a9 3c        	lda	#$3c
    601d: 20 5d 3e     	jsr	$3e5d <progress>
    6020: b2 1a        	lda	($1a),z                 ; 0x201a <next_line+0x5>
    6022: 85 07        	sta	$7                      ; 0x2007 <__heap_default_limit+0x1007>
    6024: a0 47        	ldy	#$47
    6026: b1 1a        	lda	($1a),y                 ; 0x201a <next_line+0x5>
    6028: 85 04        	sta	$4                      ; 0x2004 <__heap_default_limit+0x1004>
    602a: c8           	iny
    602b: b1 1a        	lda	($1a),y                 ; 0x201a <next_line+0x5>
    602d: 85 05        	sta	$5                      ; 0x2005 <__heap_default_limit+0x1005>
    602f: c8           	iny
    6030: b1 1a        	lda	($1a),y                 ; 0x201a <next_line+0x5>
    6032: a6 18        	ldx	$18                     ; 0x2018 <next_line+0x3>
    6034: 86 08        	stx	$8                      ; 0x2008 <__heap_default_limit+0x1008>
    6036: a6 19        	ldx	$19                     ; 0x2019 <next_line+0x4>
    6038: 86 09        	stx	$9                      ; 0x2009 <__heap_default_limit+0x1009>
    603a: 85 06        	sta	$6                      ; 0x2006 <__heap_default_limit+0x1006>
    603c: a0 1a        	ldy	#$1a
    603e: b1 02        	lda	($2),y                  ; 0x2002 <__heap_default_limit+0x1002>
    6040: 85 17        	sta	$17                     ; 0x2017 <next_line+0x2>
    6042: aa           	tax
    6043: a5 07        	lda	$7                      ; 0x2007 <__heap_default_limit+0x1007>
    6045: 20 84 32     	jsr	$3284 <writenewdirententry>
    6048: a0 1d        	ldy	#$1d
    604a: b1 02        	lda	($2),y                  ; 0x2002 <__heap_default_limit+0x1002>
    604c: 85 04        	sta	$4                      ; 0x2004 <__heap_default_limit+0x1004>
    604e: c8           	iny
    604f: b1 02        	lda	($2),y                  ; 0x2002 <__heap_default_limit+0x1002>
    6051: 85 05        	sta	$5                      ; 0x2005 <__heap_default_limit+0x1005>
    6053: a2 52        	ldx	#$52
    6055: 86 06        	stx	$6                      ; 0x2006 <__heap_default_limit+0x1006>
    6057: a2 86        	ldx	#$86
    6059: 86 07        	stx	$7                      ; 0x2007 <__heap_default_limit+0x1007>
    605b: a9 50        	lda	#$50
    605d: 20 5d 3e     	jsr	$3e5d <progress>
    6060: b2 1a        	lda	($1a),z                 ; 0x201a <next_line+0x5>
    6062: 85 05        	sta	$5                      ; 0x2005 <__heap_default_limit+0x1005>
    6064: a0 47        	ldy	#$47
    6066: b1 1a        	lda	($1a),y                 ; 0x201a <next_line+0x5>
    6068: 85 04        	sta	$4                      ; 0x2004 <__heap_default_limit+0x1004>
    606a: a6 17        	ldx	$17                     ; 0x2017 <next_line+0x2>
    606c: a5 05        	lda	$5                      ; 0x2005 <__heap_default_limit+0x1005>
    606e: 20 5b 26     	jsr	$265b <PutBAM>
    6071: a0 15        	ldy	#$15
    6073: b1 02        	lda	($2),y                  ; 0x2002 <__heap_default_limit+0x1002>
    6075: 85 08        	sta	$8                      ; 0x2008 <__heap_default_limit+0x1008>
    6077: c8           	iny
    6078: b1 02        	lda	($2),y                  ; 0x2002 <__heap_default_limit+0x1002>
    607a: 85 09        	sta	$9                      ; 0x2009 <__heap_default_limit+0x1009>
    607c: a0 14        	ldy	#$14
    607e: b1 02        	lda	($2),y                  ; 0x2002 <__heap_default_limit+0x1002>
    6080: a8           	tay
    6081: c8           	iny
    6082: 4c 4e 5d     	jmp	$5d4e <navi+0x1008>
    6085: c0 0c        	cpy	#$c
    6087: 90 03        	bcc	$608c <navi+0x1346>
    6089: 4c bd 5f     	jmp	$5fbd <navi+0x1277>
    608c: 4c e4 5f     	jmp	$5fe4 <navi+0x129e>
    608f: a6 1c        	ldx	$1c                     ; 0x201c <next_line+0x7>
    6091: a4 1f        	ldy	$1f                     ; 0x201f <next_line+0xa>
    6093: e8           	inx
    6094: d0 01        	bne	$6097 <navi+0x1351>
    6096: c8           	iny
    6097: 18           	clc
    6098: 86 1c        	stx	$1c                     ; 0x201c <next_line+0x7>
    609a: 8a           	txa
    609b: 69 3c        	adc	#$3c
    609d: 85 0c        	sta	$c                      ; 0x200c <__heap_default_limit+0x100c>
    609f: 84 1f        	sty	$1f                     ; 0x201f <next_line+0xa>
    60a1: 98           	tya
    60a2: 69 00        	adc	#$0
    60a4: 85 04        	sta	$4                      ; 0x2004 <__heap_default_limit+0x1004>
    60a6: a9 00        	lda	#$0
    60a8: 69 08        	adc	#$8
    60aa: 85 05        	sta	$5                      ; 0x2005 <__heap_default_limit+0x1005>
    60ac: 64 06        	stz	$6                      ; 0x2006 <__heap_default_limit+0x1006>
    60ae: a2 1a        	ldx	#$1a
    60b0: 86 07        	stx	$7                      ; 0x2007 <__heap_default_limit+0x1007>
    60b2: 64 08        	stz	$8                      ; 0x2008 <__heap_default_limit+0x1008>
    60b4: 64 09        	stz	$9                      ; 0x2009 <__heap_default_limit+0x1009>
    60b6: 64 0a        	stz	$a                      ; 0x200a <__heap_default_limit+0x100a>
    60b8: a2 01        	ldx	#$1
    60ba: 86 0b        	stx	$b                      ; 0x200b <__heap_default_limit+0x100b>
    60bc: a6 0c        	ldx	$c                      ; 0x200c <__heap_default_limit+0x100c>
    60be: a9 00        	lda	#$0
    60c0: 20 c7 7b     	jsr	$7bc7 <lcopy>
    60c3: ae 00 1a     	ldx	$1a00                   ; 0x1a00 <__heap_default_limit+0xa00>
    60c6: a5 16        	lda	$16                     ; 0x2016 <next_line+0x1>
    60c8: 85 17        	sta	$17                     ; 0x2017 <next_line+0x2>
    60ca: e0 00        	cpx	#$0
    60cc: d0 03        	bne	$60d1 <navi+0x138b>
    60ce: 4c 15 61     	jmp	$6115 <navi+0x13cf>
    60d1: a0 0a        	ldy	#$a
    60d3: b1 02        	lda	($2),y                  ; 0x2002 <__heap_default_limit+0x1002>
    60d5: 85 20        	sta	$20                     ; 0x2020 <next_line+0xb>
    60d7: c8           	iny
    60d8: b1 02        	lda	($2),y                  ; 0x2002 <__heap_default_limit+0x1002>
    60da: 85 21        	sta	$21                     ; 0x2021 <_start>
    60dc: a6 20        	ldx	$20                     ; 0x2020 <next_line+0xb>
    60de: 86 04        	stx	$4                      ; 0x2004 <__heap_default_limit+0x1004>
    60e0: 85 05        	sta	$5                      ; 0x2005 <__heap_default_limit+0x1005>
    60e2: a6 1a        	ldx	$1a                     ; 0x201a <next_line+0x5>
    60e4: 86 06        	stx	$6                      ; 0x2006 <__heap_default_limit+0x1006>
    60e6: a6 1b        	ldx	$1b                     ; 0x201b <next_line+0x6>
    60e8: 86 07        	stx	$7                      ; 0x2007 <__heap_default_limit+0x1007>
    60ea: a0 0d        	ldy	#$d
    60ec: b1 02        	lda	($2),y                  ; 0x2002 <__heap_default_limit+0x1002>
    60ee: 85 08        	sta	$8                      ; 0x2008 <__heap_default_limit+0x1008>
    60f0: 88           	dey
    60f1: b1 02        	lda	($2),y                  ; 0x2002 <__heap_default_limit+0x1002>
    60f3: 85 09        	sta	$9                      ; 0x2009 <__heap_default_limit+0x1009>
    60f5: a0 11        	ldy	#$11
    60f7: b1 02        	lda	($2),y                  ; 0x2002 <__heap_default_limit+0x1002>
    60f9: aa           	tax
    60fa: a9 00        	lda	#$0
    60fc: 20 b8 2f     	jsr	$2fb8 <findnextBAMtracksector>
    60ff: b2 20        	lda	($20),z                 ; 0x2020 <next_line+0xb>
    6101: 85 17        	sta	$17                     ; 0x2017 <next_line+0x2>
    6103: b2 20        	lda	($20),z                 ; 0x2020 <next_line+0xb>
    6105: 8d 00 1a     	sta	$1a00                   ; 0x1a00 <__heap_default_limit+0xa00>
    6108: b2 1a        	lda	($1a),z                 ; 0x201a <next_line+0x5>
    610a: a0 1d        	ldy	#$1d
    610c: 91 02        	sta	($2),y                  ; 0x2002 <__heap_default_limit+0x1002>
    610e: b2 1a        	lda	($1a),z                 ; 0x201a <next_line+0x5>
    6110: 8d 01 1a     	sta	$1a01                   ; 0x1a01 <__heap_default_limit+0xa01>
    6113: a5 16        	lda	$16                     ; 0x2016 <next_line+0x1>
    6115: a2 00        	ldx	#$0
    6117: 86 04        	stx	$4                      ; 0x2004 <__heap_default_limit+0x1004>
    6119: a2 19        	ldx	#$19
    611b: 86 05        	stx	$5                      ; 0x2005 <__heap_default_limit+0x1005>
    611d: a6 1e        	ldx	$1e                     ; 0x201e <next_line+0x9>
    611f: 86 06        	stx	$6                      ; 0x2006 <__heap_default_limit+0x1006>
    6121: aa           	tax
    6122: a0 12        	ldy	#$12
    6124: b1 02        	lda	($2),y                  ; 0x2002 <__heap_default_limit+0x1002>
    6126: 20 4d 25     	jsr	$254d <PutWholeSector>
    6129: ae 00 1a     	ldx	$1a00                   ; 0x1a00 <__heap_default_limit+0xa00>
    612c: 8e 00 19     	stx	$1900                   ; 0x1900 <__heap_default_limit+0x900>
    612f: 4c 78 5f     	jmp	$5f78 <navi+0x1232>
    6132: a6 16        	ldx	$16                     ; 0x2016 <next_line+0x1>
    6134: 86 17        	stx	$17                     ; 0x2017 <next_line+0x2>
    6136: 4c 60 5f     	jmp	$5f60 <navi+0x121a>
    6139: a5 18        	lda	$18                     ; 0x2018 <next_line+0x3>
    613b: 48           	pha
    613c: a5 18        	lda	$18                     ; 0x2018 <next_line+0x3>
    613e: a0 0d        	ldy	#$d
    6140: 91 02        	sta	($2),y                  ; 0x2002 <__heap_default_limit+0x1002>
    6142: a5 19        	lda	$19                     ; 0x2019 <next_line+0x4>
    6144: c8           	iny
    6145: 91 02        	sta	($2),y                  ; 0x2002 <__heap_default_limit+0x1002>
    6147: 68           	pla
    6148: 18           	clc
    6149: 69 05        	adc	#$5
    614b: 85 06        	sta	$6                      ; 0x2006 <__heap_default_limit+0x1006>
    614d: a5 19        	lda	$19                     ; 0x2019 <next_line+0x4>
    614f: 69 00        	adc	#$0
    6151: 85 07        	sta	$7                      ; 0x2007 <__heap_default_limit+0x1007>
    6153: a2 7c        	ldx	#$7c
    6155: 86 04        	stx	$4                      ; 0x2004 <__heap_default_limit+0x1004>
    6157: a2 8a        	ldx	#$8a
    6159: 86 05        	stx	$5                      ; 0x2005 <__heap_default_limit+0x1005>
    615b: a2 d6        	ldx	#$d6
    615d: 86 08        	stx	$8                      ; 0x2008 <__heap_default_limit+0x1008>
    615f: a2 86        	ldx	#$86
    6161: 86 09        	stx	$9                      ; 0x2009 <__heap_default_limit+0x1009>
    6163: 64 0a        	stz	$a                      ; 0x200a <__heap_default_limit+0x100a>
    6165: 64 0b        	stz	$b                      ; 0x200b <__heap_default_limit+0x100b>
    6167: 64 0c        	stz	$c                      ; 0x200c <__heap_default_limit+0x100c>
    6169: a2 00        	ldx	#$0
    616b: a9 04        	lda	#$4
    616d: 20 b5 3c     	jsr	$3cb5 <messagebox>
    6170: 4c e9 4f     	jmp	$4fe9 <navi+0x2a3>
    6173: a0 48        	ldy	#$48
    6175: b1 1e        	lda	($1e),y                 ; 0x201e <next_line+0x9>
    6177: 85 0a        	sta	$a                      ; 0x200a <__heap_default_limit+0x100a>
    6179: c8           	iny
    617a: b1 1e        	lda	($1e),y                 ; 0x201e <next_line+0x9>
    617c: 18           	clc
    617d: 48           	pha
    617e: a5 02        	lda	$2                      ; 0x2002 <__heap_default_limit+0x1002>
    6180: 69 21        	adc	#$21
    6182: 85 18        	sta	$18                     ; 0x2018 <next_line+0x3>
    6184: a5 03        	lda	$3                      ; 0x2003 <__heap_default_limit+0x1003>
    6186: 69 00        	adc	#$0
    6188: 85 19        	sta	$19                     ; 0x2019 <next_line+0x4>
    618a: a6 18        	ldx	$18                     ; 0x2018 <next_line+0x3>
    618c: 86 06        	stx	$6                      ; 0x2006 <__heap_default_limit+0x1006>
    618e: 85 07        	sta	$7                      ; 0x2007 <__heap_default_limit+0x1007>
    6190: 18           	clc
    6191: a5 02        	lda	$2                      ; 0x2002 <__heap_default_limit+0x1002>
    6193: 69 20        	adc	#$20
    6195: 85 1a        	sta	$1a                     ; 0x201a <next_line+0x5>
    6197: a5 03        	lda	$3                      ; 0x2003 <__heap_default_limit+0x1003>
    6199: 69 00        	adc	#$0
    619b: 85 1b        	sta	$1b                     ; 0x201b <next_line+0x6>
    619d: 68           	pla
    619e: a6 1a        	ldx	$1a                     ; 0x201a <next_line+0x5>
    61a0: 86 08        	stx	$8                      ; 0x2008 <__heap_default_limit+0x1008>
    61a2: a6 1b        	ldx	$1b                     ; 0x201b <next_line+0x6>
    61a4: 86 09        	stx	$9                      ; 0x2009 <__heap_default_limit+0x1009>
    61a6: 85 04        	sta	$4                      ; 0x2004 <__heap_default_limit+0x1004>
    61a8: a2 02        	ldx	#$2
    61aa: 86 05        	stx	$5                      ; 0x2005 <__heap_default_limit+0x1005>
    61ac: a6 0a        	ldx	$a                      ; 0x200a <__heap_default_limit+0x100a>
    61ae: a0 10        	ldy	#$10
    61b0: b1 02        	lda	($2),y                  ; 0x2002 <__heap_default_limit+0x1002>
    61b2: 20 ef 2a     	jsr	$2aef <FreeTracks>
    61b5: b2 1a        	lda	($1a),z                 ; 0x201a <next_line+0x5>
    61b7: 38           	sec
    61b8: f2 18        	sbc	($18),z                 ; 0x2018 <next_line+0x3>
    61ba: aa           	tax
    61bb: a9 00        	lda	#$0
    61bd: e9 00        	sbc	#$0
    61bf: 86 1c        	stx	$1c                     ; 0x201c <next_line+0x7>
    61c1: e0 02        	cpx	#$2
    61c3: e9 00        	sbc	#$0
    61c5: 50 02        	bvc	$61c9 <navi+0x1483>
    61c7: 49 80        	eor	#$80
    61c9: aa           	tax
    61ca: 30 03        	bmi	$61cf <navi+0x1489>
    61cc: 4c 4d 65     	jmp	$654d <donehypfindfirst6+0x260>
    61cf: a2 3a        	ldx	#$3a
    61d1: 86 04        	stx	$4                      ; 0x2004 <__heap_default_limit+0x1004>
    61d3: a2 8a        	ldx	#$8a
    61d5: 86 05        	stx	$5                      ; 0x2005 <__heap_default_limit+0x1005>
    61d7: a2 62        	ldx	#$62
    61d9: 86 06        	stx	$6                      ; 0x2006 <__heap_default_limit+0x1006>
    61db: a2 89        	ldx	#$89
    61dd: 4c d4 58     	jmp	$58d4 <navi+0xb8e>
    61e0: a5 1b        	lda	$1b                     ; 0x201b <next_line+0x6>
    61e2: f0 03        	beq	$61e7 <navi+0x14a1>
    61e4: 4c 3d 63     	jmp	$633d <donehypfindfirst6+0x50>
    61e7: e0 5f        	cpx	#$5f
    61e9: f0 03        	beq	$61ee <navi+0x14a8>
    61eb: 4c 3d 63     	jmp	$633d <donehypfindfirst6+0x50>
    61ee: a9 27        	lda	#$27
    61f0: 18           	clc
    61f1: 65 1a        	adc	$1a                     ; 0x201a <next_line+0x5>
    61f3: 85 04        	sta	$4                      ; 0x2004 <__heap_default_limit+0x1004>
    61f5: a9 00        	lda	#$0
    61f7: 65 17        	adc	$17                     ; 0x2017 <next_line+0x2>
    61f9: 85 05        	sta	$5                      ; 0x2005 <__heap_default_limit+0x1005>
    61fb: b2 04        	lda	($4),z                  ; 0x2004 <__heap_default_limit+0x1004>
    61fd: 85 18        	sta	$18                     ; 0x2018 <next_line+0x3>
    61ff: b1 04        	lda	($4),y                  ; 0x2004 <__heap_default_limit+0x1004>
    6201: 85 19        	sta	$19                     ; 0x2019 <next_line+0x4>
    6203: a9 01        	lda	#$1
    6205: a0 46        	ldy	#$46
    6207: 31 18        	and	($18),y                 ; 0x2018 <next_line+0x3>
    6209: 29 01        	and	#$1
    620b: f0 03        	beq	$6210 <navi+0x14ca>
    620d: 4c 6d 62     	jmp	$626d <navi+0x1527>
    6210: 64 17        	stz	$17                     ; 0x2017 <next_line+0x2>
    6212: 64 1c        	stz	$1c                     ; 0x201c <next_line+0x7>
    6214: a0 10        	ldy	#$10
    6216: b1 02        	lda	($2),y                  ; 0x2002 <__heap_default_limit+0x1002>
    6218: 85 16        	sta	$16                     ; 0x2016 <next_line+0x1>
    621a: a2 00        	ldx	#$0
    621c: e4 1c        	cpx	$1c                     ; 0x201c <next_line+0x7>
    621e: d0 0b        	bne	$622b <navi+0x14e5>
    6220: a0 02        	ldy	#$2
    6222: b1 18        	lda	($18),y                 ; 0x2018 <next_line+0x3>
    6224: c5 17        	cmp	$17                     ; 0x2017 <next_line+0x2>
    6226: b0 0a        	bcs	$6232 <navi+0x14ec>
    6228: 4c e9 4f     	jmp	$4fe9 <navi+0x2a3>
    622b: e4 1c        	cpx	$1c                     ; 0x201c <next_line+0x7>
    622d: b0 03        	bcs	$6232 <navi+0x14ec>
    622f: 4c e9 4f     	jmp	$4fe9 <navi+0x2a3>
    6232: a6 17        	ldx	$17                     ; 0x2017 <next_line+0x2>
    6234: a5 16        	lda	$16                     ; 0x2016 <next_line+0x1>
    6236: 20 a2 31     	jsr	$31a2 <getdirententry>
    6239: a9 10        	lda	#$10
    623b: a0 02        	ldy	#$2
    623d: 31 04        	and	($4),y                  ; 0x2004 <__heap_default_limit+0x1004>
    623f: 48           	pha
    6240: a5 04        	lda	$4                      ; 0x2004 <__heap_default_limit+0x1004>
    6242: a0 0d        	ldy	#$d
    6244: 91 02        	sta	($2),y                  ; 0x2002 <__heap_default_limit+0x1002>
    6246: a5 05        	lda	$5                      ; 0x2005 <__heap_default_limit+0x1005>
    6248: c8           	iny
    6249: 91 02        	sta	($2),y                  ; 0x2002 <__heap_default_limit+0x1002>
    624b: 68           	pla
    624c: f0 13        	beq	$6261 <navi+0x151b>
    624e: a0 05        	ldy	#$5
    6250: b1 04        	lda	($4),y                  ; 0x2004 <__heap_default_limit+0x1004>
    6252: c9 2e        	cmp	#$2e
    6254: d0 0b        	bne	$6261 <navi+0x151b>
    6256: a0 06        	ldy	#$6
    6258: b1 04        	lda	($4),y                  ; 0x2004 <__heap_default_limit+0x1004>
    625a: c9 2e        	cmp	#$2e
    625c: d0 03        	bne	$6261 <navi+0x151b>
    625e: 4c 1e 6c     	jmp	$6c1e <donehypfindfirst14+0xab>
    6261: e6 17        	inc	$17                     ; 0x2017 <next_line+0x2>
    6263: f0 03        	beq	$6268 <navi+0x1522>
    6265: 4c 1a 62     	jmp	$621a <navi+0x14d4>
    6268: e6 1c        	inc	$1c                     ; 0x201c <next_line+0x7>
    626a: 4c 1a 62     	jmp	$621a <navi+0x14d4>
    626d: a9 28        	lda	#$28
    626f: a0 47        	ldy	#$47
    6271: 91 18        	sta	($18),y                 ; 0x2018 <next_line+0x3>
    6273: a9 01        	lda	#$1
    6275: c8           	iny
    6276: 91 18        	sta	($18),y                 ; 0x2018 <next_line+0x3>
    6278: a9 50        	lda	#$50
    627a: c8           	iny
    627b: 91 18        	sta	($18),y                 ; 0x2018 <next_line+0x3>
    627d: b2 18        	lda	($18),z                 ; 0x2018 <next_line+0x3>
    627f: 4c 0e 59     	jmp	$590e <navi+0xbc8>
    6282: a2 2e        	ldx	#$2e
    6284: 86 08        	stx	$8                      ; 0x2008 <__heap_default_limit+0x1008>
    6286: a2 84        	ldx	#$84
    6288: 86 09        	stx	$9                      ; 0x2009 <__heap_default_limit+0x1009>
    628a: a5 18        	lda	$18                     ; 0x2018 <next_line+0x3>
    628c: 48           	pha
    628d: a5 18        	lda	$18                     ; 0x2018 <next_line+0x3>
    628f: a0 0d        	ldy	#$d
    6291: 91 02        	sta	($2),y                  ; 0x2002 <__heap_default_limit+0x1002>
    6293: a5 19        	lda	$19                     ; 0x2019 <next_line+0x4>
    6295: c8           	iny
    6296: 91 02        	sta	($2),y                  ; 0x2002 <__heap_default_limit+0x1002>
    6298: 68           	pla
    6299: 18           	clc
    629a: 69 05        	adc	#$5
    629c: 85 1a        	sta	$1a                     ; 0x201a <next_line+0x5>
    629e: a5 19        	lda	$19                     ; 0x2019 <next_line+0x4>
    62a0: 69 00        	adc	#$0
    62a2: 85 1b        	sta	$1b                     ; 0x201b <next_line+0x6>
    62a4: a2 fe        	ldx	#$fe
    62a6: 86 04        	stx	$4                      ; 0x2004 <__heap_default_limit+0x1004>
    62a8: a2 8c        	ldx	#$8c
    62aa: 86 05        	stx	$5                      ; 0x2005 <__heap_default_limit+0x1005>
    62ac: a6 1a        	ldx	$1a                     ; 0x201a <next_line+0x5>
    62ae: 86 06        	stx	$6                      ; 0x2006 <__heap_default_limit+0x1006>
    62b0: 85 07        	sta	$7                      ; 0x2007 <__heap_default_limit+0x1007>
    62b2: 64 0a        	stz	$a                      ; 0x200a <__heap_default_limit+0x100a>
    62b4: 64 0b        	stz	$b                      ; 0x200b <__heap_default_limit+0x100b>
    62b6: 64 0c        	stz	$c                      ; 0x200c <__heap_default_limit+0x100c>
    62b8: a2 00        	ldx	#$0
    62ba: 8a           	txa
    62bb: 20 b5 3c     	jsr	$3cb5 <messagebox>
    62be: aa           	tax
    62bf: d0 03        	bne	$62c4 <navi+0x157e>
    62c1: 4c e9 4f     	jmp	$4fe9 <navi+0x2a3>
    62c4: a9 01        	lda	#$1
    62c6: a0 46        	ldy	#$46
    62c8: 31 16        	and	($16),y                 ; 0x2016 <next_line+0x1>
    62ca: 29 01        	and	#$1
    62cc: f0 03        	beq	$62d1 <navi+0x158b>
    62ce: 4c 0d 64     	jmp	$640d <donehypfindfirst6+0x120>
    62d1: a6 1a        	ldx	$1a                     ; 0x201a <next_line+0x5>
    62d3: 86 04        	stx	$4                      ; 0x2004 <__heap_default_limit+0x1004>
    62d5: a6 1b        	ldx	$1b                     ; 0x201b <next_line+0x6>
    62d7: 86 05        	stx	$5                      ; 0x2005 <__heap_default_limit+0x1005>
    62d9: 20 9e 21     	jsr	$219e <hyppo_setname>
    62dc: a2 00        	ldx	#$0
    62de: a9 30        	lda	#$30
    62e0: 8d 40 d6     	sta	$d640                   ; 0xd640 <__heap_start+0x46c4>
    62e3: b8           	clv
    62e4: 90 05        	bcc	$62eb <errhypfindfirst6>
    62e6: 85 04        	sta	$4                      ; 0x2004 <__heap_default_limit+0x1004>
    62e8: 4c ed 62     	jmp	$62ed <donehypfindfirst6>

000062eb <errhypfindfirst6>:
    62eb: 85 04        	sta	$4                      ; 0x2004 <__heap_default_limit+0x1004>

000062ed <donehypfindfirst6>:
    62ed: ea           	nop
    62ee: a4 04        	ldy	$4                      ; 0x2004 <__heap_default_limit+0x1004>
    62f0: c0 84        	cpy	#$84
    62f2: b0 03        	bcs	$62f7 <donehypfindfirst6+0xa>
    62f4: 4c 96 67     	jmp	$6796 <donehypfindfirst6+0x4a9>
    62f7: a2 0a        	ldx	#$a
    62f9: 86 04        	stx	$4                      ; 0x2004 <__heap_default_limit+0x1004>
    62fb: a2 88        	ldx	#$88
    62fd: 86 05        	stx	$5                      ; 0x2005 <__heap_default_limit+0x1005>
    62ff: a6 1a        	ldx	$1a                     ; 0x201a <next_line+0x5>
    6301: 86 06        	stx	$6                      ; 0x2006 <__heap_default_limit+0x1006>
    6303: a6 1b        	ldx	$1b                     ; 0x201b <next_line+0x6>
    6305: 86 07        	stx	$7                      ; 0x2007 <__heap_default_limit+0x1007>
    6307: a2 93        	ldx	#$93
    6309: 86 08        	stx	$8                      ; 0x2008 <__heap_default_limit+0x1008>
    630b: a2 86        	ldx	#$86
    630d: 86 09        	stx	$9                      ; 0x2009 <__heap_default_limit+0x1009>
    630f: 64 0a        	stz	$a                      ; 0x200a <__heap_default_limit+0x100a>
    6311: 64 0b        	stz	$b                      ; 0x200b <__heap_default_limit+0x100b>
    6313: 64 0c        	stz	$c                      ; 0x200c <__heap_default_limit+0x100c>
    6315: a2 00        	ldx	#$0
    6317: a9 04        	lda	#$4
    6319: 84 18        	sty	$18                     ; 0x2018 <next_line+0x3>
    631b: 20 b5 3c     	jsr	$3cb5 <messagebox>
    631e: a4 18        	ldy	$18                     ; 0x2018 <next_line+0x3>
    6320: 4c aa 67     	jmp	$67aa <donehyprmfile7+0x1>
    6323: a6 16        	ldx	$16                     ; 0x2016 <next_line+0x1>
    6325: ca           	dex
    6326: 86 1a        	stx	$1a                     ; 0x201a <next_line+0x5>
    6328: 4c 4a 59     	jmp	$594a <navi+0xc04>
    632b: a0 10        	ldy	#$10
    632d: b1 02        	lda	($2),y                  ; 0x2002 <__heap_default_limit+0x1002>
    632f: d0 03        	bne	$6334 <donehypfindfirst6+0x47>
    6331: 4c 17 68     	jmp	$6817 <donehypclosedir8+0x5c>
    6334: a2 65        	ldx	#$65
    6336: 86 06        	stx	$6                      ; 0x2006 <__heap_default_limit+0x1006>
    6338: a2 87        	ldx	#$87
    633a: 4c 1d 68     	jmp	$681d <donehypclosedir8+0x62>
    633d: a5 1c        	lda	$1c                     ; 0x201c <next_line+0x7>
    633f: a6 1b        	ldx	$1b                     ; 0x201b <next_line+0x6>
    6341: d0 04        	bne	$6347 <donehypfindfirst6+0x5a>
    6343: c9 91        	cmp	#$91
    6345: f0 1b        	beq	$6362 <donehypfindfirst6+0x75>
    6347: a6 1b        	ldx	$1b                     ; 0x201b <next_line+0x6>
    6349: d0 07        	bne	$6352 <donehypfindfirst6+0x65>
    634b: c9 9d        	cmp	#$9d
    634d: d0 03        	bne	$6352 <donehypfindfirst6+0x65>
    634f: 4c f0 67     	jmp	$67f0 <donehypclosedir8+0x35>
    6352: a6 1b        	ldx	$1b                     ; 0x201b <next_line+0x6>
    6354: e0 01        	cpx	#$1
    6356: f0 03        	beq	$635b <donehypfindfirst6+0x6e>
    6358: 4c d1 67     	jmp	$67d1 <donehypclosedir8+0x16>
    635b: c9 91        	cmp	#$91
    635d: f0 03        	beq	$6362 <donehypfindfirst6+0x75>
    635f: 4c d1 67     	jmp	$67d1 <donehypclosedir8+0x16>
    6362: a9 27        	lda	#$27
    6364: 18           	clc
    6365: 65 1a        	adc	$1a                     ; 0x201a <next_line+0x5>
    6367: 85 04        	sta	$4                      ; 0x2004 <__heap_default_limit+0x1004>
    6369: a9 00        	lda	#$0
    636b: 65 17        	adc	$17                     ; 0x2017 <next_line+0x2>
    636d: 85 05        	sta	$5                      ; 0x2005 <__heap_default_limit+0x1005>
    636f: b2 04        	lda	($4),z                  ; 0x2004 <__heap_default_limit+0x1004>
    6371: aa           	tax
    6372: b1 04        	lda	($4),y                  ; 0x2004 <__heap_default_limit+0x1004>
    6374: 86 04        	stx	$4                      ; 0x2004 <__heap_default_limit+0x1004>
    6376: 85 05        	sta	$5                      ; 0x2005 <__heap_default_limit+0x1005>
    6378: b1 04        	lda	($4),y                  ; 0x2004 <__heap_default_limit+0x1004>
    637a: d0 03        	bne	$637f <donehypfindfirst6+0x92>
    637c: 4c e9 4f     	jmp	$4fe9 <navi+0x2a3>
    637f: 3a           	dec
    6380: 4c ac 69     	jmp	$69ac <donehypd81dosattach9+0x13d>
    6383: 38           	sec
    6384: a5 21        	lda	$21                     ; 0x2021 <_start>
    6386: e5 1f        	sbc	$1f                     ; 0x201f <next_line+0xa>
    6388: 85 04        	sta	$4                      ; 0x2004 <__heap_default_limit+0x1004>
    638a: a0 1d        	ldy	#$1d
    638c: b1 02        	lda	($2),y                  ; 0x2002 <__heap_default_limit+0x1002>
    638e: e5 1e        	sbc	$1e                     ; 0x201e <next_line+0x9>
    6390: 85 05        	sta	$5                      ; 0x2005 <__heap_default_limit+0x1005>
    6392: a9 9f        	lda	#$9f
    6394: 18           	clc
    6395: 65 04        	adc	$4                      ; 0x2004 <__heap_default_limit+0x1004>
    6397: 85 04        	sta	$4                      ; 0x2004 <__heap_default_limit+0x1004>
    6399: a9 8e        	lda	#$8e
    639b: 65 05        	adc	$5                      ; 0x2005 <__heap_default_limit+0x1005>
    639d: 85 05        	sta	$5                      ; 0x2005 <__heap_default_limit+0x1005>
    639f: a2 90        	ldx	#$90
    63a1: a0 ff        	ldy	#$ff
    63a3: 98           	tya
    63a4: d0 03        	bne	$63a9 <donehypfindfirst6+0xbc>
    63a6: 4c d4 63     	jmp	$63d4 <donehypfindfirst6+0xe7>
    63a9: a9 01        	lda	#$1
    63ab: 32 04        	and	($4),z                  ; 0x2004 <__heap_default_limit+0x1004>
    63ad: 64 06        	stz	$6                      ; 0x2006 <__heap_default_limit+0x1006>
    63af: 48           	pha
    63b0: a9 00        	lda	#$0
    63b2: 5a           	phy
    63b3: a0 0f        	ldy	#$f
    63b5: 91 02        	sta	($2),y                  ; 0x2002 <__heap_default_limit+0x1002>
    63b7: 7a           	ply
    63b8: 68           	pla
    63b9: f0 08        	beq	$63c3 <donehypfindfirst6+0xd6>
    63bb: a9 01        	lda	#$1
    63bd: 5a           	phy
    63be: a0 0f        	ldy	#$f
    63c0: 91 02        	sta	($2),y                  ; 0x2002 <__heap_default_limit+0x1002>
    63c2: 7a           	ply
    63c3: a9 ff        	lda	#$ff
    63c5: c6 04        	dec	$4                      ; 0x2004 <__heap_default_limit+0x1004>
    63c7: c5 04        	cmp	$4                      ; 0x2004 <__heap_default_limit+0x1004>
    63c9: d0 02        	bne	$63cd <donehypfindfirst6+0xe0>
    63cb: c6 05        	dec	$5                      ; 0x2005 <__heap_default_limit+0x1005>
    63cd: e8           	inx
    63ce: d0 d3        	bne	$63a3 <donehypfindfirst6+0xb6>
    63d0: c8           	iny
    63d1: 4c a3 63     	jmp	$63a3 <donehypfindfirst6+0xb6>
    63d4: 8a           	txa
    63d5: f0 03        	beq	$63da <donehypfindfirst6+0xed>
    63d7: 4c a9 63     	jmp	$63a9 <donehypfindfirst6+0xbc>
    63da: a0 0f        	ldy	#$f
    63dc: b1 02        	lda	($2),y                  ; 0x2002 <__heap_default_limit+0x1002>
    63de: c9 02        	cmp	#$2
    63e0: b0 03        	bcs	$63e5 <donehypfindfirst6+0xf8>
    63e2: 4c 86 67     	jmp	$6786 <donehypfindfirst6+0x499>
    63e5: a2 cf        	ldx	#$cf
    63e7: 86 04        	stx	$4                      ; 0x2004 <__heap_default_limit+0x1004>
    63e9: a2 88        	ldx	#$88
    63eb: 86 05        	stx	$5                      ; 0x2005 <__heap_default_limit+0x1005>
    63ed: a2 8f        	ldx	#$8f
    63ef: 86 06        	stx	$6                      ; 0x2006 <__heap_default_limit+0x1006>
    63f1: a2 85        	ldx	#$85
    63f3: 86 07        	stx	$7                      ; 0x2007 <__heap_default_limit+0x1007>
    63f5: a2 82        	ldx	#$82
    63f7: 86 08        	stx	$8                      ; 0x2008 <__heap_default_limit+0x1008>
    63f9: a2 83        	ldx	#$83
    63fb: 86 09        	stx	$9                      ; 0x2009 <__heap_default_limit+0x1009>
    63fd: 64 0a        	stz	$a                      ; 0x200a <__heap_default_limit+0x100a>
    63ff: 64 0b        	stz	$b                      ; 0x200b <__heap_default_limit+0x100b>
    6401: 64 0c        	stz	$c                      ; 0x200c <__heap_default_limit+0x100c>
    6403: a2 00        	ldx	#$0
    6405: a9 04        	lda	#$4
    6407: 20 b5 3c     	jsr	$3cb5 <messagebox>
    640a: 4c ab 6c     	jmp	$6cab <donehypclosedir17+0x1>
    640d: a0 10        	ldy	#$10
    640f: b1 02        	lda	($2),y                  ; 0x2002 <__heap_default_limit+0x1002>
    6411: 85 18        	sta	$18                     ; 0x2018 <next_line+0x3>
    6413: 20 e2 4b     	jsr	$4be2 <sizeselectcurrentifnone>
    6416: e0 ff        	cpx	#$ff
    6418: d0 07        	bne	$6421 <donehypfindfirst6+0x134>
    641a: c9 ff        	cmp	#$ff
    641c: d0 03        	bne	$6421 <donehypfindfirst6+0x134>
    641e: 4c c2 67     	jmp	$67c2 <donehypclosedir8+0x7>
    6421: a5 16        	lda	$16                     ; 0x2016 <next_line+0x1>
    6423: a0 1b        	ldy	#$1b
    6425: 91 02        	sta	($2),y                  ; 0x2002 <__heap_default_limit+0x1002>
    6427: a5 17        	lda	$17                     ; 0x2017 <next_line+0x2>
    6429: c8           	iny
    642a: 91 02        	sta	($2),y                  ; 0x2002 <__heap_default_limit+0x1002>
    642c: 38           	sec
    642d: a5 21        	lda	$21                     ; 0x2021 <_start>
    642f: e5 1f        	sbc	$1f                     ; 0x201f <next_line+0xa>
    6431: 85 04        	sta	$4                      ; 0x2004 <__heap_default_limit+0x1004>
    6433: c8           	iny
    6434: b1 02        	lda	($2),y                  ; 0x2002 <__heap_default_limit+0x1002>
    6436: e5 1e        	sbc	$1e                     ; 0x201e <next_line+0x9>
    6438: 85 05        	sta	$5                      ; 0x2005 <__heap_default_limit+0x1005>
    643a: a9 2f        	lda	#$2f
    643c: 18           	clc
    643d: 65 04        	adc	$4                      ; 0x2004 <__heap_default_limit+0x1004>
    643f: 85 1b        	sta	$1b                     ; 0x201b <next_line+0x6>
    6441: a9 8e        	lda	#$8e
    6443: 65 05        	adc	$5                      ; 0x2005 <__heap_default_limit+0x1005>
    6445: 85 1c        	sta	$1c                     ; 0x201c <next_line+0x7>
    6447: a2 70        	ldx	#$70
    6449: 64 17        	stz	$17                     ; 0x2017 <next_line+0x2>
    644b: 86 1a        	stx	$1a                     ; 0x201a <next_line+0x5>
    644d: a0 0d        	ldy	#$d
    644f: b1 02        	lda	($2),y                  ; 0x2002 <__heap_default_limit+0x1002>
    6451: 85 18        	sta	$18                     ; 0x2018 <next_line+0x3>
    6453: c8           	iny
    6454: b1 02        	lda	($2),y                  ; 0x2002 <__heap_default_limit+0x1002>
    6456: 85 19        	sta	$19                     ; 0x2019 <next_line+0x4>
    6458: 4c fb 64     	jmp	$64fb <donehypfindfirst6+0x20e>
    645b: a6 1a        	ldx	$1a                     ; 0x201a <next_line+0x5>
    645d: a0 10        	ldy	#$10
    645f: b1 02        	lda	($2),y                  ; 0x2002 <__heap_default_limit+0x1002>
    6461: 85 16        	sta	$16                     ; 0x2016 <next_line+0x1>
    6463: 20 a2 31     	jsr	$31a2 <getdirententry>
    6466: a6 04        	ldx	$4                      ; 0x2004 <__heap_default_limit+0x1004>
    6468: 86 18        	stx	$18                     ; 0x2018 <next_line+0x3>
    646a: a6 05        	ldx	$5                      ; 0x2005 <__heap_default_limit+0x1005>
    646c: 86 19        	stx	$19                     ; 0x2019 <next_line+0x4>
    646e: a2 cc        	ldx	#$cc
    6470: 86 04        	stx	$4                      ; 0x2004 <__heap_default_limit+0x1004>
    6472: a2 8b        	ldx	#$8b
    6474: 86 05        	stx	$5                      ; 0x2005 <__heap_default_limit+0x1005>
    6476: a2 52        	ldx	#$52
    6478: 86 06        	stx	$6                      ; 0x2006 <__heap_default_limit+0x1006>
    647a: a2 86        	ldx	#$86
    647c: 86 07        	stx	$7                      ; 0x2007 <__heap_default_limit+0x1007>
    647e: a9 14        	lda	#$14
    6480: 20 5d 3e     	jsr	$3e5d <progress>
    6483: a5 16        	lda	$16                     ; 0x2016 <next_line+0x1>
    6485: 20 22 26     	jsr	$2622 <GetBAM>
    6488: a2 2f        	ldx	#$2f
    648a: 86 04        	stx	$4                      ; 0x2004 <__heap_default_limit+0x1004>
    648c: a2 8a        	ldx	#$8a
    648e: 86 05        	stx	$5                      ; 0x2005 <__heap_default_limit+0x1005>
    6490: a5 04        	lda	$4                      ; 0x2004 <__heap_default_limit+0x1004>
    6492: a0 1d        	ldy	#$1d
    6494: 91 02        	sta	($2),y                  ; 0x2002 <__heap_default_limit+0x1002>
    6496: a5 05        	lda	$5                      ; 0x2005 <__heap_default_limit+0x1005>
    6498: c8           	iny
    6499: 91 02        	sta	($2),y                  ; 0x2002 <__heap_default_limit+0x1002>
    649b: 88           	dey
    649c: b1 02        	lda	($2),y                  ; 0x2002 <__heap_default_limit+0x1002>
    649e: 85 04        	sta	$4                      ; 0x2004 <__heap_default_limit+0x1004>
    64a0: c8           	iny
    64a1: b1 02        	lda	($2),y                  ; 0x2002 <__heap_default_limit+0x1002>
    64a3: 85 05        	sta	$5                      ; 0x2005 <__heap_default_limit+0x1005>
    64a5: a2 4d        	ldx	#$4d
    64a7: 86 06        	stx	$6                      ; 0x2006 <__heap_default_limit+0x1006>
    64a9: a2 89        	ldx	#$89
    64ab: 86 07        	stx	$7                      ; 0x2007 <__heap_default_limit+0x1007>
    64ad: a9 28        	lda	#$28
    64af: 20 5d 3e     	jsr	$3e5d <progress>
    64b2: a0 1b        	ldy	#$1b
    64b4: b1 02        	lda	($2),y                  ; 0x2002 <__heap_default_limit+0x1002>
    64b6: 85 1e        	sta	$1e                     ; 0x201e <next_line+0x9>
    64b8: c8           	iny
    64b9: b1 02        	lda	($2),y                  ; 0x2002 <__heap_default_limit+0x1002>
    64bb: 85 1f        	sta	$1f                     ; 0x201f <next_line+0xa>
    64bd: b2 1e        	lda	($1e),z                 ; 0x201e <next_line+0x9>
    64bf: 85 06        	sta	$6                      ; 0x2006 <__heap_default_limit+0x1006>
    64c1: a0 47        	ldy	#$47
    64c3: b1 1e        	lda	($1e),y                 ; 0x201e <next_line+0x9>
    64c5: 85 04        	sta	$4                      ; 0x2004 <__heap_default_limit+0x1004>
    64c7: a6 1a        	ldx	$1a                     ; 0x201a <next_line+0x5>
    64c9: 86 05        	stx	$5                      ; 0x2005 <__heap_default_limit+0x1005>
    64cb: a6 16        	ldx	$16                     ; 0x2016 <next_line+0x1>
    64cd: a5 06        	lda	$6                      ; 0x2006 <__heap_default_limit+0x1006>
    64cf: 20 20 36     	jsr	$3620 <deletedirententry>
    64d2: a0 1d        	ldy	#$1d
    64d4: b1 02        	lda	($2),y                  ; 0x2002 <__heap_default_limit+0x1002>
    64d6: 85 04        	sta	$4                      ; 0x2004 <__heap_default_limit+0x1004>
    64d8: c8           	iny
    64d9: b1 02        	lda	($2),y                  ; 0x2002 <__heap_default_limit+0x1002>
    64db: 85 05        	sta	$5                      ; 0x2005 <__heap_default_limit+0x1005>
    64dd: a2 3d        	ldx	#$3d
    64df: 86 06        	stx	$6                      ; 0x2006 <__heap_default_limit+0x1006>
    64e1: a2 84        	ldx	#$84
    64e3: 86 07        	stx	$7                      ; 0x2007 <__heap_default_limit+0x1007>
    64e5: a9 50        	lda	#$50
    64e7: 20 5d 3e     	jsr	$3e5d <progress>
    64ea: b2 1e        	lda	($1e),z                 ; 0x201e <next_line+0x9>
    64ec: 85 05        	sta	$5                      ; 0x2005 <__heap_default_limit+0x1005>
    64ee: a0 47        	ldy	#$47
    64f0: b1 1e        	lda	($1e),y                 ; 0x201e <next_line+0x9>
    64f2: 85 04        	sta	$4                      ; 0x2004 <__heap_default_limit+0x1004>
    64f4: a6 16        	ldx	$16                     ; 0x2016 <next_line+0x1>
    64f6: a5 05        	lda	$5                      ; 0x2005 <__heap_default_limit+0x1005>
    64f8: 20 5b 26     	jsr	$265b <PutBAM>
    64fb: a6 1a        	ldx	$1a                     ; 0x201a <next_line+0x5>
    64fd: 86 04        	stx	$4                      ; 0x2004 <__heap_default_limit+0x1004>
    64ff: a6 17        	ldx	$17                     ; 0x2017 <next_line+0x2>
    6501: 86 05        	stx	$5                      ; 0x2005 <__heap_default_limit+0x1005>
    6503: a5 05        	lda	$5                      ; 0x2005 <__heap_default_limit+0x1005>
    6505: f0 29        	beq	$6530 <donehypfindfirst6+0x243>
    6507: a5 1b        	lda	$1b                     ; 0x201b <next_line+0x6>
    6509: 18           	clc
    650a: 65 04        	adc	$4                      ; 0x2004 <__heap_default_limit+0x1004>
    650c: 85 04        	sta	$4                      ; 0x2004 <__heap_default_limit+0x1004>
    650e: a5 1c        	lda	$1c                     ; 0x201c <next_line+0x7>
    6510: 65 05        	adc	$5                      ; 0x2005 <__heap_default_limit+0x1005>
    6512: a2 ff        	ldx	#$ff
    6514: c6 1a        	dec	$1a                     ; 0x201a <next_line+0x5>
    6516: e4 1a        	cpx	$1a                     ; 0x201a <next_line+0x5>
    6518: d0 02        	bne	$651c <donehypfindfirst6+0x22f>
    651a: c6 17        	dec	$17                     ; 0x2017 <next_line+0x2>
    651c: 85 05        	sta	$5                      ; 0x2005 <__heap_default_limit+0x1005>
    651e: a9 01        	lda	#$1
    6520: 32 04        	and	($4),z                  ; 0x2004 <__heap_default_limit+0x1004>
    6522: a6 1a        	ldx	$1a                     ; 0x201a <next_line+0x5>
    6524: 86 04        	stx	$4                      ; 0x2004 <__heap_default_limit+0x1004>
    6526: a6 17        	ldx	$17                     ; 0x2017 <next_line+0x2>
    6528: 86 05        	stx	$5                      ; 0x2005 <__heap_default_limit+0x1005>
    652a: aa           	tax
    652b: f0 d6        	beq	$6503 <donehypfindfirst6+0x216>
    652d: 4c 5b 64     	jmp	$645b <donehypfindfirst6+0x16e>
    6530: a5 04        	lda	$4                      ; 0x2004 <__heap_default_limit+0x1004>
    6532: d0 d3        	bne	$6507 <donehypfindfirst6+0x21a>
    6534: a5 18        	lda	$18                     ; 0x2018 <next_line+0x3>
    6536: a0 0d        	ldy	#$d
    6538: 91 02        	sta	($2),y                  ; 0x2002 <__heap_default_limit+0x1002>
    653a: a5 19        	lda	$19                     ; 0x2019 <next_line+0x4>
    653c: c8           	iny
    653d: 91 02        	sta	($2),y                  ; 0x2002 <__heap_default_limit+0x1002>
    653f: a0 1b        	ldy	#$1b
    6541: b1 02        	lda	($2),y                  ; 0x2002 <__heap_default_limit+0x1002>
    6543: 85 16        	sta	$16                     ; 0x2016 <next_line+0x1>
    6545: c8           	iny
    6546: b1 02        	lda	($2),y                  ; 0x2002 <__heap_default_limit+0x1002>
    6548: 85 17        	sta	$17                     ; 0x2017 <next_line+0x2>
    654a: 4c bc 67     	jmp	$67bc <donehypclosedir8+0x1>
    654d: e6 1c        	inc	$1c                     ; 0x201c <next_line+0x7>
    654f: 18           	clc
    6550: a5 16        	lda	$16                     ; 0x2016 <next_line+0x1>
    6552: 69 4a        	adc	#$4a
    6554: 85 16        	sta	$16                     ; 0x2016 <next_line+0x1>
    6556: a5 17        	lda	$17                     ; 0x2017 <next_line+0x2>
    6558: 69 00        	adc	#$0
    655a: 85 17        	sta	$17                     ; 0x2017 <next_line+0x2>
    655c: a6 16        	ldx	$16                     ; 0x2016 <next_line+0x1>
    655e: 86 04        	stx	$4                      ; 0x2004 <__heap_default_limit+0x1004>
    6560: 85 05        	sta	$5                      ; 0x2005 <__heap_default_limit+0x1005>
    6562: a2 33        	ldx	#$33
    6564: 86 06        	stx	$6                      ; 0x2006 <__heap_default_limit+0x1006>
    6566: a2 8b        	ldx	#$8b
    6568: 86 07        	stx	$7                      ; 0x2007 <__heap_default_limit+0x1007>
    656a: a2 00        	ldx	#$0
    656c: a9 29        	lda	#$29
    656e: 20 8e 82     	jsr	$828e <memcpy>
    6571: 18           	clc
    6572: a5 02        	lda	$2                      ; 0x2002 <__heap_default_limit+0x1002>
    6574: 69 1f        	adc	#$1f
    6576: 85 20        	sta	$20                     ; 0x2020 <next_line+0xb>
    6578: a5 03        	lda	$3                      ; 0x2003 <__heap_default_limit+0x1003>
    657a: 69 00        	adc	#$0
    657c: 85 21        	sta	$21                     ; 0x2021 <_start>
    657e: a6 20        	ldx	$20                     ; 0x2020 <next_line+0xb>
    6580: 86 04        	stx	$4                      ; 0x2004 <__heap_default_limit+0x1004>
    6582: 85 05        	sta	$5                      ; 0x2005 <__heap_default_limit+0x1005>
    6584: a2 0a        	ldx	#$a
    6586: a5 1c        	lda	$1c                     ; 0x201c <next_line+0x7>
    6588: 20 88 7f     	jsr	$7f88 <__udivmodqi4>
    658b: a8           	tay
    658c: b2 20        	lda	($20),z                 ; 0x2020 <next_line+0xb>
    658e: aa           	tax
    658f: 18           	clc
    6590: 98           	tya
    6591: 69 30        	adc	#$30
    6593: a0 64        	ldy	#$64
    6595: 91 1e        	sta	($1e),y                 ; 0x201e <next_line+0x9>
    6597: 8a           	txa
    6598: 09 30        	ora	#$30
    659a: c8           	iny
    659b: 91 1e        	sta	($1e),y                 ; 0x201e <next_line+0x9>
    659d: a6 16        	ldx	$16                     ; 0x2016 <next_line+0x1>
    659f: 86 04        	stx	$4                      ; 0x2004 <__heap_default_limit+0x1004>
    65a1: a6 17        	ldx	$17                     ; 0x2017 <next_line+0x2>
    65a3: 86 05        	stx	$5                      ; 0x2005 <__heap_default_limit+0x1005>
    65a5: a6 16        	ldx	$16                     ; 0x2016 <next_line+0x1>
    65a7: 86 06        	stx	$6                      ; 0x2006 <__heap_default_limit+0x1006>
    65a9: a6 17        	ldx	$17                     ; 0x2017 <next_line+0x2>
    65ab: 86 07        	stx	$7                      ; 0x2007 <__heap_default_limit+0x1007>
    65ad: 20 0d 3f     	jsr	$3f0d <inputbox>
    65b0: a5 16        	lda	$16                     ; 0x2016 <next_line+0x1>
    65b2: a0 1d        	ldy	#$1d
    65b4: 91 02        	sta	($2),y                  ; 0x2002 <__heap_default_limit+0x1002>
    65b6: a5 17        	lda	$17                     ; 0x2017 <next_line+0x2>
    65b8: c8           	iny
    65b9: 91 02        	sta	($2),y                  ; 0x2002 <__heap_default_limit+0x1002>
    65bb: a6 16        	ldx	$16                     ; 0x2016 <next_line+0x1>
    65bd: 86 04        	stx	$4                      ; 0x2004 <__heap_default_limit+0x1004>
    65bf: a6 17        	ldx	$17                     ; 0x2017 <next_line+0x2>
    65c1: 86 05        	stx	$5                      ; 0x2005 <__heap_default_limit+0x1005>
    65c3: 20 df 7c     	jsr	$7cdf <atoi>
    65c6: 85 17        	sta	$17                     ; 0x2017 <next_line+0x2>
    65c8: a0 48        	ldy	#$48
    65ca: b1 1e        	lda	($1e),y                 ; 0x201e <next_line+0x9>
    65cc: aa           	tax
    65cd: c8           	iny
    65ce: b1 1e        	lda	($1e),y                 ; 0x201e <next_line+0x9>
    65d0: a4 18        	ldy	$18                     ; 0x2018 <next_line+0x3>
    65d2: 84 06        	sty	$6                      ; 0x2006 <__heap_default_limit+0x1006>
    65d4: a4 19        	ldy	$19                     ; 0x2019 <next_line+0x4>
    65d6: 84 07        	sty	$7                      ; 0x2007 <__heap_default_limit+0x1007>
    65d8: a4 1a        	ldy	$1a                     ; 0x201a <next_line+0x5>
    65da: 84 08        	sty	$8                      ; 0x2008 <__heap_default_limit+0x1008>
    65dc: a4 1b        	ldy	$1b                     ; 0x201b <next_line+0x6>
    65de: 84 09        	sty	$9                      ; 0x2009 <__heap_default_limit+0x1009>
    65e0: 85 04        	sta	$4                      ; 0x2004 <__heap_default_limit+0x1004>
    65e2: a4 17        	ldy	$17                     ; 0x2017 <next_line+0x2>
    65e4: 84 05        	sty	$5                      ; 0x2005 <__heap_default_limit+0x1005>
    65e6: a0 10        	ldy	#$10
    65e8: b1 02        	lda	($2),y                  ; 0x2002 <__heap_default_limit+0x1002>
    65ea: 20 ef 2a     	jsr	$2aef <FreeTracks>
    65ed: a6 17        	ldx	$17                     ; 0x2017 <next_line+0x2>
    65ef: e0 02        	cpx	#$2
    65f1: 8a           	txa
    65f2: a0 0f        	ldy	#$f
    65f4: 91 02        	sta	($2),y                  ; 0x2002 <__heap_default_limit+0x1002>
    65f6: b0 03        	bcs	$65fb <donehypfindfirst6+0x30e>
    65f8: 4c 8c 68     	jmp	$688c <donehypd81dosattach9+0x1d>
    65fb: b2 1a        	lda	($1a),z                 ; 0x201a <next_line+0x5>
    65fd: 85 04        	sta	$4                      ; 0x2004 <__heap_default_limit+0x1004>
    65ff: b2 18        	lda	($18),z                 ; 0x2018 <next_line+0x3>
    6601: 85 17        	sta	$17                     ; 0x2017 <next_line+0x2>
    6603: 38           	sec
    6604: a5 04        	lda	$4                      ; 0x2004 <__heap_default_limit+0x1004>
    6606: e5 17        	sbc	$17                     ; 0x2017 <next_line+0x2>
    6608: aa           	tax
    6609: a9 00        	lda	#$0
    660b: e9 00        	sbc	#$0
    660d: 86 04        	stx	$4                      ; 0x2004 <__heap_default_limit+0x1004>
    660f: e0 02        	cpx	#$2
    6611: 85 05        	sta	$5                      ; 0x2005 <__heap_default_limit+0x1005>
    6613: e9 00        	sbc	#$0
    6615: 50 02        	bvc	$6619 <donehypfindfirst6+0x32c>
    6617: 49 80        	eor	#$80
    6619: aa           	tax
    661a: a9 04        	lda	#$4
    661c: e0 00        	cpx	#$0
    661e: 10 03        	bpl	$6623 <donehypfindfirst6+0x336>
    6620: 4c 95 68     	jmp	$6895 <donehypd81dosattach9+0x26>
    6623: a6 04        	ldx	$4                      ; 0x2004 <__heap_default_limit+0x1004>
    6625: a4 05        	ldy	$5                      ; 0x2005 <__heap_default_limit+0x1005>
    6627: e8           	inx
    6628: d0 01        	bne	$662b <donehypfindfirst6+0x33e>
    662a: c8           	iny
    662b: c0 00        	cpy	#$0
    662d: f0 03        	beq	$6632 <donehypfindfirst6+0x345>
    662f: 4c 64 6d     	jmp	$6d64 <donehypchdir18+0x55>
    6632: 48           	pha
    6633: a0 0f        	ldy	#$f
    6635: b1 02        	lda	($2),y                  ; 0x2002 <__heap_default_limit+0x1002>
    6637: 85 04        	sta	$4                      ; 0x2004 <__heap_default_limit+0x1004>
    6639: 68           	pla
    663a: e4 04        	cpx	$4                      ; 0x2004 <__heap_default_limit+0x1004>
    663c: b0 03        	bcs	$6641 <donehypfindfirst6+0x354>
    663e: 4c 95 68     	jmp	$6895 <donehypd81dosattach9+0x26>
    6641: 4c 6b 6d     	jmp	$6d6b <donehypchdir18+0x5c>
    6644: a9 01        	lda	#$1
    6646: a0 46        	ldy	#$46
    6648: 31 16        	and	($16),y                 ; 0x2016 <next_line+0x1>
    664a: d0 03        	bne	$664f <donehypfindfirst6+0x362>
    664c: 4c c6 6b     	jmp	$6bc6 <donehypfindfirst14+0x53>
    664f: a0 10        	ldy	#$10
    6651: b1 02        	lda	($2),y                  ; 0x2002 <__heap_default_limit+0x1002>
    6653: f0 03        	beq	$6658 <donehypfindfirst6+0x36b>
    6655: 4c a9 6b     	jmp	$6ba9 <donehypfindfirst14+0x36>
    6658: a2 01        	ldx	#$1
    665a: 4c ab 6b     	jmp	$6bab <donehypfindfirst14+0x38>
    665d: a6 18        	ldx	$18                     ; 0x2018 <next_line+0x3>
    665f: a5 18        	lda	$18                     ; 0x2018 <next_line+0x3>
    6661: 86 1c        	stx	$1c                     ; 0x201c <next_line+0x7>
    6663: 18           	clc
    6664: 69 1e        	adc	#$1e
    6666: 85 04        	sta	$4                      ; 0x2004 <__heap_default_limit+0x1004>
    6668: a5 19        	lda	$19                     ; 0x2019 <next_line+0x4>
    666a: 69 00        	adc	#$0
    666c: 85 05        	sta	$5                      ; 0x2005 <__heap_default_limit+0x1005>
    666e: a0 1e        	ldy	#$1e
    6670: b1 18        	lda	($18),y                 ; 0x2018 <next_line+0x3>
    6672: 85 06        	sta	$6                      ; 0x2006 <__heap_default_limit+0x1006>
    6674: a0 01        	ldy	#$1
    6676: b1 04        	lda	($4),y                  ; 0x2004 <__heap_default_limit+0x1004>
    6678: 85 1e        	sta	$1e                     ; 0x201e <next_line+0x9>
    667a: b2 16        	lda	($16),z                 ; 0x2016 <next_line+0x1>
    667c: 85 1f        	sta	$1f                     ; 0x201f <next_line+0xa>
    667e: a0 03        	ldy	#$3
    6680: b1 18        	lda	($18),y                 ; 0x2018 <next_line+0x3>
    6682: 85 20        	sta	$20                     ; 0x2020 <next_line+0xb>
    6684: a2 28        	ldx	#$28
    6686: 86 04        	stx	$4                      ; 0x2004 <__heap_default_limit+0x1004>
    6688: 64 05        	stz	$5                      ; 0x2005 <__heap_default_limit+0x1005>
    668a: a6 1e        	ldx	$1e                     ; 0x201e <next_line+0x9>
    668c: a5 06        	lda	$6                      ; 0x2006 <__heap_default_limit+0x1006>
    668e: 85 1d        	sta	$1d                     ; 0x201d <next_line+0x8>
    6690: 20 82 7e     	jsr	$7e82 <__udivhi3>
    6693: 85 04        	sta	$4                      ; 0x2004 <__heap_default_limit+0x1004>
    6695: a6 20        	ldx	$20                     ; 0x2020 <next_line+0xb>
    6697: 86 09        	stx	$9                      ; 0x2009 <__heap_default_limit+0x1009>
    6699: a5 20        	lda	$20                     ; 0x2020 <next_line+0xb>
    669b: 18           	clc
    669c: 65 04        	adc	$4                      ; 0x2004 <__heap_default_limit+0x1004>
    669e: 85 20        	sta	$20                     ; 0x2020 <next_line+0xb>
    66a0: 64 04        	stz	$4                      ; 0x2004 <__heap_default_limit+0x1004>
    66a2: a2 08        	ldx	#$8
    66a4: 86 05        	stx	$5                      ; 0x2005 <__heap_default_limit+0x1005>
    66a6: a2 02        	ldx	#$2
    66a8: 86 06        	stx	$6                      ; 0x2006 <__heap_default_limit+0x1006>
    66aa: 64 07        	stz	$7                      ; 0x2007 <__heap_default_limit+0x1007>
    66ac: a6 1f        	ldx	$1f                     ; 0x201f <next_line+0xa>
    66ae: 86 08        	stx	$8                      ; 0x2008 <__heap_default_limit+0x1008>
    66b0: a6 09        	ldx	$9                      ; 0x2009 <__heap_default_limit+0x1009>
    66b2: 86 1f        	stx	$1f                     ; 0x201f <next_line+0xa>
    66b4: a2 01        	ldx	#$1
    66b6: 86 0a        	stx	$a                      ; 0x200a <__heap_default_limit+0x100a>
    66b8: a2 3c        	ldx	#$3c
    66ba: a9 00        	lda	#$0
    66bc: 20 bb 26     	jsr	$26bb <readblockchain>
    66bf: 64 04        	stz	$4                      ; 0x2004 <__heap_default_limit+0x1004>
    66c1: a2 08        	ldx	#$8
    66c3: 86 05        	stx	$5                      ; 0x2005 <__heap_default_limit+0x1005>
    66c5: 64 06        	stz	$6                      ; 0x2006 <__heap_default_limit+0x1006>
    66c7: a2 17        	ldx	#$17
    66c9: 86 07        	stx	$7                      ; 0x2007 <__heap_default_limit+0x1007>
    66cb: 64 08        	stz	$8                      ; 0x2008 <__heap_default_limit+0x1008>
    66cd: 64 09        	stz	$9                      ; 0x2009 <__heap_default_limit+0x1009>
    66cf: 64 0a        	stz	$a                      ; 0x200a <__heap_default_limit+0x100a>
    66d1: a2 02        	ldx	#$2
    66d3: 86 0b        	stx	$b                      ; 0x200b <__heap_default_limit+0x100b>
    66d5: a2 3c        	ldx	#$3c
    66d7: a9 00        	lda	#$0
    66d9: 20 c7 7b     	jsr	$7bc7 <lcopy>
    66dc: a2 00        	ldx	#$0
    66de: 86 04        	stx	$4                      ; 0x2004 <__heap_default_limit+0x1004>
    66e0: a2 17        	ldx	#$17
    66e2: 86 05        	stx	$5                      ; 0x2005 <__heap_default_limit+0x1005>
    66e4: a2 00        	ldx	#$0
    66e6: 86 06        	stx	$6                      ; 0x2006 <__heap_default_limit+0x1006>
    66e8: a2 18        	ldx	#$18
    66ea: 86 07        	stx	$7                      ; 0x2007 <__heap_default_limit+0x1007>
    66ec: a6 20        	ldx	$20                     ; 0x2020 <next_line+0xb>
    66ee: 86 08        	stx	$8                      ; 0x2008 <__heap_default_limit+0x1008>
    66f0: a6 1f        	ldx	$1f                     ; 0x201f <next_line+0xa>
    66f2: a5 1f        	lda	$1f                     ; 0x201f <next_line+0xa>
    66f4: 20 57 2a     	jsr	$2a57 <BAMSectorsFreeBlocks>
    66f7: 85 04        	sta	$4                      ; 0x2004 <__heap_default_limit+0x1004>
    66f9: 86 05        	stx	$5                      ; 0x2005 <__heap_default_limit+0x1005>
    66fb: 18           	clc
    66fc: a5 1c        	lda	$1c                     ; 0x201c <next_line+0x7>
    66fe: 69 05        	adc	#$5
    6700: 85 06        	sta	$6                      ; 0x2006 <__heap_default_limit+0x1006>
    6702: a5 19        	lda	$19                     ; 0x2019 <next_line+0x4>
    6704: 69 00        	adc	#$0
    6706: 85 07        	sta	$7                      ; 0x2007 <__heap_default_limit+0x1007>
    6708: a6 1e        	ldx	$1e                     ; 0x201e <next_line+0x9>
    670a: e4 05        	cpx	$5                      ; 0x2005 <__heap_default_limit+0x1005>
    670c: f0 03        	beq	$6711 <donehypfindfirst6+0x424>
    670e: 4c bb 68     	jmp	$68bb <donehypd81dosattach9+0x4c>
    6711: a9 00        	lda	#$0
    6713: a6 1d        	ldx	$1d                     ; 0x201d <next_line+0x8>
    6715: e4 04        	cpx	$4                      ; 0x2004 <__heap_default_limit+0x1004>
    6717: f0 03        	beq	$671c <donehypfindfirst6+0x42f>
    6719: 4c bd 68     	jmp	$68bd <donehypd81dosattach9+0x4e>
    671c: 48           	pha
    671d: a5 18        	lda	$18                     ; 0x2018 <next_line+0x3>
    671f: a0 0d        	ldy	#$d
    6721: 91 02        	sta	($2),y                  ; 0x2002 <__heap_default_limit+0x1002>
    6723: a5 19        	lda	$19                     ; 0x2019 <next_line+0x4>
    6725: c8           	iny
    6726: 91 02        	sta	($2),y                  ; 0x2002 <__heap_default_limit+0x1002>
    6728: 68           	pla
    6729: a6 1a        	ldx	$1a                     ; 0x201a <next_line+0x5>
    672b: d0 03        	bne	$6730 <donehypfindfirst6+0x443>
    672d: 4c 7e 6f     	jmp	$6f7e <donehypchdir18+0x26f>
    6730: a2 3d        	ldx	#$3d
    6732: 86 08        	stx	$8                      ; 0x2008 <__heap_default_limit+0x1008>
    6734: a2 89        	ldx	#$89
    6736: 86 09        	stx	$9                      ; 0x2009 <__heap_default_limit+0x1009>
    6738: a2 cf        	ldx	#$cf
    673a: 86 04        	stx	$4                      ; 0x2004 <__heap_default_limit+0x1004>
    673c: a2 88        	ldx	#$88
    673e: 86 05        	stx	$5                      ; 0x2005 <__heap_default_limit+0x1005>
    6740: 85 0a        	sta	$a                      ; 0x200a <__heap_default_limit+0x100a>
    6742: 85 0b        	sta	$b                      ; 0x200b <__heap_default_limit+0x100b>
    6744: 85 0c        	sta	$c                      ; 0x200c <__heap_default_limit+0x100c>
    6746: aa           	tax
    6747: a9 00        	lda	#$0
    6749: 20 b5 3c     	jsr	$3cb5 <messagebox>
    674c: aa           	tax
    674d: d0 03        	bne	$6752 <donehypfindfirst6+0x465>
    674f: 4c e9 4f     	jmp	$4fe9 <navi+0x2a3>
    6752: a0 10        	ldy	#$10
    6754: b1 02        	lda	($2),y                  ; 0x2002 <__heap_default_limit+0x1002>
    6756: 85 18        	sta	$18                     ; 0x2018 <next_line+0x3>
    6758: 20 22 26     	jsr	$2622 <GetBAM>
    675b: b2 16        	lda	($16),z                 ; 0x2016 <next_line+0x1>
    675d: 85 06        	sta	$6                      ; 0x2006 <__heap_default_limit+0x1006>
    675f: a0 47        	ldy	#$47
    6761: b1 16        	lda	($16),y                 ; 0x2016 <next_line+0x1>
    6763: 85 04        	sta	$4                      ; 0x2004 <__heap_default_limit+0x1004>
    6765: a0 01        	ldy	#$1
    6767: b1 16        	lda	($16),y                 ; 0x2016 <next_line+0x1>
    6769: 85 05        	sta	$5                      ; 0x2005 <__heap_default_limit+0x1005>
    676b: a6 18        	ldx	$18                     ; 0x2018 <next_line+0x3>
    676d: a5 06        	lda	$6                      ; 0x2006 <__heap_default_limit+0x1006>
    676f: 20 20 36     	jsr	$3620 <deletedirententry>
    6772: b2 16        	lda	($16),z                 ; 0x2016 <next_line+0x1>
    6774: 85 05        	sta	$5                      ; 0x2005 <__heap_default_limit+0x1005>
    6776: a0 47        	ldy	#$47
    6778: b1 16        	lda	($16),y                 ; 0x2016 <next_line+0x1>
    677a: 85 04        	sta	$4                      ; 0x2004 <__heap_default_limit+0x1004>
    677c: a6 18        	ldx	$18                     ; 0x2018 <next_line+0x3>
    677e: a5 05        	lda	$5                      ; 0x2005 <__heap_default_limit+0x1005>
    6780: 20 5b 26     	jsr	$265b <PutBAM>
    6783: 4c c2 67     	jmp	$67c2 <donehypclosedir8+0x7>
    6786: a5 1a        	lda	$1a                     ; 0x201a <next_line+0x5>
    6788: d0 03        	bne	$678d <donehypfindfirst6+0x4a0>
    678a: 4c 22 6b     	jmp	$6b22 <donehypclosefile13+0x85>
    678d: a2 3d        	ldx	#$3d
    678f: 86 08        	stx	$8                      ; 0x2008 <__heap_default_limit+0x1008>
    6791: a2 89        	ldx	#$89
    6793: 4c 28 6b     	jmp	$6b28 <donehypclosefile13+0x8b>
    6796: a6 04        	ldx	$4                      ; 0x2004 <__heap_default_limit+0x1004>
    6798: a9 26        	lda	#$26
    679a: 8d 40 d6     	sta	$d640                   ; 0xd640 <__heap_start+0x46c4>
    679d: b8           	clv
    679e: 90 05        	bcc	$67a5 <errhyprmfile7>
    67a0: 85 04        	sta	$4                      ; 0x2004 <__heap_default_limit+0x1004>
    67a2: 4c a9 67     	jmp	$67a9 <donehyprmfile7>

000067a5 <errhyprmfile7>:
    67a5: a9 ff        	lda	#$ff
    67a7: 85 04        	sta	$4                      ; 0x2004 <__heap_default_limit+0x1004>

000067a9 <donehyprmfile7>:
    67a9: ea           	nop
    67aa: 5a           	phy
    67ab: fa           	plx
    67ac: a9 16        	lda	#$16
    67ae: 8d 40 d6     	sta	$d640                   ; 0xd640 <__heap_start+0x46c4>
    67b1: b8           	clv
    67b2: 90 05        	bcc	$67b9 <errhypclosedir8>
    67b4: 86 04        	stx	$4                      ; 0x2004 <__heap_default_limit+0x1004>
    67b6: 4c bb 67     	jmp	$67bb <donehypclosedir8>

000067b9 <errhypclosedir8>:
    67b9: 85 04        	sta	$4                      ; 0x2004 <__heap_default_limit+0x1004>

000067bb <donehypclosedir8>:
    67bb: ea           	nop
    67bc: a0 10        	ldy	#$10
    67be: b1 02        	lda	($2),y                  ; 0x2002 <__heap_default_limit+0x1002>
    67c0: 85 18        	sta	$18                     ; 0x2018 <next_line+0x3>
    67c2: b2 16        	lda	($16),z                 ; 0x2016 <next_line+0x1>
    67c4: a6 18        	ldx	$18                     ; 0x2018 <next_line+0x3>
    67c6: 20 a4 45     	jsr	$45a4 <UpdateSectors>
    67c9: a5 18        	lda	$18                     ; 0x2018 <next_line+0x3>
    67cb: 20 9c 4b     	jsr	$4b9c <Deselect>
    67ce: 4c e9 4f     	jmp	$4fe9 <navi+0x2a3>
    67d1: a6 1b        	ldx	$1b                     ; 0x201b <next_line+0x6>
    67d3: e0 01        	cpx	#$1
    67d5: d0 07        	bne	$67de <donehypclosedir8+0x23>
    67d7: c9 94        	cmp	#$94
    67d9: d0 03        	bne	$67de <donehypclosedir8+0x23>
    67db: 4c 6d 69     	jmp	$696d <donehypd81dosattach9+0xfe>
    67de: a6 1b        	ldx	$1b                     ; 0x201b <next_line+0x6>
    67e0: a5 1c        	lda	$1c                     ; 0x201c <next_line+0x7>
    67e2: e0 01        	cpx	#$1
    67e4: f0 03        	beq	$67e9 <donehypclosedir8+0x2e>
    67e6: 4c 41 69     	jmp	$6941 <donehypd81dosattach9+0xd2>
    67e9: c9 9d        	cmp	#$9d
    67eb: f0 03        	beq	$67f0 <donehypclosedir8+0x35>
    67ed: 4c 41 69     	jmp	$6941 <donehypd81dosattach9+0xd2>
    67f0: a9 27        	lda	#$27
    67f2: 18           	clc
    67f3: 65 1a        	adc	$1a                     ; 0x201a <next_line+0x5>
    67f5: 85 04        	sta	$4                      ; 0x2004 <__heap_default_limit+0x1004>
    67f7: a9 00        	lda	#$0
    67f9: 65 17        	adc	$17                     ; 0x2017 <next_line+0x2>
    67fb: 85 05        	sta	$5                      ; 0x2005 <__heap_default_limit+0x1005>
    67fd: b2 04        	lda	($4),z                  ; 0x2004 <__heap_default_limit+0x1004>
    67ff: aa           	tax
    6800: b1 04        	lda	($4),y                  ; 0x2004 <__heap_default_limit+0x1004>
    6802: 86 04        	stx	$4                      ; 0x2004 <__heap_default_limit+0x1004>
    6804: 85 05        	sta	$5                      ; 0x2005 <__heap_default_limit+0x1005>
    6806: b1 04        	lda	($4),y                  ; 0x2004 <__heap_default_limit+0x1004>
    6808: c9 0b        	cmp	#$b
    680a: b0 03        	bcs	$680f <donehypclosedir8+0x54>
    680c: 4c 46 6d     	jmp	$6d46 <donehypchdir18+0x37>
    680f: 18           	clc
    6810: 69 f6        	adc	#$f6
    6812: 91 04        	sta	($4),y                  ; 0x2004 <__heap_default_limit+0x1004>
    6814: 4c e9 4f     	jmp	$4fe9 <navi+0x2a3>
    6817: a2 72        	ldx	#$72
    6819: 86 06        	stx	$6                      ; 0x2006 <__heap_default_limit+0x1006>
    681b: a2 87        	ldx	#$87
    681d: 86 07        	stx	$7                      ; 0x2007 <__heap_default_limit+0x1007>
    681f: a2 c4        	ldx	#$c4
    6821: 86 04        	stx	$4                      ; 0x2004 <__heap_default_limit+0x1004>
    6823: a2 84        	ldx	#$84
    6825: 86 05        	stx	$5                      ; 0x2005 <__heap_default_limit+0x1005>
    6827: a2 c7        	ldx	#$c7
    6829: 86 08        	stx	$8                      ; 0x2008 <__heap_default_limit+0x1008>
    682b: a2 83        	ldx	#$83
    682d: 86 09        	stx	$9                      ; 0x2009 <__heap_default_limit+0x1009>
    682f: 64 0a        	stz	$a                      ; 0x200a <__heap_default_limit+0x100a>
    6831: 64 0b        	stz	$b                      ; 0x200b <__heap_default_limit+0x100b>
    6833: 64 0c        	stz	$c                      ; 0x200c <__heap_default_limit+0x100c>
    6835: a2 00        	ldx	#$0
    6837: 8a           	txa
    6838: 20 b5 3c     	jsr	$3cb5 <messagebox>
    683b: aa           	tax
    683c: d0 03        	bne	$6841 <donehypclosedir8+0x86>
    683e: 4c e9 4f     	jmp	$4fe9 <navi+0x2a3>
    6841: a9 27        	lda	#$27
    6843: 18           	clc
    6844: 65 1a        	adc	$1a                     ; 0x201a <next_line+0x5>
    6846: 85 04        	sta	$4                      ; 0x2004 <__heap_default_limit+0x1004>
    6848: a9 00        	lda	#$0
    684a: 65 17        	adc	$17                     ; 0x2017 <next_line+0x2>
    684c: 85 05        	sta	$5                      ; 0x2005 <__heap_default_limit+0x1005>
    684e: b2 04        	lda	($4),z                  ; 0x2004 <__heap_default_limit+0x1004>
    6850: aa           	tax
    6851: a0 01        	ldy	#$1
    6853: b1 04        	lda	($4),y                  ; 0x2004 <__heap_default_limit+0x1004>
    6855: 86 04        	stx	$4                      ; 0x2004 <__heap_default_limit+0x1004>
    6857: 85 05        	sta	$5                      ; 0x2005 <__heap_default_limit+0x1005>
    6859: a9 80        	lda	#$80
    685b: 52 04        	eor	($4),z                  ; 0x2004 <__heap_default_limit+0x1004>
    685d: aa           	tax
    685e: a9 4a        	lda	#$4a
    6860: 8d 40 d6     	sta	$d640                   ; 0xd640 <__heap_start+0x46c4>
    6863: b8           	clv
    6864: 90 05        	bcc	$686b <errhypd81dosattach9>
    6866: 85 06        	sta	$6                      ; 0x2006 <__heap_default_limit+0x1006>
    6868: 4c 6f 68     	jmp	$686f <donehypd81dosattach9>

0000686b <errhypd81dosattach9>:
    686b: a9 ff        	lda	#$ff
    686d: 85 06        	sta	$6                      ; 0x2006 <__heap_default_limit+0x1006>

0000686f <donehypd81dosattach9>:
    686f: ea           	nop
    6870: a0 46        	ldy	#$46
    6872: a9 01        	lda	#$1
    6874: 11 04        	ora	($4),y                  ; 0x2004 <__heap_default_limit+0x1004>
    6876: 91 04        	sta	($4),y                  ; 0x2004 <__heap_default_limit+0x1004>
    6878: a9 28        	lda	#$28
    687a: c8           	iny
    687b: 91 04        	sta	($4),y                  ; 0x2004 <__heap_default_limit+0x1004>
    687d: a9 01        	lda	#$1
    687f: c8           	iny
    6880: 91 04        	sta	($4),y                  ; 0x2004 <__heap_default_limit+0x1004>
    6882: a9 50        	lda	#$50
    6884: c8           	iny
    6885: 91 04        	sta	($4),y                  ; 0x2004 <__heap_default_limit+0x1004>
    6887: b2 04        	lda	($4),z                  ; 0x2004 <__heap_default_limit+0x1004>
    6889: 4c 0e 59     	jmp	$590e <navi+0xbc8>
    688c: a9 04        	lda	#$4
    688e: e0 00        	cpx	#$0
    6890: d0 03        	bne	$6895 <donehypd81dosattach9+0x26>
    6892: 4c e9 4f     	jmp	$4fe9 <navi+0x2a3>
    6895: a2 fa        	ldx	#$fa
    6897: 86 04        	stx	$4                      ; 0x2004 <__heap_default_limit+0x1004>
    6899: a2 8b        	ldx	#$8b
    689b: 86 05        	stx	$5                      ; 0x2005 <__heap_default_limit+0x1005>
    689d: a2 cf        	ldx	#$cf
    689f: 86 06        	stx	$6                      ; 0x2006 <__heap_default_limit+0x1006>
    68a1: a2 89        	ldx	#$89
    68a3: 86 07        	stx	$7                      ; 0x2007 <__heap_default_limit+0x1007>
    68a5: a2 c7        	ldx	#$c7
    68a7: 86 08        	stx	$8                      ; 0x2008 <__heap_default_limit+0x1008>
    68a9: a2 83        	ldx	#$83
    68ab: 86 09        	stx	$9                      ; 0x2009 <__heap_default_limit+0x1009>
    68ad: 64 0a        	stz	$a                      ; 0x200a <__heap_default_limit+0x100a>
    68af: 64 0b        	stz	$b                      ; 0x200b <__heap_default_limit+0x100b>
    68b1: 64 0c        	stz	$c                      ; 0x200c <__heap_default_limit+0x100c>
    68b3: a2 00        	ldx	#$0
    68b5: 20 b5 3c     	jsr	$3cb5 <messagebox>
    68b8: 4c e9 4f     	jmp	$4fe9 <navi+0x2a3>
    68bb: a9 00        	lda	#$0
    68bd: 48           	pha
    68be: a5 18        	lda	$18                     ; 0x2018 <next_line+0x3>
    68c0: a0 0d        	ldy	#$d
    68c2: 91 02        	sta	($2),y                  ; 0x2002 <__heap_default_limit+0x1002>
    68c4: a5 19        	lda	$19                     ; 0x2019 <next_line+0x4>
    68c6: c8           	iny
    68c7: 91 02        	sta	($2),y                  ; 0x2002 <__heap_default_limit+0x1002>
    68c9: 68           	pla
    68ca: a2 cf        	ldx	#$cf
    68cc: 86 04        	stx	$4                      ; 0x2004 <__heap_default_limit+0x1004>
    68ce: a2 88        	ldx	#$88
    68d0: 86 05        	stx	$5                      ; 0x2005 <__heap_default_limit+0x1005>
    68d2: a2 e9        	ldx	#$e9
    68d4: 86 08        	stx	$8                      ; 0x2008 <__heap_default_limit+0x1008>
    68d6: a2 89        	ldx	#$89
    68d8: 86 09        	stx	$9                      ; 0x2009 <__heap_default_limit+0x1009>
    68da: 85 0a        	sta	$a                      ; 0x200a <__heap_default_limit+0x100a>
    68dc: 85 0b        	sta	$b                      ; 0x200b <__heap_default_limit+0x100b>
    68de: 85 0c        	sta	$c                      ; 0x200c <__heap_default_limit+0x100c>
    68e0: aa           	tax
    68e1: 4c 6b 61     	jmp	$616b <navi+0x1425>
    68e4: 29 0f        	and	#$f
    68e6: c9 05        	cmp	#$5
    68e8: f0 03        	beq	$68ed <donehypd81dosattach9+0x7e>
    68ea: 4c b3 69     	jmp	$69b3 <donehypd81dosattach9+0x144>
    68ed: a0 02        	ldy	#$2
    68ef: b1 1e        	lda	($1e),y                 ; 0x201e <next_line+0x9>
    68f1: c9 ff        	cmp	#$ff
    68f3: d0 03        	bne	$68f8 <donehypd81dosattach9+0x89>
    68f5: 4c b3 69     	jmp	$69b3 <donehypd81dosattach9+0x144>
    68f8: a0 0d        	ldy	#$d
    68fa: b1 02        	lda	($2),y                  ; 0x2002 <__heap_default_limit+0x1002>
    68fc: 85 06        	sta	$6                      ; 0x2006 <__heap_default_limit+0x1006>
    68fe: c8           	iny
    68ff: b1 02        	lda	($2),y                  ; 0x2002 <__heap_default_limit+0x1002>
    6901: 85 07        	sta	$7                      ; 0x2007 <__heap_default_limit+0x1007>
    6903: a5 06        	lda	$6                      ; 0x2006 <__heap_default_limit+0x1006>
    6905: 18           	clc
    6906: 69 1e        	adc	#$1e
    6908: 85 04        	sta	$4                      ; 0x2004 <__heap_default_limit+0x1004>
    690a: a5 07        	lda	$7                      ; 0x2007 <__heap_default_limit+0x1007>
    690c: 69 00        	adc	#$0
    690e: 85 05        	sta	$5                      ; 0x2005 <__heap_default_limit+0x1005>
    6910: a0 03        	ldy	#$3
    6912: b1 06        	lda	($6),y                  ; 0x2006 <__heap_default_limit+0x1006>
    6914: a0 47        	ldy	#$47
    6916: 91 1e        	sta	($1e),y                 ; 0x201e <next_line+0x9>
    6918: c8           	iny
    6919: 91 1e        	sta	($1e),y                 ; 0x201e <next_line+0x9>
    691b: 85 16        	sta	$16                     ; 0x2016 <next_line+0x1>
    691d: a0 1e        	ldy	#$1e
    691f: b1 06        	lda	($6),y                  ; 0x2006 <__heap_default_limit+0x1006>
    6921: 85 06        	sta	$6                      ; 0x2006 <__heap_default_limit+0x1006>
    6923: a0 01        	ldy	#$1
    6925: b1 04        	lda	($4),y                  ; 0x2004 <__heap_default_limit+0x1004>
    6927: a2 28        	ldx	#$28
    6929: 86 04        	stx	$4                      ; 0x2004 <__heap_default_limit+0x1004>
    692b: 64 05        	stz	$5                      ; 0x2005 <__heap_default_limit+0x1005>
    692d: aa           	tax
    692e: a5 06        	lda	$6                      ; 0x2006 <__heap_default_limit+0x1006>
    6930: 20 82 7e     	jsr	$7e82 <__udivhi3>
    6933: 85 04        	sta	$4                      ; 0x2004 <__heap_default_limit+0x1004>
    6935: 18           	clc
    6936: a5 16        	lda	$16                     ; 0x2016 <next_line+0x1>
    6938: 65 04        	adc	$4                      ; 0x2004 <__heap_default_limit+0x1004>
    693a: a0 49        	ldy	#$49
    693c: 91 1e        	sta	($1e),y                 ; 0x201e <next_line+0x9>
    693e: 4c 41 6d     	jmp	$6d41 <donehypchdir18+0x32>
    6941: a6 1b        	ldx	$1b                     ; 0x201b <next_line+0x6>
    6943: e0 02        	cpx	#$2
    6945: d0 07        	bne	$694e <donehypd81dosattach9+0xdf>
    6947: c9 09        	cmp	#$9
    6949: d0 03        	bne	$694e <donehypd81dosattach9+0xdf>
    694b: 4c ba 57     	jmp	$57ba <navi+0xa74>
    694e: a6 1b        	ldx	$1b                     ; 0x201b <next_line+0x6>
    6950: a5 1c        	lda	$1c                     ; 0x201c <next_line+0x7>
    6952: e0 0a        	cpx	#$a
    6954: d0 07        	bne	$695d <donehypd81dosattach9+0xee>
    6956: c9 f8        	cmp	#$f8
    6958: d0 03        	bne	$695d <donehypd81dosattach9+0xee>
    695a: 4c e6 72     	jmp	$72e6 <donehypd81dosattach22+0x16>
    695d: a6 1b        	ldx	$1b                     ; 0x201b <next_line+0x6>
    695f: e0 02        	cpx	#$2
    6961: f0 03        	beq	$6966 <donehypd81dosattach9+0xf7>
    6963: 4c 4d 6d     	jmp	$6d4d <donehypchdir18+0x3e>
    6966: c9 94        	cmp	#$94
    6968: f0 03        	beq	$696d <donehypd81dosattach9+0xfe>
    696a: 4c 4d 6d     	jmp	$6d4d <donehypchdir18+0x3e>
    696d: a9 27        	lda	#$27
    696f: 18           	clc
    6970: 65 1a        	adc	$1a                     ; 0x201a <next_line+0x5>
    6972: 85 04        	sta	$4                      ; 0x2004 <__heap_default_limit+0x1004>
    6974: a9 00        	lda	#$0
    6976: 65 17        	adc	$17                     ; 0x2017 <next_line+0x2>
    6978: 85 05        	sta	$5                      ; 0x2005 <__heap_default_limit+0x1005>
    697a: b2 04        	lda	($4),z                  ; 0x2004 <__heap_default_limit+0x1004>
    697c: aa           	tax
    697d: b1 04        	lda	($4),y                  ; 0x2004 <__heap_default_limit+0x1004>
    697f: 86 04        	stx	$4                      ; 0x2004 <__heap_default_limit+0x1004>
    6981: 85 05        	sta	$5                      ; 0x2005 <__heap_default_limit+0x1005>
    6983: 38           	sec
    6984: a5 21        	lda	$21                     ; 0x2021 <_start>
    6986: e5 1f        	sbc	$1f                     ; 0x201f <next_line+0xa>
    6988: 85 06        	sta	$6                      ; 0x2006 <__heap_default_limit+0x1006>
    698a: 5a           	phy
    698b: a0 1d        	ldy	#$1d
    698d: b1 02        	lda	($2),y                  ; 0x2002 <__heap_default_limit+0x1002>
    698f: 7a           	ply
    6990: e5 1e        	sbc	$1e                     ; 0x201e <next_line+0x9>
    6992: 85 07        	sta	$7                      ; 0x2007 <__heap_default_limit+0x1007>
    6994: a9 30        	lda	#$30
    6996: 18           	clc
    6997: 65 06        	adc	$6                      ; 0x2006 <__heap_default_limit+0x1006>
    6999: 85 06        	sta	$6                      ; 0x2006 <__heap_default_limit+0x1006>
    699b: a9 8e        	lda	#$8e
    699d: 65 07        	adc	$7                      ; 0x2007 <__heap_default_limit+0x1007>
    699f: 85 07        	sta	$7                      ; 0x2007 <__heap_default_limit+0x1007>
    69a1: b1 04        	lda	($4),y                  ; 0x2004 <__heap_default_limit+0x1004>
    69a3: a8           	tay
    69a4: a9 01        	lda	#$1
    69a6: 51 06        	eor	($6),y                  ; 0x2006 <__heap_default_limit+0x1006>
    69a8: 91 06        	sta	($6),y                  ; 0x2006 <__heap_default_limit+0x1006>
    69aa: c8           	iny
    69ab: 98           	tya
    69ac: a0 01        	ldy	#$1
    69ae: 91 04        	sta	($4),y                  ; 0x2004 <__heap_default_limit+0x1004>
    69b0: 4c e9 4f     	jmp	$4fe9 <navi+0x2a3>
    69b3: 20 f9 78     	jsr	$78f9 <sidbong>
    69b6: a0 02        	ldy	#$2
    69b8: b1 1e        	lda	($1e),y                 ; 0x201e <next_line+0x9>
    69ba: c9 ff        	cmp	#$ff
    69bc: d0 03        	bne	$69c1 <donehypd81dosattach9+0x152>
    69be: 4c e9 4f     	jmp	$4fe9 <navi+0x2a3>
    69c1: a2 8e        	ldx	#$8e
    69c3: 86 04        	stx	$4                      ; 0x2004 <__heap_default_limit+0x1004>
    69c5: a2 87        	ldx	#$87
    69c7: 86 05        	stx	$5                      ; 0x2005 <__heap_default_limit+0x1005>
    69c9: a2 6d        	ldx	#$6d
    69cb: 86 06        	stx	$6                      ; 0x2006 <__heap_default_limit+0x1006>
    69cd: a2 8b        	ldx	#$8b
    69cf: 4c d4 58     	jmp	$58d4 <navi+0xb8e>
    69d2: 84 17        	sty	$17                     ; 0x2017 <next_line+0x2>
    69d4: a0 00        	ldy	#$0
    69d6: 84 18        	sty	$18                     ; 0x2018 <next_line+0x3>
    69d8: a0 1c        	ldy	#$1c
    69da: 84 19        	sty	$19                     ; 0x2019 <next_line+0x4>
    69dc: a0 00        	ldy	#$0
    69de: 84 04        	sty	$4                      ; 0x2004 <__heap_default_limit+0x1004>
    69e0: a0 1c        	ldy	#$1c
    69e2: 84 05        	sty	$5                      ; 0x2005 <__heap_default_limit+0x1005>
    69e4: a0 8a        	ldy	#$8a
    69e6: 84 06        	sty	$6                      ; 0x2006 <__heap_default_limit+0x1006>
    69e8: a0 8a        	ldy	#$8a
    69ea: 84 07        	sty	$7                      ; 0x2007 <__heap_default_limit+0x1007>
    69ec: a9 0b        	lda	#$b
    69ee: 20 8e 82     	jsr	$828e <memcpy>
    69f1: a2 0a        	ldx	#$a
    69f3: 8a           	txa
    69f4: a0 1d        	ldy	#$1d
    69f6: 91 02        	sta	($2),y                  ; 0x2002 <__heap_default_limit+0x1002>
    69f8: a2 00        	ldx	#$0
    69fa: 86 04        	stx	$4                      ; 0x2004 <__heap_default_limit+0x1004>
    69fc: a2 1c        	ldx	#$1c
    69fe: 86 05        	stx	$5                      ; 0x2005 <__heap_default_limit+0x1005>
    6a00: 20 9e 21     	jsr	$219e <hyppo_setname>
    6a03: 18           	clc
    6a04: a0 1d        	ldy	#$1d
    6a06: b1 02        	lda	($2),y                  ; 0x2002 <__heap_default_limit+0x1002>
    6a08: 69 06        	adc	#$6
    6a0a: a2 00        	ldx	#$0
    6a0c: 86 04        	stx	$4                      ; 0x2004 <__heap_default_limit+0x1004>
    6a0e: a2 1c        	ldx	#$1c
    6a10: 86 05        	stx	$5                      ; 0x2005 <__heap_default_limit+0x1005>
    6a12: 85 16        	sta	$16                     ; 0x2016 <next_line+0x1>
    6a14: aa           	tax
    6a15: a9 11        	lda	#$11
    6a17: 20 14 3b     	jsr	$3b14 <mcputsxy>
    6a1a: a2 00        	ldx	#$0
    6a1c: a9 30        	lda	#$30
    6a1e: 8d 40 d6     	sta	$d640                   ; 0xd640 <__heap_start+0x46c4>
    6a21: b8           	clv
    6a22: 90 05        	bcc	$6a29 <errhypfindfirst10>
    6a24: 85 04        	sta	$4                      ; 0x2004 <__heap_default_limit+0x1004>
    6a26: 4c 2b 6a     	jmp	$6a2b <donehypfindfirst10>

00006a29 <errhypfindfirst10>:
    6a29: 85 04        	sta	$4                      ; 0x2004 <__heap_default_limit+0x1004>

00006a2b <donehypfindfirst10>:
    6a2b: ea           	nop
    6a2c: a6 04        	ldx	$4                      ; 0x2004 <__heap_default_limit+0x1004>
    6a2e: a0 e6        	ldy	#$e6
    6a30: 84 04        	sty	$4                      ; 0x2004 <__heap_default_limit+0x1004>
    6a32: a0 8a        	ldy	#$8a
    6a34: 84 05        	sty	$5                      ; 0x2005 <__heap_default_limit+0x1005>
    6a36: e0 88        	cpx	#$88
    6a38: d0 03        	bne	$6a3d <donehypfindfirst10+0x12>
    6a3a: 4c d8 6a     	jmp	$6ad8 <donehypclosefile13+0x3b>
    6a3d: a9 18        	lda	#$18
    6a3f: 8d 40 d6     	sta	$d640                   ; 0xd640 <__heap_start+0x46c4>
    6a42: b8           	clv
    6a43: 90 05        	bcc	$6a4a <errhypopenfile11>
    6a45: 85 04        	sta	$4                      ; 0x2004 <__heap_default_limit+0x1004>
    6a47: 4c 4c 6a     	jmp	$6a4c <donehypopenfile11>

00006a4a <errhypopenfile11>:
    6a4a: 85 04        	sta	$4                      ; 0x2004 <__heap_default_limit+0x1004>

00006a4c <donehypopenfile11>:
    6a4c: ea           	nop
    6a4d: a6 04        	ldx	$4                      ; 0x2004 <__heap_default_limit+0x1004>
    6a4f: e0 84        	cpx	#$84
    6a51: f0 0d        	beq	$6a60 <donehypopenfile11+0x14>
    6a53: e0 86        	cpx	#$86
    6a55: d0 12        	bne	$6a69 <donehypopenfile11+0x1d>
    6a57: a2 00        	ldx	#$0
    6a59: 86 04        	stx	$4                      ; 0x2004 <__heap_default_limit+0x1004>
    6a5b: a2 8a        	ldx	#$8a
    6a5d: 4c d6 6a     	jmp	$6ad6 <donehypclosefile13+0x39>
    6a60: a2 95        	ldx	#$95
    6a62: 86 04        	stx	$4                      ; 0x2004 <__heap_default_limit+0x1004>
    6a64: a2 8a        	ldx	#$8a
    6a66: 4c d6 6a     	jmp	$6ad6 <donehypclosefile13+0x39>
    6a69: a9 1a        	lda	#$1a
    6a6b: 8d 40 d6     	sta	$d640                   ; 0xd640 <__heap_start+0x46c4>
    6a6e: b8           	clv
    6a6f: 90 05        	bcc	$6a76 <errhypreadfile12>
    6a71: 85 04        	sta	$4                      ; 0x2004 <__heap_default_limit+0x1004>
    6a73: 4c 7a 6a     	jmp	$6a7a <donehypreadfile12>

00006a76 <errhypreadfile12>:
    6a76: a9 ff        	lda	#$ff
    6a78: 85 04        	sta	$4                      ; 0x2004 <__heap_default_limit+0x1004>

00006a7a <donehypreadfile12>:
    6a7a: ea           	nop
    6a7b: a4 04        	ldy	$4                      ; 0x2004 <__heap_default_limit+0x1004>
    6a7d: a9 2e        	lda	#$2e
    6a7f: 85 04        	sta	$4                      ; 0x2004 <__heap_default_limit+0x1004>
    6a81: a9 8c        	lda	#$8c
    6a83: 85 05        	sta	$5                      ; 0x2005 <__heap_default_limit+0x1005>
    6a85: c0 89        	cpy	#$89
    6a87: d0 03        	bne	$6a8c <donehypreadfile12+0x12>
    6a89: 4c d8 6a     	jmp	$6ad8 <donehypclosefile13+0x3b>
    6a8c: a9 20        	lda	#$20
    6a8e: 8d 40 d6     	sta	$d640                   ; 0xd640 <__heap_start+0x46c4>
    6a91: b8           	clv
    6a92: 90 05        	bcc	$6a99 <errhypclosefile13>
    6a94: 85 04        	sta	$4                      ; 0x2004 <__heap_default_limit+0x1004>
    6a96: 4c 9d 6a     	jmp	$6a9d <donehypclosefile13>

00006a99 <errhypclosefile13>:
    6a99: a9 ff        	lda	#$ff
    6a9b: 85 04        	sta	$4                      ; 0x2004 <__heap_default_limit+0x1004>

00006a9d <donehypclosefile13>:
    6a9d: ea           	nop
    6a9e: 64 04        	stz	$4                      ; 0x2004 <__heap_default_limit+0x1004>
    6aa0: 64 05        	stz	$5                      ; 0x2005 <__heap_default_limit+0x1005>
    6aa2: 64 06        	stz	$6                      ; 0x2006 <__heap_default_limit+0x1006>
    6aa4: 64 07        	stz	$7                      ; 0x2007 <__heap_default_limit+0x1007>
    6aa6: a2 01        	ldx	#$1
    6aa8: 86 08        	stx	$8                      ; 0x2008 <__heap_default_limit+0x1008>
    6aaa: a2 19        	ldx	#$19
    6aac: a9 00        	lda	#$0
    6aae: 20 2e 7c     	jsr	$7c2e <lfill>
    6ab1: a2 fd        	ldx	#$fd
    6ab3: 86 04        	stx	$4                      ; 0x2004 <__heap_default_limit+0x1004>
    6ab5: a2 0f        	ldx	#$f
    6ab7: 86 05        	stx	$5                      ; 0x2005 <__heap_default_limit+0x1005>
    6ab9: 64 06        	stz	$6                      ; 0x2006 <__heap_default_limit+0x1006>
    6abb: a2 19        	ldx	#$19
    6abd: 86 07        	stx	$7                      ; 0x2007 <__heap_default_limit+0x1007>
    6abf: 64 08        	stz	$8                      ; 0x2008 <__heap_default_limit+0x1008>
    6ac1: 64 09        	stz	$9                      ; 0x2009 <__heap_default_limit+0x1009>
    6ac3: 64 0a        	stz	$a                      ; 0x200a <__heap_default_limit+0x100a>
    6ac5: a2 01        	ldx	#$1
    6ac7: 86 0b        	stx	$b                      ; 0x200b <__heap_default_limit+0x100b>
    6ac9: a2 6e        	ldx	#$6e
    6acb: a9 16        	lda	#$16
    6acd: 20 c7 7b     	jsr	$7bc7 <lcopy>
    6ad0: a2 00        	ldx	#$0
    6ad2: 86 04        	stx	$4                      ; 0x2004 <__heap_default_limit+0x1004>
    6ad4: a2 19        	ldx	#$19
    6ad6: 86 05        	stx	$5                      ; 0x2005 <__heap_default_limit+0x1005>
    6ad8: a6 16        	ldx	$16                     ; 0x2016 <next_line+0x1>
    6ada: a9 1e        	lda	#$1e
    6adc: 20 14 3b     	jsr	$3b14 <mcputsxy>
    6adf: a4 17        	ldy	$17                     ; 0x2017 <next_line+0x2>
    6ae1: c8           	iny
    6ae2: a2 00        	ldx	#$0
    6ae4: c0 0a        	cpy	#$a
    6ae6: d0 03        	bne	$6aeb <donehypclosefile13+0x4e>
    6ae8: 4c d2 69     	jmp	$69d2 <donehypd81dosattach9+0x163>
    6aeb: c0 0b        	cpy	#$b
    6aed: d0 03        	bne	$6af2 <donehypclosefile13+0x55>
    6aef: 4c 17 70     	jmp	$7017 <donehyp0att20+0x5a>
    6af2: a9 00        	lda	#$0
    6af4: 85 18        	sta	$18                     ; 0x2018 <next_line+0x3>
    6af6: a9 1c        	lda	#$1c
    6af8: 85 19        	sta	$19                     ; 0x2019 <next_line+0x4>
    6afa: a9 00        	lda	#$0
    6afc: 85 04        	sta	$4                      ; 0x2004 <__heap_default_limit+0x1004>
    6afe: a9 1c        	lda	#$1c
    6b00: 85 05        	sta	$5                      ; 0x2005 <__heap_default_limit+0x1005>
    6b02: a9 0d        	lda	#$d
    6b04: 85 06        	sta	$6                      ; 0x2006 <__heap_default_limit+0x1006>
    6b06: a9 8b        	lda	#$8b
    6b08: 85 07        	sta	$7                      ; 0x2007 <__heap_default_limit+0x1007>
    6b0a: a9 0c        	lda	#$c
    6b0c: 84 16        	sty	$16                     ; 0x2016 <next_line+0x1>
    6b0e: 20 8e 82     	jsr	$828e <memcpy>
    6b11: a5 16        	lda	$16                     ; 0x2016 <next_line+0x1>
    6b13: 18           	clc
    6b14: 69 30        	adc	#$30
    6b16: 8d 06 1c     	sta	$1c06                   ; 0x1c06 <__heap_default_limit+0xc06>
    6b19: a6 16        	ldx	$16                     ; 0x2016 <next_line+0x1>
    6b1b: 86 17        	stx	$17                     ; 0x2017 <next_line+0x2>
    6b1d: a5 16        	lda	$16                     ; 0x2016 <next_line+0x1>
    6b1f: 4c f4 69     	jmp	$69f4 <donehypd81dosattach9+0x185>
    6b22: a2 2e        	ldx	#$2e
    6b24: 86 08        	stx	$8                      ; 0x2008 <__heap_default_limit+0x1008>
    6b26: a2 84        	ldx	#$84
    6b28: 86 09        	stx	$9                      ; 0x2009 <__heap_default_limit+0x1009>
    6b2a: a5 18        	lda	$18                     ; 0x2018 <next_line+0x3>
    6b2c: 18           	clc
    6b2d: 69 05        	adc	#$5
    6b2f: 85 1a        	sta	$1a                     ; 0x201a <next_line+0x5>
    6b31: a5 19        	lda	$19                     ; 0x2019 <next_line+0x4>
    6b33: 69 00        	adc	#$0
    6b35: 85 1b        	sta	$1b                     ; 0x201b <next_line+0x6>
    6b37: a2 a8        	ldx	#$a8
    6b39: 86 04        	stx	$4                      ; 0x2004 <__heap_default_limit+0x1004>
    6b3b: a2 84        	ldx	#$84
    6b3d: 86 05        	stx	$5                      ; 0x2005 <__heap_default_limit+0x1005>
    6b3f: a6 1a        	ldx	$1a                     ; 0x201a <next_line+0x5>
    6b41: 86 06        	stx	$6                      ; 0x2006 <__heap_default_limit+0x1006>
    6b43: 85 07        	sta	$7                      ; 0x2007 <__heap_default_limit+0x1007>
    6b45: 64 0a        	stz	$a                      ; 0x200a <__heap_default_limit+0x100a>
    6b47: 64 0b        	stz	$b                      ; 0x200b <__heap_default_limit+0x100b>
    6b49: 64 0c        	stz	$c                      ; 0x200c <__heap_default_limit+0x100c>
    6b4b: a2 00        	ldx	#$0
    6b4d: 8a           	txa
    6b4e: 20 b5 3c     	jsr	$3cb5 <messagebox>
    6b51: aa           	tax
    6b52: d0 03        	bne	$6b57 <donehypclosefile13+0xba>
    6b54: 4c ab 6c     	jmp	$6cab <donehypclosedir17+0x1>
    6b57: a6 1a        	ldx	$1a                     ; 0x201a <next_line+0x5>
    6b59: 86 04        	stx	$4                      ; 0x2004 <__heap_default_limit+0x1004>
    6b5b: a6 1b        	ldx	$1b                     ; 0x201b <next_line+0x6>
    6b5d: 86 05        	stx	$5                      ; 0x2005 <__heap_default_limit+0x1005>
    6b5f: 20 9e 21     	jsr	$219e <hyppo_setname>
    6b62: a2 00        	ldx	#$0
    6b64: a9 30        	lda	#$30
    6b66: 8d 40 d6     	sta	$d640                   ; 0xd640 <__heap_start+0x46c4>
    6b69: b8           	clv
    6b6a: 90 05        	bcc	$6b71 <errhypfindfirst14>
    6b6c: 85 04        	sta	$4                      ; 0x2004 <__heap_default_limit+0x1004>
    6b6e: 4c 73 6b     	jmp	$6b73 <donehypfindfirst14>

00006b71 <errhypfindfirst14>:
    6b71: 85 04        	sta	$4                      ; 0x2004 <__heap_default_limit+0x1004>

00006b73 <donehypfindfirst14>:
    6b73: ea           	nop
    6b74: a4 04        	ldy	$4                      ; 0x2004 <__heap_default_limit+0x1004>
    6b76: c0 84        	cpy	#$84
    6b78: b0 03        	bcs	$6b7d <donehypfindfirst14+0xa>
    6b7a: 4c 85 6c     	jmp	$6c85 <donehypchdir15+0x38>
    6b7d: a2 85        	ldx	#$85
    6b7f: 86 04        	stx	$4                      ; 0x2004 <__heap_default_limit+0x1004>
    6b81: a2 8b        	ldx	#$8b
    6b83: 86 05        	stx	$5                      ; 0x2005 <__heap_default_limit+0x1005>
    6b85: a6 1a        	ldx	$1a                     ; 0x201a <next_line+0x5>
    6b87: 86 06        	stx	$6                      ; 0x2006 <__heap_default_limit+0x1006>
    6b89: a6 1b        	ldx	$1b                     ; 0x201b <next_line+0x6>
    6b8b: 86 07        	stx	$7                      ; 0x2007 <__heap_default_limit+0x1007>
    6b8d: a2 93        	ldx	#$93
    6b8f: 86 08        	stx	$8                      ; 0x2008 <__heap_default_limit+0x1008>
    6b91: a2 86        	ldx	#$86
    6b93: 86 09        	stx	$9                      ; 0x2009 <__heap_default_limit+0x1009>
    6b95: 64 0a        	stz	$a                      ; 0x200a <__heap_default_limit+0x100a>
    6b97: 64 0b        	stz	$b                      ; 0x200b <__heap_default_limit+0x100b>
    6b99: 64 0c        	stz	$c                      ; 0x200c <__heap_default_limit+0x100c>
    6b9b: a2 00        	ldx	#$0
    6b9d: a9 04        	lda	#$4
    6b9f: 84 1a        	sty	$1a                     ; 0x201a <next_line+0x5>
    6ba1: 20 b5 3c     	jsr	$3cb5 <messagebox>
    6ba4: a4 1a        	ldy	$1a                     ; 0x201a <next_line+0x5>
    6ba6: 4c 99 6c     	jmp	$6c99 <donehyprmfile16+0x1>
    6ba9: a2 00        	ldx	#$0
    6bab: 86 04        	stx	$4                      ; 0x2004 <__heap_default_limit+0x1004>
    6bad: 06 04        	asl	$4                      ; 0x2004 <__heap_default_limit+0x1004>
    6baf: a6 04        	ldx	$4                      ; 0x2004 <__heap_default_limit+0x1004>
    6bb1: b4 27        	ldy	$27,x                   ; 0x2027 <_start+0x6>
    6bb3: b5 28        	lda	$28,x                   ; 0x2028 <_start+0x7>
    6bb5: aa           	tax
    6bb6: 84 1c        	sty	$1c                     ; 0x201c <next_line+0x7>
    6bb8: 84 1a        	sty	$1a                     ; 0x201a <next_line+0x5>
    6bba: 86 1b        	stx	$1b                     ; 0x201b <next_line+0x6>
    6bbc: a0 46        	ldy	#$46
    6bbe: a9 01        	lda	#$1
    6bc0: 31 1a        	and	($1a),y                 ; 0x201a <next_line+0x5>
    6bc2: 29 01        	and	#$1
    6bc4: d0 1c        	bne	$6be2 <donehypfindfirst14+0x6f>
    6bc6: a5 18        	lda	$18                     ; 0x2018 <next_line+0x3>
    6bc8: a0 0d        	ldy	#$d
    6bca: 91 02        	sta	($2),y                  ; 0x2002 <__heap_default_limit+0x1002>
    6bcc: a5 19        	lda	$19                     ; 0x2019 <next_line+0x4>
    6bce: c8           	iny
    6bcf: 91 02        	sta	($2),y                  ; 0x2002 <__heap_default_limit+0x1002>
    6bd1: a2 d7        	ldx	#$d7
    6bd3: 86 04        	stx	$4                      ; 0x2004 <__heap_default_limit+0x1004>
    6bd5: a2 8b        	ldx	#$8b
    6bd7: 86 05        	stx	$5                      ; 0x2005 <__heap_default_limit+0x1005>
    6bd9: a2 c9        	ldx	#$c9
    6bdb: 86 06        	stx	$6                      ; 0x2006 <__heap_default_limit+0x1006>
    6bdd: a2 83        	ldx	#$83
    6bdf: 4c d4 58     	jmp	$58d4 <navi+0xb8e>
    6be2: 86 1d        	stx	$1d                     ; 0x201d <next_line+0x8>
    6be4: a0 10        	ldy	#$10
    6be6: b1 02        	lda	($2),y                  ; 0x2002 <__heap_default_limit+0x1002>
    6be8: 20 e2 4b     	jsr	$4be2 <sizeselectcurrentifnone>
    6beb: 85 04        	sta	$4                      ; 0x2004 <__heap_default_limit+0x1004>
    6bed: 86 05        	stx	$5                      ; 0x2005 <__heap_default_limit+0x1005>
    6bef: 18           	clc
    6bf0: a5 1c        	lda	$1c                     ; 0x201c <next_line+0x7>
    6bf2: 69 44        	adc	#$44
    6bf4: 85 06        	sta	$6                      ; 0x2006 <__heap_default_limit+0x1006>
    6bf6: a5 1d        	lda	$1d                     ; 0x201d <next_line+0x8>
    6bf8: 69 00        	adc	#$0
    6bfa: 85 07        	sta	$7                      ; 0x2007 <__heap_default_limit+0x1007>
    6bfc: a0 01        	ldy	#$1
    6bfe: b1 06        	lda	($6),y                  ; 0x2006 <__heap_default_limit+0x1006>
    6c00: c5 05        	cmp	$5                      ; 0x2005 <__heap_default_limit+0x1005>
    6c02: f0 03        	beq	$6c07 <donehypfindfirst14+0x94>
    6c04: 4c f2 6e     	jmp	$6ef2 <donehypchdir18+0x1e3>
    6c07: a0 44        	ldy	#$44
    6c09: b1 1a        	lda	($1a),y                 ; 0x201a <next_line+0x5>
    6c0b: c5 04        	cmp	$4                      ; 0x2004 <__heap_default_limit+0x1004>
    6c0d: b0 03        	bcs	$6c12 <donehypfindfirst14+0x9f>
    6c0f: 4c f9 6e     	jmp	$6ef9 <donehypchdir18+0x1ea>
    6c12: a0 10        	ldy	#$10
    6c14: b1 02        	lda	($2),y                  ; 0x2002 <__heap_default_limit+0x1002>
    6c16: f0 03        	beq	$6c1b <donehypfindfirst14+0xa8>
    6c18: 4c f2 6f     	jmp	$6ff2 <donehyp0att20+0x35>
    6c1b: 4c 78 71     	jmp	$7178 <donehypd81dosattach21+0x4>
    6c1e: a5 04        	lda	$4                      ; 0x2004 <__heap_default_limit+0x1004>
    6c20: 18           	clc
    6c21: 69 05        	adc	#$5
    6c23: 85 1a        	sta	$1a                     ; 0x201a <next_line+0x5>
    6c25: a5 05        	lda	$5                      ; 0x2005 <__heap_default_limit+0x1005>
    6c27: 69 00        	adc	#$0
    6c29: 85 1b        	sta	$1b                     ; 0x201b <next_line+0x6>
    6c2b: a6 1a        	ldx	$1a                     ; 0x201a <next_line+0x5>
    6c2d: 86 04        	stx	$4                      ; 0x2004 <__heap_default_limit+0x1004>
    6c2f: 85 05        	sta	$5                      ; 0x2005 <__heap_default_limit+0x1005>
    6c31: 20 9e 21     	jsr	$219e <hyppo_setname>
    6c34: a2 00        	ldx	#$0
    6c36: a9 34        	lda	#$34
    6c38: 8d 40 d6     	sta	$d640                   ; 0xd640 <__heap_start+0x46c4>
    6c3b: b8           	clv
    6c3c: 90 0b        	bcc	$6c49 <errhypchdir15>
    6c3e: a9 0c        	lda	#$c
    6c40: 8d 40 d6     	sta	$d640                   ; 0xd640 <__heap_start+0x46c4>
    6c43: b8           	clv
    6c44: 85 04        	sta	$4                      ; 0x2004 <__heap_default_limit+0x1004>
    6c46: 4c 4d 6c     	jmp	$6c4d <donehypchdir15>

00006c49 <errhypchdir15>:
    6c49: a9 ff        	lda	#$ff
    6c4b: 85 04        	sta	$4                      ; 0x2004 <__heap_default_limit+0x1004>

00006c4d <donehypchdir15>:
    6c4d: ea           	nop
    6c4e: a6 04        	ldx	$4                      ; 0x2004 <__heap_default_limit+0x1004>
    6c50: e0 10        	cpx	#$10
    6c52: b0 03        	bcs	$6c57 <donehypchdir15+0xa>
    6c54: 4c 17 6f     	jmp	$6f17 <donehypchdir18+0x208>
    6c57: a2 4a        	ldx	#$4a
    6c59: 86 04        	stx	$4                      ; 0x2004 <__heap_default_limit+0x1004>
    6c5b: a2 84        	ldx	#$84
    6c5d: 86 05        	stx	$5                      ; 0x2005 <__heap_default_limit+0x1005>
    6c5f: a2 7e        	ldx	#$7e
    6c61: 86 06        	stx	$6                      ; 0x2006 <__heap_default_limit+0x1006>
    6c63: a2 87        	ldx	#$87
    6c65: 86 07        	stx	$7                      ; 0x2007 <__heap_default_limit+0x1007>
    6c67: a6 1a        	ldx	$1a                     ; 0x201a <next_line+0x5>
    6c69: 86 08        	stx	$8                      ; 0x2008 <__heap_default_limit+0x1008>
    6c6b: a6 1b        	ldx	$1b                     ; 0x201b <next_line+0x6>
    6c6d: 86 09        	stx	$9                      ; 0x2009 <__heap_default_limit+0x1009>
    6c6f: 64 0a        	stz	$a                      ; 0x200a <__heap_default_limit+0x100a>
    6c71: 64 0b        	stz	$b                      ; 0x200b <__heap_default_limit+0x100b>
    6c73: 64 0c        	stz	$c                      ; 0x200c <__heap_default_limit+0x100c>
    6c75: a2 00        	ldx	#$0
    6c77: a9 04        	lda	#$4
    6c79: 20 b5 3c     	jsr	$3cb5 <messagebox>
    6c7c: a0 10        	ldy	#$10
    6c7e: b1 02        	lda	($2),y                  ; 0x2002 <__heap_default_limit+0x1002>
    6c80: 85 16        	sta	$16                     ; 0x2016 <next_line+0x1>
    6c82: 4c 61 62     	jmp	$6261 <navi+0x151b>
    6c85: a6 04        	ldx	$4                      ; 0x2004 <__heap_default_limit+0x1004>
    6c87: a9 10        	lda	#$10
    6c89: 8d 40 d6     	sta	$d640                   ; 0xd640 <__heap_start+0x46c4>
    6c8c: b8           	clv
    6c8d: 90 05        	bcc	$6c94 <errhyprmfile16>
    6c8f: 85 04        	sta	$4                      ; 0x2004 <__heap_default_limit+0x1004>
    6c91: 4c 98 6c     	jmp	$6c98 <donehyprmfile16>

00006c94 <errhyprmfile16>:
    6c94: a9 ff        	lda	#$ff
    6c96: 85 04        	sta	$4                      ; 0x2004 <__heap_default_limit+0x1004>

00006c98 <donehyprmfile16>:
    6c98: ea           	nop
    6c99: 5a           	phy
    6c9a: fa           	plx
    6c9b: a9 16        	lda	#$16
    6c9d: 8d 40 d6     	sta	$d640                   ; 0xd640 <__heap_start+0x46c4>
    6ca0: b8           	clv
    6ca1: 90 05        	bcc	$6ca8 <errhypclosedir17>
    6ca3: 86 04        	stx	$4                      ; 0x2004 <__heap_default_limit+0x1004>
    6ca5: 4c aa 6c     	jmp	$6caa <donehypclosedir17>

00006ca8 <errhypclosedir17>:
    6ca8: 85 04        	sta	$4                      ; 0x2004 <__heap_default_limit+0x1004>

00006caa <donehypclosedir17>:
    6caa: ea           	nop
    6cab: a5 18        	lda	$18                     ; 0x2018 <next_line+0x3>
    6cad: a0 0d        	ldy	#$d
    6caf: 91 02        	sta	($2),y                  ; 0x2002 <__heap_default_limit+0x1002>
    6cb1: a5 19        	lda	$19                     ; 0x2019 <next_line+0x4>
    6cb3: c8           	iny
    6cb4: 91 02        	sta	($2),y                  ; 0x2002 <__heap_default_limit+0x1002>
    6cb6: b2 16        	lda	($16),z                 ; 0x2016 <next_line+0x1>
    6cb8: 4c 0e 59     	jmp	$590e <navi+0xbc8>
    6cbb: a6 04        	ldx	$4                      ; 0x2004 <__heap_default_limit+0x1004>
    6cbd: e0 4b        	cpx	#$4b
    6cbf: b0 03        	bcs	$6cc4 <donehypclosedir17+0x1a>
    6cc1: 4c 2e 6f     	jmp	$6f2e <donehypchdir18+0x21f>
    6cc4: a2 1b        	ldx	#$1b
    6cc6: 86 04        	stx	$4                      ; 0x2004 <__heap_default_limit+0x1004>
    6cc8: a2 85        	ldx	#$85
    6cca: 86 05        	stx	$5                      ; 0x2005 <__heap_default_limit+0x1005>
    6ccc: a2 e6        	ldx	#$e6
    6cce: 86 06        	stx	$6                      ; 0x2006 <__heap_default_limit+0x1006>
    6cd0: a2 8c        	ldx	#$8c
    6cd2: 86 07        	stx	$7                      ; 0x2007 <__heap_default_limit+0x1007>
    6cd4: a2 33        	ldx	#$33
    6cd6: 86 08        	stx	$8                      ; 0x2008 <__heap_default_limit+0x1008>
    6cd8: a2 8f        	ldx	#$8f
    6cda: 86 09        	stx	$9                      ; 0x2009 <__heap_default_limit+0x1009>
    6cdc: 64 0a        	stz	$a                      ; 0x200a <__heap_default_limit+0x100a>
    6cde: 64 0b        	stz	$b                      ; 0x200b <__heap_default_limit+0x100b>
    6ce0: 64 0c        	stz	$c                      ; 0x200c <__heap_default_limit+0x100c>
    6ce2: a2 00        	ldx	#$0
    6ce4: 98           	tya
    6ce5: 20 b5 3c     	jsr	$3cb5 <messagebox>
    6ce8: 4c e9 4f     	jmp	$4fe9 <navi+0x2a3>
    6ceb: a2 33        	ldx	#$33
    6ced: 86 04        	stx	$4                      ; 0x2004 <__heap_default_limit+0x1004>
    6cef: a2 8f        	ldx	#$8f
    6cf1: 86 05        	stx	$5                      ; 0x2005 <__heap_default_limit+0x1005>
    6cf3: 20 9e 21     	jsr	$219e <hyppo_setname>
    6cf6: a2 00        	ldx	#$0
    6cf8: a9 34        	lda	#$34
    6cfa: 8d 40 d6     	sta	$d640                   ; 0xd640 <__heap_start+0x46c4>
    6cfd: b8           	clv
    6cfe: 90 0b        	bcc	$6d0b <errhypchdir18>
    6d00: a9 0c        	lda	#$c
    6d02: 8d 40 d6     	sta	$d640                   ; 0xd640 <__heap_start+0x46c4>
    6d05: b8           	clv
    6d06: 85 04        	sta	$4                      ; 0x2004 <__heap_default_limit+0x1004>
    6d08: 4c 0f 6d     	jmp	$6d0f <donehypchdir18>

00006d0b <errhypchdir18>:
    6d0b: a9 ff        	lda	#$ff
    6d0d: 85 04        	sta	$4                      ; 0x2004 <__heap_default_limit+0x1004>

00006d0f <donehypchdir18>:
    6d0f: ea           	nop
    6d10: a6 04        	ldx	$4                      ; 0x2004 <__heap_default_limit+0x1004>
    6d12: e0 10        	cpx	#$10
    6d14: 90 2b        	bcc	$6d41 <donehypchdir18+0x32>
    6d16: a0 0d        	ldy	#$d
    6d18: b1 02        	lda	($2),y                  ; 0x2002 <__heap_default_limit+0x1002>
    6d1a: 85 06        	sta	$6                      ; 0x2006 <__heap_default_limit+0x1006>
    6d1c: c8           	iny
    6d1d: b1 02        	lda	($2),y                  ; 0x2002 <__heap_default_limit+0x1002>
    6d1f: 85 07        	sta	$7                      ; 0x2007 <__heap_default_limit+0x1007>
    6d21: a5 06        	lda	$6                      ; 0x2006 <__heap_default_limit+0x1006>
    6d23: 18           	clc
    6d24: 69 05        	adc	#$5
    6d26: 85 08        	sta	$8                      ; 0x2008 <__heap_default_limit+0x1008>
    6d28: a5 07        	lda	$7                      ; 0x2007 <__heap_default_limit+0x1007>
    6d2a: 69 00        	adc	#$0
    6d2c: 85 09        	sta	$9                      ; 0x2009 <__heap_default_limit+0x1009>
    6d2e: a2 0f        	ldx	#$f
    6d30: 86 04        	stx	$4                      ; 0x2004 <__heap_default_limit+0x1004>
    6d32: a2 8c        	ldx	#$8c
    6d34: 86 05        	stx	$5                      ; 0x2005 <__heap_default_limit+0x1005>
    6d36: a2 7e        	ldx	#$7e
    6d38: 86 06        	stx	$6                      ; 0x2006 <__heap_default_limit+0x1006>
    6d3a: a2 87        	ldx	#$87
    6d3c: 86 07        	stx	$7                      ; 0x2007 <__heap_default_limit+0x1007>
    6d3e: 4c 63 61     	jmp	$6163 <navi+0x141d>
    6d41: b2 1e        	lda	($1e),z                 ; 0x201e <next_line+0x9>
    6d43: 4c 0e 59     	jmp	$590e <navi+0xbc8>
    6d46: a9 00        	lda	#$0
    6d48: 91 04        	sta	($4),y                  ; 0x2004 <__heap_default_limit+0x1004>
    6d4a: 4c e9 4f     	jmp	$4fe9 <navi+0x2a3>
    6d4d: a6 1b        	ldx	$1b                     ; 0x201b <next_line+0x6>
    6d4f: a5 1c        	lda	$1c                     ; 0x201c <next_line+0x7>
    6d51: e0 02        	cpx	#$2
    6d53: d0 03        	bne	$6d58 <donehypchdir18+0x49>
    6d55: 4c 0a 70     	jmp	$700a <donehyp0att20+0x4d>
    6d58: a6 1b        	ldx	$1b                     ; 0x201b <next_line+0x6>
    6d5a: e0 04        	cpx	#$4
    6d5c: f0 03        	beq	$6d61 <donehypchdir18+0x52>
    6d5e: 4c 58 70     	jmp	$7058 <donehyp0att20+0x9b>
    6d61: 4c 36 70     	jmp	$7036 <donehyp0att20+0x79>
    6d64: c0 00        	cpy	#$0
    6d66: b0 03        	bcs	$6d6b <donehypchdir18+0x5c>
    6d68: 4c 95 68     	jmp	$6895 <donehypd81dosattach9+0x26>
    6d6b: a0 1d        	ldy	#$1d
    6d6d: b1 02        	lda	($2),y                  ; 0x2002 <__heap_default_limit+0x1002>
    6d6f: 85 04        	sta	$4                      ; 0x2004 <__heap_default_limit+0x1004>
    6d71: c8           	iny
    6d72: b1 02        	lda	($2),y                  ; 0x2002 <__heap_default_limit+0x1002>
    6d74: 85 05        	sta	$5                      ; 0x2005 <__heap_default_limit+0x1005>
    6d76: a2 a4        	ldx	#$a4
    6d78: 86 06        	stx	$6                      ; 0x2006 <__heap_default_limit+0x1006>
    6d7a: a2 85        	ldx	#$85
    6d7c: 86 07        	stx	$7                      ; 0x2007 <__heap_default_limit+0x1007>
    6d7e: 20 0d 3f     	jsr	$3f0d <inputbox>
    6d81: a0 0f        	ldy	#$f
    6d83: b1 02        	lda	($2),y                  ; 0x2002 <__heap_default_limit+0x1002>
    6d85: 18           	clc
    6d86: 65 17        	adc	$17                     ; 0x2017 <next_line+0x2>
    6d88: 3a           	dec
    6d89: 85 16        	sta	$16                     ; 0x2016 <next_line+0x1>
    6d8b: 92 1a        	sta	($1a),z                 ; 0x201a <next_line+0x5>
    6d8d: c8           	iny
    6d8e: b1 02        	lda	($2),y                  ; 0x2002 <__heap_default_limit+0x1002>
    6d90: 20 22 26     	jsr	$2622 <GetBAM>
    6d93: a0 0d        	ldy	#$d
    6d95: b1 02        	lda	($2),y                  ; 0x2002 <__heap_default_limit+0x1002>
    6d97: 85 20        	sta	$20                     ; 0x2020 <next_line+0xb>
    6d99: c8           	iny
    6d9a: b1 02        	lda	($2),y                  ; 0x2002 <__heap_default_limit+0x1002>
    6d9c: 85 21        	sta	$21                     ; 0x2021 <_start>
    6d9e: a2 01        	ldx	#$1
    6da0: 80 25        	bra	$6dc7 <donehypchdir18+0xb8>
    6da2: a0 00        	ldy	#$0
    6da4: 84 04        	sty	$4                      ; 0x2004 <__heap_default_limit+0x1004>
    6da6: a0 17        	ldy	#$17
    6da8: 84 05        	sty	$5                      ; 0x2005 <__heap_default_limit+0x1005>
    6daa: a0 00        	ldy	#$0
    6dac: 84 06        	sty	$6                      ; 0x2006 <__heap_default_limit+0x1006>
    6dae: a0 18        	ldy	#$18
    6db0: 84 07        	sty	$7                      ; 0x2007 <__heap_default_limit+0x1007>
    6db2: 86 08        	stx	$8                      ; 0x2008 <__heap_default_limit+0x1008>
    6db4: aa           	tax
    6db5: 85 1c        	sta	$1c                     ; 0x201c <next_line+0x7>
    6db7: a5 17        	lda	$17                     ; 0x2017 <next_line+0x2>
    6db9: 20 55 27     	jsr	$2755 <BAMSectorUpdate>
    6dbc: a5 1c        	lda	$1c                     ; 0x201c <next_line+0x7>
    6dbe: a2 01        	ldx	#$1
    6dc0: 1a           	inc
    6dc1: c9 28        	cmp	#$28
    6dc3: d0 dd        	bne	$6da2 <donehypchdir18+0x93>
    6dc5: e6 17        	inc	$17                     ; 0x2017 <next_line+0x2>
    6dc7: a4 16        	ldy	$16                     ; 0x2016 <next_line+0x1>
    6dc9: c4 17        	cpy	$17                     ; 0x2017 <next_line+0x2>
    6dcb: 90 04        	bcc	$6dd1 <donehypchdir18+0xc2>
    6dcd: a9 00        	lda	#$0
    6dcf: 80 f0        	bra	$6dc1 <donehypchdir18+0xb2>
    6dd1: b2 1e        	lda	($1e),z                 ; 0x201e <next_line+0x9>
    6dd3: 85 05        	sta	$5                      ; 0x2005 <__heap_default_limit+0x1005>
    6dd5: a0 47        	ldy	#$47
    6dd7: b1 1e        	lda	($1e),y                 ; 0x201e <next_line+0x9>
    6dd9: 85 04        	sta	$4                      ; 0x2004 <__heap_default_limit+0x1004>
    6ddb: a0 10        	ldy	#$10
    6ddd: b1 02        	lda	($2),y                  ; 0x2002 <__heap_default_limit+0x1002>
    6ddf: 85 16        	sta	$16                     ; 0x2016 <next_line+0x1>
    6de1: aa           	tax
    6de2: a5 05        	lda	$5                      ; 0x2005 <__heap_default_limit+0x1005>
    6de4: 20 5b 26     	jsr	$265b <PutBAM>
    6de7: a9 00        	lda	#$0
    6de9: 92 20        	sta	($20),z                 ; 0x2020 <next_line+0xb>
    6deb: b2 18        	lda	($18),z                 ; 0x2018 <next_line+0x3>
    6ded: 85 17        	sta	$17                     ; 0x2017 <next_line+0x2>
    6def: a0 03        	ldy	#$3
    6df1: 91 20        	sta	($20),y                 ; 0x2020 <next_line+0xb>
    6df3: a6 20        	ldx	$20                     ; 0x2020 <next_line+0xb>
    6df5: a5 20        	lda	$20                     ; 0x2020 <next_line+0xb>
    6df7: 86 1d        	stx	$1d                     ; 0x201d <next_line+0x8>
    6df9: 18           	clc
    6dfa: 69 05        	adc	#$5
    6dfc: 85 18        	sta	$18                     ; 0x2018 <next_line+0x3>
    6dfe: a5 21        	lda	$21                     ; 0x2021 <_start>
    6e00: 69 00        	adc	#$0
    6e02: 85 19        	sta	$19                     ; 0x2019 <next_line+0x4>
    6e04: a0 01        	ldy	#$1
    6e06: a9 00        	lda	#$0
    6e08: 91 20        	sta	($20),y                 ; 0x2020 <next_line+0xb>
    6e0a: a9 85        	lda	#$85
    6e0c: c8           	iny
    6e0d: 91 20        	sta	($20),y                 ; 0x2020 <next_line+0xb>
    6e0f: a0 04        	ldy	#$4
    6e11: a9 00        	lda	#$0
    6e13: 91 20        	sta	($20),y                 ; 0x2020 <next_line+0xb>
    6e15: a0 1d        	ldy	#$1d
    6e17: b1 02        	lda	($2),y                  ; 0x2002 <__heap_default_limit+0x1002>
    6e19: 85 04        	sta	$4                      ; 0x2004 <__heap_default_limit+0x1004>
    6e1b: c8           	iny
    6e1c: b1 02        	lda	($2),y                  ; 0x2002 <__heap_default_limit+0x1002>
    6e1e: 85 05        	sta	$5                      ; 0x2005 <__heap_default_limit+0x1005>
    6e20: a6 18        	ldx	$18                     ; 0x2018 <next_line+0x3>
    6e22: 86 06        	stx	$6                      ; 0x2006 <__heap_default_limit+0x1006>
    6e24: a6 19        	ldx	$19                     ; 0x2019 <next_line+0x4>
    6e26: 86 07        	stx	$7                      ; 0x2007 <__heap_default_limit+0x1007>
    6e28: 20 35 39     	jsr	$3935 <strmakefilename>
    6e2b: b2 1a        	lda	($1a),z                 ; 0x201a <next_line+0x5>
    6e2d: 38           	sec
    6e2e: e5 17        	sbc	$17                     ; 0x2017 <next_line+0x2>
    6e30: aa           	tax
    6e31: a9 00        	lda	#$0
    6e33: e9 00        	sbc	#$0
    6e35: 85 04        	sta	$4                      ; 0x2004 <__heap_default_limit+0x1004>
    6e37: 8a           	txa
    6e38: 0a           	asl
    6e39: 26 04        	rol	$4                      ; 0x2004 <__heap_default_limit+0x1004>
    6e3b: 0a           	asl
    6e3c: 85 06        	sta	$6                      ; 0x2006 <__heap_default_limit+0x1006>
    6e3e: a5 04        	lda	$4                      ; 0x2004 <__heap_default_limit+0x1004>
    6e40: 2a           	rol
    6e41: 85 05        	sta	$5                      ; 0x2005 <__heap_default_limit+0x1005>
    6e43: 06 06        	asl	$6                      ; 0x2006 <__heap_default_limit+0x1006>
    6e45: a6 06        	ldx	$6                      ; 0x2006 <__heap_default_limit+0x1006>
    6e47: 86 04        	stx	$4                      ; 0x2004 <__heap_default_limit+0x1004>
    6e49: 26 05        	rol	$5                      ; 0x2005 <__heap_default_limit+0x1005>
    6e4b: a5 06        	lda	$6                      ; 0x2006 <__heap_default_limit+0x1006>
    6e4d: 0a           	asl
    6e4e: a6 05        	ldx	$5                      ; 0x2005 <__heap_default_limit+0x1005>
    6e50: 86 06        	stx	$6                      ; 0x2006 <__heap_default_limit+0x1006>
    6e52: 26 06        	rol	$6                      ; 0x2006 <__heap_default_limit+0x1006>
    6e54: 0a           	asl
    6e55: 26 06        	rol	$6                      ; 0x2006 <__heap_default_limit+0x1006>
    6e57: 18           	clc
    6e58: 65 04        	adc	$4                      ; 0x2004 <__heap_default_limit+0x1004>
    6e5a: aa           	tax
    6e5b: a5 06        	lda	$6                      ; 0x2006 <__heap_default_limit+0x1006>
    6e5d: 65 05        	adc	$5                      ; 0x2005 <__heap_default_limit+0x1005>
    6e5f: 85 06        	sta	$6                      ; 0x2006 <__heap_default_limit+0x1006>
    6e61: 18           	clc
    6e62: a5 1d        	lda	$1d                     ; 0x201d <next_line+0x8>
    6e64: 69 1e        	adc	#$1e
    6e66: 85 04        	sta	$4                      ; 0x2004 <__heap_default_limit+0x1004>
    6e68: a5 21        	lda	$21                     ; 0x2021 <_start>
    6e6a: 69 00        	adc	#$0
    6e6c: 85 05        	sta	$5                      ; 0x2005 <__heap_default_limit+0x1005>
    6e6e: a0 1e        	ldy	#$1e
    6e70: 8a           	txa
    6e71: 91 20        	sta	($20),y                 ; 0x2020 <next_line+0xb>
    6e73: a0 01        	ldy	#$1
    6e75: a5 06        	lda	$6                      ; 0x2006 <__heap_default_limit+0x1006>
    6e77: 91 04        	sta	($4),y                  ; 0x2004 <__heap_default_limit+0x1004>
    6e79: b2 1e        	lda	($1e),z                 ; 0x201e <next_line+0x9>
    6e7b: 85 07        	sta	$7                      ; 0x2007 <__heap_default_limit+0x1007>
    6e7d: a0 47        	ldy	#$47
    6e7f: b1 1e        	lda	($1e),y                 ; 0x201e <next_line+0x9>
    6e81: 85 04        	sta	$4                      ; 0x2004 <__heap_default_limit+0x1004>
    6e83: c8           	iny
    6e84: b1 1e        	lda	($1e),y                 ; 0x201e <next_line+0x9>
    6e86: 85 05        	sta	$5                      ; 0x2005 <__heap_default_limit+0x1005>
    6e88: c8           	iny
    6e89: b1 1e        	lda	($1e),y                 ; 0x201e <next_line+0x9>
    6e8b: a6 20        	ldx	$20                     ; 0x2020 <next_line+0xb>
    6e8d: 86 08        	stx	$8                      ; 0x2008 <__heap_default_limit+0x1008>
    6e8f: a6 21        	ldx	$21                     ; 0x2021 <_start>
    6e91: 86 09        	stx	$9                      ; 0x2009 <__heap_default_limit+0x1009>
    6e93: 85 06        	sta	$6                      ; 0x2006 <__heap_default_limit+0x1006>
    6e95: a6 16        	ldx	$16                     ; 0x2016 <next_line+0x1>
    6e97: a5 07        	lda	$7                      ; 0x2007 <__heap_default_limit+0x1007>
    6e99: 20 84 32     	jsr	$3284 <writenewdirententry>
    6e9c: b2 1e        	lda	($1e),z                 ; 0x201e <next_line+0x9>
    6e9e: a6 18        	ldx	$18                     ; 0x2018 <next_line+0x3>
    6ea0: 86 04        	stx	$4                      ; 0x2004 <__heap_default_limit+0x1004>
    6ea2: a6 19        	ldx	$19                     ; 0x2019 <next_line+0x4>
    6ea4: 86 05        	stx	$5                      ; 0x2005 <__heap_default_limit+0x1005>
    6ea6: a6 17        	ldx	$17                     ; 0x2017 <next_line+0x2>
    6ea8: 20 1b 2c     	jsr	$2c1b <FormatPartition>
    6eab: 4c 36 6f     	jmp	$6f36 <donehypchdir18+0x227>
    6eae: 86 09        	stx	$9                      ; 0x2009 <__heap_default_limit+0x1009>
    6eb0: a5 16        	lda	$16                     ; 0x2016 <next_line+0x1>
    6eb2: a0 1b        	ldy	#$1b
    6eb4: 91 02        	sta	($2),y                  ; 0x2002 <__heap_default_limit+0x1002>
    6eb6: a5 17        	lda	$17                     ; 0x2017 <next_line+0x2>
    6eb8: c8           	iny
    6eb9: 91 02        	sta	($2),y                  ; 0x2002 <__heap_default_limit+0x1002>
    6ebb: a5 18        	lda	$18                     ; 0x2018 <next_line+0x3>
    6ebd: 48           	pha
    6ebe: a5 18        	lda	$18                     ; 0x2018 <next_line+0x3>
    6ec0: a0 0d        	ldy	#$d
    6ec2: 91 02        	sta	($2),y                  ; 0x2002 <__heap_default_limit+0x1002>
    6ec4: a5 19        	lda	$19                     ; 0x2019 <next_line+0x4>
    6ec6: c8           	iny
    6ec7: 91 02        	sta	($2),y                  ; 0x2002 <__heap_default_limit+0x1002>
    6ec9: 68           	pla
    6eca: 18           	clc
    6ecb: 69 05        	adc	#$5
    6ecd: 85 06        	sta	$6                      ; 0x2006 <__heap_default_limit+0x1006>
    6ecf: a5 19        	lda	$19                     ; 0x2019 <next_line+0x4>
    6ed1: 69 00        	adc	#$0
    6ed3: 85 07        	sta	$7                      ; 0x2007 <__heap_default_limit+0x1007>
    6ed5: a2 36        	ldx	#$36
    6ed7: 86 04        	stx	$4                      ; 0x2004 <__heap_default_limit+0x1004>
    6ed9: a2 85        	ldx	#$85
    6edb: 86 05        	stx	$5                      ; 0x2005 <__heap_default_limit+0x1005>
    6edd: 64 0a        	stz	$a                      ; 0x200a <__heap_default_limit+0x100a>
    6edf: 64 0b        	stz	$b                      ; 0x200b <__heap_default_limit+0x100b>
    6ee1: 64 0c        	stz	$c                      ; 0x200c <__heap_default_limit+0x100c>
    6ee3: a2 00        	ldx	#$0
    6ee5: 8a           	txa
    6ee6: 20 b5 3c     	jsr	$3cb5 <messagebox>
    6ee9: aa           	tax
    6eea: f0 03        	beq	$6eef <donehypchdir18+0x1e0>
    6eec: 4c fb 6f     	jmp	$6ffb <donehyp0att20+0x3e>
    6eef: 4c e9 4f     	jmp	$4fe9 <navi+0x2a3>
    6ef2: c5 05        	cmp	$5                      ; 0x2005 <__heap_default_limit+0x1005>
    6ef4: 90 03        	bcc	$6ef9 <donehypchdir18+0x1ea>
    6ef6: 4c 12 6c     	jmp	$6c12 <donehypfindfirst14+0x9f>
    6ef9: a5 18        	lda	$18                     ; 0x2018 <next_line+0x3>
    6efb: a0 0d        	ldy	#$d
    6efd: 91 02        	sta	($2),y                  ; 0x2002 <__heap_default_limit+0x1002>
    6eff: a5 19        	lda	$19                     ; 0x2019 <next_line+0x4>
    6f01: c8           	iny
    6f02: 91 02        	sta	($2),y                  ; 0x2002 <__heap_default_limit+0x1002>
    6f04: a9 04        	lda	#$4
    6f06: a2 36        	ldx	#$36
    6f08: 86 04        	stx	$4                      ; 0x2004 <__heap_default_limit+0x1004>
    6f0a: a2 85        	ldx	#$85
    6f0c: 86 05        	stx	$5                      ; 0x2005 <__heap_default_limit+0x1005>
    6f0e: a2 84        	ldx	#$84
    6f10: 86 06        	stx	$6                      ; 0x2006 <__heap_default_limit+0x1006>
    6f12: a2 84        	ldx	#$84
    6f14: 4c a3 68     	jmp	$68a3 <donehypd81dosattach9+0x34>
    6f17: b2 18        	lda	($18),z                 ; 0x2018 <next_line+0x3>
    6f19: 48           	pha
    6f1a: a0 10        	ldy	#$10
    6f1c: b1 02        	lda	($2),y                  ; 0x2002 <__heap_default_limit+0x1002>
    6f1e: 85 16        	sta	$16                     ; 0x2016 <next_line+0x1>
    6f20: 68           	pla
    6f21: a6 16        	ldx	$16                     ; 0x2016 <next_line+0x1>
    6f23: 20 a4 45     	jsr	$45a4 <UpdateSectors>
    6f26: a5 16        	lda	$16                     ; 0x2016 <next_line+0x1>
    6f28: 20 9c 4b     	jsr	$4b9c <Deselect>
    6f2b: 4c 61 62     	jmp	$6261 <navi+0x151b>
    6f2e: a9 01        	lda	#$1
    6f30: a0 46        	ldy	#$46
    6f32: 11 1e        	ora	($1e),y                 ; 0x201e <next_line+0x9>
    6f34: 91 1e        	sta	($1e),y                 ; 0x201e <next_line+0x9>
    6f36: b2 1e        	lda	($1e),z                 ; 0x201e <next_line+0x9>
    6f38: 4c dc 5b     	jmp	$5bdc <navi+0xe96>
    6f3b: a0 00        	ldy	#$0
    6f3d: b1 02        	lda	($2),y                  ; 0x2002 <__heap_default_limit+0x1002>
    6f3f: 85 21        	sta	$21                     ; 0x2021 <_start>
    6f41: c8           	iny
    6f42: b1 02        	lda	($2),y                  ; 0x2002 <__heap_default_limit+0x1002>
    6f44: 85 20        	sta	$20                     ; 0x2020 <next_line+0xb>
    6f46: c8           	iny
    6f47: b1 02        	lda	($2),y                  ; 0x2002 <__heap_default_limit+0x1002>
    6f49: 85 1f        	sta	$1f                     ; 0x201f <next_line+0xa>
    6f4b: c8           	iny
    6f4c: b1 02        	lda	($2),y                  ; 0x2002 <__heap_default_limit+0x1002>
    6f4e: 85 1e        	sta	$1e                     ; 0x201e <next_line+0x9>
    6f50: c8           	iny
    6f51: b1 02        	lda	($2),y                  ; 0x2002 <__heap_default_limit+0x1002>
    6f53: 85 1d        	sta	$1d                     ; 0x201d <next_line+0x8>
    6f55: c8           	iny
    6f56: b1 02        	lda	($2),y                  ; 0x2002 <__heap_default_limit+0x1002>
    6f58: 85 1c        	sta	$1c                     ; 0x201c <next_line+0x7>
    6f5a: c8           	iny
    6f5b: b1 02        	lda	($2),y                  ; 0x2002 <__heap_default_limit+0x1002>
    6f5d: 85 1b        	sta	$1b                     ; 0x201b <next_line+0x6>
    6f5f: c8           	iny
    6f60: b1 02        	lda	($2),y                  ; 0x2002 <__heap_default_limit+0x1002>
    6f62: 85 1a        	sta	$1a                     ; 0x201a <next_line+0x5>
    6f64: fa           	plx
    6f65: 86 19        	stx	$19                     ; 0x2019 <next_line+0x4>
    6f67: fa           	plx
    6f68: 86 18        	stx	$18                     ; 0x2018 <next_line+0x3>
    6f6a: fa           	plx
    6f6b: 86 17        	stx	$17                     ; 0x2017 <next_line+0x2>
    6f6d: fa           	plx
    6f6e: 86 16        	stx	$16                     ; 0x2016 <next_line+0x1>
    6f70: 18           	clc
    6f71: a5 02        	lda	$2                      ; 0x2002 <__heap_default_limit+0x1002>
    6f73: 69 26        	adc	#$26
    6f75: 85 02        	sta	$2                      ; 0x2002 <__heap_default_limit+0x1002>
    6f77: a5 03        	lda	$3                      ; 0x2003 <__heap_default_limit+0x1003>
    6f79: 69 00        	adc	#$0
    6f7b: 85 03        	sta	$3                      ; 0x2003 <__heap_default_limit+0x1003>
    6f7d: 60           	rts
    6f7e: a2 2e        	ldx	#$2e
    6f80: 86 08        	stx	$8                      ; 0x2008 <__heap_default_limit+0x1008>
    6f82: a2 84        	ldx	#$84
    6f84: 4c 36 67     	jmp	$6736 <donehypfindfirst6+0x449>
    6f87: a2 00        	ldx	#$0
    6f89: a9 46        	lda	#$46
    6f8b: 8d 40 d6     	sta	$d640                   ; 0xd640 <__heap_start+0x46c4>
    6f8e: b8           	clv
    6f8f: 90 07        	bcc	$6f98 <errhyp1att19>
    6f91: a9 00        	lda	#$0
    6f93: 85 04        	sta	$4                      ; 0x2004 <__heap_default_limit+0x1004>
    6f95: 4c 9c 6f     	jmp	$6f9c <donehyp1att19>

00006f98 <errhyp1att19>:
    6f98: a9 ff        	lda	#$ff
    6f9a: 85 04        	sta	$4                      ; 0x2004 <__heap_default_limit+0x1004>

00006f9c <donehyp1att19>:
    6f9c: ea           	nop
    6f9d: 4c bb 6c     	jmp	$6cbb <donehypclosedir17+0x11>
    6fa0: a0 04        	ldy	#$4
    6fa2: 8a           	txa
    6fa3: d0 03        	bne	$6fa8 <donehyp1att19+0xc>
    6fa5: 4c bd 72     	jmp	$72bd <donehypd81dosattach21+0x149>
    6fa8: a2 00        	ldx	#$0
    6faa: a9 40        	lda	#$40
    6fac: 8d 40 d6     	sta	$d640                   ; 0xd640 <__heap_start+0x46c4>
    6faf: b8           	clv
    6fb0: 90 07        	bcc	$6fb9 <errhyp0att20>
    6fb2: a9 00        	lda	#$0
    6fb4: 85 04        	sta	$4                      ; 0x2004 <__heap_default_limit+0x1004>
    6fb6: 4c bd 6f     	jmp	$6fbd <donehyp0att20>

00006fb9 <errhyp0att20>:
    6fb9: a9 ff        	lda	#$ff
    6fbb: 85 04        	sta	$4                      ; 0x2004 <__heap_default_limit+0x1004>

00006fbd <donehyp0att20>:
    6fbd: ea           	nop
    6fbe: 4c bb 6c     	jmp	$6cbb <donehypclosedir17+0x11>
    6fc1: a5 18        	lda	$18                     ; 0x2018 <next_line+0x3>
    6fc3: a0 0d        	ldy	#$d
    6fc5: 91 02        	sta	($2),y                  ; 0x2002 <__heap_default_limit+0x1002>
    6fc7: a5 19        	lda	$19                     ; 0x2019 <next_line+0x4>
    6fc9: c8           	iny
    6fca: 91 02        	sta	($2),y                  ; 0x2002 <__heap_default_limit+0x1002>
    6fcc: a0 08        	ldy	#$8
    6fce: b1 02        	lda	($2),y                  ; 0x2002 <__heap_default_limit+0x1002>
    6fd0: 85 04        	sta	$4                      ; 0x2004 <__heap_default_limit+0x1004>
    6fd2: c8           	iny
    6fd3: b1 02        	lda	($2),y                  ; 0x2002 <__heap_default_limit+0x1002>
    6fd5: 85 05        	sta	$5                      ; 0x2005 <__heap_default_limit+0x1005>
    6fd7: a0 19        	ldy	#$19
    6fd9: b1 02        	lda	($2),y                  ; 0x2002 <__heap_default_limit+0x1002>
    6fdb: 92 04        	sta	($4),z                  ; 0x2004 <__heap_default_limit+0x1004>
    6fdd: b2 1a        	lda	($1a),z                 ; 0x201a <next_line+0x5>
    6fdf: 48           	pha
    6fe0: c8           	iny
    6fe1: b1 02        	lda	($2),y                  ; 0x2002 <__heap_default_limit+0x1002>
    6fe3: aa           	tax
    6fe4: 68           	pla
    6fe5: 20 a4 45     	jsr	$45a4 <UpdateSectors>
    6fe8: a0 10        	ldy	#$10
    6fea: b1 02        	lda	($2),y                  ; 0x2002 <__heap_default_limit+0x1002>
    6fec: 20 9c 4b     	jsr	$4b9c <Deselect>
    6fef: 4c e9 4f     	jmp	$4fe9 <navi+0x2a3>
    6ff2: a2 1c        	ldx	#$1c
    6ff4: 86 08        	stx	$8                      ; 0x2008 <__heap_default_limit+0x1008>
    6ff6: a2 8a        	ldx	#$8a
    6ff8: 4c ae 6e     	jmp	$6eae <donehypchdir18+0x19f>
    6ffb: a0 10        	ldy	#$10
    6ffd: b1 02        	lda	($2),y                  ; 0x2002 <__heap_default_limit+0x1002>
    6fff: f0 03        	beq	$7004 <donehyp0att20+0x47>
    7001: 4c bf 71     	jmp	$71bf <donehypd81dosattach21+0x4b>
    7004: a2 01        	ldx	#$1
    7006: 8a           	txa
    7007: 4c c3 71     	jmp	$71c3 <donehypd81dosattach21+0x4f>
    700a: c9 9d        	cmp	#$9d
    700c: d0 03        	bne	$7011 <donehyp0att20+0x54>
    700e: 4c f0 67     	jmp	$67f0 <donehypclosedir8+0x35>
    7011: 4c 58 6d     	jmp	$6d58 <donehypchdir18+0x49>
    7014: 20 f9 78     	jsr	$78f9 <sidbong>
    7017: 20 97 7b     	jsr	$7b97 <cgetc>
    701a: c9 03        	cmp	#$3
    701c: d0 03        	bne	$7021 <donehyp0att20+0x64>
    701e: 4c e9 4f     	jmp	$4fe9 <navi+0x2a3>
    7021: c9 0d        	cmp	#$d
    7023: d0 03        	bne	$7028 <donehyp0att20+0x6b>
    7025: 4c e9 4f     	jmp	$4fe9 <navi+0x2a3>
    7028: c9 1b        	cmp	#$1b
    702a: d0 03        	bne	$702f <donehyp0att20+0x72>
    702c: 4c e9 4f     	jmp	$4fe9 <navi+0x2a3>
    702f: c9 20        	cmp	#$20
    7031: d0 e1        	bne	$7014 <donehyp0att20+0x57>
    7033: 4c e9 4f     	jmp	$4fe9 <navi+0x2a3>
    7036: c9 12        	cmp	#$12
    7038: d0 1e        	bne	$7058 <donehyp0att20+0x9b>
    703a: a9 27        	lda	#$27
    703c: 18           	clc
    703d: 65 1a        	adc	$1a                     ; 0x201a <next_line+0x5>
    703f: 85 04        	sta	$4                      ; 0x2004 <__heap_default_limit+0x1004>
    7041: a9 00        	lda	#$0
    7043: 65 17        	adc	$17                     ; 0x2017 <next_line+0x2>
    7045: 85 05        	sta	$5                      ; 0x2005 <__heap_default_limit+0x1005>
    7047: b2 04        	lda	($4),z                  ; 0x2004 <__heap_default_limit+0x1004>
    7049: 85 06        	sta	$6                      ; 0x2006 <__heap_default_limit+0x1006>
    704b: b1 04        	lda	($4),y                  ; 0x2004 <__heap_default_limit+0x1004>
    704d: 85 07        	sta	$7                      ; 0x2007 <__heap_default_limit+0x1007>
    704f: a9 01        	lda	#$1
    7051: a0 46        	ldy	#$46
    7053: 11 06        	ora	($6),y                  ; 0x2006 <__heap_default_limit+0x1006>
    7055: 4c fa 58     	jmp	$58fa <navi+0xbb4>
    7058: a6 1b        	ldx	$1b                     ; 0x201b <next_line+0x6>
    705a: e0 04        	cpx	#$4
    705c: d0 07        	bne	$7065 <donehyp0att20+0xa8>
    705e: c9 15        	cmp	#$15
    7060: d0 03        	bne	$7065 <donehyp0att20+0xa8>
    7062: 4c 09 58     	jmp	$5809 <navi+0xac3>
    7065: a6 1b        	ldx	$1b                     ; 0x201b <next_line+0x6>
    7067: a5 1c        	lda	$1c                     ; 0x201c <next_line+0x7>
    7069: e0 08        	cpx	#$8
    706b: f0 03        	beq	$7070 <donehyp0att20+0xb3>
    706d: 4c 81 71     	jmp	$7181 <donehypd81dosattach21+0xd>
    7070: c9 f4        	cmp	#$f4
    7072: f0 03        	beq	$7077 <donehyp0att20+0xba>
    7074: 4c 81 71     	jmp	$7181 <donehypd81dosattach21+0xd>
    7077: a2 49        	ldx	#$49
    7079: 86 04        	stx	$4                      ; 0x2004 <__heap_default_limit+0x1004>
    707b: a2 88        	ldx	#$88
    707d: 86 05        	stx	$5                      ; 0x2005 <__heap_default_limit+0x1005>
    707f: a2 8d        	ldx	#$8d
    7081: 86 06        	stx	$6                      ; 0x2006 <__heap_default_limit+0x1006>
    7083: a2 8c        	ldx	#$8c
    7085: 86 07        	stx	$7                      ; 0x2007 <__heap_default_limit+0x1007>
    7087: a2 c7        	ldx	#$c7
    7089: 86 08        	stx	$8                      ; 0x2008 <__heap_default_limit+0x1008>
    708b: a2 83        	ldx	#$83
    708d: 86 09        	stx	$9                      ; 0x2009 <__heap_default_limit+0x1009>
    708f: 64 0a        	stz	$a                      ; 0x200a <__heap_default_limit+0x100a>
    7091: 64 0b        	stz	$b                      ; 0x200b <__heap_default_limit+0x100b>
    7093: 64 0c        	stz	$c                      ; 0x200c <__heap_default_limit+0x100c>
    7095: a2 00        	ldx	#$0
    7097: 8a           	txa
    7098: 20 b5 3c     	jsr	$3cb5 <messagebox>
    709b: aa           	tax
    709c: d0 03        	bne	$70a1 <donehyp0att20+0xe4>
    709e: 4c e9 4f     	jmp	$4fe9 <navi+0x2a3>
    70a1: a9 00        	lda	#$0
    70a3: 8d 7f d6     	sta	$d67f                   ; 0xd67f <__heap_start+0x4703>
    70a6: b8           	clv
    70a7: a2 cc        	ldx	#$cc
    70a9: 86 04        	stx	$4                      ; 0x2004 <__heap_default_limit+0x1004>
    70ab: a2 8b        	ldx	#$8b
    70ad: 86 05        	stx	$5                      ; 0x2005 <__heap_default_limit+0x1005>
    70af: a2 52        	ldx	#$52
    70b1: 86 06        	stx	$6                      ; 0x2006 <__heap_default_limit+0x1006>
    70b3: a2 86        	ldx	#$86
    70b5: 86 07        	stx	$7                      ; 0x2007 <__heap_default_limit+0x1007>
    70b7: a9 1e        	lda	#$1e
    70b9: 20 5d 3e     	jsr	$3e5d <progress>
    70bc: 64 05        	stz	$5                      ; 0x2005 <__heap_default_limit+0x1005>
    70be: a2 1e        	ldx	#$1e
    70c0: 86 04        	stx	$4                      ; 0x2004 <__heap_default_limit+0x1004>
    70c2: a2 84        	ldx	#$84
    70c4: a9 80        	lda	#$80
    70c6: 20 7e 7c     	jsr	$7c7e <usleep>
    70c9: a0 01        	ldy	#$1
    70cb: 18           	clc
    70cc: a9 27        	lda	#$27
    70ce: 65 1a        	adc	$1a                     ; 0x201a <next_line+0x5>
    70d0: 85 04        	sta	$4                      ; 0x2004 <__heap_default_limit+0x1004>
    70d2: a9 00        	lda	#$0
    70d4: 65 17        	adc	$17                     ; 0x2017 <next_line+0x2>
    70d6: 85 05        	sta	$5                      ; 0x2005 <__heap_default_limit+0x1005>
    70d8: b2 04        	lda	($4),z                  ; 0x2004 <__heap_default_limit+0x1004>
    70da: aa           	tax
    70db: b1 04        	lda	($4),y                  ; 0x2004 <__heap_default_limit+0x1004>
    70dd: 86 04        	stx	$4                      ; 0x2004 <__heap_default_limit+0x1004>
    70df: 85 05        	sta	$5                      ; 0x2005 <__heap_default_limit+0x1005>
    70e1: 98           	tya
    70e2: a0 46        	ldy	#$46
    70e4: 11 04        	ora	($4),y                  ; 0x2004 <__heap_default_limit+0x1004>
    70e6: 91 04        	sta	($4),y                  ; 0x2004 <__heap_default_limit+0x1004>
    70e8: a0 01        	ldy	#$1
    70ea: 5a           	phy
    70eb: a0 10        	ldy	#$10
    70ed: b1 02        	lda	($2),y                  ; 0x2002 <__heap_default_limit+0x1002>
    70ef: 7a           	ply
    70f0: 85 06        	sta	$6                      ; 0x2006 <__heap_default_limit+0x1006>
    70f2: aa           	tax
    70f3: f0 02        	beq	$70f7 <donehyp0att20+0x13a>
    70f5: a0 00        	ldy	#$0
    70f7: a9 01        	lda	#$1
    70f9: aa           	tax
    70fa: 48           	pha
    70fb: 8a           	txa
    70fc: 5a           	phy
    70fd: a0 1d        	ldy	#$1d
    70ff: 91 02        	sta	($2),y                  ; 0x2002 <__heap_default_limit+0x1002>
    7101: 7a           	ply
    7102: 68           	pla
    7103: 84 16        	sty	$16                     ; 0x2016 <next_line+0x1>
    7105: c0 00        	cpy	#$0
    7107: d0 02        	bne	$710b <donehyp0att20+0x14e>
    7109: a9 00        	lda	#$0
    710b: 0a           	asl
    710c: aa           	tax
    710d: b4 27        	ldy	$27,x                   ; 0x2027 <_start+0x6>
    710f: 84 18        	sty	$18                     ; 0x2018 <next_line+0x3>
    7111: b5 28        	lda	$28,x                   ; 0x2028 <_start+0x7>
    7113: aa           	tax
    7114: 86 19        	stx	$19                     ; 0x2019 <next_line+0x4>
    7116: a9 01        	lda	#$1
    7118: a0 46        	ldy	#$46
    711a: 11 18        	ora	($18),y                 ; 0x2018 <next_line+0x3>
    711c: 91 18        	sta	($18),y                 ; 0x2018 <next_line+0x3>
    711e: a9 28        	lda	#$28
    7120: c8           	iny
    7121: 91 04        	sta	($4),y                  ; 0x2004 <__heap_default_limit+0x1004>
    7123: a9 01        	lda	#$1
    7125: c8           	iny
    7126: 91 04        	sta	($4),y                  ; 0x2004 <__heap_default_limit+0x1004>
    7128: a9 50        	lda	#$50
    712a: c8           	iny
    712b: 91 04        	sta	($4),y                  ; 0x2004 <__heap_default_limit+0x1004>
    712d: a9 28        	lda	#$28
    712f: a0 47        	ldy	#$47
    7131: 91 18        	sta	($18),y                 ; 0x2018 <next_line+0x3>
    7133: a9 01        	lda	#$1
    7135: c8           	iny
    7136: 91 18        	sta	($18),y                 ; 0x2018 <next_line+0x3>
    7138: a9 50        	lda	#$50
    713a: c8           	iny
    713b: 91 18        	sta	($18),y                 ; 0x2018 <next_line+0x3>
    713d: b2 04        	lda	($4),z                  ; 0x2004 <__heap_default_limit+0x1004>
    713f: a6 06        	ldx	$6                      ; 0x2006 <__heap_default_limit+0x1006>
    7141: 20 a4 45     	jsr	$45a4 <UpdateSectors>
    7144: b2 18        	lda	($18),z                 ; 0x2018 <next_line+0x3>
    7146: a6 16        	ldx	$16                     ; 0x2016 <next_line+0x1>
    7148: d0 0a        	bne	$7154 <donehyp0att20+0x197>
    714a: 64 04        	stz	$4                      ; 0x2004 <__heap_default_limit+0x1004>
    714c: 48           	pha
    714d: a9 00        	lda	#$0
    714f: a0 1d        	ldy	#$1d
    7151: 91 02        	sta	($2),y                  ; 0x2002 <__heap_default_limit+0x1002>
    7153: 68           	pla
    7154: 48           	pha
    7155: a0 1d        	ldy	#$1d
    7157: b1 02        	lda	($2),y                  ; 0x2002 <__heap_default_limit+0x1002>
    7159: aa           	tax
    715a: 68           	pla
    715b: 20 a4 45     	jsr	$45a4 <UpdateSectors>
    715e: 4c e9 4f     	jmp	$4fe9 <navi+0x2a3>
    7161: a2 01        	ldx	#$1
    7163: a9 4a        	lda	#$4a
    7165: 8d 40 d6     	sta	$d640                   ; 0xd640 <__heap_start+0x46c4>
    7168: b8           	clv
    7169: 90 05        	bcc	$7170 <errhypd81dosattach21>
    716b: 85 04        	sta	$4                      ; 0x2004 <__heap_default_limit+0x1004>
    716d: 4c 74 71     	jmp	$7174 <donehypd81dosattach21>

00007170 <errhypd81dosattach21>:
    7170: a9 ff        	lda	#$ff
    7172: 85 04        	sta	$4                      ; 0x2004 <__heap_default_limit+0x1004>

00007174 <donehypd81dosattach21>:
    7174: ea           	nop
    7175: 4c d1 72     	jmp	$72d1 <donehypd81dosattach22+0x1>
    7178: a2 f7        	ldx	#$f7
    717a: 86 08        	stx	$8                      ; 0x2008 <__heap_default_limit+0x1008>
    717c: a2 87        	ldx	#$87
    717e: 4c ae 6e     	jmp	$6eae <donehypchdir18+0x19f>
    7181: a6 1b        	ldx	$1b                     ; 0x201b <next_line+0x6>
    7183: e0 08        	cpx	#$8
    7185: f0 03        	beq	$718a <donehypd81dosattach21+0x16>
    7187: 4c 13 72     	jmp	$7213 <donehypd81dosattach21+0x9f>
    718a: c9 f6        	cmp	#$f6
    718c: f0 03        	beq	$7191 <donehypd81dosattach21+0x1d>
    718e: 4c 13 72     	jmp	$7213 <donehypd81dosattach21+0x9f>
    7191: a9 27        	lda	#$27
    7193: 18           	clc
    7194: 65 1a        	adc	$1a                     ; 0x201a <next_line+0x5>
    7196: 85 04        	sta	$4                      ; 0x2004 <__heap_default_limit+0x1004>
    7198: a9 00        	lda	#$0
    719a: 65 17        	adc	$17                     ; 0x2017 <next_line+0x2>
    719c: 85 05        	sta	$5                      ; 0x2005 <__heap_default_limit+0x1005>
    719e: b2 04        	lda	($4),z                  ; 0x2004 <__heap_default_limit+0x1004>
    71a0: 85 18        	sta	$18                     ; 0x2018 <next_line+0x3>
    71a2: b1 04        	lda	($4),y                  ; 0x2004 <__heap_default_limit+0x1004>
    71a4: 85 19        	sta	$19                     ; 0x2019 <next_line+0x4>
    71a6: a9 01        	lda	#$1
    71a8: a0 46        	ldy	#$46
    71aa: 31 18        	and	($18),y                 ; 0x2018 <next_line+0x3>
    71ac: d0 03        	bne	$71b1 <donehypd81dosattach21+0x3d>
    71ae: 4c e0 73     	jmp	$73e0 <donehypd81dosattach22+0x110>
    71b1: a0 10        	ldy	#$10
    71b3: b1 02        	lda	($2),y                  ; 0x2002 <__heap_default_limit+0x1002>
    71b5: f0 03        	beq	$71ba <donehypd81dosattach21+0x46>
    71b7: 4c c9 73     	jmp	$73c9 <donehypd81dosattach22+0xf9>
    71ba: a9 01        	lda	#$1
    71bc: 4c cb 73     	jmp	$73cb <donehypd81dosattach22+0xfb>
    71bf: 64 04        	stz	$4                      ; 0x2004 <__heap_default_limit+0x1004>
    71c1: a9 00        	lda	#$0
    71c3: a0 1a        	ldy	#$1a
    71c5: 91 02        	sta	($2),y                  ; 0x2002 <__heap_default_limit+0x1002>
    71c7: 38           	sec
    71c8: a5 21        	lda	$21                     ; 0x2021 <_start>
    71ca: e5 1f        	sbc	$1f                     ; 0x201f <next_line+0xa>
    71cc: 85 04        	sta	$4                      ; 0x2004 <__heap_default_limit+0x1004>
    71ce: a0 1d        	ldy	#$1d
    71d0: b1 02        	lda	($2),y                  ; 0x2002 <__heap_default_limit+0x1002>
    71d2: e5 1e        	sbc	$1e                     ; 0x201e <next_line+0x9>
    71d4: 85 05        	sta	$5                      ; 0x2005 <__heap_default_limit+0x1005>
    71d6: a9 30        	lda	#$30
    71d8: 18           	clc
    71d9: 65 04        	adc	$4                      ; 0x2004 <__heap_default_limit+0x1004>
    71db: 85 08        	sta	$8                      ; 0x2008 <__heap_default_limit+0x1008>
    71dd: a9 8e        	lda	#$8e
    71df: 65 05        	adc	$5                      ; 0x2005 <__heap_default_limit+0x1005>
    71e1: 85 09        	sta	$9                      ; 0x2009 <__heap_default_limit+0x1009>
    71e3: 18           	clc
    71e4: a5 02        	lda	$2                      ; 0x2002 <__heap_default_limit+0x1002>
    71e6: 69 21        	adc	#$21
    71e8: 85 06        	sta	$6                      ; 0x2006 <__heap_default_limit+0x1006>
    71ea: a5 03        	lda	$3                      ; 0x2003 <__heap_default_limit+0x1003>
    71ec: 69 00        	adc	#$0
    71ee: 85 07        	sta	$7                      ; 0x2007 <__heap_default_limit+0x1007>
    71f0: a5 06        	lda	$6                      ; 0x2006 <__heap_default_limit+0x1006>
    71f2: a0 08        	ldy	#$8
    71f4: 91 02        	sta	($2),y                  ; 0x2002 <__heap_default_limit+0x1002>
    71f6: a5 07        	lda	$7                      ; 0x2007 <__heap_default_limit+0x1007>
    71f8: c8           	iny
    71f9: 91 02        	sta	($2),y                  ; 0x2002 <__heap_default_limit+0x1002>
    71fb: b2 06        	lda	($6),z                  ; 0x2006 <__heap_default_limit+0x1006>
    71fd: a0 19        	ldy	#$19
    71ff: 91 02        	sta	($2),y                  ; 0x2002 <__heap_default_limit+0x1002>
    7201: a0 00        	ldy	#$0
    7203: 5a           	phy
    7204: a0 0d        	ldy	#$d
    7206: b1 02        	lda	($2),y                  ; 0x2002 <__heap_default_limit+0x1002>
    7208: 85 18        	sta	$18                     ; 0x2018 <next_line+0x3>
    720a: c8           	iny
    720b: b1 02        	lda	($2),y                  ; 0x2002 <__heap_default_limit+0x1002>
    720d: 7a           	ply
    720e: 85 19        	sta	$19                     ; 0x2019 <next_line+0x4>
    7210: 4c 4e 5d     	jmp	$5d4e <navi+0x1008>
    7213: a6 1b        	ldx	$1b                     ; 0x201b <next_line+0x6>
    7215: e0 08        	cpx	#$8
    7217: f0 03        	beq	$721c <donehypd81dosattach21+0xa8>
    7219: 4c d6 72     	jmp	$72d6 <donehypd81dosattach22+0x6>
    721c: c9 f8        	cmp	#$f8
    721e: f0 03        	beq	$7223 <donehypd81dosattach21+0xaf>
    7220: 4c d6 72     	jmp	$72d6 <donehypd81dosattach22+0x6>
    7223: a2 4b        	ldx	#$4b
    7225: 86 04        	stx	$4                      ; 0x2004 <__heap_default_limit+0x1004>
    7227: a2 14        	ldx	#$14
    7229: 86 05        	stx	$5                      ; 0x2005 <__heap_default_limit+0x1005>
    722b: 84 06        	sty	$6                      ; 0x2006 <__heap_default_limit+0x1006>
    722d: a2 04        	ldx	#$4
    722f: 8a           	txa
    7230: 20 2a 3b     	jsr	$3b2a <mcbox>
    7233: a9 20        	lda	#$20
    7235: 05 2b        	ora	$2b                     ; 0x202b <_start+0xa>
    7237: 85 2b        	sta	$2b                     ; 0x202b <_start+0xa>
    7239: a2 11        	ldx	#$11
    723b: 86 04        	stx	$4                      ; 0x2004 <__heap_default_limit+0x1004>
    723d: a2 84        	ldx	#$84
    723f: 86 05        	stx	$5                      ; 0x2005 <__heap_default_limit+0x1005>
    7241: a2 04        	ldx	#$4
    7243: a9 06        	lda	#$6
    7245: 20 14 3b     	jsr	$3b14 <mcputsxy>
    7248: a2 68        	ldx	#$68
    724a: 86 04        	stx	$4                      ; 0x2004 <__heap_default_limit+0x1004>
    724c: a2 86        	ldx	#$86
    724e: 86 05        	stx	$5                      ; 0x2005 <__heap_default_limit+0x1005>
    7250: a2 04        	ldx	#$4
    7252: a9 19        	lda	#$19
    7254: 20 14 3b     	jsr	$3b14 <mcputsxy>
    7257: a2 16        	ldx	#$16
    7259: 86 04        	stx	$4                      ; 0x2004 <__heap_default_limit+0x1004>
    725b: a2 88        	ldx	#$88
    725d: 86 05        	stx	$5                      ; 0x2005 <__heap_default_limit+0x1005>
    725f: a2 04        	ldx	#$4
    7261: a9 2f        	lda	#$2f
    7263: 20 14 3b     	jsr	$3b14 <mcputsxy>
    7266: a9 df        	lda	#$df
    7268: 25 2b        	and	$2b                     ; 0x202b <_start+0xa>
    726a: 85 2b        	sta	$2b                     ; 0x202b <_start+0xa>
    726c: a2 c7        	ldx	#$c7
    726e: 86 04        	stx	$4                      ; 0x2004 <__heap_default_limit+0x1004>
    7270: a2 83        	ldx	#$83
    7272: 86 05        	stx	$5                      ; 0x2005 <__heap_default_limit+0x1005>
    7274: a5 04        	lda	$4                      ; 0x2004 <__heap_default_limit+0x1004>
    7276: a0 1d        	ldy	#$1d
    7278: 91 02        	sta	($2),y                  ; 0x2002 <__heap_default_limit+0x1002>
    727a: a5 05        	lda	$5                      ; 0x2005 <__heap_default_limit+0x1005>
    727c: c8           	iny
    727d: 91 02        	sta	($2),y                  ; 0x2002 <__heap_default_limit+0x1002>
    727f: 88           	dey
    7280: b1 02        	lda	($2),y                  ; 0x2002 <__heap_default_limit+0x1002>
    7282: 85 04        	sta	$4                      ; 0x2004 <__heap_default_limit+0x1004>
    7284: c8           	iny
    7285: b1 02        	lda	($2),y                  ; 0x2002 <__heap_default_limit+0x1002>
    7287: 85 05        	sta	$5                      ; 0x2005 <__heap_default_limit+0x1005>
    7289: a2 14        	ldx	#$14
    728b: a9 07        	lda	#$7
    728d: 20 14 3b     	jsr	$3b14 <mcputsxy>
    7290: a2 82        	ldx	#$82
    7292: 86 04        	stx	$4                      ; 0x2004 <__heap_default_limit+0x1004>
    7294: a2 85        	ldx	#$85
    7296: 86 05        	stx	$5                      ; 0x2005 <__heap_default_limit+0x1005>
    7298: 20 db 3a     	jsr	$3adb <msprintf>
    729b: a0 1d        	ldy	#$1d
    729d: b1 02        	lda	($2),y                  ; 0x2002 <__heap_default_limit+0x1002>
    729f: 85 04        	sta	$4                      ; 0x2004 <__heap_default_limit+0x1004>
    72a1: c8           	iny
    72a2: b1 02        	lda	($2),y                  ; 0x2002 <__heap_default_limit+0x1002>
    72a4: 85 05        	sta	$5                      ; 0x2005 <__heap_default_limit+0x1005>
    72a6: 20 db 3a     	jsr	$3adb <msprintf>
    72a9: a2 f6        	ldx	#$f6
    72ab: 86 04        	stx	$4                      ; 0x2004 <__heap_default_limit+0x1004>
    72ad: a2 8a        	ldx	#$8a
    72af: 86 05        	stx	$5                      ; 0x2005 <__heap_default_limit+0x1005>
    72b1: a2 14        	ldx	#$14
    72b3: a9 34        	lda	#$34
    72b5: 20 14 3b     	jsr	$3b14 <mcputsxy>
    72b8: a0 00        	ldy	#$0
    72ba: 4c e2 6a     	jmp	$6ae2 <donehypclosefile13+0x45>
    72bd: a2 00        	ldx	#$0
    72bf: a9 4a        	lda	#$4a
    72c1: 8d 40 d6     	sta	$d640                   ; 0xd640 <__heap_start+0x46c4>
    72c4: b8           	clv
    72c5: 90 05        	bcc	$72cc <errhypd81dosattach22>
    72c7: 85 04        	sta	$4                      ; 0x2004 <__heap_default_limit+0x1004>
    72c9: 4c d0 72     	jmp	$72d0 <donehypd81dosattach22>

000072cc <errhypd81dosattach22>:
    72cc: a9 ff        	lda	#$ff
    72ce: 85 04        	sta	$4                      ; 0x2004 <__heap_default_limit+0x1004>

000072d0 <donehypd81dosattach22>:
    72d0: ea           	nop
    72d1: a0 04        	ldy	#$4
    72d3: 4c bb 6c     	jmp	$6cbb <donehypclosedir17+0x11>
    72d6: a6 1b        	ldx	$1b                     ; 0x201b <next_line+0x6>
    72d8: e0 09        	cpx	#$9
    72da: f0 03        	beq	$72df <donehypd81dosattach22+0xf>
    72dc: 4c 1e 73     	jmp	$731e <donehypd81dosattach22+0x4e>
    72df: c9 f8        	cmp	#$f8
    72e1: f0 03        	beq	$72e6 <donehypd81dosattach22+0x16>
    72e3: 4c 1e 73     	jmp	$731e <donehypd81dosattach22+0x4e>
    72e6: a9 27        	lda	#$27
    72e8: 18           	clc
    72e9: 65 1a        	adc	$1a                     ; 0x201a <next_line+0x5>
    72eb: 85 04        	sta	$4                      ; 0x2004 <__heap_default_limit+0x1004>
    72ed: a9 00        	lda	#$0
    72ef: 65 17        	adc	$17                     ; 0x2017 <next_line+0x2>
    72f1: 85 05        	sta	$5                      ; 0x2005 <__heap_default_limit+0x1005>
    72f3: b2 04        	lda	($4),z                  ; 0x2004 <__heap_default_limit+0x1004>
    72f5: 85 06        	sta	$6                      ; 0x2006 <__heap_default_limit+0x1006>
    72f7: b1 04        	lda	($4),y                  ; 0x2004 <__heap_default_limit+0x1004>
    72f9: a4 06        	ldy	$6                      ; 0x2006 <__heap_default_limit+0x1006>
    72fb: 84 16        	sty	$16                     ; 0x2016 <next_line+0x1>
    72fd: 84 18        	sty	$18                     ; 0x2018 <next_line+0x3>
    72ff: 85 17        	sta	$17                     ; 0x2017 <next_line+0x2>
    7301: 85 19        	sta	$19                     ; 0x2019 <next_line+0x4>
    7303: a0 47        	ldy	#$47
    7305: b1 18        	lda	($18),y                 ; 0x2018 <next_line+0x3>
    7307: c9 28        	cmp	#$28
    7309: d0 0a        	bne	$7315 <donehypd81dosattach22+0x45>
    730b: a9 01        	lda	#$1
    730d: a0 46        	ldy	#$46
    730f: 31 18        	and	($18),y                 ; 0x2018 <next_line+0x3>
    7311: 29 01        	and	#$1
    7313: d0 1e        	bne	$7333 <donehypd81dosattach22+0x63>
    7315: a2 79        	ldx	#$79
    7317: 86 04        	stx	$4                      ; 0x2004 <__heap_default_limit+0x1004>
    7319: a2 89        	ldx	#$89
    731b: 4c cc 58     	jmp	$58cc <navi+0xb86>
    731e: a6 1b        	ldx	$1b                     ; 0x201b <next_line+0x6>
    7320: e0 02        	cpx	#$2
    7322: f0 03        	beq	$7327 <donehypd81dosattach22+0x57>
    7324: 4c 09 58     	jmp	$5809 <navi+0xac3>
    7327: a6 1c        	ldx	$1c                     ; 0x201c <next_line+0x7>
    7329: e0 91        	cpx	#$91
    732b: d0 03        	bne	$7330 <donehypd81dosattach22+0x60>
    732d: 4c 62 63     	jmp	$6362 <donehypfindfirst6+0x75>
    7330: 4c 09 58     	jmp	$5809 <navi+0xac3>
    7333: a0 10        	ldy	#$10
    7335: b1 02        	lda	($2),y                  ; 0x2002 <__heap_default_limit+0x1002>
    7337: 85 04        	sta	$4                      ; 0x2004 <__heap_default_limit+0x1004>
    7339: f0 08        	beq	$7343 <donehypd81dosattach22+0x73>
    733b: a2 05        	ldx	#$5
    733d: 86 08        	stx	$8                      ; 0x2008 <__heap_default_limit+0x1008>
    733f: a2 85        	ldx	#$85
    7341: 80 06        	bra	$7349 <donehypd81dosattach22+0x79>
    7343: a2 d1        	ldx	#$d1
    7345: 86 08        	stx	$8                      ; 0x2008 <__heap_default_limit+0x1008>
    7347: a2 8a        	ldx	#$8a
    7349: 86 09        	stx	$9                      ; 0x2009 <__heap_default_limit+0x1009>
    734b: a5 1f        	lda	$1f                     ; 0x201f <next_line+0xa>
    734d: 18           	clc
    734e: 65 04        	adc	$4                      ; 0x2004 <__heap_default_limit+0x1004>
    7350: 85 04        	sta	$4                      ; 0x2004 <__heap_default_limit+0x1004>
    7352: a5 1e        	lda	$1e                     ; 0x201e <next_line+0x9>
    7354: 69 00        	adc	#$0
    7356: 85 05        	sta	$5                      ; 0x2005 <__heap_default_limit+0x1005>
    7358: a9 10        	lda	#$10
    735a: 18           	clc
    735b: 65 04        	adc	$4                      ; 0x2004 <__heap_default_limit+0x1004>
    735d: 85 06        	sta	$6                      ; 0x2006 <__heap_default_limit+0x1006>
    735f: a9 8f        	lda	#$8f
    7361: 65 05        	adc	$5                      ; 0x2005 <__heap_default_limit+0x1005>
    7363: 85 07        	sta	$7                      ; 0x2007 <__heap_default_limit+0x1007>
    7365: a2 51        	ldx	#$51
    7367: 86 04        	stx	$4                      ; 0x2004 <__heap_default_limit+0x1004>
    7369: a2 88        	ldx	#$88
    736b: 86 05        	stx	$5                      ; 0x2005 <__heap_default_limit+0x1005>
    736d: 64 0a        	stz	$a                      ; 0x200a <__heap_default_limit+0x100a>
    736f: 64 0b        	stz	$b                      ; 0x200b <__heap_default_limit+0x100b>
    7371: 64 0c        	stz	$c                      ; 0x200c <__heap_default_limit+0x100c>
    7373: a2 00        	ldx	#$0
    7375: 8a           	txa
    7376: 20 b5 3c     	jsr	$3cb5 <messagebox>
    7379: aa           	tax
    737a: d0 03        	bne	$737f <donehypd81dosattach22+0xaf>
    737c: 4c e9 4f     	jmp	$4fe9 <navi+0x2a3>
    737f: 18           	clc
    7380: a5 16        	lda	$16                     ; 0x2016 <next_line+0x1>
    7382: 69 4a        	adc	#$4a
    7384: 85 1a        	sta	$1a                     ; 0x201a <next_line+0x5>
    7386: a5 17        	lda	$17                     ; 0x2017 <next_line+0x2>
    7388: 69 00        	adc	#$0
    738a: 85 1b        	sta	$1b                     ; 0x201b <next_line+0x6>
    738c: a6 1a        	ldx	$1a                     ; 0x201a <next_line+0x5>
    738e: 86 04        	stx	$4                      ; 0x2004 <__heap_default_limit+0x1004>
    7390: 85 05        	sta	$5                      ; 0x2005 <__heap_default_limit+0x1005>
    7392: a2 9d        	ldx	#$9d
    7394: 86 06        	stx	$6                      ; 0x2006 <__heap_default_limit+0x1006>
    7396: a2 86        	ldx	#$86
    7398: 86 07        	stx	$7                      ; 0x2007 <__heap_default_limit+0x1007>
    739a: 20 0d 3f     	jsr	$3f0d <inputbox>
    739d: a6 1a        	ldx	$1a                     ; 0x201a <next_line+0x5>
    739f: 86 04        	stx	$4                      ; 0x2004 <__heap_default_limit+0x1004>
    73a1: a6 1b        	ldx	$1b                     ; 0x201b <next_line+0x6>
    73a3: 86 05        	stx	$5                      ; 0x2005 <__heap_default_limit+0x1005>
    73a5: a6 1a        	ldx	$1a                     ; 0x201a <next_line+0x5>
    73a7: 86 06        	stx	$6                      ; 0x2006 <__heap_default_limit+0x1006>
    73a9: a6 1b        	ldx	$1b                     ; 0x201b <next_line+0x6>
    73ab: 86 07        	stx	$7                      ; 0x2007 <__heap_default_limit+0x1007>
    73ad: 20 35 39     	jsr	$3935 <strmakefilename>
    73b0: b2 18        	lda	($18),z                 ; 0x2018 <next_line+0x3>
    73b2: 85 06        	sta	$6                      ; 0x2006 <__heap_default_limit+0x1006>
    73b4: a0 47        	ldy	#$47
    73b6: b1 18        	lda	($18),y                 ; 0x2018 <next_line+0x3>
    73b8: a6 1a        	ldx	$1a                     ; 0x201a <next_line+0x5>
    73ba: 86 04        	stx	$4                      ; 0x2004 <__heap_default_limit+0x1004>
    73bc: a6 1b        	ldx	$1b                     ; 0x201b <next_line+0x6>
    73be: 86 05        	stx	$5                      ; 0x2005 <__heap_default_limit+0x1005>
    73c0: aa           	tax
    73c1: a5 06        	lda	$6                      ; 0x2006 <__heap_default_limit+0x1006>
    73c3: 20 1b 2c     	jsr	$2c1b <FormatPartition>
    73c6: 4c 7d 62     	jmp	$627d <navi+0x1537>
    73c9: a9 00        	lda	#$0
    73cb: 0a           	asl
    73cc: aa           	tax
    73cd: b4 27        	ldy	$27,x                   ; 0x2027 <_start+0x6>
    73cf: b5 28        	lda	$28,x                   ; 0x2028 <_start+0x7>
    73d1: aa           	tax
    73d2: 84 16        	sty	$16                     ; 0x2016 <next_line+0x1>
    73d4: 86 17        	stx	$17                     ; 0x2017 <next_line+0x2>
    73d6: a9 01        	lda	#$1
    73d8: a0 46        	ldy	#$46
    73da: 31 16        	and	($16),y                 ; 0x2016 <next_line+0x1>
    73dc: 29 01        	and	#$1
    73de: d0 09        	bne	$73e9 <donehypd81dosattach22+0x119>
    73e0: a2 f3        	ldx	#$f3
    73e2: 86 04        	stx	$4                      ; 0x2004 <__heap_default_limit+0x1004>
    73e4: a2 83        	ldx	#$83
    73e6: 4c d7 6b     	jmp	$6bd7 <donehypfindfirst14+0x64>
    73e9: a0 47        	ldy	#$47
    73eb: b1 18        	lda	($18),y                 ; 0x2018 <next_line+0x3>
    73ed: c9 28        	cmp	#$28
    73ef: f0 03        	beq	$73f4 <donehypd81dosattach22+0x124>
    73f1: 4c e9 4f     	jmp	$4fe9 <navi+0x2a3>
    73f4: a2 56        	ldx	#$56
    73f6: 86 04        	stx	$4                      ; 0x2004 <__heap_default_limit+0x1004>
    73f8: a2 86        	ldx	#$86
    73fa: 86 05        	stx	$5                      ; 0x2005 <__heap_default_limit+0x1005>
    73fc: a2 e1        	ldx	#$e1
    73fe: 86 06        	stx	$6                      ; 0x2006 <__heap_default_limit+0x1006>
    7400: a2 88        	ldx	#$88
    7402: 86 07        	stx	$7                      ; 0x2007 <__heap_default_limit+0x1007>
    7404: a2 c7        	ldx	#$c7
    7406: 86 08        	stx	$8                      ; 0x2008 <__heap_default_limit+0x1008>
    7408: a2 83        	ldx	#$83
    740a: 86 09        	stx	$9                      ; 0x2009 <__heap_default_limit+0x1009>
    740c: 64 0a        	stz	$a                      ; 0x200a <__heap_default_limit+0x100a>
    740e: 64 0b        	stz	$b                      ; 0x200b <__heap_default_limit+0x100b>
    7410: 64 0c        	stz	$c                      ; 0x200c <__heap_default_limit+0x100c>
    7412: a2 00        	ldx	#$0
    7414: 8a           	txa
    7415: 20 b5 3c     	jsr	$3cb5 <messagebox>
    7418: aa           	tax
    7419: d0 03        	bne	$741e <donehypd81dosattach22+0x14e>
    741b: 4c e9 4f     	jmp	$4fe9 <navi+0x2a3>
    741e: a0 10        	ldy	#$10
    7420: b1 02        	lda	($2),y                  ; 0x2002 <__heap_default_limit+0x1002>
    7422: 85 1a        	sta	$1a                     ; 0x201a <next_line+0x5>
    7424: 20 22 26     	jsr	$2622 <GetBAM>
    7427: b2 18        	lda	($18),z                 ; 0x2018 <next_line+0x3>
    7429: 85 19        	sta	$19                     ; 0x2019 <next_line+0x4>
    742b: b2 16        	lda	($16),z                 ; 0x2016 <next_line+0x1>
    742d: 85 18        	sta	$18                     ; 0x2018 <next_line+0x3>
    742f: a0 01        	ldy	#$1
    7431: 64 04        	stz	$4                      ; 0x2004 <__heap_default_limit+0x1004>
    7433: 64 1f        	stz	$1f                     ; 0x201f <next_line+0xa>
    7435: 80 10        	bra	$7447 <donehypd81dosattach22+0x177>
    7437: a6 1e        	ldx	$1e                     ; 0x201e <next_line+0x9>
    7439: 86 04        	stx	$4                      ; 0x2004 <__heap_default_limit+0x1004>
    743b: 4c 35 75     	jmp	$7535 <donehypd81dosattach22+0x265>
    743e: c8           	iny
    743f: 5a           	phy
    7440: a0 10        	ldy	#$10
    7442: b1 02        	lda	($2),y                  ; 0x2002 <__heap_default_limit+0x1002>
    7444: 7a           	ply
    7445: 85 1a        	sta	$1a                     ; 0x201a <next_line+0x5>
    7447: c0 51        	cpy	#$51
    7449: d0 03        	bne	$744e <donehypd81dosattach22+0x17e>
    744b: 4c 3d 75     	jmp	$753d <donehypd81dosattach22+0x26d>
    744e: a9 01        	lda	#$1
    7450: 84 1c        	sty	$1c                     ; 0x201c <next_line+0x7>
    7452: c9 29        	cmp	#$29
    7454: b0 e8        	bcs	$743e <donehypd81dosattach22+0x16e>
    7456: a6 04        	ldx	$4                      ; 0x2004 <__heap_default_limit+0x1004>
    7458: 86 1e        	stx	$1e                     ; 0x201e <next_line+0x9>
    745a: 85 20        	sta	$20                     ; 0x2020 <next_line+0xb>
    745c: 85 1a        	sta	$1a                     ; 0x201a <next_line+0x5>
    745e: c6 1a        	dec	$1a                     ; 0x201a <next_line+0x5>
    7460: a9 02        	lda	#$2
    7462: 25 2f        	and	$2f                     ; 0x202f <__do_init_stack>
    7464: f0 19        	beq	$747f <donehypd81dosattach22+0x1af>
    7466: a6 1a        	ldx	$1a                     ; 0x201a <next_line+0x5>
    7468: 98           	tya
    7469: 20 18 2e     	jsr	$2e18 <isallocatedBAMtracksector>
    746c: a4 1c        	ldy	$1c                     ; 0x201c <next_line+0x7>
    746e: aa           	tax
    746f: d0 0e        	bne	$747f <donehypd81dosattach22+0x1af>
    7471: a6 20        	ldx	$20                     ; 0x2020 <next_line+0xb>
    7473: 98           	tya
    7474: 20 18 2e     	jsr	$2e18 <isallocatedBAMtracksector>
    7477: a4 1c        	ldy	$1c                     ; 0x201c <next_line+0x7>
    7479: aa           	tax
    747a: d0 03        	bne	$747f <donehypd81dosattach22+0x1af>
    747c: 4c 37 74     	jmp	$7437 <donehypd81dosattach22+0x167>
    747f: a6 1a        	ldx	$1a                     ; 0x201a <next_line+0x5>
    7481: 98           	tya
    7482: 84 1b        	sty	$1b                     ; 0x201b <next_line+0x6>
    7484: 20 16 31     	jsr	$3116 <tracksectorstring>
    7487: a6 1e        	ldx	$1e                     ; 0x201e <next_line+0x9>
    7489: 86 1d        	stx	$1d                     ; 0x201d <next_line+0x8>
    748b: 86 04        	stx	$4                      ; 0x2004 <__heap_default_limit+0x1004>
    748d: 06 04        	asl	$4                      ; 0x2004 <__heap_default_limit+0x1004>
    748f: a5 1f        	lda	$1f                     ; 0x201f <next_line+0xa>
    7491: 85 1e        	sta	$1e                     ; 0x201e <next_line+0x9>
    7493: 2a           	rol
    7494: 06 04        	asl	$4                      ; 0x2004 <__heap_default_limit+0x1004>
    7496: 2a           	rol
    7497: a2 cc        	ldx	#$cc
    7499: 86 04        	stx	$4                      ; 0x2004 <__heap_default_limit+0x1004>
    749b: a2 8b        	ldx	#$8b
    749d: 86 05        	stx	$5                      ; 0x2005 <__heap_default_limit+0x1005>
    749f: a2 e0        	ldx	#$e0
    74a1: 86 06        	stx	$6                      ; 0x2006 <__heap_default_limit+0x1006>
    74a3: a2 8d        	ldx	#$8d
    74a5: 86 07        	stx	$7                      ; 0x2007 <__heap_default_limit+0x1007>
    74a7: 20 5d 3e     	jsr	$3e5d <progress>
    74aa: a6 1a        	ldx	$1a                     ; 0x201a <next_line+0x5>
    74ac: 86 04        	stx	$4                      ; 0x2004 <__heap_default_limit+0x1004>
    74ae: a6 1b        	ldx	$1b                     ; 0x201b <next_line+0x6>
    74b0: a5 19        	lda	$19                     ; 0x2019 <next_line+0x4>
    74b2: 20 99 23     	jsr	$2399 <ReadSector>
    74b5: c9 02        	cmp	#$2
    74b7: a2 01        	ldx	#$1
    74b9: a0 10        	ldy	#$10
    74bb: b1 02        	lda	($2),y                  ; 0x2002 <__heap_default_limit+0x1002>
    74bd: 85 1a        	sta	$1a                     ; 0x201a <next_line+0x5>
    74bf: 90 03        	bcc	$74c4 <donehypd81dosattach22+0x1f4>
    74c1: 4c 04 76     	jmp	$7604 <donehypd81dosattach22+0x334>
    74c4: a0 fd        	ldy	#$fd
    74c6: 84 04        	sty	$4                      ; 0x2004 <__heap_default_limit+0x1004>
    74c8: a0 0f        	ldy	#$f
    74ca: 84 05        	sty	$5                      ; 0x2005 <__heap_default_limit+0x1005>
    74cc: 64 06        	stz	$6                      ; 0x2006 <__heap_default_limit+0x1006>
    74ce: a0 19        	ldy	#$19
    74d0: 84 07        	sty	$7                      ; 0x2007 <__heap_default_limit+0x1007>
    74d2: 64 08        	stz	$8                      ; 0x2008 <__heap_default_limit+0x1008>
    74d4: 64 09        	stz	$9                      ; 0x2009 <__heap_default_limit+0x1009>
    74d6: 64 0a        	stz	$a                      ; 0x200a <__heap_default_limit+0x100a>
    74d8: 86 0b        	stx	$b                      ; 0x200b <__heap_default_limit+0x100b>
    74da: a2 6c        	ldx	#$6c
    74dc: a9 00        	lda	#$0
    74de: 20 c7 7b     	jsr	$7bc7 <lcopy>
    74e1: a2 fd        	ldx	#$fd
    74e3: 86 04        	stx	$4                      ; 0x2004 <__heap_default_limit+0x1004>
    74e5: a2 0f        	ldx	#$f
    74e7: 86 05        	stx	$5                      ; 0x2005 <__heap_default_limit+0x1005>
    74e9: 64 06        	stz	$6                      ; 0x2006 <__heap_default_limit+0x1006>
    74eb: a2 1a        	ldx	#$1a
    74ed: 86 07        	stx	$7                      ; 0x2007 <__heap_default_limit+0x1007>
    74ef: 64 08        	stz	$8                      ; 0x2008 <__heap_default_limit+0x1008>
    74f1: 64 09        	stz	$9                      ; 0x2009 <__heap_default_limit+0x1009>
    74f3: 64 0a        	stz	$a                      ; 0x200a <__heap_default_limit+0x100a>
    74f5: a2 01        	ldx	#$1
    74f7: 86 0b        	stx	$b                      ; 0x200b <__heap_default_limit+0x100b>
    74f9: a2 6d        	ldx	#$6d
    74fb: a9 00        	lda	#$0
    74fd: 20 c7 7b     	jsr	$7bc7 <lcopy>
    7500: a5 1d        	lda	$1d                     ; 0x201d <next_line+0x8>
    7502: 18           	clc
    7503: 69 3c        	adc	#$3c
    7505: 85 07        	sta	$7                      ; 0x2007 <__heap_default_limit+0x1007>
    7507: a5 1e        	lda	$1e                     ; 0x201e <next_line+0x9>
    7509: 69 00        	adc	#$0
    750b: 85 08        	sta	$8                      ; 0x2008 <__heap_default_limit+0x1008>
    750d: a9 00        	lda	#$0
    750f: 69 08        	adc	#$8
    7511: 64 04        	stz	$4                      ; 0x2004 <__heap_default_limit+0x1004>
    7513: 64 05        	stz	$5                      ; 0x2005 <__heap_default_limit+0x1005>
    7515: 64 06        	stz	$6                      ; 0x2006 <__heap_default_limit+0x1006>
    7517: 85 09        	sta	$9                      ; 0x2009 <__heap_default_limit+0x1009>
    7519: 64 0a        	stz	$a                      ; 0x200a <__heap_default_limit+0x100a>
    751b: a2 02        	ldx	#$2
    751d: 86 0b        	stx	$b                      ; 0x200b <__heap_default_limit+0x100b>
    751f: a2 19        	ldx	#$19
    7521: a9 00        	lda	#$0
    7523: 20 c7 7b     	jsr	$7bc7 <lcopy>
    7526: 18           	clc
    7527: a5 1d        	lda	$1d                     ; 0x201d <next_line+0x8>
    7529: 69 02        	adc	#$2
    752b: 85 04        	sta	$4                      ; 0x2004 <__heap_default_limit+0x1004>
    752d: a5 1e        	lda	$1e                     ; 0x201e <next_line+0x9>
    752f: 69 00        	adc	#$0
    7531: a4 1c        	ldy	$1c                     ; 0x201c <next_line+0x7>
    7533: 85 1f        	sta	$1f                     ; 0x201f <next_line+0xa>
    7535: 18           	clc
    7536: a5 20        	lda	$20                     ; 0x2020 <next_line+0xb>
    7538: 69 02        	adc	#$2
    753a: 4c 52 74     	jmp	$7452 <donehypd81dosattach22+0x182>
    753d: a0 01        	ldy	#$1
    753f: 64 1b        	stz	$1b                     ; 0x201b <next_line+0x6>
    7541: 64 1c        	stz	$1c                     ; 0x201c <next_line+0x7>
    7543: 4c f9 75     	jmp	$75f9 <donehypd81dosattach22+0x329>
    7546: a6 1a        	ldx	$1a                     ; 0x201a <next_line+0x5>
    7548: 98           	tya
    7549: 20 16 31     	jsr	$3116 <tracksectorstring>
    754c: a6 1b        	ldx	$1b                     ; 0x201b <next_line+0x6>
    754e: 86 04        	stx	$4                      ; 0x2004 <__heap_default_limit+0x1004>
    7550: 06 04        	asl	$4                      ; 0x2004 <__heap_default_limit+0x1004>
    7552: a5 1c        	lda	$1c                     ; 0x201c <next_line+0x7>
    7554: 2a           	rol
    7555: 06 04        	asl	$4                      ; 0x2004 <__heap_default_limit+0x1004>
    7557: 2a           	rol
    7558: 18           	clc
    7559: 69 32        	adc	#$32
    755b: a2 2f        	ldx	#$2f
    755d: 86 04        	stx	$4                      ; 0x2004 <__heap_default_limit+0x1004>
    755f: a2 8a        	ldx	#$8a
    7561: 86 05        	stx	$5                      ; 0x2005 <__heap_default_limit+0x1005>
    7563: a2 e0        	ldx	#$e0
    7565: 86 06        	stx	$6                      ; 0x2006 <__heap_default_limit+0x1006>
    7567: a2 8d        	ldx	#$8d
    7569: 86 07        	stx	$7                      ; 0x2007 <__heap_default_limit+0x1007>
    756b: 20 5d 3e     	jsr	$3e5d <progress>
    756e: a5 1b        	lda	$1b                     ; 0x201b <next_line+0x6>
    7570: 18           	clc
    7571: 69 3c        	adc	#$3c
    7573: a8           	tay
    7574: a5 1c        	lda	$1c                     ; 0x201c <next_line+0x7>
    7576: 69 00        	adc	#$0
    7578: 85 04        	sta	$4                      ; 0x2004 <__heap_default_limit+0x1004>
    757a: a9 00        	lda	#$0
    757c: 69 08        	adc	#$8
    757e: 85 05        	sta	$5                      ; 0x2005 <__heap_default_limit+0x1005>
    7580: 64 06        	stz	$6                      ; 0x2006 <__heap_default_limit+0x1006>
    7582: a2 19        	ldx	#$19
    7584: 86 07        	stx	$7                      ; 0x2007 <__heap_default_limit+0x1007>
    7586: 64 08        	stz	$8                      ; 0x2008 <__heap_default_limit+0x1008>
    7588: 64 09        	stz	$9                      ; 0x2009 <__heap_default_limit+0x1009>
    758a: 64 0a        	stz	$a                      ; 0x200a <__heap_default_limit+0x100a>
    758c: a2 02        	ldx	#$2
    758e: 86 0b        	stx	$b                      ; 0x200b <__heap_default_limit+0x100b>
    7590: 5a           	phy
    7591: fa           	plx
    7592: a9 00        	lda	#$0
    7594: 20 c7 7b     	jsr	$7bc7 <lcopy>
    7597: a2 00        	ldx	#$0
    7599: 86 04        	stx	$4                      ; 0x2004 <__heap_default_limit+0x1004>
    759b: a2 19        	ldx	#$19
    759d: 86 05        	stx	$5                      ; 0x2005 <__heap_default_limit+0x1005>
    759f: a6 1a        	ldx	$1a                     ; 0x201a <next_line+0x5>
    75a1: 86 06        	stx	$6                      ; 0x2006 <__heap_default_limit+0x1006>
    75a3: a6 19        	ldx	$19                     ; 0x2019 <next_line+0x4>
    75a5: a5 18        	lda	$18                     ; 0x2018 <next_line+0x3>
    75a7: 20 4d 25     	jsr	$254d <PutWholeSector>
    75aa: a4 19        	ldy	$19                     ; 0x2019 <next_line+0x4>
    75ac: 18           	clc
    75ad: a5 1b        	lda	$1b                     ; 0x201b <next_line+0x6>
    75af: 69 02        	adc	#$2
    75b1: 85 1b        	sta	$1b                     ; 0x201b <next_line+0x6>
    75b3: a5 1c        	lda	$1c                     ; 0x201c <next_line+0x7>
    75b5: 69 00        	adc	#$0
    75b7: 85 1c        	sta	$1c                     ; 0x201c <next_line+0x7>
    75b9: 5a           	phy
    75ba: a0 10        	ldy	#$10
    75bc: b1 02        	lda	($2),y                  ; 0x2002 <__heap_default_limit+0x1002>
    75be: 7a           	ply
    75bf: 85 1a        	sta	$1a                     ; 0x201a <next_line+0x5>
    75c1: 18           	clc
    75c2: a5 1d        	lda	$1d                     ; 0x201d <next_line+0x8>
    75c4: 69 02        	adc	#$2
    75c6: c9 29        	cmp	#$29
    75c8: b0 2e        	bcs	$75f8 <donehypd81dosattach22+0x328>
    75ca: 85 1d        	sta	$1d                     ; 0x201d <next_line+0x8>
    75cc: 85 1a        	sta	$1a                     ; 0x201a <next_line+0x5>
    75ce: c6 1a        	dec	$1a                     ; 0x201a <next_line+0x5>
    75d0: a9 02        	lda	#$2
    75d2: 25 2f        	and	$2f                     ; 0x202f <__do_init_stack>
    75d4: d0 03        	bne	$75d9 <donehypd81dosattach22+0x309>
    75d6: 4c 46 75     	jmp	$7546 <donehypd81dosattach22+0x276>
    75d9: a6 1a        	ldx	$1a                     ; 0x201a <next_line+0x5>
    75db: 98           	tya
    75dc: 20 18 2e     	jsr	$2e18 <isallocatedBAMtracksector>
    75df: a4 19        	ldy	$19                     ; 0x2019 <next_line+0x4>
    75e1: aa           	tax
    75e2: f0 03        	beq	$75e7 <donehypd81dosattach22+0x317>
    75e4: 4c 46 75     	jmp	$7546 <donehypd81dosattach22+0x276>
    75e7: a6 1d        	ldx	$1d                     ; 0x201d <next_line+0x8>
    75e9: 98           	tya
    75ea: 20 18 2e     	jsr	$2e18 <isallocatedBAMtracksector>
    75ed: a4 19        	ldy	$19                     ; 0x2019 <next_line+0x4>
    75ef: aa           	tax
    75f0: f0 03        	beq	$75f5 <donehypd81dosattach22+0x325>
    75f2: 4c 46 75     	jmp	$7546 <donehypd81dosattach22+0x276>
    75f5: 4c b9 75     	jmp	$75b9 <donehypd81dosattach22+0x2e9>
    75f8: c8           	iny
    75f9: c0 51        	cpy	#$51
    75fb: f0 07        	beq	$7604 <donehypd81dosattach22+0x334>
    75fd: a9 01        	lda	#$1
    75ff: 84 19        	sty	$19                     ; 0x2019 <next_line+0x4>
    7601: 4c c6 75     	jmp	$75c6 <donehypd81dosattach22+0x2f6>
    7604: a2 01        	ldx	#$1
    7606: a5 1a        	lda	$1a                     ; 0x201a <next_line+0x5>
    7608: f0 02        	beq	$760c <donehypd81dosattach22+0x33c>
    760a: a2 00        	ldx	#$0
    760c: b2 16        	lda	($16),z                 ; 0x2016 <next_line+0x1>
    760e: e0 00        	cpx	#$0
    7610: f0 05        	beq	$7617 <donehypd81dosattach22+0x347>
    7612: a2 01        	ldx	#$1
    7614: 4c 5b 71     	jmp	$715b <donehyp0att20+0x19e>
    7617: a2 00        	ldx	#$0
    7619: 4c 5b 71     	jmp	$715b <donehyp0att20+0x19e>

0000761c <blockreadbyte>:
    761c: 85 05        	sta	$5                      ; 0x2005 <__heap_default_limit+0x1005>
    761e: a4 04        	ldy	$4                      ; 0x2004 <__heap_default_limit+0x1004>
    7620: 84 54        	sty	$54                     ; 0x2054 <_fini+0x9>
    7622: e6 05        	inc	$5                      ; 0x2005 <__heap_default_limit+0x1005>
    7624: d0 01        	bne	$7627 <blockreadbyte+0xb>
    7626: e8           	inx
    7627: a9 00        	lda	#$0
    7629: 64 04        	stz	$4                      ; 0x2004 <__heap_default_limit+0x1004>
    762b: e0 00        	cpx	#$0
    762d: f0 15        	beq	$7644 <blockreadbyte+0x28>
    762f: a8           	tay
    7630: d0 02        	bne	$7634 <blockreadbyte+0x18>
    7632: 09 02        	ora	#$2
    7634: 1a           	inc
    7635: d0 02        	bne	$7639 <blockreadbyte+0x1d>
    7637: e6 04        	inc	$4                      ; 0x2004 <__heap_default_limit+0x1004>
    7639: a0 ff        	ldy	#$ff
    763b: c6 05        	dec	$5                      ; 0x2005 <__heap_default_limit+0x1005>
    763d: c4 05        	cpy	$5                      ; 0x2005 <__heap_default_limit+0x1005>
    763f: d0 01        	bne	$7642 <blockreadbyte+0x26>
    7641: ca           	dex
    7642: 80 e7        	bra	$762b <blockreadbyte+0xf>
    7644: a4 05        	ldy	$5                      ; 0x2005 <__heap_default_limit+0x1005>
    7646: d0 e7        	bne	$762f <blockreadbyte+0x13>
    7648: 3a           	dec
    7649: c9 ff        	cmp	#$ff
    764b: d0 02        	bne	$764f <blockreadbyte+0x33>
    764d: c6 04        	dec	$4                      ; 0x2004 <__heap_default_limit+0x1004>
    764f: 18           	clc
    7650: 69 00        	adc	#$0
    7652: 85 0d        	sta	$d                      ; 0x200d <__heap_default_limit+0x100d>
    7654: a5 04        	lda	$4                      ; 0x2004 <__heap_default_limit+0x1004>
    7656: 69 bc        	adc	#$bc
    7658: 85 0c        	sta	$c                      ; 0x200c <__heap_default_limit+0x100c>
    765a: a9 00        	lda	#$0
    765c: 69 0c        	adc	#$c
    765e: 85 04        	sta	$4                      ; 0x2004 <__heap_default_limit+0x1004>
    7660: a9 00        	lda	#$0
    7662: 69 08        	adc	#$8
    7664: 85 05        	sta	$5                      ; 0x2005 <__heap_default_limit+0x1005>
    7666: a9 55        	lda	#$55
    7668: a0 00        	ldy	#$0
    766a: a2 01        	ldx	#$1
    766c: 85 06        	sta	$6                      ; 0x2006 <__heap_default_limit+0x1006>
    766e: 84 07        	sty	$7                      ; 0x2007 <__heap_default_limit+0x1007>
    7670: 86 0a        	stx	$a                      ; 0x200a <__heap_default_limit+0x100a>
    7672: 64 08        	stz	$8                      ; 0x2008 <__heap_default_limit+0x1008>
    7674: 64 09        	stz	$9                      ; 0x2009 <__heap_default_limit+0x1009>
    7676: 64 0b        	stz	$b                      ; 0x200b <__heap_default_limit+0x100b>
    7678: a6 0c        	ldx	$c                      ; 0x200c <__heap_default_limit+0x100c>
    767a: a5 0d        	lda	$d                      ; 0x200d <__heap_default_limit+0x100d>
    767c: 20 c7 7b     	jsr	$7bc7 <lcopy>
    767f: a5 55        	lda	$55                     ; 0x2055 <_fini+0xa>
    7681: c9 0d        	cmp	#$d
    7683: d0 0a        	bne	$768f <blockreadbyte+0x73>
    7685: a9 0d        	lda	#$d
    7687: a6 54        	ldx	$54                     ; 0x2054 <_fini+0x9>
    7689: e0 01        	cpx	#$1
    768b: d0 02        	bne	$768f <blockreadbyte+0x73>
    768d: a9 00        	lda	#$0
    768f: 60           	rts

00007690 <text>:
    7690: 85 49        	sta	$49                     ; 0x2049 <__after_main+0x1>
    7692: 86 4d        	stx	$4d                     ; 0x204d <_fini+0x2>
    7694: a0 00        	ldy	#$0
    7696: 64 4c        	stz	$4c                     ; 0x204c <_fini+0x1>
    7698: 64 48        	stz	$48                     ; 0x2048 <__after_main>
    769a: 98           	tya
    769b: 64 4b        	stz	$4b                     ; 0x204b <_fini>
    769d: c4 48        	cpy	$48                     ; 0x2048 <__after_main>
    769f: d0 09        	bne	$76aa <text+0x1a>
    76a1: a6 49        	ldx	$49                     ; 0x2049 <__after_main+0x1>
    76a3: e4 4c        	cpx	$4c                     ; 0x204c <_fini+0x1>
    76a5: b0 0a        	bcs	$76b1 <text+0x21>
    76a7: 4c de 77     	jmp	$77de <text+0x14e>
    76aa: c4 48        	cpy	$48                     ; 0x2048 <__after_main>
    76ac: b0 03        	bcs	$76b1 <text+0x21>
    76ae: 4c de 77     	jmp	$77de <text+0x14e>
    76b1: 64 04        	stz	$4                      ; 0x2004 <__heap_default_limit+0x1004>
    76b3: a6 4b        	ldx	$4b                     ; 0x204b <_fini>
    76b5: 85 4a        	sta	$4a                     ; 0x204a <__after_main+0x2>
    76b7: 20 1c 76     	jsr	$761c <blockreadbyte>
    76ba: a6 49        	ldx	$49                     ; 0x2049 <__after_main+0x1>
    76bc: e8           	inx
    76bd: c9 01        	cmp	#$1
    76bf: f0 1a        	beq	$76db <text+0x4b>
    76c1: c9 02        	cmp	#$2
    76c3: d0 03        	bne	$76c8 <text+0x38>
    76c5: 4c af 77     	jmp	$77af <text+0x11f>
    76c8: a0 00        	ldy	#$0
    76ca: c9 0a        	cmp	#$a
    76cc: f0 03        	beq	$76d1 <text+0x41>
    76ce: 4c b3 78     	jmp	$78b3 <text+0x223>
    76d1: a5 48        	lda	$48                     ; 0x2048 <__after_main>
    76d3: f0 03        	beq	$76d8 <text+0x48>
    76d5: 4c df 77     	jmp	$77df <text+0x14f>
    76d8: 4c d6 77     	jmp	$77d6 <text+0x146>
    76db: a5 48        	lda	$48                     ; 0x2048 <__after_main>
    76dd: d0 03        	bne	$76e2 <text+0x52>
    76df: 4c e3 77     	jmp	$77e3 <text+0x153>
    76e2: 86 4e        	stx	$4e                     ; 0x204e <_fini+0x3>
    76e4: 18           	clc
    76e5: a5 4a        	lda	$4a                     ; 0x204a <__after_main+0x2>
    76e7: 69 03        	adc	#$3
    76e9: a8           	tay
    76ea: a5 4b        	lda	$4b                     ; 0x204b <_fini>
    76ec: 69 00        	adc	#$0
    76ee: 4c 40 77     	jmp	$7740 <text+0xb0>
    76f1: 85 04        	sta	$4                      ; 0x2004 <__heap_default_limit+0x1004>
    76f3: 98           	tya
    76f4: 06 04        	asl	$4                      ; 0x2004 <__heap_default_limit+0x1004>
    76f6: a6 04        	ldx	$4                      ; 0x2004 <__heap_default_limit+0x1004>
    76f8: 7c 4a 83     	jmp	($834a,x)               ; 0x834a <__zp_data_load_start+0x6333>
    76fb: a9 bf        	lda	#$bf
    76fd: 80 1e        	bra	$771d <text+0x8d>
    76ff: 20 4a 79     	jsr	$794a <petsciitoscreencode>
    7702: 20 61 79     	jsr	$7961 <cputc>
    7705: 80 30        	bra	$7737 <text+0xa7>
    7707: a9 40        	lda	#$40
    7709: 80 28        	bra	$7733 <text+0xa3>
    770b: a9 7f        	lda	#$7f
    770d: 80 0e        	bra	$771d <text+0x8d>
    770f: a9 80        	lda	#$80
    7711: 80 20        	bra	$7733 <text+0xa3>
    7713: a9 20        	lda	#$20
    7715: 80 1c        	bra	$7733 <text+0xa3>
    7717: a9 ef        	lda	#$ef
    7719: 80 02        	bra	$771d <text+0x8d>
    771b: a9 df        	lda	#$df
    771d: 25 2b        	and	$2b                     ; 0x202b <_start+0xa>
    771f: 80 14        	bra	$7735 <text+0xa5>
    7721: a9 f0        	lda	#$f0
    7723: 25 2b        	and	$2b                     ; 0x202b <_start+0xa>
    7725: 09 0b        	ora	#$b
    7727: 80 0c        	bra	$7735 <text+0xa5>
    7729: a9 f0        	lda	#$f0
    772b: 25 2b        	and	$2b                     ; 0x202b <_start+0xa>
    772d: 09 0e        	ora	#$e
    772f: 80 04        	bra	$7735 <text+0xa5>
    7731: a9 10        	lda	#$10
    7733: 05 2b        	ora	$2b                     ; 0x202b <_start+0xa>
    7735: 85 2b        	sta	$2b                     ; 0x202b <_start+0xa>
    7737: a5 4b        	lda	$4b                     ; 0x204b <_fini>
    7739: e6 4a        	inc	$4a                     ; 0x204a <__after_main+0x2>
    773b: d0 01        	bne	$773e <text+0xae>
    773d: 1a           	inc
    773e: a4 4a        	ldy	$4a                     ; 0x204a <__after_main+0x2>
    7740: a2 01        	ldx	#$1
    7742: 86 04        	stx	$4                      ; 0x2004 <__heap_default_limit+0x1004>
    7744: 85 4b        	sta	$4b                     ; 0x204b <_fini>
    7746: aa           	tax
    7747: 98           	tya
    7748: 84 4a        	sty	$4a                     ; 0x204a <__after_main+0x2>
    774a: 20 1c 76     	jsr	$761c <blockreadbyte>
    774d: aa           	tax
    774e: d0 03        	bne	$7753 <text+0xc3>
    7750: 4c 9e 77     	jmp	$779e <text+0x10e>
    7753: a6 48        	ldx	$48                     ; 0x2048 <__after_main>
    7755: d0 e0        	bne	$7737 <text+0xa7>
    7757: a6 4c        	ldx	$4c                     ; 0x204c <_fini+0x1>
    7759: e4 49        	cpx	$49                     ; 0x2049 <__after_main+0x1>
    775b: d0 da        	bne	$7737 <text+0xa7>
    775d: 38           	sec
    775e: a8           	tay
    775f: e9 08        	sbc	#$8
    7761: c9 0b        	cmp	#$b
    7763: b0 03        	bcs	$7768 <text+0xd8>
    7765: 4c f1 76     	jmp	$76f1 <text+0x61>
    7768: c0 82        	cpy	#$82
    776a: d0 03        	bne	$776f <text+0xdf>
    776c: 4c 31 77     	jmp	$7731 <text+0xa1>
    776f: 5a           	phy
    7770: fa           	plx
    7771: c0 84        	cpy	#$84
    7773: d0 03        	bne	$7778 <text+0xe8>
    7775: 4c 17 77     	jmp	$7717 <text+0x87>
    7778: e0 92        	cpx	#$92
    777a: d0 03        	bne	$777f <text+0xef>
    777c: 4c 1b 77     	jmp	$771b <text+0x8b>
    777f: e0 97        	cpx	#$97
    7781: d0 03        	bne	$7786 <text+0xf6>
    7783: 4c 21 77     	jmp	$7721 <text+0x91>
    7786: e0 9a        	cpx	#$9a
    7788: d0 03        	bne	$778d <text+0xfd>
    778a: 4c 29 77     	jmp	$7729 <text+0x99>
    778d: 98           	tya
    778e: e0 9f        	cpx	#$9f
    7790: f0 03        	beq	$7795 <text+0x105>
    7792: 4c ff 76     	jmp	$76ff <text+0x6f>
    7795: a9 f0        	lda	#$f0
    7797: 25 2b        	and	$2b                     ; 0x202b <_start+0xa>
    7799: 09 03        	ora	#$3
    779b: 4c 35 77     	jmp	$7735 <text+0xa5>
    779e: a5 4a        	lda	$4a                     ; 0x204a <__after_main+0x2>
    77a0: 1a           	inc
    77a1: d0 03        	bne	$77a6 <text+0x116>
    77a3: 4c 22 78     	jmp	$7822 <text+0x192>
    77a6: a0 00        	ldy	#$0
    77a8: a6 48        	ldx	$48                     ; 0x2048 <__after_main>
    77aa: d0 1e        	bne	$77ca <text+0x13a>
    77ac: 4c 27 78     	jmp	$7827 <text+0x197>
    77af: a0 00        	ldy	#$0
    77b1: a5 48        	lda	$48                     ; 0x2048 <__after_main>
    77b3: d0 03        	bne	$77b8 <text+0x128>
    77b5: 4c 3e 78     	jmp	$783e <text+0x1ae>
    77b8: 18           	clc
    77b9: a5 4a        	lda	$4a                     ; 0x204a <__after_main+0x2>
    77bb: 69 06        	adc	#$6
    77bd: 80 03        	bra	$77c2 <text+0x132>
    77bf: 18           	clc
    77c0: 69 02        	adc	#$2
    77c2: aa           	tax
    77c3: a5 4b        	lda	$4b                     ; 0x204b <_fini>
    77c5: 69 00        	adc	#$0
    77c7: 85 4b        	sta	$4b                     ; 0x204b <_fini>
    77c9: 8a           	txa
    77ca: a6 4c        	ldx	$4c                     ; 0x204c <_fini+0x1>
    77cc: e8           	inx
    77cd: d0 02        	bne	$77d1 <text+0x141>
    77cf: e6 48        	inc	$48                     ; 0x2048 <__after_main>
    77d1: 86 4c        	stx	$4c                     ; 0x204c <_fini+0x1>
    77d3: 4c 9d 76     	jmp	$769d <text+0xd>
    77d6: a5 4a        	lda	$4a                     ; 0x204a <__after_main+0x2>
    77d8: a6 4c        	ldx	$4c                     ; 0x204c <_fini+0x1>
    77da: e4 49        	cpx	$49                     ; 0x2049 <__after_main+0x1>
    77dc: d0 e1        	bne	$77bf <text+0x12f>
    77de: 60           	rts
    77df: a5 4a        	lda	$4a                     ; 0x204a <__after_main+0x2>
    77e1: 80 dc        	bra	$77bf <text+0x12f>
    77e3: a4 4c        	ldy	$4c                     ; 0x204c <_fini+0x1>
    77e5: c4 49        	cpy	$49                     ; 0x2049 <__after_main+0x1>
    77e7: f0 03        	beq	$77ec <text+0x15c>
    77e9: 4c e2 76     	jmp	$76e2 <text+0x52>
    77ec: 86 4e        	stx	$4e                     ; 0x204e <_fini+0x3>
    77ee: 64 04        	stz	$4                      ; 0x2004 <__heap_default_limit+0x1004>
    77f0: a6 4a        	ldx	$4a                     ; 0x204a <__after_main+0x2>
    77f2: a5 4a        	lda	$4a                     ; 0x204a <__after_main+0x2>
    77f4: 86 53        	stx	$53                     ; 0x2053 <_fini+0x8>
    77f6: a6 4b        	ldx	$4b                     ; 0x204b <_fini>
    77f8: a4 4b        	ldy	$4b                     ; 0x204b <_fini>
    77fa: 84 52        	sty	$52                     ; 0x2052 <_fini+0x7>
    77fc: 1a           	inc
    77fd: d0 01        	bne	$7800 <text+0x170>
    77ff: e8           	inx
    7800: 20 1c 76     	jsr	$761c <blockreadbyte>
    7803: 85 4f        	sta	$4f                     ; 0x204f <_fini+0x4>
    7805: 18           	clc
    7806: a6 53        	ldx	$53                     ; 0x2053 <_fini+0x8>
    7808: 8a           	txa
    7809: 69 02        	adc	#$2
    780b: a8           	tay
    780c: a5 52        	lda	$52                     ; 0x2052 <_fini+0x7>
    780e: 69 00        	adc	#$0
    7810: 64 04        	stz	$4                      ; 0x2004 <__heap_default_limit+0x1004>
    7812: aa           	tax
    7813: 98           	tya
    7814: 20 1c 76     	jsr	$761c <blockreadbyte>
    7817: a6 4f        	ldx	$4f                     ; 0x204f <_fini+0x4>
    7819: 86 32        	stx	$32                     ; 0x2032 <__do_init_stack+0x3>
    781b: 85 33        	sta	$33                     ; 0x2033 <__do_init_stack+0x4>
    781d: a6 4e        	ldx	$4e                     ; 0x204e <_fini+0x3>
    781f: 4c e2 76     	jmp	$76e2 <text+0x52>
    7822: e6 4b        	inc	$4b                     ; 0x204b <_fini>
    7824: 4c a6 77     	jmp	$77a6 <text+0x116>
    7827: a6 4c        	ldx	$4c                     ; 0x204c <_fini+0x1>
    7829: e4 49        	cpx	$49                     ; 0x2049 <__after_main+0x1>
    782b: f0 03        	beq	$7830 <text+0x1a0>
    782d: 4c ca 77     	jmp	$77ca <text+0x13a>
    7830: a6 4e        	ldx	$4e                     ; 0x204e <_fini+0x3>
    7832: 86 49        	stx	$49                     ; 0x2049 <__after_main+0x1>
    7834: a6 4d        	ldx	$4d                     ; 0x204d <_fini+0x2>
    7836: f0 03        	beq	$783b <text+0x1ab>
    7838: 4c ca 77     	jmp	$77ca <text+0x13a>
    783b: 4c de 77     	jmp	$77de <text+0x14e>
    783e: a5 4c        	lda	$4c                     ; 0x204c <_fini+0x1>
    7840: c5 49        	cmp	$49                     ; 0x2049 <__after_main+0x1>
    7842: f0 03        	beq	$7847 <text+0x1b7>
    7844: 4c b8 77     	jmp	$77b8 <text+0x128>
    7847: a5 4a        	lda	$4a                     ; 0x204a <__after_main+0x2>
    7849: 86 4e        	stx	$4e                     ; 0x204e <_fini+0x3>
    784b: a6 4b        	ldx	$4b                     ; 0x204b <_fini>
    784d: 1a           	inc
    784e: d0 01        	bne	$7851 <text+0x1c1>
    7850: e8           	inx
    7851: 64 04        	stz	$4                      ; 0x2004 <__heap_default_limit+0x1004>
    7853: 20 1c 76     	jsr	$761c <blockreadbyte>
    7856: 85 4f        	sta	$4f                     ; 0x204f <_fini+0x4>
    7858: 18           	clc
    7859: a5 4a        	lda	$4a                     ; 0x204a <__after_main+0x2>
    785b: 69 02        	adc	#$2
    785d: a8           	tay
    785e: a5 4b        	lda	$4b                     ; 0x204b <_fini>
    7860: 69 00        	adc	#$0
    7862: 64 04        	stz	$4                      ; 0x2004 <__heap_default_limit+0x1004>
    7864: aa           	tax
    7865: 98           	tya
    7866: 20 1c 76     	jsr	$761c <blockreadbyte>
    7869: 85 50        	sta	$50                     ; 0x2050 <_fini+0x5>
    786b: 18           	clc
    786c: a5 4a        	lda	$4a                     ; 0x204a <__after_main+0x2>
    786e: 69 03        	adc	#$3
    7870: a8           	tay
    7871: a5 4b        	lda	$4b                     ; 0x204b <_fini>
    7873: 69 00        	adc	#$0
    7875: 64 04        	stz	$4                      ; 0x2004 <__heap_default_limit+0x1004>
    7877: aa           	tax
    7878: 98           	tya
    7879: 20 1c 76     	jsr	$761c <blockreadbyte>
    787c: 85 51        	sta	$51                     ; 0x2051 <_fini+0x6>
    787e: 18           	clc
    787f: a5 4a        	lda	$4a                     ; 0x204a <__after_main+0x2>
    7881: 69 04        	adc	#$4
    7883: a8           	tay
    7884: a5 4b        	lda	$4b                     ; 0x204b <_fini>
    7886: 69 00        	adc	#$0
    7888: 64 04        	stz	$4                      ; 0x2004 <__heap_default_limit+0x1004>
    788a: aa           	tax
    788b: 98           	tya
    788c: 20 1c 76     	jsr	$761c <blockreadbyte>
    788f: 85 05        	sta	$5                      ; 0x2005 <__heap_default_limit+0x1005>
    7891: a6 51        	ldx	$51                     ; 0x2051 <_fini+0x6>
    7893: 86 04        	stx	$4                      ; 0x2004 <__heap_default_limit+0x1004>
    7895: a2 01        	ldx	#$1
    7897: 86 06        	stx	$6                      ; 0x2006 <__heap_default_limit+0x1006>
    7899: a6 50        	ldx	$50                     ; 0x2050 <_fini+0x5>
    789b: a5 4f        	lda	$4f                     ; 0x204f <_fini+0x4>
    789d: 20 2a 3b     	jsr	$3b2a <mcbox>
    78a0: a0 00        	ldy	#$0
    78a2: a6 4e        	ldx	$4e                     ; 0x204e <_fini+0x3>
    78a4: 86 49        	stx	$49                     ; 0x2049 <__after_main+0x1>
    78a6: a6 4d        	ldx	$4d                     ; 0x204d <_fini+0x2>
    78a8: d0 03        	bne	$78ad <text+0x21d>
    78aa: 4c de 77     	jmp	$77de <text+0x14e>
    78ad: a5 4a        	lda	$4a                     ; 0x204a <__after_main+0x2>
    78af: 18           	clc
    78b0: 4c bb 77     	jmp	$77bb <text+0x12b>
    78b3: aa           	tax
    78b4: d0 12        	bne	$78c8 <text+0x238>
    78b6: a2 e2        	ldx	#$e2
    78b8: 86 04        	stx	$4                      ; 0x2004 <__heap_default_limit+0x1004>
    78ba: a2 86        	ldx	#$86
    78bc: 86 05        	stx	$5                      ; 0x2005 <__heap_default_limit+0x1005>
    78be: 64 06        	stz	$6                      ; 0x2006 <__heap_default_limit+0x1006>
    78c0: 64 07        	stz	$7                      ; 0x2007 <__heap_default_limit+0x1007>
    78c2: a2 00        	ldx	#$0
    78c4: a5 49        	lda	$49                     ; 0x2049 <__after_main+0x1>
    78c6: 80 2a        	bra	$78f2 <text+0x262>
    78c8: 64 04        	stz	$4                      ; 0x2004 <__heap_default_limit+0x1004>
    78ca: a6 4b        	ldx	$4b                     ; 0x204b <_fini>
    78cc: a5 4a        	lda	$4a                     ; 0x204a <__after_main+0x2>
    78ce: 20 1c 76     	jsr	$761c <blockreadbyte>
    78d1: a2 6d        	ldx	#$6d
    78d3: 86 04        	stx	$4                      ; 0x2004 <__heap_default_limit+0x1004>
    78d5: a2 88        	ldx	#$88
    78d7: 86 05        	stx	$5                      ; 0x2005 <__heap_default_limit+0x1005>
    78d9: 64 06        	stz	$6                      ; 0x2006 <__heap_default_limit+0x1006>
    78db: 64 07        	stz	$7                      ; 0x2007 <__heap_default_limit+0x1007>
    78dd: a2 00        	ldx	#$0
    78df: 20 e9 3a     	jsr	$3ae9 <mprintf>
    78e2: a2 f7        	ldx	#$f7
    78e4: 86 04        	stx	$4                      ; 0x2004 <__heap_default_limit+0x1004>
    78e6: a2 8c        	ldx	#$8c
    78e8: 86 05        	stx	$5                      ; 0x2005 <__heap_default_limit+0x1005>
    78ea: 64 06        	stz	$6                      ; 0x2006 <__heap_default_limit+0x1006>
    78ec: 64 07        	stz	$7                      ; 0x2007 <__heap_default_limit+0x1007>
    78ee: a6 4b        	ldx	$4b                     ; 0x204b <_fini>
    78f0: a5 4a        	lda	$4a                     ; 0x204a <__after_main+0x2>
    78f2: 20 e9 3a     	jsr	$3ae9 <mprintf>
    78f5: 20 97 7b     	jsr	$7b97 <cgetc>
    78f8: 60           	rts

000078f9 <sidbong>:
    78f9: a2 1f        	ldx	#$1f
    78fb: 8e 02 d4     	stx	$d402                   ; 0xd402 <__heap_start+0x4486>
    78fe: 64 05        	stz	$5                      ; 0x2005 <__heap_default_limit+0x1005>
    7900: 9c 03 d4     	stz	$d403                   ; 0xd403 <__heap_start+0x4487>
    7903: a9 09        	lda	#$9
    7905: 8d 05 d4     	sta	$d405                   ; 0xd405 <__heap_start+0x4489>
    7908: a0 25        	ldy	#$25
    790a: 8c 00 d4     	sty	$d400                   ; 0xd400 <__heap_start+0x4484>
    790d: a0 11        	ldy	#$11
    790f: 8c 01 d4     	sty	$d401                   ; 0xd401 <__heap_start+0x4485>
    7912: 8c 04 d4     	sty	$d404                   ; 0xd404 <__heap_start+0x4488>
    7915: 8e 42 d4     	stx	$d442                   ; 0xd442 <__heap_start+0x44c6>
    7918: 9c 43 d4     	stz	$d443                   ; 0xd443 <__heap_start+0x44c7>
    791b: 8d 45 d4     	sta	$d445                   ; 0xd445 <__heap_start+0x44c9>
    791e: a2 9a        	ldx	#$9a
    7920: 8e 40 d4     	stx	$d440                   ; 0xd440 <__heap_start+0x44c4>
    7923: a2 15        	ldx	#$15
    7925: 8e 41 d4     	stx	$d441                   ; 0xd441 <__heap_start+0x44c5>
    7928: 8c 44 d4     	sty	$d444                   ; 0xd444 <__heap_start+0x44c8>
    792b: a9 40        	lda	#$40
    792d: a2 0d        	ldx	#$d
    792f: a0 03        	ldy	#$3
    7931: 84 04        	sty	$4                      ; 0x2004 <__heap_default_limit+0x1004>
    7933: 20 7e 7c     	jsr	$7c7e <usleep>
    7936: a2 10        	ldx	#$10
    7938: 8e 04 d4     	stx	$d404                   ; 0xd404 <__heap_start+0x4488>
    793b: 8e 44 d4     	stx	$d444                   ; 0xd444 <__heap_start+0x44c8>
    793e: 60           	rts

0000793f <flushkeybuf>:
    793f: 80 03        	bra	$7944 <flushkeybuf+0x5>
    7941: 9c 10 d6     	stz	$d610                   ; 0xd610 <__heap_start+0x4694>
    7944: ae 10 d6     	ldx	$d610                   ; 0xd610 <__heap_start+0x4694>
    7947: d0 f8        	bne	$7941 <flushkeybuf+0x2>
    7949: 60           	rts

0000794a <petsciitoscreencode>:
    794a: c9 40        	cmp	#$40
    794c: 90 12        	bcc	$7960 <petsciitoscreencode+0x16>
    794e: c9 60        	cmp	#$60
    7950: b0 04        	bcs	$7956 <petsciitoscreencode+0xc>
    7952: 18           	clc
    7953: 69 c0        	adc	#$c0
    7955: 60           	rts
    7956: c9 c0        	cmp	#$c0
    7958: 90 03        	bcc	$795d <petsciitoscreencode+0x13>
    795a: 29 7f        	and	#$7f
    795c: 60           	rts
    795d: 18           	clc
    795e: 69 e0        	adc	#$e0
    7960: 60           	rts

00007961 <cputc>:
    7961: 85 04        	sta	$4                      ; 0x2004 <__heap_default_limit+0x1004>
    7963: a5 32        	lda	$32                     ; 0x2032 <__do_init_stack+0x3>
    7965: a6 33        	ldx	$33                     ; 0x2033 <__do_init_stack+0x4>
    7967: 4c 6a 79     	jmp	$796a <cputcxy>

0000796a <cputcxy>:
    796a: 85 72        	sta	$72                     ; 0x2072 <lpstore+0x18>
    796c: a4 04        	ldy	$4                      ; 0x2004 <__heap_default_limit+0x1004>
    796e: 84 73        	sty	$73                     ; 0x2073 <lpstore+0x19>
    7970: a5 30        	lda	$30                     ; 0x2030 <__do_init_stack+0x1>
    7972: 86 71        	stx	$71                     ; 0x2071 <lpstore+0x17>
    7974: 86 04        	stx	$4                      ; 0x2004 <__heap_default_limit+0x1004>
    7976: 64 05        	stz	$5                      ; 0x2005 <__heap_default_limit+0x1005>
    7978: a2 00        	ldx	#$0
    797a: 64 6f        	stz	$6f                     ; 0x206f <lpstore+0x15>
    797c: 20 50 7e     	jsr	$7e50 <__mulhi3>
    797f: 18           	clc
    7980: 65 72        	adc	$72                     ; 0x2072 <lpstore+0x18>
    7982: 85 70        	sta	$70                     ; 0x2070 <lpstore+0x16>
    7984: 8a           	txa
    7985: 69 00        	adc	#$0
    7987: 85 6e        	sta	$6e                     ; 0x206e <lpstore+0x14>
    7989: ad 63 d0     	lda	$d063                   ; 0xd063 <__heap_start+0x40e7>
    798c: 29 07        	and	#$7
    798e: a8           	tay
    798f: ae 62 d0     	ldx	$d062                   ; 0xd062 <__heap_start+0x40e6>
    7992: 86 06        	stx	$6                      ; 0x2006 <__heap_default_limit+0x1006>
    7994: ae 61 d0     	ldx	$d061                   ; 0xd061 <__heap_start+0x40e5>
    7997: 86 04        	stx	$4                      ; 0x2004 <__heap_default_limit+0x1004>
    7999: ae 60 d0     	ldx	$d060                   ; 0xd060 <__heap_start+0x40e4>
    799c: 86 05        	stx	$5                      ; 0x2005 <__heap_default_limit+0x1005>
    799e: a5 70        	lda	$70                     ; 0x2070 <lpstore+0x16>
    79a0: 18           	clc
    79a1: 69 00        	adc	#$0
    79a3: aa           	tax
    79a4: a5 6e        	lda	$6e                     ; 0x206e <lpstore+0x14>
    79a6: 65 04        	adc	$4                      ; 0x2004 <__heap_default_limit+0x1004>
    79a8: 85 07        	sta	$7                      ; 0x2007 <__heap_default_limit+0x1007>
    79aa: a5 06        	lda	$6                      ; 0x2006 <__heap_default_limit+0x1006>
    79ac: 69 00        	adc	#$0
    79ae: 85 04        	sta	$4                      ; 0x2004 <__heap_default_limit+0x1004>
    79b0: 98           	tya
    79b1: 69 00        	adc	#$0
    79b3: 85 06        	sta	$6                      ; 0x2006 <__heap_default_limit+0x1006>
    79b5: 8a           	txa
    79b6: 18           	clc
    79b7: 65 05        	adc	$5                      ; 0x2005 <__heap_default_limit+0x1005>
    79b9: a8           	tay
    79ba: a5 07        	lda	$7                      ; 0x2007 <__heap_default_limit+0x1007>
    79bc: 69 00        	adc	#$0
    79be: 85 07        	sta	$7                      ; 0x2007 <__heap_default_limit+0x1007>
    79c0: a5 04        	lda	$4                      ; 0x2004 <__heap_default_limit+0x1004>
    79c2: 69 00        	adc	#$0
    79c4: 85 04        	sta	$4                      ; 0x2004 <__heap_default_limit+0x1004>
    79c6: a5 06        	lda	$6                      ; 0x2006 <__heap_default_limit+0x1006>
    79c8: 69 00        	adc	#$0
    79ca: 85 05        	sta	$5                      ; 0x2005 <__heap_default_limit+0x1005>
    79cc: a6 73        	ldx	$73                     ; 0x2073 <lpstore+0x19>
    79ce: 86 06        	stx	$6                      ; 0x2006 <__heap_default_limit+0x1006>
    79d0: a6 07        	ldx	$7                      ; 0x2007 <__heap_default_limit+0x1007>
    79d2: 98           	tya
    79d3: 20 90 20     	jsr	$2090 <lpoke>
    79d6: a6 2b        	ldx	$2b                     ; 0x202b <_start+0xa>
    79d8: a0 f8        	ldy	#$f8
    79da: a9 0f        	lda	#$f
    79dc: 84 04        	sty	$4                      ; 0x2004 <__heap_default_limit+0x1004>
    79de: 85 05        	sta	$5                      ; 0x2005 <__heap_default_limit+0x1005>
    79e0: 86 06        	stx	$6                      ; 0x2006 <__heap_default_limit+0x1006>
    79e2: a6 6e        	ldx	$6e                     ; 0x206e <lpstore+0x14>
    79e4: a5 70        	lda	$70                     ; 0x2070 <lpstore+0x16>
    79e6: 20 90 20     	jsr	$2090 <lpoke>
    79e9: a6 30        	ldx	$30                     ; 0x2030 <__do_init_stack+0x1>
    79eb: ca           	dex
    79ec: e0 ff        	cpx	#$ff
    79ee: d0 02        	bne	$79f2 <cputcxy+0x88>
    79f0: c6 6f        	dec	$6f                     ; 0x206f <lpstore+0x15>
    79f2: a5 6f        	lda	$6f                     ; 0x206f <lpstore+0x15>
    79f4: d0 0b        	bne	$7a01 <cputcxy+0x97>
    79f6: e4 72        	cpx	$72                     ; 0x2072 <lpstore+0x18>
    79f8: d0 07        	bne	$7a01 <cputcxy+0x97>
    79fa: a4 71        	ldy	$71                     ; 0x2071 <lpstore+0x17>
    79fc: c8           	iny
    79fd: a2 00        	ldx	#$0
    79ff: 80 05        	bra	$7a06 <cputcxy+0x9c>
    7a01: a4 71        	ldy	$71                     ; 0x2071 <lpstore+0x17>
    7a03: a6 72        	ldx	$72                     ; 0x2072 <lpstore+0x18>
    7a05: e8           	inx
    7a06: 86 32        	stx	$32                     ; 0x2032 <__do_init_stack+0x3>
    7a08: 84 33        	sty	$33                     ; 0x2033 <__do_init_stack+0x4>
    7a0a: 60           	rts

00007a0b <cputs>:
    7a0b: a5 32        	lda	$32                     ; 0x2032 <__do_init_stack+0x3>
    7a0d: a6 33        	ldx	$33                     ; 0x2033 <__do_init_stack+0x4>
    7a0f: 4c 12 7a     	jmp	$7a12 <cputsxy>

00007a12 <cputsxy>:
    7a12: 85 8c        	sta	$8c                     ; 0x208c <lprestore+0x17>
    7a14: 86 8b        	stx	$8b                     ; 0x208b <lprestore+0x16>
    7a16: a6 04        	ldx	$4                      ; 0x2004 <__heap_default_limit+0x1004>
    7a18: 86 06        	stx	$6                      ; 0x2006 <__heap_default_limit+0x1006>
    7a1a: a6 05        	ldx	$5                      ; 0x2005 <__heap_default_limit+0x1005>
    7a1c: 86 07        	stx	$7                      ; 0x2007 <__heap_default_limit+0x1007>
    7a1e: a6 06        	ldx	$6                      ; 0x2006 <__heap_default_limit+0x1006>
    7a20: 86 89        	stx	$89                     ; 0x2089 <lprestore+0x14>
    7a22: a6 07        	ldx	$7                      ; 0x2007 <__heap_default_limit+0x1007>
    7a24: 86 8a        	stx	$8a                     ; 0x208a <lprestore+0x15>
    7a26: 20 f6 7d     	jsr	$7df6 <strlen>
    7a29: 85 88        	sta	$88                     ; 0x2088 <lprestore+0x13>
    7a2b: a5 30        	lda	$30                     ; 0x2030 <__do_init_stack+0x1>
    7a2d: a6 8b        	ldx	$8b                     ; 0x208b <lprestore+0x16>
    7a2f: 86 04        	stx	$4                      ; 0x2004 <__heap_default_limit+0x1004>
    7a31: 64 05        	stz	$5                      ; 0x2005 <__heap_default_limit+0x1005>
    7a33: a2 00        	ldx	#$0
    7a35: 20 50 7e     	jsr	$7e50 <__mulhi3>
    7a38: 86 05        	stx	$5                      ; 0x2005 <__heap_default_limit+0x1005>
    7a3a: a6 8c        	ldx	$8c                     ; 0x208c <lprestore+0x17>
    7a3c: 86 04        	stx	$4                      ; 0x2004 <__heap_default_limit+0x1004>
    7a3e: 18           	clc
    7a3f: 65 04        	adc	$4                      ; 0x2004 <__heap_default_limit+0x1004>
    7a41: a8           	tay
    7a42: 85 8e        	sta	$8e                     ; 0x208e <lprestore+0x19>
    7a44: a5 05        	lda	$5                      ; 0x2005 <__heap_default_limit+0x1005>
    7a46: 69 00        	adc	#$0
    7a48: 85 8d        	sta	$8d                     ; 0x208d <lprestore+0x18>
    7a4a: ad 63 d0     	lda	$d063                   ; 0xd063 <__heap_start+0x40e7>
    7a4d: 29 07        	and	#$7
    7a4f: 85 08        	sta	$8                      ; 0x2008 <__heap_default_limit+0x1008>
    7a51: ae 62 d0     	ldx	$d062                   ; 0xd062 <__heap_start+0x40e6>
    7a54: 86 07        	stx	$7                      ; 0x2007 <__heap_default_limit+0x1007>
    7a56: ae 61 d0     	ldx	$d061                   ; 0xd061 <__heap_start+0x40e5>
    7a59: 86 04        	stx	$4                      ; 0x2004 <__heap_default_limit+0x1004>
    7a5b: ae 60 d0     	ldx	$d060                   ; 0xd060 <__heap_start+0x40e4>
    7a5e: 86 05        	stx	$5                      ; 0x2005 <__heap_default_limit+0x1005>
    7a60: 18           	clc
    7a61: 98           	tya
    7a62: 69 00        	adc	#$0
    7a64: a8           	tay
    7a65: a6 8d        	ldx	$8d                     ; 0x208d <lprestore+0x18>
    7a67: 8a           	txa
    7a68: 65 04        	adc	$4                      ; 0x2004 <__heap_default_limit+0x1004>
    7a6a: 85 09        	sta	$9                      ; 0x2009 <__heap_default_limit+0x1009>
    7a6c: a5 07        	lda	$7                      ; 0x2007 <__heap_default_limit+0x1007>
    7a6e: 69 00        	adc	#$0
    7a70: 85 04        	sta	$4                      ; 0x2004 <__heap_default_limit+0x1004>
    7a72: a5 08        	lda	$8                      ; 0x2008 <__heap_default_limit+0x1008>
    7a74: 69 00        	adc	#$0
    7a76: aa           	tax
    7a77: 18           	clc
    7a78: 98           	tya
    7a79: 65 05        	adc	$5                      ; 0x2005 <__heap_default_limit+0x1005>
    7a7b: 85 06        	sta	$6                      ; 0x2006 <__heap_default_limit+0x1006>
    7a7d: a5 09        	lda	$9                      ; 0x2009 <__heap_default_limit+0x1009>
    7a7f: 69 00        	adc	#$0
    7a81: 85 07        	sta	$7                      ; 0x2007 <__heap_default_limit+0x1007>
    7a83: a5 04        	lda	$4                      ; 0x2004 <__heap_default_limit+0x1004>
    7a85: 69 00        	adc	#$0
    7a87: 85 08        	sta	$8                      ; 0x2008 <__heap_default_limit+0x1008>
    7a89: 8a           	txa
    7a8a: 69 00        	adc	#$0
    7a8c: 64 04        	stz	$4                      ; 0x2004 <__heap_default_limit+0x1004>
    7a8e: 64 05        	stz	$5                      ; 0x2005 <__heap_default_limit+0x1005>
    7a90: 85 09        	sta	$9                      ; 0x2009 <__heap_default_limit+0x1009>
    7a92: a6 88        	ldx	$88                     ; 0x2088 <lprestore+0x13>
    7a94: 86 0a        	stx	$a                      ; 0x200a <__heap_default_limit+0x100a>
    7a96: 64 0b        	stz	$b                      ; 0x200b <__heap_default_limit+0x100b>
    7a98: a6 89        	ldx	$89                     ; 0x2089 <lprestore+0x14>
    7a9a: 86 0c        	stx	$c                      ; 0x200c <__heap_default_limit+0x100c>
    7a9c: a6 8a        	ldx	$8a                     ; 0x208a <lprestore+0x15>
    7a9e: a5 0c        	lda	$c                      ; 0x200c <__heap_default_limit+0x100c>
    7aa0: 20 c7 7b     	jsr	$7bc7 <lcopy>
    7aa3: a6 2b        	ldx	$2b                     ; 0x202b <_start+0xa>
    7aa5: a0 f8        	ldy	#$f8
    7aa7: a9 0f        	lda	#$f
    7aa9: 84 04        	sty	$4                      ; 0x2004 <__heap_default_limit+0x1004>
    7aab: 85 05        	sta	$5                      ; 0x2005 <__heap_default_limit+0x1005>
    7aad: 86 06        	stx	$6                      ; 0x2006 <__heap_default_limit+0x1006>
    7aaf: a6 88        	ldx	$88                     ; 0x2088 <lprestore+0x13>
    7ab1: 86 07        	stx	$7                      ; 0x2007 <__heap_default_limit+0x1007>
    7ab3: 64 08        	stz	$8                      ; 0x2008 <__heap_default_limit+0x1008>
    7ab5: a6 8d        	ldx	$8d                     ; 0x208d <lprestore+0x18>
    7ab7: a5 8e        	lda	$8e                     ; 0x208e <lprestore+0x19>
    7ab9: 20 2e 7c     	jsr	$7c2e <lfill>
    7abc: a5 88        	lda	$88                     ; 0x2088 <lprestore+0x13>
    7abe: a6 8c        	ldx	$8c                     ; 0x208c <lprestore+0x17>
    7ac0: 86 04        	stx	$4                      ; 0x2004 <__heap_default_limit+0x1004>
    7ac2: 18           	clc
    7ac3: 65 04        	adc	$4                      ; 0x2004 <__heap_default_limit+0x1004>
    7ac5: 85 08        	sta	$8                      ; 0x2008 <__heap_default_limit+0x1008>
    7ac7: a9 00        	lda	#$0
    7ac9: 69 00        	adc	#$0
    7acb: a6 30        	ldx	$30                     ; 0x2030 <__do_init_stack+0x1>
    7acd: a0 86        	ldy	#$86
    7acf: 84 06        	sty	$6                      ; 0x2006 <__heap_default_limit+0x1006>
    7ad1: a0 00        	ldy	#$0
    7ad3: 84 07        	sty	$7                      ; 0x2007 <__heap_default_limit+0x1007>
    7ad5: 86 04        	stx	$4                      ; 0x2004 <__heap_default_limit+0x1004>
    7ad7: 64 05        	stz	$5                      ; 0x2005 <__heap_default_limit+0x1005>
    7ad9: aa           	tax
    7ada: a5 08        	lda	$8                      ; 0x2008 <__heap_default_limit+0x1008>
    7adc: 20 f8 7f     	jsr	$7ff8 <__udivmodhi4>
    7adf: a6 86        	ldx	$86                     ; 0x2086 <lprestore+0x11>
    7ae1: 18           	clc
    7ae2: a4 8b        	ldy	$8b                     ; 0x208b <lprestore+0x16>
    7ae4: 84 04        	sty	$4                      ; 0x2004 <__heap_default_limit+0x1004>
    7ae6: 65 04        	adc	$4                      ; 0x2004 <__heap_default_limit+0x1004>
    7ae8: 85 33        	sta	$33                     ; 0x2033 <__do_init_stack+0x4>
    7aea: 86 32        	stx	$32                     ; 0x2032 <__do_init_stack+0x3>
    7aec: 60           	rts

00007aed <fillrect>:
    7aed: a6 04        	ldx	$4                      ; 0x2004 <__heap_default_limit+0x1004>
    7aef: 86 6d        	stx	$6d                     ; 0x206d <lpstore+0x13>
    7af1: a6 05        	ldx	$5                      ; 0x2005 <__heap_default_limit+0x1005>
    7af3: 86 6e        	stx	$6e                     ; 0x206e <lpstore+0x14>
    7af5: a0 02        	ldy	#$2
    7af7: b1 04        	lda	($4),y                  ; 0x2004 <__heap_default_limit+0x1004>
    7af9: 38           	sec
    7afa: f2 04        	sbc	($4),z                  ; 0x2004 <__heap_default_limit+0x1004>
    7afc: 85 70        	sta	$70                     ; 0x2070 <lpstore+0x16>
    7afe: 88           	dey
    7aff: b1 04        	lda	($4),y                  ; 0x2004 <__heap_default_limit+0x1004>
    7b01: 85 6f        	sta	$6f                     ; 0x206f <lpstore+0x15>
    7b03: 4c 8b 7b     	jmp	$7b8b <fillrect+0x9e>
    7b06: a5 30        	lda	$30                     ; 0x2030 <__do_init_stack+0x1>
    7b08: a6 6f        	ldx	$6f                     ; 0x206f <lpstore+0x15>
    7b0a: 86 04        	stx	$4                      ; 0x2004 <__heap_default_limit+0x1004>
    7b0c: 64 05        	stz	$5                      ; 0x2005 <__heap_default_limit+0x1005>
    7b0e: a2 00        	ldx	#$0
    7b10: 20 50 7e     	jsr	$7e50 <__mulhi3>
    7b13: 18           	clc
    7b14: 72 6d        	adc	($6d),z                 ; 0x206d <lpstore+0x13>
    7b16: 85 71        	sta	$71                     ; 0x2071 <lpstore+0x17>
    7b18: 8a           	txa
    7b19: 69 00        	adc	#$0
    7b1b: 85 72        	sta	$72                     ; 0x2072 <lpstore+0x18>
    7b1d: ad 63 d0     	lda	$d063                   ; 0xd063 <__heap_start+0x40e7>
    7b20: 29 07        	and	#$7
    7b22: a8           	tay
    7b23: ae 62 d0     	ldx	$d062                   ; 0xd062 <__heap_start+0x40e6>
    7b26: 86 07        	stx	$7                      ; 0x2007 <__heap_default_limit+0x1007>
    7b28: ae 61 d0     	ldx	$d061                   ; 0xd061 <__heap_start+0x40e5>
    7b2b: 86 04        	stx	$4                      ; 0x2004 <__heap_default_limit+0x1004>
    7b2d: ae 60 d0     	ldx	$d060                   ; 0xd060 <__heap_start+0x40e4>
    7b30: 86 05        	stx	$5                      ; 0x2005 <__heap_default_limit+0x1005>
    7b32: a5 71        	lda	$71                     ; 0x2071 <lpstore+0x17>
    7b34: 18           	clc
    7b35: 69 00        	adc	#$0
    7b37: 85 06        	sta	$6                      ; 0x2006 <__heap_default_limit+0x1006>
    7b39: a5 72        	lda	$72                     ; 0x2072 <lpstore+0x18>
    7b3b: 65 04        	adc	$4                      ; 0x2004 <__heap_default_limit+0x1004>
    7b3d: 85 08        	sta	$8                      ; 0x2008 <__heap_default_limit+0x1008>
    7b3f: a5 07        	lda	$7                      ; 0x2007 <__heap_default_limit+0x1007>
    7b41: 69 00        	adc	#$0
    7b43: 85 04        	sta	$4                      ; 0x2004 <__heap_default_limit+0x1004>
    7b45: 98           	tya
    7b46: 69 00        	adc	#$0
    7b48: aa           	tax
    7b49: 18           	clc
    7b4a: a5 06        	lda	$6                      ; 0x2006 <__heap_default_limit+0x1006>
    7b4c: 65 05        	adc	$5                      ; 0x2005 <__heap_default_limit+0x1005>
    7b4e: a8           	tay
    7b4f: a5 08        	lda	$8                      ; 0x2008 <__heap_default_limit+0x1008>
    7b51: 69 00        	adc	#$0
    7b53: 85 09        	sta	$9                      ; 0x2009 <__heap_default_limit+0x1009>
    7b55: a5 04        	lda	$4                      ; 0x2004 <__heap_default_limit+0x1004>
    7b57: 69 00        	adc	#$0
    7b59: 85 04        	sta	$4                      ; 0x2004 <__heap_default_limit+0x1004>
    7b5b: 8a           	txa
    7b5c: 69 00        	adc	#$0
    7b5e: 85 05        	sta	$5                      ; 0x2005 <__heap_default_limit+0x1005>
    7b60: a2 20        	ldx	#$20
    7b62: 86 06        	stx	$6                      ; 0x2006 <__heap_default_limit+0x1006>
    7b64: a6 70        	ldx	$70                     ; 0x2070 <lpstore+0x16>
    7b66: 86 07        	stx	$7                      ; 0x2007 <__heap_default_limit+0x1007>
    7b68: 64 08        	stz	$8                      ; 0x2008 <__heap_default_limit+0x1008>
    7b6a: a6 09        	ldx	$9                      ; 0x2009 <__heap_default_limit+0x1009>
    7b6c: 98           	tya
    7b6d: 20 2e 7c     	jsr	$7c2e <lfill>
    7b70: a2 f8        	ldx	#$f8
    7b72: 86 04        	stx	$4                      ; 0x2004 <__heap_default_limit+0x1004>
    7b74: a2 0f        	ldx	#$f
    7b76: 86 05        	stx	$5                      ; 0x2005 <__heap_default_limit+0x1005>
    7b78: a2 03        	ldx	#$3
    7b7a: 86 06        	stx	$6                      ; 0x2006 <__heap_default_limit+0x1006>
    7b7c: a6 70        	ldx	$70                     ; 0x2070 <lpstore+0x16>
    7b7e: 86 07        	stx	$7                      ; 0x2007 <__heap_default_limit+0x1007>
    7b80: 64 08        	stz	$8                      ; 0x2008 <__heap_default_limit+0x1008>
    7b82: a6 72        	ldx	$72                     ; 0x2072 <lpstore+0x18>
    7b84: a5 71        	lda	$71                     ; 0x2071 <lpstore+0x17>
    7b86: 20 2e 7c     	jsr	$7c2e <lfill>
    7b89: e6 6f        	inc	$6f                     ; 0x206f <lpstore+0x15>
    7b8b: a0 03        	ldy	#$3
    7b8d: b1 6d        	lda	($6d),y                 ; 0x206d <lpstore+0x13>
    7b8f: c5 6f        	cmp	$6f                     ; 0x206f <lpstore+0x15>
    7b91: 90 03        	bcc	$7b96 <fillrect+0xa9>
    7b93: 4c 06 7b     	jmp	$7b06 <fillrect+0x19>
    7b96: 60           	rts

00007b97 <cgetc>:
    7b97: ad 10 d6     	lda	$d610                   ; 0xd610 <__heap_start+0x4694>
    7b9a: f0 fb        	beq	$7b97 <cgetc>
    7b9c: 9c 10 d6     	stz	$d610                   ; 0xd610 <__heap_start+0x4694>
    7b9f: 60           	rts

00007ba0 <do_dma>:
    7ba0: a2 00        	ldx	#$0
    7ba2: a0 34        	ldy	#$34
    7ba4: 84 04        	sty	$4                      ; 0x2004 <__heap_default_limit+0x1004>
    7ba6: a0 00        	ldy	#$0
    7ba8: 84 05        	sty	$5                      ; 0x2005 <__heap_default_limit+0x1005>
    7baa: a4 04        	ldy	$4                      ; 0x2004 <__heap_default_limit+0x1004>
    7bac: a9 47        	lda	#$47
    7bae: 8d 2f d0     	sta	$d02f                   ; 0xd02f <__heap_start+0x40b3>
    7bb1: a9 53        	lda	#$53
    7bb3: 8d 2f d0     	sta	$d02f                   ; 0xd02f <__heap_start+0x40b3>
    7bb6: a9 41        	lda	#$41
    7bb8: 85 00        	sta	$0                      ; 0x2000 <__heap_default_limit+0x1000>
    7bba: 9c 02 d7     	stz	$d702                   ; 0xd702 <__heap_start+0x4786>
    7bbd: 9c 04 d7     	stz	$d704                   ; 0xd704 <__heap_start+0x4788>
    7bc0: 8e 01 d7     	stx	$d701                   ; 0xd701 <__heap_start+0x4785>
    7bc3: 8c 05 d7     	sty	$d705                   ; 0xd705 <__heap_start+0x4789>
    7bc6: 60           	rts

00007bc7 <lcopy>:
    7bc7: 85 0c        	sta	$c                      ; 0x200c <__heap_default_limit+0x100c>
    7bc9: 86 0d        	stx	$d                      ; 0x200d <__heap_default_limit+0x100d>
    7bcb: a6 0a        	ldx	$a                      ; 0x200a <__heap_default_limit+0x100a>
    7bcd: a4 0b        	ldy	$b                      ; 0x200b <__heap_default_limit+0x100b>
    7bcf: a9 0b        	lda	#$b
    7bd1: 85 34        	sta	$34                     ; 0x2034 <__do_init_stack+0x5>
    7bd3: a9 80        	lda	#$80
    7bd5: 85 35        	sta	$35                     ; 0x2035 <__do_init_stack+0x6>
    7bd7: 46 05        	lsr	$5                      ; 0x2005 <__heap_default_limit+0x1005>
    7bd9: a5 04        	lda	$4                      ; 0x2004 <__heap_default_limit+0x1004>
    7bdb: 6a           	ror
    7bdc: 46 05        	lsr	$5                      ; 0x2005 <__heap_default_limit+0x1005>
    7bde: 6a           	ror
    7bdf: 46 05        	lsr	$5                      ; 0x2005 <__heap_default_limit+0x1005>
    7be1: 6a           	ror
    7be2: 46 05        	lsr	$5                      ; 0x2005 <__heap_default_limit+0x1005>
    7be4: 6a           	ror
    7be5: 85 36        	sta	$36                     ; 0x2036 <__do_init_stack+0x7>
    7be7: a9 81        	lda	#$81
    7be9: 85 37        	sta	$37                     ; 0x2037 <__do_zero_bss>
    7beb: 46 09        	lsr	$9                      ; 0x2009 <__heap_default_limit+0x1009>
    7bed: a5 08        	lda	$8                      ; 0x2008 <__heap_default_limit+0x1008>
    7bef: 6a           	ror
    7bf0: 46 09        	lsr	$9                      ; 0x2009 <__heap_default_limit+0x1009>
    7bf2: 6a           	ror
    7bf3: 46 09        	lsr	$9                      ; 0x2009 <__heap_default_limit+0x1009>
    7bf5: 6a           	ror
    7bf6: 46 09        	lsr	$9                      ; 0x2009 <__heap_default_limit+0x1009>
    7bf8: 6a           	ror
    7bf9: 85 38        	sta	$38                     ; 0x2038 <__do_zero_bss+0x1>
    7bfb: a9 85        	lda	#$85
    7bfd: 85 39        	sta	$39                     ; 0x2039 <__do_zero_bss+0x2>
    7bff: a9 01        	lda	#$1
    7c01: 85 3a        	sta	$3a                     ; 0x203a <__do_zero_zp_bss>
    7c03: 64 3b        	stz	$3b                     ; 0x203b <__do_zero_zp_bss+0x1>
    7c05: 64 45        	stz	$45                     ; 0x2045 <shift+0x5>
    7c07: 64 3c        	stz	$3c                     ; 0x203c <__do_zero_zp_bss+0x2>
    7c09: 86 3d        	stx	$3d                     ; 0x203d <__do_copy_zp_data>
    7c0b: 84 3e        	sty	$3e                     ; 0x203e <__do_copy_zp_data+0x1>
    7c0d: 64 45        	stz	$45                     ; 0x2045 <shift+0x5>
    7c0f: a6 0c        	ldx	$c                      ; 0x200c <__heap_default_limit+0x100c>
    7c11: 86 3f        	stx	$3f                     ; 0x203f <__do_copy_zp_data+0x2>
    7c13: a6 0d        	ldx	$d                      ; 0x200d <__heap_default_limit+0x100d>
    7c15: 86 40        	stx	$40                     ; 0x2040 <shift>
    7c17: a5 04        	lda	$4                      ; 0x2004 <__heap_default_limit+0x1004>
    7c19: 29 0f        	and	#$f
    7c1b: 85 41        	sta	$41                     ; 0x2041 <shift+0x1>
    7c1d: a6 06        	ldx	$6                      ; 0x2006 <__heap_default_limit+0x1006>
    7c1f: 86 42        	stx	$42                     ; 0x2042 <shift+0x2>
    7c21: a6 07        	ldx	$7                      ; 0x2007 <__heap_default_limit+0x1007>
    7c23: 86 43        	stx	$43                     ; 0x2043 <shift+0x3>
    7c25: a5 08        	lda	$8                      ; 0x2008 <__heap_default_limit+0x1008>
    7c27: 29 0f        	and	#$f
    7c29: 85 44        	sta	$44                     ; 0x2044 <shift+0x4>
    7c2b: 4c a0 7b     	jmp	$7ba0 <do_dma>

00007c2e <lfill>:
    7c2e: 85 09        	sta	$9                      ; 0x2009 <__heap_default_limit+0x1009>
    7c30: 86 0a        	stx	$a                      ; 0x200a <__heap_default_limit+0x100a>
    7c32: a6 07        	ldx	$7                      ; 0x2007 <__heap_default_limit+0x1007>
    7c34: a4 08        	ldy	$8                      ; 0x2008 <__heap_default_limit+0x1008>
    7c36: a9 0b        	lda	#$b
    7c38: 85 34        	sta	$34                     ; 0x2034 <__do_init_stack+0x5>
    7c3a: a9 80        	lda	#$80
    7c3c: 85 35        	sta	$35                     ; 0x2035 <__do_init_stack+0x6>
    7c3e: 64 36        	stz	$36                     ; 0x2036 <__do_init_stack+0x7>
    7c40: 1a           	inc
    7c41: 85 37        	sta	$37                     ; 0x2037 <__do_zero_bss>
    7c43: 46 05        	lsr	$5                      ; 0x2005 <__heap_default_limit+0x1005>
    7c45: a5 04        	lda	$4                      ; 0x2004 <__heap_default_limit+0x1004>
    7c47: 6a           	ror
    7c48: 46 05        	lsr	$5                      ; 0x2005 <__heap_default_limit+0x1005>
    7c4a: 6a           	ror
    7c4b: 46 05        	lsr	$5                      ; 0x2005 <__heap_default_limit+0x1005>
    7c4d: 6a           	ror
    7c4e: 46 05        	lsr	$5                      ; 0x2005 <__heap_default_limit+0x1005>
    7c50: 6a           	ror
    7c51: 85 38        	sta	$38                     ; 0x2038 <__do_zero_bss+0x1>
    7c53: a9 85        	lda	#$85
    7c55: 85 39        	sta	$39                     ; 0x2039 <__do_zero_bss+0x2>
    7c57: a9 01        	lda	#$1
    7c59: 85 3a        	sta	$3a                     ; 0x203a <__do_zero_zp_bss>
    7c5b: 64 3b        	stz	$3b                     ; 0x203b <__do_zero_zp_bss+0x1>
    7c5d: a9 03        	lda	#$3
    7c5f: 85 3c        	sta	$3c                     ; 0x203c <__do_zero_zp_bss+0x2>
    7c61: 64 45        	stz	$45                     ; 0x2045 <shift+0x5>
    7c63: 86 3d        	stx	$3d                     ; 0x203d <__do_copy_zp_data>
    7c65: 84 3e        	sty	$3e                     ; 0x203e <__do_copy_zp_data+0x1>
    7c67: a6 06        	ldx	$6                      ; 0x2006 <__heap_default_limit+0x1006>
    7c69: 86 3f        	stx	$3f                     ; 0x203f <__do_copy_zp_data+0x2>
    7c6b: 64 40        	stz	$40                     ; 0x2040 <shift>
    7c6d: a6 09        	ldx	$9                      ; 0x2009 <__heap_default_limit+0x1009>
    7c6f: 86 42        	stx	$42                     ; 0x2042 <shift+0x2>
    7c71: a6 0a        	ldx	$a                      ; 0x200a <__heap_default_limit+0x100a>
    7c73: 86 43        	stx	$43                     ; 0x2043 <shift+0x3>
    7c75: a5 04        	lda	$4                      ; 0x2004 <__heap_default_limit+0x1004>
    7c77: 29 0f        	and	#$f
    7c79: 85 44        	sta	$44                     ; 0x2044 <shift+0x4>
    7c7b: 4c a0 7b     	jmp	$7ba0 <do_dma>

00007c7e <usleep>:
    7c7e: a8           	tay
    7c7f: 86 06        	stx	$6                      ; 0x2006 <__heap_default_limit+0x1006>
    7c81: a5 05        	lda	$5                      ; 0x2005 <__heap_default_limit+0x1005>
    7c83: 4c ba 7c     	jmp	$7cba <usleep+0x3c>
    7c86: a6 04        	ldx	$4                      ; 0x2004 <__heap_default_limit+0x1004>
    7c88: 80 02        	bra	$7c8c <usleep+0xe>
    7c8a: a6 06        	ldx	$6                      ; 0x2006 <__heap_default_limit+0x1006>
    7c8c: e0 00        	cpx	#$0
    7c8e: b0 03        	bcs	$7c93 <usleep+0x15>
    7c90: 4c d9 7c     	jmp	$7cd9 <usleep+0x5b>
    7c93: 85 07        	sta	$7                      ; 0x2007 <__heap_default_limit+0x1007>
    7c95: a6 06        	ldx	$6                      ; 0x2006 <__heap_default_limit+0x1006>
    7c97: 86 05        	stx	$5                      ; 0x2005 <__heap_default_limit+0x1005>
    7c99: ae 12 d0     	ldx	$d012                   ; 0xd012 <__heap_start+0x4096>
    7c9c: 86 06        	stx	$6                      ; 0x2006 <__heap_default_limit+0x1006>
    7c9e: ae 12 d0     	ldx	$d012                   ; 0xd012 <__heap_start+0x4096>
    7ca1: e4 06        	cpx	$6                      ; 0x2006 <__heap_default_limit+0x1006>
    7ca3: f0 f9        	beq	$7c9e <usleep+0x20>
    7ca5: 18           	clc
    7ca6: 98           	tya
    7ca7: 69 c0        	adc	#$c0
    7ca9: a8           	tay
    7caa: a5 05        	lda	$5                      ; 0x2005 <__heap_default_limit+0x1005>
    7cac: 69 ff        	adc	#$ff
    7cae: 85 06        	sta	$6                      ; 0x2006 <__heap_default_limit+0x1006>
    7cb0: a5 04        	lda	$4                      ; 0x2004 <__heap_default_limit+0x1004>
    7cb2: 69 ff        	adc	#$ff
    7cb4: 85 04        	sta	$4                      ; 0x2004 <__heap_default_limit+0x1004>
    7cb6: a5 07        	lda	$7                      ; 0x2007 <__heap_default_limit+0x1007>
    7cb8: 69 ff        	adc	#$ff
    7cba: aa           	tax
    7cbb: d0 15        	bne	$7cd2 <usleep+0x54>
    7cbd: a6 04        	ldx	$4                      ; 0x2004 <__heap_default_limit+0x1004>
    7cbf: f0 03        	beq	$7cc4 <usleep+0x46>
    7cc1: 4c 86 7c     	jmp	$7c86 <usleep+0x8>
    7cc4: a6 06        	ldx	$6                      ; 0x2006 <__heap_default_limit+0x1006>
    7cc6: f0 03        	beq	$7ccb <usleep+0x4d>
    7cc8: 4c 8a 7c     	jmp	$7c8a <usleep+0xc>
    7ccb: c0 41        	cpy	#$41
    7ccd: 90 0a        	bcc	$7cd9 <usleep+0x5b>
    7ccf: 4c 93 7c     	jmp	$7c93 <usleep+0x15>
    7cd2: c9 00        	cmp	#$0
    7cd4: 90 03        	bcc	$7cd9 <usleep+0x5b>
    7cd6: 4c 93 7c     	jmp	$7c93 <usleep+0x15>
    7cd9: 60           	rts

00007cda <exit>:
    7cda: 20 4b 20     	jsr	$204b <_fini>
    7cdd: 80 fe        	bra	$7cdd <exit+0x3>

00007cdf <atoi>:
    7cdf: b2 04        	lda	($4),z                  ; 0x2004 <__heap_default_limit+0x1004>
    7ce1: a8           	tay
    7ce2: 38           	sec
    7ce3: e9 09        	sbc	#$9
    7ce5: c9 05        	cmp	#$5
    7ce7: b0 08        	bcs	$7cf1 <atoi+0x12>
    7ce9: e6 04        	inc	$4                      ; 0x2004 <__heap_default_limit+0x1004>
    7ceb: d0 02        	bne	$7cef <atoi+0x10>
    7ced: e6 05        	inc	$5                      ; 0x2005 <__heap_default_limit+0x1005>
    7cef: 80 ee        	bra	$7cdf <atoi>
    7cf1: c0 20        	cpy	#$20
    7cf3: f0 f4        	beq	$7ce9 <atoi+0xa>
    7cf5: a6 04        	ldx	$4                      ; 0x2004 <__heap_default_limit+0x1004>
    7cf7: 86 06        	stx	$6                      ; 0x2006 <__heap_default_limit+0x1006>
    7cf9: a6 05        	ldx	$5                      ; 0x2005 <__heap_default_limit+0x1005>
    7cfb: 86 07        	stx	$7                      ; 0x2007 <__heap_default_limit+0x1007>
    7cfd: e6 06        	inc	$6                      ; 0x2006 <__heap_default_limit+0x1006>
    7cff: d0 02        	bne	$7d03 <atoi+0x24>
    7d01: e6 07        	inc	$7                      ; 0x2007 <__heap_default_limit+0x1007>
    7d03: c0 2d        	cpy	#$2d
    7d05: f0 10        	beq	$7d17 <atoi+0x38>
    7d07: a2 00        	ldx	#$0
    7d09: c0 2b        	cpy	#$2b
    7d0b: f0 0c        	beq	$7d19 <atoi+0x3a>
    7d0d: a4 04        	ldy	$4                      ; 0x2004 <__heap_default_limit+0x1004>
    7d0f: 84 06        	sty	$6                      ; 0x2006 <__heap_default_limit+0x1006>
    7d11: a4 05        	ldy	$5                      ; 0x2005 <__heap_default_limit+0x1005>
    7d13: 84 07        	sty	$7                      ; 0x2007 <__heap_default_limit+0x1007>
    7d15: 80 02        	bra	$7d19 <atoi+0x3a>
    7d17: a2 01        	ldx	#$1
    7d19: a9 d0        	lda	#$d0
    7d1b: 18           	clc
    7d1c: 72 06        	adc	($6),z                  ; 0x2006 <__heap_default_limit+0x1006>
    7d1e: c9 0a        	cmp	#$a
    7d20: 64 0a        	stz	$a                      ; 0x200a <__heap_default_limit+0x100a>
    7d22: 64 0b        	stz	$b                      ; 0x200b <__heap_default_limit+0x100b>
    7d24: 90 03        	bcc	$7d29 <atoi+0x4a>
    7d26: 4c a3 7d     	jmp	$7da3 <atoi+0xc4>
    7d29: b2 06        	lda	($6),z                  ; 0x2006 <__heap_default_limit+0x1006>
    7d2b: 64 08        	stz	$8                      ; 0x2008 <__heap_default_limit+0x1008>
    7d2d: 64 0c        	stz	$c                      ; 0x200c <__heap_default_limit+0x100c>
    7d2f: a0 01        	ldy	#$1
    7d31: 85 09        	sta	$9                      ; 0x2009 <__heap_default_limit+0x1009>
    7d33: a9 00        	lda	#$0
    7d35: 5a           	phy
    7d36: a4 06        	ldy	$6                      ; 0x2006 <__heap_default_limit+0x1006>
    7d38: 84 04        	sty	$4                      ; 0x2004 <__heap_default_limit+0x1004>
    7d3a: a4 07        	ldy	$7                      ; 0x2007 <__heap_default_limit+0x1007>
    7d3c: 84 05        	sty	$5                      ; 0x2005 <__heap_default_limit+0x1005>
    7d3e: 7a           	ply
    7d3f: 5a           	phy
    7d40: a4 0c        	ldy	$c                      ; 0x200c <__heap_default_limit+0x100c>
    7d42: 84 0a        	sty	$a                      ; 0x200a <__heap_default_limit+0x100a>
    7d44: 7a           	ply
    7d45: 06 0a        	asl	$a                      ; 0x200a <__heap_default_limit+0x100a>
    7d47: 85 0b        	sta	$b                      ; 0x200b <__heap_default_limit+0x100b>
    7d49: 26 0b        	rol	$b                      ; 0x200b <__heap_default_limit+0x100b>
    7d4b: a5 0a        	lda	$a                      ; 0x200a <__heap_default_limit+0x100a>
    7d4d: 0a           	asl
    7d4e: 85 0c        	sta	$c                      ; 0x200c <__heap_default_limit+0x100c>
    7d50: a5 0b        	lda	$b                      ; 0x200b <__heap_default_limit+0x100b>
    7d52: 2a           	rol
    7d53: 06 0c        	asl	$c                      ; 0x200c <__heap_default_limit+0x100c>
    7d55: 2a           	rol
    7d56: 85 0d        	sta	$d                      ; 0x200d <__heap_default_limit+0x100d>
    7d58: a5 0c        	lda	$c                      ; 0x200c <__heap_default_limit+0x100c>
    7d5a: 18           	clc
    7d5b: 65 0a        	adc	$a                      ; 0x200a <__heap_default_limit+0x100a>
    7d5d: 85 0a        	sta	$a                      ; 0x200a <__heap_default_limit+0x100a>
    7d5f: a5 0d        	lda	$d                      ; 0x200d <__heap_default_limit+0x100d>
    7d61: 65 0b        	adc	$b                      ; 0x200b <__heap_default_limit+0x100b>
    7d63: 85 0b        	sta	$b                      ; 0x200b <__heap_default_limit+0x100b>
    7d65: a5 0a        	lda	$a                      ; 0x200a <__heap_default_limit+0x100a>
    7d67: 18           	clc
    7d68: 65 09        	adc	$9                      ; 0x2009 <__heap_default_limit+0x1009>
    7d6a: 85 09        	sta	$9                      ; 0x2009 <__heap_default_limit+0x1009>
    7d6c: a5 0b        	lda	$b                      ; 0x200b <__heap_default_limit+0x100b>
    7d6e: 65 08        	adc	$8                      ; 0x2008 <__heap_default_limit+0x1008>
    7d70: 85 08        	sta	$8                      ; 0x2008 <__heap_default_limit+0x1008>
    7d72: 18           	clc
    7d73: a5 09        	lda	$9                      ; 0x2009 <__heap_default_limit+0x1009>
    7d75: 69 d0        	adc	#$d0
    7d77: 85 0a        	sta	$a                      ; 0x200a <__heap_default_limit+0x100a>
    7d79: a5 08        	lda	$8                      ; 0x2008 <__heap_default_limit+0x1008>
    7d7b: 69 ff        	adc	#$ff
    7d7d: 85 0b        	sta	$b                      ; 0x200b <__heap_default_limit+0x100b>
    7d7f: b1 06        	lda	($6),y                  ; 0x2006 <__heap_default_limit+0x1006>
    7d81: 85 09        	sta	$9                      ; 0x2009 <__heap_default_limit+0x1009>
    7d83: 18           	clc
    7d84: 69 d0        	adc	#$d0
    7d86: e6 04        	inc	$4                      ; 0x2004 <__heap_default_limit+0x1004>
    7d88: d0 02        	bne	$7d8c <atoi+0xad>
    7d8a: e6 05        	inc	$5                      ; 0x2005 <__heap_default_limit+0x1005>
    7d8c: c9 0a        	cmp	#$a
    7d8e: a5 04        	lda	$4                      ; 0x2004 <__heap_default_limit+0x1004>
    7d90: 85 06        	sta	$6                      ; 0x2006 <__heap_default_limit+0x1006>
    7d92: a5 05        	lda	$5                      ; 0x2005 <__heap_default_limit+0x1005>
    7d94: 85 07        	sta	$7                      ; 0x2007 <__heap_default_limit+0x1007>
    7d96: 64 08        	stz	$8                      ; 0x2008 <__heap_default_limit+0x1008>
    7d98: a5 0a        	lda	$a                      ; 0x200a <__heap_default_limit+0x100a>
    7d9a: 85 0c        	sta	$c                      ; 0x200c <__heap_default_limit+0x100c>
    7d9c: a5 0b        	lda	$b                      ; 0x200b <__heap_default_limit+0x100b>
    7d9e: b0 03        	bcs	$7da3 <atoi+0xc4>
    7da0: 4c 3f 7d     	jmp	$7d3f <atoi+0x60>
    7da3: 8a           	txa
    7da4: f0 0d        	beq	$7db3 <atoi+0xd4>
    7da6: 38           	sec
    7da7: a9 00        	lda	#$0
    7da9: e5 0a        	sbc	$a                      ; 0x200a <__heap_default_limit+0x100a>
    7dab: 85 0a        	sta	$a                      ; 0x200a <__heap_default_limit+0x100a>
    7dad: a9 00        	lda	#$0
    7daf: e5 0b        	sbc	$b                      ; 0x200b <__heap_default_limit+0x100b>
    7db1: 85 0b        	sta	$b                      ; 0x200b <__heap_default_limit+0x100b>
    7db3: a6 0b        	ldx	$b                      ; 0x200b <__heap_default_limit+0x100b>
    7db5: a5 0a        	lda	$a                      ; 0x200a <__heap_default_limit+0x100a>
    7db7: 60           	rts

00007db8 <strcpy>:
    7db8: b2 06        	lda	($6),z                  ; 0x2006 <__heap_default_limit+0x1006>
    7dba: aa           	tax
    7dbb: b2 06        	lda	($6),z                  ; 0x2006 <__heap_default_limit+0x1006>
    7dbd: 92 04        	sta	($4),z                  ; 0x2004 <__heap_default_limit+0x1004>
    7dbf: 8a           	txa
    7dc0: d0 03        	bne	$7dc5 <strcpy+0xd>
    7dc2: 4c f5 7d     	jmp	$7df5 <strcpy+0x3d>
    7dc5: a0 01        	ldy	#$1
    7dc7: a6 04        	ldx	$4                      ; 0x2004 <__heap_default_limit+0x1004>
    7dc9: 86 08        	stx	$8                      ; 0x2008 <__heap_default_limit+0x1008>
    7dcb: a6 05        	ldx	$5                      ; 0x2005 <__heap_default_limit+0x1005>
    7dcd: 86 09        	stx	$9                      ; 0x2009 <__heap_default_limit+0x1009>
    7dcf: a6 06        	ldx	$6                      ; 0x2006 <__heap_default_limit+0x1006>
    7dd1: 86 0a        	stx	$a                      ; 0x200a <__heap_default_limit+0x100a>
    7dd3: a6 07        	ldx	$7                      ; 0x2007 <__heap_default_limit+0x1007>
    7dd5: 86 0b        	stx	$b                      ; 0x200b <__heap_default_limit+0x100b>
    7dd7: e6 0a        	inc	$a                      ; 0x200a <__heap_default_limit+0x100a>
    7dd9: d0 02        	bne	$7ddd <strcpy+0x25>
    7ddb: e6 0b        	inc	$b                      ; 0x200b <__heap_default_limit+0x100b>
    7ddd: b1 06        	lda	($6),y                  ; 0x2006 <__heap_default_limit+0x1006>
    7ddf: aa           	tax
    7de0: b1 06        	lda	($6),y                  ; 0x2006 <__heap_default_limit+0x1006>
    7de2: 91 08        	sta	($8),y                  ; 0x2008 <__heap_default_limit+0x1008>
    7de4: e6 08        	inc	$8                      ; 0x2008 <__heap_default_limit+0x1008>
    7de6: d0 02        	bne	$7dea <strcpy+0x32>
    7de8: e6 09        	inc	$9                      ; 0x2009 <__heap_default_limit+0x1009>
    7dea: a5 0a        	lda	$a                      ; 0x200a <__heap_default_limit+0x100a>
    7dec: 85 06        	sta	$6                      ; 0x2006 <__heap_default_limit+0x1006>
    7dee: a5 0b        	lda	$b                      ; 0x200b <__heap_default_limit+0x100b>
    7df0: 85 07        	sta	$7                      ; 0x2007 <__heap_default_limit+0x1007>
    7df2: 8a           	txa
    7df3: d0 e2        	bne	$7dd7 <strcpy+0x1f>
    7df5: 60           	rts

00007df6 <strlen>:
    7df6: b2 04        	lda	($4),z                  ; 0x2004 <__heap_default_limit+0x1004>
    7df8: d0 03        	bne	$7dfd <strlen+0x7>
    7dfa: 4c 2b 7e     	jmp	$7e2b <strlen+0x35>
    7dfd: 64 07        	stz	$7                      ; 0x2007 <__heap_default_limit+0x1007>
    7dff: a0 01        	ldy	#$1
    7e01: a9 00        	lda	#$0
    7e03: 64 06        	stz	$6                      ; 0x2006 <__heap_default_limit+0x1006>
    7e05: aa           	tax
    7e06: e6 06        	inc	$6                      ; 0x2006 <__heap_default_limit+0x1006>
    7e08: d0 01        	bne	$7e0b <strlen+0x15>
    7e0a: e8           	inx
    7e0b: 18           	clc
    7e0c: 85 09        	sta	$9                      ; 0x2009 <__heap_default_limit+0x1009>
    7e0e: a5 07        	lda	$7                      ; 0x2007 <__heap_default_limit+0x1007>
    7e10: 65 04        	adc	$4                      ; 0x2004 <__heap_default_limit+0x1004>
    7e12: 85 08        	sta	$8                      ; 0x2008 <__heap_default_limit+0x1008>
    7e14: a5 09        	lda	$9                      ; 0x2009 <__heap_default_limit+0x1009>
    7e16: 65 05        	adc	$5                      ; 0x2005 <__heap_default_limit+0x1005>
    7e18: 85 09        	sta	$9                      ; 0x2009 <__heap_default_limit+0x1009>
    7e1a: b1 08        	lda	($8),y                  ; 0x2008 <__heap_default_limit+0x1008>
    7e1c: 85 08        	sta	$8                      ; 0x2008 <__heap_default_limit+0x1008>
    7e1e: a5 06        	lda	$6                      ; 0x2006 <__heap_default_limit+0x1006>
    7e20: 85 07        	sta	$7                      ; 0x2007 <__heap_default_limit+0x1007>
    7e22: 8a           	txa
    7e23: e6 08        	inc	$8                      ; 0x2008 <__heap_default_limit+0x1008>
    7e25: c6 08        	dec	$8                      ; 0x2008 <__heap_default_limit+0x1008>
    7e27: d0 dd        	bne	$7e06 <strlen+0x10>
    7e29: 80 04        	bra	$7e2f <strlen+0x39>
    7e2b: 64 06        	stz	$6                      ; 0x2006 <__heap_default_limit+0x1006>
    7e2d: a2 00        	ldx	#$0
    7e2f: a5 06        	lda	$6                      ; 0x2006 <__heap_default_limit+0x1006>
    7e31: 60           	rts

00007e32 <__ashlqi3>:
    7e32: e0 00        	cpx	#$0
    7e34: f0 06        	beq	$7e3c <__ashlqi3+0xa>
    7e36: ca           	dex
    7e37: 0a           	asl
    7e38: e0 00        	cpx	#$0
    7e3a: d0 fa        	bne	$7e36 <__ashlqi3+0x4>
    7e3c: 60           	rts

00007e3d <__ashlhi3>:
    7e3d: 86 05        	stx	$5                      ; 0x2005 <__heap_default_limit+0x1005>
    7e3f: a6 04        	ldx	$4                      ; 0x2004 <__heap_default_limit+0x1004>
    7e41: f0 0a        	beq	$7e4d <__ashlhi3+0x10>
    7e43: a6 04        	ldx	$4                      ; 0x2004 <__heap_default_limit+0x1004>
    7e45: ca           	dex
    7e46: 0a           	asl
    7e47: 26 05        	rol	$5                      ; 0x2005 <__heap_default_limit+0x1005>
    7e49: e0 00        	cpx	#$0
    7e4b: d0 f8        	bne	$7e45 <__ashlhi3+0x8>
    7e4d: a6 05        	ldx	$5                      ; 0x2005 <__heap_default_limit+0x1005>
    7e4f: 60           	rts

00007e50 <__mulhi3>:
    7e50: a4 05        	ldy	$5                      ; 0x2005 <__heap_default_limit+0x1005>
    7e52: d0 04        	bne	$7e58 <__mulhi3+0x8>
    7e54: a4 04        	ldy	$4                      ; 0x2004 <__heap_default_limit+0x1004>
    7e56: f0 25        	beq	$7e7d <__mulhi3+0x2d>
    7e58: 85 06        	sta	$6                      ; 0x2006 <__heap_default_limit+0x1006>
    7e5a: 86 07        	stx	$7                      ; 0x2007 <__heap_default_limit+0x1007>
    7e5c: a0 00        	ldy	#$0
    7e5e: 98           	tya
    7e5f: 46 05        	lsr	$5                      ; 0x2005 <__heap_default_limit+0x1005>
    7e61: 66 04        	ror	$4                      ; 0x2004 <__heap_default_limit+0x1004>
    7e63: 90 09        	bcc	$7e6e <__mulhi3+0x1e>
    7e65: aa           	tax
    7e66: 98           	tya
    7e67: 18           	clc
    7e68: 65 06        	adc	$6                      ; 0x2006 <__heap_default_limit+0x1006>
    7e6a: a8           	tay
    7e6b: 8a           	txa
    7e6c: 65 07        	adc	$7                      ; 0x2007 <__heap_default_limit+0x1007>
    7e6e: 06 06        	asl	$6                      ; 0x2006 <__heap_default_limit+0x1006>
    7e70: 26 07        	rol	$7                      ; 0x2007 <__heap_default_limit+0x1007>
    7e72: a6 05        	ldx	$5                      ; 0x2005 <__heap_default_limit+0x1005>
    7e74: d0 e9        	bne	$7e5f <__mulhi3+0xf>
    7e76: a6 04        	ldx	$4                      ; 0x2004 <__heap_default_limit+0x1004>
    7e78: d0 e5        	bne	$7e5f <__mulhi3+0xf>
    7e7a: aa           	tax
    7e7b: 98           	tya
    7e7c: 60           	rts
    7e7d: a0 00        	ldy	#$0
    7e7f: 98           	tya
    7e80: 80 f8        	bra	$7e7a <__mulhi3+0x2a>

00007e82 <__udivhi3>:
    7e82: 64 06        	stz	$6                      ; 0x2006 <__heap_default_limit+0x1006>
    7e84: a4 05        	ldy	$5                      ; 0x2005 <__heap_default_limit+0x1005>
    7e86: d0 04        	bne	$7e8c <__udivhi3+0xa>
    7e88: a4 04        	ldy	$4                      ; 0x2004 <__heap_default_limit+0x1004>
    7e8a: f0 0e        	beq	$7e9a <__udivhi3+0x18>
    7e8c: 85 09        	sta	$9                      ; 0x2009 <__heap_default_limit+0x1009>
    7e8e: 8a           	txa
    7e8f: e4 05        	cpx	$5                      ; 0x2005 <__heap_default_limit+0x1005>
    7e91: d0 0e        	bne	$7ea1 <__udivhi3+0x1f>
    7e93: a5 09        	lda	$9                      ; 0x2009 <__heap_default_limit+0x1009>
    7e95: c5 04        	cmp	$4                      ; 0x2004 <__heap_default_limit+0x1004>
    7e97: 8a           	txa
    7e98: b0 0b        	bcs	$7ea5 <__udivhi3+0x23>
    7e9a: a2 00        	ldx	#$0
    7e9c: 86 53        	stx	$53                     ; 0x2053 <_fini+0x8>
    7e9e: 4c 3e 7f     	jmp	$7f3e <__udivhi3+0xbc>
    7ea1: c5 05        	cmp	$5                      ; 0x2005 <__heap_default_limit+0x1005>
    7ea3: 90 f5        	bcc	$7e9a <__udivhi3+0x18>
    7ea5: a2 01        	ldx	#$1
    7ea7: 86 53        	stx	$53                     ; 0x2053 <_fini+0x8>
    7ea9: a6 05        	ldx	$5                      ; 0x2005 <__heap_default_limit+0x1005>
    7eab: 10 03        	bpl	$7eb0 <__udivhi3+0x2e>
    7ead: 4c 3e 7f     	jmp	$7f3e <__udivhi3+0xbc>
    7eb0: a2 00        	ldx	#$0
    7eb2: a4 04        	ldy	$4                      ; 0x2004 <__heap_default_limit+0x1004>
    7eb4: 84 07        	sty	$7                      ; 0x2007 <__heap_default_limit+0x1007>
    7eb6: a4 05        	ldy	$5                      ; 0x2005 <__heap_default_limit+0x1005>
    7eb8: 84 08        	sty	$8                      ; 0x2008 <__heap_default_limit+0x1008>
    7eba: 06 07        	asl	$7                      ; 0x2007 <__heap_default_limit+0x1007>
    7ebc: 26 08        	rol	$8                      ; 0x2008 <__heap_default_limit+0x1008>
    7ebe: c5 08        	cmp	$8                      ; 0x2008 <__heap_default_limit+0x1008>
    7ec0: d0 08        	bne	$7eca <__udivhi3+0x48>
    7ec2: a4 09        	ldy	$9                      ; 0x2009 <__heap_default_limit+0x1009>
    7ec4: c4 07        	cpy	$7                      ; 0x2007 <__heap_default_limit+0x1007>
    7ec6: 90 13        	bcc	$7edb <__udivhi3+0x59>
    7ec8: 80 04        	bra	$7ece <__udivhi3+0x4c>
    7eca: c5 08        	cmp	$8                      ; 0x2008 <__heap_default_limit+0x1008>
    7ecc: 90 0d        	bcc	$7edb <__udivhi3+0x59>
    7ece: e8           	inx
    7ecf: a4 07        	ldy	$7                      ; 0x2007 <__heap_default_limit+0x1007>
    7ed1: 84 04        	sty	$4                      ; 0x2004 <__heap_default_limit+0x1004>
    7ed3: a4 08        	ldy	$8                      ; 0x2008 <__heap_default_limit+0x1008>
    7ed5: 84 05        	sty	$5                      ; 0x2005 <__heap_default_limit+0x1005>
    7ed7: 10 e1        	bpl	$7eba <__udivhi3+0x38>
    7ed9: 80 08        	bra	$7ee3 <__udivhi3+0x61>
    7edb: a4 04        	ldy	$4                      ; 0x2004 <__heap_default_limit+0x1004>
    7edd: 84 07        	sty	$7                      ; 0x2007 <__heap_default_limit+0x1007>
    7edf: a4 05        	ldy	$5                      ; 0x2005 <__heap_default_limit+0x1005>
    7ee1: 84 08        	sty	$8                      ; 0x2008 <__heap_default_limit+0x1008>
    7ee3: e0 00        	cpx	#$0
    7ee5: d0 03        	bne	$7eea <__udivhi3+0x68>
    7ee7: 4c 3e 7f     	jmp	$7f3e <__udivhi3+0xbc>
    7eea: 38           	sec
    7eeb: a8           	tay
    7eec: a5 09        	lda	$9                      ; 0x2009 <__heap_default_limit+0x1009>
    7eee: e5 07        	sbc	$7                      ; 0x2007 <__heap_default_limit+0x1007>
    7ef0: 85 04        	sta	$4                      ; 0x2004 <__heap_default_limit+0x1004>
    7ef2: 98           	tya
    7ef3: e5 08        	sbc	$8                      ; 0x2008 <__heap_default_limit+0x1008>
    7ef5: a0 01        	ldy	#$1
    7ef7: 84 53        	sty	$53                     ; 0x2053 <_fini+0x8>
    7ef9: 64 06        	stz	$6                      ; 0x2006 <__heap_default_limit+0x1006>
    7efb: 46 08        	lsr	$8                      ; 0x2008 <__heap_default_limit+0x1008>
    7efd: 66 07        	ror	$7                      ; 0x2007 <__heap_default_limit+0x1007>
    7eff: a4 53        	ldy	$53                     ; 0x2053 <_fini+0x8>
    7f01: 84 05        	sty	$5                      ; 0x2005 <__heap_default_limit+0x1005>
    7f03: 06 05        	asl	$5                      ; 0x2005 <__heap_default_limit+0x1005>
    7f05: a0 01        	ldy	#$1
    7f07: b0 02        	bcs	$7f0b <__udivhi3+0x89>
    7f09: a0 00        	ldy	#$0
    7f0b: 84 09        	sty	$9                      ; 0x2009 <__heap_default_limit+0x1009>
    7f0d: a4 05        	ldy	$5                      ; 0x2005 <__heap_default_limit+0x1005>
    7f0f: 84 53        	sty	$53                     ; 0x2053 <_fini+0x8>
    7f11: c5 08        	cmp	$8                      ; 0x2008 <__heap_default_limit+0x1008>
    7f13: d0 23        	bne	$7f38 <__udivhi3+0xb6>
    7f15: a4 04        	ldy	$4                      ; 0x2004 <__heap_default_limit+0x1004>
    7f17: c4 07        	cpy	$7                      ; 0x2007 <__heap_default_limit+0x1007>
    7f19: 90 11        	bcc	$7f2c <__udivhi3+0xaa>
    7f1b: a8           	tay
    7f1c: a5 53        	lda	$53                     ; 0x2053 <_fini+0x8>
    7f1e: 09 01        	ora	#$1
    7f20: 85 53        	sta	$53                     ; 0x2053 <_fini+0x8>
    7f22: 38           	sec
    7f23: a5 04        	lda	$4                      ; 0x2004 <__heap_default_limit+0x1004>
    7f25: e5 07        	sbc	$7                      ; 0x2007 <__heap_default_limit+0x1007>
    7f27: 85 04        	sta	$4                      ; 0x2004 <__heap_default_limit+0x1004>
    7f29: 98           	tya
    7f2a: e5 08        	sbc	$8                      ; 0x2008 <__heap_default_limit+0x1008>
    7f2c: a4 09        	ldy	$9                      ; 0x2009 <__heap_default_limit+0x1009>
    7f2e: c0 01        	cpy	#$1
    7f30: 26 06        	rol	$6                      ; 0x2006 <__heap_default_limit+0x1006>
    7f32: ca           	dex
    7f33: f0 09        	beq	$7f3e <__udivhi3+0xbc>
    7f35: 4c fb 7e     	jmp	$7efb <__udivhi3+0x79>
    7f38: c5 08        	cmp	$8                      ; 0x2008 <__heap_default_limit+0x1008>
    7f3a: b0 df        	bcs	$7f1b <__udivhi3+0x99>
    7f3c: 80 ee        	bra	$7f2c <__udivhi3+0xaa>
    7f3e: a6 06        	ldx	$6                      ; 0x2006 <__heap_default_limit+0x1006>
    7f40: a5 53        	lda	$53                     ; 0x2053 <_fini+0x8>
    7f42: 60           	rts

00007f43 <__umodqi3>:
    7f43: e0 00        	cpx	#$0
    7f45: d0 03        	bne	$7f4a <__umodqi3+0x7>
    7f47: 4c 87 7f     	jmp	$7f87 <__umodqi3+0x44>
    7f4a: 86 05        	stx	$5                      ; 0x2005 <__heap_default_limit+0x1005>
    7f4c: c5 05        	cmp	$5                      ; 0x2005 <__heap_default_limit+0x1005>
    7f4e: b0 03        	bcs	$7f53 <__umodqi3+0x10>
    7f50: 4c 87 7f     	jmp	$7f87 <__umodqi3+0x44>
    7f53: a6 05        	ldx	$5                      ; 0x2005 <__heap_default_limit+0x1005>
    7f55: 30 15        	bmi	$7f6c <__umodqi3+0x29>
    7f57: a2 00        	ldx	#$0
    7f59: a4 05        	ldy	$5                      ; 0x2005 <__heap_default_limit+0x1005>
    7f5b: 84 04        	sty	$4                      ; 0x2004 <__heap_default_limit+0x1004>
    7f5d: 06 04        	asl	$4                      ; 0x2004 <__heap_default_limit+0x1004>
    7f5f: c5 04        	cmp	$4                      ; 0x2004 <__heap_default_limit+0x1004>
    7f61: 90 0d        	bcc	$7f70 <__umodqi3+0x2d>
    7f63: e8           	inx
    7f64: a4 04        	ldy	$4                      ; 0x2004 <__heap_default_limit+0x1004>
    7f66: 84 05        	sty	$5                      ; 0x2005 <__heap_default_limit+0x1005>
    7f68: 10 f3        	bpl	$7f5d <__umodqi3+0x1a>
    7f6a: 80 08        	bra	$7f74 <__umodqi3+0x31>
    7f6c: 38           	sec
    7f6d: e5 05        	sbc	$5                      ; 0x2005 <__heap_default_limit+0x1005>
    7f6f: 60           	rts
    7f70: a4 05        	ldy	$5                      ; 0x2005 <__heap_default_limit+0x1005>
    7f72: 84 04        	sty	$4                      ; 0x2004 <__heap_default_limit+0x1004>
    7f74: 38           	sec
    7f75: e5 04        	sbc	$4                      ; 0x2004 <__heap_default_limit+0x1004>
    7f77: e0 00        	cpx	#$0
    7f79: f0 0c        	beq	$7f87 <__umodqi3+0x44>
    7f7b: 46 04        	lsr	$4                      ; 0x2004 <__heap_default_limit+0x1004>
    7f7d: c5 04        	cmp	$4                      ; 0x2004 <__heap_default_limit+0x1004>
    7f7f: 90 03        	bcc	$7f84 <__umodqi3+0x41>
    7f81: 38           	sec
    7f82: e5 04        	sbc	$4                      ; 0x2004 <__heap_default_limit+0x1004>
    7f84: ca           	dex
    7f85: d0 f4        	bne	$7f7b <__umodqi3+0x38>
    7f87: 60           	rts

00007f88 <__udivmodqi4>:
    7f88: a8           	tay
    7f89: a9 00        	lda	#$0
    7f8b: e0 00        	cpx	#$0
    7f8d: f0 25        	beq	$7fb4 <__udivmodqi4+0x2c>
    7f8f: 86 07        	stx	$7                      ; 0x2007 <__heap_default_limit+0x1007>
    7f91: 84 08        	sty	$8                      ; 0x2008 <__heap_default_limit+0x1008>
    7f93: c4 07        	cpy	$7                      ; 0x2007 <__heap_default_limit+0x1007>
    7f95: b0 03        	bcs	$7f9a <__udivmodqi4+0x12>
    7f97: 4c f1 7f     	jmp	$7ff1 <__udivmodqi4+0x69>
    7f9a: a5 07        	lda	$7                      ; 0x2007 <__heap_default_limit+0x1007>
    7f9c: 30 1b        	bmi	$7fb9 <__udivmodqi4+0x31>
    7f9e: a2 00        	ldx	#$0
    7fa0: a5 07        	lda	$7                      ; 0x2007 <__heap_default_limit+0x1007>
    7fa2: 85 06        	sta	$6                      ; 0x2006 <__heap_default_limit+0x1006>
    7fa4: 98           	tya
    7fa5: 06 06        	asl	$6                      ; 0x2006 <__heap_default_limit+0x1006>
    7fa7: c5 06        	cmp	$6                      ; 0x2006 <__heap_default_limit+0x1006>
    7fa9: 90 17        	bcc	$7fc2 <__udivmodqi4+0x3a>
    7fab: e8           	inx
    7fac: a4 06        	ldy	$6                      ; 0x2006 <__heap_default_limit+0x1006>
    7fae: 84 07        	sty	$7                      ; 0x2007 <__heap_default_limit+0x1007>
    7fb0: 10 f3        	bpl	$7fa5 <__udivmodqi4+0x1d>
    7fb2: 80 12        	bra	$7fc6 <__udivmodqi4+0x3e>
    7fb4: 84 08        	sty	$8                      ; 0x2008 <__heap_default_limit+0x1008>
    7fb6: 4c f1 7f     	jmp	$7ff1 <__udivmodqi4+0x69>
    7fb9: 38           	sec
    7fba: 98           	tya
    7fbb: e5 07        	sbc	$7                      ; 0x2007 <__heap_default_limit+0x1007>
    7fbd: 85 08        	sta	$8                      ; 0x2008 <__heap_default_limit+0x1008>
    7fbf: 4c ef 7f     	jmp	$7fef <__udivmodqi4+0x67>
    7fc2: a4 07        	ldy	$7                      ; 0x2007 <__heap_default_limit+0x1007>
    7fc4: 84 06        	sty	$6                      ; 0x2006 <__heap_default_limit+0x1006>
    7fc6: 38           	sec
    7fc7: e5 06        	sbc	$6                      ; 0x2006 <__heap_default_limit+0x1006>
    7fc9: 85 08        	sta	$8                      ; 0x2008 <__heap_default_limit+0x1008>
    7fcb: 8a           	txa
    7fcc: f0 21        	beq	$7fef <__udivmodqi4+0x67>
    7fce: a9 01        	lda	#$1
    7fd0: 46 06        	lsr	$6                      ; 0x2006 <__heap_default_limit+0x1006>
    7fd2: 0a           	asl
    7fd3: a8           	tay
    7fd4: a5 08        	lda	$8                      ; 0x2008 <__heap_default_limit+0x1008>
    7fd6: c5 06        	cmp	$6                      ; 0x2006 <__heap_default_limit+0x1006>
    7fd8: 90 0d        	bcc	$7fe7 <__udivmodqi4+0x5f>
    7fda: 85 07        	sta	$7                      ; 0x2007 <__heap_default_limit+0x1007>
    7fdc: 98           	tya
    7fdd: 09 01        	ora	#$1
    7fdf: a8           	tay
    7fe0: 38           	sec
    7fe1: a5 07        	lda	$7                      ; 0x2007 <__heap_default_limit+0x1007>
    7fe3: e5 06        	sbc	$6                      ; 0x2006 <__heap_default_limit+0x1006>
    7fe5: 85 08        	sta	$8                      ; 0x2008 <__heap_default_limit+0x1008>
    7fe7: ca           	dex
    7fe8: 98           	tya
    7fe9: e0 00        	cpx	#$0
    7feb: d0 e3        	bne	$7fd0 <__udivmodqi4+0x48>
    7fed: 80 02        	bra	$7ff1 <__udivmodqi4+0x69>
    7fef: a9 01        	lda	#$1
    7ff1: aa           	tax
    7ff2: a5 08        	lda	$8                      ; 0x2008 <__heap_default_limit+0x1008>
    7ff4: 92 04        	sta	($4),z                  ; 0x2004 <__heap_default_limit+0x1004>
    7ff6: 8a           	txa
    7ff7: 60           	rts

00007ff8 <__udivmodhi4>:
    7ff8: 86 0c        	stx	$c                      ; 0x200c <__heap_default_limit+0x100c>
    7ffa: 64 08        	stz	$8                      ; 0x2008 <__heap_default_limit+0x1008>
    7ffc: a4 05        	ldy	$5                      ; 0x2005 <__heap_default_limit+0x1005>
    7ffe: d0 04        	bne	$8004 <__udivmodhi4+0xc>
    8000: a4 04        	ldy	$4                      ; 0x2004 <__heap_default_limit+0x1004>
    8002: f0 08        	beq	$800c <__udivmodhi4+0x14>
    8004: e4 05        	cpx	$5                      ; 0x2005 <__heap_default_limit+0x1005>
    8006: d0 0d        	bne	$8015 <__udivmodhi4+0x1d>
    8008: c5 04        	cmp	$4                      ; 0x2004 <__heap_default_limit+0x1004>
    800a: b0 0d        	bcs	$8019 <__udivmodhi4+0x21>
    800c: a6 0c        	ldx	$c                      ; 0x200c <__heap_default_limit+0x100c>
    800e: 86 04        	stx	$4                      ; 0x2004 <__heap_default_limit+0x1004>
    8010: a2 00        	ldx	#$0
    8012: 4c be 80     	jmp	$80be <__udivmodhi4+0xc6>
    8015: e4 05        	cpx	$5                      ; 0x2005 <__heap_default_limit+0x1005>
    8017: 90 f3        	bcc	$800c <__udivmodhi4+0x14>
    8019: a6 05        	ldx	$5                      ; 0x2005 <__heap_default_limit+0x1005>
    801b: 10 03        	bpl	$8020 <__udivmodhi4+0x28>
    801d: 4c b1 80     	jmp	$80b1 <__udivmodhi4+0xb9>
    8020: a2 00        	ldx	#$0
    8022: a4 04        	ldy	$4                      ; 0x2004 <__heap_default_limit+0x1004>
    8024: 84 09        	sty	$9                      ; 0x2009 <__heap_default_limit+0x1009>
    8026: a4 05        	ldy	$5                      ; 0x2005 <__heap_default_limit+0x1005>
    8028: 84 0a        	sty	$a                      ; 0x200a <__heap_default_limit+0x100a>
    802a: 06 09        	asl	$9                      ; 0x2009 <__heap_default_limit+0x1009>
    802c: 26 0a        	rol	$a                      ; 0x200a <__heap_default_limit+0x100a>
    802e: a4 0c        	ldy	$c                      ; 0x200c <__heap_default_limit+0x100c>
    8030: c4 0a        	cpy	$a                      ; 0x200a <__heap_default_limit+0x100a>
    8032: d0 06        	bne	$803a <__udivmodhi4+0x42>
    8034: c5 09        	cmp	$9                      ; 0x2009 <__heap_default_limit+0x1009>
    8036: b0 08        	bcs	$8040 <__udivmodhi4+0x48>
    8038: 80 13        	bra	$804d <__udivmodhi4+0x55>
    803a: a4 0c        	ldy	$c                      ; 0x200c <__heap_default_limit+0x100c>
    803c: c4 0a        	cpy	$a                      ; 0x200a <__heap_default_limit+0x100a>
    803e: 90 0d        	bcc	$804d <__udivmodhi4+0x55>
    8040: e8           	inx
    8041: a4 09        	ldy	$9                      ; 0x2009 <__heap_default_limit+0x1009>
    8043: 84 04        	sty	$4                      ; 0x2004 <__heap_default_limit+0x1004>
    8045: a4 0a        	ldy	$a                      ; 0x200a <__heap_default_limit+0x100a>
    8047: 84 05        	sty	$5                      ; 0x2005 <__heap_default_limit+0x1005>
    8049: 10 df        	bpl	$802a <__udivmodhi4+0x32>
    804b: 80 08        	bra	$8055 <__udivmodhi4+0x5d>
    804d: a4 04        	ldy	$4                      ; 0x2004 <__heap_default_limit+0x1004>
    804f: 84 09        	sty	$9                      ; 0x2009 <__heap_default_limit+0x1009>
    8051: a4 05        	ldy	$5                      ; 0x2005 <__heap_default_limit+0x1005>
    8053: 84 0a        	sty	$a                      ; 0x200a <__heap_default_limit+0x100a>
    8055: 38           	sec
    8056: e5 09        	sbc	$9                      ; 0x2009 <__heap_default_limit+0x1009>
    8058: a8           	tay
    8059: a5 0c        	lda	$c                      ; 0x200c <__heap_default_limit+0x100c>
    805b: e5 0a        	sbc	$a                      ; 0x200a <__heap_default_limit+0x100a>
    805d: 85 04        	sta	$4                      ; 0x2004 <__heap_default_limit+0x1004>
    805f: 8a           	txa
    8060: d0 03        	bne	$8065 <__udivmodhi4+0x6d>
    8062: 4c cd 80     	jmp	$80cd <__udivmodhi4+0xd5>
    8065: a9 01        	lda	#$1
    8067: 85 8f        	sta	$8f                     ; 0x208f <lprestore+0x1a>
    8069: 64 08        	stz	$8                      ; 0x2008 <__heap_default_limit+0x1008>
    806b: 98           	tya
    806c: 46 0a        	lsr	$a                      ; 0x200a <__heap_default_limit+0x100a>
    806e: 66 09        	ror	$9                      ; 0x2009 <__heap_default_limit+0x1009>
    8070: a4 8f        	ldy	$8f                     ; 0x208f <lprestore+0x1a>
    8072: 84 05        	sty	$5                      ; 0x2005 <__heap_default_limit+0x1005>
    8074: 06 05        	asl	$5                      ; 0x2005 <__heap_default_limit+0x1005>
    8076: a0 01        	ldy	#$1
    8078: b0 02        	bcs	$807c <__udivmodhi4+0x84>
    807a: a0 00        	ldy	#$0
    807c: 84 0b        	sty	$b                      ; 0x200b <__heap_default_limit+0x100b>
    807e: a4 05        	ldy	$5                      ; 0x2005 <__heap_default_limit+0x1005>
    8080: 84 8f        	sty	$8f                     ; 0x208f <lprestore+0x1a>
    8082: a4 04        	ldy	$4                      ; 0x2004 <__heap_default_limit+0x1004>
    8084: c4 0a        	cpy	$a                      ; 0x200a <__heap_default_limit+0x100a>
    8086: d0 23        	bne	$80ab <__udivmodhi4+0xb3>
    8088: c5 09        	cmp	$9                      ; 0x2009 <__heap_default_limit+0x1009>
    808a: 90 13        	bcc	$809f <__udivmodhi4+0xa7>
    808c: a8           	tay
    808d: a5 8f        	lda	$8f                     ; 0x208f <lprestore+0x1a>
    808f: 09 01        	ora	#$1
    8091: 85 8f        	sta	$8f                     ; 0x208f <lprestore+0x1a>
    8093: 38           	sec
    8094: 98           	tya
    8095: e5 09        	sbc	$9                      ; 0x2009 <__heap_default_limit+0x1009>
    8097: a8           	tay
    8098: a5 04        	lda	$4                      ; 0x2004 <__heap_default_limit+0x1004>
    809a: e5 0a        	sbc	$a                      ; 0x200a <__heap_default_limit+0x100a>
    809c: 85 04        	sta	$4                      ; 0x2004 <__heap_default_limit+0x1004>
    809e: 98           	tya
    809f: a4 0b        	ldy	$b                      ; 0x200b <__heap_default_limit+0x100b>
    80a1: c0 01        	cpy	#$1
    80a3: 26 08        	rol	$8                      ; 0x2008 <__heap_default_limit+0x1008>
    80a5: ca           	dex
    80a6: f0 18        	beq	$80c0 <__udivmodhi4+0xc8>
    80a8: 4c 6c 80     	jmp	$806c <__udivmodhi4+0x74>
    80ab: c4 0a        	cpy	$a                      ; 0x200a <__heap_default_limit+0x100a>
    80ad: b0 dd        	bcs	$808c <__udivmodhi4+0x94>
    80af: 80 ee        	bra	$809f <__udivmodhi4+0xa7>
    80b1: 38           	sec
    80b2: e5 04        	sbc	$4                      ; 0x2004 <__heap_default_limit+0x1004>
    80b4: aa           	tax
    80b5: a5 0c        	lda	$c                      ; 0x200c <__heap_default_limit+0x100c>
    80b7: e5 05        	sbc	$5                      ; 0x2005 <__heap_default_limit+0x1005>
    80b9: 85 04        	sta	$4                      ; 0x2004 <__heap_default_limit+0x1004>
    80bb: 8a           	txa
    80bc: a2 01        	ldx	#$1
    80be: 86 8f        	stx	$8f                     ; 0x208f <lprestore+0x1a>
    80c0: 92 06        	sta	($6),z                  ; 0x2006 <__heap_default_limit+0x1006>
    80c2: a0 01        	ldy	#$1
    80c4: a5 04        	lda	$4                      ; 0x2004 <__heap_default_limit+0x1004>
    80c6: 91 06        	sta	($6),y                  ; 0x2006 <__heap_default_limit+0x1006>
    80c8: a6 08        	ldx	$8                      ; 0x2008 <__heap_default_limit+0x1008>
    80ca: a5 8f        	lda	$8f                     ; 0x208f <lprestore+0x1a>
    80cc: 60           	rts
    80cd: a2 01        	ldx	#$1
    80cf: 86 8f        	stx	$8f                     ; 0x208f <lprestore+0x1a>
    80d1: 98           	tya
    80d2: 80 ec        	bra	$80c0 <__udivmodhi4+0xc8>

000080d4 <__udivmodsi4>:
    80d4: da           	phx
    80d5: 7a           	ply
    80d6: a6 04        	ldx	$4                      ; 0x2004 <__heap_default_limit+0x1004>
    80d8: 86 11        	stx	$11                     ; 0x2011 <__heap_default_limit+0x1011>
    80da: a6 05        	ldx	$5                      ; 0x2005 <__heap_default_limit+0x1005>
    80dc: 64 0c        	stz	$c                      ; 0x200c <__heap_default_limit+0x100c>
    80de: e6 09        	inc	$9                      ; 0x2009 <__heap_default_limit+0x1009>
    80e0: c6 09        	dec	$9                      ; 0x2009 <__heap_default_limit+0x1009>
    80e2: d0 15        	bne	$80f9 <__udivmodsi4+0x25>
    80e4: e6 08        	inc	$8                      ; 0x2008 <__heap_default_limit+0x1008>
    80e6: c6 08        	dec	$8                      ; 0x2008 <__heap_default_limit+0x1008>
    80e8: d0 0f        	bne	$80f9 <__udivmodsi4+0x25>
    80ea: e6 07        	inc	$7                      ; 0x2007 <__heap_default_limit+0x1007>
    80ec: c6 07        	dec	$7                      ; 0x2007 <__heap_default_limit+0x1007>
    80ee: d0 09        	bne	$80f9 <__udivmodsi4+0x25>
    80f0: e6 06        	inc	$6                      ; 0x2006 <__heap_default_limit+0x1006>
    80f2: c6 06        	dec	$6                      ; 0x2006 <__heap_default_limit+0x1006>
    80f4: d0 03        	bne	$80f9 <__udivmodsi4+0x25>
    80f6: 4c 89 82     	jmp	$8289 <__udivmodsi4+0x1b5>
    80f9: 84 05        	sty	$5                      ; 0x2005 <__heap_default_limit+0x1005>
    80fb: 86 04        	stx	$4                      ; 0x2004 <__heap_default_limit+0x1004>
    80fd: e4 09        	cpx	$9                      ; 0x2009 <__heap_default_limit+0x1009>
    80ff: d0 15        	bne	$8116 <__udivmodsi4+0x42>
    8101: a6 11        	ldx	$11                     ; 0x2011 <__heap_default_limit+0x1011>
    8103: e4 08        	cpx	$8                      ; 0x2008 <__heap_default_limit+0x1008>
    8105: d0 1e        	bne	$8125 <__udivmodsi4+0x51>
    8107: a6 05        	ldx	$5                      ; 0x2005 <__heap_default_limit+0x1005>
    8109: e4 07        	cpx	$7                      ; 0x2007 <__heap_default_limit+0x1007>
    810b: f0 03        	beq	$8110 <__udivmodsi4+0x3c>
    810d: 4c 71 82     	jmp	$8271 <__udivmodsi4+0x19d>
    8110: c5 06        	cmp	$6                      ; 0x2006 <__heap_default_limit+0x1006>
    8112: 90 06        	bcc	$811a <__udivmodsi4+0x46>
    8114: 80 13        	bra	$8129 <__udivmodsi4+0x55>
    8116: e4 09        	cpx	$9                      ; 0x2009 <__heap_default_limit+0x1009>
    8118: b0 0f        	bcs	$8129 <__udivmodsi4+0x55>
    811a: 84 07        	sty	$7                      ; 0x2007 <__heap_default_limit+0x1007>
    811c: a6 04        	ldx	$4                      ; 0x2004 <__heap_default_limit+0x1004>
    811e: 86 06        	stx	$6                      ; 0x2006 <__heap_default_limit+0x1006>
    8120: a2 00        	ldx	#$0
    8122: 4c 54 82     	jmp	$8254 <__udivmodsi4+0x180>
    8125: e4 08        	cpx	$8                      ; 0x2008 <__heap_default_limit+0x1008>
    8127: 90 f1        	bcc	$811a <__udivmodsi4+0x46>
    8129: a6 09        	ldx	$9                      ; 0x2009 <__heap_default_limit+0x1009>
    812b: 10 03        	bpl	$8130 <__udivmodsi4+0x5c>
    812d: 4c 3c 82     	jmp	$823c <__udivmodsi4+0x168>
    8130: a2 00        	ldx	#$0
    8132: a4 06        	ldy	$6                      ; 0x2006 <__heap_default_limit+0x1006>
    8134: 84 0d        	sty	$d                      ; 0x200d <__heap_default_limit+0x100d>
    8136: a4 07        	ldy	$7                      ; 0x2007 <__heap_default_limit+0x1007>
    8138: 84 0e        	sty	$e                      ; 0x200e <__heap_default_limit+0x100e>
    813a: a4 08        	ldy	$8                      ; 0x2008 <__heap_default_limit+0x1008>
    813c: 84 0f        	sty	$f                      ; 0x200f <__heap_default_limit+0x100f>
    813e: a4 09        	ldy	$9                      ; 0x2009 <__heap_default_limit+0x1009>
    8140: 84 10        	sty	$10                     ; 0x2010 <__heap_default_limit+0x1010>
    8142: 06 0d        	asl	$d                      ; 0x200d <__heap_default_limit+0x100d>
    8144: 26 0e        	rol	$e                      ; 0x200e <__heap_default_limit+0x100e>
    8146: 26 0f        	rol	$f                      ; 0x200f <__heap_default_limit+0x100f>
    8148: 26 10        	rol	$10                     ; 0x2010 <__heap_default_limit+0x1010>
    814a: a4 04        	ldy	$4                      ; 0x2004 <__heap_default_limit+0x1004>
    814c: c4 10        	cpy	$10                     ; 0x2010 <__heap_default_limit+0x1010>
    814e: d0 12        	bne	$8162 <__udivmodsi4+0x8e>
    8150: a4 11        	ldy	$11                     ; 0x2011 <__heap_default_limit+0x1011>
    8152: c4 0f        	cpy	$f                      ; 0x200f <__heap_default_limit+0x100f>
    8154: d0 12        	bne	$8168 <__udivmodsi4+0x94>
    8156: a4 05        	ldy	$5                      ; 0x2005 <__heap_default_limit+0x1005>
    8158: c4 0e        	cpy	$e                      ; 0x200e <__heap_default_limit+0x100e>
    815a: d0 12        	bne	$816e <__udivmodsi4+0x9a>
    815c: c5 0d        	cmp	$d                      ; 0x200d <__heap_default_limit+0x100d>
    815e: 90 28        	bcc	$8188 <__udivmodsi4+0xb4>
    8160: 80 10        	bra	$8172 <__udivmodsi4+0x9e>
    8162: c4 10        	cpy	$10                     ; 0x2010 <__heap_default_limit+0x1010>
    8164: b0 0c        	bcs	$8172 <__udivmodsi4+0x9e>
    8166: 80 20        	bra	$8188 <__udivmodsi4+0xb4>
    8168: c4 0f        	cpy	$f                      ; 0x200f <__heap_default_limit+0x100f>
    816a: 90 1c        	bcc	$8188 <__udivmodsi4+0xb4>
    816c: 80 04        	bra	$8172 <__udivmodsi4+0x9e>
    816e: c4 0e        	cpy	$e                      ; 0x200e <__heap_default_limit+0x100e>
    8170: 90 16        	bcc	$8188 <__udivmodsi4+0xb4>
    8172: e8           	inx
    8173: a4 0d        	ldy	$d                      ; 0x200d <__heap_default_limit+0x100d>
    8175: 84 06        	sty	$6                      ; 0x2006 <__heap_default_limit+0x1006>
    8177: a4 0e        	ldy	$e                      ; 0x200e <__heap_default_limit+0x100e>
    8179: 84 07        	sty	$7                      ; 0x2007 <__heap_default_limit+0x1007>
    817b: a4 0f        	ldy	$f                      ; 0x200f <__heap_default_limit+0x100f>
    817d: 84 08        	sty	$8                      ; 0x2008 <__heap_default_limit+0x1008>
    817f: a4 10        	ldy	$10                     ; 0x2010 <__heap_default_limit+0x1010>
    8181: 84 09        	sty	$9                      ; 0x2009 <__heap_default_limit+0x1009>
    8183: 30 13        	bmi	$8198 <__udivmodsi4+0xc4>
    8185: 4c 42 81     	jmp	$8142 <__udivmodsi4+0x6e>
    8188: a4 06        	ldy	$6                      ; 0x2006 <__heap_default_limit+0x1006>
    818a: 84 0d        	sty	$d                      ; 0x200d <__heap_default_limit+0x100d>
    818c: a4 07        	ldy	$7                      ; 0x2007 <__heap_default_limit+0x1007>
    818e: 84 0e        	sty	$e                      ; 0x200e <__heap_default_limit+0x100e>
    8190: a4 08        	ldy	$8                      ; 0x2008 <__heap_default_limit+0x1008>
    8192: 84 0f        	sty	$f                      ; 0x200f <__heap_default_limit+0x100f>
    8194: a4 09        	ldy	$9                      ; 0x2009 <__heap_default_limit+0x1009>
    8196: 84 10        	sty	$10                     ; 0x2010 <__heap_default_limit+0x1010>
    8198: 38           	sec
    8199: e5 0d        	sbc	$d                      ; 0x200d <__heap_default_limit+0x100d>
    819b: 85 08        	sta	$8                      ; 0x2008 <__heap_default_limit+0x1008>
    819d: a5 05        	lda	$5                      ; 0x2005 <__heap_default_limit+0x1005>
    819f: e5 0e        	sbc	$e                      ; 0x200e <__heap_default_limit+0x100e>
    81a1: 85 07        	sta	$7                      ; 0x2007 <__heap_default_limit+0x1007>
    81a3: a5 11        	lda	$11                     ; 0x2011 <__heap_default_limit+0x1011>
    81a5: e5 0f        	sbc	$f                      ; 0x200f <__heap_default_limit+0x100f>
    81a7: a8           	tay
    81a8: a5 04        	lda	$4                      ; 0x2004 <__heap_default_limit+0x1004>
    81aa: e5 10        	sbc	$10                     ; 0x2010 <__heap_default_limit+0x1010>
    81ac: 85 06        	sta	$6                      ; 0x2006 <__heap_default_limit+0x1006>
    81ae: 8a           	txa
    81af: d0 03        	bne	$81b4 <__udivmodsi4+0xe0>
    81b1: 4c 7b 82     	jmp	$827b <__udivmodsi4+0x1a7>
    81b4: a9 01        	lda	#$1
    81b6: 85 86        	sta	$86                     ; 0x2086 <lprestore+0x11>
    81b8: 64 0c        	stz	$c                      ; 0x200c <__heap_default_limit+0x100c>
    81ba: 64 04        	stz	$4                      ; 0x2004 <__heap_default_limit+0x1004>
    81bc: 64 05        	stz	$5                      ; 0x2005 <__heap_default_limit+0x1005>
    81be: 84 11        	sty	$11                     ; 0x2011 <__heap_default_limit+0x1011>
    81c0: a5 08        	lda	$8                      ; 0x2008 <__heap_default_limit+0x1008>
    81c2: 46 10        	lsr	$10                     ; 0x2010 <__heap_default_limit+0x1010>
    81c4: 66 0f        	ror	$f                      ; 0x200f <__heap_default_limit+0x100f>
    81c6: 66 0e        	ror	$e                      ; 0x200e <__heap_default_limit+0x100e>
    81c8: 66 0d        	ror	$d                      ; 0x200d <__heap_default_limit+0x100d>
    81ca: a4 86        	ldy	$86                     ; 0x2086 <lprestore+0x11>
    81cc: 84 08        	sty	$8                      ; 0x2008 <__heap_default_limit+0x1008>
    81ce: 06 08        	asl	$8                      ; 0x2008 <__heap_default_limit+0x1008>
    81d0: a0 01        	ldy	#$1
    81d2: b0 02        	bcs	$81d6 <__udivmodsi4+0x102>
    81d4: a0 00        	ldy	#$0
    81d6: 84 09        	sty	$9                      ; 0x2009 <__heap_default_limit+0x1009>
    81d8: a4 08        	ldy	$8                      ; 0x2008 <__heap_default_limit+0x1008>
    81da: 84 86        	sty	$86                     ; 0x2086 <lprestore+0x11>
    81dc: a4 06        	ldy	$6                      ; 0x2006 <__heap_default_limit+0x1006>
    81de: c4 10        	cpy	$10                     ; 0x2010 <__heap_default_limit+0x1010>
    81e0: d0 18        	bne	$81fa <__udivmodsi4+0x126>
    81e2: a4 11        	ldy	$11                     ; 0x2011 <__heap_default_limit+0x1011>
    81e4: c4 0f        	cpy	$f                      ; 0x200f <__heap_default_limit+0x100f>
    81e6: f0 03        	beq	$81eb <__udivmodsi4+0x117>
    81e8: 4c 2e 82     	jmp	$822e <__udivmodsi4+0x15a>
    81eb: a4 07        	ldy	$7                      ; 0x2007 <__heap_default_limit+0x1007>
    81ed: c4 0e        	cpy	$e                      ; 0x200e <__heap_default_limit+0x100e>
    81ef: f0 03        	beq	$81f4 <__udivmodsi4+0x120>
    81f1: 4c 35 82     	jmp	$8235 <__udivmodsi4+0x161>
    81f4: c5 0d        	cmp	$d                      ; 0x200d <__heap_default_limit+0x100d>
    81f6: b0 06        	bcs	$81fe <__udivmodsi4+0x12a>
    81f8: 80 24        	bra	$821e <__udivmodsi4+0x14a>
    81fa: c4 10        	cpy	$10                     ; 0x2010 <__heap_default_limit+0x1010>
    81fc: 90 20        	bcc	$821e <__udivmodsi4+0x14a>
    81fe: 38           	sec
    81ff: e5 0d        	sbc	$d                      ; 0x200d <__heap_default_limit+0x100d>
    8201: 85 08        	sta	$8                      ; 0x2008 <__heap_default_limit+0x1008>
    8203: a5 07        	lda	$7                      ; 0x2007 <__heap_default_limit+0x1007>
    8205: e5 0e        	sbc	$e                      ; 0x200e <__heap_default_limit+0x100e>
    8207: 85 07        	sta	$7                      ; 0x2007 <__heap_default_limit+0x1007>
    8209: a5 11        	lda	$11                     ; 0x2011 <__heap_default_limit+0x1011>
    820b: e5 0f        	sbc	$f                      ; 0x200f <__heap_default_limit+0x100f>
    820d: a8           	tay
    820e: a5 06        	lda	$6                      ; 0x2006 <__heap_default_limit+0x1006>
    8210: e5 10        	sbc	$10                     ; 0x2010 <__heap_default_limit+0x1010>
    8212: 85 06        	sta	$6                      ; 0x2006 <__heap_default_limit+0x1006>
    8214: 84 11        	sty	$11                     ; 0x2011 <__heap_default_limit+0x1011>
    8216: a5 86        	lda	$86                     ; 0x2086 <lprestore+0x11>
    8218: 09 01        	ora	#$1
    821a: 85 86        	sta	$86                     ; 0x2086 <lprestore+0x11>
    821c: a5 08        	lda	$8                      ; 0x2008 <__heap_default_limit+0x1008>
    821e: a4 09        	ldy	$9                      ; 0x2009 <__heap_default_limit+0x1009>
    8220: c0 01        	cpy	#$1
    8222: 26 0c        	rol	$c                      ; 0x200c <__heap_default_limit+0x100c>
    8224: 26 04        	rol	$4                      ; 0x2004 <__heap_default_limit+0x1004>
    8226: 26 05        	rol	$5                      ; 0x2005 <__heap_default_limit+0x1005>
    8228: ca           	dex
    8229: f0 2f        	beq	$825a <__udivmodsi4+0x186>
    822b: 4c c2 81     	jmp	$81c2 <__udivmodsi4+0xee>
    822e: c4 0f        	cpy	$f                      ; 0x200f <__heap_default_limit+0x100f>
    8230: 90 ec        	bcc	$821e <__udivmodsi4+0x14a>
    8232: 4c fe 81     	jmp	$81fe <__udivmodsi4+0x12a>
    8235: c4 0e        	cpy	$e                      ; 0x200e <__heap_default_limit+0x100e>
    8237: 90 e5        	bcc	$821e <__udivmodsi4+0x14a>
    8239: 4c fe 81     	jmp	$81fe <__udivmodsi4+0x12a>
    823c: 38           	sec
    823d: e5 06        	sbc	$6                      ; 0x2006 <__heap_default_limit+0x1006>
    823f: aa           	tax
    8240: 98           	tya
    8241: e5 07        	sbc	$7                      ; 0x2007 <__heap_default_limit+0x1007>
    8243: 85 07        	sta	$7                      ; 0x2007 <__heap_default_limit+0x1007>
    8245: a5 11        	lda	$11                     ; 0x2011 <__heap_default_limit+0x1011>
    8247: e5 08        	sbc	$8                      ; 0x2008 <__heap_default_limit+0x1008>
    8249: 85 11        	sta	$11                     ; 0x2011 <__heap_default_limit+0x1011>
    824b: a5 04        	lda	$4                      ; 0x2004 <__heap_default_limit+0x1004>
    824d: e5 09        	sbc	$9                      ; 0x2009 <__heap_default_limit+0x1009>
    824f: 85 06        	sta	$6                      ; 0x2006 <__heap_default_limit+0x1006>
    8251: 8a           	txa
    8252: a2 01        	ldx	#$1
    8254: 86 86        	stx	$86                     ; 0x2086 <lprestore+0x11>
    8256: 64 04        	stz	$4                      ; 0x2004 <__heap_default_limit+0x1004>
    8258: 64 05        	stz	$5                      ; 0x2005 <__heap_default_limit+0x1005>
    825a: 92 0a        	sta	($a),z                  ; 0x200a <__heap_default_limit+0x100a>
    825c: a0 01        	ldy	#$1
    825e: a5 07        	lda	$7                      ; 0x2007 <__heap_default_limit+0x1007>
    8260: 91 0a        	sta	($a),y                  ; 0x200a <__heap_default_limit+0x100a>
    8262: c8           	iny
    8263: a5 11        	lda	$11                     ; 0x2011 <__heap_default_limit+0x1011>
    8265: 91 0a        	sta	($a),y                  ; 0x200a <__heap_default_limit+0x100a>
    8267: c8           	iny
    8268: a5 06        	lda	$6                      ; 0x2006 <__heap_default_limit+0x1006>
    826a: 91 0a        	sta	($a),y                  ; 0x200a <__heap_default_limit+0x100a>
    826c: a6 0c        	ldx	$c                      ; 0x200c <__heap_default_limit+0x100c>
    826e: a5 86        	lda	$86                     ; 0x2086 <lprestore+0x11>
    8270: 60           	rts
    8271: e4 07        	cpx	$7                      ; 0x2007 <__heap_default_limit+0x1007>
    8273: b0 03        	bcs	$8278 <__udivmodsi4+0x1a4>
    8275: 4c 1a 81     	jmp	$811a <__udivmodsi4+0x46>
    8278: 4c 29 81     	jmp	$8129 <__udivmodsi4+0x55>
    827b: a2 01        	ldx	#$1
    827d: 86 86        	stx	$86                     ; 0x2086 <lprestore+0x11>
    827f: 64 04        	stz	$4                      ; 0x2004 <__heap_default_limit+0x1004>
    8281: 64 05        	stz	$5                      ; 0x2005 <__heap_default_limit+0x1005>
    8283: 84 11        	sty	$11                     ; 0x2011 <__heap_default_limit+0x1011>
    8285: a5 08        	lda	$8                      ; 0x2008 <__heap_default_limit+0x1008>
    8287: 80 d1        	bra	$825a <__udivmodsi4+0x186>
    8289: 84 07        	sty	$7                      ; 0x2007 <__heap_default_limit+0x1007>
    828b: 4c 1e 81     	jmp	$811e <__udivmodsi4+0x4a>

0000828e <memcpy>:
    828e: a8           	tay
    828f: 8a           	txa
    8290: d0 03        	bne	$8295 <memcpy+0x7>
    8292: 98           	tya
    8293: f0 24        	beq	$82b9 <memcpy+0x2b>
    8295: a5 04        	lda	$4                      ; 0x2004 <__heap_default_limit+0x1004>
    8297: 85 08        	sta	$8                      ; 0x2008 <__heap_default_limit+0x1008>
    8299: a5 05        	lda	$5                      ; 0x2005 <__heap_default_limit+0x1005>
    829b: 85 09        	sta	$9                      ; 0x2009 <__heap_default_limit+0x1009>
    829d: b2 06        	lda	($6),z                  ; 0x2006 <__heap_default_limit+0x1006>
    829f: 92 08        	sta	($8),z                  ; 0x2008 <__heap_default_limit+0x1008>
    82a1: e6 08        	inc	$8                      ; 0x2008 <__heap_default_limit+0x1008>
    82a3: d0 02        	bne	$82a7 <memcpy+0x19>
    82a5: e6 09        	inc	$9                      ; 0x2009 <__heap_default_limit+0x1009>
    82a7: e6 06        	inc	$6                      ; 0x2006 <__heap_default_limit+0x1006>
    82a9: d0 02        	bne	$82ad <memcpy+0x1f>
    82ab: e6 07        	inc	$7                      ; 0x2007 <__heap_default_limit+0x1007>
    82ad: 88           	dey
    82ae: c0 ff        	cpy	#$ff
    82b0: d0 01        	bne	$82b3 <memcpy+0x25>
    82b2: ca           	dex
    82b3: 8a           	txa
    82b4: d0 e7        	bne	$829d <memcpy+0xf>
    82b6: 98           	tya
    82b7: d0 e4        	bne	$829d <memcpy+0xf>
    82b9: 60           	rts

000082ba <__memset>:
    82ba: a4 06        	ldy	$6                      ; 0x2006 <__heap_default_limit+0x1006>
    82bc: d0 04        	bne	$82c2 <__memset+0x8>
    82be: e0 00        	cpx	#$0
    82c0: f0 17        	beq	$82d9 <__memset+0x1f>
    82c2: 92 04        	sta	($4),z                  ; 0x2004 <__heap_default_limit+0x1004>
    82c4: e6 04        	inc	$4                      ; 0x2004 <__heap_default_limit+0x1004>
    82c6: d0 02        	bne	$82ca <__memset+0x10>
    82c8: e6 05        	inc	$5                      ; 0x2005 <__heap_default_limit+0x1005>
    82ca: ca           	dex
    82cb: e0 ff        	cpx	#$ff
    82cd: d0 02        	bne	$82d1 <__memset+0x17>
    82cf: c6 06        	dec	$6                      ; 0x2006 <__heap_default_limit+0x1006>
    82d1: a4 06        	ldy	$6                      ; 0x2006 <__heap_default_limit+0x1006>
    82d3: d0 ed        	bne	$82c2 <__memset+0x8>
    82d5: e0 00        	cpx	#$0
    82d7: d0 e9        	bne	$82c2 <__memset+0x8>
    82d9: 60           	rts
