
midnightmega.prg.elf:	file format elf32-mos

SYMBOL TABLE:
00002056 l       .text	00000000 fourbytes
0000205a l       .text	00000000 lpstore
00002075 l       .text	00000000 lprestore
00002015 l       .basic_header	00000000 next_line
0000fff0 l       *ABS*	00000000 PLOT
00000000 l    df *ABS*	00000000 zero-bss.c
00000000 l    df *ABS*	00000000 zero-zp-bss.c
00000000 l    df *ABS*	00000000 copy-zp-data.c
00000000 l    df *ABS*	00000000 ld-temp.o
0000d640 l       *ABS*	00000000 HTRAP00
0000d67f l       *ABS*	00000000 HTRAP3F
00002040 l       .text	00000000 shift
00000030 l     O .zp.bss	00000001 g_curScreenW
00000031 l     O .zp.bss	00000001 g_curScreenH
0000871d l     F .text	0000000b flushkeybuf
0000002b l     O .zp.data	00000001 g_curTextColor
0000422f l     F .text	0000005e clrhome
000056aa l     F .text	00002d50 navi
0000428d l     F .text	0000000e msprintf
00008a5c l     F .text	0000005c usleep
0000219c l     F .text	00000032 hyppo_setname
00009d1a l     O .bss	00000001 fnamehi.2
00008b96 l     F .text	0000003e strcpy
000021c8 l       .text	00000000 errhypsetnam0
000021cc l       .text	00000000 donehypsetnam0
000021ce l     F .text	00000063 getsfn
00002231 l     F .text	00000179 ShowAccess
00008c2e l     F .text	00000032 __mulhi3
00008a0c l     F .text	00000050 lfill
00008d66 l     F .text	00000070 __udivmodqi4
00000033 l     O .zp.bss	00000001 g_curY
00000032 l     O .zp.bss	00000001 g_curX
0000002f l     O .zp.bss	00000001 option.0
000042c6 l     F .text	00000016 mcputsxy
0000410f l     F .text	000000c6 csputdec
0000873f l     F .text	00000009 cputc
000023aa l     F .text	000000d6 ReadSector
0000002c l     O .zp.bss	00000001 lastdrive
0000002d l     O .zp.bss	00000001 prevtrack
0000002e l     O .zp.bss	00000001 lastdoublesector
00008d21 l     F .text	00000045 __umodqi3
00002480 l     F .text	000000b2 WriteSector
00002532 l     F .text	00000043 GetOneSector
000089a5 l     F .text	00000067 lcopy
00002575 l     F .text	00000088 PutWholeSector
000025fd l     F .text	00000051 PutOneSector
0000264e l     F .text	00000039 GetBAM
00002687 l     F .text	00000060 PutBAM
000026e7 l     F .text	000000f8 readblockchain
000027df l     F .text	00000302 BAMSectorUpdate
00008c1b l     F .text	00000013 __ashlhi3
00002ae1 l     F .text	00000098 BAMSectorsFreeBlocks
00002b79 l     F .text	00000167 FreeTracks
00002ce0 l     F .text	000001e2 FormatPartition
00004615 l     F .text	000000b2 progress
000040c8 l     F .text	00000016 strcopy
00002ec2 l     F .text	000001a0 isallocatedBAMtracksector
00009cb2 l     O .rodata	00000004 BAMsector
00003062 l     F .text	0000015e findnextBAMtracksector
000031c0 l     F .text	0000024b writeblockchain
00004467 l     F .text	000001ae messagebox
0000340b l     F .text	000000b0 deleteblockchain
000034bb l     F .text	0000008c tracksectorstring
00009d3b l     O .bss	00000050 s
00003547 l     F .text	0000010f getdirententry
00003656 l     F .text	0000044c writenewdirententry
00003aa2 l     F .text	00000305 deletedirententry
00008c60 l     F .text	000000c1 __udivhi3
00003da7 l     F .text	00000260 swapdirententry
00004007 l     F .text	000000c1 rewritedirent
000040de l     F .text	00000031 strmakefilename
00008eb2 l     F .text	000001ba __udivmodsi4
000087e9 l     F .text	00000007 cputs
000041d5 l     F .text	00000025 asciitoscreencode
000041fa l     F .text	00000035 asciitoscreencode_s
0000429b l     F .text	0000002b mprintf
000087f0 l     F .text	000000db cputsxy
000042dc l     F .text	0000018b mcbox
000088cb l     F .text	000000aa fillrect
00008748 l     F .text	000000a1 cputcxy
00009d0a l     O .rodata	00000010 hexDigits
00008975 l     F .text	00000009 cgetc
000046c7 l     F .text	000000fe inputbox
000047c5 l     F .text	0000004b Deselect
00009d8b l     O .bss	000001f0 direntflags
00004810 l     F .text	00000041 shortcutprint
00004851 l     F .text	0000061d shortcuts
00000027 l     O .zp.data	00000004 midnight
00004e6e l     F .text	0000009f optionstring
00004f0d l     F .text	000005fe UpdateSectors
00004ff7 l       .text	00000000 errgetproc1
00004ffb l       .text	00000000 donegetproc1
00009f7c l     O .bss	00000022 disknames
00005123 l       .text	00000000 errgetcurdrv2
00005127 l       .text	00000000 donegetcurdrv2
00005140 l       .text	00000000 errhypopendir3
00005144 l       .text	00000000 donehypopendir3
00005211 l       .text	00000000 hypreaddirloop4
00005229 l       .text	00000000 errhypreaddir4
0000522b l       .text	00000000 donehypreaddir4
00009d1b l     O .bss	00000020 direntryblock2
0000548a l       .text	00000000 errhypclosedir5
0000548c l       .text	00000000 donehypclosedir5
0000550b l     F .text	0000019f sizeselectcurrentifnone
00009f7b l     O .bss	00000001 legacyHDOSstate
00008728 l     F .text	00000017 petsciitoscreencode
0000846e l     F .text	00000269 text
000086d7 l     F .text	00000046 sidbong
00008c10 l     F .text	0000000b __ashlqi3
000064ac l       .text	00000000 errhypfindfirst6
000064ae l       .text	00000000 donehypfindfirst6
000064cd l       .text	00000000 errhypopenfile7
000064cf l       .text	00000000 donehypopenfile7
000064f9 l       .text	00000000 errhypreadfile8
000064fd l       .text	00000000 donehypreadfile8
0000651c l       .text	00000000 errhypclosefile9
00006520 l       .text	00000000 donehypclosefile9
00008abd l     F .text	000000d9 atoi
000074d3 l       .text	00000000 errhypd81dosattach10
000074d7 l       .text	00000000 donehypd81dosattach10
00009f9e l     O .bss	00000040 lfnname
00007a40 l       .text	00000000 errhypfindfirst11
00007a42 l       .text	00000000 donehypfindfirst11
00007b56 l       .text	00000000 errhypfindfirst12
00007b58 l       .text	00000000 donehypfindfirst12
00007bfe l       .text	00000000 errhyprmfile13
00007c02 l       .text	00000000 donehyprmfile13
00007c12 l       .text	00000000 errhypclosedir14
00007c14 l       .text	00000000 donehypclosedir14
00007c92 l       .text	00000000 errhyprmfile15
00007c96 l       .text	00000000 donehyprmfile15
00007ca6 l       .text	00000000 errhypclosedir16
00007ca8 l       .text	00000000 donehypclosedir16
00007eac l       .text	00000000 errhypchdir17
00007eb0 l       .text	00000000 donehypchdir17
0000802b l       .text	00000000 errhypchdir18
0000802f l       .text	00000000 donehypchdir18
0000814f l       .text	00000000 errhyp1att19
00008153 l       .text	00000000 donehyp1att19
00008321 l       .text	00000000 errhyp0att20
00008325 l       .text	00000000 donehyp0att20
000083d1 l       .text	00000000 errhypd81dosattach21
000083d5 l       .text	00000000 donehypd81dosattach21
000083e7 l       .text	00000000 errhypd81dosattach22
000083eb l       .text	00000000 donehypd81dosattach22
000083fa l     F .text	00000074 blockreadbyte
00008bd4 l     F .text	0000003c strlen
00008dd6 l     F .text	000000dc __udivmodhi4
0000897e l     F .text	00000027 do_dma
00000034 l     O .zp.bss	00000014 dmalist
0000210c g     F .text	00000090 main
00002090 g       .text	00000000 lpoke
000020b1 g       .text	00000000 lpeek
00000007 g       *ABS*	00000000 __rc5
00000008 g       *ABS*	00000000 __rc6
00000009 g       *ABS*	00000000 __rc7
0000000a g       *ABS*	00000000 __rc8
00000004 g       *ABS*	00000000 __rc2
00000005 g       *ABS*	00000000 __rc3
00000006 g       *ABS*	00000000 __rc4
00002048 g       .text	00000000 __after_main
0000203d g       .text	00000000 __do_copy_zp_data
000020f5 g     F .text	00000017 __copy_zp_data
00002037 g       .text	00000000 __do_zero_bss
000020cf g     F .text	00000013 __zero_bss
0000203a g       .text	00000000 __do_zero_zp_bss
000020e2 g     F .text	00000013 __zero_zp_bss
0000202f g       .text	00000000 __do_init_stack
00008ab8 g     F .text	00000005 exit
0000204b g       .text	00000000 _fini
0000ff81  w      *ABS*	00000000 CINT
0000ff84  w      *ABS*	00000000 IOINIT
0000ff87  w      *ABS*	00000000 RAMTAS
0000ff8a  w      *ABS*	00000000 RESTOR
0000ff8d  w      *ABS*	00000000 VECTOR
0000ff90  w      *ABS*	00000000 SETMSG
0000ff93  w      *ABS*	00000000 SECOND
0000ff96  w      *ABS*	00000000 TKSA
0000ff99  w      *ABS*	00000000 MEMTOP
0000ff9c  w      *ABS*	00000000 MEMBOT
0000ff9f  w      *ABS*	00000000 SCNKEY
0000ffa2  w      *ABS*	00000000 SETTMO
0000ffa5  w      *ABS*	00000000 ACPTR
0000ffa8  w      *ABS*	00000000 CIOUT
0000ffab  w      *ABS*	00000000 UNTLK
0000ffae  w      *ABS*	00000000 UNLSN
0000ffb1  w      *ABS*	00000000 LISTEN
0000ffb4  w      *ABS*	00000000 TALK
0000ffb7  w      *ABS*	00000000 READST
0000ffba  w      *ABS*	00000000 SETLFS
0000ffbd  w      *ABS*	00000000 SETNAM
0000ffc0  w      *ABS*	00000000 OPEN
0000ffc3  w      *ABS*	00000000 CLOSE
0000ffc6  w      *ABS*	00000000 CHKIN
0000ffc9  w      *ABS*	00000000 CKOUT
0000ffc9  w      *ABS*	00000000 CHKOUT
0000ffcc  w      *ABS*	00000000 CLRCH
0000ffcc  w      *ABS*	00000000 CLRCHN
0000ffcf  w      *ABS*	00000000 BASIN
0000ffcf  w      *ABS*	00000000 CHRIN
0000ffd2  w      *ABS*	00000000 BSOUT
0000ffd2  w      *ABS*	00000000 CHROUT
0000ffd5  w      *ABS*	00000000 LOAD
0000ffd8  w      *ABS*	00000000 SAVE
0000ffdb  w      *ABS*	00000000 SETTIM
0000ffde  w      *ABS*	00000000 RDTIM
0000ffe1  w      *ABS*	00000000 STOP
0000ffe4  w      *ABS*	00000000 GETIN
0000ffe7  w      *ABS*	00000000 CLALL
0000ffea  w      *ABS*	00000000 UDTIM
0000ffed  w      *ABS*	00000000 SCREEN
0000fff3  w      *ABS*	00000000 IOBASE
0000ffc6 g       *ABS*	00000000 __CHKIN
0000ffc9 g       *ABS*	00000000 __CKOUT
0000ffc9 g       *ABS*	00000000 __CHKOUT
0000ffcc g       *ABS*	00000000 __CLRCH
0000ffcc g       *ABS*	00000000 __CLRCHN
0000ffcf g       *ABS*	00000000 __BASIN
0000ffcf g       *ABS*	00000000 __CHRIN
0000ffd2 g       *ABS*	00000000 __BSOUT
0000ffd2 g       *ABS*	00000000 __CHROUT
0000ffe1 g       *ABS*	00000000 __STOP
0000ffe4 g       *ABS*	00000000 __GETIN
0000ffe7 g       *ABS*	00000000 __CLALL
0000ffea g       *ABS*	00000000 __UDTIM
0000ff81 g       *ABS*	00000000 __CINT
0000ff84 g       *ABS*	00000000 __IOINIT
0000ff87 g       *ABS*	00000000 __RAMTAS
0000ff8a g       *ABS*	00000000 __RESTOR
0000ff8d g       *ABS*	00000000 __VECTOR
0000ff90 g       *ABS*	00000000 __SETMSG
0000ff93 g       *ABS*	00000000 __SECOND
0000ff96 g       *ABS*	00000000 __TKSA
0000ff99 g       *ABS*	00000000 __MEMTOP
0000ff9c g       *ABS*	00000000 __MEMBOT
0000ff9f g       *ABS*	00000000 __SCNKEY
0000ffa2 g       *ABS*	00000000 __SETTMO
0000ffa5 g       *ABS*	00000000 __ACPTR
0000ffa8 g       *ABS*	00000000 __CIOUT
0000ffab g       *ABS*	00000000 __UNTLK
0000ffae g       *ABS*	00000000 __UNLSN
0000ffb1 g       *ABS*	00000000 __LISTEN
0000ffb4 g       *ABS*	00000000 __TALK
0000ffb7 g       *ABS*	00000000 __READST
0000ffba g       *ABS*	00000000 __SETLFS
0000ffbd g       *ABS*	00000000 __SETNAM
0000ffc0 g       *ABS*	00000000 __OPEN
0000ffc3 g       *ABS*	00000000 __CLOSE
0000ffd5 g       *ABS*	00000000 __LOAD
0000ffd8 g       *ABS*	00000000 __SAVE
0000ffdb g       *ABS*	00000000 __SETTIM
0000ffde g       *ABS*	00000000 __RDTIM
0000ffed g       *ABS*	00000000 __SCREEN
0000fff3 g       *ABS*	00000000 __IOBASE
00001000  w      *ABS*	00000000 __heap_default_limit
0000906c  w    F .text	0000002c memcpy
00009098  w    F .text	00000020 __memset
00002021 g       .text	00000000 _start
00000002 g       *ABS*	00000000 __basic_zp_start
00000002 g       *ABS*	00000000 __rc0
0000000c g       *ABS*	00000000 __rc10
0000000e g       *ABS*	00000000 __rc12
00000010 g       *ABS*	00000000 __rc14
00000012 g       *ABS*	00000000 __rc16
00000014 g       *ABS*	00000000 __rc18
00000016 g       *ABS*	00000000 __rc20
00000018 g       *ABS*	00000000 __rc22
0000001a g       *ABS*	00000000 __rc24
0000001c g       *ABS*	00000000 __rc26
0000001e g       *ABS*	00000000 __rc28
00000020 g       *ABS*	00000000 __rc30
00000021 g       *ABS*	00000000 __rc31
00000090 g       *ABS*	00000000 __basic_zp_end
0000001f g       *ABS*	00000000 __rc29
0000001d g       *ABS*	00000000 __rc27
0000001b g       *ABS*	00000000 __rc25
00000019 g       *ABS*	00000000 __rc23
00000017 g       *ABS*	00000000 __rc21
00000015 g       *ABS*	00000000 __rc19
00000013 g       *ABS*	00000000 __rc17
00000011 g       *ABS*	00000000 __rc15
0000000f g       *ABS*	00000000 __rc13
0000000d g       *ABS*	00000000 __rc11
0000000b g       *ABS*	00000000 __rc9
00000003 g       *ABS*	00000000 __rc1
00009ffa g       .noinit	00000000 __heap_start
00000022 g       .zp.data	00000000 __zp_data_start
00002017 g       *ABS*	00000000 __zp_data_load_start
0000000a g       *ABS*	00000000 __zp_data_size
0000002c g       .zp.bss	00000000 __zp_bss_start
0000001c g       *ABS*	00000000 __zp_bss_size
00002021 g       .text	00000000 _init
000090b8 g       .text	00000000 __init_array_start
000090b8 g       .text	00000000 __init_array_end
000090b8 g       .text	00000000 __fini_array_start
000090b8 g       .text	00000000 __fini_array_end
00009d1a g       .data	00000000 __data_start
00009d1a g       .data	00000000 __data_end
00009d1a g       *ABS*	00000000 __data_load_start
00000000 g       *ABS*	00000000 __data_size
00009d1a g       .bss	00000000 __bss_start
00009fde g       .bss	00000000 __bss_end
000002c4 g       *ABS*	00000000 __bss_size
0000d000 g       *ABS*	00000000 __stack

Disassembly of section .text:

00002021 <_start>:
    2021: 78           	sei
    2022: a2 2f        	ldx	#$2f
    2024: 86 00        	stx	$0                      ; 0x2000 <__heap_default_limit+0x1000>
    2026: a2 3e        	ldx	#$3e
    2028: 86 01        	stx	$1                      ; 0x2001 <__heap_default_limit+0x1001>
    202a: a2 44        	ldx	#$44
    202c: 8e 30 d0     	stx	$d030                   ; 0xd030 <__heap_start+0x3036>

0000202f <__do_init_stack>:
    202f: a9 00        	lda	#$0
    2031: 85 02        	sta	$2                      ; 0x2002 <__heap_default_limit+0x1002>
    2033: a9 d0        	lda	#$d0
    2035: 85 03        	sta	$3                      ; 0x2003 <__heap_default_limit+0x1003>

00002037 <__do_zero_bss>:
    2037: 20 cf 20     	jsr	$20cf <__zero_bss>

0000203a <__do_zero_zp_bss>:
    203a: 20 e2 20     	jsr	$20e2 <__zero_zp_bss>

0000203d <__do_copy_zp_data>:
    203d: 20 f5 20     	jsr	$20f5 <__copy_zp_data>

00002040 <shift>:
    2040: a9 0e        	lda	#$e
    2042: 20 d2 ff     	jsr	$ffd2 <__heap_start+0x5fd8>
    2045: 20 0c 21     	jsr	$210c <main>

00002048 <__after_main>:
    2048: 4c b8 8a     	jmp	$8ab8 <exit>

0000204b <_fini>:
    204b: a2 3f        	ldx	#$3f
    204d: 86 01        	stx	$1                      ; 0x2001 <__heap_default_limit+0x1001>
    204f: a2 64        	ldx	#$64
    2051: 8e 30 d0     	stx	$d030                   ; 0xd030 <__heap_start+0x3036>
    2054: 58           	cli
    2055: 60           	rts

00002056 <fourbytes>:
    2056: 00           	brk
    2057: 00           	brk
    2058: 00           	brk
    2059: 00           	brk

0000205a <lpstore>:
    205a: 48           	pha
    205b: ad 07 00     	lda	$7                      ; 0x7 <__rc5>
    205e: 8d 56 20     	sta	$2056                   ; 0x2056 <fourbytes>
    2061: ad 08 00     	lda	$8                      ; 0x8 <__rc6>
    2064: 8d 57 20     	sta	$2057                   ; 0x2057 <fourbytes+0x1>
    2067: ad 09 00     	lda	$9                      ; 0x9 <__rc7>
    206a: 8d 58 20     	sta	$2058                   ; 0x2058 <fourbytes+0x2>
    206d: ad 0a 00     	lda	$a                      ; 0xa <__zp_data_size>
    2070: 8d 59 20     	sta	$2059                   ; 0x2059 <fourbytes+0x3>
    2073: 68           	pla
    2074: 60           	rts

00002075 <lprestore>:
    2075: 48           	pha
    2076: ad 56 20     	lda	$2056                   ; 0x2056 <fourbytes>
    2079: 8d 07 00     	sta	$7                      ; 0x7 <__rc5>
    207c: ad 57 20     	lda	$2057                   ; 0x2057 <fourbytes+0x1>
    207f: 8d 08 00     	sta	$8                      ; 0x8 <__rc6>
    2082: ad 58 20     	lda	$2058                   ; 0x2058 <fourbytes+0x2>
    2085: 8d 09 00     	sta	$9                      ; 0x9 <__rc7>
    2088: ad 59 20     	lda	$2059                   ; 0x2059 <fourbytes+0x3>
    208b: 8d 0a 00     	sta	$a                      ; 0xa <__zp_data_size>
    208e: 68           	pla
    208f: 60           	rts

00002090 <lpoke>:
    2090: 20 5a 20     	jsr	$205a <lpstore>
    2093: 8d 07 00     	sta	$7                      ; 0x7 <__rc5>
    2096: 8e 08 00     	stx	$8                      ; 0x8 <__rc6>
    2099: ad 04 00     	lda	$4                      ; 0x4 <__rc2>
    209c: 8d 09 00     	sta	$9                      ; 0x9 <__rc7>
    209f: ad 05 00     	lda	$5                      ; 0x5 <__rc3>
    20a2: 8d 0a 00     	sta	$a                      ; 0xa <__zp_data_size>
    20a5: ad 06 00     	lda	$6                      ; 0x6 <__rc4>
    20a8: a3 00        	ldz	#$0
    20aa: ea 92 07     	sta	[$7],z                  ; 0x2007 <__heap_default_limit+0x1007>
    20ad: 20 75 20     	jsr	$2075 <lprestore>
    20b0: 60           	rts

000020b1 <lpeek>:
    20b1: 20 5a 20     	jsr	$205a <lpstore>
    20b4: 8d 06 00     	sta	$6                      ; 0x6 <__rc4>
    20b7: 8e 07 00     	stx	$7                      ; 0x7 <__rc5>
    20ba: ad 04 00     	lda	$4                      ; 0x4 <__rc2>
    20bd: 8d 08 00     	sta	$8                      ; 0x8 <__rc6>
    20c0: ad 05 00     	lda	$5                      ; 0x5 <__rc3>
    20c3: 8d 09 00     	sta	$9                      ; 0x9 <__rc7>
    20c6: a3 00        	ldz	#$0
    20c8: ea b2 06     	lda	[$6],z                  ; 0x2006 <__heap_default_limit+0x1006>
    20cb: 20 75 20     	jsr	$2075 <lprestore>
    20ce: 60           	rts

000020cf <__zero_bss>:
    20cf: a2 c4        	ldx	#$c4
    20d1: a0 02        	ldy	#$2
    20d3: a9 1a        	lda	#$1a
    20d5: 85 04        	sta	$4                      ; 0x2004 <__heap_default_limit+0x1004>
    20d7: a9 9d        	lda	#$9d
    20d9: 85 05        	sta	$5                      ; 0x2005 <__heap_default_limit+0x1005>
    20db: a9 00        	lda	#$0
    20dd: 84 06        	sty	$6                      ; 0x2006 <__heap_default_limit+0x1006>
    20df: 4c 98 90     	jmp	$9098 <__memset>

000020e2 <__zero_zp_bss>:
    20e2: a2 1c        	ldx	#$1c
    20e4: a0 00        	ldy	#$0
    20e6: a9 2c        	lda	#$2c
    20e8: 85 04        	sta	$4                      ; 0x2004 <__heap_default_limit+0x1004>
    20ea: a9 00        	lda	#$0
    20ec: 85 05        	sta	$5                      ; 0x2005 <__heap_default_limit+0x1005>
    20ee: a9 00        	lda	#$0
    20f0: 84 06        	sty	$6                      ; 0x2006 <__heap_default_limit+0x1006>
    20f2: 4c 98 90     	jmp	$9098 <__memset>

000020f5 <__copy_zp_data>:
    20f5: a9 0a        	lda	#$a
    20f7: a2 00        	ldx	#$0
    20f9: a0 22        	ldy	#$22
    20fb: 84 04        	sty	$4                      ; 0x2004 <__heap_default_limit+0x1004>
    20fd: a0 00        	ldy	#$0
    20ff: 84 05        	sty	$5                      ; 0x2005 <__heap_default_limit+0x1005>
    2101: a0 17        	ldy	#$17
    2103: 84 06        	sty	$6                      ; 0x2006 <__heap_default_limit+0x1006>
    2105: a0 20        	ldy	#$20
    2107: 84 07        	sty	$7                      ; 0x2007 <__heap_default_limit+0x1007>
    2109: 4c 6c 90     	jmp	$906c <memcpy>

0000210c <main>:
    210c: ad 31 d0     	lda	$d031                   ; 0xd031 <__heap_start+0x3037>
    210f: 09 80        	ora	#$80
    2111: 8d 31 d0     	sta	$d031                   ; 0xd031 <__heap_start+0x3037>
    2114: a2 50        	ldx	#$50
    2116: 8e 4c d0     	stx	$d04c                   ; 0xd04c <__heap_start+0x3052>
    2119: ad 31 d0     	lda	$d031                   ; 0xd031 <__heap_start+0x3037>
    211c: 29 f7        	and	#$f7
    211e: 8d 31 d0     	sta	$d031                   ; 0xd031 <__heap_start+0x3037>
    2121: 86 30        	stx	$30                     ; 0x2030 <__do_init_stack+0x1>
    2123: a2 19        	ldx	#$19
    2125: 86 31        	stx	$31                     ; 0x2031 <__do_init_stack+0x2>
    2127: a0 47        	ldy	#$47
    2129: 8c 2f d0     	sty	$d02f                   ; 0xd02f <__heap_start+0x3035>
    212c: a0 53        	ldy	#$53
    212e: 8c 2f d0     	sty	$d02f                   ; 0xd02f <__heap_start+0x3035>
    2131: ad 5d d0     	lda	$d05d                   ; 0xd05d <__heap_start+0x3063>
    2134: 29 7f        	and	#$7f
    2136: 8d 5d d0     	sta	$d05d                   ; 0xd05d <__heap_start+0x3063>
    2139: 9c 68 d0     	stz	$d068                   ; 0xd068 <__heap_start+0x306e>
    213c: a0 d8        	ldy	#$d8
    213e: 8c 69 d0     	sty	$d069                   ; 0xd069 <__heap_start+0x306f>
    2141: a0 02        	ldy	#$2
    2143: 8c 6a d0     	sty	$d06a                   ; 0xd06a <__heap_start+0x3070>
    2146: ad 31 d0     	lda	$d031                   ; 0xd031 <__heap_start+0x3037>
    2149: a0 28        	ldy	#$28
    214b: c9 00        	cmp	#$0
    214d: 10 02        	bpl	$2151 <main+0x45>
    214f: a0 50        	ldy	#$50
    2151: 84 30        	sty	$30                     ; 0x2030 <__do_init_stack+0x1>
    2153: ad 31 d0     	lda	$d031                   ; 0xd031 <__heap_start+0x3037>
    2156: 29 08        	and	#$8
    2158: f0 02        	beq	$215c <main+0x50>
    215a: a2 32        	ldx	#$32
    215c: 86 31        	stx	$31                     ; 0x2031 <__do_init_stack+0x2>
    215e: 20 1d 87     	jsr	$871d <flushkeybuf>
    2161: a9 f0        	lda	#$f0
    2163: 25 2b        	and	$2b                     ; 0x202b <_start+0xa>
    2165: 09 03        	ora	#$3
    2167: 85 2b        	sta	$2b                     ; 0x202b <_start+0xa>
    2169: 9c 20 d0     	stz	$d020                   ; 0xd020 <__heap_start+0x3026>
    216c: a2 06        	ldx	#$6
    216e: 8e 21 d0     	stx	$d021                   ; 0xd021 <__heap_start+0x3027>
    2171: 20 2f 42     	jsr	$422f <clrhome>
    2174: 20 aa 56     	jsr	$56aa <navi>
    2177: 20 2f 42     	jsr	$422f <clrhome>
    217a: a2 a4        	ldx	#$a4
    217c: 86 04        	stx	$4                      ; 0x2004 <__heap_default_limit+0x1004>
    217e: a2 93        	ldx	#$93
    2180: 86 05        	stx	$5                      ; 0x2005 <__heap_default_limit+0x1005>
    2182: 20 8d 42     	jsr	$428d <msprintf>
    2185: a9 80        	lda	#$80
    2187: a2 84        	ldx	#$84
    2189: a0 1e        	ldy	#$1e
    218b: 84 04        	sty	$4                      ; 0x2004 <__heap_default_limit+0x1004>
    218d: 64 05        	stz	$5                      ; 0x2005 <__heap_default_limit+0x1005>
    218f: 20 5c 8a     	jsr	$8a5c <usleep>
    2192: a2 00        	ldx	#$0
    2194: a9 7e        	lda	#$7e
    2196: 8d 40 d6     	sta	$d640                   ; 0xd640 <__heap_start+0x3646>
    2199: b8           	clv
    219a: 8a           	txa
    219b: 60           	rts

0000219c <hyppo_setname>:
    219c: a6 04        	ldx	$4                      ; 0x2004 <__heap_default_limit+0x1004>
    219e: 86 06        	stx	$6                      ; 0x2006 <__heap_default_limit+0x1006>
    21a0: a6 05        	ldx	$5                      ; 0x2005 <__heap_default_limit+0x1005>
    21a2: 86 07        	stx	$7                      ; 0x2007 <__heap_default_limit+0x1007>
    21a4: a2 1c        	ldx	#$1c
    21a6: a0 00        	ldy	#$0
    21a8: 84 04        	sty	$4                      ; 0x2004 <__heap_default_limit+0x1004>
    21aa: a0 1c        	ldy	#$1c
    21ac: 84 05        	sty	$5                      ; 0x2005 <__heap_default_limit+0x1005>
    21ae: 8e 1a 9d     	stx	$9d1a                   ; 0x9d1a <fnamehi.2>
    21b1: 20 96 8b     	jsr	$8b96 <strcpy>
    21b4: ac 1a 9d     	ldy	$9d1a                   ; 0x9d1a <fnamehi.2>
    21b7: a2 00        	ldx	#$0
    21b9: a9 2e        	lda	#$2e
    21bb: 8d 40 d6     	sta	$d640                   ; 0xd640 <__heap_start+0x3646>
    21be: b8           	clv
    21bf: 90 07        	bcc	$21c8 <errhypsetnam0>
    21c1: a9 00        	lda	#$0
    21c3: 85 04        	sta	$4                      ; 0x2004 <__heap_default_limit+0x1004>
    21c5: 4c cc 21     	jmp	$21cc <donehypsetnam0>

000021c8 <errhypsetnam0>:
    21c8: a9 ff        	lda	#$ff
    21ca: 85 04        	sta	$4                      ; 0x2004 <__heap_default_limit+0x1004>

000021cc <donehypsetnam0>:
    21cc: ea           	nop
    21cd: 60           	rts

000021ce <getsfn>:
    21ce: a2 00        	ldx	#$0
    21d0: a0 00        	ldy	#$0
    21d2: 80 0e        	bra	$21e2 <getsfn+0x14>
    21d4: c9 21        	cmp	#$21
    21d6: 90 09        	bcc	$21e1 <getsfn+0x13>
    21d8: 84 04        	sty	$4                      ; 0x2004 <__heap_default_limit+0x1004>
    21da: e6 04        	inc	$4                      ; 0x2004 <__heap_default_limit+0x1004>
    21dc: 99 41 1c     	sta	$1c41,y                 ; 0x1c41 <__heap_default_limit+0xc41>
    21df: a4 04        	ldy	$4                      ; 0x2004 <__heap_default_limit+0x1004>
    21e1: e8           	inx
    21e2: e0 08        	cpx	#$8
    21e4: f0 07        	beq	$21ed <getsfn+0x1f>
    21e6: bd 41 1b     	lda	$1b41,x                 ; 0x1b41 <__heap_default_limit+0xb41>
    21e9: c9 20        	cmp	#$20
    21eb: d0 e7        	bne	$21d4 <getsfn+0x6>
    21ed: 64 05        	stz	$5                      ; 0x2005 <__heap_default_limit+0x1005>
    21ef: a9 2e        	lda	#$2e
    21f1: 99 41 1c     	sta	$1c41,y                 ; 0x1c41 <__heap_default_limit+0xc41>
    21f4: 98           	tya
    21f5: 1a           	inc
    21f6: a2 00        	ldx	#$0
    21f8: 85 04        	sta	$4                      ; 0x2004 <__heap_default_limit+0x1004>
    21fa: 80 10        	bra	$220c <getsfn+0x3e>
    21fc: c9 21        	cmp	#$21
    21fe: 90 0b        	bcc	$220b <getsfn+0x3d>
    2200: 84 06        	sty	$6                      ; 0x2006 <__heap_default_limit+0x1006>
    2202: a4 04        	ldy	$4                      ; 0x2004 <__heap_default_limit+0x1004>
    2204: 99 41 1c     	sta	$1c41,y                 ; 0x1c41 <__heap_default_limit+0xc41>
    2207: a4 06        	ldy	$6                      ; 0x2006 <__heap_default_limit+0x1006>
    2209: e6 04        	inc	$4                      ; 0x2004 <__heap_default_limit+0x1004>
    220b: e8           	inx
    220c: e0 03        	cpx	#$3
    220e: f0 07        	beq	$2217 <getsfn+0x49>
    2210: bd 49 1b     	lda	$1b49,x                 ; 0x1b49 <__heap_default_limit+0xb49>
    2213: c9 20        	cmp	#$20
    2215: d0 e5        	bne	$21fc <getsfn+0x2e>
    2217: 98           	tya
    2218: 1a           	inc
    2219: d0 02        	bne	$221d <getsfn+0x4f>
    221b: e6 05        	inc	$5                      ; 0x2005 <__heap_default_limit+0x1005>
    221d: a6 05        	ldx	$5                      ; 0x2005 <__heap_default_limit+0x1005>
    221f: d0 0a        	bne	$222b <getsfn+0x5d>
    2221: a6 04        	ldx	$4                      ; 0x2004 <__heap_default_limit+0x1004>
    2223: c5 04        	cmp	$4                      ; 0x2004 <__heap_default_limit+0x1004>
    2225: d0 06        	bne	$222d <getsfn+0x5f>
    2227: 5a           	phy
    2228: fa           	plx
    2229: 80 02        	bra	$222d <getsfn+0x5f>
    222b: a6 04        	ldx	$4                      ; 0x2004 <__heap_default_limit+0x1004>
    222d: 9e 41 1c     	stz	$1c41,x                 ; 0x1c41 <__heap_default_limit+0xc41>
    2230: 60           	rts

00002231 <ShowAccess>:
    2231: a8           	tay
    2232: a5 05        	lda	$5                      ; 0x2005 <__heap_default_limit+0x1005>
    2234: c9 02        	cmp	#$2
    2236: f0 03        	beq	$223b <ShowAccess+0xa>
    2238: 4c e2 22     	jmp	$22e2 <ShowAccess+0xb1>
    223b: a9 f0        	lda	#$f0
    223d: 25 2b        	and	$2b                     ; 0x202b <_start+0xa>
    223f: 09 03        	ora	#$3
    2241: 85 2b        	sta	$2b                     ; 0x202b <_start+0xa>
    2243: a5 30        	lda	$30                     ; 0x2030 <__do_init_stack+0x1>
    2245: a2 16        	ldx	#$16
    2247: 64 05        	stz	$5                      ; 0x2005 <__heap_default_limit+0x1005>
    2249: 86 04        	stx	$4                      ; 0x2004 <__heap_default_limit+0x1004>
    224b: a2 00        	ldx	#$0
    224d: 20 2e 8c     	jsr	$8c2e <__mulhi3>
    2250: 18           	clc
    2251: 69 1a        	adc	#$1a
    2253: a8           	tay
    2254: 85 6a        	sta	$6a                     ; 0x206a <lpstore+0x10>
    2256: 8a           	txa
    2257: 69 00        	adc	#$0
    2259: 85 69        	sta	$69                     ; 0x2069 <lpstore+0xf>
    225b: ad 63 d0     	lda	$d063                   ; 0xd063 <__heap_start+0x3069>
    225e: 29 07        	and	#$7
    2260: 85 09        	sta	$9                      ; 0x2009 <__heap_default_limit+0x1009>
    2262: ae 62 d0     	ldx	$d062                   ; 0xd062 <__heap_start+0x3068>
    2265: 86 08        	stx	$8                      ; 0x2008 <__heap_default_limit+0x1008>
    2267: ae 61 d0     	ldx	$d061                   ; 0xd061 <__heap_start+0x3067>
    226a: 86 04        	stx	$4                      ; 0x2004 <__heap_default_limit+0x1004>
    226c: ae 60 d0     	ldx	$d060                   ; 0xd060 <__heap_start+0x3066>
    226f: 86 05        	stx	$5                      ; 0x2005 <__heap_default_limit+0x1005>
    2271: 18           	clc
    2272: 98           	tya
    2273: 69 00        	adc	#$0
    2275: 85 07        	sta	$7                      ; 0x2007 <__heap_default_limit+0x1007>
    2277: a6 69        	ldx	$69                     ; 0x2069 <lpstore+0xf>
    2279: 8a           	txa
    227a: 65 04        	adc	$4                      ; 0x2004 <__heap_default_limit+0x1004>
    227c: aa           	tax
    227d: a5 08        	lda	$8                      ; 0x2008 <__heap_default_limit+0x1008>
    227f: 69 00        	adc	#$0
    2281: 85 04        	sta	$4                      ; 0x2004 <__heap_default_limit+0x1004>
    2283: a5 09        	lda	$9                      ; 0x2009 <__heap_default_limit+0x1009>
    2285: 69 00        	adc	#$0
    2287: 85 06        	sta	$6                      ; 0x2006 <__heap_default_limit+0x1006>
    2289: a5 07        	lda	$7                      ; 0x2007 <__heap_default_limit+0x1007>
    228b: 18           	clc
    228c: 65 05        	adc	$5                      ; 0x2005 <__heap_default_limit+0x1005>
    228e: a8           	tay
    228f: 8a           	txa
    2290: 69 00        	adc	#$0
    2292: 85 09        	sta	$9                      ; 0x2009 <__heap_default_limit+0x1009>
    2294: a5 04        	lda	$4                      ; 0x2004 <__heap_default_limit+0x1004>
    2296: 69 00        	adc	#$0
    2298: 85 04        	sta	$4                      ; 0x2004 <__heap_default_limit+0x1004>
    229a: a5 06        	lda	$6                      ; 0x2006 <__heap_default_limit+0x1006>
    229c: 69 00        	adc	#$0
    229e: a2 20        	ldx	#$20
    22a0: 85 05        	sta	$5                      ; 0x2005 <__heap_default_limit+0x1005>
    22a2: 86 06        	stx	$6                      ; 0x2006 <__heap_default_limit+0x1006>
    22a4: a2 0c        	ldx	#$c
    22a6: 86 07        	stx	$7                      ; 0x2007 <__heap_default_limit+0x1007>
    22a8: 64 08        	stz	$8                      ; 0x2008 <__heap_default_limit+0x1008>
    22aa: a6 09        	ldx	$9                      ; 0x2009 <__heap_default_limit+0x1009>
    22ac: 98           	tya
    22ad: 20 0c 8a     	jsr	$8a0c <lfill>
    22b0: a6 2b        	ldx	$2b                     ; 0x202b <_start+0xa>
    22b2: a0 f8        	ldy	#$f8
    22b4: a9 0f        	lda	#$f
    22b6: 84 04        	sty	$4                      ; 0x2004 <__heap_default_limit+0x1004>
    22b8: 85 05        	sta	$5                      ; 0x2005 <__heap_default_limit+0x1005>
    22ba: 86 06        	stx	$6                      ; 0x2006 <__heap_default_limit+0x1006>
    22bc: a2 0c        	ldx	#$c
    22be: 86 07        	stx	$7                      ; 0x2007 <__heap_default_limit+0x1007>
    22c0: 64 08        	stz	$8                      ; 0x2008 <__heap_default_limit+0x1008>
    22c2: a6 69        	ldx	$69                     ; 0x2069 <lpstore+0xf>
    22c4: a5 6a        	lda	$6a                     ; 0x206a <lpstore+0x10>
    22c6: 20 0c 8a     	jsr	$8a0c <lfill>
    22c9: a6 30        	ldx	$30                     ; 0x2030 <__do_init_stack+0x1>
    22cb: a0 68        	ldy	#$68
    22cd: a9 00        	lda	#$0
    22cf: 84 04        	sty	$4                      ; 0x2004 <__heap_default_limit+0x1004>
    22d1: 85 05        	sta	$5                      ; 0x2005 <__heap_default_limit+0x1005>
    22d3: a9 26        	lda	#$26
    22d5: 20 66 8d     	jsr	$8d66 <__udivmodqi4>
    22d8: a6 68        	ldx	$68                     ; 0x2068 <lpstore+0xe>
    22da: 18           	clc
    22db: 69 16        	adc	#$16
    22dd: 85 33        	sta	$33                     ; 0x2033 <__do_init_stack+0x4>
    22df: 86 32        	stx	$32                     ; 0x2032 <__do_init_stack+0x3>
    22e1: 60           	rts
    22e2: 85 69        	sta	$69                     ; 0x2069 <lpstore+0xf>
    22e4: a9 04        	lda	#$4
    22e6: 25 2f        	and	$2f                     ; 0x202f <__do_init_stack>
    22e8: d0 03        	bne	$22ed <ShowAccess+0xbc>
    22ea: 4c a9 23     	jmp	$23a9 <ShowAccess+0x178>
    22ed: a5 2b        	lda	$2b                     ; 0x202b <_start+0xa>
    22ef: c0 00        	cpy	#$0
    22f1: f0 0c        	beq	$22ff <ShowAccess+0xce>
    22f3: 84 6c        	sty	$6c                     ; 0x206c <lpstore+0x12>
    22f5: 86 6b        	stx	$6b                     ; 0x206b <lpstore+0x11>
    22f7: a6 04        	ldx	$4                      ; 0x2004 <__heap_default_limit+0x1004>
    22f9: 86 6a        	stx	$6a                     ; 0x206a <lpstore+0x10>
    22fb: a2 0d        	ldx	#$d
    22fd: 80 0a        	bra	$2309 <ShowAccess+0xd8>
    22ff: 84 6c        	sty	$6c                     ; 0x206c <lpstore+0x12>
    2301: 86 6b        	stx	$6b                     ; 0x206b <lpstore+0x11>
    2303: a6 04        	ldx	$4                      ; 0x2004 <__heap_default_limit+0x1004>
    2305: 86 6a        	stx	$6a                     ; 0x206a <lpstore+0x10>
    2307: a2 0f        	ldx	#$f
    2309: 86 04        	stx	$4                      ; 0x2004 <__heap_default_limit+0x1004>
    230b: 29 d0        	and	#$d0
    230d: 86 6d        	stx	$6d                     ; 0x206d <lpstore+0x13>
    230f: 05 04        	ora	$4                      ; 0x2004 <__heap_default_limit+0x1004>
    2311: 09 20        	ora	#$20
    2313: 85 2b        	sta	$2b                     ; 0x202b <_start+0xa>
    2315: a9 1a        	lda	#$1a
    2317: a2 16        	ldx	#$16
    2319: a0 2f        	ldy	#$2f
    231b: 84 04        	sty	$4                      ; 0x2004 <__heap_default_limit+0x1004>
    231d: a0 93        	ldy	#$93
    231f: 84 05        	sty	$5                      ; 0x2005 <__heap_default_limit+0x1005>
    2321: 20 c6 42     	jsr	$42c6 <mcputsxy>
    2324: a2 01        	ldx	#$1
    2326: 64 04        	stz	$4                      ; 0x2004 <__heap_default_limit+0x1004>
    2328: 64 05        	stz	$5                      ; 0x2005 <__heap_default_limit+0x1005>
    232a: 86 06        	stx	$6                      ; 0x2006 <__heap_default_limit+0x1006>
    232c: ca           	dex
    232d: a5 6c        	lda	$6c                     ; 0x206c <lpstore+0x12>
    232f: 20 0f 41     	jsr	$410f <csputdec>
    2332: a9 f0        	lda	#$f0
    2334: 25 2b        	and	$2b                     ; 0x202b <_start+0xa>
    2336: 09 08        	ora	#$8
    2338: 85 2b        	sta	$2b                     ; 0x202b <_start+0xa>
    233a: a9 54        	lda	#$54
    233c: 20 3f 87     	jsr	$873f <cputc>
    233f: a2 02        	ldx	#$2
    2341: 64 04        	stz	$4                      ; 0x2004 <__heap_default_limit+0x1004>
    2343: 64 05        	stz	$5                      ; 0x2005 <__heap_default_limit+0x1005>
    2345: 86 06        	stx	$6                      ; 0x2006 <__heap_default_limit+0x1006>
    2347: a2 00        	ldx	#$0
    2349: a5 6b        	lda	$6b                     ; 0x206b <lpstore+0x11>
    234b: 20 0f 41     	jsr	$410f <csputdec>
    234e: a9 f0        	lda	#$f0
    2350: 25 2b        	and	$2b                     ; 0x202b <_start+0xa>
    2352: 09 0e        	ora	#$e
    2354: 85 2b        	sta	$2b                     ; 0x202b <_start+0xa>
    2356: a9 53        	lda	#$53
    2358: 20 3f 87     	jsr	$873f <cputc>
    235b: 64 04        	stz	$4                      ; 0x2004 <__heap_default_limit+0x1004>
    235d: 64 05        	stz	$5                      ; 0x2005 <__heap_default_limit+0x1005>
    235f: a2 02        	ldx	#$2
    2361: 86 06        	stx	$6                      ; 0x2006 <__heap_default_limit+0x1006>
    2363: a2 00        	ldx	#$0
    2365: a5 6a        	lda	$6a                     ; 0x206a <lpstore+0x10>
    2367: 20 0f 41     	jsr	$410f <csputdec>
    236a: a9 20        	lda	#$20
    236c: 20 3f 87     	jsr	$873f <cputc>
    236f: a9 f0        	lda	#$f0
    2371: 25 2b        	and	$2b                     ; 0x202b <_start+0xa>
    2373: a2 57        	ldx	#$57
    2375: a0 02        	ldy	#$2
    2377: 84 04        	sty	$4                      ; 0x2004 <__heap_default_limit+0x1004>
    2379: a4 69        	ldy	$69                     ; 0x2069 <lpstore+0xf>
    237b: c0 01        	cpy	#$1
    237d: f0 06        	beq	$2385 <ShowAccess+0x154>
    237f: a2 52        	ldx	#$52
    2381: a0 08        	ldy	#$8
    2383: 84 04        	sty	$4                      ; 0x2004 <__heap_default_limit+0x1004>
    2385: 05 04        	ora	$4                      ; 0x2004 <__heap_default_limit+0x1004>
    2387: 85 2b        	sta	$2b                     ; 0x202b <_start+0xa>
    2389: 8a           	txa
    238a: 20 3f 87     	jsr	$873f <cputc>
    238d: a9 f0        	lda	#$f0
    238f: 25 2b        	and	$2b                     ; 0x202b <_start+0xa>
    2391: a6 6d        	ldx	$6d                     ; 0x206d <lpstore+0x13>
    2393: 86 04        	stx	$4                      ; 0x2004 <__heap_default_limit+0x1004>
    2395: 05 04        	ora	$4                      ; 0x2004 <__heap_default_limit+0x1004>
    2397: 85 2b        	sta	$2b                     ; 0x202b <_start+0xa>
    2399: a9 20        	lda	#$20
    239b: 20 3f 87     	jsr	$873f <cputc>
    239e: a9 df        	lda	#$df
    23a0: 25 2b        	and	$2b                     ; 0x202b <_start+0xa>
    23a2: 85 2b        	sta	$2b                     ; 0x202b <_start+0xa>
    23a4: a9 20        	lda	#$20
    23a6: 20 3f 87     	jsr	$873f <cputc>
    23a9: 60           	rts

000023aa <ReadSector>:
    23aa: 86 63        	stx	$63                     ; 0x2063 <lpstore+0x9>
    23ac: 64 05        	stz	$5                      ; 0x2005 <__heap_default_limit+0x1005>
    23ae: a4 04        	ldy	$4                      ; 0x2004 <__heap_default_limit+0x1004>
    23b0: 84 64        	sty	$64                     ; 0x2064 <lpstore+0xa>
    23b2: 85 62        	sta	$62                     ; 0x2062 <lpstore+0x8>
    23b4: 20 31 22     	jsr	$2231 <ShowAccess>
    23b7: a5 63        	lda	$63                     ; 0x2063 <lpstore+0x9>
    23b9: f0 15        	beq	$23d0 <ReadSector+0x26>
    23bb: a4 64        	ldy	$64                     ; 0x2064 <lpstore+0xa>
    23bd: c0 14        	cpy	#$14
    23bf: a2 01        	ldx	#$1
    23c1: b0 02        	bcs	$23c5 <ReadSector+0x1b>
    23c3: a2 00        	ldx	#$0
    23c5: 86 65        	stx	$65                     ; 0x2065 <lpstore+0xb>
    23c7: a5 62        	lda	$62                     ; 0x2062 <lpstore+0x8>
    23c9: b0 08        	bcs	$23d3 <ReadSector+0x29>
    23cb: 18           	clc
    23cc: 69 28        	adc	#$28
    23ce: 80 06        	bra	$23d6 <ReadSector+0x2c>
    23d0: a9 fc        	lda	#$fc
    23d2: 60           	rts
    23d3: 18           	clc
    23d4: 69 20        	adc	#$20
    23d6: a6 2c        	ldx	$2c                     ; 0x202c <_start+0xb>
    23d8: 84 62        	sty	$62                     ; 0x2062 <lpstore+0x8>
    23da: 84 04        	sty	$4                      ; 0x2004 <__heap_default_limit+0x1004>
    23dc: 46 04        	lsr	$4                      ; 0x2004 <__heap_default_limit+0x1004>
    23de: a4 04        	ldy	$4                      ; 0x2004 <__heap_default_limit+0x1004>
    23e0: 84 66        	sty	$66                     ; 0x2066 <lpstore+0xc>
    23e2: 85 04        	sta	$4                      ; 0x2004 <__heap_default_limit+0x1004>
    23e4: e4 04        	cpx	$4                      ; 0x2004 <__heap_default_limit+0x1004>
    23e6: d0 13        	bne	$23fb <ReadSector+0x51>
    23e8: a6 2d        	ldx	$2d                     ; 0x202d <_start+0xc>
    23ea: a4 63        	ldy	$63                     ; 0x2063 <lpstore+0x9>
    23ec: 84 04        	sty	$4                      ; 0x2004 <__heap_default_limit+0x1004>
    23ee: e4 04        	cpx	$4                      ; 0x2004 <__heap_default_limit+0x1004>
    23f0: d0 09        	bne	$23fb <ReadSector+0x51>
    23f2: a6 66        	ldx	$66                     ; 0x2066 <lpstore+0xc>
    23f4: e4 2e        	cpx	$2e                     ; 0x202e <_start+0xd>
    23f6: d0 03        	bne	$23fb <ReadSector+0x51>
    23f8: 4c 68 24     	jmp	$2468 <ReadSector+0xbe>
    23fb: 8d 80 d0     	sta	$d080                   ; 0xd080 <__heap_start+0x3086>
    23fe: a6 2c        	ldx	$2c                     ; 0x202c <_start+0xb>
    2400: 85 67        	sta	$67                     ; 0x2067 <lpstore+0xd>
    2402: 85 04        	sta	$4                      ; 0x2004 <__heap_default_limit+0x1004>
    2404: e4 04        	cpx	$4                      ; 0x2004 <__heap_default_limit+0x1004>
    2406: f0 0a        	beq	$2412 <ReadSector+0x68>
    2408: a2 20        	ldx	#$20
    240a: 8e 81 d0     	stx	$d081                   ; 0xd081 <__heap_start+0x3087>
    240d: ae 82 d0     	ldx	$d082                   ; 0xd082 <__heap_start+0x3088>
    2410: 30 fb        	bmi	$240d <ReadSector+0x63>
    2412: a6 63        	ldx	$63                     ; 0x2063 <lpstore+0x9>
    2414: ca           	dex
    2415: 8e 84 d0     	stx	$d084                   ; 0xd084 <__heap_start+0x308a>
    2418: a2 14        	ldx	#$14
    241a: a5 62        	lda	$62                     ; 0x2062 <lpstore+0x8>
    241c: 20 21 8d     	jsr	$8d21 <__umodqi3>
    241f: 4a           	lsr
    2420: 1a           	inc
    2421: 8d 85 d0     	sta	$d085                   ; 0xd085 <__heap_start+0x308b>
    2424: a6 65        	ldx	$65                     ; 0x2065 <lpstore+0xb>
    2426: f0 04        	beq	$242c <ReadSector+0x82>
    2428: a2 01        	ldx	#$1
    242a: 80 02        	bra	$242e <ReadSector+0x84>
    242c: a2 00        	ldx	#$0
    242e: 8e 86 d0     	stx	$d086                   ; 0xd086 <__heap_start+0x308c>
    2431: a2 41        	ldx	#$41
    2433: 8e 81 d0     	stx	$d081                   ; 0xd081 <__heap_start+0x3087>
    2436: ae 82 d0     	ldx	$d082                   ; 0xd082 <__heap_start+0x3088>
    2439: 30 fb        	bmi	$2436 <ReadSector+0x8c>
    243b: ad 82 d0     	lda	$d082                   ; 0xd082 <__heap_start+0x3088>
    243e: 29 18        	and	#$18
    2440: f0 12        	beq	$2454 <ReadSector+0xaa>
    2442: 64 2d        	stz	$2d                     ; 0x202d <_start+0xc>
    2444: ae 82 d0     	ldx	$d082                   ; 0xd082 <__heap_start+0x3088>
    2447: a2 40        	ldx	#$40
    2449: 8e 80 d0     	stx	$d080                   ; 0xd080 <__heap_start+0x3086>
    244c: a2 02        	ldx	#$2
    244e: 8e 20 d0     	stx	$d020                   ; 0xd020 <__heap_start+0x3026>
    2451: a9 ff        	lda	#$ff
    2453: 60           	rts
    2454: ad 89 d6     	lda	$d689                   ; 0xd689 <__heap_start+0x368f>
    2457: 29 7f        	and	#$7f
    2459: 8d 89 d6     	sta	$d689                   ; 0xd689 <__heap_start+0x368f>
    245c: a5 67        	lda	$67                     ; 0x2067 <lpstore+0xd>
    245e: 85 2c        	sta	$2c                     ; 0x202c <_start+0xb>
    2460: a6 63        	ldx	$63                     ; 0x2063 <lpstore+0x9>
    2462: 86 2d        	stx	$2d                     ; 0x202d <_start+0xc>
    2464: a6 66        	ldx	$66                     ; 0x2066 <lpstore+0xc>
    2466: 86 2e        	stx	$2e                     ; 0x202e <_start+0xd>
    2468: a6 62        	ldx	$62                     ; 0x2062 <lpstore+0x8>
    246a: 86 04        	stx	$4                      ; 0x2004 <__heap_default_limit+0x1004>
    246c: a8           	tay
    246d: a5 62        	lda	$62                     ; 0x2062 <lpstore+0x8>
    246f: 29 01        	and	#$1
    2471: 85 62        	sta	$62                     ; 0x2062 <lpstore+0x8>
    2473: a2 02        	ldx	#$2
    2475: 86 05        	stx	$5                      ; 0x2005 <__heap_default_limit+0x1005>
    2477: a6 63        	ldx	$63                     ; 0x2063 <lpstore+0x9>
    2479: 98           	tya
    247a: 20 31 22     	jsr	$2231 <ShowAccess>
    247d: a5 62        	lda	$62                     ; 0x2062 <lpstore+0x8>
    247f: 60           	rts

00002480 <WriteSector>:
    2480: 86 62        	stx	$62                     ; 0x2062 <lpstore+0x8>
    2482: a2 01        	ldx	#$1
    2484: a4 04        	ldy	$4                      ; 0x2004 <__heap_default_limit+0x1004>
    2486: 84 64        	sty	$64                     ; 0x2064 <lpstore+0xa>
    2488: 86 05        	stx	$5                      ; 0x2005 <__heap_default_limit+0x1005>
    248a: a6 62        	ldx	$62                     ; 0x2062 <lpstore+0x8>
    248c: 85 63        	sta	$63                     ; 0x2063 <lpstore+0x9>
    248e: 20 31 22     	jsr	$2231 <ShowAccess>
    2491: 64 2d        	stz	$2d                     ; 0x202d <_start+0xc>
    2493: a5 62        	lda	$62                     ; 0x2062 <lpstore+0x8>
    2495: f0 15        	beq	$24ac <WriteSector+0x2c>
    2497: a6 64        	ldx	$64                     ; 0x2064 <lpstore+0xa>
    2499: e0 14        	cpx	#$14
    249b: a2 01        	ldx	#$1
    249d: b0 02        	bcs	$24a1 <WriteSector+0x21>
    249f: a2 00        	ldx	#$0
    24a1: 86 65        	stx	$65                     ; 0x2065 <lpstore+0xb>
    24a3: a5 63        	lda	$63                     ; 0x2063 <lpstore+0x9>
    24a5: b0 08        	bcs	$24af <WriteSector+0x2f>
    24a7: 18           	clc
    24a8: 69 28        	adc	#$28
    24aa: 80 06        	bra	$24b2 <WriteSector+0x32>
    24ac: a9 fc        	lda	#$fc
    24ae: 60           	rts
    24af: 18           	clc
    24b0: 69 20        	adc	#$20
    24b2: 8d 80 d0     	sta	$d080                   ; 0xd080 <__heap_start+0x3086>
    24b5: a6 2c        	ldx	$2c                     ; 0x202c <_start+0xb>
    24b7: 85 66        	sta	$66                     ; 0x2066 <lpstore+0xc>
    24b9: 85 04        	sta	$4                      ; 0x2004 <__heap_default_limit+0x1004>
    24bb: e4 04        	cpx	$4                      ; 0x2004 <__heap_default_limit+0x1004>
    24bd: f0 0a        	beq	$24c9 <WriteSector+0x49>
    24bf: a2 20        	ldx	#$20
    24c1: 8e 81 d0     	stx	$d081                   ; 0xd081 <__heap_start+0x3087>
    24c4: ae 82 d0     	ldx	$d082                   ; 0xd082 <__heap_start+0x3088>
    24c7: 30 fb        	bmi	$24c4 <WriteSector+0x44>
    24c9: a6 62        	ldx	$62                     ; 0x2062 <lpstore+0x8>
    24cb: ca           	dex
    24cc: 8e 84 d0     	stx	$d084                   ; 0xd084 <__heap_start+0x308a>
    24cf: a2 14        	ldx	#$14
    24d1: a5 64        	lda	$64                     ; 0x2064 <lpstore+0xa>
    24d3: 20 21 8d     	jsr	$8d21 <__umodqi3>
    24d6: 4a           	lsr
    24d7: 1a           	inc
    24d8: 8d 85 d0     	sta	$d085                   ; 0xd085 <__heap_start+0x308b>
    24db: a6 65        	ldx	$65                     ; 0x2065 <lpstore+0xb>
    24dd: f0 04        	beq	$24e3 <WriteSector+0x63>
    24df: a2 01        	ldx	#$1
    24e1: 80 02        	bra	$24e5 <WriteSector+0x65>
    24e3: a2 00        	ldx	#$0
    24e5: a5 64        	lda	$64                     ; 0x2064 <lpstore+0xa>
    24e7: 29 01        	and	#$1
    24e9: 85 63        	sta	$63                     ; 0x2063 <lpstore+0x9>
    24eb: 8e 86 d0     	stx	$d086                   ; 0xd086 <__heap_start+0x308c>
    24ee: a2 84        	ldx	#$84
    24f0: 8e 81 d0     	stx	$d081                   ; 0xd081 <__heap_start+0x3087>
    24f3: ae 82 d0     	ldx	$d082                   ; 0xd082 <__heap_start+0x3088>
    24f6: 30 fb        	bmi	$24f3 <WriteSector+0x73>
    24f8: ad 83 d0     	lda	$d083                   ; 0xd083 <__heap_start+0x3089>
    24fb: 29 10        	and	#$10
    24fd: d0 f4        	bne	$24f3 <WriteSector+0x73>
    24ff: ad 82 d0     	lda	$d082                   ; 0xd082 <__heap_start+0x3088>
    2502: 29 18        	and	#$18
    2504: f0 10        	beq	$2516 <WriteSector+0x96>
    2506: ae 82 d0     	ldx	$d082                   ; 0xd082 <__heap_start+0x3088>
    2509: a2 40        	ldx	#$40
    250b: 8e 80 d0     	stx	$d080                   ; 0xd080 <__heap_start+0x3086>
    250e: a2 02        	ldx	#$2
    2510: 8e 20 d0     	stx	$d020                   ; 0xd020 <__heap_start+0x3026>
    2513: a9 ff        	lda	#$ff
    2515: 60           	rts
    2516: ad 89 d6     	lda	$d689                   ; 0xd689 <__heap_start+0x368f>
    2519: 29 7f        	and	#$7f
    251b: 8d 89 d6     	sta	$d689                   ; 0xd689 <__heap_start+0x368f>
    251e: a5 66        	lda	$66                     ; 0x2066 <lpstore+0xc>
    2520: 85 2c        	sta	$2c                     ; 0x202c <_start+0xb>
    2522: a2 02        	ldx	#$2
    2524: a4 64        	ldy	$64                     ; 0x2064 <lpstore+0xa>
    2526: 84 04        	sty	$4                      ; 0x2004 <__heap_default_limit+0x1004>
    2528: 86 05        	stx	$5                      ; 0x2005 <__heap_default_limit+0x1005>
    252a: a6 62        	ldx	$62                     ; 0x2062 <lpstore+0x8>
    252c: 20 31 22     	jsr	$2231 <ShowAccess>
    252f: a5 63        	lda	$63                     ; 0x2063 <lpstore+0x9>
    2531: 60           	rts

00002532 <GetOneSector>:
    2532: a4 06        	ldy	$6                      ; 0x2006 <__heap_default_limit+0x1006>
    2534: 48           	pha
    2535: a5 04        	lda	$4                      ; 0x2004 <__heap_default_limit+0x1004>
    2537: 85 4c        	sta	$4c                     ; 0x204c <_fini+0x1>
    2539: a5 05        	lda	$5                      ; 0x2005 <__heap_default_limit+0x1005>
    253b: 85 4d        	sta	$4d                     ; 0x204d <_fini+0x2>
    253d: 68           	pla
    253e: 84 04        	sty	$4                      ; 0x2004 <__heap_default_limit+0x1004>
    2540: 20 aa 23     	jsr	$23aa <ReadSector>
    2543: c9 02        	cmp	#$2
    2545: b0 2d        	bcs	$2574 <GetOneSector+0x42>
    2547: a0 fd        	ldy	#$fd
    2549: aa           	tax
    254a: f0 06        	beq	$2552 <GetOneSector+0x20>
    254c: 85 4e        	sta	$4e                     ; 0x204e <_fini+0x3>
    254e: a2 6d        	ldx	#$6d
    2550: 80 04        	bra	$2556 <GetOneSector+0x24>
    2552: 85 4e        	sta	$4e                     ; 0x204e <_fini+0x3>
    2554: a2 6c        	ldx	#$6c
    2556: a9 01        	lda	#$1
    2558: 84 04        	sty	$4                      ; 0x2004 <__heap_default_limit+0x1004>
    255a: a0 0f        	ldy	#$f
    255c: 84 05        	sty	$5                      ; 0x2005 <__heap_default_limit+0x1005>
    255e: a4 4c        	ldy	$4c                     ; 0x204c <_fini+0x1>
    2560: 84 06        	sty	$6                      ; 0x2006 <__heap_default_limit+0x1006>
    2562: a4 4d        	ldy	$4d                     ; 0x204d <_fini+0x2>
    2564: 84 07        	sty	$7                      ; 0x2007 <__heap_default_limit+0x1007>
    2566: 64 08        	stz	$8                      ; 0x2008 <__heap_default_limit+0x1008>
    2568: 64 09        	stz	$9                      ; 0x2009 <__heap_default_limit+0x1009>
    256a: 64 0a        	stz	$a                      ; 0x200a <__heap_default_limit+0x100a>
    256c: 85 0b        	sta	$b                      ; 0x200b <__heap_default_limit+0x100b>
    256e: 3a           	dec
    256f: 20 a5 89     	jsr	$89a5 <lcopy>
    2572: a5 4e        	lda	$4e                     ; 0x204e <_fini+0x3>
    2574: 60           	rts

00002575 <PutWholeSector>:
    2575: 85 5c        	sta	$5c                     ; 0x205c <lpstore+0x2>
    2577: 86 5d        	stx	$5d                     ; 0x205d <lpstore+0x3>
    2579: a4 04        	ldy	$4                      ; 0x2004 <__heap_default_limit+0x1004>
    257b: 84 0c        	sty	$c                      ; 0x200c <__heap_default_limit+0x100c>
    257d: a4 05        	ldy	$5                      ; 0x2005 <__heap_default_limit+0x1005>
    257f: 84 0d        	sty	$d                      ; 0x200d <__heap_default_limit+0x100d>
    2581: a4 06        	ldy	$6                      ; 0x2006 <__heap_default_limit+0x1006>
    2583: 84 5e        	sty	$5e                     ; 0x205e <lpstore+0x4>
    2585: a5 06        	lda	$6                      ; 0x2006 <__heap_default_limit+0x1006>
    2587: 29 01        	and	#$1
    2589: 29 01        	and	#$1
    258b: d0 1f        	bne	$25ac <PutWholeSector+0x37>
    258d: a0 6c        	ldy	#$6c
    258f: a9 fd        	lda	#$fd
    2591: a2 0f        	ldx	#$f
    2593: 64 04        	stz	$4                      ; 0x2004 <__heap_default_limit+0x1004>
    2595: 64 05        	stz	$5                      ; 0x2005 <__heap_default_limit+0x1005>
    2597: 64 06        	stz	$6                      ; 0x2006 <__heap_default_limit+0x1006>
    2599: 84 07        	sty	$7                      ; 0x2007 <__heap_default_limit+0x1007>
    259b: 85 08        	sta	$8                      ; 0x2008 <__heap_default_limit+0x1008>
    259d: 86 09        	stx	$9                      ; 0x2009 <__heap_default_limit+0x1009>
    259f: 64 0a        	stz	$a                      ; 0x200a <__heap_default_limit+0x100a>
    25a1: a2 02        	ldx	#$2
    25a3: 86 0b        	stx	$b                      ; 0x200b <__heap_default_limit+0x100b>
    25a5: a6 0d        	ldx	$d                      ; 0x200d <__heap_default_limit+0x100d>
    25a7: a5 0c        	lda	$c                      ; 0x200c <__heap_default_limit+0x100c>
    25a9: 4c ed 25     	jmp	$25ed <PutWholeSector+0x78>
    25ac: a4 06        	ldy	$6                      ; 0x2006 <__heap_default_limit+0x1006>
    25ae: 84 04        	sty	$4                      ; 0x2004 <__heap_default_limit+0x1004>
    25b0: a5 5c        	lda	$5c                     ; 0x205c <lpstore+0x2>
    25b2: a4 5c        	ldy	$5c                     ; 0x205c <lpstore+0x2>
    25b4: 8c e6 9f     	sty	$9fe6                   ; 0x9fe6 <__data_load_start+0x2cc>
    25b7: a4 5d        	ldy	$5d                     ; 0x205d <lpstore+0x3>
    25b9: 8c e7 9f     	sty	$9fe7                   ; 0x9fe7 <__data_load_start+0x2cd>
    25bc: a4 0c        	ldy	$c                      ; 0x200c <__heap_default_limit+0x100c>
    25be: 84 5c        	sty	$5c                     ; 0x205c <lpstore+0x2>
    25c0: a4 0d        	ldy	$d                      ; 0x200d <__heap_default_limit+0x100d>
    25c2: 84 5d        	sty	$5d                     ; 0x205d <lpstore+0x3>
    25c4: 20 aa 23     	jsr	$23aa <ReadSector>
    25c7: a0 6d        	ldy	#$6d
    25c9: a9 fd        	lda	#$fd
    25cb: a2 0f        	ldx	#$f
    25cd: 64 04        	stz	$4                      ; 0x2004 <__heap_default_limit+0x1004>
    25cf: 64 05        	stz	$5                      ; 0x2005 <__heap_default_limit+0x1005>
    25d1: 64 06        	stz	$6                      ; 0x2006 <__heap_default_limit+0x1006>
    25d3: 84 07        	sty	$7                      ; 0x2007 <__heap_default_limit+0x1007>
    25d5: 85 08        	sta	$8                      ; 0x2008 <__heap_default_limit+0x1008>
    25d7: 86 09        	stx	$9                      ; 0x2009 <__heap_default_limit+0x1009>
    25d9: 64 0a        	stz	$a                      ; 0x200a <__heap_default_limit+0x100a>
    25db: a2 01        	ldx	#$1
    25dd: 86 0b        	stx	$b                      ; 0x200b <__heap_default_limit+0x100b>
    25df: a6 5d        	ldx	$5d                     ; 0x205d <lpstore+0x3>
    25e1: a5 5c        	lda	$5c                     ; 0x205c <lpstore+0x2>
    25e3: ac e7 9f     	ldy	$9fe7                   ; 0x9fe7 <__data_load_start+0x2cd>
    25e6: 84 5d        	sty	$5d                     ; 0x205d <lpstore+0x3>
    25e8: ac e6 9f     	ldy	$9fe6                   ; 0x9fe6 <__data_load_start+0x2cc>
    25eb: 84 5c        	sty	$5c                     ; 0x205c <lpstore+0x2>
    25ed: 20 a5 89     	jsr	$89a5 <lcopy>
    25f0: a5 5e        	lda	$5e                     ; 0x205e <lpstore+0x4>
    25f2: 29 fe        	and	#$fe
    25f4: 85 04        	sta	$4                      ; 0x2004 <__heap_default_limit+0x1004>
    25f6: a6 5d        	ldx	$5d                     ; 0x205d <lpstore+0x3>
    25f8: a5 5c        	lda	$5c                     ; 0x205c <lpstore+0x2>
    25fa: 4c 80 24     	jmp	$2480 <WriteSector>

000025fd <PutOneSector>:
    25fd: 85 5c        	sta	$5c                     ; 0x205c <lpstore+0x2>
    25ff: 86 5d        	stx	$5d                     ; 0x205d <lpstore+0x3>
    2601: a6 06        	ldx	$6                      ; 0x2006 <__heap_default_limit+0x1006>
    2603: a4 04        	ldy	$4                      ; 0x2004 <__heap_default_limit+0x1004>
    2605: 84 5e        	sty	$5e                     ; 0x205e <lpstore+0x4>
    2607: a4 05        	ldy	$5                      ; 0x2005 <__heap_default_limit+0x1005>
    2609: 84 5f        	sty	$5f                     ; 0x205f <lpstore+0x5>
    260b: a5 06        	lda	$6                      ; 0x2006 <__heap_default_limit+0x1006>
    260d: 29 01        	and	#$1
    260f: 85 60        	sta	$60                     ; 0x2060 <lpstore+0x6>
    2611: 86 61        	stx	$61                     ; 0x2061 <lpstore+0x7>
    2613: 86 04        	stx	$4                      ; 0x2004 <__heap_default_limit+0x1004>
    2615: a6 5d        	ldx	$5d                     ; 0x205d <lpstore+0x3>
    2617: a5 5c        	lda	$5c                     ; 0x205c <lpstore+0x2>
    2619: 20 aa 23     	jsr	$23aa <ReadSector>
    261c: 64 06        	stz	$6                      ; 0x2006 <__heap_default_limit+0x1006>
    261e: a9 6c        	lda	#$6c
    2620: a0 fd        	ldy	#$fd
    2622: a6 60        	ldx	$60                     ; 0x2060 <lpstore+0x6>
    2624: f0 02        	beq	$2628 <PutOneSector+0x2b>
    2626: a9 6d        	lda	#$6d
    2628: a2 01        	ldx	#$1
    262a: 64 04        	stz	$4                      ; 0x2004 <__heap_default_limit+0x1004>
    262c: 64 05        	stz	$5                      ; 0x2005 <__heap_default_limit+0x1005>
    262e: 85 07        	sta	$7                      ; 0x2007 <__heap_default_limit+0x1007>
    2630: 84 08        	sty	$8                      ; 0x2008 <__heap_default_limit+0x1008>
    2632: a0 0f        	ldy	#$f
    2634: 84 09        	sty	$9                      ; 0x2009 <__heap_default_limit+0x1009>
    2636: 64 0a        	stz	$a                      ; 0x200a <__heap_default_limit+0x100a>
    2638: 86 0b        	stx	$b                      ; 0x200b <__heap_default_limit+0x100b>
    263a: a6 5f        	ldx	$5f                     ; 0x205f <lpstore+0x5>
    263c: a5 5e        	lda	$5e                     ; 0x205e <lpstore+0x4>
    263e: 20 a5 89     	jsr	$89a5 <lcopy>
    2641: a5 61        	lda	$61                     ; 0x2061 <lpstore+0x7>
    2643: 29 fe        	and	#$fe
    2645: 85 04        	sta	$4                      ; 0x2004 <__heap_default_limit+0x1004>
    2647: a6 5d        	ldx	$5d                     ; 0x205d <lpstore+0x3>
    2649: a5 5c        	lda	$5c                     ; 0x205c <lpstore+0x2>
    264b: 4c 80 24     	jmp	$2480 <WriteSector>

0000264e <GetBAM>:
    264e: 0a           	asl
    264f: aa           	tax
    2650: a9 00        	lda	#$0
    2652: 2a           	rol
    2653: a8           	tay
    2654: a9 00        	lda	#$0
    2656: 2a           	rol
    2657: 85 04        	sta	$4                      ; 0x2004 <__heap_default_limit+0x1004>
    2659: 8a           	txa
    265a: 18           	clc
    265b: 69 66        	adc	#$66
    265d: 85 0c        	sta	$c                      ; 0x200c <__heap_default_limit+0x100c>
    265f: 98           	tya
    2660: 69 00        	adc	#$0
    2662: 85 06        	sta	$6                      ; 0x2006 <__heap_default_limit+0x1006>
    2664: a5 04        	lda	$4                      ; 0x2004 <__heap_default_limit+0x1004>
    2666: 69 08        	adc	#$8
    2668: a2 17        	ldx	#$17
    266a: a0 02        	ldy	#$2
    266c: 48           	pha
    266d: a5 06        	lda	$6                      ; 0x2006 <__heap_default_limit+0x1006>
    266f: 85 04        	sta	$4                      ; 0x2004 <__heap_default_limit+0x1004>
    2671: 68           	pla
    2672: 85 05        	sta	$5                      ; 0x2005 <__heap_default_limit+0x1005>
    2674: 64 06        	stz	$6                      ; 0x2006 <__heap_default_limit+0x1006>
    2676: 86 07        	stx	$7                      ; 0x2007 <__heap_default_limit+0x1007>
    2678: 64 08        	stz	$8                      ; 0x2008 <__heap_default_limit+0x1008>
    267a: 64 09        	stz	$9                      ; 0x2009 <__heap_default_limit+0x1009>
    267c: 64 0a        	stz	$a                      ; 0x200a <__heap_default_limit+0x100a>
    267e: 84 0b        	sty	$b                      ; 0x200b <__heap_default_limit+0x100b>
    2680: a6 0c        	ldx	$c                      ; 0x200c <__heap_default_limit+0x100c>
    2682: a9 00        	lda	#$0
    2684: 4c a5 89     	jmp	$89a5 <lcopy>

00002687 <PutBAM>:
    2687: 8d e5 9f     	sta	$9fe5                   ; 0x9fe5 <__data_load_start+0x2cb>
    268a: 8e e4 9f     	stx	$9fe4                   ; 0x9fe4 <__data_load_start+0x2ca>
    268d: a6 04        	ldx	$4                      ; 0x2004 <__heap_default_limit+0x1004>
    268f: a0 00        	ldy	#$0
    2691: 84 04        	sty	$4                      ; 0x2004 <__heap_default_limit+0x1004>
    2693: a0 17        	ldy	#$17
    2695: 84 05        	sty	$5                      ; 0x2005 <__heap_default_limit+0x1005>
    2697: a0 01        	ldy	#$1
    2699: 84 06        	sty	$6                      ; 0x2006 <__heap_default_limit+0x1006>
    269b: 20 fd 25     	jsr	$25fd <PutOneSector>
    269e: ae 00 17     	ldx	$1700                   ; 0x1700 <__heap_default_limit+0x700>
    26a1: ac 01 17     	ldy	$1701                   ; 0x1701 <__heap_default_limit+0x701>
    26a4: a9 00        	lda	#$0
    26a6: 85 04        	sta	$4                      ; 0x2004 <__heap_default_limit+0x1004>
    26a8: a9 18        	lda	#$18
    26aa: 85 05        	sta	$5                      ; 0x2005 <__heap_default_limit+0x1005>
    26ac: 84 06        	sty	$6                      ; 0x2006 <__heap_default_limit+0x1006>
    26ae: ad e5 9f     	lda	$9fe5                   ; 0x9fe5 <__data_load_start+0x2cb>
    26b1: 20 fd 25     	jsr	$25fd <PutOneSector>
    26b4: ae e4 9f     	ldx	$9fe4                   ; 0x9fe4 <__data_load_start+0x2ca>
    26b7: 86 04        	stx	$4                      ; 0x2004 <__heap_default_limit+0x1004>
    26b9: 06 04        	asl	$4                      ; 0x2004 <__heap_default_limit+0x1004>
    26bb: a9 00        	lda	#$0
    26bd: 2a           	rol
    26be: aa           	tax
    26bf: a9 00        	lda	#$0
    26c1: 2a           	rol
    26c2: a8           	tay
    26c3: a5 04        	lda	$4                      ; 0x2004 <__heap_default_limit+0x1004>
    26c5: 18           	clc
    26c6: 69 66        	adc	#$66
    26c8: 85 07        	sta	$7                      ; 0x2007 <__heap_default_limit+0x1007>
    26ca: 8a           	txa
    26cb: 69 00        	adc	#$0
    26cd: 85 08        	sta	$8                      ; 0x2008 <__heap_default_limit+0x1008>
    26cf: 98           	tya
    26d0: 69 08        	adc	#$8
    26d2: a2 02        	ldx	#$2
    26d4: 64 04        	stz	$4                      ; 0x2004 <__heap_default_limit+0x1004>
    26d6: 64 05        	stz	$5                      ; 0x2005 <__heap_default_limit+0x1005>
    26d8: 64 06        	stz	$6                      ; 0x2006 <__heap_default_limit+0x1006>
    26da: 85 09        	sta	$9                      ; 0x2009 <__heap_default_limit+0x1009>
    26dc: 64 0a        	stz	$a                      ; 0x200a <__heap_default_limit+0x100a>
    26de: 86 0b        	stx	$b                      ; 0x200b <__heap_default_limit+0x100b>
    26e0: a2 17        	ldx	#$17
    26e2: a9 00        	lda	#$0
    26e4: 4c a5 89     	jmp	$89a5 <lcopy>

000026e7 <readblockchain>:
    26e7: a4 16        	ldy	$16                     ; 0x2016 <next_line+0x1>
    26e9: 5a           	phy
    26ea: a4 17        	ldy	$17                     ; 0x2017 <next_line+0x2>
    26ec: 5a           	phy
    26ed: a4 18        	ldy	$18                     ; 0x2018 <next_line+0x3>
    26ef: 5a           	phy
    26f0: a4 19        	ldy	$19                     ; 0x2019 <next_line+0x4>
    26f2: 5a           	phy
    26f3: a4 1a        	ldy	$1a                     ; 0x201a <next_line+0x5>
    26f5: 8c de 9f     	sty	$9fde                   ; 0x9fde <__data_load_start+0x2c4>
    26f8: a4 1b        	ldy	$1b                     ; 0x201b <next_line+0x6>
    26fa: 8c df 9f     	sty	$9fdf                   ; 0x9fdf <__data_load_start+0x2c5>
    26fd: a4 1c        	ldy	$1c                     ; 0x201c <next_line+0x7>
    26ff: 8c e0 9f     	sty	$9fe0                   ; 0x9fe0 <__data_load_start+0x2c6>
    2702: a4 1d        	ldy	$1d                     ; 0x201d <next_line+0x8>
    2704: 8c e1 9f     	sty	$9fe1                   ; 0x9fe1 <__data_load_start+0x2c7>
    2707: a4 1e        	ldy	$1e                     ; 0x201e <next_line+0x9>
    2709: 8c e2 9f     	sty	$9fe2                   ; 0x9fe2 <__data_load_start+0x2c8>
    270c: a4 1f        	ldy	$1f                     ; 0x201f <next_line+0xa>
    270e: 8c e3 9f     	sty	$9fe3                   ; 0x9fe3 <__data_load_start+0x2c9>
    2711: a4 20        	ldy	$20                     ; 0x2020 <next_line+0xb>
    2713: 8c e4 9f     	sty	$9fe4                   ; 0x9fe4 <__data_load_start+0x2ca>
    2716: 85 1b        	sta	$1b                     ; 0x201b <next_line+0x6>
    2718: 86 1c        	stx	$1c                     ; 0x201c <next_line+0x7>
    271a: a6 04        	ldx	$4                      ; 0x2004 <__heap_default_limit+0x1004>
    271c: 86 16        	stx	$16                     ; 0x2016 <next_line+0x1>
    271e: a6 05        	ldx	$5                      ; 0x2005 <__heap_default_limit+0x1005>
    2720: 86 17        	stx	$17                     ; 0x2017 <next_line+0x2>
    2722: a6 06        	ldx	$6                      ; 0x2006 <__heap_default_limit+0x1006>
    2724: 86 18        	stx	$18                     ; 0x2018 <next_line+0x3>
    2726: a6 07        	ldx	$7                      ; 0x2007 <__heap_default_limit+0x1007>
    2728: 86 19        	stx	$19                     ; 0x2019 <next_line+0x4>
    272a: a6 08        	ldx	$8                      ; 0x2008 <__heap_default_limit+0x1008>
    272c: 86 1a        	stx	$1a                     ; 0x201a <next_line+0x5>
    272e: a6 09        	ldx	$9                      ; 0x2009 <__heap_default_limit+0x1009>
    2730: a4 0a        	ldy	$a                      ; 0x200a <__heap_default_limit+0x100a>
    2732: 84 1f        	sty	$1f                     ; 0x201f <next_line+0xa>
    2734: 64 1d        	stz	$1d                     ; 0x201d <next_line+0x8>
    2736: a9 00        	lda	#$0
    2738: c5 19        	cmp	$19                     ; 0x2019 <next_line+0x4>
    273a: d0 09        	bne	$2745 <readblockchain+0x5e>
    273c: a4 1d        	ldy	$1d                     ; 0x201d <next_line+0x8>
    273e: c4 18        	cpy	$18                     ; 0x2018 <next_line+0x3>
    2740: d0 03        	bne	$2745 <readblockchain+0x5e>
    2742: 4c a3 27     	jmp	$27a3 <readblockchain+0xbc>
    2745: 85 1e        	sta	$1e                     ; 0x201e <next_line+0x9>
    2747: a0 00        	ldy	#$0
    2749: 84 04        	sty	$4                      ; 0x2004 <__heap_default_limit+0x1004>
    274b: a0 19        	ldy	#$19
    274d: 84 05        	sty	$5                      ; 0x2005 <__heap_default_limit+0x1005>
    274f: a4 1f        	ldy	$1f                     ; 0x201f <next_line+0xa>
    2751: 84 06        	sty	$6                      ; 0x2006 <__heap_default_limit+0x1006>
    2753: a5 1a        	lda	$1a                     ; 0x201a <next_line+0x5>
    2755: 20 32 25     	jsr	$2532 <GetOneSector>
    2758: c9 02        	cmp	#$2
    275a: 90 03        	bcc	$275f <readblockchain+0x78>
    275c: 4c db 27     	jmp	$27db <readblockchain+0xf4>
    275f: ae 00 19     	ldx	$1900                   ; 0x1900 <__heap_default_limit+0x900>
    2762: 86 20        	stx	$20                     ; 0x2020 <next_line+0xb>
    2764: a9 00        	lda	#$0
    2766: 18           	clc
    2767: 65 1b        	adc	$1b                     ; 0x201b <next_line+0x6>
    2769: 85 06        	sta	$6                      ; 0x2006 <__heap_default_limit+0x1006>
    276b: a5 1d        	lda	$1d                     ; 0x201d <next_line+0x8>
    276d: 65 1c        	adc	$1c                     ; 0x201c <next_line+0x7>
    276f: 85 07        	sta	$7                      ; 0x2007 <__heap_default_limit+0x1007>
    2771: a5 1e        	lda	$1e                     ; 0x201e <next_line+0x9>
    2773: 65 16        	adc	$16                     ; 0x2016 <next_line+0x1>
    2775: 85 08        	sta	$8                      ; 0x2008 <__heap_default_limit+0x1008>
    2777: a9 00        	lda	#$0
    2779: 65 17        	adc	$17                     ; 0x2017 <next_line+0x2>
    277b: ae 01 19     	ldx	$1901                   ; 0x1901 <__heap_default_limit+0x901>
    277e: 86 1f        	stx	$1f                     ; 0x201f <next_line+0xa>
    2780: 64 04        	stz	$4                      ; 0x2004 <__heap_default_limit+0x1004>
    2782: 64 05        	stz	$5                      ; 0x2005 <__heap_default_limit+0x1005>
    2784: 85 09        	sta	$9                      ; 0x2009 <__heap_default_limit+0x1009>
    2786: 64 0a        	stz	$a                      ; 0x200a <__heap_default_limit+0x100a>
    2788: a2 01        	ldx	#$1
    278a: 86 0b        	stx	$b                      ; 0x200b <__heap_default_limit+0x100b>
    278c: a2 19        	ldx	#$19
    278e: a9 00        	lda	#$0
    2790: 20 a5 89     	jsr	$89a5 <lcopy>
    2793: a5 1e        	lda	$1e                     ; 0x201e <next_line+0x9>
    2795: a6 20        	ldx	$20                     ; 0x2020 <next_line+0xb>
    2797: e6 1d        	inc	$1d                     ; 0x201d <next_line+0x8>
    2799: d0 01        	bne	$279c <readblockchain+0xb5>
    279b: 1a           	inc
    279c: a4 20        	ldy	$20                     ; 0x2020 <next_line+0xb>
    279e: f0 09        	beq	$27a9 <readblockchain+0xc2>
    27a0: 4c 38 27     	jmp	$2738 <readblockchain+0x51>
    27a3: a9 fe        	lda	#$fe
    27a5: e0 00        	cpx	#$0
    27a7: d0 02        	bne	$27ab <readblockchain+0xc4>
    27a9: a9 00        	lda	#$0
    27ab: ae e4 9f     	ldx	$9fe4                   ; 0x9fe4 <__data_load_start+0x2ca>
    27ae: 86 20        	stx	$20                     ; 0x2020 <next_line+0xb>
    27b0: ae e3 9f     	ldx	$9fe3                   ; 0x9fe3 <__data_load_start+0x2c9>
    27b3: 86 1f        	stx	$1f                     ; 0x201f <next_line+0xa>
    27b5: ae e2 9f     	ldx	$9fe2                   ; 0x9fe2 <__data_load_start+0x2c8>
    27b8: 86 1e        	stx	$1e                     ; 0x201e <next_line+0x9>
    27ba: ae e1 9f     	ldx	$9fe1                   ; 0x9fe1 <__data_load_start+0x2c7>
    27bd: 86 1d        	stx	$1d                     ; 0x201d <next_line+0x8>
    27bf: ae e0 9f     	ldx	$9fe0                   ; 0x9fe0 <__data_load_start+0x2c6>
    27c2: 86 1c        	stx	$1c                     ; 0x201c <next_line+0x7>
    27c4: ae df 9f     	ldx	$9fdf                   ; 0x9fdf <__data_load_start+0x2c5>
    27c7: 86 1b        	stx	$1b                     ; 0x201b <next_line+0x6>
    27c9: ae de 9f     	ldx	$9fde                   ; 0x9fde <__data_load_start+0x2c4>
    27cc: 86 1a        	stx	$1a                     ; 0x201a <next_line+0x5>
    27ce: fa           	plx
    27cf: 86 19        	stx	$19                     ; 0x2019 <next_line+0x4>
    27d1: fa           	plx
    27d2: 86 18        	stx	$18                     ; 0x2018 <next_line+0x3>
    27d4: fa           	plx
    27d5: 86 17        	stx	$17                     ; 0x2017 <next_line+0x2>
    27d7: fa           	plx
    27d8: 86 16        	stx	$16                     ; 0x2016 <next_line+0x1>
    27da: 60           	rts
    27db: a9 ff        	lda	#$ff
    27dd: 80 cc        	bra	$27ab <readblockchain+0xc4>

000027df <BAMSectorUpdate>:
    27df: a8           	tay
    27e0: c9 29        	cmp	#$29
    27e2: 90 0e        	bcc	$27f2 <BAMSectorUpdate+0x13>
    27e4: a4 06        	ldy	$6                      ; 0x2006 <__heap_default_limit+0x1006>
    27e6: 84 6b        	sty	$6b                     ; 0x206b <lpstore+0x11>
    27e8: a4 07        	ldy	$7                      ; 0x2007 <__heap_default_limit+0x1007>
    27ea: 84 6c        	sty	$6c                     ; 0x206c <lpstore+0x12>
    27ec: 18           	clc
    27ed: 69 d8        	adc	#$d8
    27ef: a8           	tay
    27f0: 80 08        	bra	$27fa <BAMSectorUpdate+0x1b>
    27f2: a5 04        	lda	$4                      ; 0x2004 <__heap_default_limit+0x1004>
    27f4: 85 6b        	sta	$6b                     ; 0x206b <lpstore+0x11>
    27f6: a5 05        	lda	$5                      ; 0x2005 <__heap_default_limit+0x1005>
    27f8: 85 6c        	sta	$6c                     ; 0x206c <lpstore+0x12>
    27fa: 88           	dey
    27fb: 84 05        	sty	$5                      ; 0x2005 <__heap_default_limit+0x1005>
    27fd: a5 08        	lda	$8                      ; 0x2008 <__heap_default_limit+0x1008>
    27ff: d0 03        	bne	$2804 <BAMSectorUpdate+0x25>
    2801: 4c 48 28     	jmp	$2848 <BAMSectorUpdate+0x69>
    2804: da           	phx
    2805: 7a           	ply
    2806: e0 08        	cpx	#$8
    2808: 90 03        	bcc	$280d <BAMSectorUpdate+0x2e>
    280a: 4c 9b 28     	jmp	$289b <BAMSectorUpdate+0xbc>
    280d: a2 00        	ldx	#$0
    280f: 86 71        	stx	$71                     ; 0x2071 <lpstore+0x17>
    2811: a5 05        	lda	$5                      ; 0x2005 <__heap_default_limit+0x1005>
    2813: 85 6f        	sta	$6f                     ; 0x206f <lpstore+0x15>
    2815: 0a           	asl
    2816: 85 04        	sta	$4                      ; 0x2004 <__heap_default_limit+0x1004>
    2818: 8a           	txa
    2819: 2a           	rol
    281a: 85 05        	sta	$5                      ; 0x2005 <__heap_default_limit+0x1005>
    281c: a5 04        	lda	$4                      ; 0x2004 <__heap_default_limit+0x1004>
    281e: 0a           	asl
    281f: aa           	tax
    2820: a5 05        	lda	$5                      ; 0x2005 <__heap_default_limit+0x1005>
    2822: 2a           	rol
    2823: 85 06        	sta	$6                      ; 0x2006 <__heap_default_limit+0x1006>
    2825: 18           	clc
    2826: 8a           	txa
    2827: 65 04        	adc	$4                      ; 0x2004 <__heap_default_limit+0x1004>
    2829: 85 04        	sta	$4                      ; 0x2004 <__heap_default_limit+0x1004>
    282b: a5 06        	lda	$6                      ; 0x2006 <__heap_default_limit+0x1006>
    282d: 65 05        	adc	$5                      ; 0x2005 <__heap_default_limit+0x1005>
    282f: 85 05        	sta	$5                      ; 0x2005 <__heap_default_limit+0x1005>
    2831: 18           	clc
    2832: a5 04        	lda	$4                      ; 0x2004 <__heap_default_limit+0x1004>
    2834: 65 6b        	adc	$6b                     ; 0x206b <lpstore+0x11>
    2836: 85 04        	sta	$4                      ; 0x2004 <__heap_default_limit+0x1004>
    2838: a5 05        	lda	$5                      ; 0x2005 <__heap_default_limit+0x1005>
    283a: 65 6c        	adc	$6c                     ; 0x206c <lpstore+0x12>
    283c: aa           	tax
    283d: 18           	clc
    283e: a5 04        	lda	$4                      ; 0x2004 <__heap_default_limit+0x1004>
    2840: 69 11        	adc	#$11
    2842: 85 6d        	sta	$6d                     ; 0x206d <lpstore+0x13>
    2844: 8a           	txa
    2845: 4c 4f 2a     	jmp	$2a4f <BAMSectorUpdate+0x270>
    2848: da           	phx
    2849: 7a           	ply
    284a: e0 08        	cpx	#$8
    284c: 90 03        	bcc	$2851 <BAMSectorUpdate+0x72>
    284e: 4c f9 28     	jmp	$28f9 <BAMSectorUpdate+0x11a>
    2851: 64 6d        	stz	$6d                     ; 0x206d <lpstore+0x13>
    2853: a5 05        	lda	$5                      ; 0x2005 <__heap_default_limit+0x1005>
    2855: 85 6f        	sta	$6f                     ; 0x206f <lpstore+0x15>
    2857: 0a           	asl
    2858: 85 04        	sta	$4                      ; 0x2004 <__heap_default_limit+0x1004>
    285a: a9 00        	lda	#$0
    285c: 2a           	rol
    285d: 85 05        	sta	$5                      ; 0x2005 <__heap_default_limit+0x1005>
    285f: a5 04        	lda	$4                      ; 0x2004 <__heap_default_limit+0x1004>
    2861: 0a           	asl
    2862: aa           	tax
    2863: a5 05        	lda	$5                      ; 0x2005 <__heap_default_limit+0x1005>
    2865: 2a           	rol
    2866: 85 06        	sta	$6                      ; 0x2006 <__heap_default_limit+0x1006>
    2868: 18           	clc
    2869: 8a           	txa
    286a: 65 04        	adc	$4                      ; 0x2004 <__heap_default_limit+0x1004>
    286c: 85 04        	sta	$4                      ; 0x2004 <__heap_default_limit+0x1004>
    286e: a5 06        	lda	$6                      ; 0x2006 <__heap_default_limit+0x1006>
    2870: 65 05        	adc	$5                      ; 0x2005 <__heap_default_limit+0x1005>
    2872: 85 07        	sta	$7                      ; 0x2007 <__heap_default_limit+0x1007>
    2874: 18           	clc
    2875: a5 04        	lda	$4                      ; 0x2004 <__heap_default_limit+0x1004>
    2877: 65 6b        	adc	$6b                     ; 0x206b <lpstore+0x11>
    2879: 85 06        	sta	$6                      ; 0x2006 <__heap_default_limit+0x1006>
    287b: a6 6b        	ldx	$6b                     ; 0x206b <lpstore+0x11>
    287d: 86 04        	stx	$4                      ; 0x2004 <__heap_default_limit+0x1004>
    287f: a6 6c        	ldx	$6c                     ; 0x206c <lpstore+0x12>
    2881: 86 05        	stx	$5                      ; 0x2005 <__heap_default_limit+0x1005>
    2883: a6 04        	ldx	$4                      ; 0x2004 <__heap_default_limit+0x1004>
    2885: 86 71        	stx	$71                     ; 0x2071 <lpstore+0x17>
    2887: a6 05        	ldx	$5                      ; 0x2005 <__heap_default_limit+0x1005>
    2889: 86 72        	stx	$72                     ; 0x2072 <lpstore+0x18>
    288b: a5 07        	lda	$7                      ; 0x2007 <__heap_default_limit+0x1007>
    288d: 65 6c        	adc	$6c                     ; 0x206c <lpstore+0x12>
    288f: aa           	tax
    2890: 18           	clc
    2891: a5 06        	lda	$6                      ; 0x2006 <__heap_default_limit+0x1006>
    2893: 69 11        	adc	#$11
    2895: 85 6b        	sta	$6b                     ; 0x206b <lpstore+0x11>
    2897: 8a           	txa
    2898: 4c 93 2a     	jmp	$2a93 <BAMSectorUpdate+0x2b4>
    289b: c0 10        	cpy	#$10
    289d: a2 01        	ldx	#$1
    289f: b0 02        	bcs	$28a3 <BAMSectorUpdate+0xc4>
    28a1: a2 00        	ldx	#$0
    28a3: 86 08        	stx	$8                      ; 0x2008 <__heap_default_limit+0x1008>
    28a5: a5 6b        	lda	$6b                     ; 0x206b <lpstore+0x11>
    28a7: 18           	clc
    28a8: 69 10        	adc	#$10
    28aa: 85 07        	sta	$7                      ; 0x2007 <__heap_default_limit+0x1007>
    28ac: a5 6c        	lda	$6c                     ; 0x206c <lpstore+0x12>
    28ae: 69 00        	adc	#$0
    28b0: 85 06        	sta	$6                      ; 0x2006 <__heap_default_limit+0x1006>
    28b2: a6 05        	ldx	$5                      ; 0x2005 <__heap_default_limit+0x1005>
    28b4: 86 6f        	stx	$6f                     ; 0x206f <lpstore+0x15>
    28b6: 06 05        	asl	$5                      ; 0x2005 <__heap_default_limit+0x1005>
    28b8: 64 04        	stz	$4                      ; 0x2004 <__heap_default_limit+0x1004>
    28ba: 26 04        	rol	$4                      ; 0x2004 <__heap_default_limit+0x1004>
    28bc: a5 05        	lda	$5                      ; 0x2005 <__heap_default_limit+0x1005>
    28be: 0a           	asl
    28bf: a6 04        	ldx	$4                      ; 0x2004 <__heap_default_limit+0x1004>
    28c1: 86 09        	stx	$9                      ; 0x2009 <__heap_default_limit+0x1009>
    28c3: 26 09        	rol	$9                      ; 0x2009 <__heap_default_limit+0x1009>
    28c5: a6 09        	ldx	$9                      ; 0x2009 <__heap_default_limit+0x1009>
    28c7: 86 0a        	stx	$a                      ; 0x200a <__heap_default_limit+0x100a>
    28c9: a6 08        	ldx	$8                      ; 0x2008 <__heap_default_limit+0x1008>
    28cb: f0 03        	beq	$28d0 <BAMSectorUpdate+0xf1>
    28cd: 4c 5d 29     	jmp	$295d <BAMSectorUpdate+0x17e>
    28d0: a2 00        	ldx	#$0
    28d2: 86 71        	stx	$71                     ; 0x2071 <lpstore+0x17>
    28d4: 18           	clc
    28d5: aa           	tax
    28d6: 98           	tya
    28d7: 69 f8        	adc	#$f8
    28d9: a8           	tay
    28da: 18           	clc
    28db: 8a           	txa
    28dc: 65 05        	adc	$5                      ; 0x2005 <__heap_default_limit+0x1005>
    28de: 85 05        	sta	$5                      ; 0x2005 <__heap_default_limit+0x1005>
    28e0: a5 09        	lda	$9                      ; 0x2009 <__heap_default_limit+0x1009>
    28e2: 65 04        	adc	$4                      ; 0x2004 <__heap_default_limit+0x1004>
    28e4: 85 04        	sta	$4                      ; 0x2004 <__heap_default_limit+0x1004>
    28e6: a5 07        	lda	$7                      ; 0x2007 <__heap_default_limit+0x1007>
    28e8: 18           	clc
    28e9: 65 05        	adc	$5                      ; 0x2005 <__heap_default_limit+0x1005>
    28eb: aa           	tax
    28ec: a5 06        	lda	$6                      ; 0x2006 <__heap_default_limit+0x1006>
    28ee: 65 04        	adc	$4                      ; 0x2004 <__heap_default_limit+0x1004>
    28f0: 85 04        	sta	$4                      ; 0x2004 <__heap_default_limit+0x1004>
    28f2: 18           	clc
    28f3: 8a           	txa
    28f4: 69 02        	adc	#$2
    28f6: 4c 4b 2a     	jmp	$2a4b <BAMSectorUpdate+0x26c>
    28f9: c0 10        	cpy	#$10
    28fb: a2 01        	ldx	#$1
    28fd: b0 02        	bcs	$2901 <BAMSectorUpdate+0x122>
    28ff: a2 00        	ldx	#$0
    2901: 86 08        	stx	$8                      ; 0x2008 <__heap_default_limit+0x1008>
    2903: 64 6d        	stz	$6d                     ; 0x206d <lpstore+0x13>
    2905: a5 6b        	lda	$6b                     ; 0x206b <lpstore+0x11>
    2907: 18           	clc
    2908: 69 10        	adc	#$10
    290a: 85 07        	sta	$7                      ; 0x2007 <__heap_default_limit+0x1007>
    290c: a5 6c        	lda	$6c                     ; 0x206c <lpstore+0x12>
    290e: 69 00        	adc	#$0
    2910: 85 06        	sta	$6                      ; 0x2006 <__heap_default_limit+0x1006>
    2912: a6 05        	ldx	$5                      ; 0x2005 <__heap_default_limit+0x1005>
    2914: 86 6f        	stx	$6f                     ; 0x206f <lpstore+0x15>
    2916: 06 05        	asl	$5                      ; 0x2005 <__heap_default_limit+0x1005>
    2918: 64 04        	stz	$4                      ; 0x2004 <__heap_default_limit+0x1004>
    291a: 26 04        	rol	$4                      ; 0x2004 <__heap_default_limit+0x1004>
    291c: a5 05        	lda	$5                      ; 0x2005 <__heap_default_limit+0x1005>
    291e: 0a           	asl
    291f: a6 04        	ldx	$4                      ; 0x2004 <__heap_default_limit+0x1004>
    2921: 86 09        	stx	$9                      ; 0x2009 <__heap_default_limit+0x1009>
    2923: 26 09        	rol	$9                      ; 0x2009 <__heap_default_limit+0x1009>
    2925: a6 09        	ldx	$9                      ; 0x2009 <__heap_default_limit+0x1009>
    2927: 86 0a        	stx	$a                      ; 0x200a <__heap_default_limit+0x100a>
    2929: a6 08        	ldx	$8                      ; 0x2008 <__heap_default_limit+0x1008>
    292b: f0 03        	beq	$2930 <BAMSectorUpdate+0x151>
    292d: 4c 8f 29     	jmp	$298f <BAMSectorUpdate+0x1b0>
    2930: a6 6b        	ldx	$6b                     ; 0x206b <lpstore+0x11>
    2932: 86 71        	stx	$71                     ; 0x2071 <lpstore+0x17>
    2934: a6 6c        	ldx	$6c                     ; 0x206c <lpstore+0x12>
    2936: 86 72        	stx	$72                     ; 0x2072 <lpstore+0x18>
    2938: 18           	clc
    2939: aa           	tax
    293a: 98           	tya
    293b: 69 f8        	adc	#$f8
    293d: a8           	tay
    293e: 18           	clc
    293f: 8a           	txa
    2940: 65 05        	adc	$5                      ; 0x2005 <__heap_default_limit+0x1005>
    2942: 85 05        	sta	$5                      ; 0x2005 <__heap_default_limit+0x1005>
    2944: a5 09        	lda	$9                      ; 0x2009 <__heap_default_limit+0x1009>
    2946: 65 04        	adc	$4                      ; 0x2004 <__heap_default_limit+0x1004>
    2948: 85 04        	sta	$4                      ; 0x2004 <__heap_default_limit+0x1004>
    294a: a5 07        	lda	$7                      ; 0x2007 <__heap_default_limit+0x1007>
    294c: 18           	clc
    294d: 65 05        	adc	$5                      ; 0x2005 <__heap_default_limit+0x1005>
    294f: aa           	tax
    2950: a5 06        	lda	$6                      ; 0x2006 <__heap_default_limit+0x1006>
    2952: 65 04        	adc	$4                      ; 0x2004 <__heap_default_limit+0x1004>
    2954: 85 04        	sta	$4                      ; 0x2004 <__heap_default_limit+0x1004>
    2956: 18           	clc
    2957: 8a           	txa
    2958: 69 02        	adc	#$2
    295a: 4c 8f 2a     	jmp	$2a8f <BAMSectorUpdate+0x2b0>
    295d: 85 09        	sta	$9                      ; 0x2009 <__heap_default_limit+0x1009>
    295f: c0 18        	cpy	#$18
    2961: 90 03        	bcc	$2966 <BAMSectorUpdate+0x187>
    2963: 4c c5 29     	jmp	$29c5 <BAMSectorUpdate+0x1e6>
    2966: a2 00        	ldx	#$0
    2968: 86 71        	stx	$71                     ; 0x2071 <lpstore+0x17>
    296a: 18           	clc
    296b: 98           	tya
    296c: 69 f0        	adc	#$f0
    296e: a8           	tay
    296f: a5 09        	lda	$9                      ; 0x2009 <__heap_default_limit+0x1009>
    2971: 18           	clc
    2972: 65 05        	adc	$5                      ; 0x2005 <__heap_default_limit+0x1005>
    2974: 85 05        	sta	$5                      ; 0x2005 <__heap_default_limit+0x1005>
    2976: a5 0a        	lda	$a                      ; 0x200a <__heap_default_limit+0x100a>
    2978: 65 04        	adc	$4                      ; 0x2004 <__heap_default_limit+0x1004>
    297a: 85 04        	sta	$4                      ; 0x2004 <__heap_default_limit+0x1004>
    297c: a5 07        	lda	$7                      ; 0x2007 <__heap_default_limit+0x1007>
    297e: 18           	clc
    297f: 65 05        	adc	$5                      ; 0x2005 <__heap_default_limit+0x1005>
    2981: aa           	tax
    2982: a5 06        	lda	$6                      ; 0x2006 <__heap_default_limit+0x1006>
    2984: 65 04        	adc	$4                      ; 0x2004 <__heap_default_limit+0x1004>
    2986: 85 04        	sta	$4                      ; 0x2004 <__heap_default_limit+0x1004>
    2988: 18           	clc
    2989: 8a           	txa
    298a: 69 03        	adc	#$3
    298c: 4c 4b 2a     	jmp	$2a4b <BAMSectorUpdate+0x26c>
    298f: 85 09        	sta	$9                      ; 0x2009 <__heap_default_limit+0x1009>
    2991: c0 18        	cpy	#$18
    2993: 90 03        	bcc	$2998 <BAMSectorUpdate+0x1b9>
    2995: 4c f5 29     	jmp	$29f5 <BAMSectorUpdate+0x216>
    2998: a6 6b        	ldx	$6b                     ; 0x206b <lpstore+0x11>
    299a: 86 71        	stx	$71                     ; 0x2071 <lpstore+0x17>
    299c: a6 6c        	ldx	$6c                     ; 0x206c <lpstore+0x12>
    299e: 86 72        	stx	$72                     ; 0x2072 <lpstore+0x18>
    29a0: 18           	clc
    29a1: 98           	tya
    29a2: 69 f0        	adc	#$f0
    29a4: a8           	tay
    29a5: a5 09        	lda	$9                      ; 0x2009 <__heap_default_limit+0x1009>
    29a7: 18           	clc
    29a8: 65 05        	adc	$5                      ; 0x2005 <__heap_default_limit+0x1005>
    29aa: 85 05        	sta	$5                      ; 0x2005 <__heap_default_limit+0x1005>
    29ac: a5 0a        	lda	$a                      ; 0x200a <__heap_default_limit+0x100a>
    29ae: 65 04        	adc	$4                      ; 0x2004 <__heap_default_limit+0x1004>
    29b0: 85 04        	sta	$4                      ; 0x2004 <__heap_default_limit+0x1004>
    29b2: a5 07        	lda	$7                      ; 0x2007 <__heap_default_limit+0x1007>
    29b4: 18           	clc
    29b5: 65 05        	adc	$5                      ; 0x2005 <__heap_default_limit+0x1005>
    29b7: aa           	tax
    29b8: a5 06        	lda	$6                      ; 0x2006 <__heap_default_limit+0x1006>
    29ba: 65 04        	adc	$4                      ; 0x2004 <__heap_default_limit+0x1004>
    29bc: 85 04        	sta	$4                      ; 0x2004 <__heap_default_limit+0x1004>
    29be: 18           	clc
    29bf: 8a           	txa
    29c0: 69 03        	adc	#$3
    29c2: 4c 8f 2a     	jmp	$2a8f <BAMSectorUpdate+0x2b0>
    29c5: a2 00        	ldx	#$0
    29c7: 86 71        	stx	$71                     ; 0x2071 <lpstore+0x17>
    29c9: c0 20        	cpy	#$20
    29cb: 90 03        	bcc	$29d0 <BAMSectorUpdate+0x1f1>
    29cd: 4c 29 2a     	jmp	$2a29 <BAMSectorUpdate+0x24a>
    29d0: 18           	clc
    29d1: 98           	tya
    29d2: 69 e8        	adc	#$e8
    29d4: a8           	tay
    29d5: a5 09        	lda	$9                      ; 0x2009 <__heap_default_limit+0x1009>
    29d7: 18           	clc
    29d8: 65 05        	adc	$5                      ; 0x2005 <__heap_default_limit+0x1005>
    29da: 85 05        	sta	$5                      ; 0x2005 <__heap_default_limit+0x1005>
    29dc: a5 0a        	lda	$a                      ; 0x200a <__heap_default_limit+0x100a>
    29de: 65 04        	adc	$4                      ; 0x2004 <__heap_default_limit+0x1004>
    29e0: 85 04        	sta	$4                      ; 0x2004 <__heap_default_limit+0x1004>
    29e2: a5 07        	lda	$7                      ; 0x2007 <__heap_default_limit+0x1007>
    29e4: 18           	clc
    29e5: 65 05        	adc	$5                      ; 0x2005 <__heap_default_limit+0x1005>
    29e7: aa           	tax
    29e8: a5 06        	lda	$6                      ; 0x2006 <__heap_default_limit+0x1006>
    29ea: 65 04        	adc	$4                      ; 0x2004 <__heap_default_limit+0x1004>
    29ec: 85 04        	sta	$4                      ; 0x2004 <__heap_default_limit+0x1004>
    29ee: 18           	clc
    29ef: 8a           	txa
    29f0: 69 04        	adc	#$4
    29f2: 4c 4b 2a     	jmp	$2a4b <BAMSectorUpdate+0x26c>
    29f5: a6 6b        	ldx	$6b                     ; 0x206b <lpstore+0x11>
    29f7: 86 71        	stx	$71                     ; 0x2071 <lpstore+0x17>
    29f9: a6 6c        	ldx	$6c                     ; 0x206c <lpstore+0x12>
    29fb: 86 72        	stx	$72                     ; 0x2072 <lpstore+0x18>
    29fd: c0 20        	cpy	#$20
    29ff: 90 03        	bcc	$2a04 <BAMSectorUpdate+0x225>
    2a01: 4c 6d 2a     	jmp	$2a6d <BAMSectorUpdate+0x28e>
    2a04: 18           	clc
    2a05: 98           	tya
    2a06: 69 e8        	adc	#$e8
    2a08: a8           	tay
    2a09: a5 09        	lda	$9                      ; 0x2009 <__heap_default_limit+0x1009>
    2a0b: 18           	clc
    2a0c: 65 05        	adc	$5                      ; 0x2005 <__heap_default_limit+0x1005>
    2a0e: 85 05        	sta	$5                      ; 0x2005 <__heap_default_limit+0x1005>
    2a10: a5 0a        	lda	$a                      ; 0x200a <__heap_default_limit+0x100a>
    2a12: 65 04        	adc	$4                      ; 0x2004 <__heap_default_limit+0x1004>
    2a14: 85 04        	sta	$4                      ; 0x2004 <__heap_default_limit+0x1004>
    2a16: a5 07        	lda	$7                      ; 0x2007 <__heap_default_limit+0x1007>
    2a18: 18           	clc
    2a19: 65 05        	adc	$5                      ; 0x2005 <__heap_default_limit+0x1005>
    2a1b: aa           	tax
    2a1c: a5 06        	lda	$6                      ; 0x2006 <__heap_default_limit+0x1006>
    2a1e: 65 04        	adc	$4                      ; 0x2004 <__heap_default_limit+0x1004>
    2a20: 85 04        	sta	$4                      ; 0x2004 <__heap_default_limit+0x1004>
    2a22: 18           	clc
    2a23: 8a           	txa
    2a24: 69 04        	adc	#$4
    2a26: 4c 8f 2a     	jmp	$2a8f <BAMSectorUpdate+0x2b0>
    2a29: 18           	clc
    2a2a: 98           	tya
    2a2b: 69 e0        	adc	#$e0
    2a2d: a8           	tay
    2a2e: a5 09        	lda	$9                      ; 0x2009 <__heap_default_limit+0x1009>
    2a30: 18           	clc
    2a31: 65 05        	adc	$5                      ; 0x2005 <__heap_default_limit+0x1005>
    2a33: 85 05        	sta	$5                      ; 0x2005 <__heap_default_limit+0x1005>
    2a35: a5 0a        	lda	$a                      ; 0x200a <__heap_default_limit+0x100a>
    2a37: 65 04        	adc	$4                      ; 0x2004 <__heap_default_limit+0x1004>
    2a39: 85 04        	sta	$4                      ; 0x2004 <__heap_default_limit+0x1004>
    2a3b: a5 07        	lda	$7                      ; 0x2007 <__heap_default_limit+0x1007>
    2a3d: 18           	clc
    2a3e: 65 05        	adc	$5                      ; 0x2005 <__heap_default_limit+0x1005>
    2a40: aa           	tax
    2a41: a5 06        	lda	$6                      ; 0x2006 <__heap_default_limit+0x1006>
    2a43: 65 04        	adc	$4                      ; 0x2004 <__heap_default_limit+0x1004>
    2a45: 85 04        	sta	$4                      ; 0x2004 <__heap_default_limit+0x1004>
    2a47: 18           	clc
    2a48: 8a           	txa
    2a49: 69 05        	adc	#$5
    2a4b: 85 6d        	sta	$6d                     ; 0x206d <lpstore+0x13>
    2a4d: a5 04        	lda	$4                      ; 0x2004 <__heap_default_limit+0x1004>
    2a4f: 69 00        	adc	#$0
    2a51: 85 6e        	sta	$6e                     ; 0x206e <lpstore+0x14>
    2a53: a9 01        	lda	#$1
    2a55: a2 00        	ldx	#$0
    2a57: 84 04        	sty	$4                      ; 0x2004 <__heap_default_limit+0x1004>
    2a59: 20 1b 8c     	jsr	$8c1b <__ashlhi3>
    2a5c: a2 ff        	ldx	#$ff
    2a5e: 86 70        	stx	$70                     ; 0x2070 <lpstore+0x16>
    2a60: 49 ff        	eor	#$ff
    2a62: 32 6d        	and	($6d),z                 ; 0x206d <lpstore+0x13>
    2a64: 92 6d        	sta	($6d),z                 ; 0x206d <lpstore+0x13>
    2a66: a6 71        	ldx	$71                     ; 0x2071 <lpstore+0x17>
    2a68: 86 6d        	stx	$6d                     ; 0x206d <lpstore+0x13>
    2a6a: 4c af 2a     	jmp	$2aaf <BAMSectorUpdate+0x2d0>
    2a6d: 18           	clc
    2a6e: 98           	tya
    2a6f: 69 e0        	adc	#$e0
    2a71: a8           	tay
    2a72: a5 09        	lda	$9                      ; 0x2009 <__heap_default_limit+0x1009>
    2a74: 18           	clc
    2a75: 65 05        	adc	$5                      ; 0x2005 <__heap_default_limit+0x1005>
    2a77: 85 05        	sta	$5                      ; 0x2005 <__heap_default_limit+0x1005>
    2a79: a5 0a        	lda	$a                      ; 0x200a <__heap_default_limit+0x100a>
    2a7b: 65 04        	adc	$4                      ; 0x2004 <__heap_default_limit+0x1004>
    2a7d: 85 04        	sta	$4                      ; 0x2004 <__heap_default_limit+0x1004>
    2a7f: a5 07        	lda	$7                      ; 0x2007 <__heap_default_limit+0x1007>
    2a81: 18           	clc
    2a82: 65 05        	adc	$5                      ; 0x2005 <__heap_default_limit+0x1005>
    2a84: aa           	tax
    2a85: a5 06        	lda	$6                      ; 0x2006 <__heap_default_limit+0x1006>
    2a87: 65 04        	adc	$4                      ; 0x2004 <__heap_default_limit+0x1004>
    2a89: 85 04        	sta	$4                      ; 0x2004 <__heap_default_limit+0x1004>
    2a8b: 18           	clc
    2a8c: 8a           	txa
    2a8d: 69 05        	adc	#$5
    2a8f: 85 6b        	sta	$6b                     ; 0x206b <lpstore+0x11>
    2a91: a5 04        	lda	$4                      ; 0x2004 <__heap_default_limit+0x1004>
    2a93: 69 00        	adc	#$0
    2a95: 85 6c        	sta	$6c                     ; 0x206c <lpstore+0x12>
    2a97: a9 01        	lda	#$1
    2a99: a2 00        	ldx	#$0
    2a9b: 84 04        	sty	$4                      ; 0x2004 <__heap_default_limit+0x1004>
    2a9d: a8           	tay
    2a9e: 84 70        	sty	$70                     ; 0x2070 <lpstore+0x16>
    2aa0: 20 1b 8c     	jsr	$8c1b <__ashlhi3>
    2aa3: 12 6b        	ora	($6b),z                 ; 0x206b <lpstore+0x11>
    2aa5: 92 6b        	sta	($6b),z                 ; 0x206b <lpstore+0x11>
    2aa7: a6 71        	ldx	$71                     ; 0x2071 <lpstore+0x17>
    2aa9: 86 6b        	stx	$6b                     ; 0x206b <lpstore+0x11>
    2aab: a6 72        	ldx	$72                     ; 0x2072 <lpstore+0x18>
    2aad: 86 6c        	stx	$6c                     ; 0x206c <lpstore+0x12>
    2aaf: a6 6f        	ldx	$6f                     ; 0x206f <lpstore+0x15>
    2ab1: 86 04        	stx	$4                      ; 0x2004 <__heap_default_limit+0x1004>
    2ab3: 06 04        	asl	$4                      ; 0x2004 <__heap_default_limit+0x1004>
    2ab5: 26 6d        	rol	$6d                     ; 0x206d <lpstore+0x13>
    2ab7: a5 04        	lda	$4                      ; 0x2004 <__heap_default_limit+0x1004>
    2ab9: 0a           	asl
    2aba: a6 6d        	ldx	$6d                     ; 0x206d <lpstore+0x13>
    2abc: 86 05        	stx	$5                      ; 0x2005 <__heap_default_limit+0x1005>
    2abe: 26 05        	rol	$5                      ; 0x2005 <__heap_default_limit+0x1005>
    2ac0: 18           	clc
    2ac1: 65 04        	adc	$4                      ; 0x2004 <__heap_default_limit+0x1004>
    2ac3: aa           	tax
    2ac4: a5 05        	lda	$5                      ; 0x2005 <__heap_default_limit+0x1005>
    2ac6: 65 6d        	adc	$6d                     ; 0x206d <lpstore+0x13>
    2ac8: 85 04        	sta	$4                      ; 0x2004 <__heap_default_limit+0x1004>
    2aca: 18           	clc
    2acb: 8a           	txa
    2acc: 65 6b        	adc	$6b                     ; 0x206b <lpstore+0x11>
    2ace: aa           	tax
    2acf: a5 6c        	lda	$6c                     ; 0x206c <lpstore+0x12>
    2ad1: 65 04        	adc	$4                      ; 0x2004 <__heap_default_limit+0x1004>
    2ad3: 86 04        	stx	$4                      ; 0x2004 <__heap_default_limit+0x1004>
    2ad5: 85 05        	sta	$5                      ; 0x2005 <__heap_default_limit+0x1005>
    2ad7: a0 10        	ldy	#$10
    2ad9: 18           	clc
    2ada: a5 70        	lda	$70                     ; 0x2070 <lpstore+0x16>
    2adc: 71 04        	adc	($4),y                  ; 0x2004 <__heap_default_limit+0x1004>
    2ade: 91 04        	sta	($4),y                  ; 0x2004 <__heap_default_limit+0x1004>
    2ae0: 60           	rts

00002ae1 <BAMSectorsFreeBlocks>:
    2ae1: 85 09        	sta	$9                      ; 0x2009 <__heap_default_limit+0x1009>
    2ae3: 8a           	txa
    2ae4: ca           	dex
    2ae5: 18           	clc
    2ae6: 69 d7        	adc	#$d7
    2ae8: a8           	tay
    2ae9: 8a           	txa
    2aea: 49 ff        	eor	#$ff
    2aec: 18           	clc
    2aed: 65 09        	adc	$9                      ; 0x2009 <__heap_default_limit+0x1009>
    2aef: 85 0e        	sta	$e                      ; 0x200e <__heap_default_limit+0x100e>
    2af1: 64 0f        	stz	$f                      ; 0x200f <__heap_default_limit+0x100f>
    2af3: a9 ff        	lda	#$ff
    2af5: 69 00        	adc	#$0
    2af7: 85 0d        	sta	$d                      ; 0x200d <__heap_default_limit+0x100d>
    2af9: 64 10        	stz	$10                     ; 0x2010 <__heap_default_limit+0x1010>
    2afb: 4c 43 2b     	jmp	$2b43 <BAMSectorsFreeBlocks+0x62>
    2afe: 0a           	asl
    2aff: 85 09        	sta	$9                      ; 0x2009 <__heap_default_limit+0x1009>
    2b01: a9 00        	lda	#$0
    2b03: 2a           	rol
    2b04: 85 0a        	sta	$a                      ; 0x200a <__heap_default_limit+0x100a>
    2b06: a5 09        	lda	$9                      ; 0x2009 <__heap_default_limit+0x1009>
    2b08: 0a           	asl
    2b09: a8           	tay
    2b0a: a5 0a        	lda	$a                      ; 0x200a <__heap_default_limit+0x100a>
    2b0c: 2a           	rol
    2b0d: 85 0b        	sta	$b                      ; 0x200b <__heap_default_limit+0x100b>
    2b0f: 98           	tya
    2b10: 18           	clc
    2b11: 65 09        	adc	$9                      ; 0x2009 <__heap_default_limit+0x1009>
    2b13: 85 09        	sta	$9                      ; 0x2009 <__heap_default_limit+0x1009>
    2b15: a5 0b        	lda	$b                      ; 0x200b <__heap_default_limit+0x100b>
    2b17: 65 0a        	adc	$a                      ; 0x200a <__heap_default_limit+0x100a>
    2b19: a8           	tay
    2b1a: a5 09        	lda	$9                      ; 0x2009 <__heap_default_limit+0x1009>
    2b1c: 18           	clc
    2b1d: 65 04        	adc	$4                      ; 0x2004 <__heap_default_limit+0x1004>
    2b1f: 85 0a        	sta	$a                      ; 0x200a <__heap_default_limit+0x100a>
    2b21: 98           	tya
    2b22: 65 05        	adc	$5                      ; 0x2005 <__heap_default_limit+0x1005>
    2b24: 85 0b        	sta	$b                      ; 0x200b <__heap_default_limit+0x100b>
    2b26: 18           	clc
    2b27: a5 0f        	lda	$f                      ; 0x200f <__heap_default_limit+0x100f>
    2b29: a0 10        	ldy	#$10
    2b2b: 71 0a        	adc	($a),y                  ; 0x200a <__heap_default_limit+0x100a>
    2b2d: 85 0f        	sta	$f                      ; 0x200f <__heap_default_limit+0x100f>
    2b2f: a5 10        	lda	$10                     ; 0x2010 <__heap_default_limit+0x1010>
    2b31: 69 00        	adc	#$0
    2b33: 85 10        	sta	$10                     ; 0x2010 <__heap_default_limit+0x1010>
    2b35: e8           	inx
    2b36: a4 0c        	ldy	$c                      ; 0x200c <__heap_default_limit+0x100c>
    2b38: c8           	iny
    2b39: a9 ff        	lda	#$ff
    2b3b: c6 0e        	dec	$e                      ; 0x200e <__heap_default_limit+0x100e>
    2b3d: c5 0e        	cmp	$e                      ; 0x200e <__heap_default_limit+0x100e>
    2b3f: d0 02        	bne	$2b43 <BAMSectorsFreeBlocks+0x62>
    2b41: c6 0d        	dec	$d                      ; 0x200d <__heap_default_limit+0x100d>
    2b43: 18           	clc
    2b44: 98           	tya
    2b45: 69 28        	adc	#$28
    2b47: c5 08        	cmp	$8                      ; 0x2008 <__heap_default_limit+0x1008>
    2b49: b0 29        	bcs	$2b74 <BAMSectorsFreeBlocks+0x93>
    2b4b: 84 0c        	sty	$c                      ; 0x200c <__heap_default_limit+0x100c>
    2b4d: c0 d8        	cpy	#$d8
    2b4f: 8a           	txa
    2b50: b0 09        	bcs	$2b5b <BAMSectorsFreeBlocks+0x7a>
    2b52: a5 06        	lda	$6                      ; 0x2006 <__heap_default_limit+0x1006>
    2b54: 85 04        	sta	$4                      ; 0x2004 <__heap_default_limit+0x1004>
    2b56: a5 07        	lda	$7                      ; 0x2007 <__heap_default_limit+0x1007>
    2b58: 85 05        	sta	$5                      ; 0x2005 <__heap_default_limit+0x1005>
    2b5a: 98           	tya
    2b5b: a4 0d        	ldy	$d                      ; 0x200d <__heap_default_limit+0x100d>
    2b5d: 48           	pha
    2b5e: a5 0e        	lda	$e                      ; 0x200e <__heap_default_limit+0x100e>
    2b60: 85 09        	sta	$9                      ; 0x2009 <__heap_default_limit+0x1009>
    2b62: 68           	pla
    2b63: c0 00        	cpy	#$0
    2b65: f0 03        	beq	$2b6a <BAMSectorsFreeBlocks+0x89>
    2b67: 4c fe 2a     	jmp	$2afe <BAMSectorsFreeBlocks+0x1d>
    2b6a: a4 09        	ldy	$9                      ; 0x2009 <__heap_default_limit+0x1009>
    2b6c: f0 03        	beq	$2b71 <BAMSectorsFreeBlocks+0x90>
    2b6e: 4c fe 2a     	jmp	$2afe <BAMSectorsFreeBlocks+0x1d>
    2b71: 4c 35 2b     	jmp	$2b35 <BAMSectorsFreeBlocks+0x54>
    2b74: a6 10        	ldx	$10                     ; 0x2010 <__heap_default_limit+0x1010>
    2b76: a5 0f        	lda	$f                      ; 0x200f <__heap_default_limit+0x100f>
    2b78: 60           	rts

00002b79 <FreeTracks>:
    2b79: a4 18        	ldy	$18                     ; 0x2018 <next_line+0x3>
    2b7b: 5a           	phy
    2b7c: a4 19        	ldy	$19                     ; 0x2019 <next_line+0x4>
    2b7e: 5a           	phy
    2b7f: 86 49        	stx	$49                     ; 0x2049 <__after_main+0x1>
    2b81: a6 04        	ldx	$4                      ; 0x2004 <__heap_default_limit+0x1004>
    2b83: 86 48        	stx	$48                     ; 0x2048 <__after_main>
    2b85: a6 05        	ldx	$5                      ; 0x2005 <__heap_default_limit+0x1005>
    2b87: 86 4a        	stx	$4a                     ; 0x204a <__after_main+0x2>
    2b89: a6 06        	ldx	$6                      ; 0x2006 <__heap_default_limit+0x1006>
    2b8b: 8e de 9f     	stx	$9fde                   ; 0x9fde <__data_load_start+0x2c4>
    2b8e: a6 07        	ldx	$7                      ; 0x2007 <__heap_default_limit+0x1007>
    2b90: 8e df 9f     	stx	$9fdf                   ; 0x9fdf <__data_load_start+0x2c5>
    2b93: a6 08        	ldx	$8                      ; 0x2008 <__heap_default_limit+0x1008>
    2b95: 8e e0 9f     	stx	$9fe0                   ; 0x9fe0 <__data_load_start+0x2c6>
    2b98: a6 09        	ldx	$9                      ; 0x2009 <__heap_default_limit+0x1009>
    2b9a: 8e e1 9f     	stx	$9fe1                   ; 0x9fe1 <__data_load_start+0x2c7>
    2b9d: a2 00        	ldx	#$0
    2b9f: 86 18        	stx	$18                     ; 0x2018 <next_line+0x3>
    2ba1: a2 17        	ldx	#$17
    2ba3: 86 19        	stx	$19                     ; 0x2019 <next_line+0x4>
    2ba5: 20 4e 26     	jsr	$264e <GetBAM>
    2ba8: a6 4a        	ldx	$4a                     ; 0x204a <__after_main+0x2>
    2baa: 86 08        	stx	$8                      ; 0x2008 <__heap_default_limit+0x1008>
    2bac: ae de 9f     	ldx	$9fde                   ; 0x9fde <__data_load_start+0x2c4>
    2baf: 86 06        	stx	$6                      ; 0x2006 <__heap_default_limit+0x1006>
    2bb1: ae df 9f     	ldx	$9fdf                   ; 0x9fdf <__data_load_start+0x2c5>
    2bb4: 86 07        	stx	$7                      ; 0x2007 <__heap_default_limit+0x1007>
    2bb6: ae e0 9f     	ldx	$9fe0                   ; 0x9fe0 <__data_load_start+0x2c6>
    2bb9: 86 04        	stx	$4                      ; 0x2004 <__heap_default_limit+0x1004>
    2bbb: ae e1 9f     	ldx	$9fe1                   ; 0x9fe1 <__data_load_start+0x2c7>
    2bbe: 86 05        	stx	$5                      ; 0x2005 <__heap_default_limit+0x1005>
    2bc0: a9 00        	lda	#$0
    2bc2: 92 06        	sta	($6),z                  ; 0x2006 <__heap_default_limit+0x1006>
    2bc4: 92 04        	sta	($4),z                  ; 0x2004 <__heap_default_limit+0x1004>
    2bc6: a5 49        	lda	$49                     ; 0x2049 <__after_main+0x1>
    2bc8: a8           	tay
    2bc9: 88           	dey
    2bca: 64 09        	stz	$9                      ; 0x2009 <__heap_default_limit+0x1009>
    2bcc: a2 ff        	ldx	#$ff
    2bce: c6 08        	dec	$8                      ; 0x2008 <__heap_default_limit+0x1008>
    2bd0: e4 08        	cpx	$8                      ; 0x2008 <__heap_default_limit+0x1008>
    2bd2: d0 02        	bne	$2bd6 <FreeTracks+0x5d>
    2bd4: c6 09        	dec	$9                      ; 0x2009 <__heap_default_limit+0x1009>
    2bd6: 18           	clc
    2bd7: 69 d7        	adc	#$d7
    2bd9: 85 0f        	sta	$f                      ; 0x200f <__heap_default_limit+0x100f>
    2bdb: a6 48        	ldx	$48                     ; 0x2048 <__after_main>
    2bdd: 86 0e        	stx	$e                      ; 0x200e <__heap_default_limit+0x100e>
    2bdf: a2 00        	ldx	#$0
    2be1: 64 15        	stz	$15                     ; 0x2015 <next_line>
    2be3: 64 11        	stz	$11                     ; 0x2011 <__heap_default_limit+0x1011>
    2be5: 64 14        	stz	$14                     ; 0x2014 <__heap_default_limit+0x1014>
    2be7: c4 48        	cpy	$48                     ; 0x2048 <__after_main>
    2be9: 90 03        	bcc	$2bee <FreeTracks+0x75>
    2beb: 4c a7 2c     	jmp	$2ca7 <FreeTracks+0x12e>
    2bee: c0 28        	cpy	#$28
    2bf0: 84 10        	sty	$10                     ; 0x2010 <__heap_default_limit+0x1010>
    2bf2: 84 0b        	sty	$b                      ; 0x200b <__heap_default_limit+0x100b>
    2bf4: 8a           	txa
    2bf5: 90 0d        	bcc	$2c04 <FreeTracks+0x8b>
    2bf7: a9 00        	lda	#$0
    2bf9: a4 0f        	ldy	$f                      ; 0x200f <__heap_default_limit+0x100f>
    2bfb: 84 0b        	sty	$b                      ; 0x200b <__heap_default_limit+0x100b>
    2bfd: a8           	tay
    2bfe: 84 18        	sty	$18                     ; 0x2018 <next_line+0x3>
    2c00: a0 18        	ldy	#$18
    2c02: 84 19        	sty	$19                     ; 0x2019 <next_line+0x4>
    2c04: 06 0b        	asl	$b                      ; 0x200b <__heap_default_limit+0x100b>
    2c06: 2a           	rol
    2c07: 85 0c        	sta	$c                      ; 0x200c <__heap_default_limit+0x100c>
    2c09: a5 0b        	lda	$b                      ; 0x200b <__heap_default_limit+0x100b>
    2c0b: 0a           	asl
    2c0c: a8           	tay
    2c0d: a5 0c        	lda	$c                      ; 0x200c <__heap_default_limit+0x100c>
    2c0f: 2a           	rol
    2c10: 85 0d        	sta	$d                      ; 0x200d <__heap_default_limit+0x100d>
    2c12: 98           	tya
    2c13: 18           	clc
    2c14: 65 0b        	adc	$b                      ; 0x200b <__heap_default_limit+0x100b>
    2c16: 85 0b        	sta	$b                      ; 0x200b <__heap_default_limit+0x100b>
    2c18: a5 0d        	lda	$d                      ; 0x200d <__heap_default_limit+0x100d>
    2c1a: 65 0c        	adc	$c                      ; 0x200c <__heap_default_limit+0x100c>
    2c1c: a8           	tay
    2c1d: a5 0b        	lda	$b                      ; 0x200b <__heap_default_limit+0x100b>
    2c1f: 18           	clc
    2c20: 65 18        	adc	$18                     ; 0x2018 <next_line+0x3>
    2c22: 85 0c        	sta	$c                      ; 0x200c <__heap_default_limit+0x100c>
    2c24: 98           	tya
    2c25: 65 19        	adc	$19                     ; 0x2019 <next_line+0x4>
    2c27: 85 0d        	sta	$d                      ; 0x200d <__heap_default_limit+0x100d>
    2c29: a0 10        	ldy	#$10
    2c2b: b1 0c        	lda	($c),y                  ; 0x200c <__heap_default_limit+0x100c>
    2c2d: c9 28        	cmp	#$28
    2c2f: 90 0f        	bcc	$2c40 <FreeTracks+0xc7>
    2c31: b2 06        	lda	($6),z                  ; 0x2006 <__heap_default_limit+0x1006>
    2c33: d0 07        	bne	$2c3c <FreeTracks+0xc3>
    2c35: 18           	clc
    2c36: a5 0f        	lda	$f                      ; 0x200f <__heap_default_limit+0x100f>
    2c38: 69 29        	adc	#$29
    2c3a: 92 06        	sta	($6),z                  ; 0x2006 <__heap_default_limit+0x1006>
    2c3c: e6 15        	inc	$15                     ; 0x2015 <next_line>
    2c3e: 80 26        	bra	$2c66 <FreeTracks+0xed>
    2c40: a5 15        	lda	$15                     ; 0x2015 <next_line>
    2c42: f0 20        	beq	$2c64 <FreeTracks+0xeb>
    2c44: a5 10        	lda	$10                     ; 0x2010 <__heap_default_limit+0x1010>
    2c46: 92 04        	sta	($4),z                  ; 0x2004 <__heap_default_limit+0x1004>
    2c48: 38           	sec
    2c49: f2 06        	sbc	($6),z                  ; 0x2006 <__heap_default_limit+0x1006>
    2c4b: a8           	tay
    2c4c: 8a           	txa
    2c4d: e9 00        	sbc	#$0
    2c4f: 84 0d        	sty	$d                      ; 0x200d <__heap_default_limit+0x100d>
    2c51: c4 08        	cpy	$8                      ; 0x2008 <__heap_default_limit+0x1008>
    2c53: a8           	tay
    2c54: e5 09        	sbc	$9                      ; 0x2009 <__heap_default_limit+0x1009>
    2c56: 50 02        	bvc	$2c5a <FreeTracks+0xe1>
    2c58: 49 80        	eor	#$80
    2c5a: c9 00        	cmp	#$0
    2c5c: 10 13        	bpl	$2c71 <FreeTracks+0xf8>
    2c5e: a9 00        	lda	#$0
    2c60: 92 04        	sta	($4),z                  ; 0x2004 <__heap_default_limit+0x1004>
    2c62: 92 06        	sta	($6),z                  ; 0x2006 <__heap_default_limit+0x1006>
    2c64: 64 15        	stz	$15                     ; 0x2015 <next_line>
    2c66: a4 10        	ldy	$10                     ; 0x2010 <__heap_default_limit+0x1010>
    2c68: c8           	iny
    2c69: d0 01        	bne	$2c6c <FreeTracks+0xf3>
    2c6b: e8           	inx
    2c6c: e6 0f        	inc	$f                      ; 0x200f <__heap_default_limit+0x100f>
    2c6e: 4c e7 2b     	jmp	$2be7 <FreeTracks+0x6e>
    2c71: a5 14        	lda	$14                     ; 0x2014 <__heap_default_limit+0x1014>
    2c73: 38           	sec
    2c74: e5 11        	sbc	$11                     ; 0x2011 <__heap_default_limit+0x1011>
    2c76: 85 0b        	sta	$b                      ; 0x200b <__heap_default_limit+0x100b>
    2c78: a9 00        	lda	#$0
    2c7a: e9 00        	sbc	#$0
    2c7c: 85 0c        	sta	$c                      ; 0x200c <__heap_default_limit+0x100c>
    2c7e: a5 0d        	lda	$d                      ; 0x200d <__heap_default_limit+0x100d>
    2c80: c5 0b        	cmp	$b                      ; 0x200b <__heap_default_limit+0x100b>
    2c82: 98           	tya
    2c83: e5 0c        	sbc	$c                      ; 0x200c <__heap_default_limit+0x100c>
    2c85: 50 02        	bvc	$2c89 <FreeTracks+0x110>
    2c87: 49 80        	eor	#$80
    2c89: a4 10        	ldy	$10                     ; 0x2010 <__heap_default_limit+0x1010>
    2c8b: c9 00        	cmp	#$0
    2c8d: 10 0d        	bpl	$2c9c <FreeTracks+0x123>
    2c8f: a5 14        	lda	$14                     ; 0x2014 <__heap_default_limit+0x1014>
    2c91: 92 04        	sta	($4),z                  ; 0x2004 <__heap_default_limit+0x1004>
    2c93: a5 11        	lda	$11                     ; 0x2011 <__heap_default_limit+0x1011>
    2c95: 92 06        	sta	($6),z                  ; 0x2006 <__heap_default_limit+0x1006>
    2c97: 64 15        	stz	$15                     ; 0x2015 <next_line>
    2c99: 4c 68 2c     	jmp	$2c68 <FreeTracks+0xef>
    2c9c: b2 06        	lda	($6),z                  ; 0x2006 <__heap_default_limit+0x1006>
    2c9e: 85 11        	sta	$11                     ; 0x2011 <__heap_default_limit+0x1011>
    2ca0: 64 15        	stz	$15                     ; 0x2015 <next_line>
    2ca2: 84 14        	sty	$14                     ; 0x2014 <__heap_default_limit+0x1014>
    2ca4: 4c 68 2c     	jmp	$2c68 <FreeTracks+0xef>
    2ca7: 18           	clc
    2ca8: a4 15        	ldy	$15                     ; 0x2015 <next_line>
    2caa: a5 15        	lda	$15                     ; 0x2015 <next_line>
    2cac: 72 06        	adc	($6),z                  ; 0x2006 <__heap_default_limit+0x1006>
    2cae: 85 09        	sta	$9                      ; 0x2009 <__heap_default_limit+0x1009>
    2cb0: a9 00        	lda	#$0
    2cb2: 69 00        	adc	#$0
    2cb4: 85 08        	sta	$8                      ; 0x2008 <__heap_default_limit+0x1008>
    2cb6: a2 00        	ldx	#$0
    2cb8: e4 08        	cpx	$8                      ; 0x2008 <__heap_default_limit+0x1008>
    2cba: d0 1e        	bne	$2cda <FreeTracks+0x161>
    2cbc: a6 48        	ldx	$48                     ; 0x2048 <__after_main>
    2cbe: e4 09        	cpx	$9                      ; 0x2009 <__heap_default_limit+0x1009>
    2cc0: b0 04        	bcs	$2cc6 <FreeTracks+0x14d>
    2cc2: a5 48        	lda	$48                     ; 0x2048 <__after_main>
    2cc4: 92 04        	sta	($4),z                  ; 0x2004 <__heap_default_limit+0x1004>
    2cc6: 8c 00 16     	sty	$1600                   ; 0x1600 <__heap_default_limit+0x600>
    2cc9: b2 06        	lda	($6),z                  ; 0x2006 <__heap_default_limit+0x1006>
    2ccb: 8d 01 16     	sta	$1601                   ; 0x1601 <__heap_default_limit+0x601>
    2cce: b2 04        	lda	($4),z                  ; 0x2004 <__heap_default_limit+0x1004>
    2cd0: 8d 02 16     	sta	$1602                   ; 0x1602 <__heap_default_limit+0x602>
    2cd3: fa           	plx
    2cd4: 86 19        	stx	$19                     ; 0x2019 <next_line+0x4>
    2cd6: fa           	plx
    2cd7: 86 18        	stx	$18                     ; 0x2018 <next_line+0x3>
    2cd9: 60           	rts
    2cda: e4 08        	cpx	$8                      ; 0x2008 <__heap_default_limit+0x1008>
    2cdc: 90 e4        	bcc	$2cc2 <FreeTracks+0x149>
    2cde: 80 e6        	bra	$2cc6 <FreeTracks+0x14d>

00002ce0 <FormatPartition>:
    2ce0: a4 17        	ldy	$17                     ; 0x2017 <next_line+0x2>
    2ce2: 5a           	phy
    2ce3: a4 18        	ldy	$18                     ; 0x2018 <next_line+0x3>
    2ce5: 5a           	phy
    2ce6: a4 19        	ldy	$19                     ; 0x2019 <next_line+0x4>
    2ce8: 5a           	phy
    2ce9: a4 1a        	ldy	$1a                     ; 0x201a <next_line+0x5>
    2ceb: 5a           	phy
    2cec: 85 1a        	sta	$1a                     ; 0x201a <next_line+0x5>
    2cee: 86 17        	stx	$17                     ; 0x2017 <next_line+0x2>
    2cf0: a6 04        	ldx	$4                      ; 0x2004 <__heap_default_limit+0x1004>
    2cf2: 86 18        	stx	$18                     ; 0x2018 <next_line+0x3>
    2cf4: a6 05        	ldx	$5                      ; 0x2005 <__heap_default_limit+0x1005>
    2cf6: 86 19        	stx	$19                     ; 0x2019 <next_line+0x4>
    2cf8: a2 18        	ldx	#$18
    2cfa: a0 01        	ldy	#$1
    2cfc: 64 04        	stz	$4                      ; 0x2004 <__heap_default_limit+0x1004>
    2cfe: 64 05        	stz	$5                      ; 0x2005 <__heap_default_limit+0x1005>
    2d00: 64 06        	stz	$6                      ; 0x2006 <__heap_default_limit+0x1006>
    2d02: 64 07        	stz	$7                      ; 0x2007 <__heap_default_limit+0x1007>
    2d04: 84 08        	sty	$8                      ; 0x2008 <__heap_default_limit+0x1008>
    2d06: a9 00        	lda	#$0
    2d08: 20 0c 8a     	jsr	$8a0c <lfill>
    2d0b: a2 ff        	ldx	#$ff
    2d0d: 8e 01 18     	stx	$1801                   ; 0x1801 <__heap_default_limit+0x801>
    2d10: 9c 00 17     	stz	$1700                   ; 0x1700 <__heap_default_limit+0x700>
    2d13: 8e 01 17     	stx	$1701                   ; 0x1701 <__heap_default_limit+0x701>
    2d16: a2 44        	ldx	#$44
    2d18: 8e 02 17     	stx	$1702                   ; 0x1702 <__heap_default_limit+0x702>
    2d1b: a0 bb        	ldy	#$bb
    2d1d: 8c 03 17     	sty	$1703                   ; 0x1703 <__heap_default_limit+0x703>
    2d20: a0 49        	ldy	#$49
    2d22: 8c 04 17     	sty	$1704                   ; 0x1704 <__heap_default_limit+0x704>
    2d25: 8e 05 17     	stx	$1705                   ; 0x1705 <__heap_default_limit+0x705>
    2d28: a2 40        	ldx	#$40
    2d2a: 8e 06 17     	stx	$1706                   ; 0x1706 <__heap_default_limit+0x706>
    2d2d: a9 07        	lda	#$7
    2d2f: a2 09        	ldx	#$9
    2d31: 64 04        	stz	$4                      ; 0x2004 <__heap_default_limit+0x1004>
    2d33: 64 05        	stz	$5                      ; 0x2005 <__heap_default_limit+0x1005>
    2d35: 64 06        	stz	$6                      ; 0x2006 <__heap_default_limit+0x1006>
    2d37: 86 07        	stx	$7                      ; 0x2007 <__heap_default_limit+0x1007>
    2d39: 64 08        	stz	$8                      ; 0x2008 <__heap_default_limit+0x1008>
    2d3b: a2 17        	ldx	#$17
    2d3d: 20 0c 8a     	jsr	$8a0c <lfill>
    2d40: 64 05        	stz	$5                      ; 0x2005 <__heap_default_limit+0x1005>
    2d42: a2 28        	ldx	#$28
    2d44: 64 07        	stz	$7                      ; 0x2007 <__heap_default_limit+0x1007>
    2d46: 80 27        	bra	$2d6f <FormatPartition+0x8f>
    2d48: a9 28        	lda	#$28
    2d4a: a0 ff        	ldy	#$ff
    2d4c: a6 05        	ldx	$5                      ; 0x2005 <__heap_default_limit+0x1005>
    2d4e: 9d 10 17     	sta	$1710,x                 ; 0x1710 <__heap_default_limit+0x710>
    2d51: 98           	tya
    2d52: 9d 11 17     	sta	$1711,x                 ; 0x1711 <__heap_default_limit+0x711>
    2d55: a9 ff        	lda	#$ff
    2d57: 9d 12 17     	sta	$1712,x                 ; 0x1712 <__heap_default_limit+0x712>
    2d5a: 9d 13 17     	sta	$1713,x                 ; 0x1713 <__heap_default_limit+0x713>
    2d5d: 9d 14 17     	sta	$1714,x                 ; 0x1714 <__heap_default_limit+0x714>
    2d60: 9d 15 17     	sta	$1715,x                 ; 0x1715 <__heap_default_limit+0x715>
    2d63: e6 07        	inc	$7                      ; 0x2007 <__heap_default_limit+0x1007>
    2d65: 18           	clc
    2d66: a5 05        	lda	$5                      ; 0x2005 <__heap_default_limit+0x1005>
    2d68: 69 06        	adc	#$6
    2d6a: a6 06        	ldx	$6                      ; 0x2006 <__heap_default_limit+0x1006>
    2d6c: ca           	dex
    2d6d: 85 05        	sta	$5                      ; 0x2005 <__heap_default_limit+0x1005>
    2d6f: 8a           	txa
    2d70: f0 19        	beq	$2d8b <FormatPartition+0xab>
    2d72: 86 06        	stx	$6                      ; 0x2006 <__heap_default_limit+0x1006>
    2d74: 18           	clc
    2d75: a5 07        	lda	$7                      ; 0x2007 <__heap_default_limit+0x1007>
    2d77: 69 29        	adc	#$29
    2d79: a6 17        	ldx	$17                     ; 0x2017 <next_line+0x2>
    2d7b: 86 04        	stx	$4                      ; 0x2004 <__heap_default_limit+0x1004>
    2d7d: c5 04        	cmp	$4                      ; 0x2004 <__heap_default_limit+0x1004>
    2d7f: f0 03        	beq	$2d84 <FormatPartition+0xa4>
    2d81: 4c 48 2d     	jmp	$2d48 <FormatPartition+0x68>
    2d84: a0 f0        	ldy	#$f0
    2d86: a9 24        	lda	#$24
    2d88: 4c 4c 2d     	jmp	$2d4c <FormatPartition+0x6c>
    2d8b: a2 52        	ldx	#$52
    2d8d: 86 04        	stx	$4                      ; 0x2004 <__heap_default_limit+0x1004>
    2d8f: a2 99        	ldx	#$99
    2d91: 86 05        	stx	$5                      ; 0x2005 <__heap_default_limit+0x1005>
    2d93: a2 d1        	ldx	#$d1
    2d95: 86 06        	stx	$6                      ; 0x2006 <__heap_default_limit+0x1006>
    2d97: a2 97        	ldx	#$97
    2d99: 86 07        	stx	$7                      ; 0x2007 <__heap_default_limit+0x1007>
    2d9b: a9 1e        	lda	#$1e
    2d9d: 20 15 46     	jsr	$4615 <progress>
    2da0: a2 00        	ldx	#$0
    2da2: 86 04        	stx	$4                      ; 0x2004 <__heap_default_limit+0x1004>
    2da4: a2 17        	ldx	#$17
    2da6: 86 05        	stx	$5                      ; 0x2005 <__heap_default_limit+0x1005>
    2da8: a2 02        	ldx	#$2
    2daa: 86 06        	stx	$6                      ; 0x2006 <__heap_default_limit+0x1006>
    2dac: a6 17        	ldx	$17                     ; 0x2017 <next_line+0x2>
    2dae: a5 1a        	lda	$1a                     ; 0x201a <next_line+0x5>
    2db0: 20 75 25     	jsr	$2575 <PutWholeSector>
    2db3: a2 17        	ldx	#$17
    2db5: a9 18        	lda	#$18
    2db7: a0 01        	ldy	#$1
    2db9: 64 04        	stz	$4                      ; 0x2004 <__heap_default_limit+0x1004>
    2dbb: 64 05        	stz	$5                      ; 0x2005 <__heap_default_limit+0x1005>
    2dbd: 64 06        	stz	$6                      ; 0x2006 <__heap_default_limit+0x1006>
    2dbf: 85 07        	sta	$7                      ; 0x2007 <__heap_default_limit+0x1007>
    2dc1: 64 08        	stz	$8                      ; 0x2008 <__heap_default_limit+0x1008>
    2dc3: 64 09        	stz	$9                      ; 0x2009 <__heap_default_limit+0x1009>
    2dc5: 64 0a        	stz	$a                      ; 0x200a <__heap_default_limit+0x100a>
    2dc7: 84 0b        	sty	$b                      ; 0x200b <__heap_default_limit+0x100b>
    2dc9: a9 00        	lda	#$0
    2dcb: 20 a5 89     	jsr	$89a5 <lcopy>
    2dce: a4 17        	ldy	$17                     ; 0x2017 <next_line+0x2>
    2dd0: 8c 00 18     	sty	$1800                   ; 0x1800 <__heap_default_limit+0x800>
    2dd3: a2 02        	ldx	#$2
    2dd5: 8e 01 18     	stx	$1801                   ; 0x1801 <__heap_default_limit+0x801>
    2dd8: c0 29        	cpy	#$29
    2dda: 90 0f        	bcc	$2deb <FormatPartition+0x10b>
    2ddc: a2 d7        	ldx	#$d7
    2dde: a0 28        	ldy	#$28
    2de0: 8c df 9f     	sty	$9fdf                   ; 0x9fdf <__data_load_start+0x2c5>
    2de3: a0 ff        	ldy	#$ff
    2de5: 98           	tya
    2de6: 8d de 9f     	sta	$9fde                   ; 0x9fde <__data_load_start+0x2c4>
    2de9: 80 0e        	bra	$2df9 <FormatPartition+0x119>
    2deb: a2 f0        	ldx	#$f0
    2ded: 8e de 9f     	stx	$9fde                   ; 0x9fde <__data_load_start+0x2c4>
    2df0: a2 24        	ldx	#$24
    2df2: 8e df 9f     	stx	$9fdf                   ; 0x9fdf <__data_load_start+0x2c5>
    2df5: a2 ff        	ldx	#$ff
    2df7: a0 ff        	ldy	#$ff
    2df9: 86 04        	stx	$4                      ; 0x2004 <__heap_default_limit+0x1004>
    2dfb: a5 17        	lda	$17                     ; 0x2017 <next_line+0x2>
    2dfd: 18           	clc
    2dfe: 65 04        	adc	$4                      ; 0x2004 <__heap_default_limit+0x1004>
    2e00: 85 04        	sta	$4                      ; 0x2004 <__heap_default_limit+0x1004>
    2e02: 98           	tya
    2e03: 69 00        	adc	#$0
    2e05: 06 04        	asl	$4                      ; 0x2004 <__heap_default_limit+0x1004>
    2e07: 2a           	rol
    2e08: 85 05        	sta	$5                      ; 0x2005 <__heap_default_limit+0x1005>
    2e0a: a5 04        	lda	$4                      ; 0x2004 <__heap_default_limit+0x1004>
    2e0c: 0a           	asl
    2e0d: a6 05        	ldx	$5                      ; 0x2005 <__heap_default_limit+0x1005>
    2e0f: 86 06        	stx	$6                      ; 0x2006 <__heap_default_limit+0x1006>
    2e11: 26 06        	rol	$6                      ; 0x2006 <__heap_default_limit+0x1006>
    2e13: 18           	clc
    2e14: 65 04        	adc	$4                      ; 0x2004 <__heap_default_limit+0x1004>
    2e16: 85 04        	sta	$4                      ; 0x2004 <__heap_default_limit+0x1004>
    2e18: a5 06        	lda	$6                      ; 0x2006 <__heap_default_limit+0x1006>
    2e1a: 65 05        	adc	$5                      ; 0x2005 <__heap_default_limit+0x1005>
    2e1c: 85 05        	sta	$5                      ; 0x2005 <__heap_default_limit+0x1005>
    2e1e: a9 10        	lda	#$10
    2e20: 18           	clc
    2e21: 65 04        	adc	$4                      ; 0x2004 <__heap_default_limit+0x1004>
    2e23: 85 04        	sta	$4                      ; 0x2004 <__heap_default_limit+0x1004>
    2e25: a9 18        	lda	#$18
    2e27: 65 05        	adc	$5                      ; 0x2005 <__heap_default_limit+0x1005>
    2e29: 85 05        	sta	$5                      ; 0x2005 <__heap_default_limit+0x1005>
    2e2b: ad df 9f     	lda	$9fdf                   ; 0x9fdf <__data_load_start+0x2c5>
    2e2e: 92 04        	sta	($4),z                  ; 0x2004 <__heap_default_limit+0x1004>
    2e30: a0 01        	ldy	#$1
    2e32: ad de 9f     	lda	$9fde                   ; 0x9fde <__data_load_start+0x2c4>
    2e35: 91 04        	sta	($4),y                  ; 0x2004 <__heap_default_limit+0x1004>
    2e37: a2 17        	ldx	#$17
    2e39: 64 04        	stz	$4                      ; 0x2004 <__heap_default_limit+0x1004>
    2e3b: 64 05        	stz	$5                      ; 0x2005 <__heap_default_limit+0x1005>
    2e3d: 64 06        	stz	$6                      ; 0x2006 <__heap_default_limit+0x1006>
    2e3f: 64 07        	stz	$7                      ; 0x2007 <__heap_default_limit+0x1007>
    2e41: 84 08        	sty	$8                      ; 0x2008 <__heap_default_limit+0x1008>
    2e43: a9 00        	lda	#$0
    2e45: 20 0c 8a     	jsr	$8a0c <lfill>
    2e48: a6 17        	ldx	$17                     ; 0x2017 <next_line+0x2>
    2e4a: 8e 00 17     	stx	$1700                   ; 0x1700 <__heap_default_limit+0x700>
    2e4d: a2 03        	ldx	#$3
    2e4f: 8e 01 17     	stx	$1701                   ; 0x1701 <__heap_default_limit+0x701>
    2e52: a2 44        	ldx	#$44
    2e54: 8e 02 17     	stx	$1702                   ; 0x1702 <__heap_default_limit+0x702>
    2e57: a6 18        	ldx	$18                     ; 0x2018 <next_line+0x3>
    2e59: 86 04        	stx	$4                      ; 0x2004 <__heap_default_limit+0x1004>
    2e5b: a6 19        	ldx	$19                     ; 0x2019 <next_line+0x4>
    2e5d: 86 05        	stx	$5                      ; 0x2005 <__heap_default_limit+0x1005>
    2e5f: a2 04        	ldx	#$4
    2e61: 86 06        	stx	$6                      ; 0x2006 <__heap_default_limit+0x1006>
    2e63: a2 17        	ldx	#$17
    2e65: 86 07        	stx	$7                      ; 0x2007 <__heap_default_limit+0x1007>
    2e67: a9 10        	lda	#$10
    2e69: 20 c8 40     	jsr	$40c8 <strcopy>
    2e6c: a2 a0        	ldx	#$a0
    2e6e: 8e 14 17     	stx	$1714                   ; 0x1714 <__heap_default_limit+0x714>
    2e71: 8e 15 17     	stx	$1715                   ; 0x1715 <__heap_default_limit+0x715>
    2e74: a0 49        	ldy	#$49
    2e76: 8c 16 17     	sty	$1716                   ; 0x1716 <__heap_default_limit+0x716>
    2e79: a9 44        	lda	#$44
    2e7b: 8d 17 17     	sta	$1717                   ; 0x1717 <__heap_default_limit+0x717>
    2e7e: 8e 18 17     	stx	$1718                   ; 0x1718 <__heap_default_limit+0x718>
    2e81: a0 33        	ldy	#$33
    2e83: 8c 19 17     	sty	$1719                   ; 0x1719 <__heap_default_limit+0x719>
    2e86: 8d 1a 17     	sta	$171a                   ; 0x171a <__heap_default_limit+0x71a>
    2e89: 8e 1b 17     	stx	$171b                   ; 0x171b <__heap_default_limit+0x71b>
    2e8c: 8e 1c 17     	stx	$171c                   ; 0x171c <__heap_default_limit+0x71c>
    2e8f: a2 52        	ldx	#$52
    2e91: 86 04        	stx	$4                      ; 0x2004 <__heap_default_limit+0x1004>
    2e93: a2 99        	ldx	#$99
    2e95: 86 05        	stx	$5                      ; 0x2005 <__heap_default_limit+0x1005>
    2e97: a2 df        	ldx	#$df
    2e99: 86 06        	stx	$6                      ; 0x2006 <__heap_default_limit+0x1006>
    2e9b: a2 97        	ldx	#$97
    2e9d: 86 07        	stx	$7                      ; 0x2007 <__heap_default_limit+0x1007>
    2e9f: a9 3c        	lda	#$3c
    2ea1: 20 15 46     	jsr	$4615 <progress>
    2ea4: a2 00        	ldx	#$0
    2ea6: 86 04        	stx	$4                      ; 0x2004 <__heap_default_limit+0x1004>
    2ea8: a2 17        	ldx	#$17
    2eaa: 86 05        	stx	$5                      ; 0x2005 <__heap_default_limit+0x1005>
    2eac: 64 06        	stz	$6                      ; 0x2006 <__heap_default_limit+0x1006>
    2eae: a6 17        	ldx	$17                     ; 0x2017 <next_line+0x2>
    2eb0: a5 1a        	lda	$1a                     ; 0x201a <next_line+0x5>
    2eb2: 20 75 25     	jsr	$2575 <PutWholeSector>
    2eb5: fa           	plx
    2eb6: 86 1a        	stx	$1a                     ; 0x201a <next_line+0x5>
    2eb8: fa           	plx
    2eb9: 86 19        	stx	$19                     ; 0x2019 <next_line+0x4>
    2ebb: fa           	plx
    2ebc: 86 18        	stx	$18                     ; 0x2018 <next_line+0x3>
    2ebe: fa           	plx
    2ebf: 86 17        	stx	$17                     ; 0x2017 <next_line+0x2>
    2ec1: 60           	rts

00002ec2 <isallocatedBAMtracksector>:
    2ec2: 86 06        	stx	$6                      ; 0x2006 <__heap_default_limit+0x1006>
    2ec4: aa           	tax
    2ec5: ca           	dex
    2ec6: 86 09        	stx	$9                      ; 0x2009 <__heap_default_limit+0x1009>
    2ec8: e0 28        	cpx	#$28
    2eca: a2 b2        	ldx	#$b2
    2ecc: 86 04        	stx	$4                      ; 0x2004 <__heap_default_limit+0x1004>
    2ece: a2 9c        	ldx	#$9c
    2ed0: 86 05        	stx	$5                      ; 0x2005 <__heap_default_limit+0x1005>
    2ed2: 90 0d        	bcc	$2ee1 <isallocatedBAMtracksector+0x1f>
    2ed4: 18           	clc
    2ed5: 69 d7        	adc	#$d7
    2ed7: a2 b4        	ldx	#$b4
    2ed9: 86 04        	stx	$4                      ; 0x2004 <__heap_default_limit+0x1004>
    2edb: a2 9c        	ldx	#$9c
    2edd: 86 05        	stx	$5                      ; 0x2005 <__heap_default_limit+0x1005>
    2edf: 85 09        	sta	$9                      ; 0x2009 <__heap_default_limit+0x1009>
    2ee1: b2 04        	lda	($4),z                  ; 0x2004 <__heap_default_limit+0x1004>
    2ee3: 85 08        	sta	$8                      ; 0x2008 <__heap_default_limit+0x1008>
    2ee5: a0 01        	ldy	#$1
    2ee7: b1 04        	lda	($4),y                  ; 0x2004 <__heap_default_limit+0x1004>
    2ee9: a6 06        	ldx	$6                      ; 0x2006 <__heap_default_limit+0x1006>
    2eeb: e0 08        	cpx	#$8
    2eed: 90 03        	bcc	$2ef2 <isallocatedBAMtracksector+0x30>
    2eef: 4c 34 2f     	jmp	$2f34 <isallocatedBAMtracksector+0x72>
    2ef2: 64 04        	stz	$4                      ; 0x2004 <__heap_default_limit+0x1004>
    2ef4: a6 09        	ldx	$9                      ; 0x2009 <__heap_default_limit+0x1009>
    2ef6: 86 05        	stx	$5                      ; 0x2005 <__heap_default_limit+0x1005>
    2ef8: 06 05        	asl	$5                      ; 0x2005 <__heap_default_limit+0x1005>
    2efa: 26 04        	rol	$4                      ; 0x2004 <__heap_default_limit+0x1004>
    2efc: a6 05        	ldx	$5                      ; 0x2005 <__heap_default_limit+0x1005>
    2efe: 86 07        	stx	$7                      ; 0x2007 <__heap_default_limit+0x1007>
    2f00: 06 07        	asl	$7                      ; 0x2007 <__heap_default_limit+0x1007>
    2f02: aa           	tax
    2f03: a4 04        	ldy	$4                      ; 0x2004 <__heap_default_limit+0x1004>
    2f05: 84 09        	sty	$9                      ; 0x2009 <__heap_default_limit+0x1009>
    2f07: 26 09        	rol	$9                      ; 0x2009 <__heap_default_limit+0x1009>
    2f09: 18           	clc
    2f0a: a5 07        	lda	$7                      ; 0x2007 <__heap_default_limit+0x1007>
    2f0c: 65 05        	adc	$5                      ; 0x2005 <__heap_default_limit+0x1005>
    2f0e: 85 05        	sta	$5                      ; 0x2005 <__heap_default_limit+0x1005>
    2f10: a5 09        	lda	$9                      ; 0x2009 <__heap_default_limit+0x1009>
    2f12: 65 04        	adc	$4                      ; 0x2004 <__heap_default_limit+0x1004>
    2f14: 85 04        	sta	$4                      ; 0x2004 <__heap_default_limit+0x1004>
    2f16: a5 08        	lda	$8                      ; 0x2008 <__heap_default_limit+0x1008>
    2f18: 18           	clc
    2f19: 65 05        	adc	$5                      ; 0x2005 <__heap_default_limit+0x1005>
    2f1b: a8           	tay
    2f1c: 8a           	txa
    2f1d: 65 04        	adc	$4                      ; 0x2004 <__heap_default_limit+0x1004>
    2f1f: 84 04        	sty	$4                      ; 0x2004 <__heap_default_limit+0x1004>
    2f21: 85 05        	sta	$5                      ; 0x2005 <__heap_default_limit+0x1005>
    2f23: a0 11        	ldy	#$11
    2f25: b1 04        	lda	($4),y                  ; 0x2004 <__heap_default_limit+0x1004>
    2f27: 85 48        	sta	$48                     ; 0x2048 <__after_main>
    2f29: a9 01        	lda	#$1
    2f2b: a2 00        	ldx	#$0
    2f2d: a4 06        	ldy	$6                      ; 0x2006 <__heap_default_limit+0x1006>
    2f2f: 84 04        	sty	$4                      ; 0x2004 <__heap_default_limit+0x1004>
    2f31: 4c bf 2f     	jmp	$2fbf <isallocatedBAMtracksector+0xfd>
    2f34: 85 07        	sta	$7                      ; 0x2007 <__heap_default_limit+0x1007>
    2f36: a6 06        	ldx	$6                      ; 0x2006 <__heap_default_limit+0x1006>
    2f38: e0 10        	cpx	#$10
    2f3a: 90 03        	bcc	$2f3f <isallocatedBAMtracksector+0x7d>
    2f3c: 4c 79 2f     	jmp	$2f79 <isallocatedBAMtracksector+0xb7>
    2f3f: 64 04        	stz	$4                      ; 0x2004 <__heap_default_limit+0x1004>
    2f41: a6 09        	ldx	$9                      ; 0x2009 <__heap_default_limit+0x1009>
    2f43: 86 05        	stx	$5                      ; 0x2005 <__heap_default_limit+0x1005>
    2f45: 06 05        	asl	$5                      ; 0x2005 <__heap_default_limit+0x1005>
    2f47: 26 04        	rol	$4                      ; 0x2004 <__heap_default_limit+0x1004>
    2f49: a5 05        	lda	$5                      ; 0x2005 <__heap_default_limit+0x1005>
    2f4b: 0a           	asl
    2f4c: a6 04        	ldx	$4                      ; 0x2004 <__heap_default_limit+0x1004>
    2f4e: 86 09        	stx	$9                      ; 0x2009 <__heap_default_limit+0x1009>
    2f50: 26 09        	rol	$9                      ; 0x2009 <__heap_default_limit+0x1009>
    2f52: 18           	clc
    2f53: 65 05        	adc	$5                      ; 0x2005 <__heap_default_limit+0x1005>
    2f55: 85 05        	sta	$5                      ; 0x2005 <__heap_default_limit+0x1005>
    2f57: a5 09        	lda	$9                      ; 0x2009 <__heap_default_limit+0x1009>
    2f59: 65 04        	adc	$4                      ; 0x2004 <__heap_default_limit+0x1004>
    2f5b: 85 04        	sta	$4                      ; 0x2004 <__heap_default_limit+0x1004>
    2f5d: a5 08        	lda	$8                      ; 0x2008 <__heap_default_limit+0x1008>
    2f5f: 18           	clc
    2f60: 65 05        	adc	$5                      ; 0x2005 <__heap_default_limit+0x1005>
    2f62: aa           	tax
    2f63: a5 07        	lda	$7                      ; 0x2007 <__heap_default_limit+0x1007>
    2f65: 65 04        	adc	$4                      ; 0x2004 <__heap_default_limit+0x1004>
    2f67: 86 04        	stx	$4                      ; 0x2004 <__heap_default_limit+0x1004>
    2f69: 85 05        	sta	$5                      ; 0x2005 <__heap_default_limit+0x1005>
    2f6b: a0 12        	ldy	#$12
    2f6d: b1 04        	lda	($4),y                  ; 0x2004 <__heap_default_limit+0x1004>
    2f6f: 85 48        	sta	$48                     ; 0x2048 <__after_main>
    2f71: a5 06        	lda	$6                      ; 0x2006 <__heap_default_limit+0x1006>
    2f73: 18           	clc
    2f74: 69 f8        	adc	#$f8
    2f76: 4c b9 2f     	jmp	$2fb9 <isallocatedBAMtracksector+0xf7>
    2f79: a6 06        	ldx	$6                      ; 0x2006 <__heap_default_limit+0x1006>
    2f7b: e0 18        	cpx	#$18
    2f7d: 90 03        	bcc	$2f82 <isallocatedBAMtracksector+0xc0>
    2f7f: 4c d0 2f     	jmp	$2fd0 <isallocatedBAMtracksector+0x10e>
    2f82: 64 04        	stz	$4                      ; 0x2004 <__heap_default_limit+0x1004>
    2f84: a6 09        	ldx	$9                      ; 0x2009 <__heap_default_limit+0x1009>
    2f86: 86 05        	stx	$5                      ; 0x2005 <__heap_default_limit+0x1005>
    2f88: 06 05        	asl	$5                      ; 0x2005 <__heap_default_limit+0x1005>
    2f8a: 26 04        	rol	$4                      ; 0x2004 <__heap_default_limit+0x1004>
    2f8c: a5 05        	lda	$5                      ; 0x2005 <__heap_default_limit+0x1005>
    2f8e: 0a           	asl
    2f8f: a6 04        	ldx	$4                      ; 0x2004 <__heap_default_limit+0x1004>
    2f91: 86 09        	stx	$9                      ; 0x2009 <__heap_default_limit+0x1009>
    2f93: 26 09        	rol	$9                      ; 0x2009 <__heap_default_limit+0x1009>
    2f95: 18           	clc
    2f96: 65 05        	adc	$5                      ; 0x2005 <__heap_default_limit+0x1005>
    2f98: 85 05        	sta	$5                      ; 0x2005 <__heap_default_limit+0x1005>
    2f9a: a5 09        	lda	$9                      ; 0x2009 <__heap_default_limit+0x1009>
    2f9c: 65 04        	adc	$4                      ; 0x2004 <__heap_default_limit+0x1004>
    2f9e: 85 04        	sta	$4                      ; 0x2004 <__heap_default_limit+0x1004>
    2fa0: a5 08        	lda	$8                      ; 0x2008 <__heap_default_limit+0x1008>
    2fa2: 18           	clc
    2fa3: 65 05        	adc	$5                      ; 0x2005 <__heap_default_limit+0x1005>
    2fa5: aa           	tax
    2fa6: a5 07        	lda	$7                      ; 0x2007 <__heap_default_limit+0x1007>
    2fa8: 65 04        	adc	$4                      ; 0x2004 <__heap_default_limit+0x1004>
    2faa: 86 04        	stx	$4                      ; 0x2004 <__heap_default_limit+0x1004>
    2fac: 85 05        	sta	$5                      ; 0x2005 <__heap_default_limit+0x1005>
    2fae: a0 13        	ldy	#$13
    2fb0: b1 04        	lda	($4),y                  ; 0x2004 <__heap_default_limit+0x1004>
    2fb2: 85 48        	sta	$48                     ; 0x2048 <__after_main>
    2fb4: a5 06        	lda	$6                      ; 0x2006 <__heap_default_limit+0x1006>
    2fb6: 18           	clc
    2fb7: 69 f0        	adc	#$f0
    2fb9: a2 00        	ldx	#$0
    2fbb: 85 04        	sta	$4                      ; 0x2004 <__heap_default_limit+0x1004>
    2fbd: a9 01        	lda	#$1
    2fbf: 20 1b 8c     	jsr	$8c1b <__ashlhi3>
    2fc2: a2 01        	ldx	#$1
    2fc4: a4 48        	ldy	$48                     ; 0x2048 <__after_main>
    2fc6: 84 04        	sty	$4                      ; 0x2004 <__heap_default_limit+0x1004>
    2fc8: 25 04        	and	$4                      ; 0x2004 <__heap_default_limit+0x1004>
    2fca: f0 02        	beq	$2fce <isallocatedBAMtracksector+0x10c>
    2fcc: a2 00        	ldx	#$0
    2fce: 8a           	txa
    2fcf: 60           	rts
    2fd0: a6 06        	ldx	$6                      ; 0x2006 <__heap_default_limit+0x1006>
    2fd2: e0 20        	cpx	#$20
    2fd4: a2 01        	ldx	#$1
    2fd6: b0 02        	bcs	$2fda <isallocatedBAMtracksector+0x118>
    2fd8: a2 00        	ldx	#$0
    2fda: 86 0a        	stx	$a                      ; 0x200a <__heap_default_limit+0x100a>
    2fdc: 64 04        	stz	$4                      ; 0x2004 <__heap_default_limit+0x1004>
    2fde: 18           	clc
    2fdf: a6 09        	ldx	$9                      ; 0x2009 <__heap_default_limit+0x1009>
    2fe1: 86 05        	stx	$5                      ; 0x2005 <__heap_default_limit+0x1005>
    2fe3: a5 08        	lda	$8                      ; 0x2008 <__heap_default_limit+0x1008>
    2fe5: 69 10        	adc	#$10
    2fe7: aa           	tax
    2fe8: a5 07        	lda	$7                      ; 0x2007 <__heap_default_limit+0x1007>
    2fea: 69 00        	adc	#$0
    2fec: a8           	tay
    2fed: 06 05        	asl	$5                      ; 0x2005 <__heap_default_limit+0x1005>
    2fef: 26 04        	rol	$4                      ; 0x2004 <__heap_default_limit+0x1004>
    2ff1: a5 05        	lda	$5                      ; 0x2005 <__heap_default_limit+0x1005>
    2ff3: 0a           	asl
    2ff4: 5a           	phy
    2ff5: a4 04        	ldy	$4                      ; 0x2004 <__heap_default_limit+0x1004>
    2ff7: 84 07        	sty	$7                      ; 0x2007 <__heap_default_limit+0x1007>
    2ff9: 7a           	ply
    2ffa: 26 07        	rol	$7                      ; 0x2007 <__heap_default_limit+0x1007>
    2ffc: e6 0a        	inc	$a                      ; 0x200a <__heap_default_limit+0x100a>
    2ffe: c6 0a        	dec	$a                      ; 0x200a <__heap_default_limit+0x100a>
    3000: d0 24        	bne	$3026 <isallocatedBAMtracksector+0x164>
    3002: 18           	clc
    3003: 65 05        	adc	$5                      ; 0x2005 <__heap_default_limit+0x1005>
    3005: 85 05        	sta	$5                      ; 0x2005 <__heap_default_limit+0x1005>
    3007: a5 07        	lda	$7                      ; 0x2007 <__heap_default_limit+0x1007>
    3009: 65 04        	adc	$4                      ; 0x2004 <__heap_default_limit+0x1004>
    300b: 85 04        	sta	$4                      ; 0x2004 <__heap_default_limit+0x1004>
    300d: 8a           	txa
    300e: 18           	clc
    300f: 65 05        	adc	$5                      ; 0x2005 <__heap_default_limit+0x1005>
    3011: aa           	tax
    3012: 98           	tya
    3013: 65 04        	adc	$4                      ; 0x2004 <__heap_default_limit+0x1004>
    3015: 86 04        	stx	$4                      ; 0x2004 <__heap_default_limit+0x1004>
    3017: 85 05        	sta	$5                      ; 0x2005 <__heap_default_limit+0x1005>
    3019: a0 04        	ldy	#$4
    301b: b1 04        	lda	($4),y                  ; 0x2004 <__heap_default_limit+0x1004>
    301d: 85 48        	sta	$48                     ; 0x2048 <__after_main>
    301f: a5 06        	lda	$6                      ; 0x2006 <__heap_default_limit+0x1006>
    3021: 18           	clc
    3022: 69 e8        	adc	#$e8
    3024: 80 22        	bra	$3048 <isallocatedBAMtracksector+0x186>
    3026: 18           	clc
    3027: 65 05        	adc	$5                      ; 0x2005 <__heap_default_limit+0x1005>
    3029: 85 05        	sta	$5                      ; 0x2005 <__heap_default_limit+0x1005>
    302b: a5 07        	lda	$7                      ; 0x2007 <__heap_default_limit+0x1007>
    302d: 65 04        	adc	$4                      ; 0x2004 <__heap_default_limit+0x1004>
    302f: 85 04        	sta	$4                      ; 0x2004 <__heap_default_limit+0x1004>
    3031: 8a           	txa
    3032: 18           	clc
    3033: 65 05        	adc	$5                      ; 0x2005 <__heap_default_limit+0x1005>
    3035: aa           	tax
    3036: 98           	tya
    3037: 65 04        	adc	$4                      ; 0x2004 <__heap_default_limit+0x1004>
    3039: 86 04        	stx	$4                      ; 0x2004 <__heap_default_limit+0x1004>
    303b: 85 05        	sta	$5                      ; 0x2005 <__heap_default_limit+0x1005>
    303d: a0 05        	ldy	#$5
    303f: b1 04        	lda	($4),y                  ; 0x2004 <__heap_default_limit+0x1004>
    3041: 85 48        	sta	$48                     ; 0x2048 <__after_main>
    3043: a5 06        	lda	$6                      ; 0x2006 <__heap_default_limit+0x1006>
    3045: 18           	clc
    3046: 69 e0        	adc	#$e0
    3048: a2 00        	ldx	#$0
    304a: 85 04        	sta	$4                      ; 0x2004 <__heap_default_limit+0x1004>
    304c: a9 01        	lda	#$1
    304e: 20 1b 8c     	jsr	$8c1b <__ashlhi3>
    3051: a6 48        	ldx	$48                     ; 0x2048 <__after_main>
    3053: 86 04        	stx	$4                      ; 0x2004 <__heap_default_limit+0x1004>
    3055: 25 04        	and	$4                      ; 0x2004 <__heap_default_limit+0x1004>
    3057: a2 01        	ldx	#$1
    3059: a8           	tay
    305a: f0 03        	beq	$305f <isallocatedBAMtracksector+0x19d>
    305c: 4c cc 2f     	jmp	$2fcc <isallocatedBAMtracksector+0x10a>
    305f: 4c ce 2f     	jmp	$2fce <isallocatedBAMtracksector+0x10c>

00003062 <findnextBAMtracksector>:
    3062: 85 60        	sta	$60                     ; 0x2060 <lpstore+0x6>
    3064: 86 66        	stx	$66                     ; 0x2066 <lpstore+0xc>
    3066: a6 09        	ldx	$9                      ; 0x2009 <__heap_default_limit+0x1009>
    3068: 86 61        	stx	$61                     ; 0x2061 <lpstore+0x7>
    306a: a6 04        	ldx	$4                      ; 0x2004 <__heap_default_limit+0x1004>
    306c: 86 62        	stx	$62                     ; 0x2062 <lpstore+0x8>
    306e: a6 05        	ldx	$5                      ; 0x2005 <__heap_default_limit+0x1005>
    3070: 86 63        	stx	$63                     ; 0x2063 <lpstore+0x9>
    3072: a6 06        	ldx	$6                      ; 0x2006 <__heap_default_limit+0x1006>
    3074: 86 68        	stx	$68                     ; 0x2068 <lpstore+0xe>
    3076: a6 07        	ldx	$7                      ; 0x2007 <__heap_default_limit+0x1007>
    3078: 86 69        	stx	$69                     ; 0x2069 <lpstore+0xf>
    307a: 64 5e        	stz	$5e                     ; 0x205e <lpstore+0x4>
    307c: a2 ff        	ldx	#$ff
    307e: c6 08        	dec	$8                      ; 0x2008 <__heap_default_limit+0x1008>
    3080: e4 08        	cpx	$8                      ; 0x2008 <__heap_default_limit+0x1008>
    3082: d0 02        	bne	$3086 <findnextBAMtracksector+0x24>
    3084: c6 5e        	dec	$5e                     ; 0x205e <lpstore+0x4>
    3086: a6 08        	ldx	$8                      ; 0x2008 <__heap_default_limit+0x1008>
    3088: 86 6a        	stx	$6a                     ; 0x206a <lpstore+0x10>
    308a: a4 08        	ldy	$8                      ; 0x2008 <__heap_default_limit+0x1008>
    308c: c4 61        	cpy	$61                     ; 0x2061 <lpstore+0x7>
    308e: 90 03        	bcc	$3093 <findnextBAMtracksector+0x31>
    3090: 4c ba 31     	jmp	$31ba <findnextBAMtracksector+0x158>
    3093: a6 66        	ldx	$66                     ; 0x2066 <lpstore+0xc>
    3095: e0 28        	cpx	#$28
    3097: d0 1d        	bne	$30b6 <findnextBAMtracksector+0x54>
    3099: b9 ba 9c     	lda	$9cba,y                 ; 0x9cba <BAMsector+0x8>
    309c: a6 60        	ldx	$60                     ; 0x2060 <lpstore+0x6>
    309e: f0 01        	beq	$30a1 <findnextBAMtracksector+0x3f>
    30a0: 1a           	inc
    30a1: c9 50        	cmp	#$50
    30a3: 90 25        	bcc	$30ca <findnextBAMtracksector+0x68>
    30a5: 84 67        	sty	$67                     ; 0x2067 <lpstore+0xd>
    30a7: a2 b2        	ldx	#$b2
    30a9: 86 04        	stx	$4                      ; 0x2004 <__heap_default_limit+0x1004>
    30ab: a2 9c        	ldx	#$9c
    30ad: 86 05        	stx	$5                      ; 0x2005 <__heap_default_limit+0x1005>
    30af: 64 5c        	stz	$5c                     ; 0x205c <lpstore+0x2>
    30b1: a9 00        	lda	#$0
    30b3: 4c eb 30     	jmp	$30eb <findnextBAMtracksector+0x89>
    30b6: a5 60        	lda	$60                     ; 0x2060 <lpstore+0x6>
    30b8: d0 0f        	bne	$30c9 <findnextBAMtracksector+0x67>
    30ba: a5 5e        	lda	$5e                     ; 0x205e <lpstore+0x4>
    30bc: d0 0b        	bne	$30c9 <findnextBAMtracksector+0x67>
    30be: 84 04        	sty	$4                      ; 0x2004 <__heap_default_limit+0x1004>
    30c0: a6 6a        	ldx	$6a                     ; 0x206a <lpstore+0x10>
    30c2: e4 04        	cpx	$4                      ; 0x2004 <__heap_default_limit+0x1004>
    30c4: d0 03        	bne	$30c9 <findnextBAMtracksector+0x67>
    30c6: 4c b6 31     	jmp	$31b6 <findnextBAMtracksector+0x154>
    30c9: 98           	tya
    30ca: c9 28        	cmp	#$28
    30cc: a2 b2        	ldx	#$b2
    30ce: 86 04        	stx	$4                      ; 0x2004 <__heap_default_limit+0x1004>
    30d0: a2 9c        	ldx	#$9c
    30d2: 86 05        	stx	$5                      ; 0x2005 <__heap_default_limit+0x1005>
    30d4: b0 06        	bcs	$30dc <findnextBAMtracksector+0x7a>
    30d6: 84 67        	sty	$67                     ; 0x2067 <lpstore+0xd>
    30d8: 85 5c        	sta	$5c                     ; 0x205c <lpstore+0x2>
    30da: 80 0f        	bra	$30eb <findnextBAMtracksector+0x89>
    30dc: 84 67        	sty	$67                     ; 0x2067 <lpstore+0xd>
    30de: 85 5c        	sta	$5c                     ; 0x205c <lpstore+0x2>
    30e0: 18           	clc
    30e1: 69 d8        	adc	#$d8
    30e3: a2 b4        	ldx	#$b4
    30e5: 86 04        	stx	$4                      ; 0x2004 <__heap_default_limit+0x1004>
    30e7: a2 9c        	ldx	#$9c
    30e9: 86 05        	stx	$5                      ; 0x2005 <__heap_default_limit+0x1005>
    30eb: 0a           	asl
    30ec: 85 06        	sta	$6                      ; 0x2006 <__heap_default_limit+0x1006>
    30ee: a9 00        	lda	#$0
    30f0: 2a           	rol
    30f1: 85 07        	sta	$7                      ; 0x2007 <__heap_default_limit+0x1007>
    30f3: a5 06        	lda	$6                      ; 0x2006 <__heap_default_limit+0x1006>
    30f5: 0a           	asl
    30f6: aa           	tax
    30f7: a5 07        	lda	$7                      ; 0x2007 <__heap_default_limit+0x1007>
    30f9: 2a           	rol
    30fa: a8           	tay
    30fb: 18           	clc
    30fc: 8a           	txa
    30fd: 65 06        	adc	$6                      ; 0x2006 <__heap_default_limit+0x1006>
    30ff: 85 06        	sta	$6                      ; 0x2006 <__heap_default_limit+0x1006>
    3101: 98           	tya
    3102: 65 07        	adc	$7                      ; 0x2007 <__heap_default_limit+0x1007>
    3104: aa           	tax
    3105: 18           	clc
    3106: a5 06        	lda	$6                      ; 0x2006 <__heap_default_limit+0x1006>
    3108: 72 04        	adc	($4),z                  ; 0x2004 <__heap_default_limit+0x1004>
    310a: 85 64        	sta	$64                     ; 0x2064 <lpstore+0xa>
    310c: a0 01        	ldy	#$1
    310e: 8a           	txa
    310f: 71 04        	adc	($4),y                  ; 0x2004 <__heap_default_limit+0x1004>
    3111: 85 65        	sta	$65                     ; 0x2065 <lpstore+0xb>
    3113: a2 00        	ldx	#$0
    3115: 4c 69 31     	jmp	$3169 <findnextBAMtracksector+0x107>
    3118: e0 10        	cpx	#$10
    311a: b0 0f        	bcs	$312b <findnextBAMtracksector+0xc9>
    311c: a0 12        	ldy	#$12
    311e: b1 64        	lda	($64),y                 ; 0x2064 <lpstore+0xa>
    3120: 85 5d        	sta	$5d                     ; 0x205d <lpstore+0x3>
    3122: 18           	clc
    3123: 86 5f        	stx	$5f                     ; 0x205f <lpstore+0x5>
    3125: 8a           	txa
    3126: 69 f8        	adc	#$f8
    3128: 4c 59 31     	jmp	$3159 <findnextBAMtracksector+0xf7>
    312b: e0 18        	cpx	#$18
    312d: b0 0e        	bcs	$313d <findnextBAMtracksector+0xdb>
    312f: a0 13        	ldy	#$13
    3131: b1 64        	lda	($64),y                 ; 0x2064 <lpstore+0xa>
    3133: 85 5d        	sta	$5d                     ; 0x205d <lpstore+0x3>
    3135: 18           	clc
    3136: 86 5f        	stx	$5f                     ; 0x205f <lpstore+0x5>
    3138: 8a           	txa
    3139: 69 f0        	adc	#$f0
    313b: 80 1c        	bra	$3159 <findnextBAMtracksector+0xf7>
    313d: 86 5f        	stx	$5f                     ; 0x205f <lpstore+0x5>
    313f: e0 20        	cpx	#$20
    3141: b0 0c        	bcs	$314f <findnextBAMtracksector+0xed>
    3143: a0 14        	ldy	#$14
    3145: b1 64        	lda	($64),y                 ; 0x2064 <lpstore+0xa>
    3147: 85 5d        	sta	$5d                     ; 0x205d <lpstore+0x3>
    3149: 18           	clc
    314a: 8a           	txa
    314b: 69 e8        	adc	#$e8
    314d: 80 0a        	bra	$3159 <findnextBAMtracksector+0xf7>
    314f: a0 15        	ldy	#$15
    3151: b1 64        	lda	($64),y                 ; 0x2064 <lpstore+0xa>
    3153: 85 5d        	sta	$5d                     ; 0x205d <lpstore+0x3>
    3155: 18           	clc
    3156: 8a           	txa
    3157: 69 e0        	adc	#$e0
    3159: 85 04        	sta	$4                      ; 0x2004 <__heap_default_limit+0x1004>
    315b: a2 00        	ldx	#$0
    315d: a9 01        	lda	#$1
    315f: 20 1b 8c     	jsr	$8c1b <__ashlhi3>
    3162: 25 5d        	and	$5d                     ; 0x205d <lpstore+0x3>
    3164: d0 20        	bne	$3186 <findnextBAMtracksector+0x124>
    3166: a6 5f        	ldx	$5f                     ; 0x205f <lpstore+0x5>
    3168: e8           	inx
    3169: e0 28        	cpx	#$28
    316b: f0 13        	beq	$3180 <findnextBAMtracksector+0x11e>
    316d: e0 08        	cpx	#$8
    316f: 90 03        	bcc	$3174 <findnextBAMtracksector+0x112>
    3171: 4c 18 31     	jmp	$3118 <findnextBAMtracksector+0xb6>
    3174: a0 11        	ldy	#$11
    3176: 86 04        	stx	$4                      ; 0x2004 <__heap_default_limit+0x1004>
    3178: b1 64        	lda	($64),y                 ; 0x2064 <lpstore+0xa>
    317a: 85 5d        	sta	$5d                     ; 0x205d <lpstore+0x3>
    317c: 86 5f        	stx	$5f                     ; 0x205f <lpstore+0x5>
    317e: 80 db        	bra	$315b <findnextBAMtracksector+0xf9>
    3180: a4 67        	ldy	$67                     ; 0x2067 <lpstore+0xd>
    3182: c8           	iny
    3183: 4c 8c 30     	jmp	$308c <findnextBAMtracksector+0x2a>
    3186: a2 01        	ldx	#$1
    3188: e6 5c        	inc	$5c                     ; 0x205c <lpstore+0x2>
    318a: a0 00        	ldy	#$0
    318c: 84 04        	sty	$4                      ; 0x2004 <__heap_default_limit+0x1004>
    318e: a0 17        	ldy	#$17
    3190: 84 05        	sty	$5                      ; 0x2005 <__heap_default_limit+0x1005>
    3192: a0 00        	ldy	#$0
    3194: 84 06        	sty	$6                      ; 0x2006 <__heap_default_limit+0x1006>
    3196: a0 18        	ldy	#$18
    3198: 84 07        	sty	$7                      ; 0x2007 <__heap_default_limit+0x1007>
    319a: 86 08        	stx	$8                      ; 0x2008 <__heap_default_limit+0x1008>
    319c: a6 5f        	ldx	$5f                     ; 0x205f <lpstore+0x5>
    319e: 86 5d        	stx	$5d                     ; 0x205d <lpstore+0x3>
    31a0: a5 5c        	lda	$5c                     ; 0x205c <lpstore+0x2>
    31a2: 20 df 27     	jsr	$27df <BAMSectorUpdate>
    31a5: a5 5c        	lda	$5c                     ; 0x205c <lpstore+0x2>
    31a7: 92 62        	sta	($62),z                 ; 0x2062 <lpstore+0x8>
    31a9: a6 68        	ldx	$68                     ; 0x2068 <lpstore+0xe>
    31ab: 86 04        	stx	$4                      ; 0x2004 <__heap_default_limit+0x1004>
    31ad: a6 69        	ldx	$69                     ; 0x2069 <lpstore+0xf>
    31af: 86 05        	stx	$5                      ; 0x2005 <__heap_default_limit+0x1005>
    31b1: a5 5d        	lda	$5d                     ; 0x205d <lpstore+0x3>
    31b3: 92 04        	sta	($4),z                  ; 0x2004 <__heap_default_limit+0x1004>
    31b5: 60           	rts
    31b6: c8           	iny
    31b7: 4c c9 30     	jmp	$30c9 <findnextBAMtracksector+0x67>
    31ba: a9 ff        	lda	#$ff
    31bc: 64 5d        	stz	$5d                     ; 0x205d <lpstore+0x3>
    31be: 80 e7        	bra	$31a7 <findnextBAMtracksector+0x145>

000031c0 <writeblockchain>:
    31c0: a4 18        	ldy	$18                     ; 0x2018 <next_line+0x3>
    31c2: 5a           	phy
    31c3: a4 19        	ldy	$19                     ; 0x2019 <next_line+0x4>
    31c5: 5a           	phy
    31c6: 85 59        	sta	$59                     ; 0x2059 <fourbytes+0x3>
    31c8: 86 56        	stx	$56                     ; 0x2056 <fourbytes>
    31ca: a6 04        	ldx	$4                      ; 0x2004 <__heap_default_limit+0x1004>
    31cc: 86 57        	stx	$57                     ; 0x2057 <fourbytes+0x1>
    31ce: a6 05        	ldx	$5                      ; 0x2005 <__heap_default_limit+0x1005>
    31d0: 86 58        	stx	$58                     ; 0x2058 <fourbytes+0x2>
    31d2: a6 06        	ldx	$6                      ; 0x2006 <__heap_default_limit+0x1006>
    31d4: 86 4c        	stx	$4c                     ; 0x204c <_fini+0x1>
    31d6: a6 07        	ldx	$7                      ; 0x2007 <__heap_default_limit+0x1007>
    31d8: 86 4a        	stx	$4a                     ; 0x204a <__after_main+0x2>
    31da: a6 08        	ldx	$8                      ; 0x2008 <__heap_default_limit+0x1008>
    31dc: 86 5a        	stx	$5a                     ; 0x205a <lpstore>
    31de: a5 09        	lda	$9                      ; 0x2009 <__heap_default_limit+0x1009>
    31e0: a6 0e        	ldx	$e                      ; 0x200e <__heap_default_limit+0x100e>
    31e2: 86 4d        	stx	$4d                     ; 0x204d <_fini+0x2>
    31e4: a6 0f        	ldx	$f                      ; 0x200f <__heap_default_limit+0x100f>
    31e6: 86 4e        	stx	$4e                     ; 0x204e <_fini+0x3>
    31e8: a6 10        	ldx	$10                     ; 0x2010 <__heap_default_limit+0x1010>
    31ea: 86 4f        	stx	$4f                     ; 0x204f <_fini+0x4>
    31ec: a6 0a        	ldx	$a                      ; 0x200a <__heap_default_limit+0x100a>
    31ee: 86 51        	stx	$51                     ; 0x2051 <_fini+0x6>
    31f0: a6 0b        	ldx	$b                      ; 0x200b <__heap_default_limit+0x100b>
    31f2: 86 52        	stx	$52                     ; 0x2052 <_fini+0x7>
    31f4: a6 0c        	ldx	$c                      ; 0x200c <__heap_default_limit+0x100c>
    31f6: 86 18        	stx	$18                     ; 0x2018 <next_line+0x3>
    31f8: a6 0d        	ldx	$d                      ; 0x200d <__heap_default_limit+0x100d>
    31fa: 86 19        	stx	$19                     ; 0x2019 <next_line+0x4>
    31fc: 64 53        	stz	$53                     ; 0x2053 <_fini+0x8>
    31fe: a0 ff        	ldy	#$ff
    3200: a2 ff        	ldx	#$ff
    3202: 86 55        	stx	$55                     ; 0x2055 <_fini+0xa>
    3204: 84 54        	sty	$54                     ; 0x2054 <_fini+0x9>
    3206: a2 e4        	ldx	#$e4
    3208: a0 9f        	ldy	#$9f
    320a: 86 04        	stx	$4                      ; 0x2004 <__heap_default_limit+0x1004>
    320c: 84 05        	sty	$5                      ; 0x2005 <__heap_default_limit+0x1005>
    320e: a2 e5        	ldx	#$e5
    3210: a0 9f        	ldy	#$9f
    3212: 86 06        	stx	$6                      ; 0x2006 <__heap_default_limit+0x1006>
    3214: 84 07        	sty	$7                      ; 0x2007 <__heap_default_limit+0x1007>
    3216: a6 0f        	ldx	$f                      ; 0x200f <__heap_default_limit+0x100f>
    3218: 86 08        	stx	$8                      ; 0x2008 <__heap_default_limit+0x1008>
    321a: a6 10        	ldx	$10                     ; 0x2010 <__heap_default_limit+0x1010>
    321c: 86 09        	stx	$9                      ; 0x2009 <__heap_default_limit+0x1009>
    321e: aa           	tax
    321f: 85 5b        	sta	$5b                     ; 0x205b <lpstore+0x1>
    3221: a5 0e        	lda	$e                      ; 0x200e <__heap_default_limit+0x100e>
    3223: 20 62 30     	jsr	$3062 <findnextBAMtracksector>
    3226: ae e4 9f     	ldx	$9fe4                   ; 0x9fe4 <__data_load_start+0x2ca>
    3229: 86 49        	stx	$49                     ; 0x2049 <__after_main+0x1>
    322b: ad e4 9f     	lda	$9fe4                   ; 0x9fe4 <__data_load_start+0x2ca>
    322e: 92 51        	sta	($51),z                 ; 0x2051 <_fini+0x6>
    3230: ae e5 9f     	ldx	$9fe5                   ; 0x9fe5 <__data_load_start+0x2cb>
    3233: ad e5 9f     	lda	$9fe5                   ; 0x9fe5 <__data_load_start+0x2cb>
    3236: 92 18        	sta	($18),z                 ; 0x2018 <next_line+0x3>
    3238: 86 50        	stx	$50                     ; 0x2050 <_fini+0x5>
    323a: 64 18        	stz	$18                     ; 0x2018 <next_line+0x3>
    323c: a9 00        	lda	#$0
    323e: a8           	tay
    323f: 4c 18 33     	jmp	$3318 <writeblockchain+0x158>
    3242: c4 4a        	cpy	$4a                     ; 0x204a <__after_main+0x2>
    3244: 90 03        	bcc	$3249 <writeblockchain+0x89>
    3246: 4c 26 33     	jmp	$3326 <writeblockchain+0x166>
    3249: 85 05        	sta	$5                      ; 0x2005 <__heap_default_limit+0x1005>
    324b: a6 59        	ldx	$59                     ; 0x2059 <fourbytes+0x3>
    324d: 86 04        	stx	$4                      ; 0x2004 <__heap_default_limit+0x1004>
    324f: 18           	clc
    3250: a9 00        	lda	#$0
    3252: 65 04        	adc	$4                      ; 0x2004 <__heap_default_limit+0x1004>
    3254: 85 0c        	sta	$c                      ; 0x200c <__heap_default_limit+0x100c>
    3256: a6 05        	ldx	$5                      ; 0x2005 <__heap_default_limit+0x1005>
    3258: 86 19        	stx	$19                     ; 0x2019 <next_line+0x4>
    325a: a5 05        	lda	$5                      ; 0x2005 <__heap_default_limit+0x1005>
    325c: a6 56        	ldx	$56                     ; 0x2056 <fourbytes>
    325e: 86 04        	stx	$4                      ; 0x2004 <__heap_default_limit+0x1004>
    3260: a2 01        	ldx	#$1
    3262: b0 02        	bcs	$3266 <writeblockchain+0xa6>
    3264: a2 00        	ldx	#$0
    3266: 86 4b        	stx	$4b                     ; 0x204b <_fini>
    3268: 65 04        	adc	$4                      ; 0x2004 <__heap_default_limit+0x1004>
    326a: 85 0d        	sta	$d                      ; 0x200d <__heap_default_limit+0x100d>
    326c: 84 51        	sty	$51                     ; 0x2051 <_fini+0x6>
    326e: 98           	tya
    326f: a6 57        	ldx	$57                     ; 0x2057 <fourbytes+0x1>
    3271: 86 04        	stx	$4                      ; 0x2004 <__heap_default_limit+0x1004>
    3273: 65 04        	adc	$4                      ; 0x2004 <__heap_default_limit+0x1004>
    3275: a8           	tay
    3276: a9 00        	lda	#$0
    3278: a6 58        	ldx	$58                     ; 0x2058 <fourbytes+0x2>
    327a: 86 04        	stx	$4                      ; 0x2004 <__heap_default_limit+0x1004>
    327c: 65 04        	adc	$4                      ; 0x2004 <__heap_default_limit+0x1004>
    327e: 84 04        	sty	$4                      ; 0x2004 <__heap_default_limit+0x1004>
    3280: 85 05        	sta	$5                      ; 0x2005 <__heap_default_limit+0x1005>
    3282: 64 06        	stz	$6                      ; 0x2006 <__heap_default_limit+0x1006>
    3284: a2 19        	ldx	#$19
    3286: 86 07        	stx	$7                      ; 0x2007 <__heap_default_limit+0x1007>
    3288: 64 08        	stz	$8                      ; 0x2008 <__heap_default_limit+0x1008>
    328a: 64 09        	stz	$9                      ; 0x2009 <__heap_default_limit+0x1009>
    328c: 64 0a        	stz	$a                      ; 0x200a <__heap_default_limit+0x100a>
    328e: a2 01        	ldx	#$1
    3290: 86 0b        	stx	$b                      ; 0x200b <__heap_default_limit+0x100b>
    3292: a6 0d        	ldx	$d                      ; 0x200d <__heap_default_limit+0x100d>
    3294: a5 0c        	lda	$c                      ; 0x200c <__heap_default_limit+0x100c>
    3296: 85 52        	sta	$52                     ; 0x2052 <_fini+0x7>
    3298: 20 a5 89     	jsr	$89a5 <lcopy>
    329b: ae 00 19     	ldx	$1900                   ; 0x1900 <__heap_default_limit+0x900>
    329e: d0 03        	bne	$32a3 <writeblockchain+0xe3>
    32a0: 4c ee 32     	jmp	$32ee <writeblockchain+0x12e>
    32a3: a2 53        	ldx	#$53
    32a5: 86 04        	stx	$4                      ; 0x2004 <__heap_default_limit+0x1004>
    32a7: a2 00        	ldx	#$0
    32a9: 86 05        	stx	$5                      ; 0x2005 <__heap_default_limit+0x1005>
    32ab: a2 54        	ldx	#$54
    32ad: 86 06        	stx	$6                      ; 0x2006 <__heap_default_limit+0x1006>
    32af: a2 00        	ldx	#$0
    32b1: 86 07        	stx	$7                      ; 0x2007 <__heap_default_limit+0x1007>
    32b3: a6 4e        	ldx	$4e                     ; 0x204e <_fini+0x3>
    32b5: 86 08        	stx	$8                      ; 0x2008 <__heap_default_limit+0x1008>
    32b7: a6 4f        	ldx	$4f                     ; 0x204f <_fini+0x4>
    32b9: 86 09        	stx	$9                      ; 0x2009 <__heap_default_limit+0x1009>
    32bb: a6 5b        	ldx	$5b                     ; 0x205b <lpstore+0x1>
    32bd: a5 4d        	lda	$4d                     ; 0x204d <_fini+0x2>
    32bf: 20 62 30     	jsr	$3062 <findnextBAMtracksector>
    32c2: a6 53        	ldx	$53                     ; 0x2053 <_fini+0x8>
    32c4: 86 18        	stx	$18                     ; 0x2018 <next_line+0x3>
    32c6: a6 53        	ldx	$53                     ; 0x2053 <_fini+0x8>
    32c8: 8e 00 19     	stx	$1900                   ; 0x1900 <__heap_default_limit+0x900>
    32cb: a6 54        	ldx	$54                     ; 0x2054 <_fini+0x9>
    32cd: 86 55        	stx	$55                     ; 0x2055 <_fini+0xa>
    32cf: a6 54        	ldx	$54                     ; 0x2054 <_fini+0x9>
    32d1: 8e 01 19     	stx	$1901                   ; 0x1901 <__heap_default_limit+0x901>
    32d4: a5 18        	lda	$18                     ; 0x2018 <next_line+0x3>
    32d6: f0 14        	beq	$32ec <writeblockchain+0x12c>
    32d8: a6 49        	ldx	$49                     ; 0x2049 <__after_main+0x1>
    32da: e4 18        	cpx	$18                     ; 0x2018 <next_line+0x3>
    32dc: d0 10        	bne	$32ee <writeblockchain+0x12e>
    32de: a5 55        	lda	$55                     ; 0x2055 <_fini+0xa>
    32e0: 45 50        	eor	$50                     ; 0x2050 <_fini+0x5>
    32e2: c9 02        	cmp	#$2
    32e4: b0 03        	bcs	$32e9 <writeblockchain+0x129>
    32e6: 4c 69 33     	jmp	$3369 <writeblockchain+0x1a9>
    32e9: 4c 04 34     	jmp	$3404 <writeblockchain+0x244>
    32ec: 64 18        	stz	$18                     ; 0x2018 <next_line+0x3>
    32ee: a2 00        	ldx	#$0
    32f0: 86 04        	stx	$4                      ; 0x2004 <__heap_default_limit+0x1004>
    32f2: a2 19        	ldx	#$19
    32f4: 86 05        	stx	$5                      ; 0x2005 <__heap_default_limit+0x1005>
    32f6: a6 50        	ldx	$50                     ; 0x2050 <_fini+0x5>
    32f8: 86 06        	stx	$6                      ; 0x2006 <__heap_default_limit+0x1006>
    32fa: a6 49        	ldx	$49                     ; 0x2049 <__after_main+0x1>
    32fc: a5 5a        	lda	$5a                     ; 0x205a <lpstore>
    32fe: 20 fd 25     	jsr	$25fd <PutOneSector>
    3301: ae 00 19     	ldx	$1900                   ; 0x1900 <__heap_default_limit+0x900>
    3304: a5 19        	lda	$19                     ; 0x2019 <next_line+0x4>
    3306: a4 51        	ldy	$51                     ; 0x2051 <_fini+0x6>
    3308: e0 00        	cpx	#$0
    330a: f0 1a        	beq	$3326 <writeblockchain+0x166>
    330c: 1a           	inc
    330d: d0 01        	bne	$3310 <writeblockchain+0x150>
    330f: c8           	iny
    3310: a6 55        	ldx	$55                     ; 0x2055 <_fini+0xa>
    3312: 86 50        	stx	$50                     ; 0x2050 <_fini+0x5>
    3314: a6 18        	ldx	$18                     ; 0x2018 <next_line+0x3>
    3316: 86 49        	stx	$49                     ; 0x2049 <__after_main+0x1>
    3318: c4 4a        	cpy	$4a                     ; 0x204a <__after_main+0x2>
    331a: f0 03        	beq	$331f <writeblockchain+0x15f>
    331c: 4c 42 32     	jmp	$3242 <writeblockchain+0x82>
    331f: c5 4c        	cmp	$4c                     ; 0x204c <_fini+0x1>
    3321: b0 03        	bcs	$3326 <writeblockchain+0x166>
    3323: 4c 49 32     	jmp	$3249 <writeblockchain+0x89>
    3326: a6 18        	ldx	$18                     ; 0x2018 <next_line+0x3>
    3328: f0 32        	beq	$335c <writeblockchain+0x19c>
    332a: c4 4a        	cpy	$4a                     ; 0x204a <__after_main+0x2>
    332c: f0 03        	beq	$3331 <writeblockchain+0x171>
    332e: 4c 63 33     	jmp	$3363 <writeblockchain+0x1a3>
    3331: c5 4c        	cmp	$4c                     ; 0x204c <_fini+0x1>
    3333: 90 27        	bcc	$335c <writeblockchain+0x19c>
    3335: a9 03        	lda	#$3
    3337: a2 4d        	ldx	#$4d
    3339: 86 04        	stx	$4                      ; 0x2004 <__heap_default_limit+0x1004>
    333b: a2 9a        	ldx	#$9a
    333d: 86 05        	stx	$5                      ; 0x2005 <__heap_default_limit+0x1005>
    333f: a2 a0        	ldx	#$a0
    3341: 86 06        	stx	$6                      ; 0x2006 <__heap_default_limit+0x1006>
    3343: a2 91        	ldx	#$91
    3345: 86 07        	stx	$7                      ; 0x2007 <__heap_default_limit+0x1007>
    3347: a2 a4        	ldx	#$a4
    3349: 86 08        	stx	$8                      ; 0x2008 <__heap_default_limit+0x1008>
    334b: a2 94        	ldx	#$94
    334d: 86 09        	stx	$9                      ; 0x2009 <__heap_default_limit+0x1009>
    334f: a6 4a        	ldx	$4a                     ; 0x204a <__after_main+0x2>
    3351: 86 0a        	stx	$a                      ; 0x200a <__heap_default_limit+0x100a>
    3353: 64 0b        	stz	$b                      ; 0x200b <__heap_default_limit+0x100b>
    3355: 64 0c        	stz	$c                      ; 0x200c <__heap_default_limit+0x100c>
    3357: a6 4c        	ldx	$4c                     ; 0x204c <_fini+0x1>
    3359: 20 67 44     	jsr	$4467 <messagebox>
    335c: fa           	plx
    335d: 86 19        	stx	$19                     ; 0x2019 <next_line+0x4>
    335f: fa           	plx
    3360: 86 18        	stx	$18                     ; 0x2018 <next_line+0x3>
    3362: 60           	rts
    3363: c4 4a        	cpy	$4a                     ; 0x204a <__after_main+0x2>
    3365: b0 ce        	bcs	$3335 <writeblockchain+0x175>
    3367: 80 f3        	bra	$335c <writeblockchain+0x19c>
    3369: a6 19        	ldx	$19                     ; 0x2019 <next_line+0x4>
    336b: a4 51        	ldy	$51                     ; 0x2051 <_fini+0x6>
    336d: e8           	inx
    336e: d0 01        	bne	$3371 <writeblockchain+0x1b1>
    3370: c8           	iny
    3371: 86 19        	stx	$19                     ; 0x2019 <next_line+0x4>
    3373: 8a           	txa
    3374: a6 56        	ldx	$56                     ; 0x2056 <fourbytes>
    3376: 86 04        	stx	$4                      ; 0x2004 <__heap_default_limit+0x1004>
    3378: a6 4b        	ldx	$4b                     ; 0x204b <_fini>
    337a: e0 01        	cpx	#$1
    337c: 65 04        	adc	$4                      ; 0x2004 <__heap_default_limit+0x1004>
    337e: 85 0c        	sta	$c                      ; 0x200c <__heap_default_limit+0x100c>
    3380: 84 51        	sty	$51                     ; 0x2051 <_fini+0x6>
    3382: 98           	tya
    3383: a6 57        	ldx	$57                     ; 0x2057 <fourbytes+0x1>
    3385: 86 04        	stx	$4                      ; 0x2004 <__heap_default_limit+0x1004>
    3387: 65 04        	adc	$4                      ; 0x2004 <__heap_default_limit+0x1004>
    3389: a8           	tay
    338a: a9 00        	lda	#$0
    338c: a6 58        	ldx	$58                     ; 0x2058 <fourbytes+0x2>
    338e: 86 04        	stx	$4                      ; 0x2004 <__heap_default_limit+0x1004>
    3390: 65 04        	adc	$4                      ; 0x2004 <__heap_default_limit+0x1004>
    3392: 84 04        	sty	$4                      ; 0x2004 <__heap_default_limit+0x1004>
    3394: 85 05        	sta	$5                      ; 0x2005 <__heap_default_limit+0x1005>
    3396: 64 06        	stz	$6                      ; 0x2006 <__heap_default_limit+0x1006>
    3398: a2 1a        	ldx	#$1a
    339a: 86 07        	stx	$7                      ; 0x2007 <__heap_default_limit+0x1007>
    339c: 64 08        	stz	$8                      ; 0x2008 <__heap_default_limit+0x1008>
    339e: 64 09        	stz	$9                      ; 0x2009 <__heap_default_limit+0x1009>
    33a0: 64 0a        	stz	$a                      ; 0x200a <__heap_default_limit+0x100a>
    33a2: a2 01        	ldx	#$1
    33a4: 86 0b        	stx	$b                      ; 0x200b <__heap_default_limit+0x100b>
    33a6: a6 0c        	ldx	$c                      ; 0x200c <__heap_default_limit+0x100c>
    33a8: a5 52        	lda	$52                     ; 0x2052 <_fini+0x7>
    33aa: 20 a5 89     	jsr	$89a5 <lcopy>
    33ad: ae 00 1a     	ldx	$1a00                   ; 0x1a00 <__heap_default_limit+0xa00>
    33b0: a4 49        	ldy	$49                     ; 0x2049 <__after_main+0x1>
    33b2: 84 18        	sty	$18                     ; 0x2018 <next_line+0x3>
    33b4: 8a           	txa
    33b5: f0 31        	beq	$33e8 <writeblockchain+0x228>
    33b7: a2 53        	ldx	#$53
    33b9: 86 04        	stx	$4                      ; 0x2004 <__heap_default_limit+0x1004>
    33bb: a2 00        	ldx	#$0
    33bd: 86 05        	stx	$5                      ; 0x2005 <__heap_default_limit+0x1005>
    33bf: a2 54        	ldx	#$54
    33c1: 86 06        	stx	$6                      ; 0x2006 <__heap_default_limit+0x1006>
    33c3: a2 00        	ldx	#$0
    33c5: 86 07        	stx	$7                      ; 0x2007 <__heap_default_limit+0x1007>
    33c7: a6 4e        	ldx	$4e                     ; 0x204e <_fini+0x3>
    33c9: 86 08        	stx	$8                      ; 0x2008 <__heap_default_limit+0x1008>
    33cb: a6 4f        	ldx	$4f                     ; 0x204f <_fini+0x4>
    33cd: 86 09        	stx	$9                      ; 0x2009 <__heap_default_limit+0x1009>
    33cf: a6 5b        	ldx	$5b                     ; 0x205b <lpstore+0x1>
    33d1: a5 4d        	lda	$4d                     ; 0x204d <_fini+0x2>
    33d3: 20 62 30     	jsr	$3062 <findnextBAMtracksector>
    33d6: a6 53        	ldx	$53                     ; 0x2053 <_fini+0x8>
    33d8: a4 53        	ldy	$53                     ; 0x2053 <_fini+0x8>
    33da: 8c 00 1a     	sty	$1a00                   ; 0x1a00 <__heap_default_limit+0xa00>
    33dd: a4 54        	ldy	$54                     ; 0x2054 <_fini+0x9>
    33df: 84 55        	sty	$55                     ; 0x2055 <_fini+0xa>
    33e1: a4 54        	ldy	$54                     ; 0x2054 <_fini+0x9>
    33e3: 8c 01 1a     	sty	$1a01                   ; 0x1a01 <__heap_default_limit+0xa01>
    33e6: 86 18        	stx	$18                     ; 0x2018 <next_line+0x3>
    33e8: a2 00        	ldx	#$0
    33ea: 86 04        	stx	$4                      ; 0x2004 <__heap_default_limit+0x1004>
    33ec: a2 19        	ldx	#$19
    33ee: 86 05        	stx	$5                      ; 0x2005 <__heap_default_limit+0x1005>
    33f0: a6 50        	ldx	$50                     ; 0x2050 <_fini+0x5>
    33f2: 86 06        	stx	$6                      ; 0x2006 <__heap_default_limit+0x1006>
    33f4: a6 49        	ldx	$49                     ; 0x2049 <__after_main+0x1>
    33f6: a5 5a        	lda	$5a                     ; 0x205a <lpstore>
    33f8: 20 75 25     	jsr	$2575 <PutWholeSector>
    33fb: ae 00 1a     	ldx	$1a00                   ; 0x1a00 <__heap_default_limit+0xa00>
    33fe: 8e 00 19     	stx	$1900                   ; 0x1900 <__heap_default_limit+0x900>
    3401: 4c 04 33     	jmp	$3304 <writeblockchain+0x144>
    3404: a6 49        	ldx	$49                     ; 0x2049 <__after_main+0x1>
    3406: 86 18        	stx	$18                     ; 0x2018 <next_line+0x3>
    3408: 4c ee 32     	jmp	$32ee <writeblockchain+0x12e>

0000340b <deleteblockchain>:
    340b: 85 49        	sta	$49                     ; 0x2049 <__after_main+0x1>
    340d: 8a           	txa
    340e: a6 04        	ldx	$4                      ; 0x2004 <__heap_default_limit+0x1004>
    3410: 8e f3 9f     	stx	$9ff3                   ; 0x9ff3 <__data_load_start+0x2d9>
    3413: a6 05        	ldx	$5                      ; 0x2005 <__heap_default_limit+0x1005>
    3415: 86 4a        	stx	$4a                     ; 0x204a <__after_main+0x2>
    3417: a2 00        	ldx	#$0
    3419: 86 04        	stx	$4                      ; 0x2004 <__heap_default_limit+0x1004>
    341b: a2 17        	ldx	#$17
    341d: 86 05        	stx	$5                      ; 0x2005 <__heap_default_limit+0x1005>
    341f: a2 01        	ldx	#$1
    3421: 86 06        	stx	$6                      ; 0x2006 <__heap_default_limit+0x1006>
    3423: aa           	tax
    3424: 8d f2 9f     	sta	$9ff2                   ; 0x9ff2 <__data_load_start+0x2d8>
    3427: a5 49        	lda	$49                     ; 0x2049 <__after_main+0x1>
    3429: 20 32 25     	jsr	$2532 <GetOneSector>
    342c: c9 02        	cmp	#$2
    342e: a9 ff        	lda	#$ff
    3430: 90 03        	bcc	$3435 <deleteblockchain+0x2a>
    3432: 4c ba 34     	jmp	$34ba <deleteblockchain+0xaf>
    3435: a2 00        	ldx	#$0
    3437: 86 04        	stx	$4                      ; 0x2004 <__heap_default_limit+0x1004>
    3439: a2 18        	ldx	#$18
    343b: 86 05        	stx	$5                      ; 0x2005 <__heap_default_limit+0x1005>
    343d: ae 00 17     	ldx	$1700                   ; 0x1700 <__heap_default_limit+0x700>
    3440: ac 01 17     	ldy	$1701                   ; 0x1701 <__heap_default_limit+0x701>
    3443: 84 06        	sty	$6                      ; 0x2006 <__heap_default_limit+0x1006>
    3445: a5 49        	lda	$49                     ; 0x2049 <__after_main+0x1>
    3447: 20 32 25     	jsr	$2532 <GetOneSector>
    344a: c9 02        	cmp	#$2
    344c: a9 fe        	lda	#$fe
    344e: 90 03        	bcc	$3453 <deleteblockchain+0x48>
    3450: 4c ba 34     	jmp	$34ba <deleteblockchain+0xaf>
    3453: ae f3 9f     	ldx	$9ff3                   ; 0x9ff3 <__data_load_start+0x2d9>
    3456: a4 4a        	ldy	$4a                     ; 0x204a <__after_main+0x2>
    3458: 80 32        	bra	$348c <deleteblockchain+0x81>
    345a: a9 00        	lda	#$0
    345c: 85 04        	sta	$4                      ; 0x2004 <__heap_default_limit+0x1004>
    345e: a9 19        	lda	#$19
    3460: 85 05        	sta	$5                      ; 0x2005 <__heap_default_limit+0x1005>
    3462: 84 06        	sty	$6                      ; 0x2006 <__heap_default_limit+0x1006>
    3464: 86 4a        	stx	$4a                     ; 0x204a <__after_main+0x2>
    3466: 84 4b        	sty	$4b                     ; 0x204b <_fini>
    3468: a5 49        	lda	$49                     ; 0x2049 <__after_main+0x1>
    346a: 20 32 25     	jsr	$2532 <GetOneSector>
    346d: a2 00        	ldx	#$0
    346f: 86 04        	stx	$4                      ; 0x2004 <__heap_default_limit+0x1004>
    3471: a2 17        	ldx	#$17
    3473: 86 05        	stx	$5                      ; 0x2005 <__heap_default_limit+0x1005>
    3475: a2 00        	ldx	#$0
    3477: 86 06        	stx	$6                      ; 0x2006 <__heap_default_limit+0x1006>
    3479: a2 18        	ldx	#$18
    347b: 86 07        	stx	$7                      ; 0x2007 <__heap_default_limit+0x1007>
    347d: 64 08        	stz	$8                      ; 0x2008 <__heap_default_limit+0x1008>
    347f: a6 4b        	ldx	$4b                     ; 0x204b <_fini>
    3481: a5 4a        	lda	$4a                     ; 0x204a <__after_main+0x2>
    3483: 20 df 27     	jsr	$27df <BAMSectorUpdate>
    3486: ae 00 19     	ldx	$1900                   ; 0x1900 <__heap_default_limit+0x900>
    3489: ac 01 19     	ldy	$1901                   ; 0x1901 <__heap_default_limit+0x901>
    348c: 8a           	txa
    348d: d0 cb        	bne	$345a <deleteblockchain+0x4f>
    348f: a2 00        	ldx	#$0
    3491: 86 04        	stx	$4                      ; 0x2004 <__heap_default_limit+0x1004>
    3493: a2 17        	ldx	#$17
    3495: 86 05        	stx	$5                      ; 0x2005 <__heap_default_limit+0x1005>
    3497: a2 01        	ldx	#$1
    3499: 86 06        	stx	$6                      ; 0x2006 <__heap_default_limit+0x1006>
    349b: ae f2 9f     	ldx	$9ff2                   ; 0x9ff2 <__data_load_start+0x2d8>
    349e: a5 49        	lda	$49                     ; 0x2049 <__after_main+0x1>
    34a0: 20 fd 25     	jsr	$25fd <PutOneSector>
    34a3: ae 00 17     	ldx	$1700                   ; 0x1700 <__heap_default_limit+0x700>
    34a6: ac 01 17     	ldy	$1701                   ; 0x1701 <__heap_default_limit+0x701>
    34a9: a9 00        	lda	#$0
    34ab: 85 04        	sta	$4                      ; 0x2004 <__heap_default_limit+0x1004>
    34ad: a9 18        	lda	#$18
    34af: 85 05        	sta	$5                      ; 0x2005 <__heap_default_limit+0x1005>
    34b1: 84 06        	sty	$6                      ; 0x2006 <__heap_default_limit+0x1006>
    34b3: a5 49        	lda	$49                     ; 0x2049 <__after_main+0x1>
    34b5: 20 fd 25     	jsr	$25fd <PutOneSector>
    34b8: a9 00        	lda	#$0
    34ba: 60           	rts

000034bb <tracksectorstring>:
    34bb: 86 4a        	stx	$4a                     ; 0x204a <__after_main+0x2>
    34bd: a2 54        	ldx	#$54
    34bf: 8e 3b 9d     	stx	$9d3b                   ; 0x9d3b <s>
    34c2: a2 72        	ldx	#$72
    34c4: 8e 3c 9d     	stx	$9d3c                   ; 0x9d3c <s+0x1>
    34c7: a2 61        	ldx	#$61
    34c9: 8e 3d 9d     	stx	$9d3d                   ; 0x9d3d <s+0x2>
    34cc: a2 63        	ldx	#$63
    34ce: 8e 3e 9d     	stx	$9d3e                   ; 0x9d3e <s+0x3>
    34d1: a2 6b        	ldx	#$6b
    34d3: 8e 3f 9d     	stx	$9d3f                   ; 0x9d3f <s+0x4>
    34d6: a2 3a        	ldx	#$3a
    34d8: 8e 40 9d     	stx	$9d40                   ; 0x9d40 <s+0x5>
    34db: a2 20        	ldx	#$20
    34dd: 8e 41 9d     	stx	$9d41                   ; 0x9d41 <s+0x6>
    34e0: a2 49        	ldx	#$49
    34e2: a0 00        	ldy	#$0
    34e4: 86 04        	stx	$4                      ; 0x2004 <__heap_default_limit+0x1004>
    34e6: 84 05        	sty	$5                      ; 0x2005 <__heap_default_limit+0x1005>
    34e8: a2 0a        	ldx	#$a
    34ea: 20 66 8d     	jsr	$8d66 <__udivmodqi4>
    34ed: 18           	clc
    34ee: 69 30        	adc	#$30
    34f0: aa           	tax
    34f1: a5 49        	lda	$49                     ; 0x2049 <__after_main+0x1>
    34f3: 8e 42 9d     	stx	$9d42                   ; 0x9d42 <s+0x7>
    34f6: 09 30        	ora	#$30
    34f8: 8d 43 9d     	sta	$9d43                   ; 0x9d43 <s+0x8>
    34fb: a2 53        	ldx	#$53
    34fd: 8e 45 9d     	stx	$9d45                   ; 0x9d45 <s+0xa>
    3500: a2 65        	ldx	#$65
    3502: 8e 46 9d     	stx	$9d46                   ; 0x9d46 <s+0xb>
    3505: a2 63        	ldx	#$63
    3507: 8e 47 9d     	stx	$9d47                   ; 0x9d47 <s+0xc>
    350a: a2 74        	ldx	#$74
    350c: 8e 48 9d     	stx	$9d48                   ; 0x9d48 <s+0xd>
    350f: a2 6f        	ldx	#$6f
    3511: 8e 49 9d     	stx	$9d49                   ; 0x9d49 <s+0xe>
    3514: a2 72        	ldx	#$72
    3516: 8e 4a 9d     	stx	$9d4a                   ; 0x9d4a <s+0xf>
    3519: a2 3a        	ldx	#$3a
    351b: 8e 4b 9d     	stx	$9d4b                   ; 0x9d4b <s+0x10>
    351e: a2 20        	ldx	#$20
    3520: 8e 44 9d     	stx	$9d44                   ; 0x9d44 <s+0x9>
    3523: 8e 4c 9d     	stx	$9d4c                   ; 0x9d4c <s+0x11>
    3526: a2 48        	ldx	#$48
    3528: a0 00        	ldy	#$0
    352a: 86 04        	stx	$4                      ; 0x2004 <__heap_default_limit+0x1004>
    352c: 84 05        	sty	$5                      ; 0x2005 <__heap_default_limit+0x1005>
    352e: a2 0a        	ldx	#$a
    3530: a5 4a        	lda	$4a                     ; 0x204a <__after_main+0x2>
    3532: 20 66 8d     	jsr	$8d66 <__udivmodqi4>
    3535: a6 48        	ldx	$48                     ; 0x2048 <__after_main>
    3537: 18           	clc
    3538: 69 30        	adc	#$30
    353a: 8d 4d 9d     	sta	$9d4d                   ; 0x9d4d <s+0x12>
    353d: 8a           	txa
    353e: 09 30        	ora	#$30
    3540: 8d 4e 9d     	sta	$9d4e                   ; 0x9d4e <s+0x13>
    3543: 9c 4f 9d     	stz	$9d4f                   ; 0x9d4f <s+0x14>
    3546: 60           	rts

00003547 <getdirententry>:
    3547: 85 05        	sta	$5                      ; 0x2005 <__heap_default_limit+0x1005>
    3549: 86 55        	stx	$55                     ; 0x2055 <_fini+0xa>
    354b: a6 04        	ldx	$4                      ; 0x2004 <__heap_default_limit+0x1004>
    354d: 86 4e        	stx	$4e                     ; 0x204e <_fini+0x3>
    354f: 85 04        	sta	$4                      ; 0x2004 <__heap_default_limit+0x1004>
    3551: 46 04        	lsr	$4                      ; 0x2004 <__heap_default_limit+0x1004>
    3553: 64 06        	stz	$6                      ; 0x2006 <__heap_default_limit+0x1006>
    3555: 66 06        	ror	$6                      ; 0x2006 <__heap_default_limit+0x1006>
    3557: a9 00        	lda	#$0
    3559: 6a           	ror
    355a: 46 04        	lsr	$4                      ; 0x2004 <__heap_default_limit+0x1004>
    355c: 66 06        	ror	$6                      ; 0x2006 <__heap_default_limit+0x1006>
    355e: 6a           	ror
    355f: 46 04        	lsr	$4                      ; 0x2004 <__heap_default_limit+0x1004>
    3561: 66 06        	ror	$6                      ; 0x2006 <__heap_default_limit+0x1006>
    3563: 6a           	ror
    3564: 38           	sec
    3565: e9 00        	sbc	#$0
    3567: 85 4b        	sta	$4b                     ; 0x204b <_fini>
    3569: a5 06        	lda	$6                      ; 0x2006 <__heap_default_limit+0x1006>
    356b: e5 05        	sbc	$5                      ; 0x2005 <__heap_default_limit+0x1005>
    356d: 85 4a        	sta	$4a                     ; 0x204a <__after_main+0x2>
    356f: a5 04        	lda	$4                      ; 0x2004 <__heap_default_limit+0x1004>
    3571: e9 00        	sbc	#$0
    3573: 85 48        	sta	$48                     ; 0x2048 <__after_main>
    3575: a9 00        	lda	#$0
    3577: e9 00        	sbc	#$0
    3579: a2 08        	ldx	#$8
    357b: 86 54        	stx	$54                     ; 0x2054 <_fini+0x9>
    357d: 09 08        	ora	#$8
    357f: 85 49        	sta	$49                     ; 0x2049 <__after_main+0x1>
    3581: 64 4d        	stz	$4d                     ; 0x204d <_fini+0x2>
    3583: 64 06        	stz	$6                      ; 0x2006 <__heap_default_limit+0x1006>
    3585: a0 00        	ldy	#$0
    3587: 98           	tya
    3588: 64 50        	stz	$50                     ; 0x2050 <_fini+0x5>
    358a: 64 52        	stz	$52                     ; 0x2052 <_fini+0x7>
    358c: aa           	tax
    358d: 86 04        	stx	$4                      ; 0x2004 <__heap_default_limit+0x1004>
    358f: c5 04        	cmp	$4                      ; 0x2004 <__heap_default_limit+0x1004>
    3591: d0 0c        	bne	$359f <getdirententry+0x58>
    3593: 85 53        	sta	$53                     ; 0x2053 <_fini+0x8>
    3595: 86 51        	stx	$51                     ; 0x2051 <_fini+0x6>
    3597: a6 54        	ldx	$54                     ; 0x2054 <_fini+0x9>
    3599: 86 04        	stx	$4                      ; 0x2004 <__heap_default_limit+0x1004>
    359b: c4 04        	cpy	$4                      ; 0x2004 <__heap_default_limit+0x1004>
    359d: 80 08        	bra	$35a7 <getdirententry+0x60>
    359f: 86 51        	stx	$51                     ; 0x2051 <_fini+0x6>
    35a1: 86 04        	stx	$4                      ; 0x2004 <__heap_default_limit+0x1004>
    35a3: 85 53        	sta	$53                     ; 0x2053 <_fini+0x8>
    35a5: c5 04        	cmp	$4                      ; 0x2004 <__heap_default_limit+0x1004>
    35a7: a2 00        	ldx	#$0
    35a9: 86 04        	stx	$4                      ; 0x2004 <__heap_default_limit+0x1004>
    35ab: a2 00        	ldx	#$0
    35ad: 86 05        	stx	$5                      ; 0x2005 <__heap_default_limit+0x1005>
    35af: 90 03        	bcc	$35b4 <getdirententry+0x6d>
    35b1: 4c 55 36     	jmp	$3655 <getdirententry+0x10e>
    35b4: 84 4f        	sty	$4f                     ; 0x204f <_fini+0x4>
    35b6: a5 4b        	lda	$4b                     ; 0x204b <_fini>
    35b8: 18           	clc
    35b9: 65 4d        	adc	$4d                     ; 0x204d <_fini+0x2>
    35bb: a8           	tay
    35bc: a6 06        	ldx	$6                      ; 0x2006 <__heap_default_limit+0x1006>
    35be: 86 4c        	stx	$4c                     ; 0x204c <_fini+0x1>
    35c0: 86 04        	stx	$4                      ; 0x2004 <__heap_default_limit+0x1004>
    35c2: a5 4a        	lda	$4a                     ; 0x204a <__after_main+0x2>
    35c4: 65 04        	adc	$4                      ; 0x2004 <__heap_default_limit+0x1004>
    35c6: 85 0c        	sta	$c                      ; 0x200c <__heap_default_limit+0x100c>
    35c8: a5 48        	lda	$48                     ; 0x2048 <__after_main>
    35ca: 69 00        	adc	#$0
    35cc: 85 04        	sta	$4                      ; 0x2004 <__heap_default_limit+0x1004>
    35ce: a5 49        	lda	$49                     ; 0x2049 <__after_main+0x1>
    35d0: 69 00        	adc	#$0
    35d2: 85 05        	sta	$5                      ; 0x2005 <__heap_default_limit+0x1005>
    35d4: a2 c0        	ldx	#$c0
    35d6: 86 06        	stx	$6                      ; 0x2006 <__heap_default_limit+0x1006>
    35d8: a2 1b        	ldx	#$1b
    35da: 86 07        	stx	$7                      ; 0x2007 <__heap_default_limit+0x1007>
    35dc: 64 08        	stz	$8                      ; 0x2008 <__heap_default_limit+0x1008>
    35de: 64 09        	stz	$9                      ; 0x2009 <__heap_default_limit+0x1009>
    35e0: a2 20        	ldx	#$20
    35e2: 86 0a        	stx	$a                      ; 0x200a <__heap_default_limit+0x100a>
    35e4: 64 0b        	stz	$b                      ; 0x200b <__heap_default_limit+0x100b>
    35e6: a6 0c        	ldx	$c                      ; 0x200c <__heap_default_limit+0x100c>
    35e8: 98           	tya
    35e9: 20 a5 89     	jsr	$89a5 <lcopy>
    35ec: ae c0 1b     	ldx	$1bc0                   ; 0x1bc0 <__heap_default_limit+0xbc0>
    35ef: f0 17        	beq	$3608 <getdirententry+0xc1>
    35f1: a4 4f        	ldy	$4f                     ; 0x204f <_fini+0x4>
    35f3: a5 4f        	lda	$4f                     ; 0x204f <_fini+0x4>
    35f5: 29 07        	and	#$7
    35f7: d0 11        	bne	$360a <getdirententry+0xc3>
    35f9: 18           	clc
    35fa: a5 54        	lda	$54                     ; 0x2054 <_fini+0x9>
    35fc: 69 08        	adc	#$8
    35fe: 85 54        	sta	$54                     ; 0x2054 <_fini+0x9>
    3600: a5 51        	lda	$51                     ; 0x2051 <_fini+0x6>
    3602: 69 00        	adc	#$0
    3604: 85 51        	sta	$51                     ; 0x2051 <_fini+0x6>
    3606: 80 02        	bra	$360a <getdirententry+0xc3>
    3608: a4 4f        	ldy	$4f                     ; 0x204f <_fini+0x4>
    360a: ae c2 1b     	ldx	$1bc2                   ; 0x1bc2 <__heap_default_limit+0xbc2>
    360d: d0 06        	bne	$3615 <getdirententry+0xce>
    360f: a9 01        	lda	#$1
    3611: 25 2f        	and	$2f                     ; 0x202f <__do_init_stack>
    3613: f0 1f        	beq	$3634 <getdirententry+0xed>
    3615: a5 52        	lda	$52                     ; 0x2052 <_fini+0x7>
    3617: c5 4e        	cmp	$4e                     ; 0x204e <_fini+0x3>
    3619: d0 0c        	bne	$3627 <getdirententry+0xe0>
    361b: a6 55        	ldx	$55                     ; 0x2055 <_fini+0xa>
    361d: 86 04        	stx	$4                      ; 0x2004 <__heap_default_limit+0x1004>
    361f: a4 50        	ldy	$50                     ; 0x2050 <_fini+0x5>
    3621: c4 04        	cpy	$4                      ; 0x2004 <__heap_default_limit+0x1004>
    3623: f0 28        	beq	$364d <getdirententry+0x106>
    3625: 80 02        	bra	$3629 <getdirententry+0xe2>
    3627: a4 50        	ldy	$50                     ; 0x2050 <_fini+0x5>
    3629: aa           	tax
    362a: c8           	iny
    362b: d0 01        	bne	$362e <getdirententry+0xe7>
    362d: e8           	inx
    362e: 84 50        	sty	$50                     ; 0x2050 <_fini+0x5>
    3630: 86 52        	stx	$52                     ; 0x2052 <_fini+0x7>
    3632: a4 4f        	ldy	$4f                     ; 0x204f <_fini+0x4>
    3634: a6 53        	ldx	$53                     ; 0x2053 <_fini+0x8>
    3636: c8           	iny
    3637: d0 01        	bne	$363a <getdirententry+0xf3>
    3639: e8           	inx
    363a: 18           	clc
    363b: a5 4d        	lda	$4d                     ; 0x204d <_fini+0x2>
    363d: 69 20        	adc	#$20
    363f: 85 4d        	sta	$4d                     ; 0x204d <_fini+0x2>
    3641: a5 4c        	lda	$4c                     ; 0x204c <_fini+0x1>
    3643: 69 00        	adc	#$0
    3645: 85 06        	sta	$6                      ; 0x2006 <__heap_default_limit+0x1006>
    3647: 8a           	txa
    3648: a6 51        	ldx	$51                     ; 0x2051 <_fini+0x6>
    364a: 4c 8d 35     	jmp	$358d <getdirententry+0x46>
    364d: a2 c0        	ldx	#$c0
    364f: 86 04        	stx	$4                      ; 0x2004 <__heap_default_limit+0x1004>
    3651: a2 1b        	ldx	#$1b
    3653: 86 05        	stx	$5                      ; 0x2005 <__heap_default_limit+0x1005>
    3655: 60           	rts

00003656 <writenewdirententry>:
    3656: a4 16        	ldy	$16                     ; 0x2016 <next_line+0x1>
    3658: 5a           	phy
    3659: a4 17        	ldy	$17                     ; 0x2017 <next_line+0x2>
    365b: 5a           	phy
    365c: a4 18        	ldy	$18                     ; 0x2018 <next_line+0x3>
    365e: 5a           	phy
    365f: a4 19        	ldy	$19                     ; 0x2019 <next_line+0x4>
    3661: 5a           	phy
    3662: a4 1a        	ldy	$1a                     ; 0x201a <next_line+0x5>
    3664: 8c f2 9f     	sty	$9ff2                   ; 0x9ff2 <__data_load_start+0x2d8>
    3667: a4 1b        	ldy	$1b                     ; 0x201b <next_line+0x6>
    3669: 8c f3 9f     	sty	$9ff3                   ; 0x9ff3 <__data_load_start+0x2d9>
    366c: a4 1c        	ldy	$1c                     ; 0x201c <next_line+0x7>
    366e: 8c f4 9f     	sty	$9ff4                   ; 0x9ff4 <__data_load_start+0x2da>
    3671: a4 1d        	ldy	$1d                     ; 0x201d <next_line+0x8>
    3673: 8c f5 9f     	sty	$9ff5                   ; 0x9ff5 <__data_load_start+0x2db>
    3676: a4 1e        	ldy	$1e                     ; 0x201e <next_line+0x9>
    3678: 8c f6 9f     	sty	$9ff6                   ; 0x9ff6 <__data_load_start+0x2dc>
    367b: a4 1f        	ldy	$1f                     ; 0x201f <next_line+0xa>
    367d: 8c f7 9f     	sty	$9ff7                   ; 0x9ff7 <__data_load_start+0x2dd>
    3680: a4 20        	ldy	$20                     ; 0x2020 <next_line+0xb>
    3682: 8c f8 9f     	sty	$9ff8                   ; 0x9ff8 <__data_load_start+0x2de>
    3685: a4 21        	ldy	$21                     ; 0x2021 <_start>
    3687: 8c f9 9f     	sty	$9ff9                   ; 0x9ff9 <__data_load_start+0x2df>
    368a: 8d e7 9f     	sta	$9fe7                   ; 0x9fe7 <__data_load_start+0x2cd>
    368d: 86 07        	stx	$7                      ; 0x2007 <__heap_default_limit+0x1007>
    368f: a6 04        	ldx	$4                      ; 0x2004 <__heap_default_limit+0x1004>
    3691: 86 1a        	stx	$1a                     ; 0x201a <next_line+0x5>
    3693: a6 05        	ldx	$5                      ; 0x2005 <__heap_default_limit+0x1005>
    3695: 8e ec 9f     	stx	$9fec                   ; 0x9fec <__data_load_start+0x2d2>
    3698: a6 06        	ldx	$6                      ; 0x2006 <__heap_default_limit+0x1006>
    369a: 8e ed 9f     	stx	$9fed                   ; 0x9fed <__data_load_start+0x2d3>
    369d: a6 08        	ldx	$8                      ; 0x2008 <__heap_default_limit+0x1008>
    369f: 8e e2 9f     	stx	$9fe2                   ; 0x9fe2 <__data_load_start+0x2c8>
    36a2: a6 09        	ldx	$9                      ; 0x2009 <__heap_default_limit+0x1009>
    36a4: 8e e3 9f     	stx	$9fe3                   ; 0x9fe3 <__data_load_start+0x2c9>
    36a7: a6 07        	ldx	$7                      ; 0x2007 <__heap_default_limit+0x1007>
    36a9: 86 05        	stx	$5                      ; 0x2005 <__heap_default_limit+0x1005>
    36ab: 46 05        	lsr	$5                      ; 0x2005 <__heap_default_limit+0x1005>
    36ad: 64 04        	stz	$4                      ; 0x2004 <__heap_default_limit+0x1004>
    36af: 66 04        	ror	$4                      ; 0x2004 <__heap_default_limit+0x1004>
    36b1: a9 00        	lda	#$0
    36b3: 6a           	ror
    36b4: 46 05        	lsr	$5                      ; 0x2005 <__heap_default_limit+0x1005>
    36b6: 66 04        	ror	$4                      ; 0x2004 <__heap_default_limit+0x1004>
    36b8: 6a           	ror
    36b9: 46 05        	lsr	$5                      ; 0x2005 <__heap_default_limit+0x1005>
    36bb: 66 04        	ror	$4                      ; 0x2004 <__heap_default_limit+0x1004>
    36bd: 6a           	ror
    36be: 38           	sec
    36bf: e9 00        	sbc	#$0
    36c1: 85 1b        	sta	$1b                     ; 0x201b <next_line+0x6>
    36c3: 8d e9 9f     	sta	$9fe9                   ; 0x9fe9 <__data_load_start+0x2cf>
    36c6: a5 04        	lda	$4                      ; 0x2004 <__heap_default_limit+0x1004>
    36c8: e5 07        	sbc	$7                      ; 0x2007 <__heap_default_limit+0x1007>
    36ca: 85 18        	sta	$18                     ; 0x2018 <next_line+0x3>
    36cc: 8d ea 9f     	sta	$9fea                   ; 0x9fea <__data_load_start+0x2d0>
    36cf: a5 05        	lda	$5                      ; 0x2005 <__heap_default_limit+0x1005>
    36d1: e9 00        	sbc	#$0
    36d3: 85 20        	sta	$20                     ; 0x2020 <next_line+0xb>
    36d5: 8d e8 9f     	sta	$9fe8                   ; 0x9fe8 <__data_load_start+0x2ce>
    36d8: a9 00        	lda	#$0
    36da: e9 00        	sbc	#$0
    36dc: a2 08        	ldx	#$8
    36de: 8e e0 9f     	stx	$9fe0                   ; 0x9fe0 <__data_load_start+0x2c6>
    36e1: 09 08        	ora	#$8
    36e3: 85 17        	sta	$17                     ; 0x2017 <next_line+0x2>
    36e5: 8d eb 9f     	sta	$9feb                   ; 0x9feb <__data_load_start+0x2d1>
    36e8: a6 1a        	ldx	$1a                     ; 0x201a <next_line+0x5>
    36ea: 8e e5 9f     	stx	$9fe5                   ; 0x9fe5 <__data_load_start+0x2cb>
    36ed: a2 03        	ldx	#$3
    36ef: 8e e6 9f     	stx	$9fe6                   ; 0x9fe6 <__data_load_start+0x2cc>
    36f2: 64 1d        	stz	$1d                     ; 0x201d <next_line+0x8>
    36f4: 64 19        	stz	$19                     ; 0x2019 <next_line+0x4>
    36f6: 64 21        	stz	$21                     ; 0x2021 <_start>
    36f8: a2 00        	ldx	#$0
    36fa: 64 1c        	stz	$1c                     ; 0x201c <next_line+0x7>
    36fc: 4c 8a 37     	jmp	$378a <writenewdirententry+0x134>
    36ff: 85 04        	sta	$4                      ; 0x2004 <__heap_default_limit+0x1004>
    3701: c4 04        	cpy	$4                      ; 0x2004 <__heap_default_limit+0x1004>
    3703: 90 03        	bcc	$3708 <writenewdirententry+0xb2>
    3705: 4c d6 37     	jmp	$37d6 <writenewdirententry+0x180>
    3708: 86 16        	stx	$16                     ; 0x2016 <next_line+0x1>
    370a: a5 1b        	lda	$1b                     ; 0x201b <next_line+0x6>
    370c: 18           	clc
    370d: 65 1f        	adc	$1f                     ; 0x201f <next_line+0xa>
    370f: 85 0c        	sta	$c                      ; 0x200c <__heap_default_limit+0x100c>
    3711: a5 18        	lda	$18                     ; 0x2018 <next_line+0x3>
    3713: 65 1e        	adc	$1e                     ; 0x201e <next_line+0x9>
    3715: 85 0d        	sta	$d                      ; 0x200d <__heap_default_limit+0x100d>
    3717: a5 20        	lda	$20                     ; 0x2020 <next_line+0xb>
    3719: 69 00        	adc	#$0
    371b: 85 04        	sta	$4                      ; 0x2004 <__heap_default_limit+0x1004>
    371d: a5 17        	lda	$17                     ; 0x2017 <next_line+0x2>
    371f: 69 00        	adc	#$0
    3721: a6 04        	ldx	$4                      ; 0x2004 <__heap_default_limit+0x1004>
    3723: 8e f0 9f     	stx	$9ff0                   ; 0x9ff0 <__data_load_start+0x2d6>
    3726: 8d f1 9f     	sta	$9ff1                   ; 0x9ff1 <__data_load_start+0x2d7>
    3729: 85 05        	sta	$5                      ; 0x2005 <__heap_default_limit+0x1005>
    372b: a2 e0        	ldx	#$e0
    372d: 86 06        	stx	$6                      ; 0x2006 <__heap_default_limit+0x1006>
    372f: a2 1b        	ldx	#$1b
    3731: 86 07        	stx	$7                      ; 0x2007 <__heap_default_limit+0x1007>
    3733: 64 08        	stz	$8                      ; 0x2008 <__heap_default_limit+0x1008>
    3735: 64 09        	stz	$9                      ; 0x2009 <__heap_default_limit+0x1009>
    3737: a2 20        	ldx	#$20
    3739: 86 0a        	stx	$a                      ; 0x200a <__heap_default_limit+0x100a>
    373b: 64 0b        	stz	$b                      ; 0x200b <__heap_default_limit+0x100b>
    373d: a6 0d        	ldx	$d                      ; 0x200d <__heap_default_limit+0x100d>
    373f: 86 1f        	stx	$1f                     ; 0x201f <next_line+0xa>
    3741: a5 0c        	lda	$c                      ; 0x200c <__heap_default_limit+0x100c>
    3743: 85 1e        	sta	$1e                     ; 0x201e <next_line+0x9>
    3745: 20 a5 89     	jsr	$89a5 <lcopy>
    3748: a6 16        	ldx	$16                     ; 0x2016 <next_line+0x1>
    374a: a5 16        	lda	$16                     ; 0x2016 <next_line+0x1>
    374c: 29 07        	and	#$7
    374e: d0 14        	bne	$3764 <writenewdirententry+0x10e>
    3750: 8a           	txa
    3751: d0 03        	bne	$3756 <writenewdirententry+0x100>
    3753: 4c 00 3a     	jmp	$3a00 <writenewdirententry+0x3aa>
    3756: 86 21        	stx	$21                     ; 0x2021 <_start>
    3758: a6 19        	ldx	$19                     ; 0x2019 <next_line+0x4>
    375a: 8e e5 9f     	stx	$9fe5                   ; 0x9fe5 <__data_load_start+0x2cb>
    375d: a6 16        	ldx	$16                     ; 0x2016 <next_line+0x1>
    375f: a4 1d        	ldy	$1d                     ; 0x201d <next_line+0x8>
    3761: 8c e6 9f     	sty	$9fe6                   ; 0x9fe6 <__data_load_start+0x2cc>
    3764: ac e0 1b     	ldy	$1be0                   ; 0x1be0 <__heap_default_limit+0xbe0>
    3767: f0 16        	beq	$377f <writenewdirententry+0x129>
    3769: 18           	clc
    376a: 84 19        	sty	$19                     ; 0x2019 <next_line+0x4>
    376c: ad e0 9f     	lda	$9fe0                   ; 0x9fe0 <__data_load_start+0x2c6>
    376f: 69 08        	adc	#$8
    3771: 8d e0 9f     	sta	$9fe0                   ; 0x9fe0 <__data_load_start+0x2c6>
    3774: a5 1c        	lda	$1c                     ; 0x201c <next_line+0x7>
    3776: 69 00        	adc	#$0
    3778: 85 1c        	sta	$1c                     ; 0x201c <next_line+0x7>
    377a: ad e1 1b     	lda	$1be1                   ; 0x1be1 <__heap_default_limit+0xbe1>
    377d: 85 1d        	sta	$1d                     ; 0x201d <next_line+0x8>
    377f: a9 0f        	lda	#$f
    3781: 2d e2 1b     	and	$1be2                   ; 0x1be2 <__heap_default_limit+0xbe2>
    3784: d0 03        	bne	$3789 <writenewdirententry+0x133>
    3786: 4c 05 3a     	jmp	$3a05 <writenewdirententry+0x3af>
    3789: e8           	inx
    378a: 86 1e        	stx	$1e                     ; 0x201e <next_line+0x9>
    378c: 46 1e        	lsr	$1e                     ; 0x201e <next_line+0x9>
    378e: a0 01        	ldy	#$1
    3790: b0 02        	bcs	$3794 <writenewdirententry+0x13e>
    3792: a0 00        	ldy	#$0
    3794: 84 07        	sty	$7                      ; 0x2007 <__heap_default_limit+0x1007>
    3796: 46 1e        	lsr	$1e                     ; 0x201e <next_line+0x9>
    3798: a0 01        	ldy	#$1
    379a: b0 02        	bcs	$379e <writenewdirententry+0x148>
    379c: a0 00        	ldy	#$0
    379e: 84 06        	sty	$6                      ; 0x2006 <__heap_default_limit+0x1006>
    37a0: a4 1e        	ldy	$1e                     ; 0x201e <next_line+0x9>
    37a2: 84 04        	sty	$4                      ; 0x2004 <__heap_default_limit+0x1004>
    37a4: 64 1f        	stz	$1f                     ; 0x201f <next_line+0xa>
    37a6: a4 07        	ldy	$7                      ; 0x2007 <__heap_default_limit+0x1007>
    37a8: c0 01        	cpy	#$1
    37aa: 66 1f        	ror	$1f                     ; 0x201f <next_line+0xa>
    37ac: 46 04        	lsr	$4                      ; 0x2004 <__heap_default_limit+0x1004>
    37ae: a4 04        	ldy	$4                      ; 0x2004 <__heap_default_limit+0x1004>
    37b0: 8c e4 9f     	sty	$9fe4                   ; 0x9fe4 <__data_load_start+0x2ca>
    37b3: a4 06        	ldy	$6                      ; 0x2006 <__heap_default_limit+0x1006>
    37b5: c0 01        	cpy	#$1
    37b7: 66 1f        	ror	$1f                     ; 0x201f <next_line+0xa>
    37b9: 46 1e        	lsr	$1e                     ; 0x201e <next_line+0x9>
    37bb: 66 1f        	ror	$1f                     ; 0x201f <next_line+0xa>
    37bd: a5 1c        	lda	$1c                     ; 0x201c <next_line+0x7>
    37bf: a0 00        	ldy	#$0
    37c1: c4 1c        	cpy	$1c                     ; 0x201c <next_line+0x7>
    37c3: f0 03        	beq	$37c8 <writenewdirententry+0x172>
    37c5: 4c ff 36     	jmp	$36ff <writenewdirententry+0xa9>
    37c8: 8a           	txa
    37c9: ae e0 9f     	ldx	$9fe0                   ; 0x9fe0 <__data_load_start+0x2c6>
    37cc: 86 04        	stx	$4                      ; 0x2004 <__heap_default_limit+0x1004>
    37ce: aa           	tax
    37cf: c5 04        	cmp	$4                      ; 0x2004 <__heap_default_limit+0x1004>
    37d1: b0 03        	bcs	$37d6 <writenewdirententry+0x180>
    37d3: 4c 08 37     	jmp	$3708 <writenewdirententry+0xb2>
    37d6: a6 19        	ldx	$19                     ; 0x2019 <next_line+0x4>
    37d8: 8e de 9f     	stx	$9fde                   ; 0x9fde <__data_load_start+0x2c4>
    37db: a6 1d        	ldx	$1d                     ; 0x201d <next_line+0x8>
    37dd: 8e df 9f     	stx	$9fdf                   ; 0x9fdf <__data_load_start+0x2c5>
    37e0: 46 21        	lsr	$21                     ; 0x2021 <_start>
    37e2: 64 04        	stz	$4                      ; 0x2004 <__heap_default_limit+0x1004>
    37e4: 66 04        	ror	$4                      ; 0x2004 <__heap_default_limit+0x1004>
    37e6: 46 21        	lsr	$21                     ; 0x2021 <_start>
    37e8: 66 04        	ror	$4                      ; 0x2004 <__heap_default_limit+0x1004>
    37ea: a6 21        	ldx	$21                     ; 0x2021 <_start>
    37ec: 86 06        	stx	$6                      ; 0x2006 <__heap_default_limit+0x1006>
    37ee: a6 21        	ldx	$21                     ; 0x2021 <_start>
    37f0: 86 16        	stx	$16                     ; 0x2016 <next_line+0x1>
    37f2: 46 06        	lsr	$6                      ; 0x2006 <__heap_default_limit+0x1006>
    37f4: a5 04        	lda	$4                      ; 0x2004 <__heap_default_limit+0x1004>
    37f6: 6a           	ror
    37f7: 85 05        	sta	$5                      ; 0x2005 <__heap_default_limit+0x1005>
    37f9: a5 1b        	lda	$1b                     ; 0x201b <next_line+0x6>
    37fb: 8d ef 9f     	sta	$9fef                   ; 0x9fef <__data_load_start+0x2d5>
    37fe: 18           	clc
    37ff: a5 05        	lda	$5                      ; 0x2005 <__heap_default_limit+0x1005>
    3801: 65 1b        	adc	$1b                     ; 0x201b <next_line+0x6>
    3803: 85 1b        	sta	$1b                     ; 0x201b <next_line+0x6>
    3805: a5 18        	lda	$18                     ; 0x2018 <next_line+0x3>
    3807: 8d ee 9f     	sta	$9fee                   ; 0x9fee <__data_load_start+0x2d4>
    380a: ac e2 9f     	ldy	$9fe2                   ; 0x9fe2 <__data_load_start+0x2c8>
    380d: 84 1c        	sty	$1c                     ; 0x201c <next_line+0x7>
    380f: ac e3 9f     	ldy	$9fe3                   ; 0x9fe3 <__data_load_start+0x2c9>
    3812: 84 1d        	sty	$1d                     ; 0x201d <next_line+0x8>
    3814: a5 06        	lda	$6                      ; 0x2006 <__heap_default_limit+0x1006>
    3816: 65 18        	adc	$18                     ; 0x2018 <next_line+0x3>
    3818: 85 0c        	sta	$c                      ; 0x200c <__heap_default_limit+0x100c>
    381a: a6 20        	ldx	$20                     ; 0x2020 <next_line+0xb>
    381c: 86 19        	stx	$19                     ; 0x2019 <next_line+0x4>
    381e: a5 20        	lda	$20                     ; 0x2020 <next_line+0xb>
    3820: 69 00        	adc	#$0
    3822: 85 20        	sta	$20                     ; 0x2020 <next_line+0xb>
    3824: a6 17        	ldx	$17                     ; 0x2017 <next_line+0x2>
    3826: 86 18        	stx	$18                     ; 0x2018 <next_line+0x3>
    3828: a5 17        	lda	$17                     ; 0x2017 <next_line+0x2>
    382a: 69 00        	adc	#$0
    382c: a0 e0        	ldy	#$e0
    382e: a2 1b        	ldx	#$1b
    3830: 48           	pha
    3831: a5 20        	lda	$20                     ; 0x2020 <next_line+0xb>
    3833: 85 04        	sta	$4                      ; 0x2004 <__heap_default_limit+0x1004>
    3835: 68           	pla
    3836: 85 05        	sta	$5                      ; 0x2005 <__heap_default_limit+0x1005>
    3838: 85 21        	sta	$21                     ; 0x2021 <_start>
    383a: 84 06        	sty	$6                      ; 0x2006 <__heap_default_limit+0x1006>
    383c: 86 07        	stx	$7                      ; 0x2007 <__heap_default_limit+0x1007>
    383e: 64 08        	stz	$8                      ; 0x2008 <__heap_default_limit+0x1008>
    3840: 64 09        	stz	$9                      ; 0x2009 <__heap_default_limit+0x1009>
    3842: a2 20        	ldx	#$20
    3844: 86 0a        	stx	$a                      ; 0x200a <__heap_default_limit+0x100a>
    3846: 64 0b        	stz	$b                      ; 0x200b <__heap_default_limit+0x100b>
    3848: a6 0c        	ldx	$c                      ; 0x200c <__heap_default_limit+0x100c>
    384a: 86 17        	stx	$17                     ; 0x2017 <next_line+0x2>
    384c: a6 0c        	ldx	$c                      ; 0x200c <__heap_default_limit+0x100c>
    384e: a5 1b        	lda	$1b                     ; 0x201b <next_line+0x6>
    3850: 20 a5 89     	jsr	$89a5 <lcopy>
    3853: a2 de        	ldx	#$de
    3855: a0 9f        	ldy	#$9f
    3857: 86 04        	stx	$4                      ; 0x2004 <__heap_default_limit+0x1004>
    3859: 84 05        	sty	$5                      ; 0x2005 <__heap_default_limit+0x1005>
    385b: a2 df        	ldx	#$df
    385d: a0 9f        	ldy	#$9f
    385f: 86 06        	stx	$6                      ; 0x2006 <__heap_default_limit+0x1006>
    3861: 84 07        	sty	$7                      ; 0x2007 <__heap_default_limit+0x1007>
    3863: a9 01        	lda	#$1
    3865: ae ec 9f     	ldx	$9fec                   ; 0x9fec <__data_load_start+0x2d2>
    3868: 86 08        	stx	$8                      ; 0x2008 <__heap_default_limit+0x1008>
    386a: ae ed 9f     	ldx	$9fed                   ; 0x9fed <__data_load_start+0x2d3>
    386d: 86 09        	stx	$9                      ; 0x2009 <__heap_default_limit+0x1009>
    386f: a6 1a        	ldx	$1a                     ; 0x201a <next_line+0x5>
    3871: 20 62 30     	jsr	$3062 <findnextBAMtracksector>
    3874: ae de 9f     	ldx	$9fde                   ; 0x9fde <__data_load_start+0x2c4>
    3877: 8e ec 9f     	stx	$9fec                   ; 0x9fec <__data_load_start+0x2d2>
    387a: ae de 9f     	ldx	$9fde                   ; 0x9fde <__data_load_start+0x2c4>
    387d: 8e e0 1b     	stx	$1be0                   ; 0x1be0 <__heap_default_limit+0xbe0>
    3880: ae df 9f     	ldx	$9fdf                   ; 0x9fdf <__data_load_start+0x2c5>
    3883: 8e ed 9f     	stx	$9fed                   ; 0x9fed <__data_load_start+0x2d3>
    3886: ae df 9f     	ldx	$9fdf                   ; 0x9fdf <__data_load_start+0x2c5>
    3889: 8e e1 1b     	stx	$1be1                   ; 0x1be1 <__heap_default_limit+0xbe1>
    388c: a6 1b        	ldx	$1b                     ; 0x201b <next_line+0x6>
    388e: 86 06        	stx	$6                      ; 0x2006 <__heap_default_limit+0x1006>
    3890: a6 17        	ldx	$17                     ; 0x2017 <next_line+0x2>
    3892: 86 07        	stx	$7                      ; 0x2007 <__heap_default_limit+0x1007>
    3894: a6 20        	ldx	$20                     ; 0x2020 <next_line+0xb>
    3896: 86 08        	stx	$8                      ; 0x2008 <__heap_default_limit+0x1008>
    3898: a6 21        	ldx	$21                     ; 0x2021 <_start>
    389a: 86 09        	stx	$9                      ; 0x2009 <__heap_default_limit+0x1009>
    389c: 64 04        	stz	$4                      ; 0x2004 <__heap_default_limit+0x1004>
    389e: 64 05        	stz	$5                      ; 0x2005 <__heap_default_limit+0x1005>
    38a0: a2 20        	ldx	#$20
    38a2: 86 0a        	stx	$a                      ; 0x200a <__heap_default_limit+0x100a>
    38a4: 64 0b        	stz	$b                      ; 0x200b <__heap_default_limit+0x100b>
    38a6: a2 1b        	ldx	#$1b
    38a8: a9 e0        	lda	#$e0
    38aa: 20 a5 89     	jsr	$89a5 <lcopy>
    38ad: 46 16        	lsr	$16                     ; 0x2016 <next_line+0x1>
    38af: ae e9 9f     	ldx	$9fe9                   ; 0x9fe9 <__data_load_start+0x2cf>
    38b2: 86 04        	stx	$4                      ; 0x2004 <__heap_default_limit+0x1004>
    38b4: 18           	clc
    38b5: a9 00        	lda	#$0
    38b7: 65 04        	adc	$4                      ; 0x2004 <__heap_default_limit+0x1004>
    38b9: a2 01        	ldx	#$1
    38bb: b0 02        	bcs	$38bf <writenewdirententry+0x269>
    38bd: a2 00        	ldx	#$0
    38bf: 8e e9 9f     	stx	$9fe9                   ; 0x9fe9 <__data_load_start+0x2cf>
    38c2: 85 21        	sta	$21                     ; 0x2021 <_start>
    38c4: ae ea 9f     	ldx	$9fea                   ; 0x9fea <__data_load_start+0x2d0>
    38c7: 86 1b        	stx	$1b                     ; 0x201b <next_line+0x6>
    38c9: a5 16        	lda	$16                     ; 0x2016 <next_line+0x1>
    38cb: 65 1b        	adc	$1b                     ; 0x201b <next_line+0x6>
    38cd: 85 0c        	sta	$c                      ; 0x200c <__heap_default_limit+0x100c>
    38cf: a9 00        	lda	#$0
    38d1: ae e8 9f     	ldx	$9fe8                   ; 0x9fe8 <__data_load_start+0x2ce>
    38d4: 86 1a        	stx	$1a                     ; 0x201a <next_line+0x5>
    38d6: 65 1a        	adc	$1a                     ; 0x201a <next_line+0x5>
    38d8: 85 04        	sta	$4                      ; 0x2004 <__heap_default_limit+0x1004>
    38da: a9 00        	lda	#$0
    38dc: ae eb 9f     	ldx	$9feb                   ; 0x9feb <__data_load_start+0x2d1>
    38df: 86 20        	stx	$20                     ; 0x2020 <next_line+0xb>
    38e1: 65 20        	adc	$20                     ; 0x2020 <next_line+0xb>
    38e3: a2 19        	ldx	#$19
    38e5: 85 05        	sta	$5                      ; 0x2005 <__heap_default_limit+0x1005>
    38e7: 64 06        	stz	$6                      ; 0x2006 <__heap_default_limit+0x1006>
    38e9: 86 07        	stx	$7                      ; 0x2007 <__heap_default_limit+0x1007>
    38eb: 64 08        	stz	$8                      ; 0x2008 <__heap_default_limit+0x1008>
    38ed: 64 09        	stz	$9                      ; 0x2009 <__heap_default_limit+0x1009>
    38ef: 64 0a        	stz	$a                      ; 0x200a <__heap_default_limit+0x100a>
    38f1: a2 01        	ldx	#$1
    38f3: 86 0b        	stx	$b                      ; 0x200b <__heap_default_limit+0x100b>
    38f5: a6 0c        	ldx	$c                      ; 0x200c <__heap_default_limit+0x100c>
    38f7: a5 21        	lda	$21                     ; 0x2021 <_start>
    38f9: 20 a5 89     	jsr	$89a5 <lcopy>
    38fc: a2 00        	ldx	#$0
    38fe: 86 04        	stx	$4                      ; 0x2004 <__heap_default_limit+0x1004>
    3900: a2 19        	ldx	#$19
    3902: 86 05        	stx	$5                      ; 0x2005 <__heap_default_limit+0x1005>
    3904: a6 04        	ldx	$4                      ; 0x2004 <__heap_default_limit+0x1004>
    3906: 8e e0 9f     	stx	$9fe0                   ; 0x9fe0 <__data_load_start+0x2c6>
    3909: a6 05        	ldx	$5                      ; 0x2005 <__heap_default_limit+0x1005>
    390b: 8e e1 9f     	stx	$9fe1                   ; 0x9fe1 <__data_load_start+0x2c7>
    390e: ae e0 9f     	ldx	$9fe0                   ; 0x9fe0 <__data_load_start+0x2c6>
    3911: 86 04        	stx	$4                      ; 0x2004 <__heap_default_limit+0x1004>
    3913: ae e1 9f     	ldx	$9fe1                   ; 0x9fe1 <__data_load_start+0x2c7>
    3916: 86 05        	stx	$5                      ; 0x2005 <__heap_default_limit+0x1005>
    3918: ae e6 9f     	ldx	$9fe6                   ; 0x9fe6 <__data_load_start+0x2cc>
    391b: 86 06        	stx	$6                      ; 0x2006 <__heap_default_limit+0x1006>
    391d: ae e5 9f     	ldx	$9fe5                   ; 0x9fe5 <__data_load_start+0x2cb>
    3920: ac e7 9f     	ldy	$9fe7                   ; 0x9fe7 <__data_load_start+0x2cd>
    3923: 84 17        	sty	$17                     ; 0x2017 <next_line+0x2>
    3925: 98           	tya
    3926: 20 fd 25     	jsr	$25fd <PutOneSector>
    3929: ad ef 9f     	lda	$9fef                   ; 0x9fef <__data_load_start+0x2d5>
    392c: 18           	clc
    392d: 65 1f        	adc	$1f                     ; 0x201f <next_line+0xa>
    392f: 85 16        	sta	$16                     ; 0x2016 <next_line+0x1>
    3931: ae ee 9f     	ldx	$9fee                   ; 0x9fee <__data_load_start+0x2d4>
    3934: 8a           	txa
    3935: 65 1e        	adc	$1e                     ; 0x201e <next_line+0x9>
    3937: a8           	tay
    3938: a5 19        	lda	$19                     ; 0x2019 <next_line+0x4>
    393a: 69 00        	adc	#$0
    393c: 85 19        	sta	$19                     ; 0x2019 <next_line+0x4>
    393e: a5 18        	lda	$18                     ; 0x2018 <next_line+0x3>
    3940: 69 00        	adc	#$0
    3942: a6 19        	ldx	$19                     ; 0x2019 <next_line+0x4>
    3944: 86 04        	stx	$4                      ; 0x2004 <__heap_default_limit+0x1004>
    3946: 85 05        	sta	$5                      ; 0x2005 <__heap_default_limit+0x1005>
    3948: 85 1e        	sta	$1e                     ; 0x201e <next_line+0x9>
    394a: 64 06        	stz	$6                      ; 0x2006 <__heap_default_limit+0x1006>
    394c: 64 07        	stz	$7                      ; 0x2007 <__heap_default_limit+0x1007>
    394e: a2 01        	ldx	#$1
    3950: 86 08        	stx	$8                      ; 0x2008 <__heap_default_limit+0x1008>
    3952: 84 18        	sty	$18                     ; 0x2018 <next_line+0x3>
    3954: a6 18        	ldx	$18                     ; 0x2018 <next_line+0x3>
    3956: a5 16        	lda	$16                     ; 0x2016 <next_line+0x1>
    3958: 20 0c 8a     	jsr	$8a0c <lfill>
    395b: a9 00        	lda	#$0
    395d: 92 1c        	sta	($1c),z                 ; 0x201c <next_line+0x7>
    395f: 3a           	dec
    3960: a0 01        	ldy	#$1
    3962: 91 1c        	sta	($1c),y                 ; 0x201c <next_line+0x7>
    3964: a6 16        	ldx	$16                     ; 0x2016 <next_line+0x1>
    3966: 86 06        	stx	$6                      ; 0x2006 <__heap_default_limit+0x1006>
    3968: a6 18        	ldx	$18                     ; 0x2018 <next_line+0x3>
    396a: 86 07        	stx	$7                      ; 0x2007 <__heap_default_limit+0x1007>
    396c: a6 19        	ldx	$19                     ; 0x2019 <next_line+0x4>
    396e: 86 08        	stx	$8                      ; 0x2008 <__heap_default_limit+0x1008>
    3970: 64 04        	stz	$4                      ; 0x2004 <__heap_default_limit+0x1004>
    3972: 64 05        	stz	$5                      ; 0x2005 <__heap_default_limit+0x1005>
    3974: 64 0b        	stz	$b                      ; 0x200b <__heap_default_limit+0x100b>
    3976: a6 1e        	ldx	$1e                     ; 0x201e <next_line+0x9>
    3978: 86 09        	stx	$9                      ; 0x2009 <__heap_default_limit+0x1009>
    397a: a2 20        	ldx	#$20
    397c: 86 0a        	stx	$a                      ; 0x200a <__heap_default_limit+0x100a>
    397e: a6 1d        	ldx	$1d                     ; 0x201d <next_line+0x8>
    3980: a5 1c        	lda	$1c                     ; 0x201c <next_line+0x7>
    3982: 20 a5 89     	jsr	$89a5 <lcopy>
    3985: ae e4 9f     	ldx	$9fe4                   ; 0x9fe4 <__data_load_start+0x2ca>
    3988: 8a           	txa
    3989: ae e9 9f     	ldx	$9fe9                   ; 0x9fe9 <__data_load_start+0x2cf>
    398c: e0 01        	cpx	#$1
    398e: 65 1b        	adc	$1b                     ; 0x201b <next_line+0x6>
    3990: a8           	tay
    3991: a9 00        	lda	#$0
    3993: 65 1a        	adc	$1a                     ; 0x201a <next_line+0x5>
    3995: 85 04        	sta	$4                      ; 0x2004 <__heap_default_limit+0x1004>
    3997: a9 00        	lda	#$0
    3999: 65 20        	adc	$20                     ; 0x2020 <next_line+0xb>
    399b: 85 05        	sta	$5                      ; 0x2005 <__heap_default_limit+0x1005>
    399d: a2 19        	ldx	#$19
    399f: 86 07        	stx	$7                      ; 0x2007 <__heap_default_limit+0x1007>
    39a1: 64 06        	stz	$6                      ; 0x2006 <__heap_default_limit+0x1006>
    39a3: 64 08        	stz	$8                      ; 0x2008 <__heap_default_limit+0x1008>
    39a5: 64 09        	stz	$9                      ; 0x2009 <__heap_default_limit+0x1009>
    39a7: 64 0a        	stz	$a                      ; 0x200a <__heap_default_limit+0x100a>
    39a9: a2 01        	ldx	#$1
    39ab: 86 0b        	stx	$b                      ; 0x200b <__heap_default_limit+0x100b>
    39ad: 5a           	phy
    39ae: fa           	plx
    39af: a5 21        	lda	$21                     ; 0x2021 <_start>
    39b1: 20 a5 89     	jsr	$89a5 <lcopy>
    39b4: ae e0 9f     	ldx	$9fe0                   ; 0x9fe0 <__data_load_start+0x2c6>
    39b7: 86 04        	stx	$4                      ; 0x2004 <__heap_default_limit+0x1004>
    39b9: ae e1 9f     	ldx	$9fe1                   ; 0x9fe1 <__data_load_start+0x2c7>
    39bc: 86 05        	stx	$5                      ; 0x2005 <__heap_default_limit+0x1005>
    39be: ae ed 9f     	ldx	$9fed                   ; 0x9fed <__data_load_start+0x2d3>
    39c1: 86 06        	stx	$6                      ; 0x2006 <__heap_default_limit+0x1006>
    39c3: ae ec 9f     	ldx	$9fec                   ; 0x9fec <__data_load_start+0x2d2>
    39c6: a5 17        	lda	$17                     ; 0x2017 <next_line+0x2>
    39c8: 20 fd 25     	jsr	$25fd <PutOneSector>
    39cb: ae f9 9f     	ldx	$9ff9                   ; 0x9ff9 <__data_load_start+0x2df>
    39ce: 86 21        	stx	$21                     ; 0x2021 <_start>
    39d0: ae f8 9f     	ldx	$9ff8                   ; 0x9ff8 <__data_load_start+0x2de>
    39d3: 86 20        	stx	$20                     ; 0x2020 <next_line+0xb>
    39d5: ae f7 9f     	ldx	$9ff7                   ; 0x9ff7 <__data_load_start+0x2dd>
    39d8: 86 1f        	stx	$1f                     ; 0x201f <next_line+0xa>
    39da: ae f6 9f     	ldx	$9ff6                   ; 0x9ff6 <__data_load_start+0x2dc>
    39dd: 86 1e        	stx	$1e                     ; 0x201e <next_line+0x9>
    39df: ae f5 9f     	ldx	$9ff5                   ; 0x9ff5 <__data_load_start+0x2db>
    39e2: 86 1d        	stx	$1d                     ; 0x201d <next_line+0x8>
    39e4: ae f4 9f     	ldx	$9ff4                   ; 0x9ff4 <__data_load_start+0x2da>
    39e7: 86 1c        	stx	$1c                     ; 0x201c <next_line+0x7>
    39e9: ae f3 9f     	ldx	$9ff3                   ; 0x9ff3 <__data_load_start+0x2d9>
    39ec: 86 1b        	stx	$1b                     ; 0x201b <next_line+0x6>
    39ee: ae f2 9f     	ldx	$9ff2                   ; 0x9ff2 <__data_load_start+0x2d8>
    39f1: 86 1a        	stx	$1a                     ; 0x201a <next_line+0x5>
    39f3: fa           	plx
    39f4: 86 19        	stx	$19                     ; 0x2019 <next_line+0x4>
    39f6: fa           	plx
    39f7: 86 18        	stx	$18                     ; 0x2018 <next_line+0x3>
    39f9: fa           	plx
    39fa: 86 17        	stx	$17                     ; 0x2017 <next_line+0x2>
    39fc: fa           	plx
    39fd: 86 16        	stx	$16                     ; 0x2016 <next_line+0x1>
    39ff: 60           	rts
    3a00: 64 21        	stz	$21                     ; 0x2021 <_start>
    3a02: 4c 64 37     	jmp	$3764 <writenewdirententry+0x10e>
    3a05: ae e2 9f     	ldx	$9fe2                   ; 0x9fe2 <__data_load_start+0x2c8>
    3a08: 86 04        	stx	$4                      ; 0x2004 <__heap_default_limit+0x1004>
    3a0a: ae e3 9f     	ldx	$9fe3                   ; 0x9fe3 <__data_load_start+0x2c9>
    3a0d: 86 05        	stx	$5                      ; 0x2005 <__heap_default_limit+0x1005>
    3a0f: a5 04        	lda	$4                      ; 0x2004 <__heap_default_limit+0x1004>
    3a11: 85 0c        	sta	$c                      ; 0x200c <__heap_default_limit+0x100c>
    3a13: 86 0d        	stx	$d                      ; 0x200d <__heap_default_limit+0x100d>
    3a15: 98           	tya
    3a16: 92 04        	sta	($4),z                  ; 0x2004 <__heap_default_limit+0x1004>
    3a18: ad e1 1b     	lda	$1be1                   ; 0x1be1 <__heap_default_limit+0xbe1>
    3a1b: a0 01        	ldy	#$1
    3a1d: 91 04        	sta	($4),y                  ; 0x2004 <__heap_default_limit+0x1004>
    3a1f: a2 20        	ldx	#$20
    3a21: a4 1e        	ldy	$1e                     ; 0x201e <next_line+0x9>
    3a23: 84 06        	sty	$6                      ; 0x2006 <__heap_default_limit+0x1006>
    3a25: a4 1f        	ldy	$1f                     ; 0x201f <next_line+0xa>
    3a27: 84 07        	sty	$7                      ; 0x2007 <__heap_default_limit+0x1007>
    3a29: ac f0 9f     	ldy	$9ff0                   ; 0x9ff0 <__data_load_start+0x2d6>
    3a2c: 84 08        	sty	$8                      ; 0x2008 <__heap_default_limit+0x1008>
    3a2e: 64 04        	stz	$4                      ; 0x2004 <__heap_default_limit+0x1004>
    3a30: 64 05        	stz	$5                      ; 0x2005 <__heap_default_limit+0x1005>
    3a32: ac f1 9f     	ldy	$9ff1                   ; 0x9ff1 <__data_load_start+0x2d7>
    3a35: 84 09        	sty	$9                      ; 0x2009 <__heap_default_limit+0x1009>
    3a37: 86 0a        	stx	$a                      ; 0x200a <__heap_default_limit+0x100a>
    3a39: 64 0b        	stz	$b                      ; 0x200b <__heap_default_limit+0x100b>
    3a3b: a6 0d        	ldx	$d                      ; 0x200d <__heap_default_limit+0x100d>
    3a3d: a5 0c        	lda	$c                      ; 0x200c <__heap_default_limit+0x100c>
    3a3f: 20 a5 89     	jsr	$89a5 <lcopy>
    3a42: 18           	clc
    3a43: a9 00        	lda	#$0
    3a45: ae e9 9f     	ldx	$9fe9                   ; 0x9fe9 <__data_load_start+0x2cf>
    3a48: 86 04        	stx	$4                      ; 0x2004 <__heap_default_limit+0x1004>
    3a4a: 65 04        	adc	$4                      ; 0x2004 <__heap_default_limit+0x1004>
    3a4c: a8           	tay
    3a4d: ae e4 9f     	ldx	$9fe4                   ; 0x9fe4 <__data_load_start+0x2ca>
    3a50: 8a           	txa
    3a51: ae ea 9f     	ldx	$9fea                   ; 0x9fea <__data_load_start+0x2d0>
    3a54: 86 04        	stx	$4                      ; 0x2004 <__heap_default_limit+0x1004>
    3a56: 65 04        	adc	$4                      ; 0x2004 <__heap_default_limit+0x1004>
    3a58: 85 0c        	sta	$c                      ; 0x200c <__heap_default_limit+0x100c>
    3a5a: a9 00        	lda	#$0
    3a5c: ae e8 9f     	ldx	$9fe8                   ; 0x9fe8 <__data_load_start+0x2ce>
    3a5f: 86 04        	stx	$4                      ; 0x2004 <__heap_default_limit+0x1004>
    3a61: 65 04        	adc	$4                      ; 0x2004 <__heap_default_limit+0x1004>
    3a63: 85 05        	sta	$5                      ; 0x2005 <__heap_default_limit+0x1005>
    3a65: a9 00        	lda	#$0
    3a67: ae eb 9f     	ldx	$9feb                   ; 0x9feb <__data_load_start+0x2d1>
    3a6a: 86 04        	stx	$4                      ; 0x2004 <__heap_default_limit+0x1004>
    3a6c: 65 04        	adc	$4                      ; 0x2004 <__heap_default_limit+0x1004>
    3a6e: a2 19        	ldx	#$19
    3a70: 5a           	phy
    3a71: a4 05        	ldy	$5                      ; 0x2005 <__heap_default_limit+0x1005>
    3a73: 84 04        	sty	$4                      ; 0x2004 <__heap_default_limit+0x1004>
    3a75: 7a           	ply
    3a76: 85 05        	sta	$5                      ; 0x2005 <__heap_default_limit+0x1005>
    3a78: 86 07        	stx	$7                      ; 0x2007 <__heap_default_limit+0x1007>
    3a7a: 64 06        	stz	$6                      ; 0x2006 <__heap_default_limit+0x1006>
    3a7c: 64 08        	stz	$8                      ; 0x2008 <__heap_default_limit+0x1008>
    3a7e: 64 09        	stz	$9                      ; 0x2009 <__heap_default_limit+0x1009>
    3a80: 64 0a        	stz	$a                      ; 0x200a <__heap_default_limit+0x100a>
    3a82: a2 01        	ldx	#$1
    3a84: 86 0b        	stx	$b                      ; 0x200b <__heap_default_limit+0x100b>
    3a86: a6 0c        	ldx	$c                      ; 0x200c <__heap_default_limit+0x100c>
    3a88: 98           	tya
    3a89: 20 a5 89     	jsr	$89a5 <lcopy>
    3a8c: a2 00        	ldx	#$0
    3a8e: 86 04        	stx	$4                      ; 0x2004 <__heap_default_limit+0x1004>
    3a90: a2 19        	ldx	#$19
    3a92: 86 05        	stx	$5                      ; 0x2005 <__heap_default_limit+0x1005>
    3a94: ae e6 9f     	ldx	$9fe6                   ; 0x9fe6 <__data_load_start+0x2cc>
    3a97: 86 06        	stx	$6                      ; 0x2006 <__heap_default_limit+0x1006>
    3a99: ae e5 9f     	ldx	$9fe5                   ; 0x9fe5 <__data_load_start+0x2cb>
    3a9c: ad e7 9f     	lda	$9fe7                   ; 0x9fe7 <__data_load_start+0x2cd>
    3a9f: 4c c8 39     	jmp	$39c8 <writenewdirententry+0x372>

00003aa2 <deletedirententry>:
    3aa2: a4 16        	ldy	$16                     ; 0x2016 <next_line+0x1>
    3aa4: 5a           	phy
    3aa5: a4 17        	ldy	$17                     ; 0x2017 <next_line+0x2>
    3aa7: 5a           	phy
    3aa8: a4 18        	ldy	$18                     ; 0x2018 <next_line+0x3>
    3aaa: 5a           	phy
    3aab: a4 19        	ldy	$19                     ; 0x2019 <next_line+0x4>
    3aad: 5a           	phy
    3aae: a4 1a        	ldy	$1a                     ; 0x201a <next_line+0x5>
    3ab0: 8c ea 9f     	sty	$9fea                   ; 0x9fea <__data_load_start+0x2d0>
    3ab3: a4 1b        	ldy	$1b                     ; 0x201b <next_line+0x6>
    3ab5: 8c eb 9f     	sty	$9feb                   ; 0x9feb <__data_load_start+0x2d1>
    3ab8: a4 1c        	ldy	$1c                     ; 0x201c <next_line+0x7>
    3aba: 8c ec 9f     	sty	$9fec                   ; 0x9fec <__data_load_start+0x2d2>
    3abd: a4 1d        	ldy	$1d                     ; 0x201d <next_line+0x8>
    3abf: 8c ed 9f     	sty	$9fed                   ; 0x9fed <__data_load_start+0x2d3>
    3ac2: a4 1e        	ldy	$1e                     ; 0x201e <next_line+0x9>
    3ac4: 8c ee 9f     	sty	$9fee                   ; 0x9fee <__data_load_start+0x2d4>
    3ac7: a4 1f        	ldy	$1f                     ; 0x201f <next_line+0xa>
    3ac9: 8c ef 9f     	sty	$9fef                   ; 0x9fef <__data_load_start+0x2d5>
    3acc: a4 20        	ldy	$20                     ; 0x2020 <next_line+0xb>
    3ace: 8c f0 9f     	sty	$9ff0                   ; 0x9ff0 <__data_load_start+0x2d6>
    3ad1: a4 21        	ldy	$21                     ; 0x2021 <_start>
    3ad3: 8c f1 9f     	sty	$9ff1                   ; 0x9ff1 <__data_load_start+0x2d7>
    3ad6: 8d e4 9f     	sta	$9fe4                   ; 0x9fe4 <__data_load_start+0x2ca>
    3ad9: 86 06        	stx	$6                      ; 0x2006 <__heap_default_limit+0x1006>
    3adb: a6 05        	ldx	$5                      ; 0x2005 <__heap_default_limit+0x1005>
    3add: 8e e1 9f     	stx	$9fe1                   ; 0x9fe1 <__data_load_start+0x2c7>
    3ae0: a0 00        	ldy	#$0
    3ae2: a6 06        	ldx	$6                      ; 0x2006 <__heap_default_limit+0x1006>
    3ae4: 86 07        	stx	$7                      ; 0x2007 <__heap_default_limit+0x1007>
    3ae6: 46 07        	lsr	$7                      ; 0x2007 <__heap_default_limit+0x1007>
    3ae8: 64 08        	stz	$8                      ; 0x2008 <__heap_default_limit+0x1008>
    3aea: 66 08        	ror	$8                      ; 0x2008 <__heap_default_limit+0x1008>
    3aec: 98           	tya
    3aed: 6a           	ror
    3aee: 46 07        	lsr	$7                      ; 0x2007 <__heap_default_limit+0x1007>
    3af0: 66 08        	ror	$8                      ; 0x2008 <__heap_default_limit+0x1008>
    3af2: 6a           	ror
    3af3: 46 07        	lsr	$7                      ; 0x2007 <__heap_default_limit+0x1007>
    3af5: 66 08        	ror	$8                      ; 0x2008 <__heap_default_limit+0x1008>
    3af7: 6a           	ror
    3af8: 38           	sec
    3af9: e9 00        	sbc	#$0
    3afb: 8d e0 9f     	sta	$9fe0                   ; 0x9fe0 <__data_load_start+0x2c6>
    3afe: 8d e5 9f     	sta	$9fe5                   ; 0x9fe5 <__data_load_start+0x2cb>
    3b01: a5 08        	lda	$8                      ; 0x2008 <__heap_default_limit+0x1008>
    3b03: e5 06        	sbc	$6                      ; 0x2006 <__heap_default_limit+0x1006>
    3b05: 85 1a        	sta	$1a                     ; 0x201a <next_line+0x5>
    3b07: 8d e6 9f     	sta	$9fe6                   ; 0x9fe6 <__data_load_start+0x2cc>
    3b0a: a5 07        	lda	$7                      ; 0x2007 <__heap_default_limit+0x1007>
    3b0c: e9 00        	sbc	#$0
    3b0e: 85 18        	sta	$18                     ; 0x2018 <next_line+0x3>
    3b10: 8d e7 9f     	sta	$9fe7                   ; 0x9fe7 <__data_load_start+0x2cd>
    3b13: 98           	tya
    3b14: e9 00        	sbc	#$0
    3b16: a2 08        	ldx	#$8
    3b18: 8e de 9f     	stx	$9fde                   ; 0x9fde <__data_load_start+0x2c4>
    3b1b: 09 08        	ora	#$8
    3b1d: 8d df 9f     	sta	$9fdf                   ; 0x9fdf <__data_load_start+0x2c5>
    3b20: a6 04        	ldx	$4                      ; 0x2004 <__heap_default_limit+0x1004>
    3b22: 8e e8 9f     	stx	$9fe8                   ; 0x9fe8 <__data_load_start+0x2ce>
    3b25: 8e e2 9f     	stx	$9fe2                   ; 0x9fe2 <__data_load_start+0x2c8>
    3b28: 64 17        	stz	$17                     ; 0x2017 <next_line+0x2>
    3b2a: a2 03        	ldx	#$3
    3b2c: 8e e3 9f     	stx	$9fe3                   ; 0x9fe3 <__data_load_start+0x2c9>
    3b2f: 64 1c        	stz	$1c                     ; 0x201c <next_line+0x7>
    3b31: a2 00        	ldx	#$0
    3b33: 64 05        	stz	$5                      ; 0x2005 <__heap_default_limit+0x1005>
    3b35: 64 1f        	stz	$1f                     ; 0x201f <next_line+0xa>
    3b37: 4c f9 3b     	jmp	$3bf9 <deletedirententry+0x157>
    3b3a: a5 05        	lda	$5                      ; 0x2005 <__heap_default_limit+0x1005>
    3b3c: 85 1e        	sta	$1e                     ; 0x201e <next_line+0x9>
    3b3e: c4 05        	cpy	$5                      ; 0x2005 <__heap_default_limit+0x1005>
    3b40: 90 03        	bcc	$3b45 <deletedirententry+0xa3>
    3b42: 4c 14 3c     	jmp	$3c14 <deletedirententry+0x172>
    3b45: 86 04        	stx	$4                      ; 0x2004 <__heap_default_limit+0x1004>
    3b47: 46 04        	lsr	$4                      ; 0x2004 <__heap_default_limit+0x1004>
    3b49: a9 00        	lda	#$0
    3b4b: 6a           	ror
    3b4c: 46 04        	lsr	$4                      ; 0x2004 <__heap_default_limit+0x1004>
    3b4e: 6a           	ror
    3b4f: a6 04        	ldx	$4                      ; 0x2004 <__heap_default_limit+0x1004>
    3b51: 8e e9 9f     	stx	$9fe9                   ; 0x9fe9 <__data_load_start+0x2cf>
    3b54: 46 04        	lsr	$4                      ; 0x2004 <__heap_default_limit+0x1004>
    3b56: a6 04        	ldx	$4                      ; 0x2004 <__heap_default_limit+0x1004>
    3b58: 86 05        	stx	$5                      ; 0x2005 <__heap_default_limit+0x1005>
    3b5a: 6a           	ror
    3b5b: ae e0 9f     	ldx	$9fe0                   ; 0x9fe0 <__data_load_start+0x2c6>
    3b5e: 86 04        	stx	$4                      ; 0x2004 <__heap_default_limit+0x1004>
    3b60: 18           	clc
    3b61: 65 04        	adc	$4                      ; 0x2004 <__heap_default_limit+0x1004>
    3b63: 85 0d        	sta	$d                      ; 0x200d <__heap_default_limit+0x100d>
    3b65: a5 05        	lda	$5                      ; 0x2005 <__heap_default_limit+0x1005>
    3b67: 65 1a        	adc	$1a                     ; 0x201a <next_line+0x5>
    3b69: 85 0c        	sta	$c                      ; 0x200c <__heap_default_limit+0x100c>
    3b6b: a5 18        	lda	$18                     ; 0x2018 <next_line+0x3>
    3b6d: 69 00        	adc	#$0
    3b6f: 85 05        	sta	$5                      ; 0x2005 <__heap_default_limit+0x1005>
    3b71: ad df 9f     	lda	$9fdf                   ; 0x9fdf <__data_load_start+0x2c5>
    3b74: 69 00        	adc	#$0
    3b76: a6 05        	ldx	$5                      ; 0x2005 <__heap_default_limit+0x1005>
    3b78: 86 21        	stx	$21                     ; 0x2021 <_start>
    3b7a: a6 05        	ldx	$5                      ; 0x2005 <__heap_default_limit+0x1005>
    3b7c: 86 04        	stx	$4                      ; 0x2004 <__heap_default_limit+0x1004>
    3b7e: 85 19        	sta	$19                     ; 0x2019 <next_line+0x4>
    3b80: 85 05        	sta	$5                      ; 0x2005 <__heap_default_limit+0x1005>
    3b82: a2 c0        	ldx	#$c0
    3b84: 86 06        	stx	$6                      ; 0x2006 <__heap_default_limit+0x1006>
    3b86: a2 1b        	ldx	#$1b
    3b88: 86 07        	stx	$7                      ; 0x2007 <__heap_default_limit+0x1007>
    3b8a: 64 08        	stz	$8                      ; 0x2008 <__heap_default_limit+0x1008>
    3b8c: 64 09        	stz	$9                      ; 0x2009 <__heap_default_limit+0x1009>
    3b8e: a2 20        	ldx	#$20
    3b90: 86 0a        	stx	$a                      ; 0x200a <__heap_default_limit+0x100a>
    3b92: 64 0b        	stz	$b                      ; 0x200b <__heap_default_limit+0x100b>
    3b94: a6 0c        	ldx	$c                      ; 0x200c <__heap_default_limit+0x100c>
    3b96: 86 20        	stx	$20                     ; 0x2020 <next_line+0xb>
    3b98: a6 0c        	ldx	$c                      ; 0x200c <__heap_default_limit+0x100c>
    3b9a: a4 0d        	ldy	$d                      ; 0x200d <__heap_default_limit+0x100d>
    3b9c: 84 16        	sty	$16                     ; 0x2016 <next_line+0x1>
    3b9e: a5 0d        	lda	$d                      ; 0x200d <__heap_default_limit+0x100d>
    3ba0: 20 a5 89     	jsr	$89a5 <lcopy>
    3ba3: a5 1d        	lda	$1d                     ; 0x201d <next_line+0x8>
    3ba5: f0 10        	beq	$3bb7 <deletedirententry+0x115>
    3ba7: a5 1d        	lda	$1d                     ; 0x201d <next_line+0x8>
    3ba9: 29 07        	and	#$7
    3bab: d0 0a        	bne	$3bb7 <deletedirententry+0x115>
    3bad: a6 17        	ldx	$17                     ; 0x2017 <next_line+0x2>
    3baf: 8e e2 9f     	stx	$9fe2                   ; 0x9fe2 <__data_load_start+0x2c8>
    3bb2: a6 1f        	ldx	$1f                     ; 0x201f <next_line+0xa>
    3bb4: 8e e3 9f     	stx	$9fe3                   ; 0x9fe3 <__data_load_start+0x2c9>
    3bb7: ae c0 1b     	ldx	$1bc0                   ; 0x1bc0 <__heap_default_limit+0xbc0>
    3bba: f0 16        	beq	$3bd2 <deletedirententry+0x130>
    3bbc: 18           	clc
    3bbd: ad de 9f     	lda	$9fde                   ; 0x9fde <__data_load_start+0x2c4>
    3bc0: 69 08        	adc	#$8
    3bc2: 8d de 9f     	sta	$9fde                   ; 0x9fde <__data_load_start+0x2c4>
    3bc5: a5 1e        	lda	$1e                     ; 0x201e <next_line+0x9>
    3bc7: 69 00        	adc	#$0
    3bc9: 85 1e        	sta	$1e                     ; 0x201e <next_line+0x9>
    3bcb: ac c1 1b     	ldy	$1bc1                   ; 0x1bc1 <__heap_default_limit+0xbc1>
    3bce: 84 1f        	sty	$1f                     ; 0x201f <next_line+0xa>
    3bd0: 86 17        	stx	$17                     ; 0x2017 <next_line+0x2>
    3bd2: ae c2 1b     	ldx	$1bc2                   ; 0x1bc2 <__heap_default_limit+0xbc2>
    3bd5: 86 1b        	stx	$1b                     ; 0x201b <next_line+0x6>
    3bd7: d0 06        	bne	$3bdf <deletedirententry+0x13d>
    3bd9: a9 01        	lda	#$1
    3bdb: 25 2f        	and	$2f                     ; 0x202f <__do_init_stack>
    3bdd: f0 11        	beq	$3bf0 <deletedirententry+0x14e>
    3bdf: a6 1c        	ldx	$1c                     ; 0x201c <next_line+0x7>
    3be1: ac e1 9f     	ldy	$9fe1                   ; 0x9fe1 <__data_load_start+0x2c7>
    3be4: 84 04        	sty	$4                      ; 0x2004 <__heap_default_limit+0x1004>
    3be6: e4 04        	cpx	$4                      ; 0x2004 <__heap_default_limit+0x1004>
    3be8: d0 03        	bne	$3bed <deletedirententry+0x14b>
    3bea: 4c 49 3c     	jmp	$3c49 <deletedirententry+0x1a7>
    3bed: e8           	inx
    3bee: 86 1c        	stx	$1c                     ; 0x201c <next_line+0x7>
    3bf0: a6 1d        	ldx	$1d                     ; 0x201d <next_line+0x8>
    3bf2: e8           	inx
    3bf3: a0 00        	ldy	#$0
    3bf5: a5 1e        	lda	$1e                     ; 0x201e <next_line+0x9>
    3bf7: 85 05        	sta	$5                      ; 0x2005 <__heap_default_limit+0x1005>
    3bf9: 86 1d        	stx	$1d                     ; 0x201d <next_line+0x8>
    3bfb: c4 05        	cpy	$5                      ; 0x2005 <__heap_default_limit+0x1005>
    3bfd: f0 03        	beq	$3c02 <deletedirententry+0x160>
    3bff: 4c 3a 3b     	jmp	$3b3a <deletedirententry+0x98>
    3c02: a6 05        	ldx	$5                      ; 0x2005 <__heap_default_limit+0x1005>
    3c04: 86 1e        	stx	$1e                     ; 0x201e <next_line+0x9>
    3c06: ae de 9f     	ldx	$9fde                   ; 0x9fde <__data_load_start+0x2c4>
    3c09: 86 04        	stx	$4                      ; 0x2004 <__heap_default_limit+0x1004>
    3c0b: a6 1d        	ldx	$1d                     ; 0x201d <next_line+0x8>
    3c0d: e4 04        	cpx	$4                      ; 0x2004 <__heap_default_limit+0x1004>
    3c0f: b0 03        	bcs	$3c14 <deletedirententry+0x172>
    3c11: 4c 45 3b     	jmp	$3b45 <deletedirententry+0xa3>
    3c14: ae f1 9f     	ldx	$9ff1                   ; 0x9ff1 <__data_load_start+0x2d7>
    3c17: 86 21        	stx	$21                     ; 0x2021 <_start>
    3c19: ae f0 9f     	ldx	$9ff0                   ; 0x9ff0 <__data_load_start+0x2d6>
    3c1c: 86 20        	stx	$20                     ; 0x2020 <next_line+0xb>
    3c1e: ae ef 9f     	ldx	$9fef                   ; 0x9fef <__data_load_start+0x2d5>
    3c21: 86 1f        	stx	$1f                     ; 0x201f <next_line+0xa>
    3c23: ae ee 9f     	ldx	$9fee                   ; 0x9fee <__data_load_start+0x2d4>
    3c26: 86 1e        	stx	$1e                     ; 0x201e <next_line+0x9>
    3c28: ae ed 9f     	ldx	$9fed                   ; 0x9fed <__data_load_start+0x2d3>
    3c2b: 86 1d        	stx	$1d                     ; 0x201d <next_line+0x8>
    3c2d: ae ec 9f     	ldx	$9fec                   ; 0x9fec <__data_load_start+0x2d2>
    3c30: 86 1c        	stx	$1c                     ; 0x201c <next_line+0x7>
    3c32: ae eb 9f     	ldx	$9feb                   ; 0x9feb <__data_load_start+0x2d1>
    3c35: 86 1b        	stx	$1b                     ; 0x201b <next_line+0x6>
    3c37: ae ea 9f     	ldx	$9fea                   ; 0x9fea <__data_load_start+0x2d0>
    3c3a: 86 1a        	stx	$1a                     ; 0x201a <next_line+0x5>
    3c3c: fa           	plx
    3c3d: 86 19        	stx	$19                     ; 0x2019 <next_line+0x4>
    3c3f: fa           	plx
    3c40: 86 18        	stx	$18                     ; 0x2018 <next_line+0x3>
    3c42: fa           	plx
    3c43: 86 17        	stx	$17                     ; 0x2017 <next_line+0x2>
    3c45: fa           	plx
    3c46: 86 16        	stx	$16                     ; 0x2016 <next_line+0x1>
    3c48: 60           	rts
    3c49: 9c c2 1b     	stz	$1bc2                   ; 0x1bc2 <__heap_default_limit+0xbc2>
    3c4c: a9 c0        	lda	#$c0
    3c4e: a2 1b        	ldx	#$1b
    3c50: a0 20        	ldy	#$20
    3c52: 48           	pha
    3c53: a5 16        	lda	$16                     ; 0x2016 <next_line+0x1>
    3c55: 85 06        	sta	$6                      ; 0x2006 <__heap_default_limit+0x1006>
    3c57: a5 20        	lda	$20                     ; 0x2020 <next_line+0xb>
    3c59: 85 07        	sta	$7                      ; 0x2007 <__heap_default_limit+0x1007>
    3c5b: a5 21        	lda	$21                     ; 0x2021 <_start>
    3c5d: 85 08        	sta	$8                      ; 0x2008 <__heap_default_limit+0x1008>
    3c5f: a5 19        	lda	$19                     ; 0x2019 <next_line+0x4>
    3c61: 85 09        	sta	$9                      ; 0x2009 <__heap_default_limit+0x1009>
    3c63: 68           	pla
    3c64: 84 0a        	sty	$a                      ; 0x200a <__heap_default_limit+0x100a>
    3c66: 64 04        	stz	$4                      ; 0x2004 <__heap_default_limit+0x1004>
    3c68: 64 05        	stz	$5                      ; 0x2005 <__heap_default_limit+0x1005>
    3c6a: 64 0b        	stz	$b                      ; 0x200b <__heap_default_limit+0x100b>
    3c6c: 20 a5 89     	jsr	$89a5 <lcopy>
    3c6f: ad e9 9f     	lda	$9fe9                   ; 0x9fe9 <__data_load_start+0x2cf>
    3c72: 4a           	lsr
    3c73: 85 05        	sta	$5                      ; 0x2005 <__heap_default_limit+0x1005>
    3c75: a9 00        	lda	#$0
    3c77: ae e5 9f     	ldx	$9fe5                   ; 0x9fe5 <__data_load_start+0x2cb>
    3c7a: 86 04        	stx	$4                      ; 0x2004 <__heap_default_limit+0x1004>
    3c7c: 18           	clc
    3c7d: 65 04        	adc	$4                      ; 0x2004 <__heap_default_limit+0x1004>
    3c7f: 85 0c        	sta	$c                      ; 0x200c <__heap_default_limit+0x100c>
    3c81: ae e6 9f     	ldx	$9fe6                   ; 0x9fe6 <__data_load_start+0x2cc>
    3c84: 86 04        	stx	$4                      ; 0x2004 <__heap_default_limit+0x1004>
    3c86: a5 05        	lda	$5                      ; 0x2005 <__heap_default_limit+0x1005>
    3c88: 65 04        	adc	$4                      ; 0x2004 <__heap_default_limit+0x1004>
    3c8a: 85 0d        	sta	$d                      ; 0x200d <__heap_default_limit+0x100d>
    3c8c: a9 00        	lda	#$0
    3c8e: ae e7 9f     	ldx	$9fe7                   ; 0x9fe7 <__data_load_start+0x2cd>
    3c91: 86 04        	stx	$4                      ; 0x2004 <__heap_default_limit+0x1004>
    3c93: 65 04        	adc	$4                      ; 0x2004 <__heap_default_limit+0x1004>
    3c95: 85 05        	sta	$5                      ; 0x2005 <__heap_default_limit+0x1005>
    3c97: ad df 9f     	lda	$9fdf                   ; 0x9fdf <__data_load_start+0x2c5>
    3c9a: 64 04        	stz	$4                      ; 0x2004 <__heap_default_limit+0x1004>
    3c9c: 65 04        	adc	$4                      ; 0x2004 <__heap_default_limit+0x1004>
    3c9e: a2 01        	ldx	#$1
    3ca0: a0 19        	ldy	#$19
    3ca2: 48           	pha
    3ca3: a5 05        	lda	$5                      ; 0x2005 <__heap_default_limit+0x1005>
    3ca5: 85 04        	sta	$4                      ; 0x2004 <__heap_default_limit+0x1004>
    3ca7: 68           	pla
    3ca8: 85 05        	sta	$5                      ; 0x2005 <__heap_default_limit+0x1005>
    3caa: 64 06        	stz	$6                      ; 0x2006 <__heap_default_limit+0x1006>
    3cac: 84 07        	sty	$7                      ; 0x2007 <__heap_default_limit+0x1007>
    3cae: 64 08        	stz	$8                      ; 0x2008 <__heap_default_limit+0x1008>
    3cb0: 64 09        	stz	$9                      ; 0x2009 <__heap_default_limit+0x1009>
    3cb2: 64 0a        	stz	$a                      ; 0x200a <__heap_default_limit+0x100a>
    3cb4: 86 0b        	stx	$b                      ; 0x200b <__heap_default_limit+0x100b>
    3cb6: a6 0d        	ldx	$d                      ; 0x200d <__heap_default_limit+0x100d>
    3cb8: a5 0c        	lda	$c                      ; 0x200c <__heap_default_limit+0x100c>
    3cba: 20 a5 89     	jsr	$89a5 <lcopy>
    3cbd: a2 00        	ldx	#$0
    3cbf: 86 04        	stx	$4                      ; 0x2004 <__heap_default_limit+0x1004>
    3cc1: a2 19        	ldx	#$19
    3cc3: 86 05        	stx	$5                      ; 0x2005 <__heap_default_limit+0x1005>
    3cc5: ae e3 9f     	ldx	$9fe3                   ; 0x9fe3 <__data_load_start+0x2c9>
    3cc8: 86 06        	stx	$6                      ; 0x2006 <__heap_default_limit+0x1006>
    3cca: ae e2 9f     	ldx	$9fe2                   ; 0x9fe2 <__data_load_start+0x2c8>
    3ccd: ad e4 9f     	lda	$9fe4                   ; 0x9fe4 <__data_load_start+0x2ca>
    3cd0: 20 fd 25     	jsr	$25fd <PutOneSector>
    3cd3: a2 ff        	ldx	#$ff
    3cd5: 8e 03 16     	stx	$1603                   ; 0x1603 <__heap_default_limit+0x603>
    3cd8: 8e 04 16     	stx	$1604                   ; 0x1604 <__heap_default_limit+0x604>
    3cdb: a5 1b        	lda	$1b                     ; 0x201b <next_line+0x6>
    3cdd: 29 0f        	and	#$f
    3cdf: c9 05        	cmp	#$5
    3ce1: d0 07        	bne	$3cea <deletedirententry+0x248>
    3ce3: 64 06        	stz	$6                      ; 0x2006 <__heap_default_limit+0x1006>
    3ce5: a2 00        	ldx	#$0
    3ce7: 4c 6e 3d     	jmp	$3d6e <deletedirententry+0x2cc>
    3cea: ae c3 1b     	ldx	$1bc3                   ; 0x1bc3 <__heap_default_limit+0xbc3>
    3ced: ac c4 1b     	ldy	$1bc4                   ; 0x1bc4 <__heap_default_limit+0xbc4>
    3cf0: 86 04        	stx	$4                      ; 0x2004 <__heap_default_limit+0x1004>
    3cf2: 84 05        	sty	$5                      ; 0x2005 <__heap_default_limit+0x1005>
    3cf4: ae e8 9f     	ldx	$9fe8                   ; 0x9fe8 <__data_load_start+0x2ce>
    3cf7: ad e4 9f     	lda	$9fe4                   ; 0x9fe4 <__data_load_start+0x2ca>
    3cfa: 20 0b 34     	jsr	$340b <deleteblockchain>
    3cfd: 4c 14 3c     	jmp	$3c14 <deletedirententry+0x172>
    3d00: e4 04        	cpx	$4                      ; 0x2004 <__heap_default_limit+0x1004>
    3d02: a5 05        	lda	$5                      ; 0x2005 <__heap_default_limit+0x1005>
    3d04: 90 03        	bcc	$3d09 <deletedirententry+0x267>
    3d06: 4c 92 3d     	jmp	$3d92 <deletedirententry+0x2f0>
    3d09: 86 18        	stx	$18                     ; 0x2018 <next_line+0x3>
    3d0b: a2 28        	ldx	#$28
    3d0d: 86 04        	stx	$4                      ; 0x2004 <__heap_default_limit+0x1004>
    3d0f: 64 05        	stz	$5                      ; 0x2005 <__heap_default_limit+0x1005>
    3d11: a6 18        	ldx	$18                     ; 0x2018 <next_line+0x3>
    3d13: a5 06        	lda	$6                      ; 0x2006 <__heap_default_limit+0x1006>
    3d15: 85 17        	sta	$17                     ; 0x2017 <next_line+0x2>
    3d17: 20 60 8c     	jsr	$8c60 <__udivhi3>
    3d1a: 85 19        	sta	$19                     ; 0x2019 <next_line+0x4>
    3d1c: 0a           	asl
    3d1d: 0a           	asl
    3d1e: 0a           	asl
    3d1f: 85 04        	sta	$4                      ; 0x2004 <__heap_default_limit+0x1004>
    3d21: 0a           	asl
    3d22: 0a           	asl
    3d23: 18           	clc
    3d24: 65 04        	adc	$4                      ; 0x2004 <__heap_default_limit+0x1004>
    3d26: 85 16        	sta	$16                     ; 0x2016 <next_line+0x1>
    3d28: 18           	clc
    3d29: a5 19        	lda	$19                     ; 0x2019 <next_line+0x4>
    3d2b: 6d c3 1b     	adc	$1bc3                   ; 0x1bc3 <__heap_default_limit+0xbc3>
    3d2e: a8           	tay
    3d2f: a5 17        	lda	$17                     ; 0x2017 <next_line+0x2>
    3d31: 18           	clc
    3d32: 6d c4 1b     	adc	$1bc4                   ; 0x1bc4 <__heap_default_limit+0xbc4>
    3d35: 38           	sec
    3d36: e5 16        	sbc	$16                     ; 0x2016 <next_line+0x1>
    3d38: a2 00        	ldx	#$0
    3d3a: 86 04        	stx	$4                      ; 0x2004 <__heap_default_limit+0x1004>
    3d3c: a2 17        	ldx	#$17
    3d3e: 86 05        	stx	$5                      ; 0x2005 <__heap_default_limit+0x1005>
    3d40: a2 00        	ldx	#$0
    3d42: 86 06        	stx	$6                      ; 0x2006 <__heap_default_limit+0x1006>
    3d44: a2 18        	ldx	#$18
    3d46: 86 07        	stx	$7                      ; 0x2007 <__heap_default_limit+0x1007>
    3d48: 64 08        	stz	$8                      ; 0x2008 <__heap_default_limit+0x1008>
    3d4a: aa           	tax
    3d4b: 98           	tya
    3d4c: 20 df 27     	jsr	$27df <BAMSectorUpdate>
    3d4f: a4 17        	ldy	$17                     ; 0x2017 <next_line+0x2>
    3d51: 18           	clc
    3d52: a5 19        	lda	$19                     ; 0x2019 <next_line+0x4>
    3d54: 6d c3 1b     	adc	$1bc3                   ; 0x1bc3 <__heap_default_limit+0xbc3>
    3d57: 8d 03 16     	sta	$1603                   ; 0x1603 <__heap_default_limit+0x603>
    3d5a: a5 17        	lda	$17                     ; 0x2017 <next_line+0x2>
    3d5c: 18           	clc
    3d5d: 6d c4 1b     	adc	$1bc4                   ; 0x1bc4 <__heap_default_limit+0xbc4>
    3d60: 38           	sec
    3d61: e5 16        	sbc	$16                     ; 0x2016 <next_line+0x1>
    3d63: 8d 04 16     	sta	$1604                   ; 0x1604 <__heap_default_limit+0x604>
    3d66: a6 18        	ldx	$18                     ; 0x2018 <next_line+0x3>
    3d68: c8           	iny
    3d69: d0 01        	bne	$3d6c <deletedirententry+0x2ca>
    3d6b: e8           	inx
    3d6c: 84 06        	sty	$6                      ; 0x2006 <__heap_default_limit+0x1006>
    3d6e: ad de 1b     	lda	$1bde                   ; 0x1bde <__heap_default_limit+0xbde>
    3d71: ac df 1b     	ldy	$1bdf                   ; 0x1bdf <__heap_default_limit+0xbdf>
    3d74: 18           	clc
    3d75: 69 28        	adc	#$28
    3d77: 85 05        	sta	$5                      ; 0x2005 <__heap_default_limit+0x1005>
    3d79: 98           	tya
    3d7a: 69 00        	adc	#$0
    3d7c: 85 04        	sta	$4                      ; 0x2004 <__heap_default_limit+0x1004>
    3d7e: e4 04        	cpx	$4                      ; 0x2004 <__heap_default_limit+0x1004>
    3d80: f0 03        	beq	$3d85 <deletedirententry+0x2e3>
    3d82: 4c 00 3d     	jmp	$3d00 <deletedirententry+0x25e>
    3d85: a5 05        	lda	$5                      ; 0x2005 <__heap_default_limit+0x1005>
    3d87: 85 04        	sta	$4                      ; 0x2004 <__heap_default_limit+0x1004>
    3d89: a4 06        	ldy	$6                      ; 0x2006 <__heap_default_limit+0x1006>
    3d8b: c4 04        	cpy	$4                      ; 0x2004 <__heap_default_limit+0x1004>
    3d8d: b0 03        	bcs	$3d92 <deletedirententry+0x2f0>
    3d8f: 4c 09 3d     	jmp	$3d09 <deletedirententry+0x267>
    3d92: 8d 05 16     	sta	$1605                   ; 0x1605 <__heap_default_limit+0x605>
    3d95: ad de 1b     	lda	$1bde                   ; 0x1bde <__heap_default_limit+0xbde>
    3d98: ae df 1b     	ldx	$1bdf                   ; 0x1bdf <__heap_default_limit+0xbdf>
    3d9b: 18           	clc
    3d9c: 69 28        	adc	#$28
    3d9e: 8a           	txa
    3d9f: 69 00        	adc	#$0
    3da1: 8d 06 16     	sta	$1606                   ; 0x1606 <__heap_default_limit+0x606>
    3da4: 4c 14 3c     	jmp	$3c14 <deletedirententry+0x172>

00003da7 <swapdirententry>:
    3da7: 85 07        	sta	$7                      ; 0x2007 <__heap_default_limit+0x1007>
    3da9: 86 48        	stx	$48                     ; 0x2048 <__after_main>
    3dab: a6 04        	ldx	$4                      ; 0x2004 <__heap_default_limit+0x1004>
    3dad: 86 49        	stx	$49                     ; 0x2049 <__after_main+0x1>
    3daf: a6 05        	ldx	$5                      ; 0x2005 <__heap_default_limit+0x1005>
    3db1: 86 5b        	stx	$5b                     ; 0x205b <lpstore+0x1>
    3db3: a6 06        	ldx	$6                      ; 0x2006 <__heap_default_limit+0x1006>
    3db5: 86 5a        	stx	$5a                     ; 0x205a <lpstore>
    3db7: 85 04        	sta	$4                      ; 0x2004 <__heap_default_limit+0x1004>
    3db9: 46 04        	lsr	$4                      ; 0x2004 <__heap_default_limit+0x1004>
    3dbb: 64 05        	stz	$5                      ; 0x2005 <__heap_default_limit+0x1005>
    3dbd: 66 05        	ror	$5                      ; 0x2005 <__heap_default_limit+0x1005>
    3dbf: a9 00        	lda	#$0
    3dc1: 6a           	ror
    3dc2: 46 04        	lsr	$4                      ; 0x2004 <__heap_default_limit+0x1004>
    3dc4: 66 05        	ror	$5                      ; 0x2005 <__heap_default_limit+0x1005>
    3dc6: 6a           	ror
    3dc7: 46 04        	lsr	$4                      ; 0x2004 <__heap_default_limit+0x1004>
    3dc9: 66 05        	ror	$5                      ; 0x2005 <__heap_default_limit+0x1005>
    3dcb: 6a           	ror
    3dcc: 38           	sec
    3dcd: e9 00        	sbc	#$0
    3dcf: 85 55        	sta	$55                     ; 0x2055 <_fini+0xa>
    3dd1: a5 05        	lda	$5                      ; 0x2005 <__heap_default_limit+0x1005>
    3dd3: e5 07        	sbc	$7                      ; 0x2007 <__heap_default_limit+0x1007>
    3dd5: 85 57        	sta	$57                     ; 0x2057 <fourbytes+0x1>
    3dd7: a5 04        	lda	$4                      ; 0x2004 <__heap_default_limit+0x1004>
    3dd9: e9 00        	sbc	#$0
    3ddb: 85 56        	sta	$56                     ; 0x2056 <fourbytes>
    3ddd: a9 00        	lda	#$0
    3ddf: e9 00        	sbc	#$0
    3de1: a2 08        	ldx	#$8
    3de3: 86 54        	stx	$54                     ; 0x2054 <_fini+0x9>
    3de5: 09 08        	ora	#$8
    3de7: 85 58        	sta	$58                     ; 0x2058 <fourbytes+0x2>
    3de9: 64 4a        	stz	$4a                     ; 0x204a <__after_main+0x2>
    3deb: a9 00        	lda	#$0
    3ded: 64 4b        	stz	$4b                     ; 0x204b <_fini>
    3def: 64 4c        	stz	$4c                     ; 0x204c <_fini+0x1>
    3df1: aa           	tax
    3df2: 86 59        	stx	$59                     ; 0x2059 <fourbytes+0x3>
    3df4: a8           	tay
    3df5: 86 04        	stx	$4                      ; 0x2004 <__heap_default_limit+0x1004>
    3df7: c4 04        	cpy	$4                      ; 0x2004 <__heap_default_limit+0x1004>
    3df9: d0 0f        	bne	$3e0a <swapdirententry+0x63>
    3dfb: 86 51        	stx	$51                     ; 0x2051 <_fini+0x6>
    3dfd: a6 54        	ldx	$54                     ; 0x2054 <_fini+0x9>
    3dff: 86 04        	stx	$4                      ; 0x2004 <__heap_default_limit+0x1004>
    3e01: a6 59        	ldx	$59                     ; 0x2059 <fourbytes+0x3>
    3e03: e4 04        	cpx	$4                      ; 0x2004 <__heap_default_limit+0x1004>
    3e05: 90 0e        	bcc	$3e15 <swapdirententry+0x6e>
    3e07: 4c a6 3e     	jmp	$3ea6 <swapdirententry+0xff>
    3e0a: 86 51        	stx	$51                     ; 0x2051 <_fini+0x6>
    3e0c: 86 04        	stx	$4                      ; 0x2004 <__heap_default_limit+0x1004>
    3e0e: c4 04        	cpy	$4                      ; 0x2004 <__heap_default_limit+0x1004>
    3e10: 90 03        	bcc	$3e15 <swapdirententry+0x6e>
    3e12: 4c a6 3e     	jmp	$3ea6 <swapdirententry+0xff>
    3e15: 84 50        	sty	$50                     ; 0x2050 <_fini+0x5>
    3e17: a6 55        	ldx	$55                     ; 0x2055 <_fini+0xa>
    3e19: 86 05        	stx	$5                      ; 0x2005 <__heap_default_limit+0x1005>
    3e1b: aa           	tax
    3e1c: a5 05        	lda	$5                      ; 0x2005 <__heap_default_limit+0x1005>
    3e1e: 18           	clc
    3e1f: 65 4a        	adc	$4a                     ; 0x204a <__after_main+0x2>
    3e21: a8           	tay
    3e22: 86 4d        	stx	$4d                     ; 0x204d <_fini+0x2>
    3e24: 86 04        	stx	$4                      ; 0x2004 <__heap_default_limit+0x1004>
    3e26: a6 57        	ldx	$57                     ; 0x2057 <fourbytes+0x1>
    3e28: 8a           	txa
    3e29: 65 04        	adc	$4                      ; 0x2004 <__heap_default_limit+0x1004>
    3e2b: 85 0c        	sta	$c                      ; 0x200c <__heap_default_limit+0x100c>
    3e2d: a6 56        	ldx	$56                     ; 0x2056 <fourbytes>
    3e2f: 8a           	txa
    3e30: 69 00        	adc	#$0
    3e32: 85 04        	sta	$4                      ; 0x2004 <__heap_default_limit+0x1004>
    3e34: a5 58        	lda	$58                     ; 0x2058 <fourbytes+0x2>
    3e36: 69 00        	adc	#$0
    3e38: 85 05        	sta	$5                      ; 0x2005 <__heap_default_limit+0x1005>
    3e3a: a2 c0        	ldx	#$c0
    3e3c: 86 06        	stx	$6                      ; 0x2006 <__heap_default_limit+0x1006>
    3e3e: a2 1b        	ldx	#$1b
    3e40: 86 07        	stx	$7                      ; 0x2007 <__heap_default_limit+0x1007>
    3e42: 64 08        	stz	$8                      ; 0x2008 <__heap_default_limit+0x1008>
    3e44: 64 09        	stz	$9                      ; 0x2009 <__heap_default_limit+0x1009>
    3e46: a2 20        	ldx	#$20
    3e48: 86 0a        	stx	$a                      ; 0x200a <__heap_default_limit+0x100a>
    3e4a: 64 0b        	stz	$b                      ; 0x200b <__heap_default_limit+0x100b>
    3e4c: a6 0c        	ldx	$c                      ; 0x200c <__heap_default_limit+0x100c>
    3e4e: 98           	tya
    3e4f: 20 a5 89     	jsr	$89a5 <lcopy>
    3e52: ae c0 1b     	ldx	$1bc0                   ; 0x1bc0 <__heap_default_limit+0xbc0>
    3e55: f0 0d        	beq	$3e64 <swapdirententry+0xbd>
    3e57: 18           	clc
    3e58: a5 54        	lda	$54                     ; 0x2054 <_fini+0x9>
    3e5a: 69 08        	adc	#$8
    3e5c: 85 54        	sta	$54                     ; 0x2054 <_fini+0x9>
    3e5e: a5 51        	lda	$51                     ; 0x2051 <_fini+0x6>
    3e60: 69 00        	adc	#$0
    3e62: 85 51        	sta	$51                     ; 0x2051 <_fini+0x6>
    3e64: ae c2 1b     	ldx	$1bc2                   ; 0x1bc2 <__heap_default_limit+0xbc2>
    3e67: d0 09        	bne	$3e72 <swapdirententry+0xcb>
    3e69: a9 01        	lda	#$1
    3e6b: 25 2f        	and	$2f                     ; 0x202f <__do_init_stack>
    3e6d: d0 03        	bne	$3e72 <swapdirententry+0xcb>
    3e6f: 4c 02 40     	jmp	$4002 <swapdirententry+0x25b>
    3e72: a5 4c        	lda	$4c                     ; 0x204c <_fini+0x1>
    3e74: c5 49        	cmp	$49                     ; 0x2049 <__after_main+0x1>
    3e76: d0 08        	bne	$3e80 <swapdirententry+0xd9>
    3e78: a6 4b        	ldx	$4b                     ; 0x204b <_fini>
    3e7a: e4 48        	cpx	$48                     ; 0x2048 <__after_main>
    3e7c: f0 26        	beq	$3ea4 <swapdirententry+0xfd>
    3e7e: 80 02        	bra	$3e82 <swapdirententry+0xdb>
    3e80: a6 4b        	ldx	$4b                     ; 0x204b <_fini>
    3e82: a4 50        	ldy	$50                     ; 0x2050 <_fini+0x5>
    3e84: e8           	inx
    3e85: d0 01        	bne	$3e88 <swapdirententry+0xe1>
    3e87: 1a           	inc
    3e88: 86 4b        	stx	$4b                     ; 0x204b <_fini>
    3e8a: 85 4c        	sta	$4c                     ; 0x204c <_fini+0x1>
    3e8c: a6 59        	ldx	$59                     ; 0x2059 <fourbytes+0x3>
    3e8e: e8           	inx
    3e8f: d0 01        	bne	$3e92 <swapdirententry+0xeb>
    3e91: c8           	iny
    3e92: 86 59        	stx	$59                     ; 0x2059 <fourbytes+0x3>
    3e94: 18           	clc
    3e95: a5 4a        	lda	$4a                     ; 0x204a <__after_main+0x2>
    3e97: 69 20        	adc	#$20
    3e99: 85 4a        	sta	$4a                     ; 0x204a <__after_main+0x2>
    3e9b: a5 4d        	lda	$4d                     ; 0x204d <_fini+0x2>
    3e9d: 69 00        	adc	#$0
    3e9f: a6 51        	ldx	$51                     ; 0x2051 <_fini+0x6>
    3ea1: 4c f5 3d     	jmp	$3df5 <swapdirententry+0x4e>
    3ea4: a4 50        	ldy	$50                     ; 0x2050 <_fini+0x5>
    3ea6: 84 4e        	sty	$4e                     ; 0x204e <_fini+0x3>
    3ea8: a9 00        	lda	#$0
    3eaa: 64 06        	stz	$6                      ; 0x2006 <__heap_default_limit+0x1006>
    3eac: 64 4f        	stz	$4f                     ; 0x204f <_fini+0x4>
    3eae: 64 4a        	stz	$4a                     ; 0x204a <__after_main+0x2>
    3eb0: 64 48        	stz	$48                     ; 0x2048 <__after_main>
    3eb2: a8           	tay
    3eb3: 85 4c        	sta	$4c                     ; 0x204c <_fini+0x1>
    3eb5: 85 04        	sta	$4                      ; 0x2004 <__heap_default_limit+0x1004>
    3eb7: a5 55        	lda	$55                     ; 0x2055 <_fini+0xa>
    3eb9: 18           	clc
    3eba: 65 04        	adc	$4                      ; 0x2004 <__heap_default_limit+0x1004>
    3ebc: 85 49        	sta	$49                     ; 0x2049 <__after_main+0x1>
    3ebe: a6 06        	ldx	$6                      ; 0x2006 <__heap_default_limit+0x1006>
    3ec0: 86 4d        	stx	$4d                     ; 0x204d <_fini+0x2>
    3ec2: 86 04        	stx	$4                      ; 0x2004 <__heap_default_limit+0x1004>
    3ec4: a5 57        	lda	$57                     ; 0x2057 <fourbytes+0x1>
    3ec6: 65 04        	adc	$4                      ; 0x2004 <__heap_default_limit+0x1004>
    3ec8: 85 50        	sta	$50                     ; 0x2050 <_fini+0x5>
    3eca: a5 56        	lda	$56                     ; 0x2056 <fourbytes>
    3ecc: 69 00        	adc	#$0
    3ece: 85 52        	sta	$52                     ; 0x2052 <_fini+0x7>
    3ed0: a5 58        	lda	$58                     ; 0x2058 <fourbytes+0x2>
    3ed2: 69 00        	adc	#$0
    3ed4: 85 53        	sta	$53                     ; 0x2053 <_fini+0x8>
    3ed6: a6 51        	ldx	$51                     ; 0x2051 <_fini+0x6>
    3ed8: 86 04        	stx	$4                      ; 0x2004 <__heap_default_limit+0x1004>
    3eda: c4 04        	cpy	$4                      ; 0x2004 <__heap_default_limit+0x1004>
    3edc: d0 0d        	bne	$3eeb <swapdirententry+0x144>
    3ede: a6 54        	ldx	$54                     ; 0x2054 <_fini+0x9>
    3ee0: 86 04        	stx	$4                      ; 0x2004 <__heap_default_limit+0x1004>
    3ee2: a6 48        	ldx	$48                     ; 0x2048 <__after_main>
    3ee4: e4 04        	cpx	$4                      ; 0x2004 <__heap_default_limit+0x1004>
    3ee6: 90 0c        	bcc	$3ef4 <swapdirententry+0x14d>
    3ee8: 4c 65 3f     	jmp	$3f65 <swapdirententry+0x1be>
    3eeb: 86 04        	stx	$4                      ; 0x2004 <__heap_default_limit+0x1004>
    3eed: c4 04        	cpy	$4                      ; 0x2004 <__heap_default_limit+0x1004>
    3eef: 90 03        	bcc	$3ef4 <swapdirententry+0x14d>
    3ef1: 4c 65 3f     	jmp	$3f65 <swapdirententry+0x1be>
    3ef4: 84 4b        	sty	$4b                     ; 0x204b <_fini>
    3ef6: a6 52        	ldx	$52                     ; 0x2052 <_fini+0x7>
    3ef8: 86 04        	stx	$4                      ; 0x2004 <__heap_default_limit+0x1004>
    3efa: 85 05        	sta	$5                      ; 0x2005 <__heap_default_limit+0x1005>
    3efc: a2 c0        	ldx	#$c0
    3efe: 86 06        	stx	$6                      ; 0x2006 <__heap_default_limit+0x1006>
    3f00: a2 1b        	ldx	#$1b
    3f02: 86 07        	stx	$7                      ; 0x2007 <__heap_default_limit+0x1007>
    3f04: 64 08        	stz	$8                      ; 0x2008 <__heap_default_limit+0x1008>
    3f06: 64 09        	stz	$9                      ; 0x2009 <__heap_default_limit+0x1009>
    3f08: a2 20        	ldx	#$20
    3f0a: 86 0a        	stx	$a                      ; 0x200a <__heap_default_limit+0x100a>
    3f0c: 64 0b        	stz	$b                      ; 0x200b <__heap_default_limit+0x100b>
    3f0e: a6 50        	ldx	$50                     ; 0x2050 <_fini+0x5>
    3f10: a5 49        	lda	$49                     ; 0x2049 <__after_main+0x1>
    3f12: 20 a5 89     	jsr	$89a5 <lcopy>
    3f15: ae c0 1b     	ldx	$1bc0                   ; 0x1bc0 <__heap_default_limit+0xbc0>
    3f18: f0 0d        	beq	$3f27 <swapdirententry+0x180>
    3f1a: 18           	clc
    3f1b: a5 54        	lda	$54                     ; 0x2054 <_fini+0x9>
    3f1d: 69 08        	adc	#$8
    3f1f: 85 54        	sta	$54                     ; 0x2054 <_fini+0x9>
    3f21: a5 51        	lda	$51                     ; 0x2051 <_fini+0x6>
    3f23: 69 00        	adc	#$0
    3f25: 85 51        	sta	$51                     ; 0x2051 <_fini+0x6>
    3f27: ae c2 1b     	ldx	$1bc2                   ; 0x1bc2 <__heap_default_limit+0xbc2>
    3f2a: d0 06        	bne	$3f32 <swapdirententry+0x18b>
    3f2c: a9 01        	lda	#$1
    3f2e: 25 2f        	and	$2f                     ; 0x202f <__do_init_stack>
    3f30: f0 1a        	beq	$3f4c <swapdirententry+0x1a5>
    3f32: a6 5a        	ldx	$5a                     ; 0x205a <lpstore>
    3f34: 86 04        	stx	$4                      ; 0x2004 <__heap_default_limit+0x1004>
    3f36: a6 4a        	ldx	$4a                     ; 0x204a <__after_main+0x2>
    3f38: e4 04        	cpx	$4                      ; 0x2004 <__heap_default_limit+0x1004>
    3f3a: d0 0a        	bne	$3f46 <swapdirententry+0x19f>
    3f3c: a6 5b        	ldx	$5b                     ; 0x205b <lpstore+0x1>
    3f3e: 86 04        	stx	$4                      ; 0x2004 <__heap_default_limit+0x1004>
    3f40: a6 4f        	ldx	$4f                     ; 0x204f <_fini+0x4>
    3f42: e4 04        	cpx	$4                      ; 0x2004 <__heap_default_limit+0x1004>
    3f44: f0 1f        	beq	$3f65 <swapdirententry+0x1be>
    3f46: e6 4f        	inc	$4f                     ; 0x204f <_fini+0x4>
    3f48: d0 02        	bne	$3f4c <swapdirententry+0x1a5>
    3f4a: e6 4a        	inc	$4a                     ; 0x204a <__after_main+0x2>
    3f4c: a4 4b        	ldy	$4b                     ; 0x204b <_fini>
    3f4e: e6 48        	inc	$48                     ; 0x2048 <__after_main>
    3f50: d0 01        	bne	$3f53 <swapdirententry+0x1ac>
    3f52: c8           	iny
    3f53: 18           	clc
    3f54: a5 4c        	lda	$4c                     ; 0x204c <_fini+0x1>
    3f56: 69 20        	adc	#$20
    3f58: 85 04        	sta	$4                      ; 0x2004 <__heap_default_limit+0x1004>
    3f5a: a5 4d        	lda	$4d                     ; 0x204d <_fini+0x2>
    3f5c: 69 00        	adc	#$0
    3f5e: 85 06        	sta	$6                      ; 0x2006 <__heap_default_limit+0x1006>
    3f60: a5 04        	lda	$4                      ; 0x2004 <__heap_default_limit+0x1004>
    3f62: 4c b3 3e     	jmp	$3eb3 <swapdirententry+0x10c>
    3f65: 46 4e        	lsr	$4e                     ; 0x204e <_fini+0x3>
    3f67: a6 59        	ldx	$59                     ; 0x2059 <fourbytes+0x3>
    3f69: 86 04        	stx	$4                      ; 0x2004 <__heap_default_limit+0x1004>
    3f6b: 66 04        	ror	$4                      ; 0x2004 <__heap_default_limit+0x1004>
    3f6d: a9 00        	lda	#$0
    3f6f: 6a           	ror
    3f70: 46 4e        	lsr	$4e                     ; 0x204e <_fini+0x3>
    3f72: 66 04        	ror	$4                      ; 0x2004 <__heap_default_limit+0x1004>
    3f74: 6a           	ror
    3f75: 46 4e        	lsr	$4e                     ; 0x204e <_fini+0x3>
    3f77: 66 04        	ror	$4                      ; 0x2004 <__heap_default_limit+0x1004>
    3f79: 6a           	ror
    3f7a: 85 05        	sta	$5                      ; 0x2005 <__heap_default_limit+0x1005>
    3f7c: a6 55        	ldx	$55                     ; 0x2055 <_fini+0xa>
    3f7e: 8a           	txa
    3f7f: 18           	clc
    3f80: 65 05        	adc	$5                      ; 0x2005 <__heap_default_limit+0x1005>
    3f82: 85 48        	sta	$48                     ; 0x2048 <__after_main>
    3f84: a6 57        	ldx	$57                     ; 0x2057 <fourbytes+0x1>
    3f86: 8a           	txa
    3f87: 65 04        	adc	$4                      ; 0x2004 <__heap_default_limit+0x1004>
    3f89: 85 4b        	sta	$4b                     ; 0x204b <_fini>
    3f8b: a6 56        	ldx	$56                     ; 0x2056 <fourbytes>
    3f8d: 8a           	txa
    3f8e: 69 00        	adc	#$0
    3f90: 85 4a        	sta	$4a                     ; 0x204a <__after_main+0x2>
    3f92: a6 58        	ldx	$58                     ; 0x2058 <fourbytes+0x2>
    3f94: 8a           	txa
    3f95: 69 00        	adc	#$0
    3f97: 85 4d        	sta	$4d                     ; 0x204d <_fini+0x2>
    3f99: a2 e0        	ldx	#$e0
    3f9b: a0 1b        	ldy	#$1b
    3f9d: a9 20        	lda	#$20
    3f9f: 5a           	phy
    3fa0: a4 4a        	ldy	$4a                     ; 0x204a <__after_main+0x2>
    3fa2: 84 04        	sty	$4                      ; 0x2004 <__heap_default_limit+0x1004>
    3fa4: a4 4d        	ldy	$4d                     ; 0x204d <_fini+0x2>
    3fa6: 84 05        	sty	$5                      ; 0x2005 <__heap_default_limit+0x1005>
    3fa8: 7a           	ply
    3fa9: 86 06        	stx	$6                      ; 0x2006 <__heap_default_limit+0x1006>
    3fab: 84 07        	sty	$7                      ; 0x2007 <__heap_default_limit+0x1007>
    3fad: 64 08        	stz	$8                      ; 0x2008 <__heap_default_limit+0x1008>
    3faf: 64 09        	stz	$9                      ; 0x2009 <__heap_default_limit+0x1009>
    3fb1: 85 0a        	sta	$a                      ; 0x200a <__heap_default_limit+0x100a>
    3fb3: 64 0b        	stz	$b                      ; 0x200b <__heap_default_limit+0x100b>
    3fb5: a6 4b        	ldx	$4b                     ; 0x204b <_fini>
    3fb7: a5 48        	lda	$48                     ; 0x2048 <__after_main>
    3fb9: 20 a5 89     	jsr	$89a5 <lcopy>
    3fbc: a6 48        	ldx	$48                     ; 0x2048 <__after_main>
    3fbe: 86 06        	stx	$6                      ; 0x2006 <__heap_default_limit+0x1006>
    3fc0: a6 4b        	ldx	$4b                     ; 0x204b <_fini>
    3fc2: 86 07        	stx	$7                      ; 0x2007 <__heap_default_limit+0x1007>
    3fc4: a6 52        	ldx	$52                     ; 0x2052 <_fini+0x7>
    3fc6: 86 04        	stx	$4                      ; 0x2004 <__heap_default_limit+0x1004>
    3fc8: a6 53        	ldx	$53                     ; 0x2053 <_fini+0x8>
    3fca: 86 05        	stx	$5                      ; 0x2005 <__heap_default_limit+0x1005>
    3fcc: a6 4a        	ldx	$4a                     ; 0x204a <__after_main+0x2>
    3fce: 86 08        	stx	$8                      ; 0x2008 <__heap_default_limit+0x1008>
    3fd0: a6 4d        	ldx	$4d                     ; 0x204d <_fini+0x2>
    3fd2: 86 09        	stx	$9                      ; 0x2009 <__heap_default_limit+0x1009>
    3fd4: a2 20        	ldx	#$20
    3fd6: 86 0a        	stx	$a                      ; 0x200a <__heap_default_limit+0x100a>
    3fd8: 64 0b        	stz	$b                      ; 0x200b <__heap_default_limit+0x100b>
    3fda: a6 50        	ldx	$50                     ; 0x2050 <_fini+0x5>
    3fdc: a5 49        	lda	$49                     ; 0x2049 <__after_main+0x1>
    3fde: 20 a5 89     	jsr	$89a5 <lcopy>
    3fe1: a6 49        	ldx	$49                     ; 0x2049 <__after_main+0x1>
    3fe3: 86 06        	stx	$6                      ; 0x2006 <__heap_default_limit+0x1006>
    3fe5: a6 50        	ldx	$50                     ; 0x2050 <_fini+0x5>
    3fe7: 86 07        	stx	$7                      ; 0x2007 <__heap_default_limit+0x1007>
    3fe9: a6 52        	ldx	$52                     ; 0x2052 <_fini+0x7>
    3feb: 86 08        	stx	$8                      ; 0x2008 <__heap_default_limit+0x1008>
    3fed: a6 53        	ldx	$53                     ; 0x2053 <_fini+0x8>
    3fef: 86 09        	stx	$9                      ; 0x2009 <__heap_default_limit+0x1009>
    3ff1: a2 20        	ldx	#$20
    3ff3: 86 0a        	stx	$a                      ; 0x200a <__heap_default_limit+0x100a>
    3ff5: 64 04        	stz	$4                      ; 0x2004 <__heap_default_limit+0x1004>
    3ff7: 64 05        	stz	$5                      ; 0x2005 <__heap_default_limit+0x1005>
    3ff9: 64 0b        	stz	$b                      ; 0x200b <__heap_default_limit+0x100b>
    3ffb: a2 1b        	ldx	#$1b
    3ffd: a9 e0        	lda	#$e0
    3fff: 4c a5 89     	jmp	$89a5 <lcopy>
    4002: a4 50        	ldy	$50                     ; 0x2050 <_fini+0x5>
    4004: 4c 8c 3e     	jmp	$3e8c <swapdirententry+0xe5>

00004007 <rewritedirent>:
    4007: 8e e0 9f     	stx	$9fe0                   ; 0x9fe0 <__data_load_start+0x2c6>
    400a: a6 05        	ldx	$5                      ; 0x2005 <__heap_default_limit+0x1005>
    400c: 8e e2 9f     	stx	$9fe2                   ; 0x9fe2 <__data_load_start+0x2c8>
    400f: a6 06        	ldx	$6                      ; 0x2006 <__heap_default_limit+0x1006>
    4011: 8e e3 9f     	stx	$9fe3                   ; 0x9fe3 <__data_load_start+0x2c9>
    4014: a2 03        	ldx	#$3
    4016: 86 05        	stx	$5                      ; 0x2005 <__heap_default_limit+0x1005>
    4018: a6 04        	ldx	$4                      ; 0x2004 <__heap_default_limit+0x1004>
    401a: 8e e1 9f     	stx	$9fe1                   ; 0x9fe1 <__data_load_start+0x2c7>
    401d: 85 48        	sta	$48                     ; 0x2048 <__after_main>
    401f: 20 0b 34     	jsr	$340b <deleteblockchain>
    4022: aa           	tax
    4023: f0 25        	beq	$404a <rewritedirent+0x43>
    4025: a9 04        	lda	#$4
    4027: a2 4c        	ldx	#$4c
    4029: 86 04        	stx	$4                      ; 0x2004 <__heap_default_limit+0x1004>
    402b: a2 91        	ldx	#$91
    402d: 86 05        	stx	$5                      ; 0x2005 <__heap_default_limit+0x1005>
    402f: a2 87        	ldx	#$87
    4031: 86 06        	stx	$6                      ; 0x2006 <__heap_default_limit+0x1006>
    4033: a2 9b        	ldx	#$9b
    4035: 86 07        	stx	$7                      ; 0x2007 <__heap_default_limit+0x1007>
    4037: a2 07        	ldx	#$7
    4039: 86 08        	stx	$8                      ; 0x2008 <__heap_default_limit+0x1008>
    403b: a2 92        	ldx	#$92
    403d: 86 09        	stx	$9                      ; 0x2009 <__heap_default_limit+0x1009>
    403f: 64 0a        	stz	$a                      ; 0x200a <__heap_default_limit+0x100a>
    4041: 64 0b        	stz	$b                      ; 0x200b <__heap_default_limit+0x100b>
    4043: 64 0c        	stz	$c                      ; 0x200c <__heap_default_limit+0x100c>
    4045: a2 00        	ldx	#$0
    4047: 4c 67 44     	jmp	$4467 <messagebox>
    404a: 64 07        	stz	$7                      ; 0x2007 <__heap_default_limit+0x1007>
    404c: ae e0 9f     	ldx	$9fe0                   ; 0x9fe0 <__data_load_start+0x2c6>
    404f: 86 04        	stx	$4                      ; 0x2004 <__heap_default_limit+0x1004>
    4051: 8a           	txa
    4052: 8e e0 9f     	stx	$9fe0                   ; 0x9fe0 <__data_load_start+0x2c6>
    4055: 4a           	lsr
    4056: aa           	tax
    4057: a9 00        	lda	#$0
    4059: 6a           	ror
    405a: 64 05        	stz	$5                      ; 0x2005 <__heap_default_limit+0x1005>
    405c: 66 05        	ror	$5                      ; 0x2005 <__heap_default_limit+0x1005>
    405e: 86 06        	stx	$6                      ; 0x2006 <__heap_default_limit+0x1006>
    4060: 46 06        	lsr	$6                      ; 0x2006 <__heap_default_limit+0x1006>
    4062: 6a           	ror
    4063: 66 05        	ror	$5                      ; 0x2005 <__heap_default_limit+0x1005>
    4065: 46 06        	lsr	$6                      ; 0x2006 <__heap_default_limit+0x1006>
    4067: 6a           	ror
    4068: aa           	tax
    4069: a5 05        	lda	$5                      ; 0x2005 <__heap_default_limit+0x1005>
    406b: 6a           	ror
    406c: 38           	sec
    406d: e9 00        	sbc	#$0
    406f: 85 11        	sta	$11                     ; 0x2011 <__heap_default_limit+0x1011>
    4071: 8a           	txa
    4072: e5 04        	sbc	$4                      ; 0x2004 <__heap_default_limit+0x1004>
    4074: 85 14        	sta	$14                     ; 0x2014 <__heap_default_limit+0x1014>
    4076: a5 06        	lda	$6                      ; 0x2006 <__heap_default_limit+0x1006>
    4078: e9 00        	sbc	#$0
    407a: 85 04        	sta	$4                      ; 0x2004 <__heap_default_limit+0x1004>
    407c: a9 00        	lda	#$0
    407e: e9 00        	sbc	#$0
    4080: 09 08        	ora	#$8
    4082: a2 1f        	ldx	#$1f
    4084: a0 de        	ldy	#$de
    4086: 84 0a        	sty	$a                      ; 0x200a <__heap_default_limit+0x100a>
    4088: a0 9f        	ldy	#$9f
    408a: 84 0b        	sty	$b                      ; 0x200b <__heap_default_limit+0x100b>
    408c: a0 df        	ldy	#$df
    408e: 84 0c        	sty	$c                      ; 0x200c <__heap_default_limit+0x100c>
    4090: a0 9f        	ldy	#$9f
    4092: 84 0d        	sty	$d                      ; 0x200d <__heap_default_limit+0x100d>
    4094: a0 01        	ldy	#$1
    4096: 85 05        	sta	$5                      ; 0x2005 <__heap_default_limit+0x1005>
    4098: 86 06        	stx	$6                      ; 0x2006 <__heap_default_limit+0x1006>
    409a: a6 48        	ldx	$48                     ; 0x2048 <__after_main>
    409c: 86 08        	stx	$8                      ; 0x2008 <__heap_default_limit+0x1008>
    409e: 86 48        	stx	$48                     ; 0x2048 <__after_main>
    40a0: ae e1 9f     	ldx	$9fe1                   ; 0x9fe1 <__data_load_start+0x2c7>
    40a3: 86 09        	stx	$9                      ; 0x2009 <__heap_default_limit+0x1009>
    40a5: 8e e1 9f     	stx	$9fe1                   ; 0x9fe1 <__data_load_start+0x2c7>
    40a8: 84 0e        	sty	$e                      ; 0x200e <__heap_default_limit+0x100e>
    40aa: ae e2 9f     	ldx	$9fe2                   ; 0x9fe2 <__data_load_start+0x2c8>
    40ad: 86 0f        	stx	$f                      ; 0x200f <__heap_default_limit+0x100f>
    40af: ae e3 9f     	ldx	$9fe3                   ; 0x9fe3 <__data_load_start+0x2c9>
    40b2: 86 10        	stx	$10                     ; 0x2010 <__heap_default_limit+0x1010>
    40b4: a6 14        	ldx	$14                     ; 0x2014 <__heap_default_limit+0x1014>
    40b6: a5 11        	lda	$11                     ; 0x2011 <__heap_default_limit+0x1011>
    40b8: 20 c0 31     	jsr	$31c0 <writeblockchain>
    40bb: ae e1 9f     	ldx	$9fe1                   ; 0x9fe1 <__data_load_start+0x2c7>
    40be: 86 04        	stx	$4                      ; 0x2004 <__heap_default_limit+0x1004>
    40c0: ae e0 9f     	ldx	$9fe0                   ; 0x9fe0 <__data_load_start+0x2c6>
    40c3: a5 48        	lda	$48                     ; 0x2048 <__after_main>
    40c5: 4c 87 26     	jmp	$2687 <PutBAM>

000040c8 <strcopy>:
    40c8: 85 08        	sta	$8                      ; 0x2008 <__heap_default_limit+0x1008>
    40ca: a0 00        	ldy	#$0
    40cc: 80 03        	bra	$40d1 <strcopy+0x9>
    40ce: 91 06        	sta	($6),y                  ; 0x2006 <__heap_default_limit+0x1006>
    40d0: c8           	iny
    40d1: b1 04        	lda	($4),y                  ; 0x2004 <__heap_default_limit+0x1004>
    40d3: f0 04        	beq	$40d9 <strcopy+0x11>
    40d5: c4 08        	cpy	$8                      ; 0x2008 <__heap_default_limit+0x1008>
    40d7: 90 f5        	bcc	$40ce <strcopy+0x6>
    40d9: a9 00        	lda	#$0
    40db: 91 06        	sta	($6),y                  ; 0x2006 <__heap_default_limit+0x1006>
    40dd: 60           	rts

000040de <strmakefilename>:
    40de: a0 00        	ldy	#$0
    40e0: 80 03        	bra	$40e5 <strmakefilename+0x7>
    40e2: 91 06        	sta	($6),y                  ; 0x2006 <__heap_default_limit+0x1006>
    40e4: c8           	iny
    40e5: b1 04        	lda	($4),y                  ; 0x2004 <__heap_default_limit+0x1004>
    40e7: f0 04        	beq	$40ed <strmakefilename+0xf>
    40e9: c0 10        	cpy	#$10
    40eb: 90 f5        	bcc	$40e2 <strmakefilename+0x4>
    40ed: 64 04        	stz	$4                      ; 0x2004 <__heap_default_limit+0x1004>
    40ef: 5a           	phy
    40f0: fa           	plx
    40f1: 80 13        	bra	$4106 <strmakefilename+0x28>
    40f3: a5 06        	lda	$6                      ; 0x2006 <__heap_default_limit+0x1006>
    40f5: 18           	clc
    40f6: 65 04        	adc	$4                      ; 0x2004 <__heap_default_limit+0x1004>
    40f8: 85 08        	sta	$8                      ; 0x2008 <__heap_default_limit+0x1008>
    40fa: a5 07        	lda	$7                      ; 0x2007 <__heap_default_limit+0x1007>
    40fc: 69 00        	adc	#$0
    40fe: 85 09        	sta	$9                      ; 0x2009 <__heap_default_limit+0x1009>
    4100: a9 a0        	lda	#$a0
    4102: 91 08        	sta	($8),y                  ; 0x2008 <__heap_default_limit+0x1008>
    4104: e6 04        	inc	$4                      ; 0x2004 <__heap_default_limit+0x1004>
    4106: 98           	tya
    4107: 18           	clc
    4108: 65 04        	adc	$4                      ; 0x2004 <__heap_default_limit+0x1004>
    410a: c9 10        	cmp	#$10
    410c: d0 e5        	bne	$40f3 <strmakefilename+0x15>
    410e: 60           	rts

0000410f <csputdec>:
    410f: 86 07        	stx	$7                      ; 0x2007 <__heap_default_limit+0x1007>
    4111: a6 06        	ldx	$6                      ; 0x2006 <__heap_default_limit+0x1006>
    4113: 86 6e        	stx	$6e                     ; 0x206e <lpstore+0x14>
    4115: a6 04        	ldx	$4                      ; 0x2004 <__heap_default_limit+0x1004>
    4117: 86 74        	stx	$74                     ; 0x2074 <lpstore+0x1a>
    4119: a6 05        	ldx	$5                      ; 0x2005 <__heap_default_limit+0x1005>
    411b: 86 75        	stx	$75                     ; 0x2075 <lprestore>
    411d: 64 81        	stz	$81                     ; 0x2081 <lprestore+0xc>
    411f: a0 09        	ldy	#$9
    4121: a2 82        	ldx	#$82
    4123: 86 70        	stx	$70                     ; 0x2070 <lpstore+0x16>
    4125: a2 00        	ldx	#$0
    4127: 86 71        	stx	$71                     ; 0x2071 <lpstore+0x17>
    4129: a6 07        	ldx	$7                      ; 0x2007 <__heap_default_limit+0x1007>
    412b: 84 76        	sty	$76                     ; 0x2076 <lprestore+0x1>
    412d: 48           	pha
    412e: a5 70        	lda	$70                     ; 0x2070 <lpstore+0x16>
    4130: 85 0a        	sta	$a                      ; 0x200a <__heap_default_limit+0x100a>
    4132: a5 71        	lda	$71                     ; 0x2071 <lpstore+0x17>
    4134: 85 0b        	sta	$b                      ; 0x200b <__heap_default_limit+0x100b>
    4136: 68           	pla
    4137: 84 6f        	sty	$6f                     ; 0x206f <lpstore+0x15>
    4139: a0 0a        	ldy	#$a
    413b: 84 06        	sty	$6                      ; 0x2006 <__heap_default_limit+0x1006>
    413d: 64 07        	stz	$7                      ; 0x2007 <__heap_default_limit+0x1007>
    413f: 64 08        	stz	$8                      ; 0x2008 <__heap_default_limit+0x1008>
    4141: 64 09        	stz	$9                      ; 0x2009 <__heap_default_limit+0x1009>
    4143: 86 73        	stx	$73                     ; 0x2073 <lpstore+0x19>
    4145: 85 72        	sta	$72                     ; 0x2072 <lpstore+0x18>
    4147: 20 b2 8e     	jsr	$8eb2 <__udivmodsi4>
    414a: 85 07        	sta	$7                      ; 0x2007 <__heap_default_limit+0x1007>
    414c: a9 30        	lda	#$30
    414e: 05 82        	ora	$82                     ; 0x2082 <lprestore+0xd>
    4150: c6 6f        	dec	$6f                     ; 0x206f <lpstore+0x15>
    4152: a4 76        	ldy	$76                     ; 0x2076 <lprestore+0x1>
    4154: 99 77 00     	sta	$77,y                   ; 0x77 <__rc31+0x56>
    4157: a5 75        	lda	$75                     ; 0x2075 <lprestore>
    4159: d0 0e        	bne	$4169 <csputdec+0x5a>
    415b: a5 74        	lda	$74                     ; 0x2074 <lpstore+0x1a>
    415d: d0 0e        	bne	$416d <csputdec+0x5e>
    415f: a5 73        	lda	$73                     ; 0x2073 <lpstore+0x19>
    4161: d0 0e        	bne	$4171 <csputdec+0x62>
    4163: a4 72        	ldy	$72                     ; 0x2072 <lpstore+0x18>
    4165: c0 0a        	cpy	#$a
    4167: 80 0c        	bra	$4175 <csputdec+0x66>
    4169: a4 75        	ldy	$75                     ; 0x2075 <lprestore>
    416b: 80 06        	bra	$4173 <csputdec+0x64>
    416d: a4 74        	ldy	$74                     ; 0x2074 <lpstore+0x1a>
    416f: 80 02        	bra	$4173 <csputdec+0x64>
    4171: a4 73        	ldy	$73                     ; 0x2073 <lpstore+0x19>
    4173: c0 00        	cpy	#$0
    4175: a5 07        	lda	$7                      ; 0x2007 <__heap_default_limit+0x1007>
    4177: a4 04        	ldy	$4                      ; 0x2004 <__heap_default_limit+0x1004>
    4179: 84 74        	sty	$74                     ; 0x2074 <lpstore+0x1a>
    417b: a4 05        	ldy	$5                      ; 0x2005 <__heap_default_limit+0x1005>
    417d: 84 75        	sty	$75                     ; 0x2075 <lprestore>
    417f: a4 6f        	ldy	$6f                     ; 0x206f <lpstore+0x15>
    4181: 90 03        	bcc	$4186 <csputdec+0x77>
    4183: 4c 2b 41     	jmp	$412b <csputdec+0x1c>
    4186: 38           	sec
    4187: a9 0a        	lda	#$a
    4189: e5 6e        	sbc	$6e                     ; 0x206e <lpstore+0x14>
    418b: 85 05        	sta	$5                      ; 0x2005 <__heap_default_limit+0x1005>
    418d: a9 00        	lda	#$0
    418f: e9 00        	sbc	#$0
    4191: 85 06        	sta	$6                      ; 0x2006 <__heap_default_limit+0x1006>
    4193: 80 1d        	bra	$41b2 <csputdec+0xa3>
    4195: c9 00        	cmp	#$0
    4197: a9 00        	lda	#$0
    4199: b0 02        	bcs	$419d <csputdec+0x8e>
    419b: a9 01        	lda	#$1
    419d: c0 00        	cpy	#$0
    419f: f0 04        	beq	$41a5 <csputdec+0x96>
    41a1: 29 01        	and	#$1
    41a3: 80 02        	bra	$41a7 <csputdec+0x98>
    41a5: a9 00        	lda	#$0
    41a7: aa           	tax
    41a8: f0 13        	beq	$41bd <csputdec+0xae>
    41aa: a9 20        	lda	#$20
    41ac: 99 77 00     	sta	$77,y                   ; 0x77 <__rc31+0x56>
    41af: 88           	dey
    41b0: a5 06        	lda	$6                      ; 0x2006 <__heap_default_limit+0x1006>
    41b2: aa           	tax
    41b3: d0 e0        	bne	$4195 <csputdec+0x86>
    41b5: 84 04        	sty	$4                      ; 0x2004 <__heap_default_limit+0x1004>
    41b7: a6 05        	ldx	$5                      ; 0x2005 <__heap_default_limit+0x1005>
    41b9: e4 04        	cpx	$4                      ; 0x2004 <__heap_default_limit+0x1004>
    41bb: 80 da        	bra	$4197 <csputdec+0x88>
    41bd: a9 77        	lda	#$77
    41bf: 18           	clc
    41c0: 84 04        	sty	$4                      ; 0x2004 <__heap_default_limit+0x1004>
    41c2: 65 04        	adc	$4                      ; 0x2004 <__heap_default_limit+0x1004>
    41c4: 85 04        	sta	$4                      ; 0x2004 <__heap_default_limit+0x1004>
    41c6: a9 00        	lda	#$0
    41c8: 69 00        	adc	#$0
    41ca: 85 05        	sta	$5                      ; 0x2005 <__heap_default_limit+0x1005>
    41cc: e6 04        	inc	$4                      ; 0x2004 <__heap_default_limit+0x1004>
    41ce: d0 02        	bne	$41d2 <csputdec+0xc3>
    41d0: e6 05        	inc	$5                      ; 0x2005 <__heap_default_limit+0x1005>
    41d2: 4c e9 87     	jmp	$87e9 <cputs>

000041d5 <asciitoscreencode>:
    41d5: a2 20        	ldx	#$20
    41d7: c9 a0        	cmp	#$a0
    41d9: f0 10        	beq	$41eb <asciitoscreencode+0x16>
    41db: c9 c0        	cmp	#$c0
    41dd: 90 04        	bcc	$41e3 <asciitoscreencode+0xe>
    41df: 29 7f        	and	#$7f
    41e1: 80 07        	bra	$41ea <asciitoscreencode+0x15>
    41e3: c9 60        	cmp	#$60
    41e5: 90 06        	bcc	$41ed <asciitoscreencode+0x18>
    41e7: 18           	clc
    41e8: 69 a0        	adc	#$a0
    41ea: aa           	tax
    41eb: 8a           	txa
    41ec: 60           	rts
    41ed: 18           	clc
    41ee: aa           	tax
    41ef: 69 a5        	adc	#$a5
    41f1: c9 05        	cmp	#$5
    41f3: b0 f6        	bcs	$41eb <asciitoscreencode+0x16>
    41f5: a8           	tay
    41f6: b6 22        	ldx	$22,y                   ; 0x2022 <_start+0x1>
    41f8: 80 f1        	bra	$41eb <asciitoscreencode+0x16>

000041fa <asciitoscreencode_s>:
    41fa: a6 04        	ldx	$4                      ; 0x2004 <__heap_default_limit+0x1004>
    41fc: 86 70        	stx	$70                     ; 0x2070 <lpstore+0x16>
    41fe: a6 05        	ldx	$5                      ; 0x2005 <__heap_default_limit+0x1005>
    4200: 86 71        	stx	$71                     ; 0x2071 <lpstore+0x17>
    4202: a2 34        	ldx	#$34
    4204: 86 72        	stx	$72                     ; 0x2072 <lpstore+0x18>
    4206: a2 03        	ldx	#$3
    4208: 86 73        	stx	$73                     ; 0x2073 <lpstore+0x19>
    420a: b2 70        	lda	($70),z                 ; 0x2070 <lpstore+0x16>
    420c: e6 70        	inc	$70                     ; 0x2070 <lpstore+0x16>
    420e: d0 02        	bne	$4212 <asciitoscreencode_s+0x18>
    4210: e6 71        	inc	$71                     ; 0x2071 <lpstore+0x17>
    4212: 20 d5 41     	jsr	$41d5 <asciitoscreencode>
    4215: 92 72        	sta	($72),z                 ; 0x2072 <lpstore+0x18>
    4217: e6 72        	inc	$72                     ; 0x2072 <lpstore+0x18>
    4219: d0 02        	bne	$421d <asciitoscreencode_s+0x23>
    421b: e6 73        	inc	$73                     ; 0x2073 <lpstore+0x19>
    421d: aa           	tax
    421e: d0 ea        	bne	$420a <asciitoscreencode_s+0x10>
    4220: ae 34 03     	ldx	$334                    ; 0x334 <__bss_size+0x70>
    4223: f0 01        	beq	$4226 <asciitoscreencode_s+0x2c>
    4225: 60           	rts
    4226: a2 20        	ldx	#$20
    4228: 8e 34 03     	stx	$334                    ; 0x334 <__bss_size+0x70>
    422b: 9c 35 03     	stz	$335                    ; 0x335 <__bss_size+0x71>
    422e: 60           	rts

0000422f <clrhome>:
    422f: a6 30        	ldx	$30                     ; 0x2030 <__do_init_stack+0x1>
    4231: a5 31        	lda	$31                     ; 0x2031 <__do_init_stack+0x2>
    4233: 86 04        	stx	$4                      ; 0x2004 <__heap_default_limit+0x1004>
    4235: 64 05        	stz	$5                      ; 0x2005 <__heap_default_limit+0x1005>
    4237: a2 00        	ldx	#$0
    4239: 20 2e 8c     	jsr	$8c2e <__mulhi3>
    423c: a8           	tay
    423d: ad 54 d0     	lda	$d054                   ; 0xd054 <__heap_start+0x305a>
    4240: 29 01        	and	#$1
    4242: 85 04        	sta	$4                      ; 0x2004 <__heap_default_limit+0x1004>
    4244: 98           	tya
    4245: 20 1b 8c     	jsr	$8c1b <__ashlhi3>
    4248: 85 07        	sta	$7                      ; 0x2007 <__heap_default_limit+0x1007>
    424a: 85 48        	sta	$48                     ; 0x2048 <__after_main>
    424c: 86 08        	stx	$8                      ; 0x2008 <__heap_default_limit+0x1008>
    424e: 86 49        	stx	$49                     ; 0x2049 <__after_main+0x1>
    4250: ad 63 d0     	lda	$d063                   ; 0xd063 <__heap_start+0x3069>
    4253: 29 07        	and	#$7
    4255: ae 62 d0     	ldx	$d062                   ; 0xd062 <__heap_start+0x3068>
    4258: ac 61 d0     	ldy	$d061                   ; 0xd061 <__heap_start+0x3067>
    425b: 84 09        	sty	$9                      ; 0x2009 <__heap_default_limit+0x1009>
    425d: ac 60 d0     	ldy	$d060                   ; 0xd060 <__heap_start+0x3066>
    4260: 86 04        	stx	$4                      ; 0x2004 <__heap_default_limit+0x1004>
    4262: 85 05        	sta	$5                      ; 0x2005 <__heap_default_limit+0x1005>
    4264: a2 20        	ldx	#$20
    4266: 86 06        	stx	$6                      ; 0x2006 <__heap_default_limit+0x1006>
    4268: a6 09        	ldx	$9                      ; 0x2009 <__heap_default_limit+0x1009>
    426a: 98           	tya
    426b: 20 0c 8a     	jsr	$8a0c <lfill>
    426e: a6 2b        	ldx	$2b                     ; 0x202b <_start+0xa>
    4270: a0 f8        	ldy	#$f8
    4272: a9 0f        	lda	#$f
    4274: 84 04        	sty	$4                      ; 0x2004 <__heap_default_limit+0x1004>
    4276: 85 05        	sta	$5                      ; 0x2005 <__heap_default_limit+0x1005>
    4278: 86 06        	stx	$6                      ; 0x2006 <__heap_default_limit+0x1006>
    427a: a6 48        	ldx	$48                     ; 0x2048 <__after_main>
    427c: 86 07        	stx	$7                      ; 0x2007 <__heap_default_limit+0x1007>
    427e: a6 49        	ldx	$49                     ; 0x2049 <__after_main+0x1>
    4280: 86 08        	stx	$8                      ; 0x2008 <__heap_default_limit+0x1008>
    4282: a2 00        	ldx	#$0
    4284: 8a           	txa
    4285: 20 0c 8a     	jsr	$8a0c <lfill>
    4288: 64 32        	stz	$32                     ; 0x2032 <__do_init_stack+0x3>
    428a: 64 33        	stz	$33                     ; 0x2033 <__do_init_stack+0x4>
    428c: 60           	rts

0000428d <msprintf>:
    428d: 20 fa 41     	jsr	$41fa <asciitoscreencode_s>
    4290: a2 34        	ldx	#$34
    4292: 86 04        	stx	$4                      ; 0x2004 <__heap_default_limit+0x1004>
    4294: a2 03        	ldx	#$3
    4296: 86 05        	stx	$5                      ; 0x2005 <__heap_default_limit+0x1005>
    4298: 4c e9 87     	jmp	$87e9 <cputs>

0000429b <mprintf>:
    429b: 85 54        	sta	$54                     ; 0x2054 <_fini+0x9>
    429d: 86 55        	stx	$55                     ; 0x2055 <_fini+0xa>
    429f: a6 06        	ldx	$6                      ; 0x2006 <__heap_default_limit+0x1006>
    42a1: 86 56        	stx	$56                     ; 0x2056 <fourbytes>
    42a3: a6 07        	ldx	$7                      ; 0x2007 <__heap_default_limit+0x1007>
    42a5: 86 57        	stx	$57                     ; 0x2057 <fourbytes+0x1>
    42a7: 20 fa 41     	jsr	$41fa <asciitoscreencode_s>
    42aa: a2 34        	ldx	#$34
    42ac: 86 04        	stx	$4                      ; 0x2004 <__heap_default_limit+0x1004>
    42ae: a2 03        	ldx	#$3
    42b0: 86 05        	stx	$5                      ; 0x2005 <__heap_default_limit+0x1005>
    42b2: 20 e9 87     	jsr	$87e9 <cputs>
    42b5: 64 06        	stz	$6                      ; 0x2006 <__heap_default_limit+0x1006>
    42b7: a6 56        	ldx	$56                     ; 0x2056 <fourbytes>
    42b9: 86 04        	stx	$4                      ; 0x2004 <__heap_default_limit+0x1004>
    42bb: a6 57        	ldx	$57                     ; 0x2057 <fourbytes+0x1>
    42bd: 86 05        	stx	$5                      ; 0x2005 <__heap_default_limit+0x1005>
    42bf: a6 55        	ldx	$55                     ; 0x2055 <_fini+0xa>
    42c1: a5 54        	lda	$54                     ; 0x2054 <_fini+0x9>
    42c3: 4c 0f 41     	jmp	$410f <csputdec>

000042c6 <mcputsxy>:
    42c6: 85 6e        	sta	$6e                     ; 0x206e <lpstore+0x14>
    42c8: 86 6f        	stx	$6f                     ; 0x206f <lpstore+0x15>
    42ca: 20 fa 41     	jsr	$41fa <asciitoscreencode_s>
    42cd: a2 34        	ldx	#$34
    42cf: 86 04        	stx	$4                      ; 0x2004 <__heap_default_limit+0x1004>
    42d1: a2 03        	ldx	#$3
    42d3: 86 05        	stx	$5                      ; 0x2005 <__heap_default_limit+0x1005>
    42d5: a6 6f        	ldx	$6f                     ; 0x206f <lpstore+0x15>
    42d7: a5 6e        	lda	$6e                     ; 0x206e <lpstore+0x14>
    42d9: 4c f0 87     	jmp	$87f0 <cputsxy>

000042dc <mcbox>:
    42dc: a8           	tay
    42dd: 86 68        	stx	$68                     ; 0x2068 <lpstore+0xe>
    42df: a6 06        	ldx	$6                      ; 0x2006 <__heap_default_limit+0x1006>
    42e1: 86 6c        	stx	$6c                     ; 0x206c <lpstore+0x12>
    42e3: a6 04        	ldx	$4                      ; 0x2004 <__heap_default_limit+0x1004>
    42e5: 38           	sec
    42e6: 85 04        	sta	$4                      ; 0x2004 <__heap_default_limit+0x1004>
    42e8: 8a           	txa
    42e9: e5 04        	sbc	$4                      ; 0x2004 <__heap_default_limit+0x1004>
    42eb: 85 66        	sta	$66                     ; 0x2066 <lpstore+0xc>
    42ed: a9 f0        	lda	#$f0
    42ef: 25 2b        	and	$2b                     ; 0x202b <_start+0xa>
    42f1: 09 03        	ora	#$3
    42f3: 85 2b        	sta	$2b                     ; 0x202b <_start+0xa>
    42f5: 84 6d        	sty	$6d                     ; 0x206d <lpstore+0x13>
    42f7: 84 6a        	sty	$6a                     ; 0x206a <lpstore+0x10>
    42f9: a5 68        	lda	$68                     ; 0x2068 <lpstore+0xe>
    42fb: 85 6e        	sta	$6e                     ; 0x206e <lpstore+0x14>
    42fd: 86 6f        	stx	$6f                     ; 0x206f <lpstore+0x15>
    42ff: 86 67        	stx	$67                     ; 0x2067 <lpstore+0xd>
    4301: a6 05        	ldx	$5                      ; 0x2005 <__heap_default_limit+0x1005>
    4303: 86 70        	stx	$70                     ; 0x2070 <lpstore+0x16>
    4305: 86 69        	stx	$69                     ; 0x2069 <lpstore+0xf>
    4307: a2 6d        	ldx	#$6d
    4309: a0 00        	ldy	#$0
    430b: 86 04        	stx	$4                      ; 0x2004 <__heap_default_limit+0x1004>
    430d: 84 05        	sty	$5                      ; 0x2005 <__heap_default_limit+0x1005>
    430f: 20 cb 88     	jsr	$88cb <fillrect>
    4312: a2 70        	ldx	#$70
    4314: 86 04        	stx	$4                      ; 0x2004 <__heap_default_limit+0x1004>
    4316: a6 68        	ldx	$68                     ; 0x2068 <lpstore+0xe>
    4318: a5 6a        	lda	$6a                     ; 0x206a <lpstore+0x10>
    431a: 20 48 87     	jsr	$8748 <cputcxy>
    431d: a2 6d        	ldx	#$6d
    431f: 86 04        	stx	$4                      ; 0x2004 <__heap_default_limit+0x1004>
    4321: a6 69        	ldx	$69                     ; 0x2069 <lpstore+0xf>
    4323: a5 6a        	lda	$6a                     ; 0x206a <lpstore+0x10>
    4325: 20 48 87     	jsr	$8748 <cputcxy>
    4328: a2 6e        	ldx	#$6e
    432a: 86 04        	stx	$4                      ; 0x2004 <__heap_default_limit+0x1004>
    432c: a6 68        	ldx	$68                     ; 0x2068 <lpstore+0xe>
    432e: a5 67        	lda	$67                     ; 0x2067 <lpstore+0xd>
    4330: 20 48 87     	jsr	$8748 <cputcxy>
    4333: a2 7d        	ldx	#$7d
    4335: 86 04        	stx	$4                      ; 0x2004 <__heap_default_limit+0x1004>
    4337: a6 69        	ldx	$69                     ; 0x2069 <lpstore+0xf>
    4339: 86 6b        	stx	$6b                     ; 0x206b <lpstore+0x11>
    433b: a4 67        	ldy	$67                     ; 0x2067 <lpstore+0xd>
    433d: 84 69        	sty	$69                     ; 0x2069 <lpstore+0xf>
    433f: a5 67        	lda	$67                     ; 0x2067 <lpstore+0xd>
    4341: 20 48 87     	jsr	$8748 <cputcxy>
    4344: a5 66        	lda	$66                     ; 0x2066 <lpstore+0xc>
    4346: c9 02        	cmp	#$2
    4348: a6 66        	ldx	$66                     ; 0x2066 <lpstore+0xc>
    434a: 86 72        	stx	$72                     ; 0x2072 <lpstore+0x18>
    434c: b0 02        	bcs	$4350 <mcbox+0x74>
    434e: a9 01        	lda	#$1
    4350: a6 6a        	ldx	$6a                     ; 0x206a <lpstore+0x10>
    4352: 86 67        	stx	$67                     ; 0x2067 <lpstore+0xd>
    4354: 80 1c        	bra	$4372 <mcbox+0x96>
    4356: e6 67        	inc	$67                     ; 0x2067 <lpstore+0xd>
    4358: a2 40        	ldx	#$40
    435a: 86 04        	stx	$4                      ; 0x2004 <__heap_default_limit+0x1004>
    435c: a6 68        	ldx	$68                     ; 0x2068 <lpstore+0xe>
    435e: 85 66        	sta	$66                     ; 0x2066 <lpstore+0xc>
    4360: a5 67        	lda	$67                     ; 0x2067 <lpstore+0xd>
    4362: 20 48 87     	jsr	$8748 <cputcxy>
    4365: a2 40        	ldx	#$40
    4367: 86 04        	stx	$4                      ; 0x2004 <__heap_default_limit+0x1004>
    4369: a6 6b        	ldx	$6b                     ; 0x206b <lpstore+0x11>
    436b: a5 67        	lda	$67                     ; 0x2067 <lpstore+0xd>
    436d: 20 48 87     	jsr	$8748 <cputcxy>
    4370: a5 66        	lda	$66                     ; 0x2066 <lpstore+0xc>
    4372: 3a           	dec
    4373: d0 e1        	bne	$4356 <mcbox+0x7a>
    4375: a5 68        	lda	$68                     ; 0x2068 <lpstore+0xe>
    4377: 1a           	inc
    4378: a6 6b        	ldx	$6b                     ; 0x206b <lpstore+0x11>
    437a: 86 67        	stx	$67                     ; 0x2067 <lpstore+0xd>
    437c: 85 71        	sta	$71                     ; 0x2071 <lpstore+0x17>
    437e: 80 1a        	bra	$439a <mcbox+0xbe>
    4380: a2 5d        	ldx	#$5d
    4382: 86 04        	stx	$4                      ; 0x2004 <__heap_default_limit+0x1004>
    4384: 85 66        	sta	$66                     ; 0x2066 <lpstore+0xc>
    4386: aa           	tax
    4387: a5 6a        	lda	$6a                     ; 0x206a <lpstore+0x10>
    4389: 20 48 87     	jsr	$8748 <cputcxy>
    438c: a2 5d        	ldx	#$5d
    438e: 86 04        	stx	$4                      ; 0x2004 <__heap_default_limit+0x1004>
    4390: a6 66        	ldx	$66                     ; 0x2066 <lpstore+0xc>
    4392: a5 69        	lda	$69                     ; 0x2069 <lpstore+0xf>
    4394: 20 48 87     	jsr	$8748 <cputcxy>
    4397: a5 66        	lda	$66                     ; 0x2066 <lpstore+0xc>
    4399: 1a           	inc
    439a: c5 67        	cmp	$67                     ; 0x2067 <lpstore+0xd>
    439c: 90 e2        	bcc	$4380 <mcbox+0xa4>
    439e: a5 6c        	lda	$6c                     ; 0x206c <lpstore+0x12>
    43a0: d0 03        	bne	$43a5 <mcbox+0xc9>
    43a2: 4c 66 44     	jmp	$4466 <mcbox+0x18a>
    43a5: a6 6b        	ldx	$6b                     ; 0x206b <lpstore+0x11>
    43a7: e4 31        	cpx	$31                     ; 0x2031 <__do_init_stack+0x2>
    43a9: 90 03        	bcc	$43ae <mcbox+0xd2>
    43ab: 4c 66 44     	jmp	$4466 <mcbox+0x18a>
    43ae: a6 30        	ldx	$30                     ; 0x2030 <__do_init_stack+0x1>
    43b0: 86 04        	stx	$4                      ; 0x2004 <__heap_default_limit+0x1004>
    43b2: a6 69        	ldx	$69                     ; 0x2069 <lpstore+0xf>
    43b4: e4 04        	cpx	$4                      ; 0x2004 <__heap_default_limit+0x1004>
    43b6: 90 03        	bcc	$43bb <mcbox+0xdf>
    43b8: 4c 66 44     	jmp	$4466 <mcbox+0x18a>
    43bb: 64 05        	stz	$5                      ; 0x2005 <__heap_default_limit+0x1005>
    43bd: a6 6b        	ldx	$6b                     ; 0x206b <lpstore+0x11>
    43bf: a0 00        	ldy	#$0
    43c1: e8           	inx
    43c2: d0 01        	bne	$43c5 <mcbox+0xe9>
    43c4: c8           	iny
    43c5: 8a           	txa
    43c6: 84 6b        	sty	$6b                     ; 0x206b <lpstore+0x11>
    43c8: a6 6b        	ldx	$6b                     ; 0x206b <lpstore+0x11>
    43ca: 85 68        	sta	$68                     ; 0x2068 <lpstore+0xe>
    43cc: 20 2e 8c     	jsr	$8c2e <__mulhi3>
    43cf: 85 04        	sta	$4                      ; 0x2004 <__heap_default_limit+0x1004>
    43d1: 86 05        	stx	$5                      ; 0x2005 <__heap_default_limit+0x1005>
    43d3: 64 08        	stz	$8                      ; 0x2008 <__heap_default_limit+0x1008>
    43d5: 18           	clc
    43d6: a5 6a        	lda	$6a                     ; 0x206a <lpstore+0x10>
    43d8: 65 04        	adc	$4                      ; 0x2004 <__heap_default_limit+0x1004>
    43da: aa           	tax
    43db: a9 00        	lda	#$0
    43dd: 65 05        	adc	$5                      ; 0x2005 <__heap_default_limit+0x1005>
    43df: 85 04        	sta	$4                      ; 0x2004 <__heap_default_limit+0x1004>
    43e1: a9 00        	lda	#$0
    43e3: 69 00        	adc	#$0
    43e5: 85 05        	sta	$5                      ; 0x2005 <__heap_default_limit+0x1005>
    43e7: a9 00        	lda	#$0
    43e9: 69 00        	adc	#$0
    43eb: 85 06        	sta	$6                      ; 0x2006 <__heap_default_limit+0x1006>
    43ed: 18           	clc
    43ee: 8a           	txa
    43ef: 69 01        	adc	#$1
    43f1: a8           	tay
    43f2: a5 04        	lda	$4                      ; 0x2004 <__heap_default_limit+0x1004>
    43f4: 69 00        	adc	#$0
    43f6: 85 09        	sta	$9                      ; 0x2009 <__heap_default_limit+0x1009>
    43f8: a5 05        	lda	$5                      ; 0x2005 <__heap_default_limit+0x1005>
    43fa: 69 f8        	adc	#$f8
    43fc: 85 04        	sta	$4                      ; 0x2004 <__heap_default_limit+0x1004>
    43fe: a5 06        	lda	$6                      ; 0x2006 <__heap_default_limit+0x1006>
    4400: 69 0f        	adc	#$f
    4402: a2 0b        	ldx	#$b
    4404: 85 05        	sta	$5                      ; 0x2005 <__heap_default_limit+0x1005>
    4406: 86 06        	stx	$6                      ; 0x2006 <__heap_default_limit+0x1006>
    4408: a6 72        	ldx	$72                     ; 0x2072 <lpstore+0x18>
    440a: 86 07        	stx	$7                      ; 0x2007 <__heap_default_limit+0x1007>
    440c: a6 09        	ldx	$9                      ; 0x2009 <__heap_default_limit+0x1009>
    440e: 98           	tya
    440f: 20 0c 8a     	jsr	$8a0c <lfill>
    4412: a6 69        	ldx	$69                     ; 0x2069 <lpstore+0xf>
    4414: 86 67        	stx	$67                     ; 0x2067 <lpstore+0xd>
    4416: e6 67        	inc	$67                     ; 0x2067 <lpstore+0xd>
    4418: a6 71        	ldx	$71                     ; 0x2071 <lpstore+0x17>
    441a: 86 66        	stx	$66                     ; 0x2066 <lpstore+0xc>
    441c: 64 69        	stz	$69                     ; 0x2069 <lpstore+0xf>
    441e: 4c 56 44     	jmp	$4456 <mcbox+0x17a>
    4421: c0 00        	cpy	#$0
    4423: b0 03        	bcs	$4428 <mcbox+0x14c>
    4425: 4c 66 44     	jmp	$4466 <mcbox+0x18a>
    4428: a5 30        	lda	$30                     ; 0x2030 <__do_init_stack+0x1>
    442a: a6 66        	ldx	$66                     ; 0x2066 <lpstore+0xc>
    442c: 86 04        	stx	$4                      ; 0x2004 <__heap_default_limit+0x1004>
    442e: 64 05        	stz	$5                      ; 0x2005 <__heap_default_limit+0x1005>
    4430: a2 00        	ldx	#$0
    4432: 20 2e 8c     	jsr	$8c2e <__mulhi3>
    4435: 18           	clc
    4436: 65 67        	adc	$67                     ; 0x2067 <lpstore+0xd>
    4438: a8           	tay
    4439: 8a           	txa
    443a: 65 69        	adc	$69                     ; 0x2069 <lpstore+0xf>
    443c: 85 07        	sta	$7                      ; 0x2007 <__heap_default_limit+0x1007>
    443e: a9 f8        	lda	#$f8
    4440: 69 00        	adc	#$0
    4442: 85 04        	sta	$4                      ; 0x2004 <__heap_default_limit+0x1004>
    4444: a9 0f        	lda	#$f
    4446: 69 00        	adc	#$0
    4448: 85 05        	sta	$5                      ; 0x2005 <__heap_default_limit+0x1005>
    444a: a2 0b        	ldx	#$b
    444c: 86 06        	stx	$6                      ; 0x2006 <__heap_default_limit+0x1006>
    444e: a6 07        	ldx	$7                      ; 0x2007 <__heap_default_limit+0x1007>
    4450: 98           	tya
    4451: 20 90 20     	jsr	$2090 <lpoke>
    4454: e6 66        	inc	$66                     ; 0x2066 <lpstore+0xc>
    4456: a4 6b        	ldy	$6b                     ; 0x206b <lpstore+0x11>
    4458: f0 03        	beq	$445d <mcbox+0x181>
    445a: 4c 21 44     	jmp	$4421 <mcbox+0x145>
    445d: a6 68        	ldx	$68                     ; 0x2068 <lpstore+0xe>
    445f: e4 66        	cpx	$66                     ; 0x2066 <lpstore+0xc>
    4461: 90 03        	bcc	$4466 <mcbox+0x18a>
    4463: 4c 28 44     	jmp	$4428 <mcbox+0x14c>
    4466: 60           	rts

00004467 <messagebox>:
    4467: 85 64        	sta	$64                     ; 0x2064 <lpstore+0xa>
    4469: 86 5d        	stx	$5d                     ; 0x205d <lpstore+0x3>
    446b: a6 0a        	ldx	$a                      ; 0x200a <__heap_default_limit+0x100a>
    446d: 86 5c        	stx	$5c                     ; 0x205c <lpstore+0x2>
    446f: a6 04        	ldx	$4                      ; 0x2004 <__heap_default_limit+0x1004>
    4471: 86 62        	stx	$62                     ; 0x2062 <lpstore+0x8>
    4473: a6 05        	ldx	$5                      ; 0x2005 <__heap_default_limit+0x1005>
    4475: 86 63        	stx	$63                     ; 0x2063 <lpstore+0x9>
    4477: a6 06        	ldx	$6                      ; 0x2006 <__heap_default_limit+0x1006>
    4479: 86 60        	stx	$60                     ; 0x2060 <lpstore+0x6>
    447b: a6 07        	ldx	$7                      ; 0x2007 <__heap_default_limit+0x1007>
    447d: 86 61        	stx	$61                     ; 0x2061 <lpstore+0x7>
    447f: a6 08        	ldx	$8                      ; 0x2008 <__heap_default_limit+0x1008>
    4481: 86 5e        	stx	$5e                     ; 0x205e <lpstore+0x4>
    4483: a6 09        	ldx	$9                      ; 0x2009 <__heap_default_limit+0x1009>
    4485: 86 5f        	stx	$5f                     ; 0x205f <lpstore+0x5>
    4487: a9 46        	lda	#$46
    4489: a2 0c        	ldx	#$c
    448b: a0 01        	ldy	#$1
    448d: 85 04        	sta	$4                      ; 0x2004 <__heap_default_limit+0x1004>
    448f: 86 05        	stx	$5                      ; 0x2005 <__heap_default_limit+0x1005>
    4491: 84 06        	sty	$6                      ; 0x2006 <__heap_default_limit+0x1006>
    4493: a2 04        	ldx	#$4
    4495: a9 0a        	lda	#$a
    4497: 20 dc 42     	jsr	$42dc <mcbox>
    449a: a9 20        	lda	#$20
    449c: 05 2b        	ora	$2b                     ; 0x202b <_start+0xa>
    449e: 85 2b        	sta	$2b                     ; 0x202b <_start+0xa>
    44a0: a9 0e        	lda	#$e
    44a2: a2 51        	ldx	#$51
    44a4: 86 04        	stx	$4                      ; 0x2004 <__heap_default_limit+0x1004>
    44a6: a2 92        	ldx	#$92
    44a8: 86 05        	stx	$5                      ; 0x2005 <__heap_default_limit+0x1005>
    44aa: a2 04        	ldx	#$4
    44ac: 20 c6 42     	jsr	$42c6 <mcputsxy>
    44af: a9 28        	lda	#$28
    44b1: a2 c6        	ldx	#$c6
    44b3: 86 04        	stx	$4                      ; 0x2004 <__heap_default_limit+0x1004>
    44b5: a2 96        	ldx	#$96
    44b7: 86 05        	stx	$5                      ; 0x2005 <__heap_default_limit+0x1005>
    44b9: a2 04        	ldx	#$4
    44bb: 20 c6 42     	jsr	$42c6 <mcputsxy>
    44be: a9 df        	lda	#$df
    44c0: 25 2b        	and	$2b                     ; 0x202b <_start+0xa>
    44c2: 85 2b        	sta	$2b                     ; 0x202b <_start+0xa>
    44c4: a2 06        	ldx	#$6
    44c6: a4 62        	ldy	$62                     ; 0x2062 <lpstore+0x8>
    44c8: 84 04        	sty	$4                      ; 0x2004 <__heap_default_limit+0x1004>
    44ca: a4 63        	ldy	$63                     ; 0x2063 <lpstore+0x9>
    44cc: 84 05        	sty	$5                      ; 0x2005 <__heap_default_limit+0x1005>
    44ce: a9 0c        	lda	#$c
    44d0: 20 c6 42     	jsr	$42c6 <mcputsxy>
    44d3: a2 07        	ldx	#$7
    44d5: a4 60        	ldy	$60                     ; 0x2060 <lpstore+0x6>
    44d7: 84 04        	sty	$4                      ; 0x2004 <__heap_default_limit+0x1004>
    44d9: a4 61        	ldy	$61                     ; 0x2061 <lpstore+0x7>
    44db: 84 05        	sty	$5                      ; 0x2005 <__heap_default_limit+0x1005>
    44dd: a9 0c        	lda	#$c
    44df: 20 c6 42     	jsr	$42c6 <mcputsxy>
    44e2: a2 08        	ldx	#$8
    44e4: a4 5e        	ldy	$5e                     ; 0x205e <lpstore+0x4>
    44e6: 84 04        	sty	$4                      ; 0x2004 <__heap_default_limit+0x1004>
    44e8: a4 5f        	ldy	$5f                     ; 0x205f <lpstore+0x5>
    44ea: 84 05        	sty	$5                      ; 0x2005 <__heap_default_limit+0x1005>
    44ec: a9 0c        	lda	#$c
    44ee: 20 c6 42     	jsr	$42c6 <mcputsxy>
    44f1: a4 64        	ldy	$64                     ; 0x2064 <lpstore+0xa>
    44f3: c0 03        	cpy	#$3
    44f5: f0 03        	beq	$44fa <messagebox+0x93>
    44f7: 4c 90 45     	jmp	$4590 <messagebox+0x129>
    44fa: a2 6f        	ldx	#$6f
    44fc: 86 04        	stx	$4                      ; 0x2004 <__heap_default_limit+0x1004>
    44fe: a2 98        	ldx	#$98
    4500: 86 05        	stx	$5                      ; 0x2005 <__heap_default_limit+0x1005>
    4502: 98           	tya
    4503: 85 64        	sta	$64                     ; 0x2064 <lpstore+0xa>
    4505: 20 fa 41     	jsr	$41fa <asciitoscreencode_s>
    4508: a2 34        	ldx	#$34
    450a: 86 04        	stx	$4                      ; 0x2004 <__heap_default_limit+0x1004>
    450c: a2 03        	ldx	#$3
    450e: 86 05        	stx	$5                      ; 0x2005 <__heap_default_limit+0x1005>
    4510: 20 e9 87     	jsr	$87e9 <cputs>
    4513: a2 24        	ldx	#$24
    4515: 8e e7 9f     	stx	$9fe7                   ; 0x9fe7 <__data_load_start+0x2cd>
    4518: a9 e7        	lda	#$e7
    451a: a2 9f        	ldx	#$9f
    451c: 85 04        	sta	$4                      ; 0x2004 <__heap_default_limit+0x1004>
    451e: 86 05        	stx	$5                      ; 0x2005 <__heap_default_limit+0x1005>
    4520: e6 04        	inc	$4                      ; 0x2004 <__heap_default_limit+0x1004>
    4522: d0 02        	bne	$4526 <messagebox+0xbf>
    4524: e6 05        	inc	$5                      ; 0x2005 <__heap_default_limit+0x1005>
    4526: 18           	clc
    4527: 69 04        	adc	#$4
    4529: 85 06        	sta	$6                      ; 0x2006 <__heap_default_limit+0x1006>
    452b: a9 9f        	lda	#$9f
    452d: 69 00        	adc	#$0
    452f: a6 06        	ldx	$6                      ; 0x2006 <__heap_default_limit+0x1006>
    4531: 86 5e        	stx	$5e                     ; 0x205e <lpstore+0x4>
    4533: 85 5f        	sta	$5f                     ; 0x205f <lpstore+0x5>
    4535: 46 5c        	lsr	$5c                     ; 0x205c <lpstore+0x2>
    4537: a5 5d        	lda	$5d                     ; 0x205d <lpstore+0x3>
    4539: a6 5d        	ldx	$5d                     ; 0x205d <lpstore+0x3>
    453b: 86 65        	stx	$65                     ; 0x2065 <lpstore+0xb>
    453d: 6a           	ror
    453e: 46 5c        	lsr	$5c                     ; 0x205c <lpstore+0x2>
    4540: 6a           	ror
    4541: 46 5c        	lsr	$5c                     ; 0x205c <lpstore+0x2>
    4543: 6a           	ror
    4544: 46 5c        	lsr	$5c                     ; 0x205c <lpstore+0x2>
    4546: 6a           	ror
    4547: 85 5c        	sta	$5c                     ; 0x205c <lpstore+0x2>
    4549: 4a           	lsr
    454a: 4a           	lsr
    454b: 4a           	lsr
    454c: 4a           	lsr
    454d: 29 0f        	and	#$f
    454f: 85 5d        	sta	$5d                     ; 0x205d <lpstore+0x3>
    4551: a9 30        	lda	#$30
    4553: a2 05        	ldx	#$5
    4555: 64 06        	stz	$6                      ; 0x2006 <__heap_default_limit+0x1006>
    4557: 20 98 90     	jsr	$9098 <__memset>
    455a: a6 5d        	ldx	$5d                     ; 0x205d <lpstore+0x3>
    455c: bd 0a 9d     	lda	$9d0a,x                 ; 0x9d0a <hexDigits>
    455f: aa           	tax
    4560: 8e ed 9f     	stx	$9fed                   ; 0x9fed <__data_load_start+0x2d3>
    4563: a5 5c        	lda	$5c                     ; 0x205c <lpstore+0x2>
    4565: 29 0f        	and	#$f
    4567: aa           	tax
    4568: bd 0a 9d     	lda	$9d0a,x                 ; 0x9d0a <hexDigits>
    456b: aa           	tax
    456c: 8e ee 9f     	stx	$9fee                   ; 0x9fee <__data_load_start+0x2d4>
    456f: a5 65        	lda	$65                     ; 0x2065 <lpstore+0xb>
    4571: 29 0f        	and	#$f
    4573: aa           	tax
    4574: bd 0a 9d     	lda	$9d0a,x                 ; 0x9d0a <hexDigits>
    4577: aa           	tax
    4578: 8e ef 9f     	stx	$9fef                   ; 0x9fef <__data_load_start+0x2d5>
    457b: 9c f0 9f     	stz	$9ff0                   ; 0x9ff0 <__data_load_start+0x2d6>
    457e: a2 24        	ldx	#$24
    4580: 8e eb 9f     	stx	$9feb                   ; 0x9feb <__data_load_start+0x2d1>
    4583: a6 5e        	ldx	$5e                     ; 0x205e <lpstore+0x4>
    4585: 86 04        	stx	$4                      ; 0x2004 <__heap_default_limit+0x1004>
    4587: a6 5f        	ldx	$5f                     ; 0x205f <lpstore+0x5>
    4589: 86 05        	stx	$5                      ; 0x2005 <__heap_default_limit+0x1005>
    458b: 20 e9 87     	jsr	$87e9 <cputs>
    458e: a4 64        	ldy	$64                     ; 0x2064 <lpstore+0xa>
    4590: a9 20        	lda	#$20
    4592: 05 2b        	ora	$2b                     ; 0x202b <_start+0xa>
    4594: 85 2b        	sta	$2b                     ; 0x202b <_start+0xa>
    4596: c0 04        	cpy	#$4
    4598: d0 18        	bne	$45b2 <messagebox+0x14b>
    459a: a9 25        	lda	#$25
    459c: a2 0a        	ldx	#$a
    459e: a0 50        	ldy	#$50
    45a0: 84 04        	sty	$4                      ; 0x2004 <__heap_default_limit+0x1004>
    45a2: a0 95        	ldy	#$95
    45a4: 84 05        	sty	$5                      ; 0x2005 <__heap_default_limit+0x1005>
    45a6: 20 c6 42     	jsr	$42c6 <mcputsxy>
    45a9: a9 df        	lda	#$df
    45ab: 25 2b        	and	$2b                     ; 0x202b <_start+0xa>
    45ad: 85 2b        	sta	$2b                     ; 0x202b <_start+0xa>
    45af: 4c 00 46     	jmp	$4600 <messagebox+0x199>
    45b2: 84 5c        	sty	$5c                     ; 0x205c <lpstore+0x2>
    45b4: a9 3c        	lda	#$3c
    45b6: a2 9a        	ldx	#$9a
    45b8: 86 04        	stx	$4                      ; 0x2004 <__heap_default_limit+0x1004>
    45ba: a2 95        	ldx	#$95
    45bc: 86 05        	stx	$5                      ; 0x2005 <__heap_default_limit+0x1005>
    45be: a2 0a        	ldx	#$a
    45c0: 20 c6 42     	jsr	$42c6 <mcputsxy>
    45c3: a9 0c        	lda	#$c
    45c5: a2 50        	ldx	#$50
    45c7: 86 04        	stx	$4                      ; 0x2004 <__heap_default_limit+0x1004>
    45c9: a2 95        	ldx	#$95
    45cb: 86 05        	stx	$5                      ; 0x2005 <__heap_default_limit+0x1005>
    45cd: a2 0a        	ldx	#$a
    45cf: 20 c6 42     	jsr	$42c6 <mcputsxy>
    45d2: a9 df        	lda	#$df
    45d4: 25 2b        	and	$2b                     ; 0x202b <_start+0xa>
    45d6: 85 2b        	sta	$2b                     ; 0x202b <_start+0xa>
    45d8: a6 5c        	ldx	$5c                     ; 0x205c <lpstore+0x2>
    45da: e0 02        	cpx	#$2
    45dc: f0 31        	beq	$460f <messagebox+0x1a8>
    45de: e0 01        	cpx	#$1
    45e0: d0 1e        	bne	$4600 <messagebox+0x199>
    45e2: a9 02        	lda	#$2
    45e4: a2 61        	ldx	#$61
    45e6: 86 04        	stx	$4                      ; 0x2004 <__heap_default_limit+0x1004>
    45e8: a2 92        	ldx	#$92
    45ea: 86 05        	stx	$5                      ; 0x2005 <__heap_default_limit+0x1005>
    45ec: a2 01        	ldx	#$1
    45ee: 20 c6 42     	jsr	$42c6 <mcputsxy>
    45f1: a9 3a        	lda	#$3a
    45f3: a2 3a        	ldx	#$3a
    45f5: 86 04        	stx	$4                      ; 0x2004 <__heap_default_limit+0x1004>
    45f7: a2 96        	ldx	#$96
    45f9: 86 05        	stx	$5                      ; 0x2005 <__heap_default_limit+0x1005>
    45fb: a2 01        	ldx	#$1
    45fd: 20 c6 42     	jsr	$42c6 <mcputsxy>
    4600: 20 75 89     	jsr	$8975 <cgetc>
    4603: c9 03        	cmp	#$3
    4605: f0 0b        	beq	$4612 <messagebox+0x1ab>
    4607: c9 1b        	cmp	#$1b
    4609: f0 07        	beq	$4612 <messagebox+0x1ab>
    460b: c9 0d        	cmp	#$d
    460d: d0 f1        	bne	$4600 <messagebox+0x199>
    460f: a9 01        	lda	#$1
    4611: 60           	rts
    4612: a9 00        	lda	#$0
    4614: 60           	rts

00004615 <progress>:
    4615: 8d e0 9f     	sta	$9fe0                   ; 0x9fe0 <__data_load_start+0x2c6>
    4618: a6 04        	ldx	$4                      ; 0x2004 <__heap_default_limit+0x1004>
    461a: 86 48        	stx	$48                     ; 0x2048 <__after_main>
    461c: a6 05        	ldx	$5                      ; 0x2005 <__heap_default_limit+0x1005>
    461e: 86 49        	stx	$49                     ; 0x2049 <__after_main+0x1>
    4620: a6 06        	ldx	$6                      ; 0x2006 <__heap_default_limit+0x1006>
    4622: 86 4a        	stx	$4a                     ; 0x204a <__after_main+0x2>
    4624: a6 07        	ldx	$7                      ; 0x2007 <__heap_default_limit+0x1007>
    4626: 86 4b        	stx	$4b                     ; 0x204b <_fini>
    4628: a2 b6        	ldx	#$b6
    462a: 86 04        	stx	$4                      ; 0x2004 <__heap_default_limit+0x1004>
    462c: a2 9c        	ldx	#$9c
    462e: 86 05        	stx	$5                      ; 0x2005 <__heap_default_limit+0x1005>
    4630: 20 cb 88     	jsr	$88cb <fillrect>
    4633: a2 06        	ldx	#$6
    4635: a4 48        	ldy	$48                     ; 0x2048 <__after_main>
    4637: 84 04        	sty	$4                      ; 0x2004 <__heap_default_limit+0x1004>
    4639: a4 49        	ldy	$49                     ; 0x2049 <__after_main+0x1>
    463b: 84 05        	sty	$5                      ; 0x2005 <__heap_default_limit+0x1005>
    463d: ac e0 9f     	ldy	$9fe0                   ; 0x9fe0 <__data_load_start+0x2c6>
    4640: 84 48        	sty	$48                     ; 0x2048 <__after_main>
    4642: a9 0c        	lda	#$c
    4644: 20 c6 42     	jsr	$42c6 <mcputsxy>
    4647: a2 07        	ldx	#$7
    4649: a4 4a        	ldy	$4a                     ; 0x204a <__after_main+0x2>
    464b: 84 04        	sty	$4                      ; 0x2004 <__heap_default_limit+0x1004>
    464d: a4 4b        	ldy	$4b                     ; 0x204b <_fini>
    464f: 84 05        	sty	$5                      ; 0x2005 <__heap_default_limit+0x1005>
    4651: a9 0c        	lda	#$c
    4653: 20 c6 42     	jsr	$42c6 <mcputsxy>
    4656: a2 09        	ldx	#$9
    4658: a0 a0        	ldy	#$a0
    465a: 84 04        	sty	$4                      ; 0x2004 <__heap_default_limit+0x1004>
    465c: a9 0c        	lda	#$c
    465e: 20 48 87     	jsr	$8748 <cputcxy>
    4661: a5 48        	lda	$48                     ; 0x2048 <__after_main>
    4663: 4a           	lsr
    4664: 85 49        	sta	$49                     ; 0x2049 <__after_main+0x1>
    4666: a2 00        	ldx	#$0
    4668: 80 14        	bra	$467e <progress+0x69>
    466a: 86 4a        	stx	$4a                     ; 0x204a <__after_main+0x2>
    466c: a9 01        	lda	#$1
    466e: 29 01        	and	#$1
    4670: a2 a0        	ldx	#$a0
    4672: a8           	tay
    4673: d0 02        	bne	$4677 <progress+0x62>
    4675: a2 7b        	ldx	#$7b
    4677: 8a           	txa
    4678: 20 3f 87     	jsr	$873f <cputc>
    467b: a6 4a        	ldx	$4a                     ; 0x204a <__after_main+0x2>
    467d: e8           	inx
    467e: e0 32        	cpx	#$32
    4680: f0 0a        	beq	$468c <progress+0x77>
    4682: e4 49        	cpx	$49                     ; 0x2049 <__after_main+0x1>
    4684: 90 e4        	bcc	$466a <progress+0x55>
    4686: 86 4a        	stx	$4a                     ; 0x204a <__after_main+0x2>
    4688: a9 00        	lda	#$0
    468a: 80 e2        	bra	$466e <progress+0x59>
    468c: a9 65        	lda	#$65
    468e: 20 3f 87     	jsr	$873f <cputc>
    4691: a2 07        	ldx	#$7
    4693: 86 04        	stx	$4                      ; 0x2004 <__heap_default_limit+0x1004>
    4695: a2 92        	ldx	#$92
    4697: 86 05        	stx	$5                      ; 0x2005 <__heap_default_limit+0x1005>
    4699: 64 06        	stz	$6                      ; 0x2006 <__heap_default_limit+0x1006>
    469b: 64 07        	stz	$7                      ; 0x2007 <__heap_default_limit+0x1007>
    469d: a2 00        	ldx	#$0
    469f: a5 48        	lda	$48                     ; 0x2048 <__after_main>
    46a1: 20 9b 42     	jsr	$429b <mprintf>
    46a4: a9 25        	lda	#$25
    46a6: 20 3f 87     	jsr	$873f <cputc>
    46a9: a9 0c        	lda	#$c
    46ab: a2 f0        	ldx	#$f0
    46ad: 86 04        	stx	$4                      ; 0x2004 <__heap_default_limit+0x1004>
    46af: a2 98        	ldx	#$98
    46b1: 86 05        	stx	$5                      ; 0x2005 <__heap_default_limit+0x1005>
    46b3: a2 0a        	ldx	#$a
    46b5: 20 c6 42     	jsr	$42c6 <mcputsxy>
    46b8: a9 3c        	lda	#$3c
    46ba: a2 f0        	ldx	#$f0
    46bc: 86 04        	stx	$4                      ; 0x2004 <__heap_default_limit+0x1004>
    46be: a2 98        	ldx	#$98
    46c0: 86 05        	stx	$5                      ; 0x2005 <__heap_default_limit+0x1005>
    46c2: a2 0a        	ldx	#$a
    46c4: 4c c6 42     	jmp	$42c6 <mcputsxy>

000046c7 <inputbox>:
    46c7: a6 04        	ldx	$4                      ; 0x2004 <__heap_default_limit+0x1004>
    46c9: 86 48        	stx	$48                     ; 0x2048 <__after_main>
    46cb: a6 05        	ldx	$5                      ; 0x2005 <__heap_default_limit+0x1005>
    46cd: 86 49        	stx	$49                     ; 0x2049 <__after_main+0x1>
    46cf: a6 06        	ldx	$6                      ; 0x2006 <__heap_default_limit+0x1006>
    46d1: 86 04        	stx	$4                      ; 0x2004 <__heap_default_limit+0x1004>
    46d3: a6 07        	ldx	$7                      ; 0x2007 <__heap_default_limit+0x1007>
    46d5: 86 05        	stx	$5                      ; 0x2005 <__heap_default_limit+0x1005>
    46d7: a9 02        	lda	#$2
    46d9: a2 95        	ldx	#$95
    46db: 86 06        	stx	$6                      ; 0x2006 <__heap_default_limit+0x1006>
    46dd: a2 93        	ldx	#$93
    46df: 86 07        	stx	$7                      ; 0x2007 <__heap_default_limit+0x1007>
    46e1: a2 95        	ldx	#$95
    46e3: 86 08        	stx	$8                      ; 0x2008 <__heap_default_limit+0x1008>
    46e5: a2 93        	ldx	#$93
    46e7: 86 09        	stx	$9                      ; 0x2009 <__heap_default_limit+0x1009>
    46e9: 64 0a        	stz	$a                      ; 0x200a <__heap_default_limit+0x100a>
    46eb: 64 0b        	stz	$b                      ; 0x200b <__heap_default_limit+0x100b>
    46ed: 64 0c        	stz	$c                      ; 0x200c <__heap_default_limit+0x100c>
    46ef: a2 00        	ldx	#$0
    46f1: 20 67 44     	jsr	$4467 <messagebox>
    46f4: a2 0c        	ldx	#$c
    46f6: 86 32        	stx	$32                     ; 0x2032 <__do_init_stack+0x3>
    46f8: a2 08        	ldx	#$8
    46fa: 86 33        	stx	$33                     ; 0x2033 <__do_init_stack+0x4>
    46fc: a2 00        	ldx	#$0
    46fe: 86 04        	stx	$4                      ; 0x2004 <__heap_default_limit+0x1004>
    4700: a2 00        	ldx	#$0
    4702: 86 05        	stx	$5                      ; 0x2005 <__heap_default_limit+0x1005>
    4704: a6 49        	ldx	$49                     ; 0x2049 <__after_main+0x1>
    4706: e4 05        	cpx	$5                      ; 0x2005 <__heap_default_limit+0x1005>
    4708: d0 09        	bne	$4713 <inputbox+0x4c>
    470a: a6 48        	ldx	$48                     ; 0x2048 <__after_main>
    470c: e4 04        	cpx	$4                      ; 0x2004 <__heap_default_limit+0x1004>
    470e: d0 03        	bne	$4713 <inputbox+0x4c>
    4710: 4c b0 47     	jmp	$47b0 <inputbox+0xe9>
    4713: 20 1d 87     	jsr	$871d <flushkeybuf>
    4716: a9 00        	lda	#$0
    4718: a8           	tay
    4719: 80 03        	bra	$471e <inputbox+0x57>
    471b: 91 48        	sta	($48),y                 ; 0x2048 <__after_main>
    471d: c8           	iny
    471e: c0 38        	cpy	#$38
    4720: d0 f9        	bne	$471b <inputbox+0x54>
    4722: a2 00        	ldx	#$0
    4724: 80 05        	bra	$472b <inputbox+0x64>
    4726: a6 4a        	ldx	$4a                     ; 0x204a <__after_main+0x2>
    4728: e8           	inx
    4729: 91 48        	sta	($48),y                 ; 0x2048 <__after_main>
    472b: 86 4a        	stx	$4a                     ; 0x204a <__after_main+0x2>
    472d: 80 2d        	bra	$475c <inputbox+0x95>
    472f: a2 0c        	ldx	#$c
    4731: 86 32        	stx	$32                     ; 0x2032 <__do_init_stack+0x3>
    4733: a2 08        	ldx	#$8
    4735: 86 33        	stx	$33                     ; 0x2033 <__do_init_stack+0x4>
    4737: a9 10        	lda	#$10
    4739: 05 2b        	ora	$2b                     ; 0x202b <_start+0xa>
    473b: 85 2b        	sta	$2b                     ; 0x202b <_start+0xa>
    473d: a9 e0        	lda	#$e0
    473f: 20 3f 87     	jsr	$873f <cputc>
    4742: a9 ef        	lda	#$ef
    4744: 25 2b        	and	$2b                     ; 0x202b <_start+0xa>
    4746: 85 2b        	sta	$2b                     ; 0x202b <_start+0xa>
    4748: 20 75 89     	jsr	$8975 <cgetc>
    474b: c9 0d        	cmp	#$d
    474d: d0 03        	bne	$4752 <inputbox+0x8b>
    474f: 4c a9 47     	jmp	$47a9 <inputbox+0xe2>
    4752: c9 14        	cmp	#$14
    4754: f0 1c        	beq	$4772 <inputbox+0xab>
    4756: a4 4a        	ldy	$4a                     ; 0x204a <__after_main+0x2>
    4758: c0 37        	cpy	#$37
    475a: 90 30        	bcc	$478c <inputbox+0xc5>
    475c: b2 48        	lda	($48),z                 ; 0x2048 <__after_main>
    475e: f0 cf        	beq	$472f <inputbox+0x68>
    4760: a6 48        	ldx	$48                     ; 0x2048 <__after_main>
    4762: 86 04        	stx	$4                      ; 0x2004 <__heap_default_limit+0x1004>
    4764: a6 49        	ldx	$49                     ; 0x2049 <__after_main+0x1>
    4766: 86 05        	stx	$5                      ; 0x2005 <__heap_default_limit+0x1005>
    4768: a2 08        	ldx	#$8
    476a: a9 0c        	lda	#$c
    476c: 20 f0 87     	jsr	$87f0 <cputsxy>
    476f: 4c 37 47     	jmp	$4737 <inputbox+0x70>
    4772: a2 00        	ldx	#$0
    4774: a5 4a        	lda	$4a                     ; 0x204a <__after_main+0x2>
    4776: d0 03        	bne	$477b <inputbox+0xb4>
    4778: 4c 2b 47     	jmp	$472b <inputbox+0x64>
    477b: c6 32        	dec	$32                     ; 0x2032 <__do_init_stack+0x3>
    477d: a9 20        	lda	#$20
    477f: 20 3f 87     	jsr	$873f <cputc>
    4782: a4 4a        	ldy	$4a                     ; 0x204a <__after_main+0x2>
    4784: 88           	dey
    4785: a9 00        	lda	#$0
    4787: 5a           	phy
    4788: fa           	plx
    4789: 4c 29 47     	jmp	$4729 <inputbox+0x62>
    478c: c9 61        	cmp	#$61
    478e: b0 03        	bcs	$4793 <inputbox+0xcc>
    4790: 4c 26 47     	jmp	$4726 <inputbox+0x5f>
    4793: c9 7b        	cmp	#$7b
    4795: 90 03        	bcc	$479a <inputbox+0xd3>
    4797: 4c 26 47     	jmp	$4726 <inputbox+0x5f>
    479a: aa           	tax
    479b: ad 18 0d     	lda	$d18                    ; 0xd18 <__bss_size+0xa54>
    479e: 29 fd        	and	#$fd
    47a0: f0 1f        	beq	$47c1 <inputbox+0xfa>
    47a2: 18           	clc
    47a3: 8a           	txa
    47a4: 69 e0        	adc	#$e0
    47a6: 4c 26 47     	jmp	$4726 <inputbox+0x5f>
    47a9: c6 32        	dec	$32                     ; 0x2032 <__do_init_stack+0x3>
    47ab: a9 20        	lda	#$20
    47ad: 20 3f 87     	jsr	$873f <cputc>
    47b0: a2 01        	ldx	#$1
    47b2: 86 32        	stx	$32                     ; 0x2032 <__do_init_stack+0x3>
    47b4: a2 0a        	ldx	#$a
    47b6: 86 33        	stx	$33                     ; 0x2033 <__do_init_stack+0x4>
    47b8: a6 48        	ldx	$48                     ; 0x2048 <__after_main>
    47ba: 86 04        	stx	$4                      ; 0x2004 <__heap_default_limit+0x1004>
    47bc: a6 49        	ldx	$49                     ; 0x2049 <__after_main+0x1>
    47be: 86 05        	stx	$5                      ; 0x2005 <__heap_default_limit+0x1005>
    47c0: 60           	rts
    47c1: 8a           	txa
    47c2: 4c 26 47     	jmp	$4726 <inputbox+0x5f>

000047c5 <Deselect>:
    47c5: 0a           	asl
    47c6: a0 00        	ldy	#$0
    47c8: 64 05        	stz	$5                      ; 0x2005 <__heap_default_limit+0x1005>
    47ca: 26 05        	rol	$5                      ; 0x2005 <__heap_default_limit+0x1005>
    47cc: 0a           	asl
    47cd: 26 05        	rol	$5                      ; 0x2005 <__heap_default_limit+0x1005>
    47cf: 0a           	asl
    47d0: 85 06        	sta	$6                      ; 0x2006 <__heap_default_limit+0x1006>
    47d2: 26 05        	rol	$5                      ; 0x2005 <__heap_default_limit+0x1005>
    47d4: a6 05        	ldx	$5                      ; 0x2005 <__heap_default_limit+0x1005>
    47d6: 86 07        	stx	$7                      ; 0x2007 <__heap_default_limit+0x1007>
    47d8: 46 07        	lsr	$7                      ; 0x2007 <__heap_default_limit+0x1007>
    47da: 85 08        	sta	$8                      ; 0x2008 <__heap_default_limit+0x1008>
    47dc: 66 08        	ror	$8                      ; 0x2008 <__heap_default_limit+0x1008>
    47de: 98           	tya
    47df: 6a           	ror
    47e0: 46 07        	lsr	$7                      ; 0x2007 <__heap_default_limit+0x1007>
    47e2: 66 08        	ror	$8                      ; 0x2008 <__heap_default_limit+0x1008>
    47e4: 6a           	ror
    47e5: 46 07        	lsr	$7                      ; 0x2007 <__heap_default_limit+0x1007>
    47e7: 66 08        	ror	$8                      ; 0x2008 <__heap_default_limit+0x1008>
    47e9: 6a           	ror
    47ea: 38           	sec
    47eb: e5 06        	sbc	$6                      ; 0x2006 <__heap_default_limit+0x1006>
    47ed: 85 06        	sta	$6                      ; 0x2006 <__heap_default_limit+0x1006>
    47ef: a5 08        	lda	$8                      ; 0x2008 <__heap_default_limit+0x1008>
    47f1: e5 05        	sbc	$5                      ; 0x2005 <__heap_default_limit+0x1005>
    47f3: 85 05        	sta	$5                      ; 0x2005 <__heap_default_limit+0x1005>
    47f5: a9 8b        	lda	#$8b
    47f7: 18           	clc
    47f8: 65 06        	adc	$6                      ; 0x2006 <__heap_default_limit+0x1006>
    47fa: 85 06        	sta	$6                      ; 0x2006 <__heap_default_limit+0x1006>
    47fc: a9 9d        	lda	#$9d
    47fe: 65 05        	adc	$5                      ; 0x2005 <__heap_default_limit+0x1005>
    4800: 85 07        	sta	$7                      ; 0x2007 <__heap_default_limit+0x1007>
    4802: 80 07        	bra	$480b <Deselect+0x46>
    4804: a9 fe        	lda	#$fe
    4806: 31 06        	and	($6),y                  ; 0x2006 <__heap_default_limit+0x1006>
    4808: 91 06        	sta	($6),y                  ; 0x2006 <__heap_default_limit+0x1006>
    480a: c8           	iny
    480b: c0 f8        	cpy	#$f8
    480d: d0 f5        	bne	$4804 <Deselect+0x3f>
    480f: 60           	rts

00004810 <shortcutprint>:
    4810: 85 51        	sta	$51                     ; 0x2051 <_fini+0x6>
    4812: a6 06        	ldx	$6                      ; 0x2006 <__heap_default_limit+0x1006>
    4814: 86 53        	stx	$53                     ; 0x2053 <_fini+0x8>
    4816: a6 07        	ldx	$7                      ; 0x2007 <__heap_default_limit+0x1007>
    4818: 86 54        	stx	$54                     ; 0x2054 <_fini+0x9>
    481a: a6 2b        	ldx	$2b                     ; 0x202b <_start+0xa>
    481c: 86 52        	stx	$52                     ; 0x2052 <_fini+0x7>
    481e: a9 f0        	lda	#$f0
    4820: 25 2b        	and	$2b                     ; 0x202b <_start+0xa>
    4822: 09 01        	ora	#$1
    4824: 85 2b        	sta	$2b                     ; 0x202b <_start+0xa>
    4826: 20 8d 42     	jsr	$428d <msprintf>
    4829: a5 51        	lda	$51                     ; 0x2051 <_fini+0x6>
    482b: f0 04        	beq	$4831 <shortcutprint+0x21>
    482d: a2 03        	ldx	#$3
    482f: 80 02        	bra	$4833 <shortcutprint+0x23>
    4831: a2 0c        	ldx	#$c
    4833: 86 04        	stx	$4                      ; 0x2004 <__heap_default_limit+0x1004>
    4835: a5 52        	lda	$52                     ; 0x2052 <_fini+0x7>
    4837: 29 d0        	and	#$d0
    4839: 05 04        	ora	$4                      ; 0x2004 <__heap_default_limit+0x1004>
    483b: 85 51        	sta	$51                     ; 0x2051 <_fini+0x6>
    483d: 09 20        	ora	#$20
    483f: 85 2b        	sta	$2b                     ; 0x202b <_start+0xa>
    4841: a6 53        	ldx	$53                     ; 0x2053 <_fini+0x8>
    4843: 86 04        	stx	$4                      ; 0x2004 <__heap_default_limit+0x1004>
    4845: a6 54        	ldx	$54                     ; 0x2054 <_fini+0x9>
    4847: 86 05        	stx	$5                      ; 0x2005 <__heap_default_limit+0x1005>
    4849: 20 8d 42     	jsr	$428d <msprintf>
    484c: a6 51        	ldx	$51                     ; 0x2051 <_fini+0x6>
    484e: 86 2b        	stx	$2b                     ; 0x202b <_start+0xa>
    4850: 60           	rts

00004851 <shortcuts>:
    4851: 85 06        	sta	$6                      ; 0x2006 <__heap_default_limit+0x1006>
    4853: 86 04        	stx	$4                      ; 0x2004 <__heap_default_limit+0x1004>
    4855: a2 18        	ldx	#$18
    4857: 86 33        	stx	$33                     ; 0x2033 <__do_init_stack+0x4>
    4859: 06 04        	asl	$4                      ; 0x2004 <__heap_default_limit+0x1004>
    485b: 64 05        	stz	$5                      ; 0x2005 <__heap_default_limit+0x1005>
    485d: 26 05        	rol	$5                      ; 0x2005 <__heap_default_limit+0x1005>
    485f: a9 27        	lda	#$27
    4861: 18           	clc
    4862: 65 04        	adc	$4                      ; 0x2004 <__heap_default_limit+0x1004>
    4864: 85 04        	sta	$4                      ; 0x2004 <__heap_default_limit+0x1004>
    4866: a9 00        	lda	#$0
    4868: 65 05        	adc	$5                      ; 0x2005 <__heap_default_limit+0x1005>
    486a: 85 05        	sta	$5                      ; 0x2005 <__heap_default_limit+0x1005>
    486c: b2 04        	lda	($4),z                  ; 0x2004 <__heap_default_limit+0x1004>
    486e: aa           	tax
    486f: a0 01        	ldy	#$1
    4871: b1 04        	lda	($4),y                  ; 0x2004 <__heap_default_limit+0x1004>
    4873: 86 04        	stx	$4                      ; 0x2004 <__heap_default_limit+0x1004>
    4875: 85 05        	sta	$5                      ; 0x2005 <__heap_default_limit+0x1005>
    4877: a0 46        	ldy	#$46
    4879: a9 02        	lda	#$2
    487b: 31 04        	and	($4),y                  ; 0x2004 <__heap_default_limit+0x1004>
    487d: 64 32        	stz	$32                     ; 0x2032 <__do_init_stack+0x3>
    487f: f0 03        	beq	$4884 <shortcuts+0x33>
    4881: 4c 5b 49     	jmp	$495b <shortcuts+0x10a>
    4884: a5 06        	lda	$6                      ; 0x2006 <__heap_default_limit+0x1006>
    4886: 29 14        	and	#$14
    4888: d0 03        	bne	$488d <shortcuts+0x3c>
    488a: 4c e8 4a     	jmp	$4ae8 <shortcuts+0x297>
    488d: a2 3d        	ldx	#$3d
    488f: 86 04        	stx	$4                      ; 0x2004 <__heap_default_limit+0x1004>
    4891: a2 94        	ldx	#$94
    4893: 86 05        	stx	$5                      ; 0x2005 <__heap_default_limit+0x1005>
    4895: a2 4b        	ldx	#$4b
    4897: 86 06        	stx	$6                      ; 0x2006 <__heap_default_limit+0x1006>
    4899: a2 97        	ldx	#$97
    489b: 86 07        	stx	$7                      ; 0x2007 <__heap_default_limit+0x1007>
    489d: a9 00        	lda	#$0
    489f: 20 10 48     	jsr	$4810 <shortcutprint>
    48a2: a2 96        	ldx	#$96
    48a4: 86 04        	stx	$4                      ; 0x2004 <__heap_default_limit+0x1004>
    48a6: a2 93        	ldx	#$93
    48a8: 86 05        	stx	$5                      ; 0x2005 <__heap_default_limit+0x1005>
    48aa: a2 32        	ldx	#$32
    48ac: 86 06        	stx	$6                      ; 0x2006 <__heap_default_limit+0x1006>
    48ae: a2 93        	ldx	#$93
    48b0: 86 07        	stx	$7                      ; 0x2007 <__heap_default_limit+0x1007>
    48b2: a9 00        	lda	#$0
    48b4: 20 10 48     	jsr	$4810 <shortcutprint>
    48b7: a2 52        	ldx	#$52
    48b9: 86 04        	stx	$4                      ; 0x2004 <__heap_default_limit+0x1004>
    48bb: a2 97        	ldx	#$97
    48bd: 86 05        	stx	$5                      ; 0x2005 <__heap_default_limit+0x1005>
    48bf: a2 40        	ldx	#$40
    48c1: 86 06        	stx	$6                      ; 0x2006 <__heap_default_limit+0x1006>
    48c3: a2 94        	ldx	#$94
    48c5: 86 07        	stx	$7                      ; 0x2007 <__heap_default_limit+0x1007>
    48c7: a9 00        	lda	#$0
    48c9: 20 10 48     	jsr	$4810 <shortcutprint>
    48cc: a2 4d        	ldx	#$4d
    48ce: 86 04        	stx	$4                      ; 0x2004 <__heap_default_limit+0x1004>
    48d0: a2 95        	ldx	#$95
    48d2: 86 05        	stx	$5                      ; 0x2005 <__heap_default_limit+0x1005>
    48d4: a2 4f        	ldx	#$4f
    48d6: 86 06        	stx	$6                      ; 0x2006 <__heap_default_limit+0x1006>
    48d8: a2 96        	ldx	#$96
    48da: 86 07        	stx	$7                      ; 0x2007 <__heap_default_limit+0x1007>
    48dc: a9 00        	lda	#$0
    48de: 20 10 48     	jsr	$4810 <shortcutprint>
    48e1: a2 e6        	ldx	#$e6
    48e3: 86 04        	stx	$4                      ; 0x2004 <__heap_default_limit+0x1004>
    48e5: a2 91        	ldx	#$91
    48e7: 86 05        	stx	$5                      ; 0x2005 <__heap_default_limit+0x1005>
    48e9: a2 cc        	ldx	#$cc
    48eb: 86 06        	stx	$6                      ; 0x2006 <__heap_default_limit+0x1006>
    48ed: a2 92        	ldx	#$92
    48ef: 86 07        	stx	$7                      ; 0x2007 <__heap_default_limit+0x1007>
    48f1: a9 00        	lda	#$0
    48f3: 20 10 48     	jsr	$4810 <shortcutprint>
    48f6: a2 b9        	ldx	#$b9
    48f8: 86 04        	stx	$4                      ; 0x2004 <__heap_default_limit+0x1004>
    48fa: a2 94        	ldx	#$94
    48fc: 86 05        	stx	$5                      ; 0x2005 <__heap_default_limit+0x1005>
    48fe: a2 60        	ldx	#$60
    4900: 86 06        	stx	$6                      ; 0x2006 <__heap_default_limit+0x1006>
    4902: a2 91        	ldx	#$91
    4904: 86 07        	stx	$7                      ; 0x2007 <__heap_default_limit+0x1007>
    4906: a9 00        	lda	#$0
    4908: 20 10 48     	jsr	$4810 <shortcutprint>
    490b: a2 f9        	ldx	#$f9
    490d: 86 04        	stx	$4                      ; 0x2004 <__heap_default_limit+0x1004>
    490f: a2 98        	ldx	#$98
    4911: 86 05        	stx	$5                      ; 0x2005 <__heap_default_limit+0x1005>
    4913: a2 1b        	ldx	#$1b
    4915: 86 06        	stx	$6                      ; 0x2006 <__heap_default_limit+0x1006>
    4917: a2 92        	ldx	#$92
    4919: 86 07        	stx	$7                      ; 0x2007 <__heap_default_limit+0x1007>
    491b: a9 00        	lda	#$0
    491d: 20 10 48     	jsr	$4810 <shortcutprint>
    4920: a2 9b        	ldx	#$9b
    4922: 86 04        	stx	$4                      ; 0x2004 <__heap_default_limit+0x1004>
    4924: a2 9a        	ldx	#$9a
    4926: 86 05        	stx	$5                      ; 0x2005 <__heap_default_limit+0x1005>
    4928: a2 7f        	ldx	#$7f
    492a: 86 06        	stx	$6                      ; 0x2006 <__heap_default_limit+0x1006>
    492c: a2 98        	ldx	#$98
    492e: 86 07        	stx	$7                      ; 0x2007 <__heap_default_limit+0x1007>
    4930: a9 00        	lda	#$0
    4932: 20 10 48     	jsr	$4810 <shortcutprint>
    4935: a2 ea        	ldx	#$ea
    4937: 86 04        	stx	$4                      ; 0x2004 <__heap_default_limit+0x1004>
    4939: a2 97        	ldx	#$97
    493b: 86 05        	stx	$5                      ; 0x2005 <__heap_default_limit+0x1005>
    493d: a2 7e        	ldx	#$7e
    493f: 86 06        	stx	$6                      ; 0x2006 <__heap_default_limit+0x1006>
    4941: a2 99        	ldx	#$99
    4943: 86 07        	stx	$7                      ; 0x2007 <__heap_default_limit+0x1007>
    4945: a9 00        	lda	#$0
    4947: 20 10 48     	jsr	$4810 <shortcutprint>
    494a: a2 e9        	ldx	#$e9
    494c: 86 04        	stx	$4                      ; 0x2004 <__heap_default_limit+0x1004>
    494e: a2 91        	ldx	#$91
    4950: 86 05        	stx	$5                      ; 0x2005 <__heap_default_limit+0x1005>
    4952: a2 ed        	ldx	#$ed
    4954: 86 06        	stx	$6                      ; 0x2006 <__heap_default_limit+0x1006>
    4956: a2 97        	ldx	#$97
    4958: 4c c8 4b     	jmp	$4bc8 <shortcuts+0x377>
    495b: a9 f0        	lda	#$f0
    495d: 25 2b        	and	$2b                     ; 0x202b <_start+0xa>
    495f: 09 07        	ora	#$7
    4961: 85 2b        	sta	$2b                     ; 0x202b <_start+0xa>
    4963: a2 a8        	ldx	#$a8
    4965: 86 04        	stx	$4                      ; 0x2004 <__heap_default_limit+0x1004>
    4967: a2 94        	ldx	#$94
    4969: 86 05        	stx	$5                      ; 0x2005 <__heap_default_limit+0x1005>
    496b: 20 8d 42     	jsr	$428d <msprintf>
    496e: a2 90        	ldx	#$90
    4970: 86 04        	stx	$4                      ; 0x2004 <__heap_default_limit+0x1004>
    4972: a2 9a        	ldx	#$9a
    4974: 86 05        	stx	$5                      ; 0x2005 <__heap_default_limit+0x1005>
    4976: a2 47        	ldx	#$47
    4978: 86 06        	stx	$6                      ; 0x2006 <__heap_default_limit+0x1006>
    497a: a2 94        	ldx	#$94
    497c: 86 07        	stx	$7                      ; 0x2007 <__heap_default_limit+0x1007>
    497e: a9 01        	lda	#$1
    4980: 20 10 48     	jsr	$4810 <shortcutprint>
    4983: a2 e8        	ldx	#$e8
    4985: 86 04        	stx	$4                      ; 0x2004 <__heap_default_limit+0x1004>
    4987: a2 9a        	ldx	#$9a
    4989: 86 05        	stx	$5                      ; 0x2005 <__heap_default_limit+0x1005>
    498b: a2 93        	ldx	#$93
    498d: 86 06        	stx	$6                      ; 0x2006 <__heap_default_limit+0x1006>
    498f: a2 9b        	ldx	#$9b
    4991: 86 07        	stx	$7                      ; 0x2007 <__heap_default_limit+0x1007>
    4993: a9 01        	lda	#$1
    4995: 20 10 48     	jsr	$4810 <shortcutprint>
    4998: a2 46        	ldx	#$46
    499a: 86 04        	stx	$4                      ; 0x2004 <__heap_default_limit+0x1004>
    499c: a2 95        	ldx	#$95
    499e: 86 05        	stx	$5                      ; 0x2005 <__heap_default_limit+0x1005>
    49a0: a2 71        	ldx	#$71
    49a2: 86 06        	stx	$6                      ; 0x2006 <__heap_default_limit+0x1006>
    49a4: a2 98        	ldx	#$98
    49a6: 86 07        	stx	$7                      ; 0x2007 <__heap_default_limit+0x1007>
    49a8: a9 01        	lda	#$1
    49aa: 20 10 48     	jsr	$4810 <shortcutprint>
    49ad: a2 67        	ldx	#$67
    49af: 86 04        	stx	$4                      ; 0x2004 <__heap_default_limit+0x1004>
    49b1: a2 96        	ldx	#$96
    49b3: 86 05        	stx	$5                      ; 0x2005 <__heap_default_limit+0x1005>
    49b5: a2 ba        	ldx	#$ba
    49b7: 86 06        	stx	$6                      ; 0x2006 <__heap_default_limit+0x1006>
    49b9: a2 96        	ldx	#$96
    49bb: 86 07        	stx	$7                      ; 0x2007 <__heap_default_limit+0x1007>
    49bd: a9 01        	lda	#$1
    49bf: 20 10 48     	jsr	$4810 <shortcutprint>
    49c2: a2 93        	ldx	#$93
    49c4: 86 04        	stx	$4                      ; 0x2004 <__heap_default_limit+0x1004>
    49c6: a2 9a        	ldx	#$9a
    49c8: 86 05        	stx	$5                      ; 0x2005 <__heap_default_limit+0x1005>
    49ca: a2 79        	ldx	#$79
    49cc: 86 06        	stx	$6                      ; 0x2006 <__heap_default_limit+0x1006>
    49ce: a2 99        	ldx	#$99
    49d0: 86 07        	stx	$7                      ; 0x2007 <__heap_default_limit+0x1007>
    49d2: a9 01        	lda	#$1
    49d4: 20 10 48     	jsr	$4810 <shortcutprint>
    49d7: a4 30        	ldy	$30                     ; 0x2030 <__do_init_stack+0x1>
    49d9: 84 48        	sty	$48                     ; 0x2048 <__after_main>
    49db: a6 31        	ldx	$31                     ; 0x2031 <__do_init_stack+0x2>
    49dd: 86 06        	stx	$6                      ; 0x2006 <__heap_default_limit+0x1006>
    49df: ad 63 d0     	lda	$d063                   ; 0xd063 <__heap_start+0x3069>
    49e2: 29 07        	and	#$7
    49e4: 85 4a        	sta	$4a                     ; 0x204a <__after_main+0x2>
    49e6: ae 62 d0     	ldx	$d062                   ; 0xd062 <__heap_start+0x3068>
    49e9: 86 4b        	stx	$4b                     ; 0x204b <_fini>
    49eb: ae 61 d0     	ldx	$d061                   ; 0xd061 <__heap_start+0x3067>
    49ee: 86 4f        	stx	$4f                     ; 0x204f <_fini+0x4>
    49f0: ae 60 d0     	ldx	$d060                   ; 0xd060 <__heap_start+0x3066>
    49f3: 86 50        	stx	$50                     ; 0x2050 <_fini+0x5>
    49f5: 84 04        	sty	$4                      ; 0x2004 <__heap_default_limit+0x1004>
    49f7: 64 05        	stz	$5                      ; 0x2005 <__heap_default_limit+0x1005>
    49f9: a2 00        	ldx	#$0
    49fb: a5 06        	lda	$6                      ; 0x2006 <__heap_default_limit+0x1006>
    49fd: 20 2e 8c     	jsr	$8c2e <__mulhi3>
    4a00: 85 06        	sta	$6                      ; 0x2006 <__heap_default_limit+0x1006>
    4a02: 85 4e        	sta	$4e                     ; 0x204e <_fini+0x3>
    4a04: 86 05        	stx	$5                      ; 0x2005 <__heap_default_limit+0x1005>
    4a06: 86 4d        	stx	$4d                     ; 0x204d <_fini+0x2>
    4a08: a6 48        	ldx	$48                     ; 0x2048 <__after_main>
    4a0a: 86 04        	stx	$4                      ; 0x2004 <__heap_default_limit+0x1004>
    4a0c: 86 48        	stx	$48                     ; 0x2048 <__after_main>
    4a0e: 86 07        	stx	$7                      ; 0x2007 <__heap_default_limit+0x1007>
    4a10: 86 4c        	stx	$4c                     ; 0x204c <_fini+0x1>
    4a12: 38           	sec
    4a13: a6 50        	ldx	$50                     ; 0x2050 <_fini+0x5>
    4a15: 8a           	txa
    4a16: e5 07        	sbc	$7                      ; 0x2007 <__heap_default_limit+0x1007>
    4a18: a8           	tay
    4a19: a6 4f        	ldx	$4f                     ; 0x204f <_fini+0x4>
    4a1b: 8a           	txa
    4a1c: e9 00        	sbc	#$0
    4a1e: 85 0a        	sta	$a                      ; 0x200a <__heap_default_limit+0x100a>
    4a20: a6 4b        	ldx	$4b                     ; 0x204b <_fini>
    4a22: 8a           	txa
    4a23: e9 00        	sbc	#$0
    4a25: 85 08        	sta	$8                      ; 0x2008 <__heap_default_limit+0x1008>
    4a27: a5 4a        	lda	$4a                     ; 0x204a <__after_main+0x2>
    4a29: e9 00        	sbc	#$0
    4a2b: 85 07        	sta	$7                      ; 0x2007 <__heap_default_limit+0x1007>
    4a2d: 18           	clc
    4a2e: 98           	tya
    4a2f: 65 32        	adc	$32                     ; 0x2032 <__do_init_stack+0x3>
    4a31: 85 09        	sta	$9                      ; 0x2009 <__heap_default_limit+0x1009>
    4a33: a5 0a        	lda	$a                      ; 0x200a <__heap_default_limit+0x100a>
    4a35: 69 00        	adc	#$0
    4a37: aa           	tax
    4a38: a5 08        	lda	$8                      ; 0x2008 <__heap_default_limit+0x1008>
    4a3a: 69 00        	adc	#$0
    4a3c: 85 08        	sta	$8                      ; 0x2008 <__heap_default_limit+0x1008>
    4a3e: a5 07        	lda	$7                      ; 0x2007 <__heap_default_limit+0x1007>
    4a40: 69 00        	adc	#$0
    4a42: 85 07        	sta	$7                      ; 0x2007 <__heap_default_limit+0x1007>
    4a44: 18           	clc
    4a45: a5 09        	lda	$9                      ; 0x2009 <__heap_default_limit+0x1009>
    4a47: 65 06        	adc	$6                      ; 0x2006 <__heap_default_limit+0x1006>
    4a49: 85 0a        	sta	$a                      ; 0x200a <__heap_default_limit+0x100a>
    4a4b: 8a           	txa
    4a4c: 65 05        	adc	$5                      ; 0x2005 <__heap_default_limit+0x1005>
    4a4e: 85 09        	sta	$9                      ; 0x2009 <__heap_default_limit+0x1009>
    4a50: a5 08        	lda	$8                      ; 0x2008 <__heap_default_limit+0x1008>
    4a52: 69 00        	adc	#$0
    4a54: a8           	tay
    4a55: a5 07        	lda	$7                      ; 0x2007 <__heap_default_limit+0x1007>
    4a57: 69 00        	adc	#$0
    4a59: 85 05        	sta	$5                      ; 0x2005 <__heap_default_limit+0x1005>
    4a5b: a5 04        	lda	$4                      ; 0x2004 <__heap_default_limit+0x1004>
    4a5d: 38           	sec
    4a5e: e5 32        	sbc	$32                     ; 0x2032 <__do_init_stack+0x3>
    4a60: 85 07        	sta	$7                      ; 0x2007 <__heap_default_limit+0x1007>
    4a62: a9 00        	lda	#$0
    4a64: e9 00        	sbc	#$0
    4a66: a2 20        	ldx	#$20
    4a68: 84 04        	sty	$4                      ; 0x2004 <__heap_default_limit+0x1004>
    4a6a: 86 06        	stx	$6                      ; 0x2006 <__heap_default_limit+0x1006>
    4a6c: 85 08        	sta	$8                      ; 0x2008 <__heap_default_limit+0x1008>
    4a6e: a6 09        	ldx	$9                      ; 0x2009 <__heap_default_limit+0x1009>
    4a70: a5 0a        	lda	$a                      ; 0x200a <__heap_default_limit+0x100a>
    4a72: 20 0c 8a     	jsr	$8a0c <lfill>
    4a75: a5 32        	lda	$32                     ; 0x2032 <__do_init_stack+0x3>
    4a77: 38           	sec
    4a78: a6 4c        	ldx	$4c                     ; 0x204c <_fini+0x1>
    4a7a: 86 04        	stx	$4                      ; 0x2004 <__heap_default_limit+0x1004>
    4a7c: e5 04        	sbc	$4                      ; 0x2004 <__heap_default_limit+0x1004>
    4a7e: aa           	tax
    4a7f: a9 00        	lda	#$0
    4a81: e9 00        	sbc	#$0
    4a83: 85 04        	sta	$4                      ; 0x2004 <__heap_default_limit+0x1004>
    4a85: a9 00        	lda	#$0
    4a87: e9 00        	sbc	#$0
    4a89: a8           	tay
    4a8a: a9 00        	lda	#$0
    4a8c: e9 00        	sbc	#$0
    4a8e: 85 06        	sta	$6                      ; 0x2006 <__heap_default_limit+0x1006>
    4a90: 8a           	txa
    4a91: 18           	clc
    4a92: a6 4e        	ldx	$4e                     ; 0x204e <_fini+0x3>
    4a94: 86 05        	stx	$5                      ; 0x2005 <__heap_default_limit+0x1005>
    4a96: 65 05        	adc	$5                      ; 0x2005 <__heap_default_limit+0x1005>
    4a98: 85 08        	sta	$8                      ; 0x2008 <__heap_default_limit+0x1008>
    4a9a: a5 04        	lda	$4                      ; 0x2004 <__heap_default_limit+0x1004>
    4a9c: a6 4d        	ldx	$4d                     ; 0x204d <_fini+0x2>
    4a9e: 86 04        	stx	$4                      ; 0x2004 <__heap_default_limit+0x1004>
    4aa0: 65 04        	adc	$4                      ; 0x2004 <__heap_default_limit+0x1004>
    4aa2: 85 04        	sta	$4                      ; 0x2004 <__heap_default_limit+0x1004>
    4aa4: 98           	tya
    4aa5: 69 00        	adc	#$0
    4aa7: 85 05        	sta	$5                      ; 0x2005 <__heap_default_limit+0x1005>
    4aa9: a5 06        	lda	$6                      ; 0x2006 <__heap_default_limit+0x1006>
    4aab: 69 00        	adc	#$0
    4aad: 85 07        	sta	$7                      ; 0x2007 <__heap_default_limit+0x1007>
    4aaf: 18           	clc
    4ab0: a5 08        	lda	$8                      ; 0x2008 <__heap_default_limit+0x1008>
    4ab2: 69 00        	adc	#$0
    4ab4: a8           	tay
    4ab5: a5 04        	lda	$4                      ; 0x2004 <__heap_default_limit+0x1004>
    4ab7: 69 00        	adc	#$0
    4ab9: 85 09        	sta	$9                      ; 0x2009 <__heap_default_limit+0x1009>
    4abb: a5 05        	lda	$5                      ; 0x2005 <__heap_default_limit+0x1005>
    4abd: 69 f8        	adc	#$f8
    4abf: 85 06        	sta	$6                      ; 0x2006 <__heap_default_limit+0x1006>
    4ac1: a5 07        	lda	$7                      ; 0x2007 <__heap_default_limit+0x1007>
    4ac3: 69 0f        	adc	#$f
    4ac5: 85 05        	sta	$5                      ; 0x2005 <__heap_default_limit+0x1005>
    4ac7: a6 48        	ldx	$48                     ; 0x2048 <__after_main>
    4ac9: 8a           	txa
    4aca: 38           	sec
    4acb: e5 32        	sbc	$32                     ; 0x2032 <__do_init_stack+0x3>
    4acd: 85 07        	sta	$7                      ; 0x2007 <__heap_default_limit+0x1007>
    4acf: a9 00        	lda	#$0
    4ad1: e9 00        	sbc	#$0
    4ad3: a2 03        	ldx	#$3
    4ad5: 5a           	phy
    4ad6: a4 06        	ldy	$6                      ; 0x2006 <__heap_default_limit+0x1006>
    4ad8: 84 04        	sty	$4                      ; 0x2004 <__heap_default_limit+0x1004>
    4ada: 7a           	ply
    4adb: 86 06        	stx	$6                      ; 0x2006 <__heap_default_limit+0x1006>
    4add: 85 08        	sta	$8                      ; 0x2008 <__heap_default_limit+0x1008>
    4adf: a6 09        	ldx	$9                      ; 0x2009 <__heap_default_limit+0x1009>
    4ae1: 98           	tya
    4ae2: 20 0c 8a     	jsr	$8a0c <lfill>
    4ae5: 4c cf 4b     	jmp	$4bcf <shortcuts+0x37e>
    4ae8: a5 06        	lda	$6                      ; 0x2006 <__heap_default_limit+0x1006>
    4aea: 29 09        	and	#$9
    4aec: c9 09        	cmp	#$9
    4aee: f0 0d        	beq	$4afd <shortcuts+0x2ac>
    4af0: a6 06        	ldx	$6                      ; 0x2006 <__heap_default_limit+0x1006>
    4af2: a5 06        	lda	$6                      ; 0x2006 <__heap_default_limit+0x1006>
    4af4: 29 0a        	and	#$a
    4af6: c9 0a        	cmp	#$a
    4af8: f0 03        	beq	$4afd <shortcuts+0x2ac>
    4afa: 4c d8 4b     	jmp	$4bd8 <shortcuts+0x387>
    4afd: a2 3d        	ldx	#$3d
    4aff: 86 04        	stx	$4                      ; 0x2004 <__heap_default_limit+0x1004>
    4b01: a2 94        	ldx	#$94
    4b03: 86 05        	stx	$5                      ; 0x2005 <__heap_default_limit+0x1005>
    4b05: a2 ed        	ldx	#$ed
    4b07: 86 06        	stx	$6                      ; 0x2006 <__heap_default_limit+0x1006>
    4b09: a2 94        	ldx	#$94
    4b0b: 86 07        	stx	$7                      ; 0x2007 <__heap_default_limit+0x1007>
    4b0d: a9 00        	lda	#$0
    4b0f: 20 10 48     	jsr	$4810 <shortcutprint>
    4b12: a2 96        	ldx	#$96
    4b14: 86 04        	stx	$4                      ; 0x2004 <__heap_default_limit+0x1004>
    4b16: a2 93        	ldx	#$93
    4b18: 86 05        	stx	$5                      ; 0x2005 <__heap_default_limit+0x1005>
    4b1a: a2 ed        	ldx	#$ed
    4b1c: 86 06        	stx	$6                      ; 0x2006 <__heap_default_limit+0x1006>
    4b1e: a2 94        	ldx	#$94
    4b20: 86 07        	stx	$7                      ; 0x2007 <__heap_default_limit+0x1007>
    4b22: a9 00        	lda	#$0
    4b24: 20 10 48     	jsr	$4810 <shortcutprint>
    4b27: a2 52        	ldx	#$52
    4b29: 86 04        	stx	$4                      ; 0x2004 <__heap_default_limit+0x1004>
    4b2b: a2 97        	ldx	#$97
    4b2d: 86 05        	stx	$5                      ; 0x2005 <__heap_default_limit+0x1005>
    4b2f: a2 ed        	ldx	#$ed
    4b31: 86 06        	stx	$6                      ; 0x2006 <__heap_default_limit+0x1006>
    4b33: a2 94        	ldx	#$94
    4b35: 86 07        	stx	$7                      ; 0x2007 <__heap_default_limit+0x1007>
    4b37: a9 00        	lda	#$0
    4b39: 20 10 48     	jsr	$4810 <shortcutprint>
    4b3c: a2 4d        	ldx	#$4d
    4b3e: 86 04        	stx	$4                      ; 0x2004 <__heap_default_limit+0x1004>
    4b40: a2 95        	ldx	#$95
    4b42: 86 05        	stx	$5                      ; 0x2005 <__heap_default_limit+0x1005>
    4b44: a2 ed        	ldx	#$ed
    4b46: 86 06        	stx	$6                      ; 0x2006 <__heap_default_limit+0x1006>
    4b48: a2 94        	ldx	#$94
    4b4a: 86 07        	stx	$7                      ; 0x2007 <__heap_default_limit+0x1007>
    4b4c: a9 00        	lda	#$0
    4b4e: 20 10 48     	jsr	$4810 <shortcutprint>
    4b51: a2 e6        	ldx	#$e6
    4b53: 86 04        	stx	$4                      ; 0x2004 <__heap_default_limit+0x1004>
    4b55: a2 91        	ldx	#$91
    4b57: 86 05        	stx	$5                      ; 0x2005 <__heap_default_limit+0x1005>
    4b59: a2 ed        	ldx	#$ed
    4b5b: 86 06        	stx	$6                      ; 0x2006 <__heap_default_limit+0x1006>
    4b5d: a2 94        	ldx	#$94
    4b5f: 86 07        	stx	$7                      ; 0x2007 <__heap_default_limit+0x1007>
    4b61: a9 00        	lda	#$0
    4b63: 20 10 48     	jsr	$4810 <shortcutprint>
    4b66: a2 b9        	ldx	#$b9
    4b68: 86 04        	stx	$4                      ; 0x2004 <__heap_default_limit+0x1004>
    4b6a: a2 94        	ldx	#$94
    4b6c: 86 05        	stx	$5                      ; 0x2005 <__heap_default_limit+0x1005>
    4b6e: a2 ed        	ldx	#$ed
    4b70: 86 06        	stx	$6                      ; 0x2006 <__heap_default_limit+0x1006>
    4b72: a2 94        	ldx	#$94
    4b74: 86 07        	stx	$7                      ; 0x2007 <__heap_default_limit+0x1007>
    4b76: a9 00        	lda	#$0
    4b78: 20 10 48     	jsr	$4810 <shortcutprint>
    4b7b: a2 f9        	ldx	#$f9
    4b7d: 86 04        	stx	$4                      ; 0x2004 <__heap_default_limit+0x1004>
    4b7f: a2 98        	ldx	#$98
    4b81: 86 05        	stx	$5                      ; 0x2005 <__heap_default_limit+0x1005>
    4b83: a2 ed        	ldx	#$ed
    4b85: 86 06        	stx	$6                      ; 0x2006 <__heap_default_limit+0x1006>
    4b87: a2 94        	ldx	#$94
    4b89: 86 07        	stx	$7                      ; 0x2007 <__heap_default_limit+0x1007>
    4b8b: a9 00        	lda	#$0
    4b8d: 20 10 48     	jsr	$4810 <shortcutprint>
    4b90: a2 9b        	ldx	#$9b
    4b92: 86 04        	stx	$4                      ; 0x2004 <__heap_default_limit+0x1004>
    4b94: a2 9a        	ldx	#$9a
    4b96: 86 05        	stx	$5                      ; 0x2005 <__heap_default_limit+0x1005>
    4b98: a2 ed        	ldx	#$ed
    4b9a: 86 06        	stx	$6                      ; 0x2006 <__heap_default_limit+0x1006>
    4b9c: a2 94        	ldx	#$94
    4b9e: 86 07        	stx	$7                      ; 0x2007 <__heap_default_limit+0x1007>
    4ba0: a9 00        	lda	#$0
    4ba2: 20 10 48     	jsr	$4810 <shortcutprint>
    4ba5: a2 ea        	ldx	#$ea
    4ba7: 86 04        	stx	$4                      ; 0x2004 <__heap_default_limit+0x1004>
    4ba9: a2 97        	ldx	#$97
    4bab: 86 05        	stx	$5                      ; 0x2005 <__heap_default_limit+0x1005>
    4bad: a2 ed        	ldx	#$ed
    4baf: 86 06        	stx	$6                      ; 0x2006 <__heap_default_limit+0x1006>
    4bb1: a2 94        	ldx	#$94
    4bb3: 86 07        	stx	$7                      ; 0x2007 <__heap_default_limit+0x1007>
    4bb5: a9 00        	lda	#$0
    4bb7: 20 10 48     	jsr	$4810 <shortcutprint>
    4bba: a2 e9        	ldx	#$e9
    4bbc: 86 04        	stx	$4                      ; 0x2004 <__heap_default_limit+0x1004>
    4bbe: a2 91        	ldx	#$91
    4bc0: 86 05        	stx	$5                      ; 0x2005 <__heap_default_limit+0x1005>
    4bc2: a2 c0        	ldx	#$c0
    4bc4: 86 06        	stx	$6                      ; 0x2006 <__heap_default_limit+0x1006>
    4bc6: a2 96        	ldx	#$96
    4bc8: 86 07        	stx	$7                      ; 0x2007 <__heap_default_limit+0x1007>
    4bca: a9 00        	lda	#$0
    4bcc: 20 10 48     	jsr	$4810 <shortcutprint>
    4bcf: a9 f0        	lda	#$f0
    4bd1: 25 2b        	and	$2b                     ; 0x202b <_start+0xa>
    4bd3: 09 03        	ora	#$3
    4bd5: 85 2b        	sta	$2b                     ; 0x202b <_start+0xa>
    4bd7: 60           	rts
    4bd8: a4 06        	ldy	$6                      ; 0x2006 <__heap_default_limit+0x1006>
    4bda: 8a           	txa
    4bdb: 29 08        	and	#$8
    4bdd: f0 03        	beq	$4be2 <shortcuts+0x391>
    4bdf: 4c a7 4c     	jmp	$4ca7 <shortcuts+0x456>
    4be2: 98           	tya
    4be3: 29 03        	and	#$3
    4be5: d0 03        	bne	$4bea <shortcuts+0x399>
    4be7: 4c 9c 4d     	jmp	$4d9c <shortcuts+0x54b>
    4bea: a2 3d        	ldx	#$3d
    4bec: 86 04        	stx	$4                      ; 0x2004 <__heap_default_limit+0x1004>
    4bee: a2 94        	ldx	#$94
    4bf0: 86 05        	stx	$5                      ; 0x2005 <__heap_default_limit+0x1005>
    4bf2: a2 32        	ldx	#$32
    4bf4: 86 06        	stx	$6                      ; 0x2006 <__heap_default_limit+0x1006>
    4bf6: a2 93        	ldx	#$93
    4bf8: 86 07        	stx	$7                      ; 0x2007 <__heap_default_limit+0x1007>
    4bfa: a9 01        	lda	#$1
    4bfc: 20 10 48     	jsr	$4810 <shortcutprint>
    4bff: a2 96        	ldx	#$96
    4c01: 86 04        	stx	$4                      ; 0x2004 <__heap_default_limit+0x1004>
    4c03: a2 93        	ldx	#$93
    4c05: 86 05        	stx	$5                      ; 0x2005 <__heap_default_limit+0x1005>
    4c07: a2 ed        	ldx	#$ed
    4c09: 86 06        	stx	$6                      ; 0x2006 <__heap_default_limit+0x1006>
    4c0b: a2 94        	ldx	#$94
    4c0d: 86 07        	stx	$7                      ; 0x2007 <__heap_default_limit+0x1007>
    4c0f: a9 00        	lda	#$0
    4c11: 20 10 48     	jsr	$4810 <shortcutprint>
    4c14: a2 52        	ldx	#$52
    4c16: 86 04        	stx	$4                      ; 0x2004 <__heap_default_limit+0x1004>
    4c18: a2 97        	ldx	#$97
    4c1a: 86 05        	stx	$5                      ; 0x2005 <__heap_default_limit+0x1005>
    4c1c: a2 4f        	ldx	#$4f
    4c1e: 86 06        	stx	$6                      ; 0x2006 <__heap_default_limit+0x1006>
    4c20: a2 96        	ldx	#$96
    4c22: 86 07        	stx	$7                      ; 0x2007 <__heap_default_limit+0x1007>
    4c24: a9 00        	lda	#$0
    4c26: 20 10 48     	jsr	$4810 <shortcutprint>
    4c29: a2 4d        	ldx	#$4d
    4c2b: 86 04        	stx	$4                      ; 0x2004 <__heap_default_limit+0x1004>
    4c2d: a2 95        	ldx	#$95
    4c2f: 86 05        	stx	$5                      ; 0x2005 <__heap_default_limit+0x1005>
    4c31: a2 ed        	ldx	#$ed
    4c33: 86 06        	stx	$6                      ; 0x2006 <__heap_default_limit+0x1006>
    4c35: a2 94        	ldx	#$94
    4c37: 86 07        	stx	$7                      ; 0x2007 <__heap_default_limit+0x1007>
    4c39: a9 00        	lda	#$0
    4c3b: 20 10 48     	jsr	$4810 <shortcutprint>
    4c3e: a2 e6        	ldx	#$e6
    4c40: 86 04        	stx	$4                      ; 0x2004 <__heap_default_limit+0x1004>
    4c42: a2 91        	ldx	#$91
    4c44: 86 05        	stx	$5                      ; 0x2005 <__heap_default_limit+0x1005>
    4c46: a2 60        	ldx	#$60
    4c48: 86 06        	stx	$6                      ; 0x2006 <__heap_default_limit+0x1006>
    4c4a: a2 91        	ldx	#$91
    4c4c: 86 07        	stx	$7                      ; 0x2007 <__heap_default_limit+0x1007>
    4c4e: a9 01        	lda	#$1
    4c50: 20 10 48     	jsr	$4810 <shortcutprint>
    4c53: a2 b9        	ldx	#$b9
    4c55: 86 04        	stx	$4                      ; 0x2004 <__heap_default_limit+0x1004>
    4c57: a2 94        	ldx	#$94
    4c59: 86 05        	stx	$5                      ; 0x2005 <__heap_default_limit+0x1005>
    4c5b: a2 ed        	ldx	#$ed
    4c5d: 86 06        	stx	$6                      ; 0x2006 <__heap_default_limit+0x1006>
    4c5f: a2 94        	ldx	#$94
    4c61: 86 07        	stx	$7                      ; 0x2007 <__heap_default_limit+0x1007>
    4c63: a9 00        	lda	#$0
    4c65: 20 10 48     	jsr	$4810 <shortcutprint>
    4c68: a2 f9        	ldx	#$f9
    4c6a: 86 04        	stx	$4                      ; 0x2004 <__heap_default_limit+0x1004>
    4c6c: a2 98        	ldx	#$98
    4c6e: 86 05        	stx	$5                      ; 0x2005 <__heap_default_limit+0x1005>
    4c70: a2 7f        	ldx	#$7f
    4c72: 86 06        	stx	$6                      ; 0x2006 <__heap_default_limit+0x1006>
    4c74: a2 98        	ldx	#$98
    4c76: 86 07        	stx	$7                      ; 0x2007 <__heap_default_limit+0x1007>
    4c78: a9 01        	lda	#$1
    4c7a: 20 10 48     	jsr	$4810 <shortcutprint>
    4c7d: a2 9b        	ldx	#$9b
    4c7f: 86 04        	stx	$4                      ; 0x2004 <__heap_default_limit+0x1004>
    4c81: a2 9a        	ldx	#$9a
    4c83: 86 05        	stx	$5                      ; 0x2005 <__heap_default_limit+0x1005>
    4c85: a2 ed        	ldx	#$ed
    4c87: 86 06        	stx	$6                      ; 0x2006 <__heap_default_limit+0x1006>
    4c89: a2 94        	ldx	#$94
    4c8b: 86 07        	stx	$7                      ; 0x2007 <__heap_default_limit+0x1007>
    4c8d: a9 00        	lda	#$0
    4c8f: 20 10 48     	jsr	$4810 <shortcutprint>
    4c92: a2 ea        	ldx	#$ea
    4c94: 86 04        	stx	$4                      ; 0x2004 <__heap_default_limit+0x1004>
    4c96: a2 97        	ldx	#$97
    4c98: 86 05        	stx	$5                      ; 0x2005 <__heap_default_limit+0x1005>
    4c9a: a2 a5        	ldx	#$a5
    4c9c: 86 06        	stx	$6                      ; 0x2006 <__heap_default_limit+0x1006>
    4c9e: a2 9a        	ldx	#$9a
    4ca0: 86 07        	stx	$7                      ; 0x2007 <__heap_default_limit+0x1007>
    4ca2: a9 01        	lda	#$1
    4ca4: 4c b7 4b     	jmp	$4bb7 <shortcuts+0x366>
    4ca7: a6 04        	ldx	$4                      ; 0x2004 <__heap_default_limit+0x1004>
    4ca9: 86 48        	stx	$48                     ; 0x2048 <__after_main>
    4cab: a6 05        	ldx	$5                      ; 0x2005 <__heap_default_limit+0x1005>
    4cad: 86 49        	stx	$49                     ; 0x2049 <__after_main+0x1>
    4caf: a2 3d        	ldx	#$3d
    4cb1: 86 04        	stx	$4                      ; 0x2004 <__heap_default_limit+0x1004>
    4cb3: a2 94        	ldx	#$94
    4cb5: 86 05        	stx	$5                      ; 0x2005 <__heap_default_limit+0x1005>
    4cb7: a2 ed        	ldx	#$ed
    4cb9: 86 06        	stx	$6                      ; 0x2006 <__heap_default_limit+0x1006>
    4cbb: a2 94        	ldx	#$94
    4cbd: 86 07        	stx	$7                      ; 0x2007 <__heap_default_limit+0x1007>
    4cbf: a9 00        	lda	#$0
    4cc1: 20 10 48     	jsr	$4810 <shortcutprint>
    4cc4: a2 96        	ldx	#$96
    4cc6: 86 04        	stx	$4                      ; 0x2004 <__heap_default_limit+0x1004>
    4cc8: a2 93        	ldx	#$93
    4cca: 86 05        	stx	$5                      ; 0x2005 <__heap_default_limit+0x1005>
    4ccc: a2 ed        	ldx	#$ed
    4cce: 86 06        	stx	$6                      ; 0x2006 <__heap_default_limit+0x1006>
    4cd0: a2 94        	ldx	#$94
    4cd2: 86 07        	stx	$7                      ; 0x2007 <__heap_default_limit+0x1007>
    4cd4: a9 00        	lda	#$0
    4cd6: 20 10 48     	jsr	$4810 <shortcutprint>
    4cd9: a9 01        	lda	#$1
    4cdb: a2 52        	ldx	#$52
    4cdd: 86 04        	stx	$4                      ; 0x2004 <__heap_default_limit+0x1004>
    4cdf: a2 97        	ldx	#$97
    4ce1: 86 05        	stx	$5                      ; 0x2005 <__heap_default_limit+0x1005>
    4ce3: a2 f3        	ldx	#$f3
    4ce5: 86 06        	stx	$6                      ; 0x2006 <__heap_default_limit+0x1006>
    4ce7: a2 97        	ldx	#$97
    4ce9: 86 07        	stx	$7                      ; 0x2007 <__heap_default_limit+0x1007>
    4ceb: 20 10 48     	jsr	$4810 <shortcutprint>
    4cee: a2 4d        	ldx	#$4d
    4cf0: 86 04        	stx	$4                      ; 0x2004 <__heap_default_limit+0x1004>
    4cf2: a2 95        	ldx	#$95
    4cf4: 86 05        	stx	$5                      ; 0x2005 <__heap_default_limit+0x1005>
    4cf6: a2 ed        	ldx	#$ed
    4cf8: 86 06        	stx	$6                      ; 0x2006 <__heap_default_limit+0x1006>
    4cfa: a2 94        	ldx	#$94
    4cfc: 86 07        	stx	$7                      ; 0x2007 <__heap_default_limit+0x1007>
    4cfe: a9 00        	lda	#$0
    4d00: 20 10 48     	jsr	$4810 <shortcutprint>
    4d03: a0 47        	ldy	#$47
    4d05: a6 48        	ldx	$48                     ; 0x2048 <__after_main>
    4d07: 86 04        	stx	$4                      ; 0x2004 <__heap_default_limit+0x1004>
    4d09: a6 49        	ldx	$49                     ; 0x2049 <__after_main+0x1>
    4d0b: 86 05        	stx	$5                      ; 0x2005 <__heap_default_limit+0x1005>
    4d0d: b1 04        	lda	($4),y                  ; 0x2004 <__heap_default_limit+0x1004>
    4d0f: a2 01        	ldx	#$1
    4d11: c9 28        	cmp	#$28
    4d13: f0 02        	beq	$4d17 <shortcuts+0x4c6>
    4d15: a2 00        	ldx	#$0
    4d17: a9 01        	lda	#$1
    4d19: e0 00        	cpx	#$0
    4d1b: d0 02        	bne	$4d1f <shortcuts+0x4ce>
    4d1d: a9 00        	lda	#$0
    4d1f: a2 e6        	ldx	#$e6
    4d21: 86 04        	stx	$4                      ; 0x2004 <__heap_default_limit+0x1004>
    4d23: a2 91        	ldx	#$91
    4d25: 86 05        	stx	$5                      ; 0x2005 <__heap_default_limit+0x1005>
    4d27: a2 bc        	ldx	#$bc
    4d29: 86 06        	stx	$6                      ; 0x2006 <__heap_default_limit+0x1006>
    4d2b: a2 94        	ldx	#$94
    4d2d: 86 07        	stx	$7                      ; 0x2007 <__heap_default_limit+0x1007>
    4d2f: 20 10 48     	jsr	$4810 <shortcutprint>
    4d32: a9 00        	lda	#$0
    4d34: a2 b9        	ldx	#$b9
    4d36: 86 04        	stx	$4                      ; 0x2004 <__heap_default_limit+0x1004>
    4d38: a2 94        	ldx	#$94
    4d3a: 86 05        	stx	$5                      ; 0x2005 <__heap_default_limit+0x1005>
    4d3c: a2 ed        	ldx	#$ed
    4d3e: 86 06        	stx	$6                      ; 0x2006 <__heap_default_limit+0x1006>
    4d40: a2 94        	ldx	#$94
    4d42: 86 07        	stx	$7                      ; 0x2007 <__heap_default_limit+0x1007>
    4d44: 20 10 48     	jsr	$4810 <shortcutprint>
    4d47: a6 48        	ldx	$48                     ; 0x2048 <__after_main>
    4d49: 86 04        	stx	$4                      ; 0x2004 <__heap_default_limit+0x1004>
    4d4b: a6 49        	ldx	$49                     ; 0x2049 <__after_main+0x1>
    4d4d: 86 05        	stx	$5                      ; 0x2005 <__heap_default_limit+0x1005>
    4d4f: a0 47        	ldy	#$47
    4d51: b1 04        	lda	($4),y                  ; 0x2004 <__heap_default_limit+0x1004>
    4d53: 85 04        	sta	$4                      ; 0x2004 <__heap_default_limit+0x1004>
    4d55: a9 01        	lda	#$1
    4d57: a6 04        	ldx	$4                      ; 0x2004 <__heap_default_limit+0x1004>
    4d59: e0 28        	cpx	#$28
    4d5b: f0 02        	beq	$4d5f <shortcuts+0x50e>
    4d5d: a9 00        	lda	#$0
    4d5f: a2 f9        	ldx	#$f9
    4d61: 86 04        	stx	$4                      ; 0x2004 <__heap_default_limit+0x1004>
    4d63: a2 98        	ldx	#$98
    4d65: 86 05        	stx	$5                      ; 0x2005 <__heap_default_limit+0x1005>
    4d67: a2 9e        	ldx	#$9e
    4d69: 86 06        	stx	$6                      ; 0x2006 <__heap_default_limit+0x1006>
    4d6b: a2 9a        	ldx	#$9a
    4d6d: 86 07        	stx	$7                      ; 0x2007 <__heap_default_limit+0x1007>
    4d6f: 20 10 48     	jsr	$4810 <shortcutprint>
    4d72: a2 9b        	ldx	#$9b
    4d74: 86 04        	stx	$4                      ; 0x2004 <__heap_default_limit+0x1004>
    4d76: a2 9a        	ldx	#$9a
    4d78: 86 05        	stx	$5                      ; 0x2005 <__heap_default_limit+0x1005>
    4d7a: a2 ed        	ldx	#$ed
    4d7c: 86 06        	stx	$6                      ; 0x2006 <__heap_default_limit+0x1006>
    4d7e: a2 94        	ldx	#$94
    4d80: 86 07        	stx	$7                      ; 0x2007 <__heap_default_limit+0x1007>
    4d82: a9 00        	lda	#$0
    4d84: 20 10 48     	jsr	$4810 <shortcutprint>
    4d87: a9 01        	lda	#$1
    4d89: a2 ea        	ldx	#$ea
    4d8b: 86 04        	stx	$4                      ; 0x2004 <__heap_default_limit+0x1004>
    4d8d: a2 97        	ldx	#$97
    4d8f: 86 05        	stx	$5                      ; 0x2005 <__heap_default_limit+0x1005>
    4d91: a2 eb        	ldx	#$eb
    4d93: 86 06        	stx	$6                      ; 0x2006 <__heap_default_limit+0x1006>
    4d95: a2 9a        	ldx	#$9a
    4d97: 86 07        	stx	$7                      ; 0x2007 <__heap_default_limit+0x1007>
    4d99: 4c b7 4b     	jmp	$4bb7 <shortcuts+0x366>
    4d9c: a2 3d        	ldx	#$3d
    4d9e: 86 04        	stx	$4                      ; 0x2004 <__heap_default_limit+0x1004>
    4da0: a2 94        	ldx	#$94
    4da2: 86 05        	stx	$5                      ; 0x2005 <__heap_default_limit+0x1005>
    4da4: a2 4b        	ldx	#$4b
    4da6: 86 06        	stx	$6                      ; 0x2006 <__heap_default_limit+0x1006>
    4da8: a2 97        	ldx	#$97
    4daa: 86 07        	stx	$7                      ; 0x2007 <__heap_default_limit+0x1007>
    4dac: a9 01        	lda	#$1
    4dae: 20 10 48     	jsr	$4810 <shortcutprint>
    4db1: a2 96        	ldx	#$96
    4db3: 86 04        	stx	$4                      ; 0x2004 <__heap_default_limit+0x1004>
    4db5: a2 93        	ldx	#$93
    4db7: 86 05        	stx	$5                      ; 0x2005 <__heap_default_limit+0x1005>
    4db9: a2 32        	ldx	#$32
    4dbb: 86 06        	stx	$6                      ; 0x2006 <__heap_default_limit+0x1006>
    4dbd: a2 93        	ldx	#$93
    4dbf: 86 07        	stx	$7                      ; 0x2007 <__heap_default_limit+0x1007>
    4dc1: a9 01        	lda	#$1
    4dc3: 20 10 48     	jsr	$4810 <shortcutprint>
    4dc6: a2 52        	ldx	#$52
    4dc8: 86 04        	stx	$4                      ; 0x2004 <__heap_default_limit+0x1004>
    4dca: a2 97        	ldx	#$97
    4dcc: 86 05        	stx	$5                      ; 0x2005 <__heap_default_limit+0x1005>
    4dce: a2 40        	ldx	#$40
    4dd0: 86 06        	stx	$6                      ; 0x2006 <__heap_default_limit+0x1006>
    4dd2: a2 94        	ldx	#$94
    4dd4: 86 07        	stx	$7                      ; 0x2007 <__heap_default_limit+0x1007>
    4dd6: a9 00        	lda	#$0
    4dd8: 20 10 48     	jsr	$4810 <shortcutprint>
    4ddb: a2 4d        	ldx	#$4d
    4ddd: 86 04        	stx	$4                      ; 0x2004 <__heap_default_limit+0x1004>
    4ddf: a2 95        	ldx	#$95
    4de1: 86 05        	stx	$5                      ; 0x2005 <__heap_default_limit+0x1005>
    4de3: a2 4f        	ldx	#$4f
    4de5: 86 06        	stx	$6                      ; 0x2006 <__heap_default_limit+0x1006>
    4de7: a2 96        	ldx	#$96
    4de9: 86 07        	stx	$7                      ; 0x2007 <__heap_default_limit+0x1007>
    4deb: a9 00        	lda	#$0
    4ded: 20 10 48     	jsr	$4810 <shortcutprint>
    4df0: a2 e6        	ldx	#$e6
    4df2: 86 04        	stx	$4                      ; 0x2004 <__heap_default_limit+0x1004>
    4df4: a2 91        	ldx	#$91
    4df6: 86 05        	stx	$5                      ; 0x2005 <__heap_default_limit+0x1005>
    4df8: a2 cc        	ldx	#$cc
    4dfa: 86 06        	stx	$6                      ; 0x2006 <__heap_default_limit+0x1006>
    4dfc: a2 92        	ldx	#$92
    4dfe: 86 07        	stx	$7                      ; 0x2007 <__heap_default_limit+0x1007>
    4e00: a9 01        	lda	#$1
    4e02: 20 10 48     	jsr	$4810 <shortcutprint>
    4e05: a2 b9        	ldx	#$b9
    4e07: 86 04        	stx	$4                      ; 0x2004 <__heap_default_limit+0x1004>
    4e09: a2 94        	ldx	#$94
    4e0b: 86 05        	stx	$5                      ; 0x2005 <__heap_default_limit+0x1005>
    4e0d: a2 60        	ldx	#$60
    4e0f: 86 06        	stx	$6                      ; 0x2006 <__heap_default_limit+0x1006>
    4e11: a2 91        	ldx	#$91
    4e13: 86 07        	stx	$7                      ; 0x2007 <__heap_default_limit+0x1007>
    4e15: a9 01        	lda	#$1
    4e17: 20 10 48     	jsr	$4810 <shortcutprint>
    4e1a: a2 f9        	ldx	#$f9
    4e1c: 86 04        	stx	$4                      ; 0x2004 <__heap_default_limit+0x1004>
    4e1e: a2 98        	ldx	#$98
    4e20: 86 05        	stx	$5                      ; 0x2005 <__heap_default_limit+0x1005>
    4e22: a2 1b        	ldx	#$1b
    4e24: 86 06        	stx	$6                      ; 0x2006 <__heap_default_limit+0x1006>
    4e26: a2 92        	ldx	#$92
    4e28: 86 07        	stx	$7                      ; 0x2007 <__heap_default_limit+0x1007>
    4e2a: a9 01        	lda	#$1
    4e2c: 20 10 48     	jsr	$4810 <shortcutprint>
    4e2f: a2 9b        	ldx	#$9b
    4e31: 86 04        	stx	$4                      ; 0x2004 <__heap_default_limit+0x1004>
    4e33: a2 9a        	ldx	#$9a
    4e35: 86 05        	stx	$5                      ; 0x2005 <__heap_default_limit+0x1005>
    4e37: a2 7f        	ldx	#$7f
    4e39: 86 06        	stx	$6                      ; 0x2006 <__heap_default_limit+0x1006>
    4e3b: a2 98        	ldx	#$98
    4e3d: 86 07        	stx	$7                      ; 0x2007 <__heap_default_limit+0x1007>
    4e3f: a9 01        	lda	#$1
    4e41: 20 10 48     	jsr	$4810 <shortcutprint>
    4e44: a2 ea        	ldx	#$ea
    4e46: 86 04        	stx	$4                      ; 0x2004 <__heap_default_limit+0x1004>
    4e48: a2 97        	ldx	#$97
    4e4a: 86 05        	stx	$5                      ; 0x2005 <__heap_default_limit+0x1005>
    4e4c: a2 7e        	ldx	#$7e
    4e4e: 86 06        	stx	$6                      ; 0x2006 <__heap_default_limit+0x1006>
    4e50: a2 99        	ldx	#$99
    4e52: 86 07        	stx	$7                      ; 0x2007 <__heap_default_limit+0x1007>
    4e54: a9 01        	lda	#$1
    4e56: 20 10 48     	jsr	$4810 <shortcutprint>
    4e59: a2 e9        	ldx	#$e9
    4e5b: 86 04        	stx	$4                      ; 0x2004 <__heap_default_limit+0x1004>
    4e5d: a2 91        	ldx	#$91
    4e5f: 86 05        	stx	$5                      ; 0x2005 <__heap_default_limit+0x1005>
    4e61: a2 ed        	ldx	#$ed
    4e63: 86 06        	stx	$6                      ; 0x2006 <__heap_default_limit+0x1006>
    4e65: a2 97        	ldx	#$97
    4e67: 86 07        	stx	$7                      ; 0x2007 <__heap_default_limit+0x1007>
    4e69: a9 01        	lda	#$1
    4e6b: 4c cc 4b     	jmp	$4bcc <shortcuts+0x37b>

00004e6e <optionstring>:
    4e6e: 86 08        	stx	$8                      ; 0x2008 <__heap_default_limit+0x1008>
    4e70: a6 06        	ldx	$6                      ; 0x2006 <__heap_default_limit+0x1006>
    4e72: 25 08        	and	$8                      ; 0x2008 <__heap_default_limit+0x1008>
    4e74: f0 04        	beq	$4e7a <optionstring+0xc>
    4e76: a0 2a        	ldy	#$2a
    4e78: 80 02        	bra	$4e7c <optionstring+0xe>
    4e7a: a0 6f        	ldy	#$6f
    4e7c: 8c 3b 9d     	sty	$9d3b                   ; 0x9d3b <s>
    4e7f: a0 20        	ldy	#$20
    4e81: 8c 3c 9d     	sty	$9d3c                   ; 0x9d3c <s+0x1>
    4e84: a9 3e        	lda	#$3e
    4e86: e4 07        	cpx	$7                      ; 0x2007 <__heap_default_limit+0x1007>
    4e88: f0 02        	beq	$4e8c <optionstring+0x1e>
    4e8a: a9 20        	lda	#$20
    4e8c: 8d 3d 9d     	sta	$9d3d                   ; 0x9d3d <s+0x2>
    4e8f: 8c 3e 9d     	sty	$9d3e                   ; 0x9d3e <s+0x3>
    4e92: a0 00        	ldy	#$0
    4e94: 80 04        	bra	$4e9a <optionstring+0x2c>
    4e96: 99 3f 9d     	sta	$9d3f,y                 ; 0x9d3f <s+0x4>
    4e99: c8           	iny
    4e9a: b1 04        	lda	($4),y                  ; 0x2004 <__heap_default_limit+0x1004>
    4e9c: f0 04        	beq	$4ea2 <optionstring+0x34>
    4e9e: c0 28        	cpy	#$28
    4ea0: 90 f4        	bcc	$4e96 <optionstring+0x28>
    4ea2: 38           	sec
    4ea3: a9 10        	lda	#$10
    4ea5: 84 04        	sty	$4                      ; 0x2004 <__heap_default_limit+0x1004>
    4ea7: e5 04        	sbc	$4                      ; 0x2004 <__heap_default_limit+0x1004>
    4ea9: 90 04        	bcc	$4eaf <optionstring+0x41>
    4eab: 85 05        	sta	$5                      ; 0x2005 <__heap_default_limit+0x1005>
    4ead: 80 02        	bra	$4eb1 <optionstring+0x43>
    4eaf: 64 05        	stz	$5                      ; 0x2005 <__heap_default_limit+0x1005>
    4eb1: 64 04        	stz	$4                      ; 0x2004 <__heap_default_limit+0x1004>
    4eb3: 80 13        	bra	$4ec8 <optionstring+0x5a>
    4eb5: a9 3f        	lda	#$3f
    4eb7: 18           	clc
    4eb8: 65 04        	adc	$4                      ; 0x2004 <__heap_default_limit+0x1004>
    4eba: 85 08        	sta	$8                      ; 0x2008 <__heap_default_limit+0x1008>
    4ebc: a9 9d        	lda	#$9d
    4ebe: 69 00        	adc	#$0
    4ec0: 85 09        	sta	$9                      ; 0x2009 <__heap_default_limit+0x1009>
    4ec2: a9 20        	lda	#$20
    4ec4: 91 08        	sta	($8),y                  ; 0x2008 <__heap_default_limit+0x1008>
    4ec6: e6 04        	inc	$4                      ; 0x2004 <__heap_default_limit+0x1004>
    4ec8: a5 05        	lda	$5                      ; 0x2005 <__heap_default_limit+0x1005>
    4eca: c5 04        	cmp	$4                      ; 0x2004 <__heap_default_limit+0x1004>
    4ecc: d0 e7        	bne	$4eb5 <optionstring+0x47>
    4ece: c0 11        	cpy	#$11
    4ed0: b0 02        	bcs	$4ed4 <optionstring+0x66>
    4ed2: a0 10        	ldy	#$10
    4ed4: 84 04        	sty	$4                      ; 0x2004 <__heap_default_limit+0x1004>
    4ed6: 98           	tya
    4ed7: 18           	clc
    4ed8: 69 04        	adc	#$4
    4eda: a8           	tay
    4edb: a9 20        	lda	#$20
    4edd: 99 3b 9d     	sta	$9d3b,y                 ; 0x9d3b <s>
    4ee0: 18           	clc
    4ee1: a5 04        	lda	$4                      ; 0x2004 <__heap_default_limit+0x1004>
    4ee3: 69 05        	adc	#$5
    4ee5: a8           	tay
    4ee6: a9 3c        	lda	#$3c
    4ee8: e4 07        	cpx	$7                      ; 0x2007 <__heap_default_limit+0x1007>
    4eea: f0 02        	beq	$4eee <optionstring+0x80>
    4eec: a9 20        	lda	#$20
    4eee: 99 3b 9d     	sta	$9d3b,y                 ; 0x9d3b <s>
    4ef1: 18           	clc
    4ef2: a5 04        	lda	$4                      ; 0x2004 <__heap_default_limit+0x1004>
    4ef4: 69 06        	adc	#$6
    4ef6: aa           	tax
    4ef7: 9e 3b 9d     	stz	$9d3b,x                 ; 0x9d3b <s>
    4efa: a5 07        	lda	$7                      ; 0x2007 <__heap_default_limit+0x1007>
    4efc: 18           	clc
    4efd: 69 06        	adc	#$6
    4eff: a2 3b        	ldx	#$3b
    4f01: 86 04        	stx	$4                      ; 0x2004 <__heap_default_limit+0x1004>
    4f03: a2 9d        	ldx	#$9d
    4f05: 86 05        	stx	$5                      ; 0x2005 <__heap_default_limit+0x1005>
    4f07: aa           	tax
    4f08: a9 0c        	lda	#$c
    4f0a: 4c c6 42     	jmp	$42c6 <mcputsxy>

00004f0d <UpdateSectors>:
    4f0d: 48           	pha
    4f0e: 18           	clc
    4f0f: a5 02        	lda	$2                      ; 0x2002 <__heap_default_limit+0x1002>
    4f11: 69 f1        	adc	#$f1
    4f13: 85 02        	sta	$2                      ; 0x2002 <__heap_default_limit+0x1002>
    4f15: a5 03        	lda	$3                      ; 0x2003 <__heap_default_limit+0x1003>
    4f17: 69 ff        	adc	#$ff
    4f19: 85 03        	sta	$3                      ; 0x2003 <__heap_default_limit+0x1003>
    4f1b: 68           	pla
    4f1c: a4 16        	ldy	$16                     ; 0x2016 <next_line+0x1>
    4f1e: 5a           	phy
    4f1f: a4 17        	ldy	$17                     ; 0x2017 <next_line+0x2>
    4f21: 5a           	phy
    4f22: a4 18        	ldy	$18                     ; 0x2018 <next_line+0x3>
    4f24: 5a           	phy
    4f25: a4 19        	ldy	$19                     ; 0x2019 <next_line+0x4>
    4f27: 5a           	phy
    4f28: 48           	pha
    4f29: a5 1a        	lda	$1a                     ; 0x201a <next_line+0x5>
    4f2b: a0 07        	ldy	#$7
    4f2d: 91 02        	sta	($2),y                  ; 0x2002 <__heap_default_limit+0x1002>
    4f2f: a5 1b        	lda	$1b                     ; 0x201b <next_line+0x6>
    4f31: 88           	dey
    4f32: 91 02        	sta	($2),y                  ; 0x2002 <__heap_default_limit+0x1002>
    4f34: a5 1c        	lda	$1c                     ; 0x201c <next_line+0x7>
    4f36: 88           	dey
    4f37: 91 02        	sta	($2),y                  ; 0x2002 <__heap_default_limit+0x1002>
    4f39: a5 1d        	lda	$1d                     ; 0x201d <next_line+0x8>
    4f3b: 88           	dey
    4f3c: 91 02        	sta	($2),y                  ; 0x2002 <__heap_default_limit+0x1002>
    4f3e: a5 1e        	lda	$1e                     ; 0x201e <next_line+0x9>
    4f40: 88           	dey
    4f41: 91 02        	sta	($2),y                  ; 0x2002 <__heap_default_limit+0x1002>
    4f43: a5 1f        	lda	$1f                     ; 0x201f <next_line+0xa>
    4f45: 88           	dey
    4f46: 91 02        	sta	($2),y                  ; 0x2002 <__heap_default_limit+0x1002>
    4f48: a5 20        	lda	$20                     ; 0x2020 <next_line+0xb>
    4f4a: 88           	dey
    4f4b: 91 02        	sta	($2),y                  ; 0x2002 <__heap_default_limit+0x1002>
    4f4d: a5 21        	lda	$21                     ; 0x2021 <_start>
    4f4f: 88           	dey
    4f50: 91 02        	sta	($2),y                  ; 0x2002 <__heap_default_limit+0x1002>
    4f52: 68           	pla
    4f53: 85 16        	sta	$16                     ; 0x2016 <next_line+0x1>
    4f55: 86 17        	stx	$17                     ; 0x2017 <next_line+0x2>
    4f57: 98           	tya
    4f58: 86 04        	stx	$4                      ; 0x2004 <__heap_default_limit+0x1004>
    4f5a: 06 04        	asl	$4                      ; 0x2004 <__heap_default_limit+0x1004>
    4f5c: 48           	pha
    4f5d: 1a           	inc
    4f5e: b0 02        	bcs	$4f62 <UpdateSectors+0x55>
    4f60: a9 00        	lda	#$0
    4f62: a0 0b        	ldy	#$b
    4f64: 91 02        	sta	($2),y                  ; 0x2002 <__heap_default_limit+0x1002>
    4f66: 68           	pla
    4f67: 2a           	rol
    4f68: 85 05        	sta	$5                      ; 0x2005 <__heap_default_limit+0x1005>
    4f6a: a9 27        	lda	#$27
    4f6c: 18           	clc
    4f6d: 65 04        	adc	$4                      ; 0x2004 <__heap_default_limit+0x1004>
    4f6f: aa           	tax
    4f70: a9 00        	lda	#$0
    4f72: 65 05        	adc	$5                      ; 0x2005 <__heap_default_limit+0x1005>
    4f74: 06 04        	asl	$4                      ; 0x2004 <__heap_default_limit+0x1004>
    4f76: a0 01        	ldy	#$1
    4f78: b0 02        	bcs	$4f7c <UpdateSectors+0x6f>
    4f7a: a0 00        	ldy	#$0
    4f7c: 84 20        	sty	$20                     ; 0x2020 <next_line+0xb>
    4f7e: a4 05        	ldy	$5                      ; 0x2005 <__heap_default_limit+0x1005>
    4f80: 84 08        	sty	$8                      ; 0x2008 <__heap_default_limit+0x1008>
    4f82: 26 08        	rol	$8                      ; 0x2008 <__heap_default_limit+0x1008>
    4f84: 48           	pha
    4f85: a5 04        	lda	$4                      ; 0x2004 <__heap_default_limit+0x1004>
    4f87: a0 0e        	ldy	#$e
    4f89: 91 02        	sta	($2),y                  ; 0x2002 <__heap_default_limit+0x1002>
    4f8b: a4 04        	ldy	$4                      ; 0x2004 <__heap_default_limit+0x1004>
    4f8d: 84 1c        	sty	$1c                     ; 0x201c <next_line+0x7>
    4f8f: 06 1c        	asl	$1c                     ; 0x201c <next_line+0x7>
    4f91: a9 01        	lda	#$1
    4f93: b0 02        	bcs	$4f97 <UpdateSectors+0x8a>
    4f95: a9 00        	lda	#$0
    4f97: a0 09        	ldy	#$9
    4f99: 91 02        	sta	($2),y                  ; 0x2002 <__heap_default_limit+0x1002>
    4f9b: 26 08        	rol	$8                      ; 0x2008 <__heap_default_limit+0x1008>
    4f9d: 06 1c        	asl	$1c                     ; 0x201c <next_line+0x7>
    4f9f: a9 01        	lda	#$1
    4fa1: b0 02        	bcs	$4fa5 <UpdateSectors+0x98>
    4fa3: a9 00        	lda	#$0
    4fa5: a0 0a        	ldy	#$a
    4fa7: 91 02        	sta	($2),y                  ; 0x2002 <__heap_default_limit+0x1002>
    4fa9: 68           	pla
    4faa: 26 08        	rol	$8                      ; 0x2008 <__heap_default_limit+0x1008>
    4fac: a4 08        	ldy	$8                      ; 0x2008 <__heap_default_limit+0x1008>
    4fae: 84 21        	sty	$21                     ; 0x2021 <_start>
    4fb0: 86 04        	stx	$4                      ; 0x2004 <__heap_default_limit+0x1004>
    4fb2: 85 05        	sta	$5                      ; 0x2005 <__heap_default_limit+0x1005>
    4fb4: a0 01        	ldy	#$1
    4fb6: b1 04        	lda	($4),y                  ; 0x2004 <__heap_default_limit+0x1004>
    4fb8: aa           	tax
    4fb9: b2 04        	lda	($4),z                  ; 0x2004 <__heap_default_limit+0x1004>
    4fbb: 85 1e        	sta	$1e                     ; 0x201e <next_line+0x9>
    4fbd: 85 1a        	sta	$1a                     ; 0x201a <next_line+0x5>
    4fbf: 86 1d        	stx	$1d                     ; 0x201d <next_line+0x8>
    4fc1: 86 1b        	stx	$1b                     ; 0x201b <next_line+0x6>
    4fc3: a0 46        	ldy	#$46
    4fc5: b1 1a        	lda	($1a),y                 ; 0x201a <next_line+0x5>
    4fc7: aa           	tax
    4fc8: 29 fd        	and	#$fd
    4fca: 91 1a        	sta	($1a),y                 ; 0x201a <next_line+0x5>
    4fcc: 8a           	txa
    4fcd: 29 01        	and	#$1
    4fcf: 85 1f        	sta	$1f                     ; 0x201f <next_line+0xa>
    4fd1: d0 03        	bne	$4fd6 <UpdateSectors+0xc9>
    4fd3: 4c c8 50     	jmp	$50c8 <donegetproc1+0xcd>
    4fd6: 18           	clc
    4fd7: a5 1e        	lda	$1e                     ; 0x201e <next_line+0x9>
    4fd9: 69 03        	adc	#$3
    4fdb: 85 06        	sta	$6                      ; 0x2006 <__heap_default_limit+0x1006>
    4fdd: a5 1d        	lda	$1d                     ; 0x201d <next_line+0x8>
    4fdf: 69 00        	adc	#$0
    4fe1: 85 07        	sta	$7                      ; 0x2007 <__heap_default_limit+0x1007>
    4fe3: a0 1c        	ldy	#$1c
    4fe5: 8c 1a 9d     	sty	$9d1a                   ; 0x9d1a <fnamehi.2>
    4fe8: a2 00        	ldx	#$0
    4fea: a9 48        	lda	#$48
    4fec: 8d 40 d6     	sta	$d640                   ; 0xd640 <__heap_start+0x3646>
    4fef: b8           	clv
    4ff0: 90 05        	bcc	$4ff7 <errgetproc1>
    4ff2: 85 04        	sta	$4                      ; 0x2004 <__heap_default_limit+0x1004>
    4ff4: 4c fb 4f     	jmp	$4ffb <donegetproc1>

00004ff7 <errgetproc1>:
    4ff7: a9 ff        	lda	#$ff
    4ff9: 85 04        	sta	$4                      ; 0x2004 <__heap_default_limit+0x1004>

00004ffb <donegetproc1>:
    4ffb: ea           	nop
    4ffc: ad a1 d6     	lda	$d6a1                   ; 0xd6a1 <__heap_start+0x36a7>
    4fff: a6 16        	ldx	$16                     ; 0x2016 <next_line+0x1>
    5001: f0 11        	beq	$5014 <donegetproc1+0x19>
    5003: 29 04        	and	#$4
    5005: d0 1e        	bne	$5025 <donegetproc1+0x2a>
    5007: a2 35        	ldx	#$35
    5009: 86 04        	stx	$4                      ; 0x2004 <__heap_default_limit+0x1004>
    500b: a2 1c        	ldx	#$1c
    500d: 86 05        	stx	$5                      ; 0x2005 <__heap_default_limit+0x1005>
    500f: ad 14 1c     	lda	$1c14                   ; 0x1c14 <__heap_default_limit+0xc14>
    5012: 80 1b        	bra	$502f <donegetproc1+0x34>
    5014: 29 01        	and	#$1
    5016: d0 0d        	bne	$5025 <donegetproc1+0x2a>
    5018: a2 15        	ldx	#$15
    501a: 86 04        	stx	$4                      ; 0x2004 <__heap_default_limit+0x1004>
    501c: a2 1c        	ldx	#$1c
    501e: 86 05        	stx	$5                      ; 0x2005 <__heap_default_limit+0x1005>
    5020: ad 13 1c     	lda	$1c13                   ; 0x1c13 <__heap_default_limit+0xc13>
    5023: 80 0a        	bra	$502f <donegetproc1+0x34>
    5025: a2 c3        	ldx	#$c3
    5027: 86 04        	stx	$4                      ; 0x2004 <__heap_default_limit+0x1004>
    5029: a2 94        	ldx	#$94
    502b: 86 05        	stx	$5                      ; 0x2005 <__heap_default_limit+0x1005>
    502d: a9 10        	lda	#$10
    502f: 20 c8 40     	jsr	$40c8 <strcopy>
    5032: 18           	clc
    5033: a5 1c        	lda	$1c                     ; 0x201c <next_line+0x7>
    5035: 65 17        	adc	$17                     ; 0x2017 <next_line+0x2>
    5037: 85 04        	sta	$4                      ; 0x2004 <__heap_default_limit+0x1004>
    5039: a5 21        	lda	$21                     ; 0x2021 <_start>
    503b: 69 00        	adc	#$0
    503d: 85 05        	sta	$5                      ; 0x2005 <__heap_default_limit+0x1005>
    503f: a9 7c        	lda	#$7c
    5041: 18           	clc
    5042: 65 04        	adc	$4                      ; 0x2004 <__heap_default_limit+0x1004>
    5044: 85 18        	sta	$18                     ; 0x2018 <next_line+0x3>
    5046: a9 9f        	lda	#$9f
    5048: 65 05        	adc	$5                      ; 0x2005 <__heap_default_limit+0x1005>
    504a: 85 19        	sta	$19                     ; 0x2019 <next_line+0x4>
    504c: a0 47        	ldy	#$47
    504e: b1 1a        	lda	($1a),y                 ; 0x201a <next_line+0x5>
    5050: 64 06        	stz	$6                      ; 0x2006 <__heap_default_limit+0x1006>
    5052: a2 00        	ldx	#$0
    5054: 86 04        	stx	$4                      ; 0x2004 <__heap_default_limit+0x1004>
    5056: a2 17        	ldx	#$17
    5058: 86 05        	stx	$5                      ; 0x2005 <__heap_default_limit+0x1005>
    505a: aa           	tax
    505b: a5 16        	lda	$16                     ; 0x2016 <next_line+0x1>
    505d: 20 32 25     	jsr	$2532 <GetOneSector>
    5060: c9 02        	cmp	#$2
    5062: b0 18        	bcs	$507c <donegetproc1+0x81>
    5064: a0 00        	ldy	#$0
    5066: 80 03        	bra	$506b <donegetproc1+0x70>
    5068: 91 18        	sta	($18),y                 ; 0x2018 <next_line+0x3>
    506a: c8           	iny
    506b: b9 04 17     	lda	$1704,y                 ; 0x1704 <__heap_default_limit+0x704>
    506e: c9 a0        	cmp	#$a0
    5070: f0 04        	beq	$5076 <donegetproc1+0x7b>
    5072: c0 10        	cpy	#$10
    5074: 90 f2        	bcc	$5068 <donegetproc1+0x6d>
    5076: a9 00        	lda	#$0
    5078: 91 18        	sta	($18),y                 ; 0x2018 <next_line+0x3>
    507a: 80 15        	bra	$5091 <donegetproc1+0x96>
    507c: a2 db        	ldx	#$db
    507e: 86 04        	stx	$4                      ; 0x2004 <__heap_default_limit+0x1004>
    5080: a2 91        	ldx	#$91
    5082: 86 05        	stx	$5                      ; 0x2005 <__heap_default_limit+0x1005>
    5084: a6 18        	ldx	$18                     ; 0x2018 <next_line+0x3>
    5086: 86 06        	stx	$6                      ; 0x2006 <__heap_default_limit+0x1006>
    5088: a6 19        	ldx	$19                     ; 0x2019 <next_line+0x4>
    508a: 86 07        	stx	$7                      ; 0x2007 <__heap_default_limit+0x1007>
    508c: a9 10        	lda	#$10
    508e: 20 c8 40     	jsr	$40c8 <strcopy>
    5091: a0 47        	ldy	#$47
    5093: b1 1a        	lda	($1a),y                 ; 0x201a <next_line+0x5>
    5095: 85 09        	sta	$9                      ; 0x2009 <__heap_default_limit+0x1009>
    5097: a5 17        	lda	$17                     ; 0x2017 <next_line+0x2>
    5099: f0 04        	beq	$509f <donegetproc1+0xa4>
    509b: a2 68        	ldx	#$68
    509d: 80 02        	bra	$50a1 <donegetproc1+0xa6>
    509f: a2 66        	ldx	#$66
    50a1: 64 07        	stz	$7                      ; 0x2007 <__heap_default_limit+0x1007>
    50a3: a9 01        	lda	#$1
    50a5: 64 04        	stz	$4                      ; 0x2004 <__heap_default_limit+0x1004>
    50a7: a0 08        	ldy	#$8
    50a9: 84 05        	sty	$5                      ; 0x2005 <__heap_default_limit+0x1005>
    50ab: a0 02        	ldy	#$2
    50ad: 84 06        	sty	$6                      ; 0x2006 <__heap_default_limit+0x1006>
    50af: a4 16        	ldy	$16                     ; 0x2016 <next_line+0x1>
    50b1: 84 08        	sty	$8                      ; 0x2008 <__heap_default_limit+0x1008>
    50b3: 85 0a        	sta	$a                      ; 0x200a <__heap_default_limit+0x100a>
    50b5: 3a           	dec
    50b6: 20 e7 26     	jsr	$26e7 <readblockchain>
    50b9: c9 02        	cmp	#$2
    50bb: b0 03        	bcs	$50c0 <donegetproc1+0xc5>
    50bd: 4c 92 53     	jmp	$5392 <donehypreaddir4+0x167>
    50c0: a0 46        	ldy	#$46
    50c2: a9 fe        	lda	#$fe
    50c4: 31 1a        	and	($1a),y                 ; 0x201a <next_line+0x5>
    50c6: 91 1a        	sta	($1a),y                 ; 0x201a <next_line+0x5>
    50c8: a2 ff        	ldx	#$ff
    50ca: 8a           	txa
    50cb: a0 0d        	ldy	#$d
    50cd: 91 02        	sta	($2),y                  ; 0x2002 <__heap_default_limit+0x1002>
    50cf: a5 1c        	lda	$1c                     ; 0x201c <next_line+0x7>
    50d1: 18           	clc
    50d2: 65 17        	adc	$17                     ; 0x2017 <next_line+0x2>
    50d4: 85 04        	sta	$4                      ; 0x2004 <__heap_default_limit+0x1004>
    50d6: a5 21        	lda	$21                     ; 0x2021 <_start>
    50d8: 69 00        	adc	#$0
    50da: 85 05        	sta	$5                      ; 0x2005 <__heap_default_limit+0x1005>
    50dc: a9 7c        	lda	#$7c
    50de: 18           	clc
    50df: 65 04        	adc	$4                      ; 0x2004 <__heap_default_limit+0x1004>
    50e1: 85 06        	sta	$6                      ; 0x2006 <__heap_default_limit+0x1006>
    50e3: a9 9f        	lda	#$9f
    50e5: 65 05        	adc	$5                      ; 0x2005 <__heap_default_limit+0x1005>
    50e7: 85 07        	sta	$7                      ; 0x2007 <__heap_default_limit+0x1007>
    50e9: a2 6d        	ldx	#$6d
    50eb: 86 04        	stx	$4                      ; 0x2004 <__heap_default_limit+0x1004>
    50ed: a2 92        	ldx	#$92
    50ef: 86 05        	stx	$5                      ; 0x2005 <__heap_default_limit+0x1005>
    50f1: a9 10        	lda	#$10
    50f3: 20 c8 40     	jsr	$40c8 <strcopy>
    50f6: a5 1e        	lda	$1e                     ; 0x201e <next_line+0x9>
    50f8: a0 0c        	ldy	#$c
    50fa: 91 02        	sta	($2),y                  ; 0x2002 <__heap_default_limit+0x1002>
    50fc: 18           	clc
    50fd: 69 03        	adc	#$3
    50ff: 85 06        	sta	$6                      ; 0x2006 <__heap_default_limit+0x1006>
    5101: a5 1d        	lda	$1d                     ; 0x201d <next_line+0x8>
    5103: 69 00        	adc	#$0
    5105: 85 07        	sta	$7                      ; 0x2007 <__heap_default_limit+0x1007>
    5107: a2 6d        	ldx	#$6d
    5109: 86 04        	stx	$4                      ; 0x2004 <__heap_default_limit+0x1004>
    510b: a2 92        	ldx	#$92
    510d: 86 05        	stx	$5                      ; 0x2005 <__heap_default_limit+0x1005>
    510f: a9 10        	lda	#$10
    5111: 20 c8 40     	jsr	$40c8 <strcopy>
    5114: a2 00        	ldx	#$0
    5116: a9 04        	lda	#$4
    5118: 8d 40 d6     	sta	$d640                   ; 0xd640 <__heap_start+0x3646>
    511b: b8           	clv
    511c: 90 05        	bcc	$5123 <errgetcurdrv2>
    511e: 85 04        	sta	$4                      ; 0x2004 <__heap_default_limit+0x1004>
    5120: 4c 27 51     	jmp	$5127 <donegetcurdrv2>

00005123 <errgetcurdrv2>:
    5123: a9 ff        	lda	#$ff
    5125: 85 04        	sta	$4                      ; 0x2004 <__heap_default_limit+0x1004>

00005127 <donegetcurdrv2>:
    5127: ea           	nop
    5128: a6 04        	ldx	$4                      ; 0x2004 <__heap_default_limit+0x1004>
    512a: e0 ff        	cpx	#$ff
    512c: d0 03        	bne	$5131 <donegetcurdrv2+0xa>
    512e: 4c 8d 54     	jmp	$548d <donehypclosedir5+0x1>
    5131: a2 00        	ldx	#$0
    5133: a9 12        	lda	#$12
    5135: 8d 40 d6     	sta	$d640                   ; 0xd640 <__heap_start+0x3646>
    5138: b8           	clv
    5139: 90 05        	bcc	$5140 <errhypopendir3>
    513b: 85 04        	sta	$4                      ; 0x2004 <__heap_default_limit+0x1004>
    513d: 4c 44 51     	jmp	$5144 <donehypopendir3>

00005140 <errhypopendir3>:
    5140: a9 ff        	lda	#$ff
    5142: 85 04        	sta	$4                      ; 0x2004 <__heap_default_limit+0x1004>

00005144 <donehypopendir3>:
    5144: ea           	nop
    5145: a6 04        	ldx	$4                      ; 0x2004 <__heap_default_limit+0x1004>
    5147: e0 84        	cpx	#$84
    5149: d0 03        	bne	$514e <donehypopendir3+0xa>
    514b: 4c 8d 54     	jmp	$548d <donehypclosedir5+0x1>
    514e: a4 1d        	ldy	$1d                     ; 0x201d <next_line+0x8>
    5150: e0 87        	cpx	#$87
    5152: d0 03        	bne	$5157 <donehypopendir3+0x13>
    5154: 4c 70 54     	jmp	$5470 <donehypreaddir4+0x245>
    5157: 98           	tya
    5158: e0 ff        	cpx	#$ff
    515a: d0 03        	bne	$515f <donehypopendir3+0x1b>
    515c: 4c 8f 54     	jmp	$548f <donehypclosedir5+0x3>
    515f: 86 21        	stx	$21                     ; 0x2021 <_start>
    5161: a9 00        	lda	#$0
    5163: 48           	pha
    5164: a0 0b        	ldy	#$b
    5166: b1 02        	lda	($2),y                  ; 0x2002 <__heap_default_limit+0x1002>
    5168: c9 01        	cmp	#$1
    516a: 68           	pla
    516b: 2a           	rol
    516c: 64 04        	stz	$4                      ; 0x2004 <__heap_default_limit+0x1004>
    516e: 26 04        	rol	$4                      ; 0x2004 <__heap_default_limit+0x1004>
    5170: a6 20        	ldx	$20                     ; 0x2020 <next_line+0xb>
    5172: e0 01        	cpx	#$1
    5174: 2a           	rol
    5175: 85 05        	sta	$5                      ; 0x2005 <__heap_default_limit+0x1005>
    5177: 26 04        	rol	$4                      ; 0x2004 <__heap_default_limit+0x1004>
    5179: 85 08        	sta	$8                      ; 0x2008 <__heap_default_limit+0x1008>
    517b: a0 09        	ldy	#$9
    517d: b1 02        	lda	($2),y                  ; 0x2002 <__heap_default_limit+0x1002>
    517f: c9 01        	cmp	#$1
    5181: 26 08        	rol	$8                      ; 0x2008 <__heap_default_limit+0x1008>
    5183: a5 04        	lda	$4                      ; 0x2004 <__heap_default_limit+0x1004>
    5185: 2a           	rol
    5186: 48           	pha
    5187: c8           	iny
    5188: b1 02        	lda	($2),y                  ; 0x2002 <__heap_default_limit+0x1002>
    518a: c9 01        	cmp	#$1
    518c: 68           	pla
    518d: 26 08        	rol	$8                      ; 0x2008 <__heap_default_limit+0x1008>
    518f: 2a           	rol
    5190: aa           	tax
    5191: a5 1c        	lda	$1c                     ; 0x201c <next_line+0x7>
    5193: 0a           	asl
    5194: a4 08        	ldy	$8                      ; 0x2008 <__heap_default_limit+0x1008>
    5196: 84 0a        	sty	$a                      ; 0x200a <__heap_default_limit+0x100a>
    5198: 26 0a        	rol	$a                      ; 0x200a <__heap_default_limit+0x100a>
    519a: 86 06        	stx	$6                      ; 0x2006 <__heap_default_limit+0x1006>
    519c: 26 06        	rol	$6                      ; 0x2006 <__heap_default_limit+0x1006>
    519e: 38           	sec
    519f: e5 17        	sbc	$17                     ; 0x2017 <next_line+0x2>
    51a1: a0 0b        	ldy	#$b
    51a3: 91 02        	sta	($2),y                  ; 0x2002 <__heap_default_limit+0x1002>
    51a5: a5 0a        	lda	$a                      ; 0x200a <__heap_default_limit+0x100a>
    51a7: e9 00        	sbc	#$0
    51a9: 88           	dey
    51aa: 91 02        	sta	($2),y                  ; 0x2002 <__heap_default_limit+0x1002>
    51ac: a5 06        	lda	$6                      ; 0x2006 <__heap_default_limit+0x1006>
    51ae: e9 00        	sbc	#$0
    51b0: a8           	tay
    51b1: 18           	clc
    51b2: 5a           	phy
    51b3: a0 0e        	ldy	#$e
    51b5: b1 02        	lda	($2),y                  ; 0x2002 <__heap_default_limit+0x1002>
    51b7: 65 1c        	adc	$1c                     ; 0x201c <next_line+0x7>
    51b9: 91 02        	sta	($2),y                  ; 0x2002 <__heap_default_limit+0x1002>
    51bb: a5 08        	lda	$8                      ; 0x2008 <__heap_default_limit+0x1008>
    51bd: 65 05        	adc	$5                      ; 0x2005 <__heap_default_limit+0x1005>
    51bf: 88           	dey
    51c0: 91 02        	sta	($2),y                  ; 0x2002 <__heap_default_limit+0x1002>
    51c2: 8a           	txa
    51c3: 65 04        	adc	$4                      ; 0x2004 <__heap_default_limit+0x1004>
    51c5: a0 09        	ldy	#$9
    51c7: 91 02        	sta	($2),y                  ; 0x2002 <__heap_default_limit+0x1002>
    51c9: 7a           	ply
    51ca: a2 3f        	ldx	#$3f
    51cc: 86 16        	stx	$16                     ; 0x2016 <next_line+0x1>
    51ce: a2 1b        	ldx	#$1b
    51d0: 86 17        	stx	$17                     ; 0x2017 <next_line+0x2>
    51d2: 98           	tya
    51d3: 09 08        	ora	#$8
    51d5: a0 08        	ldy	#$8
    51d7: 91 02        	sta	($2),y                  ; 0x2002 <__heap_default_limit+0x1002>
    51d9: a2 ff        	ldx	#$ff
    51db: a0 00        	ldy	#$0
    51dd: 64 18        	stz	$18                     ; 0x2018 <next_line+0x3>
    51df: 84 04        	sty	$4                      ; 0x2004 <__heap_default_limit+0x1004>
    51e1: a9 01        	lda	#$1
    51e3: 86 1c        	stx	$1c                     ; 0x201c <next_line+0x7>
    51e5: e0 00        	cpx	#$0
    51e7: f0 02        	beq	$51eb <donehypopendir3+0xa7>
    51e9: a9 00        	lda	#$0
    51eb: a6 18        	ldx	$18                     ; 0x2018 <next_line+0x3>
    51ed: e0 50        	cpx	#$50
    51ef: a2 01        	ldx	#$1
    51f1: a0 01        	ldy	#$1
    51f3: b0 01        	bcs	$51f6 <donehypopendir3+0xb2>
    51f5: a8           	tay
    51f6: a5 04        	lda	$4                      ; 0x2004 <__heap_default_limit+0x1004>
    51f8: c9 85        	cmp	#$85
    51fa: f0 02        	beq	$51fe <donehypopendir3+0xba>
    51fc: a2 00        	ldx	#$0
    51fe: a9 01        	lda	#$1
    5200: c0 00        	cpy	#$0
    5202: d0 01        	bne	$5205 <donehypopendir3+0xc1>
    5204: 8a           	txa
    5205: aa           	tax
    5206: f0 03        	beq	$520b <donehypopendir3+0xc7>
    5208: 4c 73 54     	jmp	$5473 <donehypreaddir4+0x248>
    520b: a4 21        	ldy	$21                     ; 0x2021 <_start>
    520d: da           	phx
    520e: a2 00        	ldx	#$0
    5210: 8a           	txa

00005211 <hypreaddirloop4>:
    5211: 9d 00 1b     	sta	$1b00,x                 ; 0x1b00 <__heap_default_limit+0xb00>
    5214: ca           	dex
    5215: d0 fa        	bne	$5211 <hypreaddirloop4>
    5217: fa           	plx
    5218: 98           	tya
    5219: aa           	tax
    521a: a0 1b        	ldy	#$1b
    521c: a9 14        	lda	#$14
    521e: 8d 40 d6     	sta	$d640                   ; 0xd640 <__heap_start+0x3646>
    5221: b8           	clv
    5222: 90 05        	bcc	$5229 <errhypreaddir4>
    5224: 86 04        	stx	$4                      ; 0x2004 <__heap_default_limit+0x1004>
    5226: 4c 2b 52     	jmp	$522b <donehypreaddir4>

00005229 <errhypreaddir4>:
    5229: 85 04        	sta	$4                      ; 0x2004 <__heap_default_limit+0x1004>

0000522b <donehypreaddir4>:
    522b: ea           	nop
    522c: ae 40 1b     	ldx	$1b40                   ; 0x1b40 <__heap_default_limit+0xb40>
    522f: e0 40        	cpx	#$40
    5231: a0 3f        	ldy	#$3f
    5233: 84 06        	sty	$6                      ; 0x2006 <__heap_default_limit+0x1006>
    5235: a0 1b        	ldy	#$1b
    5237: 84 07        	sty	$7                      ; 0x2007 <__heap_default_limit+0x1007>
    5239: b0 0f        	bcs	$524a <donehypreaddir4+0x1f>
    523b: 86 05        	stx	$5                      ; 0x2005 <__heap_default_limit+0x1005>
    523d: a9 00        	lda	#$0
    523f: 18           	clc
    5240: 65 05        	adc	$5                      ; 0x2005 <__heap_default_limit+0x1005>
    5242: 85 06        	sta	$6                      ; 0x2006 <__heap_default_limit+0x1006>
    5244: a9 1b        	lda	#$1b
    5246: 69 00        	adc	#$0
    5248: 85 07        	sta	$7                      ; 0x2007 <__heap_default_limit+0x1007>
    524a: a4 04        	ldy	$4                      ; 0x2004 <__heap_default_limit+0x1004>
    524c: a9 00        	lda	#$0
    524e: 92 06        	sta	($6),z                  ; 0x2006 <__heap_default_limit+0x1006>
    5250: c0 85        	cpy	#$85
    5252: f0 04        	beq	$5258 <donehypreaddir4+0x2d>
    5254: c0 ff        	cpy	#$ff
    5256: d0 0e        	bne	$5266 <donehypreaddir4+0x3b>
    5258: a2 20        	ldx	#$20
    525a: 8e 20 9d     	stx	$9d20                   ; 0x9d20 <direntryblock2+0x5>
    525d: 9c 21 9d     	stz	$9d21                   ; 0x9d21 <direntryblock2+0x6>
    5260: a6 1c        	ldx	$1c                     ; 0x201c <next_line+0x7>
    5262: ca           	dex
    5263: 4c df 51     	jmp	$51df <donehypopendir3+0x9b>
    5266: a9 10        	lda	#$10
    5268: 2d 56 1b     	and	$1b56                   ; 0x1b56 <__heap_default_limit+0xb56>
    526b: d0 1b        	bne	$5288 <donehypreaddir4+0x5d>
    526d: ae 49 1b     	ldx	$1b49                   ; 0x1b49 <__heap_default_limit+0xb49>
    5270: e0 64        	cpx	#$64
    5272: f0 04        	beq	$5278 <donehypreaddir4+0x4d>
    5274: e0 44        	cpx	#$44
    5276: d0 e0        	bne	$5258 <donehypreaddir4+0x2d>
    5278: ae 4a 1b     	ldx	$1b4a                   ; 0x1b4a <__heap_default_limit+0xb4a>
    527b: e0 38        	cpx	#$38
    527d: d0 d9        	bne	$5258 <donehypreaddir4+0x2d>
    527f: ae 4b 1b     	ldx	$1b4b                   ; 0x1b4b <__heap_default_limit+0xb4b>
    5282: e0 31        	cpx	#$31
    5284: d0 d2        	bne	$5258 <donehypreaddir4+0x2d>
    5286: 80 0e        	bra	$5296 <donehypreaddir4+0x6b>
    5288: ae 41 1b     	ldx	$1b41                   ; 0x1b41 <__heap_default_limit+0xb41>
    528b: e0 2e        	cpx	#$2e
    528d: d0 07        	bne	$5296 <donehypreaddir4+0x6b>
    528f: ae 42 1b     	ldx	$1b42                   ; 0x1b42 <__heap_default_limit+0xb42>
    5292: e0 20        	cpx	#$20
    5294: f0 d7        	beq	$526d <donehypreaddir4+0x42>
    5296: 84 1e        	sty	$1e                     ; 0x201e <next_line+0x9>
    5298: 20 ce 21     	jsr	$21ce <getsfn>
    529b: 20 ce 21     	jsr	$21ce <getsfn>
    529e: a2 20        	ldx	#$20
    52a0: 86 04        	stx	$4                      ; 0x2004 <__heap_default_limit+0x1004>
    52a2: a2 9d        	ldx	#$9d
    52a4: 86 05        	stx	$5                      ; 0x2005 <__heap_default_limit+0x1005>
    52a6: a2 41        	ldx	#$41
    52a8: 86 06        	stx	$6                      ; 0x2006 <__heap_default_limit+0x1006>
    52aa: a2 1c        	ldx	#$1c
    52ac: 86 07        	stx	$7                      ; 0x2007 <__heap_default_limit+0x1007>
    52ae: 20 96 8b     	jsr	$8b96 <strcpy>
    52b1: ae 4e 1b     	ldx	$1b4e                   ; 0x1b4e <__heap_default_limit+0xb4e>
    52b4: ac 50 1b     	ldy	$1b50                   ; 0x1b50 <__heap_default_limit+0xb50>
    52b7: a9 80        	lda	#$80
    52b9: 0d 51 1b     	ora	$1b51                   ; 0x1b51 <__heap_default_limit+0xb51>
    52bc: 8d 1b 9d     	sta	$9d1b                   ; 0x9d1b <direntryblock2>
    52bf: 8c 1c 9d     	sty	$9d1c                   ; 0x9d1c <direntryblock2+0x1>
    52c2: a9 80        	lda	#$80
    52c4: 0d 4f 1b     	ora	$1b4f                   ; 0x1b4f <__heap_default_limit+0xb4f>
    52c7: 8d 1e 9d     	sta	$9d1e                   ; 0x9d1e <direntryblock2+0x3>
    52ca: 8e 1f 9d     	stx	$9d1f                   ; 0x9d1f <direntryblock2+0x4>
    52cd: a9 40        	lda	#$40
    52cf: 0d 56 1b     	ora	$1b56                   ; 0x1b56 <__heap_default_limit+0xb56>
    52d2: 8d 1d 9d     	sta	$9d1d                   ; 0x9d1d <direntryblock2+0x2>
    52d5: ae 53 1b     	ldx	$1b53                   ; 0x1b53 <__heap_default_limit+0xb53>
    52d8: 86 04        	stx	$4                      ; 0x2004 <__heap_default_limit+0x1004>
    52da: ae 54 1b     	ldx	$1b54                   ; 0x1b54 <__heap_default_limit+0xb54>
    52dd: 86 05        	stx	$5                      ; 0x2005 <__heap_default_limit+0x1005>
    52df: ad 55 1b     	lda	$1b55                   ; 0x1b55 <__heap_default_limit+0xb55>
    52e2: 4a           	lsr
    52e3: 66 05        	ror	$5                      ; 0x2005 <__heap_default_limit+0x1005>
    52e5: 66 04        	ror	$4                      ; 0x2004 <__heap_default_limit+0x1004>
    52e7: 4a           	lsr
    52e8: a5 05        	lda	$5                      ; 0x2005 <__heap_default_limit+0x1005>
    52ea: 6a           	ror
    52eb: 66 04        	ror	$4                      ; 0x2004 <__heap_default_limit+0x1004>
    52ed: a6 04        	ldx	$4                      ; 0x2004 <__heap_default_limit+0x1004>
    52ef: 8e 39 9d     	stx	$9d39                   ; 0x9d39 <direntryblock2+0x1e>
    52f2: 8d 3a 9d     	sta	$9d3a                   ; 0x9d3a <direntryblock2+0x1f>
    52f5: a6 18        	ldx	$18                     ; 0x2018 <next_line+0x3>
    52f7: 86 20        	stx	$20                     ; 0x2020 <next_line+0xb>
    52f9: a5 18        	lda	$18                     ; 0x2018 <next_line+0x3>
    52fb: 4a           	lsr
    52fc: 64 04        	stz	$4                      ; 0x2004 <__heap_default_limit+0x1004>
    52fe: 66 04        	ror	$4                      ; 0x2004 <__heap_default_limit+0x1004>
    5300: 4a           	lsr
    5301: 66 04        	ror	$4                      ; 0x2004 <__heap_default_limit+0x1004>
    5303: 4a           	lsr
    5304: 85 18        	sta	$18                     ; 0x2018 <next_line+0x3>
    5306: 66 04        	ror	$4                      ; 0x2004 <__heap_default_limit+0x1004>
    5308: a6 04        	ldx	$4                      ; 0x2004 <__heap_default_limit+0x1004>
    530a: 86 19        	stx	$19                     ; 0x2019 <next_line+0x4>
    530c: a9 00        	lda	#$0
    530e: 18           	clc
    530f: 65 04        	adc	$4                      ; 0x2004 <__heap_default_limit+0x1004>
    5311: 85 06        	sta	$6                      ; 0x2006 <__heap_default_limit+0x1006>
    5313: a0 0b        	ldy	#$b
    5315: b1 02        	lda	($2),y                  ; 0x2002 <__heap_default_limit+0x1002>
    5317: 65 18        	adc	$18                     ; 0x2018 <next_line+0x3>
    5319: 85 07        	sta	$7                      ; 0x2007 <__heap_default_limit+0x1007>
    531b: 88           	dey
    531c: b1 02        	lda	($2),y                  ; 0x2002 <__heap_default_limit+0x1002>
    531e: 69 00        	adc	#$0
    5320: 85 08        	sta	$8                      ; 0x2008 <__heap_default_limit+0x1008>
    5322: a0 08        	ldy	#$8
    5324: b1 02        	lda	($2),y                  ; 0x2002 <__heap_default_limit+0x1002>
    5326: 69 00        	adc	#$0
    5328: 64 04        	stz	$4                      ; 0x2004 <__heap_default_limit+0x1004>
    532a: 64 05        	stz	$5                      ; 0x2005 <__heap_default_limit+0x1005>
    532c: 85 09        	sta	$9                      ; 0x2009 <__heap_default_limit+0x1009>
    532e: a2 20        	ldx	#$20
    5330: 86 0a        	stx	$a                      ; 0x200a <__heap_default_limit+0x100a>
    5332: 64 0b        	stz	$b                      ; 0x200b <__heap_default_limit+0x100b>
    5334: a2 9d        	ldx	#$9d
    5336: a9 1b        	lda	#$1b
    5338: 20 a5 89     	jsr	$89a5 <lcopy>
    533b: 06 19        	asl	$19                     ; 0x2019 <next_line+0x4>
    533d: 26 18        	rol	$18                     ; 0x2018 <next_line+0x3>
    533f: a9 00        	lda	#$0
    5341: 18           	clc
    5342: 65 19        	adc	$19                     ; 0x2019 <next_line+0x4>
    5344: aa           	tax
    5345: a0 0e        	ldy	#$e
    5347: b1 02        	lda	($2),y                  ; 0x2002 <__heap_default_limit+0x1002>
    5349: 65 18        	adc	$18                     ; 0x2018 <next_line+0x3>
    534b: a8           	tay
    534c: 5a           	phy
    534d: a0 0d        	ldy	#$d
    534f: b1 02        	lda	($2),y                  ; 0x2002 <__heap_default_limit+0x1002>
    5351: 69 00        	adc	#$0
    5353: 85 07        	sta	$7                      ; 0x2007 <__heap_default_limit+0x1007>
    5355: a0 09        	ldy	#$9
    5357: b1 02        	lda	($2),y                  ; 0x2002 <__heap_default_limit+0x1002>
    5359: 7a           	ply
    535a: 69 00        	adc	#$0
    535c: 85 04        	sta	$4                      ; 0x2004 <__heap_default_limit+0x1004>
    535e: 18           	clc
    535f: 8a           	txa
    5360: 69 00        	adc	#$0
    5362: 85 06        	sta	$6                      ; 0x2006 <__heap_default_limit+0x1006>
    5364: 98           	tya
    5365: 69 3e        	adc	#$3e
    5367: aa           	tax
    5368: a5 07        	lda	$7                      ; 0x2007 <__heap_default_limit+0x1007>
    536a: 69 00        	adc	#$0
    536c: 85 08        	sta	$8                      ; 0x2008 <__heap_default_limit+0x1008>
    536e: a5 04        	lda	$4                      ; 0x2004 <__heap_default_limit+0x1004>
    5370: 69 08        	adc	#$8
    5372: 86 07        	stx	$7                      ; 0x2007 <__heap_default_limit+0x1007>
    5374: 64 04        	stz	$4                      ; 0x2004 <__heap_default_limit+0x1004>
    5376: 64 05        	stz	$5                      ; 0x2005 <__heap_default_limit+0x1005>
    5378: 85 09        	sta	$9                      ; 0x2009 <__heap_default_limit+0x1009>
    537a: a2 40        	ldx	#$40
    537c: 86 0a        	stx	$a                      ; 0x200a <__heap_default_limit+0x100a>
    537e: 64 0b        	stz	$b                      ; 0x200b <__heap_default_limit+0x100b>
    5380: a2 1b        	ldx	#$1b
    5382: a9 00        	lda	#$0
    5384: 20 a5 89     	jsr	$89a5 <lcopy>
    5387: a4 1e        	ldy	$1e                     ; 0x201e <next_line+0x9>
    5389: e6 20        	inc	$20                     ; 0x2020 <next_line+0xb>
    538b: a6 20        	ldx	$20                     ; 0x2020 <next_line+0xb>
    538d: 86 18        	stx	$18                     ; 0x2018 <next_line+0x3>
    538f: 4c 60 52     	jmp	$5260 <donehypreaddir4+0x35>
    5392: a0 47        	ldy	#$47
    5394: b1 1a        	lda	($1a),y                 ; 0x201a <next_line+0x5>
    5396: 85 18        	sta	$18                     ; 0x2018 <next_line+0x3>
    5398: c8           	iny
    5399: b1 1a        	lda	($1a),y                 ; 0x201a <next_line+0x5>
    539b: 85 19        	sta	$19                     ; 0x2019 <next_line+0x4>
    539d: c8           	iny
    539e: b1 1a        	lda	($1a),y                 ; 0x201a <next_line+0x5>
    53a0: 85 1c        	sta	$1c                     ; 0x201c <next_line+0x7>
    53a2: a5 17        	lda	$17                     ; 0x2017 <next_line+0x2>
    53a4: 20 4e 26     	jsr	$264e <GetBAM>
    53a7: a2 00        	ldx	#$0
    53a9: 86 04        	stx	$4                      ; 0x2004 <__heap_default_limit+0x1004>
    53ab: a2 17        	ldx	#$17
    53ad: 86 05        	stx	$5                      ; 0x2005 <__heap_default_limit+0x1005>
    53af: a2 00        	ldx	#$0
    53b1: 86 06        	stx	$6                      ; 0x2006 <__heap_default_limit+0x1006>
    53b3: a2 18        	ldx	#$18
    53b5: 86 07        	stx	$7                      ; 0x2007 <__heap_default_limit+0x1007>
    53b7: a6 1c        	ldx	$1c                     ; 0x201c <next_line+0x7>
    53b9: 86 08        	stx	$8                      ; 0x2008 <__heap_default_limit+0x1008>
    53bb: a6 19        	ldx	$19                     ; 0x2019 <next_line+0x4>
    53bd: a5 18        	lda	$18                     ; 0x2018 <next_line+0x3>
    53bf: 20 e1 2a     	jsr	$2ae1 <BAMSectorsFreeBlocks>
    53c2: 85 06        	sta	$6                      ; 0x2006 <__heap_default_limit+0x1006>
    53c4: 18           	clc
    53c5: a5 1e        	lda	$1e                     ; 0x201e <next_line+0x9>
    53c7: 69 44        	adc	#$44
    53c9: 85 04        	sta	$4                      ; 0x2004 <__heap_default_limit+0x1004>
    53cb: a5 1d        	lda	$1d                     ; 0x201d <next_line+0x8>
    53cd: 69 00        	adc	#$0
    53cf: a0 44        	ldy	#$44
    53d1: 85 05        	sta	$5                      ; 0x2005 <__heap_default_limit+0x1005>
    53d3: a5 06        	lda	$6                      ; 0x2006 <__heap_default_limit+0x1006>
    53d5: 91 1a        	sta	($1a),y                 ; 0x201a <next_line+0x5>
    53d7: a0 01        	ldy	#$1
    53d9: 8a           	txa
    53da: 91 04        	sta	($4),y                  ; 0x2004 <__heap_default_limit+0x1004>
    53dc: a5 17        	lda	$17                     ; 0x2017 <next_line+0x2>
    53de: 4a           	lsr
    53df: aa           	tax
    53e0: a9 00        	lda	#$0
    53e2: 6a           	ror
    53e3: 64 04        	stz	$4                      ; 0x2004 <__heap_default_limit+0x1004>
    53e5: 66 04        	ror	$4                      ; 0x2004 <__heap_default_limit+0x1004>
    53e7: 86 05        	stx	$5                      ; 0x2005 <__heap_default_limit+0x1005>
    53e9: 46 05        	lsr	$5                      ; 0x2005 <__heap_default_limit+0x1005>
    53eb: 6a           	ror
    53ec: 66 04        	ror	$4                      ; 0x2004 <__heap_default_limit+0x1004>
    53ee: 46 05        	lsr	$5                      ; 0x2005 <__heap_default_limit+0x1005>
    53f0: 6a           	ror
    53f1: aa           	tax
    53f2: a5 04        	lda	$4                      ; 0x2004 <__heap_default_limit+0x1004>
    53f4: 6a           	ror
    53f5: 38           	sec
    53f6: e9 00        	sbc	#$0
    53f8: 85 0b        	sta	$b                      ; 0x200b <__heap_default_limit+0x100b>
    53fa: 8a           	txa
    53fb: e5 17        	sbc	$17                     ; 0x2017 <next_line+0x2>
    53fd: 85 0c        	sta	$c                      ; 0x200c <__heap_default_limit+0x100c>
    53ff: a5 05        	lda	$5                      ; 0x2005 <__heap_default_limit+0x1005>
    5401: e9 00        	sbc	#$0
    5403: 85 04        	sta	$4                      ; 0x2004 <__heap_default_limit+0x1004>
    5405: a9 00        	lda	#$0
    5407: e9 00        	sbc	#$0
    5409: aa           	tax
    540a: a0 47        	ldy	#$47
    540c: b1 1a        	lda	($1a),y                 ; 0x201a <next_line+0x5>
    540e: 85 09        	sta	$9                      ; 0x2009 <__heap_default_limit+0x1009>
    5410: 8a           	txa
    5411: 09 08        	ora	#$8
    5413: a2 1f        	ldx	#$1f
    5415: a0 03        	ldy	#$3
    5417: 85 05        	sta	$5                      ; 0x2005 <__heap_default_limit+0x1005>
    5419: 86 06        	stx	$6                      ; 0x2006 <__heap_default_limit+0x1006>
    541b: 64 07        	stz	$7                      ; 0x2007 <__heap_default_limit+0x1007>
    541d: a6 16        	ldx	$16                     ; 0x2016 <next_line+0x1>
    541f: 86 08        	stx	$8                      ; 0x2008 <__heap_default_limit+0x1008>
    5421: 84 0a        	sty	$a                      ; 0x200a <__heap_default_limit+0x100a>
    5423: a6 0c        	ldx	$c                      ; 0x200c <__heap_default_limit+0x100c>
    5425: a5 0b        	lda	$b                      ; 0x200b <__heap_default_limit+0x100b>
    5427: 20 e7 26     	jsr	$26e7 <readblockchain>
    542a: c9 02        	cmp	#$2
    542c: 90 05        	bcc	$5433 <donehypreaddir4+0x208>
    542e: a9 ff        	lda	#$ff
    5430: 4c 69 54     	jmp	$5469 <donehypreaddir4+0x23e>
    5433: a9 f8        	lda	#$f8
    5435: 64 16        	stz	$16                     ; 0x2016 <next_line+0x1>
    5437: a2 00        	ldx	#$0
    5439: 86 18        	stx	$18                     ; 0x2018 <next_line+0x3>
    543b: a2 00        	ldx	#$0
    543d: 86 19        	stx	$19                     ; 0x2019 <next_line+0x4>
    543f: a6 16        	ldx	$16                     ; 0x2016 <next_line+0x1>
    5441: 30 eb        	bmi	$542e <donehypreaddir4+0x203>
    5443: a6 16        	ldx	$16                     ; 0x2016 <next_line+0x1>
    5445: 86 04        	stx	$4                      ; 0x2004 <__heap_default_limit+0x1004>
    5447: 85 1c        	sta	$1c                     ; 0x201c <next_line+0x7>
    5449: aa           	tax
    544a: a5 17        	lda	$17                     ; 0x2017 <next_line+0x2>
    544c: 20 47 35     	jsr	$3547 <getdirententry>
    544f: a6 05        	ldx	$5                      ; 0x2005 <__heap_default_limit+0x1005>
    5451: e4 19        	cpx	$19                     ; 0x2019 <next_line+0x4>
    5453: d0 12        	bne	$5467 <donehypreaddir4+0x23c>
    5455: a6 04        	ldx	$4                      ; 0x2004 <__heap_default_limit+0x1004>
    5457: e4 18        	cpx	$18                     ; 0x2018 <next_line+0x3>
    5459: d0 0c        	bne	$5467 <donehypreaddir4+0x23c>
    545b: a5 1c        	lda	$1c                     ; 0x201c <next_line+0x7>
    545d: 3a           	dec
    545e: c9 ff        	cmp	#$ff
    5460: d0 03        	bne	$5465 <donehypreaddir4+0x23a>
    5462: 4c 06 55     	jmp	$5506 <donehypclosedir5+0x7a>
    5465: 80 d8        	bra	$543f <donehypreaddir4+0x214>
    5467: a5 1c        	lda	$1c                     ; 0x201c <next_line+0x7>
    5469: a0 02        	ldy	#$2
    546b: 91 1a        	sta	($1a),y                 ; 0x201a <next_line+0x5>
    546d: 4c c3 54     	jmp	$54c3 <donehypclosedir5+0x37>
    5470: 98           	tya
    5471: 80 1c        	bra	$548f <donehypclosedir5+0x3>
    5473: c6 18        	dec	$18                     ; 0x2018 <next_line+0x3>
    5475: a5 18        	lda	$18                     ; 0x2018 <next_line+0x3>
    5477: a0 0d        	ldy	#$d
    5479: 91 02        	sta	($2),y                  ; 0x2002 <__heap_default_limit+0x1002>
    547b: a6 21        	ldx	$21                     ; 0x2021 <_start>
    547d: a9 16        	lda	#$16
    547f: 8d 40 d6     	sta	$d640                   ; 0xd640 <__heap_start+0x3646>
    5482: b8           	clv
    5483: 90 05        	bcc	$548a <errhypclosedir5>
    5485: 86 04        	stx	$4                      ; 0x2004 <__heap_default_limit+0x1004>
    5487: 4c 8c 54     	jmp	$548c <donehypclosedir5>

0000548a <errhypclosedir5>:
    548a: 85 04        	sta	$4                      ; 0x2004 <__heap_default_limit+0x1004>

0000548c <donehypclosedir5>:
    548c: ea           	nop
    548d: a5 1d        	lda	$1d                     ; 0x201d <next_line+0x8>
    548f: a0 02        	ldy	#$2
    5491: aa           	tax
    5492: 5a           	phy
    5493: a0 0d        	ldy	#$d
    5495: b1 02        	lda	($2),y                  ; 0x2002 <__heap_default_limit+0x1002>
    5497: 7a           	ply
    5498: 91 1a        	sta	($1a),y                 ; 0x201a <next_line+0x5>
    549a: a0 44        	ldy	#$44
    549c: 18           	clc
    549d: 5a           	phy
    549e: a0 0c        	ldy	#$c
    54a0: b1 02        	lda	($2),y                  ; 0x2002 <__heap_default_limit+0x1002>
    54a2: 7a           	ply
    54a3: 69 44        	adc	#$44
    54a5: 85 04        	sta	$4                      ; 0x2004 <__heap_default_limit+0x1004>
    54a7: 8a           	txa
    54a8: 69 00        	adc	#$0
    54aa: 85 05        	sta	$5                      ; 0x2005 <__heap_default_limit+0x1005>
    54ac: a9 ff        	lda	#$ff
    54ae: 91 1a        	sta	($1a),y                 ; 0x201a <next_line+0x5>
    54b0: a0 01        	ldy	#$1
    54b2: 91 04        	sta	($4),y                  ; 0x2004 <__heap_default_limit+0x1004>
    54b4: a5 1f        	lda	$1f                     ; 0x201f <next_line+0xa>
    54b6: f0 0b        	beq	$54c3 <donehypclosedir5+0x37>
    54b8: a9 fe        	lda	#$fe
    54ba: a0 44        	ldy	#$44
    54bc: 91 1a        	sta	($1a),y                 ; 0x201a <next_line+0x5>
    54be: 1a           	inc
    54bf: a0 01        	ldy	#$1
    54c1: 91 04        	sta	($4),y                  ; 0x2004 <__heap_default_limit+0x1004>
    54c3: a0 00        	ldy	#$0
    54c5: b1 02        	lda	($2),y                  ; 0x2002 <__heap_default_limit+0x1002>
    54c7: 85 21        	sta	$21                     ; 0x2021 <_start>
    54c9: c8           	iny
    54ca: b1 02        	lda	($2),y                  ; 0x2002 <__heap_default_limit+0x1002>
    54cc: 85 20        	sta	$20                     ; 0x2020 <next_line+0xb>
    54ce: c8           	iny
    54cf: b1 02        	lda	($2),y                  ; 0x2002 <__heap_default_limit+0x1002>
    54d1: 85 1f        	sta	$1f                     ; 0x201f <next_line+0xa>
    54d3: c8           	iny
    54d4: b1 02        	lda	($2),y                  ; 0x2002 <__heap_default_limit+0x1002>
    54d6: 85 1e        	sta	$1e                     ; 0x201e <next_line+0x9>
    54d8: c8           	iny
    54d9: b1 02        	lda	($2),y                  ; 0x2002 <__heap_default_limit+0x1002>
    54db: 85 1d        	sta	$1d                     ; 0x201d <next_line+0x8>
    54dd: c8           	iny
    54de: b1 02        	lda	($2),y                  ; 0x2002 <__heap_default_limit+0x1002>
    54e0: 85 1c        	sta	$1c                     ; 0x201c <next_line+0x7>
    54e2: c8           	iny
    54e3: b1 02        	lda	($2),y                  ; 0x2002 <__heap_default_limit+0x1002>
    54e5: 85 1b        	sta	$1b                     ; 0x201b <next_line+0x6>
    54e7: c8           	iny
    54e8: b1 02        	lda	($2),y                  ; 0x2002 <__heap_default_limit+0x1002>
    54ea: 85 1a        	sta	$1a                     ; 0x201a <next_line+0x5>
    54ec: fa           	plx
    54ed: 86 19        	stx	$19                     ; 0x2019 <next_line+0x4>
    54ef: fa           	plx
    54f0: 86 18        	stx	$18                     ; 0x2018 <next_line+0x3>
    54f2: fa           	plx
    54f3: 86 17        	stx	$17                     ; 0x2017 <next_line+0x2>
    54f5: fa           	plx
    54f6: 86 16        	stx	$16                     ; 0x2016 <next_line+0x1>
    54f8: 18           	clc
    54f9: a5 02        	lda	$2                      ; 0x2002 <__heap_default_limit+0x1002>
    54fb: 69 0f        	adc	#$f
    54fd: 85 02        	sta	$2                      ; 0x2002 <__heap_default_limit+0x1002>
    54ff: a5 03        	lda	$3                      ; 0x2003 <__heap_default_limit+0x1003>
    5501: 69 00        	adc	#$0
    5503: 85 03        	sta	$3                      ; 0x2003 <__heap_default_limit+0x1003>
    5505: 60           	rts
    5506: c6 16        	dec	$16                     ; 0x2016 <next_line+0x1>
    5508: 4c 65 54     	jmp	$5465 <donehypreaddir4+0x23a>

0000550b <sizeselectcurrentifnone>:
    550b: a6 16        	ldx	$16                     ; 0x2016 <next_line+0x1>
    550d: da           	phx
    550e: a6 17        	ldx	$17                     ; 0x2017 <next_line+0x2>
    5510: da           	phx
    5511: a6 18        	ldx	$18                     ; 0x2018 <next_line+0x3>
    5513: da           	phx
    5514: a6 19        	ldx	$19                     ; 0x2019 <next_line+0x4>
    5516: da           	phx
    5517: a6 1a        	ldx	$1a                     ; 0x201a <next_line+0x5>
    5519: 8e e4 9f     	stx	$9fe4                   ; 0x9fe4 <__data_load_start+0x2ca>
    551c: a6 1b        	ldx	$1b                     ; 0x201b <next_line+0x6>
    551e: 8e e5 9f     	stx	$9fe5                   ; 0x9fe5 <__data_load_start+0x2cb>
    5521: a6 1c        	ldx	$1c                     ; 0x201c <next_line+0x7>
    5523: 8e e6 9f     	stx	$9fe6                   ; 0x9fe6 <__data_load_start+0x2cc>
    5526: 85 16        	sta	$16                     ; 0x2016 <next_line+0x1>
    5528: 0a           	asl
    5529: aa           	tax
    552a: 64 17        	stz	$17                     ; 0x2017 <next_line+0x2>
    552c: a9 00        	lda	#$0
    552e: 2a           	rol
    552f: 85 04        	sta	$4                      ; 0x2004 <__heap_default_limit+0x1004>
    5531: 8a           	txa
    5532: 8e e0 9f     	stx	$9fe0                   ; 0x9fe0 <__data_load_start+0x2c6>
    5535: 0a           	asl
    5536: a6 04        	ldx	$4                      ; 0x2004 <__heap_default_limit+0x1004>
    5538: 8e e1 9f     	stx	$9fe1                   ; 0x9fe1 <__data_load_start+0x2c7>
    553b: 26 04        	rol	$4                      ; 0x2004 <__heap_default_limit+0x1004>
    553d: 0a           	asl
    553e: 85 05        	sta	$5                      ; 0x2005 <__heap_default_limit+0x1005>
    5540: 26 04        	rol	$4                      ; 0x2004 <__heap_default_limit+0x1004>
    5542: a6 04        	ldx	$4                      ; 0x2004 <__heap_default_limit+0x1004>
    5544: 86 06        	stx	$6                      ; 0x2006 <__heap_default_limit+0x1006>
    5546: a5 04        	lda	$4                      ; 0x2004 <__heap_default_limit+0x1004>
    5548: 4a           	lsr
    5549: a6 05        	ldx	$5                      ; 0x2005 <__heap_default_limit+0x1005>
    554b: 86 07        	stx	$7                      ; 0x2007 <__heap_default_limit+0x1007>
    554d: 66 07        	ror	$7                      ; 0x2007 <__heap_default_limit+0x1007>
    554f: 64 04        	stz	$4                      ; 0x2004 <__heap_default_limit+0x1004>
    5551: 66 04        	ror	$4                      ; 0x2004 <__heap_default_limit+0x1004>
    5553: 4a           	lsr
    5554: 66 07        	ror	$7                      ; 0x2007 <__heap_default_limit+0x1007>
    5556: 66 04        	ror	$4                      ; 0x2004 <__heap_default_limit+0x1004>
    5558: 4a           	lsr
    5559: 66 07        	ror	$7                      ; 0x2007 <__heap_default_limit+0x1007>
    555b: 66 04        	ror	$4                      ; 0x2004 <__heap_default_limit+0x1004>
    555d: 38           	sec
    555e: a6 04        	ldx	$4                      ; 0x2004 <__heap_default_limit+0x1004>
    5560: 8e e3 9f     	stx	$9fe3                   ; 0x9fe3 <__data_load_start+0x2c9>
    5563: a5 04        	lda	$4                      ; 0x2004 <__heap_default_limit+0x1004>
    5565: a6 05        	ldx	$5                      ; 0x2005 <__heap_default_limit+0x1005>
    5567: 8e de 9f     	stx	$9fde                   ; 0x9fde <__data_load_start+0x2c4>
    556a: e5 05        	sbc	$5                      ; 0x2005 <__heap_default_limit+0x1005>
    556c: 85 04        	sta	$4                      ; 0x2004 <__heap_default_limit+0x1004>
    556e: a6 07        	ldx	$7                      ; 0x2007 <__heap_default_limit+0x1007>
    5570: 8e e2 9f     	stx	$9fe2                   ; 0x9fe2 <__data_load_start+0x2c8>
    5573: a5 07        	lda	$7                      ; 0x2007 <__heap_default_limit+0x1007>
    5575: a6 06        	ldx	$6                      ; 0x2006 <__heap_default_limit+0x1006>
    5577: 8e df 9f     	stx	$9fdf                   ; 0x9fdf <__data_load_start+0x2c5>
    557a: e5 06        	sbc	$6                      ; 0x2006 <__heap_default_limit+0x1006>
    557c: 85 05        	sta	$5                      ; 0x2005 <__heap_default_limit+0x1005>
    557e: a9 8b        	lda	#$8b
    5580: 18           	clc
    5581: 65 04        	adc	$4                      ; 0x2004 <__heap_default_limit+0x1004>
    5583: 85 18        	sta	$18                     ; 0x2018 <next_line+0x3>
    5585: a9 9d        	lda	#$9d
    5587: 65 05        	adc	$5                      ; 0x2005 <__heap_default_limit+0x1005>
    5589: 85 19        	sta	$19                     ; 0x2019 <next_line+0x4>
    558b: a9 00        	lda	#$0
    558d: 64 1b        	stz	$1b                     ; 0x201b <next_line+0x6>
    558f: aa           	tax
    5590: a8           	tay
    5591: 80 03        	bra	$5596 <sizeselectcurrentifnone+0x8b>
    5593: c8           	iny
    5594: a5 1a        	lda	$1a                     ; 0x201a <next_line+0x5>
    5596: c0 f8        	cpy	#$f8
    5598: d0 03        	bne	$559d <sizeselectcurrentifnone+0x92>
    559a: 4c 09 56     	jmp	$5609 <sizeselectcurrentifnone+0xfe>
    559d: 85 1a        	sta	$1a                     ; 0x201a <next_line+0x5>
    559f: a9 01        	lda	#$1
    55a1: 31 18        	and	($18),y                 ; 0x2018 <next_line+0x3>
    55a3: f0 ee        	beq	$5593 <sizeselectcurrentifnone+0x88>
    55a5: 64 04        	stz	$4                      ; 0x2004 <__heap_default_limit+0x1004>
    55a7: 5a           	phy
    55a8: fa           	plx
    55a9: a5 16        	lda	$16                     ; 0x2016 <next_line+0x1>
    55ab: 84 1c        	sty	$1c                     ; 0x201c <next_line+0x7>
    55ad: 20 47 35     	jsr	$3547 <getdirententry>
    55b0: a5 04        	lda	$4                      ; 0x2004 <__heap_default_limit+0x1004>
    55b2: 18           	clc
    55b3: 69 1e        	adc	#$1e
    55b5: 85 06        	sta	$6                      ; 0x2006 <__heap_default_limit+0x1006>
    55b7: a5 05        	lda	$5                      ; 0x2005 <__heap_default_limit+0x1005>
    55b9: 69 00        	adc	#$0
    55bb: 85 07        	sta	$7                      ; 0x2007 <__heap_default_limit+0x1007>
    55bd: 18           	clc
    55be: a5 1a        	lda	$1a                     ; 0x201a <next_line+0x5>
    55c0: a0 1e        	ldy	#$1e
    55c2: 71 04        	adc	($4),y                  ; 0x2004 <__heap_default_limit+0x1004>
    55c4: 85 1a        	sta	$1a                     ; 0x201a <next_line+0x5>
    55c6: a5 1b        	lda	$1b                     ; 0x201b <next_line+0x6>
    55c8: a0 01        	ldy	#$1
    55ca: 71 06        	adc	($6),y                  ; 0x2006 <__heap_default_limit+0x1006>
    55cc: 85 1b        	sta	$1b                     ; 0x201b <next_line+0x6>
    55ce: a9 0f        	lda	#$f
    55d0: c8           	iny
    55d1: 31 04        	and	($4),y                  ; 0x2004 <__heap_default_limit+0x1004>
    55d3: a4 1c        	ldy	$1c                     ; 0x201c <next_line+0x7>
    55d5: a2 01        	ldx	#$1
    55d7: c9 05        	cmp	#$5
    55d9: f0 03        	beq	$55de <sizeselectcurrentifnone+0xd3>
    55db: 4c 93 55     	jmp	$5593 <sizeselectcurrentifnone+0x88>
    55de: a9 04        	lda	#$4
    55e0: a2 e2        	ldx	#$e2
    55e2: 86 04        	stx	$4                      ; 0x2004 <__heap_default_limit+0x1004>
    55e4: a2 96        	ldx	#$96
    55e6: 86 05        	stx	$5                      ; 0x2005 <__heap_default_limit+0x1005>
    55e8: a2 c5        	ldx	#$c5
    55ea: 86 06        	stx	$6                      ; 0x2006 <__heap_default_limit+0x1006>
    55ec: a2 9a        	ldx	#$9a
    55ee: 86 07        	stx	$7                      ; 0x2007 <__heap_default_limit+0x1007>
    55f0: a2 07        	ldx	#$7
    55f2: 86 08        	stx	$8                      ; 0x2008 <__heap_default_limit+0x1008>
    55f4: a2 92        	ldx	#$92
    55f6: 86 09        	stx	$9                      ; 0x2009 <__heap_default_limit+0x1009>
    55f8: 64 0a        	stz	$a                      ; 0x200a <__heap_default_limit+0x100a>
    55fa: 64 0b        	stz	$b                      ; 0x200b <__heap_default_limit+0x100b>
    55fc: 64 0c        	stz	$c                      ; 0x200c <__heap_default_limit+0x100c>
    55fe: a2 00        	ldx	#$0
    5600: 20 67 44     	jsr	$4467 <messagebox>
    5603: a9 ff        	lda	#$ff
    5605: aa           	tax
    5606: 4c 8e 56     	jmp	$568e <sizeselectcurrentifnone+0x183>
    5609: e0 00        	cpx	#$0
    560b: f0 05        	beq	$5612 <sizeselectcurrentifnone+0x107>
    560d: a6 1b        	ldx	$1b                     ; 0x201b <next_line+0x6>
    560f: 4c 8e 56     	jmp	$568e <sizeselectcurrentifnone+0x183>
    5612: 85 17        	sta	$17                     ; 0x2017 <next_line+0x2>
    5614: a9 27        	lda	#$27
    5616: ae e0 9f     	ldx	$9fe0                   ; 0x9fe0 <__data_load_start+0x2c6>
    5619: 86 04        	stx	$4                      ; 0x2004 <__heap_default_limit+0x1004>
    561b: 18           	clc
    561c: 65 04        	adc	$4                      ; 0x2004 <__heap_default_limit+0x1004>
    561e: a8           	tay
    561f: ae e1 9f     	ldx	$9fe1                   ; 0x9fe1 <__data_load_start+0x2c7>
    5622: 86 04        	stx	$4                      ; 0x2004 <__heap_default_limit+0x1004>
    5624: a9 00        	lda	#$0
    5626: 65 04        	adc	$4                      ; 0x2004 <__heap_default_limit+0x1004>
    5628: 84 04        	sty	$4                      ; 0x2004 <__heap_default_limit+0x1004>
    562a: 85 05        	sta	$5                      ; 0x2005 <__heap_default_limit+0x1005>
    562c: b2 04        	lda	($4),z                  ; 0x2004 <__heap_default_limit+0x1004>
    562e: aa           	tax
    562f: a0 01        	ldy	#$1
    5631: b1 04        	lda	($4),y                  ; 0x2004 <__heap_default_limit+0x1004>
    5633: 86 04        	stx	$4                      ; 0x2004 <__heap_default_limit+0x1004>
    5635: 85 05        	sta	$5                      ; 0x2005 <__heap_default_limit+0x1005>
    5637: 38           	sec
    5638: ae de 9f     	ldx	$9fde                   ; 0x9fde <__data_load_start+0x2c4>
    563b: 86 06        	stx	$6                      ; 0x2006 <__heap_default_limit+0x1006>
    563d: ad e3 9f     	lda	$9fe3                   ; 0x9fe3 <__data_load_start+0x2c9>
    5640: e5 06        	sbc	$6                      ; 0x2006 <__heap_default_limit+0x1006>
    5642: 85 06        	sta	$6                      ; 0x2006 <__heap_default_limit+0x1006>
    5644: ae df 9f     	ldx	$9fdf                   ; 0x9fdf <__data_load_start+0x2c5>
    5647: 86 07        	stx	$7                      ; 0x2007 <__heap_default_limit+0x1007>
    5649: ad e2 9f     	lda	$9fe2                   ; 0x9fe2 <__data_load_start+0x2c8>
    564c: e5 07        	sbc	$7                      ; 0x2007 <__heap_default_limit+0x1007>
    564e: 85 07        	sta	$7                      ; 0x2007 <__heap_default_limit+0x1007>
    5650: a9 8b        	lda	#$8b
    5652: 18           	clc
    5653: 65 06        	adc	$6                      ; 0x2006 <__heap_default_limit+0x1006>
    5655: 85 06        	sta	$6                      ; 0x2006 <__heap_default_limit+0x1006>
    5657: a9 9d        	lda	#$9d
    5659: 65 07        	adc	$7                      ; 0x2007 <__heap_default_limit+0x1007>
    565b: 85 07        	sta	$7                      ; 0x2007 <__heap_default_limit+0x1007>
    565d: b1 04        	lda	($4),y                  ; 0x2004 <__heap_default_limit+0x1004>
    565f: a8           	tay
    5660: a9 01        	lda	#$1
    5662: 11 06        	ora	($6),y                  ; 0x2006 <__heap_default_limit+0x1006>
    5664: 91 06        	sta	($6),y                  ; 0x2006 <__heap_default_limit+0x1006>
    5666: 64 04        	stz	$4                      ; 0x2004 <__heap_default_limit+0x1004>
    5668: 5a           	phy
    5669: fa           	plx
    566a: a5 16        	lda	$16                     ; 0x2016 <next_line+0x1>
    566c: 20 47 35     	jsr	$3547 <getdirententry>
    566f: a5 04        	lda	$4                      ; 0x2004 <__heap_default_limit+0x1004>
    5671: 18           	clc
    5672: 69 1e        	adc	#$1e
    5674: 85 06        	sta	$6                      ; 0x2006 <__heap_default_limit+0x1006>
    5676: a5 05        	lda	$5                      ; 0x2005 <__heap_default_limit+0x1005>
    5678: 69 00        	adc	#$0
    567a: 85 07        	sta	$7                      ; 0x2007 <__heap_default_limit+0x1007>
    567c: a5 17        	lda	$17                     ; 0x2017 <next_line+0x2>
    567e: a0 1e        	ldy	#$1e
    5680: 18           	clc
    5681: 71 04        	adc	($4),y                  ; 0x2004 <__heap_default_limit+0x1004>
    5683: 85 04        	sta	$4                      ; 0x2004 <__heap_default_limit+0x1004>
    5685: a5 1b        	lda	$1b                     ; 0x201b <next_line+0x6>
    5687: a0 01        	ldy	#$1
    5689: 71 06        	adc	($6),y                  ; 0x2006 <__heap_default_limit+0x1006>
    568b: aa           	tax
    568c: a5 04        	lda	$4                      ; 0x2004 <__heap_default_limit+0x1004>
    568e: ac e6 9f     	ldy	$9fe6                   ; 0x9fe6 <__data_load_start+0x2cc>
    5691: 84 1c        	sty	$1c                     ; 0x201c <next_line+0x7>
    5693: ac e5 9f     	ldy	$9fe5                   ; 0x9fe5 <__data_load_start+0x2cb>
    5696: 84 1b        	sty	$1b                     ; 0x201b <next_line+0x6>
    5698: ac e4 9f     	ldy	$9fe4                   ; 0x9fe4 <__data_load_start+0x2ca>
    569b: 84 1a        	sty	$1a                     ; 0x201a <next_line+0x5>
    569d: 7a           	ply
    569e: 84 19        	sty	$19                     ; 0x2019 <next_line+0x4>
    56a0: 7a           	ply
    56a1: 84 18        	sty	$18                     ; 0x2018 <next_line+0x3>
    56a3: 7a           	ply
    56a4: 84 17        	sty	$17                     ; 0x2017 <next_line+0x2>
    56a6: 7a           	ply
    56a7: 84 16        	sty	$16                     ; 0x2016 <next_line+0x1>
    56a9: 60           	rts

000056aa <navi>:
    56aa: 18           	clc
    56ab: a5 02        	lda	$2                      ; 0x2002 <__heap_default_limit+0x1002>
    56ad: 69 e1        	adc	#$e1
    56af: 85 02        	sta	$2                      ; 0x2002 <__heap_default_limit+0x1002>
    56b1: a5 03        	lda	$3                      ; 0x2003 <__heap_default_limit+0x1003>
    56b3: 69 ff        	adc	#$ff
    56b5: 85 03        	sta	$3                      ; 0x2003 <__heap_default_limit+0x1003>
    56b7: a6 16        	ldx	$16                     ; 0x2016 <next_line+0x1>
    56b9: da           	phx
    56ba: a6 17        	ldx	$17                     ; 0x2017 <next_line+0x2>
    56bc: da           	phx
    56bd: a6 18        	ldx	$18                     ; 0x2018 <next_line+0x3>
    56bf: da           	phx
    56c0: a6 19        	ldx	$19                     ; 0x2019 <next_line+0x4>
    56c2: da           	phx
    56c3: a5 1a        	lda	$1a                     ; 0x201a <next_line+0x5>
    56c5: a0 07        	ldy	#$7
    56c7: 91 02        	sta	($2),y                  ; 0x2002 <__heap_default_limit+0x1002>
    56c9: a5 1b        	lda	$1b                     ; 0x201b <next_line+0x6>
    56cb: 88           	dey
    56cc: 91 02        	sta	($2),y                  ; 0x2002 <__heap_default_limit+0x1002>
    56ce: a5 1c        	lda	$1c                     ; 0x201c <next_line+0x7>
    56d0: 88           	dey
    56d1: 91 02        	sta	($2),y                  ; 0x2002 <__heap_default_limit+0x1002>
    56d3: a5 1d        	lda	$1d                     ; 0x201d <next_line+0x8>
    56d5: 88           	dey
    56d6: 91 02        	sta	($2),y                  ; 0x2002 <__heap_default_limit+0x1002>
    56d8: a5 1e        	lda	$1e                     ; 0x201e <next_line+0x9>
    56da: 88           	dey
    56db: 91 02        	sta	($2),y                  ; 0x2002 <__heap_default_limit+0x1002>
    56dd: a5 1f        	lda	$1f                     ; 0x201f <next_line+0xa>
    56df: 88           	dey
    56e0: 91 02        	sta	($2),y                  ; 0x2002 <__heap_default_limit+0x1002>
    56e2: a5 20        	lda	$20                     ; 0x2020 <next_line+0xb>
    56e4: 88           	dey
    56e5: 91 02        	sta	($2),y                  ; 0x2002 <__heap_default_limit+0x1002>
    56e7: a5 21        	lda	$21                     ; 0x2021 <_start>
    56e9: 88           	dey
    56ea: 91 02        	sta	($2),y                  ; 0x2002 <__heap_default_limit+0x1002>
    56ec: a2 06        	ldx	#$6
    56ee: 86 2f        	stx	$2f                     ; 0x202f <__do_init_stack>
    56f0: a9 00        	lda	#$0
    56f2: 8d 40 d6     	sta	$d640                   ; 0xd640 <__heap_start+0x3646>
    56f5: b8           	clv
    56f6: 9c 03 17     	stz	$1703                   ; 0x1703 <__heap_default_limit+0x703>
    56f9: a3 00        	ldz	#$0
    56fb: 86 17        	stx	$17                     ; 0x2017 <next_line+0x2>
    56fd: 84 16        	sty	$16                     ; 0x2016 <next_line+0x1>
    56ff: ae 03 17     	ldx	$1703                   ; 0x1703 <__heap_default_limit+0x703>
    5702: 86 18        	stx	$18                     ; 0x2018 <next_line+0x3>
    5704: a2 64        	ldx	#$64
    5706: 86 04        	stx	$4                      ; 0x2004 <__heap_default_limit+0x1004>
    5708: 64 05        	stz	$5                      ; 0x2005 <__heap_default_limit+0x1005>
    570a: a2 00        	ldx	#$0
    570c: 20 2e 8c     	jsr	$8c2e <__mulhi3>
    570f: 18           	clc
    5710: 65 17        	adc	$17                     ; 0x2017 <next_line+0x2>
    5712: a8           	tay
    5713: 8a           	txa
    5714: 69 00        	adc	#$0
    5716: d0 08        	bne	$5720 <navi+0x76>
    5718: c0 66        	cpy	#$66
    571a: b0 08        	bcs	$5724 <navi+0x7a>
    571c: a0 01        	ldy	#$1
    571e: 80 26        	bra	$5746 <navi+0x9c>
    5720: c9 00        	cmp	#$0
    5722: 90 f8        	bcc	$571c <navi+0x72>
    5724: a2 00        	ldx	#$0
    5726: a0 64        	ldy	#$64
    5728: 64 05        	stz	$5                      ; 0x2005 <__heap_default_limit+0x1005>
    572a: 84 04        	sty	$4                      ; 0x2004 <__heap_default_limit+0x1004>
    572c: a5 16        	lda	$16                     ; 0x2016 <next_line+0x1>
    572e: 20 2e 8c     	jsr	$8c2e <__mulhi3>
    5731: 18           	clc
    5732: 65 18        	adc	$18                     ; 0x2018 <next_line+0x3>
    5734: a8           	tay
    5735: 8a           	txa
    5736: 69 00        	adc	#$0
    5738: d0 04        	bne	$573e <navi+0x94>
    573a: c0 67        	cpy	#$67
    573c: 80 02        	bra	$5740 <navi+0x96>
    573e: c9 00        	cmp	#$0
    5740: a0 01        	ldy	#$1
    5742: 90 02        	bcc	$5746 <navi+0x9c>
    5744: a0 00        	ldy	#$0
    5746: a2 34        	ldx	#$34
    5748: 86 1a        	stx	$1a                     ; 0x201a <next_line+0x5>
    574a: a2 03        	ldx	#$3
    574c: 86 1b        	stx	$1b                     ; 0x201b <next_line+0x6>
    574e: 8c 7b 9f     	sty	$9f7b                   ; 0x9f7b <legacyHDOSstate>
    5751: a2 28        	ldx	#$28
    5753: 8a           	txa
    5754: a0 17        	ldy	#$17
    5756: 91 02        	sta	($2),y                  ; 0x2002 <__heap_default_limit+0x1002>
    5758: a0 00        	ldy	#$0
    575a: 64 19        	stz	$19                     ; 0x2019 <next_line+0x4>
    575c: 4c 20 58     	jmp	$5820 <navi+0x176>
    575f: a6 19        	ldx	$19                     ; 0x2019 <next_line+0x4>
    5761: 84 18        	sty	$18                     ; 0x2018 <next_line+0x3>
    5763: b4 27        	ldy	$27,x                   ; 0x2027 <_start+0x6>
    5765: b5 28        	lda	$28,x                   ; 0x2028 <_start+0x7>
    5767: aa           	tax
    5768: 84 16        	sty	$16                     ; 0x2016 <next_line+0x1>
    576a: 86 17        	stx	$17                     ; 0x2017 <next_line+0x2>
    576c: a5 18        	lda	$18                     ; 0x2018 <next_line+0x3>
    576e: 92 16        	sta	($16),z                 ; 0x2016 <next_line+0x1>
    5770: 18           	clc
    5771: 98           	tya
    5772: 69 03        	adc	#$3
    5774: 85 04        	sta	$4                      ; 0x2004 <__heap_default_limit+0x1004>
    5776: 8a           	txa
    5777: 69 00        	adc	#$0
    5779: 85 05        	sta	$5                      ; 0x2005 <__heap_default_limit+0x1005>
    577b: a2 59        	ldx	#$59
    577d: 86 06        	stx	$6                      ; 0x2006 <__heap_default_limit+0x1006>
    577f: a2 95        	ldx	#$95
    5781: 86 07        	stx	$7                      ; 0x2007 <__heap_default_limit+0x1007>
    5783: a2 00        	ldx	#$0
    5785: a9 10        	lda	#$10
    5787: 20 6c 90     	jsr	$906c <memcpy>
    578a: a9 01        	lda	#$1
    578c: a0 46        	ldy	#$46
    578e: 11 16        	ora	($16),y                 ; 0x2016 <next_line+0x1>
    5790: 91 16        	sta	($16),y                 ; 0x2016 <next_line+0x1>
    5792: a9 28        	lda	#$28
    5794: c8           	iny
    5795: 91 16        	sta	($16),y                 ; 0x2016 <next_line+0x1>
    5797: c8           	iny
    5798: a9 01        	lda	#$1
    579a: 91 16        	sta	($16),y                 ; 0x2016 <next_line+0x1>
    579c: c8           	iny
    579d: a9 50        	lda	#$50
    579f: 91 16        	sta	($16),y                 ; 0x2016 <next_line+0x1>
    57a1: a0 01        	ldy	#$1
    57a3: a9 00        	lda	#$0
    57a5: 91 16        	sta	($16),y                 ; 0x2016 <next_line+0x1>
    57a7: a2 07        	ldx	#$7
    57a9: 86 04        	stx	$4                      ; 0x2004 <__heap_default_limit+0x1004>
    57ab: a2 92        	ldx	#$92
    57ad: 86 05        	stx	$5                      ; 0x2005 <__heap_default_limit+0x1005>
    57af: 48           	pha
    57b0: a5 04        	lda	$4                      ; 0x2004 <__heap_default_limit+0x1004>
    57b2: a0 19        	ldy	#$19
    57b4: 91 02        	sta	($2),y                  ; 0x2002 <__heap_default_limit+0x1002>
    57b6: a5 05        	lda	$5                      ; 0x2005 <__heap_default_limit+0x1005>
    57b8: c8           	iny
    57b9: 91 02        	sta	($2),y                  ; 0x2002 <__heap_default_limit+0x1002>
    57bb: 88           	dey
    57bc: b1 02        	lda	($2),y                  ; 0x2002 <__heap_default_limit+0x1002>
    57be: 85 04        	sta	$4                      ; 0x2004 <__heap_default_limit+0x1004>
    57c0: c8           	iny
    57c1: b1 02        	lda	($2),y                  ; 0x2002 <__heap_default_limit+0x1002>
    57c3: 85 05        	sta	$5                      ; 0x2005 <__heap_default_limit+0x1005>
    57c5: 88           	dey
    57c6: b1 02        	lda	($2),y                  ; 0x2002 <__heap_default_limit+0x1002>
    57c8: 85 06        	sta	$6                      ; 0x2006 <__heap_default_limit+0x1006>
    57ca: c8           	iny
    57cb: b1 02        	lda	($2),y                  ; 0x2002 <__heap_default_limit+0x1002>
    57cd: 85 07        	sta	$7                      ; 0x2007 <__heap_default_limit+0x1007>
    57cf: 88           	dey
    57d0: b1 02        	lda	($2),y                  ; 0x2002 <__heap_default_limit+0x1002>
    57d2: 85 08        	sta	$8                      ; 0x2008 <__heap_default_limit+0x1008>
    57d4: c8           	iny
    57d5: b1 02        	lda	($2),y                  ; 0x2002 <__heap_default_limit+0x1002>
    57d7: 85 09        	sta	$9                      ; 0x2009 <__heap_default_limit+0x1009>
    57d9: 68           	pla
    57da: 85 0a        	sta	$a                      ; 0x200a <__heap_default_limit+0x100a>
    57dc: 85 0b        	sta	$b                      ; 0x200b <__heap_default_limit+0x100b>
    57de: 85 0c        	sta	$c                      ; 0x200c <__heap_default_limit+0x100c>
    57e0: aa           	tax
    57e1: a9 02        	lda	#$2
    57e3: 20 67 44     	jsr	$4467 <messagebox>
    57e6: a2 ce        	ldx	#$ce
    57e8: 86 04        	stx	$4                      ; 0x2004 <__heap_default_limit+0x1004>
    57ea: a2 94        	ldx	#$94
    57ec: 86 05        	stx	$5                      ; 0x2005 <__heap_default_limit+0x1005>
    57ee: a2 d3        	ldx	#$d3
    57f0: 86 06        	stx	$6                      ; 0x2006 <__heap_default_limit+0x1006>
    57f2: a2 92        	ldx	#$92
    57f4: 86 07        	stx	$7                      ; 0x2007 <__heap_default_limit+0x1007>
    57f6: a0 17        	ldy	#$17
    57f8: b1 02        	lda	($2),y                  ; 0x2002 <__heap_default_limit+0x1002>
    57fa: 85 1c        	sta	$1c                     ; 0x201c <next_line+0x7>
    57fc: 20 15 46     	jsr	$4615 <progress>
    57ff: b2 16        	lda	($16),z                 ; 0x2016 <next_line+0x1>
    5801: a6 18        	ldx	$18                     ; 0x2018 <next_line+0x3>
    5803: 20 0d 4f     	jsr	$4f0d <UpdateSectors>
    5806: a5 18        	lda	$18                     ; 0x2018 <next_line+0x3>
    5808: 20 c5 47     	jsr	$47c5 <Deselect>
    580b: a5 19        	lda	$19                     ; 0x2019 <next_line+0x4>
    580d: a4 18        	ldy	$18                     ; 0x2018 <next_line+0x3>
    580f: 18           	clc
    5810: 69 02        	adc	#$2
    5812: 85 19        	sta	$19                     ; 0x2019 <next_line+0x4>
    5814: c8           	iny
    5815: 18           	clc
    5816: a5 1c        	lda	$1c                     ; 0x201c <next_line+0x7>
    5818: 69 28        	adc	#$28
    581a: 5a           	phy
    581b: a0 17        	ldy	#$17
    581d: 91 02        	sta	($2),y                  ; 0x2002 <__heap_default_limit+0x1002>
    581f: 7a           	ply
    5820: c0 02        	cpy	#$2
    5822: f0 03        	beq	$5827 <navi+0x17d>
    5824: 4c 5f 57     	jmp	$575f <navi+0xb5>
    5827: a2 00        	ldx	#$0
    5829: 64 1c        	stz	$1c                     ; 0x201c <next_line+0x7>
    582b: a5 1c        	lda	$1c                     ; 0x201c <next_line+0x7>
    582d: d0 07        	bne	$5836 <navi+0x18c>
    582f: e0 f8        	cpx	#$f8
    5831: d0 03        	bne	$5836 <navi+0x18c>
    5833: 4c ed 58     	jmp	$58ed <navi+0x243>
    5836: a9 00        	lda	#$0
    5838: a4 1c        	ldy	$1c                     ; 0x201c <next_line+0x7>
    583a: 84 04        	sty	$4                      ; 0x2004 <__heap_default_limit+0x1004>
    583c: 86 18        	stx	$18                     ; 0x2018 <next_line+0x3>
    583e: 20 47 35     	jsr	$3547 <getdirententry>
    5841: a2 00        	ldx	#$0
    5843: a4 04        	ldy	$4                      ; 0x2004 <__heap_default_limit+0x1004>
    5845: 84 16        	sty	$16                     ; 0x2016 <next_line+0x1>
    5847: a4 05        	ldy	$5                      ; 0x2005 <__heap_default_limit+0x1005>
    5849: 84 17        	sty	$17                     ; 0x2017 <next_line+0x2>
    584b: a4 04        	ldy	$4                      ; 0x2004 <__heap_default_limit+0x1004>
    584d: 84 06        	sty	$6                      ; 0x2006 <__heap_default_limit+0x1006>
    584f: a0 05        	ldy	#$5
    5851: 80 01        	bra	$5854 <navi+0x1aa>
    5853: e8           	inx
    5854: 86 04        	stx	$4                      ; 0x2004 <__heap_default_limit+0x1004>
    5856: a5 06        	lda	$6                      ; 0x2006 <__heap_default_limit+0x1006>
    5858: 18           	clc
    5859: 65 04        	adc	$4                      ; 0x2004 <__heap_default_limit+0x1004>
    585b: 85 04        	sta	$4                      ; 0x2004 <__heap_default_limit+0x1004>
    585d: a5 17        	lda	$17                     ; 0x2017 <next_line+0x2>
    585f: 69 00        	adc	#$0
    5861: 85 05        	sta	$5                      ; 0x2005 <__heap_default_limit+0x1005>
    5863: b1 04        	lda	($4),y                  ; 0x2004 <__heap_default_limit+0x1004>
    5865: dd 9d 9b     	cmp	$9b9d,x                 ; 0x9b9d <__zp_data_load_start+0x7b86>
    5868: d0 0a        	bne	$5874 <navi+0x1ca>
    586a: e0 11        	cpx	#$11
    586c: f0 13        	beq	$5881 <navi+0x1d7>
    586e: c9 00        	cmp	#$0
    5870: d0 e1        	bne	$5853 <navi+0x1a9>
    5872: 80 0d        	bra	$5881 <navi+0x1d7>
    5874: a6 18        	ldx	$18                     ; 0x2018 <next_line+0x3>
    5876: e8           	inx
    5877: f0 03        	beq	$587c <navi+0x1d2>
    5879: 4c 2b 58     	jmp	$582b <navi+0x181>
    587c: e6 1c        	inc	$1c                     ; 0x201c <next_line+0x7>
    587e: 4c 2b 58     	jmp	$582b <navi+0x181>
    5881: ae 00 1d     	ldx	$1d00                   ; 0x1d00 <__heap_default_limit+0xd00>
    5884: a0 03        	ldy	#$3
    5886: a5 16        	lda	$16                     ; 0x2016 <next_line+0x1>
    5888: 85 1c        	sta	$1c                     ; 0x201c <next_line+0x7>
    588a: a5 17        	lda	$17                     ; 0x2017 <next_line+0x2>
    588c: 85 1d        	sta	$1d                     ; 0x201d <next_line+0x8>
    588e: b1 16        	lda	($16),y                 ; 0x2016 <next_line+0x1>
    5890: 85 09        	sta	$9                      ; 0x2009 <__heap_default_limit+0x1009>
    5892: c8           	iny
    5893: b1 16        	lda	($16),y                 ; 0x2016 <next_line+0x1>
    5895: 85 0a        	sta	$a                      ; 0x200a <__heap_default_limit+0x100a>
    5897: a9 0c        	lda	#$c
    5899: a0 32        	ldy	#$32
    589b: 85 04        	sta	$4                      ; 0x2004 <__heap_default_limit+0x1004>
    589d: a9 08        	lda	#$8
    589f: 85 05        	sta	$5                      ; 0x2005 <__heap_default_limit+0x1005>
    58a1: 84 06        	sty	$6                      ; 0x2006 <__heap_default_limit+0x1006>
    58a3: 86 08        	stx	$8                      ; 0x2008 <__heap_default_limit+0x1008>
    58a5: 64 07        	stz	$7                      ; 0x2007 <__heap_default_limit+0x1007>
    58a7: a2 ea        	ldx	#$ea
    58a9: a9 00        	lda	#$0
    58ab: 20 e7 26     	jsr	$26e7 <readblockchain>
    58ae: aa           	tax
    58af: d0 03        	bne	$58b4 <navi+0x20a>
    58b1: 4c 1e 59     	jmp	$591e <navi+0x274>
    58b4: a2 39        	ldx	#$39
    58b6: 86 16        	stx	$16                     ; 0x2016 <next_line+0x1>
    58b8: a2 93        	ldx	#$93
    58ba: 86 17        	stx	$17                     ; 0x2017 <next_line+0x2>
    58bc: a2 34        	ldx	#$34
    58be: 86 18        	stx	$18                     ; 0x2018 <next_line+0x3>
    58c0: a2 03        	ldx	#$3
    58c2: 86 19        	stx	$19                     ; 0x2019 <next_line+0x4>
    58c4: b2 16        	lda	($16),z                 ; 0x2016 <next_line+0x1>
    58c6: e6 16        	inc	$16                     ; 0x2016 <next_line+0x1>
    58c8: d0 02        	bne	$58cc <navi+0x222>
    58ca: e6 17        	inc	$17                     ; 0x2017 <next_line+0x2>
    58cc: 20 28 87     	jsr	$8728 <petsciitoscreencode>
    58cf: 92 18        	sta	($18),z                 ; 0x2018 <next_line+0x3>
    58d1: e6 18        	inc	$18                     ; 0x2018 <next_line+0x3>
    58d3: d0 02        	bne	$58d7 <navi+0x22d>
    58d5: e6 19        	inc	$19                     ; 0x2019 <next_line+0x4>
    58d7: aa           	tax
    58d8: d0 ea        	bne	$58c4 <navi+0x21a>
    58da: a2 34        	ldx	#$34
    58dc: 86 04        	stx	$4                      ; 0x2004 <__heap_default_limit+0x1004>
    58de: a2 03        	ldx	#$3
    58e0: 86 05        	stx	$5                      ; 0x2005 <__heap_default_limit+0x1005>
    58e2: 20 e9 87     	jsr	$87e9 <cputs>
    58e5: 20 75 89     	jsr	$8975 <cgetc>
    58e8: a0 01        	ldy	#$1
    58ea: 4c 34 59     	jmp	$5934 <navi+0x28a>
    58ed: a9 04        	lda	#$4
    58ef: a2 6d        	ldx	#$6d
    58f1: 86 04        	stx	$4                      ; 0x2004 <__heap_default_limit+0x1004>
    58f3: a2 96        	ldx	#$96
    58f5: 86 05        	stx	$5                      ; 0x2005 <__heap_default_limit+0x1005>
    58f7: a2 08        	ldx	#$8
    58f9: 86 06        	stx	$6                      ; 0x2006 <__heap_default_limit+0x1006>
    58fb: a2 95        	ldx	#$95
    58fd: 86 07        	stx	$7                      ; 0x2007 <__heap_default_limit+0x1007>
    58ff: a2 07        	ldx	#$7
    5901: 86 08        	stx	$8                      ; 0x2008 <__heap_default_limit+0x1008>
    5903: a2 92        	ldx	#$92
    5905: 86 09        	stx	$9                      ; 0x2009 <__heap_default_limit+0x1009>
    5907: 64 0a        	stz	$a                      ; 0x200a <__heap_default_limit+0x100a>
    5909: 64 0b        	stz	$b                      ; 0x200b <__heap_default_limit+0x100b>
    590b: 64 0c        	stz	$c                      ; 0x200c <__heap_default_limit+0x100c>
    590d: a2 00        	ldx	#$0
    590f: 20 67 44     	jsr	$4467 <messagebox>
    5912: a0 01        	ldy	#$1
    5914: a6 16        	ldx	$16                     ; 0x2016 <next_line+0x1>
    5916: 86 1c        	stx	$1c                     ; 0x201c <next_line+0x7>
    5918: a6 17        	ldx	$17                     ; 0x2017 <next_line+0x2>
    591a: 86 1d        	stx	$1d                     ; 0x201d <next_line+0x8>
    591c: 80 16        	bra	$5934 <navi+0x28a>
    591e: a2 00        	ldx	#$0
    5920: 8a           	txa
    5921: 20 6e 84     	jsr	$846e <text>
    5924: a9 01        	lda	#$1
    5926: a2 00        	ldx	#$0
    5928: 20 6e 84     	jsr	$846e <text>
    592b: a9 14        	lda	#$14
    592d: a2 00        	ldx	#$0
    592f: 20 51 48     	jsr	$4851 <shortcuts>
    5932: a0 00        	ldy	#$0
    5934: ae 80 d0     	ldx	$d080                   ; 0xd080 <__heap_start+0x3086>
    5937: e0 40        	cpx	#$40
    5939: f0 03        	beq	$593e <navi+0x294>
    593b: 9c 80 d0     	stz	$d080                   ; 0xd080 <__heap_start+0x3086>
    593e: 5a           	phy
    593f: a5 1c        	lda	$1c                     ; 0x201c <next_line+0x7>
    5941: a0 08        	ldy	#$8
    5943: 91 02        	sta	($2),y                  ; 0x2002 <__heap_default_limit+0x1002>
    5945: a5 1d        	lda	$1d                     ; 0x201d <next_line+0x8>
    5947: c8           	iny
    5948: 91 02        	sta	($2),y                  ; 0x2002 <__heap_default_limit+0x1002>
    594a: 7a           	ply
    594b: 64 2d        	stz	$2d                     ; 0x202d <_start+0xc>
    594d: ae 7b 9f     	ldx	$9f7b                   ; 0x9f7b <legacyHDOSstate>
    5950: d0 03        	bne	$5955 <navi+0x2ab>
    5952: 4c 9e 59     	jmp	$599e <navi+0x2f4>
    5955: 84 16        	sty	$16                     ; 0x2016 <next_line+0x1>
    5957: a9 01        	lda	#$1
    5959: a2 a8        	ldx	#$a8
    595b: 86 04        	stx	$4                      ; 0x2004 <__heap_default_limit+0x1004>
    595d: a2 98        	ldx	#$98
    595f: 86 05        	stx	$5                      ; 0x2005 <__heap_default_limit+0x1005>
    5961: a2 67        	ldx	#$67
    5963: 86 06        	stx	$6                      ; 0x2006 <__heap_default_limit+0x1006>
    5965: a2 91        	ldx	#$91
    5967: 86 07        	stx	$7                      ; 0x2007 <__heap_default_limit+0x1007>
    5969: a2 d0        	ldx	#$d0
    596b: 86 08        	stx	$8                      ; 0x2008 <__heap_default_limit+0x1008>
    596d: a2 95        	ldx	#$95
    596f: 86 09        	stx	$9                      ; 0x2009 <__heap_default_limit+0x1009>
    5971: 64 0a        	stz	$a                      ; 0x200a <__heap_default_limit+0x100a>
    5973: 64 0b        	stz	$b                      ; 0x200b <__heap_default_limit+0x100b>
    5975: 64 0c        	stz	$c                      ; 0x200c <__heap_default_limit+0x100c>
    5977: a2 00        	ldx	#$0
    5979: 20 67 44     	jsr	$4467 <messagebox>
    597c: a2 01        	ldx	#$1
    597e: a8           	tay
    597f: f0 02        	beq	$5983 <navi+0x2d9>
    5981: a2 00        	ldx	#$0
    5983: a9 01        	lda	#$1
    5985: e0 00        	cpx	#$0
    5987: d0 02        	bne	$598b <navi+0x2e1>
    5989: a9 00        	lda	#$0
    598b: a2 01        	ldx	#$1
    598d: 86 04        	stx	$4                      ; 0x2004 <__heap_default_limit+0x1004>
    598f: a6 16        	ldx	$16                     ; 0x2016 <next_line+0x1>
    5991: d0 02        	bne	$5995 <navi+0x2eb>
    5993: 64 04        	stz	$4                      ; 0x2004 <__heap_default_limit+0x1004>
    5995: 05 04        	ora	$4                      ; 0x2004 <__heap_default_limit+0x1004>
    5997: 29 01        	and	#$1
    5999: d0 09        	bne	$59a4 <navi+0x2fa>
    599b: 4c e7 59     	jmp	$59e7 <navi+0x33d>
    599e: 98           	tya
    599f: d0 03        	bne	$59a4 <navi+0x2fa>
    59a1: 4c e7 59     	jmp	$59e7 <navi+0x33d>
    59a4: a0 00        	ldy	#$0
    59a6: b1 02        	lda	($2),y                  ; 0x2002 <__heap_default_limit+0x1002>
    59a8: 85 21        	sta	$21                     ; 0x2021 <_start>
    59aa: c8           	iny
    59ab: b1 02        	lda	($2),y                  ; 0x2002 <__heap_default_limit+0x1002>
    59ad: 85 20        	sta	$20                     ; 0x2020 <next_line+0xb>
    59af: c8           	iny
    59b0: b1 02        	lda	($2),y                  ; 0x2002 <__heap_default_limit+0x1002>
    59b2: 85 1f        	sta	$1f                     ; 0x201f <next_line+0xa>
    59b4: c8           	iny
    59b5: b1 02        	lda	($2),y                  ; 0x2002 <__heap_default_limit+0x1002>
    59b7: 85 1e        	sta	$1e                     ; 0x201e <next_line+0x9>
    59b9: c8           	iny
    59ba: b1 02        	lda	($2),y                  ; 0x2002 <__heap_default_limit+0x1002>
    59bc: 85 1d        	sta	$1d                     ; 0x201d <next_line+0x8>
    59be: c8           	iny
    59bf: b1 02        	lda	($2),y                  ; 0x2002 <__heap_default_limit+0x1002>
    59c1: 85 1c        	sta	$1c                     ; 0x201c <next_line+0x7>
    59c3: c8           	iny
    59c4: b1 02        	lda	($2),y                  ; 0x2002 <__heap_default_limit+0x1002>
    59c6: 85 1b        	sta	$1b                     ; 0x201b <next_line+0x6>
    59c8: c8           	iny
    59c9: b1 02        	lda	($2),y                  ; 0x2002 <__heap_default_limit+0x1002>
    59cb: 85 1a        	sta	$1a                     ; 0x201a <next_line+0x5>
    59cd: fa           	plx
    59ce: 86 19        	stx	$19                     ; 0x2019 <next_line+0x4>
    59d0: fa           	plx
    59d1: 86 18        	stx	$18                     ; 0x2018 <next_line+0x3>
    59d3: fa           	plx
    59d4: 86 17        	stx	$17                     ; 0x2017 <next_line+0x2>
    59d6: fa           	plx
    59d7: 86 16        	stx	$16                     ; 0x2016 <next_line+0x1>
    59d9: 18           	clc
    59da: a5 02        	lda	$2                      ; 0x2002 <__heap_default_limit+0x1002>
    59dc: 69 1f        	adc	#$1f
    59de: 85 02        	sta	$2                      ; 0x2002 <__heap_default_limit+0x1002>
    59e0: a5 03        	lda	$3                      ; 0x2003 <__heap_default_limit+0x1003>
    59e2: 69 00        	adc	#$0
    59e4: 85 03        	sta	$3                      ; 0x2003 <__heap_default_limit+0x1003>
    59e6: 60           	rts
    59e7: 64 04        	stz	$4                      ; 0x2004 <__heap_default_limit+0x1004>
    59e9: a9 00        	lda	#$0
    59eb: a0 13        	ldy	#$13
    59ed: 91 02        	sta	($2),y                  ; 0x2002 <__heap_default_limit+0x1002>
    59ef: ae 80 d0     	ldx	$d080                   ; 0xd080 <__heap_start+0x3086>
    59f2: e0 40        	cpx	#$40
    59f4: f0 03        	beq	$59f9 <navi+0x34f>
    59f6: 9c 80 d0     	stz	$d080                   ; 0xd080 <__heap_start+0x3086>
    59f9: 64 04        	stz	$4                      ; 0x2004 <__heap_default_limit+0x1004>
    59fb: a9 00        	lda	#$0
    59fd: a0 16        	ldy	#$16
    59ff: 91 02        	sta	($2),y                  ; 0x2002 <__heap_default_limit+0x1002>
    5a01: 64 2d        	stz	$2d                     ; 0x202d <_start+0xc>
    5a03: a2 8b        	ldx	#$8b
    5a05: 86 1e        	stx	$1e                     ; 0x201e <next_line+0x9>
    5a07: a2 9d        	ldx	#$9d
    5a09: 86 1f        	stx	$1f                     ; 0x201f <next_line+0xa>
    5a0b: c8           	iny
    5a0c: 91 02        	sta	($2),y                  ; 0x2002 <__heap_default_limit+0x1002>
    5a0e: 64 17        	stz	$17                     ; 0x2017 <next_line+0x2>
    5a10: a0 19        	ldy	#$19
    5a12: 91 02        	sta	($2),y                  ; 0x2002 <__heap_default_limit+0x1002>
    5a14: a0 19        	ldy	#$19
    5a16: b1 02        	lda	($2),y                  ; 0x2002 <__heap_default_limit+0x1002>
    5a18: d0 09        	bne	$5a23 <navi+0x379>
    5a1a: a6 17        	ldx	$17                     ; 0x2017 <next_line+0x2>
    5a1c: e0 02        	cpx	#$2
    5a1e: d0 03        	bne	$5a23 <navi+0x379>
    5a20: 4c 71 5f     	jmp	$5f71 <navi+0x8c7>
    5a23: a0 17        	ldy	#$17
    5a25: b1 02        	lda	($2),y                  ; 0x2002 <__heap_default_limit+0x1002>
    5a27: aa           	tax
    5a28: b4 27        	ldy	$27,x                   ; 0x2027 <_start+0x6>
    5a2a: b5 28        	lda	$28,x                   ; 0x2028 <_start+0x7>
    5a2c: aa           	tax
    5a2d: 98           	tya
    5a2e: 5a           	phy
    5a2f: a0 11        	ldy	#$11
    5a31: 91 02        	sta	($2),y                  ; 0x2002 <__heap_default_limit+0x1002>
    5a33: 7a           	ply
    5a34: 84 20        	sty	$20                     ; 0x2020 <next_line+0xb>
    5a36: 8a           	txa
    5a37: a0 12        	ldy	#$12
    5a39: 91 02        	sta	($2),y                  ; 0x2002 <__heap_default_limit+0x1002>
    5a3b: 86 21        	stx	$21                     ; 0x2021 <_start>
    5a3d: a0 02        	ldy	#$2
    5a3f: b1 20        	lda	($20),y                 ; 0x2020 <next_line+0xb>
    5a41: 88           	dey
    5a42: d1 20        	cmp	($20),y                 ; 0x2020 <next_line+0xb>
    5a44: 90 06        	bcc	$5a4c <navi+0x3a2>
    5a46: c9 ff        	cmp	#$ff
    5a48: d0 04        	bne	$5a4e <navi+0x3a4>
    5a4a: a9 00        	lda	#$0
    5a4c: 91 20        	sta	($20),y                 ; 0x2020 <next_line+0xb>
    5a4e: a5 17        	lda	$17                     ; 0x2017 <next_line+0x2>
    5a50: 0a           	asl
    5a51: 0a           	asl
    5a52: 0a           	asl
    5a53: 85 04        	sta	$4                      ; 0x2004 <__heap_default_limit+0x1004>
    5a55: 0a           	asl
    5a56: 0a           	asl
    5a57: 18           	clc
    5a58: 65 04        	adc	$4                      ; 0x2004 <__heap_default_limit+0x1004>
    5a5a: 85 16        	sta	$16                     ; 0x2016 <next_line+0x1>
    5a5c: 18           	clc
    5a5d: 69 27        	adc	#$27
    5a5f: 85 04        	sta	$4                      ; 0x2004 <__heap_default_limit+0x1004>
    5a61: a2 17        	ldx	#$17
    5a63: 86 05        	stx	$5                      ; 0x2005 <__heap_default_limit+0x1005>
    5a65: 64 06        	stz	$6                      ; 0x2006 <__heap_default_limit+0x1006>
    5a67: a2 00        	ldx	#$0
    5a69: a5 16        	lda	$16                     ; 0x2016 <next_line+0x1>
    5a6b: 20 dc 42     	jsr	$42dc <mcbox>
    5a6e: a9 20        	lda	#$20
    5a70: 05 2b        	ora	$2b                     ; 0x202b <_start+0xa>
    5a72: 85 2b        	sta	$2b                     ; 0x202b <_start+0xa>
    5a74: a5 16        	lda	$16                     ; 0x2016 <next_line+0x1>
    5a76: a0 14        	ldy	#$14
    5a78: 91 02        	sta	($2),y                  ; 0x2002 <__heap_default_limit+0x1002>
    5a7a: 09 02        	ora	#$2
    5a7c: a2 07        	ldx	#$7
    5a7e: 86 04        	stx	$4                      ; 0x2004 <__heap_default_limit+0x1004>
    5a80: a2 92        	ldx	#$92
    5a82: 86 05        	stx	$5                      ; 0x2005 <__heap_default_limit+0x1005>
    5a84: a2 00        	ldx	#$0
    5a86: 85 16        	sta	$16                     ; 0x2016 <next_line+0x1>
    5a88: 20 c6 42     	jsr	$42c6 <mcputsxy>
    5a8b: a0 16        	ldy	#$16
    5a8d: b1 02        	lda	($2),y                  ; 0x2002 <__heap_default_limit+0x1002>
    5a8f: 85 04        	sta	$4                      ; 0x2004 <__heap_default_limit+0x1004>
    5a91: a9 7c        	lda	#$7c
    5a93: 18           	clc
    5a94: 65 04        	adc	$4                      ; 0x2004 <__heap_default_limit+0x1004>
    5a96: 85 04        	sta	$4                      ; 0x2004 <__heap_default_limit+0x1004>
    5a98: a9 9f        	lda	#$9f
    5a9a: 69 00        	adc	#$0
    5a9c: 85 05        	sta	$5                      ; 0x2005 <__heap_default_limit+0x1005>
    5a9e: 20 8d 42     	jsr	$428d <msprintf>
    5aa1: a9 20        	lda	#$20
    5aa3: 20 3f 87     	jsr	$873f <cputc>
    5aa6: a9 01        	lda	#$1
    5aa8: a0 46        	ldy	#$46
    5aaa: 31 20        	and	($20),y                 ; 0x2020 <next_line+0xb>
    5aac: f0 29        	beq	$5ad7 <navi+0x42d>
    5aae: a5 32        	lda	$32                     ; 0x2032 <__do_init_stack+0x3>
    5ab0: 1a           	inc
    5ab1: a2 07        	ldx	#$7
    5ab3: 86 04        	stx	$4                      ; 0x2004 <__heap_default_limit+0x1004>
    5ab5: a2 92        	ldx	#$92
    5ab7: 86 05        	stx	$5                      ; 0x2005 <__heap_default_limit+0x1005>
    5ab9: a2 00        	ldx	#$0
    5abb: 20 c6 42     	jsr	$42c6 <mcputsxy>
    5abe: a0 11        	ldy	#$11
    5ac0: b1 02        	lda	($2),y                  ; 0x2002 <__heap_default_limit+0x1002>
    5ac2: 18           	clc
    5ac3: 69 03        	adc	#$3
    5ac5: aa           	tax
    5ac6: c8           	iny
    5ac7: b1 02        	lda	($2),y                  ; 0x2002 <__heap_default_limit+0x1002>
    5ac9: 69 00        	adc	#$0
    5acb: 86 04        	stx	$4                      ; 0x2004 <__heap_default_limit+0x1004>
    5acd: 85 05        	sta	$5                      ; 0x2005 <__heap_default_limit+0x1005>
    5acf: 20 8d 42     	jsr	$428d <msprintf>
    5ad2: a9 20        	lda	#$20
    5ad4: 20 3f 87     	jsr	$873f <cputc>
    5ad7: a2 79        	ldx	#$79
    5ad9: 86 04        	stx	$4                      ; 0x2004 <__heap_default_limit+0x1004>
    5adb: a2 97        	ldx	#$97
    5add: 86 05        	stx	$5                      ; 0x2005 <__heap_default_limit+0x1005>
    5adf: a2 17        	ldx	#$17
    5ae1: a5 16        	lda	$16                     ; 0x2016 <next_line+0x1>
    5ae3: 20 c6 42     	jsr	$42c6 <mcputsxy>
    5ae6: b2 20        	lda	($20),z                 ; 0x2020 <next_line+0xb>
    5ae8: 64 04        	stz	$4                      ; 0x2004 <__heap_default_limit+0x1004>
    5aea: 64 05        	stz	$5                      ; 0x2005 <__heap_default_limit+0x1005>
    5aec: 64 06        	stz	$6                      ; 0x2006 <__heap_default_limit+0x1006>
    5aee: a2 00        	ldx	#$0
    5af0: 20 0f 41     	jsr	$410f <csputdec>
    5af3: a9 20        	lda	#$20
    5af5: 20 3f 87     	jsr	$873f <cputc>
    5af8: a0 02        	ldy	#$2
    5afa: b1 20        	lda	($20),y                 ; 0x2020 <next_line+0xb>
    5afc: c9 ff        	cmp	#$ff
    5afe: d0 03        	bne	$5b03 <navi+0x459>
    5b00: 4c d8 5d     	jmp	$5dd8 <navi+0x72e>
    5b03: 48           	pha
    5b04: a0 0a        	ldy	#$a
    5b06: 91 02        	sta	($2),y                  ; 0x2002 <__heap_default_limit+0x1002>
    5b08: 68           	pla
    5b09: a0 0c        	ldy	#$c
    5b0b: 91 02        	sta	($2),y                  ; 0x2002 <__heap_default_limit+0x1002>
    5b0d: a0 01        	ldy	#$1
    5b0f: b1 20        	lda	($20),y                 ; 0x2020 <next_line+0xb>
    5b11: a0 0f        	ldy	#$f
    5b13: 91 02        	sta	($2),y                  ; 0x2002 <__heap_default_limit+0x1002>
    5b15: c9 15        	cmp	#$15
    5b17: 64 1b        	stz	$1b                     ; 0x201b <next_line+0x6>
    5b19: 64 04        	stz	$4                      ; 0x2004 <__heap_default_limit+0x1004>
    5b1b: a9 00        	lda	#$0
    5b1d: 90 0b        	bcc	$5b2a <navi+0x480>
    5b1f: 18           	clc
    5b20: b1 02        	lda	($2),y                  ; 0x2002 <__heap_default_limit+0x1002>
    5b22: 69 eb        	adc	#$eb
    5b24: 85 04        	sta	$4                      ; 0x2004 <__heap_default_limit+0x1004>
    5b26: a9 00        	lda	#$0
    5b28: 69 ff        	adc	#$ff
    5b2a: a6 04        	ldx	$4                      ; 0x2004 <__heap_default_limit+0x1004>
    5b2c: 48           	pha
    5b2d: 8a           	txa
    5b2e: a0 0e        	ldy	#$e
    5b30: 91 02        	sta	($2),y                  ; 0x2002 <__heap_default_limit+0x1002>
    5b32: 68           	pla
    5b33: a8           	tay
    5b34: a5 04        	lda	$4                      ; 0x2004 <__heap_default_limit+0x1004>
    5b36: 18           	clc
    5b37: 65 1e        	adc	$1e                     ; 0x201e <next_line+0x9>
    5b39: 85 18        	sta	$18                     ; 0x2018 <next_line+0x3>
    5b3b: 98           	tya
    5b3c: 5a           	phy
    5b3d: a0 0d        	ldy	#$d
    5b3f: 91 02        	sta	($2),y                  ; 0x2002 <__heap_default_limit+0x1002>
    5b41: 7a           	ply
    5b42: 98           	tya
    5b43: 65 1f        	adc	$1f                     ; 0x201f <next_line+0xa>
    5b45: 85 19        	sta	$19                     ; 0x2019 <next_line+0x4>
    5b47: a0 14        	ldy	#$14
    5b49: b1 02        	lda	($2),y                  ; 0x2002 <__heap_default_limit+0x1002>
    5b4b: 09 01        	ora	#$1
    5b4d: a0 0b        	ldy	#$b
    5b4f: 91 02        	sta	($2),y                  ; 0x2002 <__heap_default_limit+0x1002>
    5b51: a6 1b        	ldx	$1b                     ; 0x201b <next_line+0x6>
    5b53: a0 0e        	ldy	#$e
    5b55: b1 02        	lda	($2),y                  ; 0x2002 <__heap_default_limit+0x1002>
    5b57: 48           	pha
    5b58: 88           	dey
    5b59: b1 02        	lda	($2),y                  ; 0x2002 <__heap_default_limit+0x1002>
    5b5b: a8           	tay
    5b5c: 68           	pla
    5b5d: e0 16        	cpx	#$16
    5b5f: d0 03        	bne	$5b64 <navi+0x4ba>
    5b61: 4c d0 5d     	jmp	$5dd0 <navi+0x726>
    5b64: 86 16        	stx	$16                     ; 0x2016 <next_line+0x1>
    5b66: 18           	clc
    5b67: 65 16        	adc	$16                     ; 0x2016 <next_line+0x1>
    5b69: aa           	tax
    5b6a: 98           	tya
    5b6b: 69 00        	adc	#$0
    5b6d: 85 1a        	sta	$1a                     ; 0x201a <next_line+0x5>
    5b6f: 85 04        	sta	$4                      ; 0x2004 <__heap_default_limit+0x1004>
    5b71: 8a           	txa
    5b72: a0 10        	ldy	#$10
    5b74: 91 02        	sta	($2),y                  ; 0x2002 <__heap_default_limit+0x1002>
    5b76: a5 17        	lda	$17                     ; 0x2017 <next_line+0x2>
    5b78: 20 47 35     	jsr	$3547 <getdirententry>
    5b7b: a6 04        	ldx	$4                      ; 0x2004 <__heap_default_limit+0x1004>
    5b7d: 86 1c        	stx	$1c                     ; 0x201c <next_line+0x7>
    5b7f: a6 05        	ldx	$5                      ; 0x2005 <__heap_default_limit+0x1005>
    5b81: 86 1d        	stx	$1d                     ; 0x201d <next_line+0x8>
    5b83: a6 1d        	ldx	$1d                     ; 0x201d <next_line+0x8>
    5b85: a0 00        	ldy	#$0
    5b87: 84 04        	sty	$4                      ; 0x2004 <__heap_default_limit+0x1004>
    5b89: a0 00        	ldy	#$0
    5b8b: 84 05        	sty	$5                      ; 0x2005 <__heap_default_limit+0x1005>
    5b8d: e4 05        	cpx	$5                      ; 0x2005 <__heap_default_limit+0x1005>
    5b8f: d0 09        	bne	$5b9a <navi+0x4f0>
    5b91: a6 1c        	ldx	$1c                     ; 0x201c <next_line+0x7>
    5b93: e4 04        	cpx	$4                      ; 0x2004 <__heap_default_limit+0x1004>
    5b95: d0 03        	bne	$5b9a <navi+0x4f0>
    5b97: 4c d0 5d     	jmp	$5dd0 <navi+0x726>
    5b9a: a2 00        	ldx	#$0
    5b9c: e4 1a        	cpx	$1a                     ; 0x201a <next_line+0x5>
    5b9e: d0 11        	bne	$5bb1 <navi+0x507>
    5ba0: a0 10        	ldy	#$10
    5ba2: b1 02        	lda	($2),y                  ; 0x2002 <__heap_default_limit+0x1002>
    5ba4: 85 04        	sta	$4                      ; 0x2004 <__heap_default_limit+0x1004>
    5ba6: a0 0c        	ldy	#$c
    5ba8: b1 02        	lda	($2),y                  ; 0x2002 <__heap_default_limit+0x1002>
    5baa: c5 04        	cmp	$4                      ; 0x2004 <__heap_default_limit+0x1004>
    5bac: b0 0a        	bcs	$5bb8 <navi+0x50e>
    5bae: 4c d0 5d     	jmp	$5dd0 <navi+0x726>
    5bb1: e4 1a        	cpx	$1a                     ; 0x201a <next_line+0x5>
    5bb3: b0 03        	bcs	$5bb8 <navi+0x50e>
    5bb5: 4c d0 5d     	jmp	$5dd0 <navi+0x726>
    5bb8: a5 1a        	lda	$1a                     ; 0x201a <next_line+0x5>
    5bba: d0 10        	bne	$5bcc <navi+0x522>
    5bbc: a0 0f        	ldy	#$f
    5bbe: b1 02        	lda	($2),y                  ; 0x2002 <__heap_default_limit+0x1002>
    5bc0: 85 04        	sta	$4                      ; 0x2004 <__heap_default_limit+0x1004>
    5bc2: c8           	iny
    5bc3: b1 02        	lda	($2),y                  ; 0x2002 <__heap_default_limit+0x1002>
    5bc5: c5 04        	cmp	$4                      ; 0x2004 <__heap_default_limit+0x1004>
    5bc7: d0 03        	bne	$5bcc <navi+0x522>
    5bc9: 4c e7 5e     	jmp	$5ee7 <navi+0x83d>
    5bcc: a9 01        	lda	#$1
    5bce: 29 01        	and	#$1
    5bd0: a2 20        	ldx	#$20
    5bd2: a8           	tay
    5bd3: d0 02        	bne	$5bd7 <navi+0x52d>
    5bd5: a2 3e        	ldx	#$3e
    5bd7: 8e 3b 9d     	stx	$9d3b                   ; 0x9d3b <s>
    5bda: a2 20        	ldx	#$20
    5bdc: 8e 3c 9d     	stx	$9d3c                   ; 0x9d3c <s+0x1>
    5bdf: a0 00        	ldy	#$0
    5be1: 80 04        	bra	$5be7 <navi+0x53d>
    5be3: 99 3d 9d     	sta	$9d3d,y                 ; 0x9d3d <s+0x2>
    5be6: c8           	iny
    5be7: 84 06        	sty	$6                      ; 0x2006 <__heap_default_limit+0x1006>
    5be9: 98           	tya
    5bea: 18           	clc
    5beb: 65 1c        	adc	$1c                     ; 0x201c <next_line+0x7>
    5bed: 85 04        	sta	$4                      ; 0x2004 <__heap_default_limit+0x1004>
    5bef: a5 1d        	lda	$1d                     ; 0x201d <next_line+0x8>
    5bf1: 69 00        	adc	#$0
    5bf3: 85 05        	sta	$5                      ; 0x2005 <__heap_default_limit+0x1005>
    5bf5: a0 05        	ldy	#$5
    5bf7: b1 04        	lda	($4),y                  ; 0x2004 <__heap_default_limit+0x1004>
    5bf9: c9 a0        	cmp	#$a0
    5bfb: f0 0f        	beq	$5c0c <navi+0x562>
    5bfd: aa           	tax
    5bfe: f0 0c        	beq	$5c0c <navi+0x562>
    5c00: a4 06        	ldy	$6                      ; 0x2006 <__heap_default_limit+0x1006>
    5c02: c0 10        	cpy	#$10
    5c04: d0 dd        	bne	$5be3 <navi+0x539>
    5c06: a2 10        	ldx	#$10
    5c08: a9 12        	lda	#$12
    5c0a: 80 07        	bra	$5c13 <navi+0x569>
    5c0c: 18           	clc
    5c0d: a6 06        	ldx	$6                      ; 0x2006 <__heap_default_limit+0x1006>
    5c0f: a5 06        	lda	$6                      ; 0x2006 <__heap_default_limit+0x1006>
    5c11: 69 02        	adc	#$2
    5c13: 18           	clc
    5c14: a8           	tay
    5c15: 69 10        	adc	#$10
    5c17: 86 04        	stx	$4                      ; 0x2004 <__heap_default_limit+0x1004>
    5c19: 38           	sec
    5c1a: e5 04        	sbc	$4                      ; 0x2004 <__heap_default_limit+0x1004>
    5c1c: 85 05        	sta	$5                      ; 0x2005 <__heap_default_limit+0x1005>
    5c1e: 18           	clc
    5c1f: 8a           	txa
    5c20: 69 f0        	adc	#$f0
    5c22: 85 04        	sta	$4                      ; 0x2004 <__heap_default_limit+0x1004>
    5c24: 5a           	phy
    5c25: fa           	plx
    5c26: a5 05        	lda	$5                      ; 0x2005 <__heap_default_limit+0x1005>
    5c28: 80 0c        	bra	$5c36 <navi+0x58c>
    5c2a: c8           	iny
    5c2b: a9 20        	lda	#$20
    5c2d: 9d 3b 9d     	sta	$9d3b,x                 ; 0x9d3b <s>
    5c30: a5 05        	lda	$5                      ; 0x2005 <__heap_default_limit+0x1005>
    5c32: e6 04        	inc	$4                      ; 0x2004 <__heap_default_limit+0x1004>
    5c34: 5a           	phy
    5c35: fa           	plx
    5c36: e6 04        	inc	$4                      ; 0x2004 <__heap_default_limit+0x1004>
    5c38: c6 04        	dec	$4                      ; 0x2004 <__heap_default_limit+0x1004>
    5c3a: d0 ee        	bne	$5c2a <navi+0x580>
    5c3c: aa           	tax
    5c3d: e8           	inx
    5c3e: a8           	tay
    5c3f: 85 04        	sta	$4                      ; 0x2004 <__heap_default_limit+0x1004>
    5c41: a9 20        	lda	#$20
    5c43: 99 3b 9d     	sta	$9d3b,y                 ; 0x9d3b <s>
    5c46: 18           	clc
    5c47: a5 04        	lda	$4                      ; 0x2004 <__heap_default_limit+0x1004>
    5c49: 69 02        	adc	#$2
    5c4b: a8           	tay
    5c4c: a9 5d        	lda	#$5d
    5c4e: 9d 3b 9d     	sta	$9d3b,x                 ; 0x9d3b <s>
    5c51: 18           	clc
    5c52: a5 04        	lda	$4                      ; 0x2004 <__heap_default_limit+0x1004>
    5c54: 69 03        	adc	#$3
    5c56: 85 06        	sta	$6                      ; 0x2006 <__heap_default_limit+0x1006>
    5c58: a9 20        	lda	#$20
    5c5a: 99 3b 9d     	sta	$9d3b,y                 ; 0x9d3b <s>
    5c5d: a0 02        	ldy	#$2
    5c5f: b1 1c        	lda	($1c),y                 ; 0x201c <next_line+0x7>
    5c61: aa           	tax
    5c62: 29 40        	and	#$40
    5c64: d0 2b        	bne	$5c91 <navi+0x5e7>
    5c66: 8a           	txa
    5c67: 29 0f        	and	#$f
    5c69: 85 07        	sta	$7                      ; 0x2007 <__heap_default_limit+0x1007>
    5c6b: 18           	clc
    5c6c: a5 04        	lda	$4                      ; 0x2004 <__heap_default_limit+0x1004>
    5c6e: 69 04        	adc	#$4
    5c70: a8           	tay
    5c71: 18           	clc
    5c72: a5 04        	lda	$4                      ; 0x2004 <__heap_default_limit+0x1004>
    5c74: 69 05        	adc	#$5
    5c76: 85 04        	sta	$4                      ; 0x2004 <__heap_default_limit+0x1004>
    5c78: a2 00        	ldx	#$0
    5c7a: a9 ff        	lda	#$ff
    5c7c: c6 07        	dec	$7                      ; 0x2007 <__heap_default_limit+0x1007>
    5c7e: c5 07        	cmp	$7                      ; 0x2007 <__heap_default_limit+0x1007>
    5c80: d0 03        	bne	$5c85 <navi+0x5db>
    5c82: 4c ec 5e     	jmp	$5eec <navi+0x842>
    5c85: a5 07        	lda	$7                      ; 0x2007 <__heap_default_limit+0x1007>
    5c87: e0 00        	cpx	#$0
    5c89: f0 03        	beq	$5c8e <navi+0x5e4>
    5c8b: 4c f9 5e     	jmp	$5ef9 <navi+0x84f>
    5c8e: 4c f0 5e     	jmp	$5ef0 <navi+0x846>
    5c91: 8a           	txa
    5c92: 29 bf        	and	#$bf
    5c94: a8           	tay
    5c95: 18           	clc
    5c96: a5 04        	lda	$4                      ; 0x2004 <__heap_default_limit+0x1004>
    5c98: 69 04        	adc	#$4
    5c9a: 85 07        	sta	$7                      ; 0x2007 <__heap_default_limit+0x1007>
    5c9c: 18           	clc
    5c9d: a5 04        	lda	$4                      ; 0x2004 <__heap_default_limit+0x1004>
    5c9f: 69 05        	adc	#$5
    5ca1: aa           	tax
    5ca2: c0 10        	cpy	#$10
    5ca4: f0 03        	beq	$5ca9 <navi+0x5ff>
    5ca6: 4c 15 5f     	jmp	$5f15 <navi+0x86b>
    5ca9: 4c 02 5f     	jmp	$5f02 <navi+0x858>
    5cac: a6 06        	ldx	$6                      ; 0x2006 <__heap_default_limit+0x1006>
    5cae: 9d 3b 9d     	sta	$9d3b,x                 ; 0x9d3b <s>
    5cb1: a9 45        	lda	#$45
    5cb3: 99 3b 9d     	sta	$9d3b,y                 ; 0x9d3b <s>
    5cb6: a9 4c        	lda	#$4c
    5cb8: a6 04        	ldx	$4                      ; 0x2004 <__heap_default_limit+0x1004>
    5cba: 9d 3b 9d     	sta	$9d3b,x                 ; 0x9d3b <s>
    5cbd: 18           	clc
    5cbe: a5 05        	lda	$5                      ; 0x2005 <__heap_default_limit+0x1005>
    5cc0: 69 06        	adc	#$6
    5cc2: aa           	tax
    5cc3: 18           	clc
    5cc4: a5 05        	lda	$5                      ; 0x2005 <__heap_default_limit+0x1005>
    5cc6: 69 07        	adc	#$7
    5cc8: a8           	tay
    5cc9: a9 20        	lda	#$20
    5ccb: 9d 3b 9d     	sta	$9d3b,x                 ; 0x9d3b <s>
    5cce: 18           	clc
    5ccf: a5 05        	lda	$5                      ; 0x2005 <__heap_default_limit+0x1005>
    5cd1: 69 08        	adc	#$8
    5cd3: aa           	tax
    5cd4: a9 5d        	lda	#$5d
    5cd6: 99 3b 9d     	sta	$9d3b,y                 ; 0x9d3b <s>
    5cd9: 18           	clc
    5cda: a5 05        	lda	$5                      ; 0x2005 <__heap_default_limit+0x1005>
    5cdc: 69 09        	adc	#$9
    5cde: a8           	tay
    5cdf: a9 20        	lda	#$20
    5ce1: 9d 3b 9d     	sta	$9d3b,x                 ; 0x9d3b <s>
    5ce4: 5a           	phy
    5ce5: fa           	plx
    5ce6: 9e 3b 9d     	stz	$9d3b,x                 ; 0x9d3b <s>
    5ce9: a2 07        	ldx	#$7
    5ceb: 86 04        	stx	$4                      ; 0x2004 <__heap_default_limit+0x1004>
    5ced: a9 01        	lda	#$1
    5cef: a4 16        	ldy	$16                     ; 0x2016 <next_line+0x1>
    5cf1: 31 18        	and	($18),y                 ; 0x2018 <next_line+0x3>
    5cf3: 29 01        	and	#$1
    5cf5: d0 0d        	bne	$5d04 <navi+0x65a>
    5cf7: a0 02        	ldy	#$2
    5cf9: b1 1c        	lda	($1c),y                 ; 0x201c <next_line+0x7>
    5cfb: d0 03        	bne	$5d00 <navi+0x656>
    5cfd: 4c 3a 5f     	jmp	$5f3a <navi+0x890>
    5d00: a2 03        	ldx	#$3
    5d02: 86 04        	stx	$4                      ; 0x2004 <__heap_default_limit+0x1004>
    5d04: a9 f0        	lda	#$f0
    5d06: 25 2b        	and	$2b                     ; 0x202b <_start+0xa>
    5d08: 05 04        	ora	$4                      ; 0x2004 <__heap_default_limit+0x1004>
    5d0a: a6 1a        	ldx	$1a                     ; 0x201a <next_line+0x5>
    5d0c: d0 13        	bne	$5d21 <navi+0x677>
    5d0e: 48           	pha
    5d0f: a0 0f        	ldy	#$f
    5d11: b1 02        	lda	($2),y                  ; 0x2002 <__heap_default_limit+0x1002>
    5d13: 85 04        	sta	$4                      ; 0x2004 <__heap_default_limit+0x1004>
    5d15: c8           	iny
    5d16: b1 02        	lda	($2),y                  ; 0x2002 <__heap_default_limit+0x1002>
    5d18: aa           	tax
    5d19: 68           	pla
    5d1a: e4 04        	cpx	$4                      ; 0x2004 <__heap_default_limit+0x1004>
    5d1c: d0 03        	bne	$5d21 <navi+0x677>
    5d1e: 4c 24 5f     	jmp	$5f24 <navi+0x87a>
    5d21: 29 df        	and	#$df
    5d23: 85 2b        	sta	$2b                     ; 0x202b <_start+0xa>
    5d25: a6 16        	ldx	$16                     ; 0x2016 <next_line+0x1>
    5d27: 86 1b        	stx	$1b                     ; 0x201b <next_line+0x6>
    5d29: e6 1b        	inc	$1b                     ; 0x201b <next_line+0x6>
    5d2b: a2 3b        	ldx	#$3b
    5d2d: 86 04        	stx	$4                      ; 0x2004 <__heap_default_limit+0x1004>
    5d2f: a2 9d        	ldx	#$9d
    5d31: 86 05        	stx	$5                      ; 0x2005 <__heap_default_limit+0x1005>
    5d33: a6 1b        	ldx	$1b                     ; 0x201b <next_line+0x6>
    5d35: a0 0b        	ldy	#$b
    5d37: b1 02        	lda	($2),y                  ; 0x2002 <__heap_default_limit+0x1002>
    5d39: 20 f0 87     	jsr	$87f0 <cputsxy>
    5d3c: a5 1c        	lda	$1c                     ; 0x201c <next_line+0x7>
    5d3e: 18           	clc
    5d3f: 69 1e        	adc	#$1e
    5d41: 85 04        	sta	$4                      ; 0x2004 <__heap_default_limit+0x1004>
    5d43: a5 1d        	lda	$1d                     ; 0x201d <next_line+0x8>
    5d45: 69 00        	adc	#$0
    5d47: 85 05        	sta	$5                      ; 0x2005 <__heap_default_limit+0x1005>
    5d49: a0 1e        	ldy	#$1e
    5d4b: b1 1c        	lda	($1c),y                 ; 0x201c <next_line+0x7>
    5d4d: 85 06        	sta	$6                      ; 0x2006 <__heap_default_limit+0x1006>
    5d4f: a0 01        	ldy	#$1
    5d51: b1 04        	lda	($4),y                  ; 0x2004 <__heap_default_limit+0x1004>
    5d53: d0 07        	bne	$5d5c <navi+0x6b2>
    5d55: a6 06        	ldx	$6                      ; 0x2006 <__heap_default_limit+0x1006>
    5d57: d0 03        	bne	$5d5c <navi+0x6b2>
    5d59: 4c a5 65     	jmp	$65a5 <donehypclosefile9+0x85>
    5d5c: a4 06        	ldy	$6                      ; 0x2006 <__heap_default_limit+0x1006>
    5d5e: 64 04        	stz	$4                      ; 0x2004 <__heap_default_limit+0x1004>
    5d60: 64 05        	stz	$5                      ; 0x2005 <__heap_default_limit+0x1005>
    5d62: a2 05        	ldx	#$5
    5d64: 86 06        	stx	$6                      ; 0x2006 <__heap_default_limit+0x1006>
    5d66: aa           	tax
    5d67: 98           	tya
    5d68: 20 0f 41     	jsr	$410f <csputdec>
    5d6b: a5 1a        	lda	$1a                     ; 0x201a <next_line+0x5>
    5d6d: d0 10        	bne	$5d7f <navi+0x6d5>
    5d6f: a0 0f        	ldy	#$f
    5d71: b1 02        	lda	($2),y                  ; 0x2002 <__heap_default_limit+0x1002>
    5d73: 85 04        	sta	$4                      ; 0x2004 <__heap_default_limit+0x1004>
    5d75: c8           	iny
    5d76: b1 02        	lda	($2),y                  ; 0x2002 <__heap_default_limit+0x1002>
    5d78: c5 04        	cmp	$4                      ; 0x2004 <__heap_default_limit+0x1004>
    5d7a: d0 03        	bne	$5d7f <navi+0x6d5>
    5d7c: 4c 35 5f     	jmp	$5f35 <navi+0x88b>
    5d7f: a9 01        	lda	#$1
    5d81: 29 01        	and	#$1
    5d83: 85 1c        	sta	$1c                     ; 0x201c <next_line+0x7>
    5d85: a9 20        	lda	#$20
    5d87: 20 3f 87     	jsr	$873f <cputc>
    5d8a: a9 20        	lda	#$20
    5d8c: a6 1c        	ldx	$1c                     ; 0x201c <next_line+0x7>
    5d8e: d0 02        	bne	$5d92 <navi+0x6e8>
    5d90: a9 3c        	lda	#$3c
    5d92: 20 3f 87     	jsr	$873f <cputc>
    5d95: a9 f0        	lda	#$f0
    5d97: 25 2b        	and	$2b                     ; 0x202b <_start+0xa>
    5d99: 09 03        	ora	#$3
    5d9b: 85 2b        	sta	$2b                     ; 0x202b <_start+0xa>
    5d9d: a0 17        	ldy	#$17
    5d9f: b1 02        	lda	($2),y                  ; 0x2002 <__heap_default_limit+0x1002>
    5da1: aa           	tax
    5da2: b4 27        	ldy	$27,x                   ; 0x2027 <_start+0x6>
    5da4: b5 28        	lda	$28,x                   ; 0x2028 <_start+0x7>
    5da6: aa           	tax
    5da7: 84 04        	sty	$4                      ; 0x2004 <__heap_default_limit+0x1004>
    5da9: 86 05        	stx	$5                      ; 0x2005 <__heap_default_limit+0x1005>
    5dab: a9 02        	lda	#$2
    5dad: a0 46        	ldy	#$46
    5daf: 31 04        	and	($4),y                  ; 0x2004 <__heap_default_limit+0x1004>
    5db1: d0 03        	bne	$5db6 <navi+0x70c>
    5db3: 4c 51 5b     	jmp	$5b51 <navi+0x4a7>
    5db6: a5 1a        	lda	$1a                     ; 0x201a <next_line+0x5>
    5db8: f0 03        	beq	$5dbd <navi+0x713>
    5dba: 4c 51 5b     	jmp	$5b51 <navi+0x4a7>
    5dbd: a0 0f        	ldy	#$f
    5dbf: b1 02        	lda	($2),y                  ; 0x2002 <__heap_default_limit+0x1002>
    5dc1: 85 04        	sta	$4                      ; 0x2004 <__heap_default_limit+0x1004>
    5dc3: c8           	iny
    5dc4: b1 02        	lda	($2),y                  ; 0x2002 <__heap_default_limit+0x1002>
    5dc6: c5 04        	cmp	$4                      ; 0x2004 <__heap_default_limit+0x1004>
    5dc8: f0 03        	beq	$5dcd <navi+0x723>
    5dca: 4c 51 5b     	jmp	$5b51 <navi+0x4a7>
    5dcd: 4c b3 65     	jmp	$65b3 <donehypclosefile9+0x93>
    5dd0: a9 df        	lda	#$df
    5dd2: 25 2b        	and	$2b                     ; 0x202b <_start+0xa>
    5dd4: 85 2b        	sta	$2b                     ; 0x202b <_start+0xa>
    5dd6: 80 14        	bra	$5dec <navi+0x742>
    5dd8: 18           	clc
    5dd9: a0 14        	ldy	#$14
    5ddb: b1 02        	lda	($2),y                  ; 0x2002 <__heap_default_limit+0x1002>
    5ddd: 69 11        	adc	#$11
    5ddf: a2 ba        	ldx	#$ba
    5de1: 86 04        	stx	$4                      ; 0x2004 <__heap_default_limit+0x1004>
    5de3: a2 91        	ldx	#$91
    5de5: 86 05        	stx	$5                      ; 0x2005 <__heap_default_limit+0x1005>
    5de7: a2 03        	ldx	#$3
    5de9: 20 c6 42     	jsr	$42c6 <mcputsxy>
    5dec: 18           	clc
    5ded: a0 11        	ldy	#$11
    5def: b1 02        	lda	($2),y                  ; 0x2002 <__heap_default_limit+0x1002>
    5df1: 69 44        	adc	#$44
    5df3: aa           	tax
    5df4: c8           	iny
    5df5: b1 02        	lda	($2),y                  ; 0x2002 <__heap_default_limit+0x1002>
    5df7: 69 00        	adc	#$0
    5df9: 86 19        	stx	$19                     ; 0x2019 <next_line+0x4>
    5dfb: 86 04        	stx	$4                      ; 0x2004 <__heap_default_limit+0x1004>
    5dfd: 85 18        	sta	$18                     ; 0x2018 <next_line+0x3>
    5dff: 85 05        	sta	$5                      ; 0x2005 <__heap_default_limit+0x1005>
    5e01: a0 44        	ldy	#$44
    5e03: b1 20        	lda	($20),y                 ; 0x2020 <next_line+0xb>
    5e05: aa           	tax
    5e06: a0 01        	ldy	#$1
    5e08: b1 04        	lda	($4),y                  ; 0x2004 <__heap_default_limit+0x1004>
    5e0a: c9 ff        	cmp	#$ff
    5e0c: d0 1d        	bne	$5e2b <navi+0x781>
    5e0e: 86 04        	stx	$4                      ; 0x2004 <__heap_default_limit+0x1004>
    5e10: e0 ff        	cpx	#$ff
    5e12: d0 19        	bne	$5e2d <navi+0x783>
    5e14: 18           	clc
    5e15: a0 14        	ldy	#$14
    5e17: b1 02        	lda	($2),y                  ; 0x2002 <__heap_default_limit+0x1002>
    5e19: 69 0c        	adc	#$c
    5e1b: a2 5e        	ldx	#$5e
    5e1d: 86 04        	stx	$4                      ; 0x2004 <__heap_default_limit+0x1004>
    5e1f: a2 94        	ldx	#$94
    5e21: 86 05        	stx	$5                      ; 0x2005 <__heap_default_limit+0x1005>
    5e23: a2 17        	ldx	#$17
    5e25: 20 c6 42     	jsr	$42c6 <mcputsxy>
    5e28: 4c b5 5e     	jmp	$5eb5 <navi+0x80b>
    5e2b: 86 04        	stx	$4                      ; 0x2004 <__heap_default_limit+0x1004>
    5e2d: aa           	tax
    5e2e: e0 ff        	cpx	#$ff
    5e30: f0 03        	beq	$5e35 <navi+0x78b>
    5e32: 4c 78 5e     	jmp	$5e78 <navi+0x7ce>
    5e35: a6 04        	ldx	$4                      ; 0x2004 <__heap_default_limit+0x1004>
    5e37: e0 fe        	cpx	#$fe
    5e39: f0 03        	beq	$5e3e <navi+0x794>
    5e3b: 4c 78 5e     	jmp	$5e78 <navi+0x7ce>
    5e3e: a9 e0        	lda	#$e0
    5e40: 25 2b        	and	$2b                     ; 0x202b <_start+0xa>
    5e42: 09 18        	ora	#$18
    5e44: 85 2b        	sta	$2b                     ; 0x202b <_start+0xa>
    5e46: 18           	clc
    5e47: a0 14        	ldy	#$14
    5e49: b1 02        	lda	($2),y                  ; 0x2002 <__heap_default_limit+0x1002>
    5e4b: 69 0c        	adc	#$c
    5e4d: a2 8d        	ldx	#$8d
    5e4f: 86 04        	stx	$4                      ; 0x2004 <__heap_default_limit+0x1004>
    5e51: a2 96        	ldx	#$96
    5e53: 86 05        	stx	$5                      ; 0x2005 <__heap_default_limit+0x1005>
    5e55: a2 17        	ldx	#$17
    5e57: 20 c6 42     	jsr	$42c6 <mcputsxy>
    5e5a: a9 ef        	lda	#$ef
    5e5c: 25 2b        	and	$2b                     ; 0x202b <_start+0xa>
    5e5e: 85 2b        	sta	$2b                     ; 0x202b <_start+0xa>
    5e60: 20 d7 86     	jsr	$86d7 <sidbong>
    5e63: a6 19        	ldx	$19                     ; 0x2019 <next_line+0x4>
    5e65: 86 04        	stx	$4                      ; 0x2004 <__heap_default_limit+0x1004>
    5e67: a6 18        	ldx	$18                     ; 0x2018 <next_line+0x3>
    5e69: 86 05        	stx	$5                      ; 0x2005 <__heap_default_limit+0x1005>
    5e6b: a9 ff        	lda	#$ff
    5e6d: a0 44        	ldy	#$44
    5e6f: 91 20        	sta	($20),y                 ; 0x2020 <next_line+0xb>
    5e71: a0 01        	ldy	#$1
    5e73: 91 04        	sta	($4),y                  ; 0x2004 <__heap_default_limit+0x1004>
    5e75: 4c b5 5e     	jmp	$5eb5 <navi+0x80b>
    5e78: 18           	clc
    5e79: a0 14        	ldy	#$14
    5e7b: b1 02        	lda	($2),y                  ; 0x2002 <__heap_default_limit+0x1002>
    5e7d: 69 0c        	adc	#$c
    5e7f: a2 07        	ldx	#$7
    5e81: 86 04        	stx	$4                      ; 0x2004 <__heap_default_limit+0x1004>
    5e83: a2 92        	ldx	#$92
    5e85: 86 05        	stx	$5                      ; 0x2005 <__heap_default_limit+0x1005>
    5e87: a2 17        	ldx	#$17
    5e89: 20 c6 42     	jsr	$42c6 <mcputsxy>
    5e8c: a6 19        	ldx	$19                     ; 0x2019 <next_line+0x4>
    5e8e: 86 04        	stx	$4                      ; 0x2004 <__heap_default_limit+0x1004>
    5e90: a6 18        	ldx	$18                     ; 0x2018 <next_line+0x3>
    5e92: 86 05        	stx	$5                      ; 0x2005 <__heap_default_limit+0x1005>
    5e94: a0 44        	ldy	#$44
    5e96: b1 20        	lda	($20),y                 ; 0x2020 <next_line+0xb>
    5e98: 85 07        	sta	$7                      ; 0x2007 <__heap_default_limit+0x1007>
    5e9a: a0 01        	ldy	#$1
    5e9c: b1 04        	lda	($4),y                  ; 0x2004 <__heap_default_limit+0x1004>
    5e9e: 64 04        	stz	$4                      ; 0x2004 <__heap_default_limit+0x1004>
    5ea0: 64 05        	stz	$5                      ; 0x2005 <__heap_default_limit+0x1005>
    5ea2: 64 06        	stz	$6                      ; 0x2006 <__heap_default_limit+0x1006>
    5ea4: aa           	tax
    5ea5: a5 07        	lda	$7                      ; 0x2007 <__heap_default_limit+0x1007>
    5ea7: 20 0f 41     	jsr	$410f <csputdec>
    5eaa: a2 fa        	ldx	#$fa
    5eac: 86 04        	stx	$4                      ; 0x2004 <__heap_default_limit+0x1004>
    5eae: a2 97        	ldx	#$97
    5eb0: 86 05        	stx	$5                      ; 0x2005 <__heap_default_limit+0x1005>
    5eb2: 20 8d 42     	jsr	$428d <msprintf>
    5eb5: a9 df        	lda	#$df
    5eb7: 25 2b        	and	$2b                     ; 0x202b <_start+0xa>
    5eb9: 85 2b        	sta	$2b                     ; 0x202b <_start+0xa>
    5ebb: 18           	clc
    5ebc: a0 17        	ldy	#$17
    5ebe: b1 02        	lda	($2),y                  ; 0x2002 <__heap_default_limit+0x1002>
    5ec0: 69 02        	adc	#$2
    5ec2: 91 02        	sta	($2),y                  ; 0x2002 <__heap_default_limit+0x1002>
    5ec4: 18           	clc
    5ec5: 88           	dey
    5ec6: b1 02        	lda	($2),y                  ; 0x2002 <__heap_default_limit+0x1002>
    5ec8: 69 11        	adc	#$11
    5eca: 91 02        	sta	($2),y                  ; 0x2002 <__heap_default_limit+0x1002>
    5ecc: a5 1e        	lda	$1e                     ; 0x201e <next_line+0x9>
    5ece: 18           	clc
    5ecf: 69 f8        	adc	#$f8
    5ed1: 85 1e        	sta	$1e                     ; 0x201e <next_line+0x9>
    5ed3: a5 1f        	lda	$1f                     ; 0x201f <next_line+0xa>
    5ed5: 69 00        	adc	#$0
    5ed7: 85 1f        	sta	$1f                     ; 0x201f <next_line+0xa>
    5ed9: a0 19        	ldy	#$19
    5edb: b1 02        	lda	($2),y                  ; 0x2002 <__heap_default_limit+0x1002>
    5edd: aa           	tax
    5ede: e6 17        	inc	$17                     ; 0x2017 <next_line+0x2>
    5ee0: d0 01        	bne	$5ee3 <navi+0x839>
    5ee2: e8           	inx
    5ee3: 8a           	txa
    5ee4: 4c 12 5a     	jmp	$5a12 <navi+0x368>
    5ee7: a9 00        	lda	#$0
    5ee9: 4c ce 5b     	jmp	$5bce <navi+0x524>
    5eec: ca           	dex
    5eed: 4c 85 5c     	jmp	$5c85 <navi+0x5db>
    5ef0: c9 05        	cmp	#$5
    5ef2: 90 09        	bcc	$5efd <navi+0x853>
    5ef4: a9 44        	lda	#$44
    5ef6: 4c ac 5c     	jmp	$5cac <navi+0x602>
    5ef9: e0 00        	cpx	#$0
    5efb: b0 f7        	bcs	$5ef4 <navi+0x84a>
    5efd: 0a           	asl
    5efe: aa           	tax
    5eff: 7c b8 90     	jmp	($90b8,x)               ; 0x90b8 <__zp_data_load_start+0x70a1>
    5f02: a9 44        	lda	#$44
    5f04: a4 06        	ldy	$6                      ; 0x2006 <__heap_default_limit+0x1006>
    5f06: 99 3b 9d     	sta	$9d3b,y                 ; 0x9d3b <s>
    5f09: a9 49        	lda	#$49
    5f0b: a4 07        	ldy	$7                      ; 0x2007 <__heap_default_limit+0x1007>
    5f0d: 99 3b 9d     	sta	$9d3b,y                 ; 0x9d3b <s>
    5f10: a9 52        	lda	#$52
    5f12: 4c ba 5c     	jmp	$5cba <navi+0x610>
    5f15: a9 20        	lda	#$20
    5f17: a4 06        	ldy	$6                      ; 0x2006 <__heap_default_limit+0x1006>
    5f19: 99 3b 9d     	sta	$9d3b,y                 ; 0x9d3b <s>
    5f1c: a4 07        	ldy	$7                      ; 0x2007 <__heap_default_limit+0x1007>
    5f1e: 99 3b 9d     	sta	$9d3b,y                 ; 0x9d3b <s>
    5f21: 4c ba 5c     	jmp	$5cba <navi+0x610>
    5f24: 48           	pha
    5f25: a0 19        	ldy	#$19
    5f27: b1 02        	lda	($2),y                  ; 0x2002 <__heap_default_limit+0x1002>
    5f29: aa           	tax
    5f2a: 68           	pla
    5f2b: e0 00        	cpx	#$0
    5f2d: f0 03        	beq	$5f32 <navi+0x888>
    5f2f: 4c 21 5d     	jmp	$5d21 <navi+0x677>
    5f32: 4c e7 65     	jmp	$65e7 <donehypclosefile9+0xc7>
    5f35: a9 00        	lda	#$0
    5f37: 4c 81 5d     	jmp	$5d81 <navi+0x6d7>
    5f3a: a2 0c        	ldx	#$c
    5f3c: 4c 02 5d     	jmp	$5d02 <navi+0x658>
    5f3f: a0 00        	ldy	#$0
    5f41: 84 04        	sty	$4                      ; 0x2004 <__heap_default_limit+0x1004>
    5f43: a0 17        	ldy	#$17
    5f45: 84 05        	sty	$5                      ; 0x2005 <__heap_default_limit+0x1005>
    5f47: a0 00        	ldy	#$0
    5f49: 84 06        	sty	$6                      ; 0x2006 <__heap_default_limit+0x1006>
    5f4b: a0 18        	ldy	#$18
    5f4d: 84 07        	sty	$7                      ; 0x2007 <__heap_default_limit+0x1007>
    5f4f: 86 08        	stx	$8                      ; 0x2008 <__heap_default_limit+0x1008>
    5f51: aa           	tax
    5f52: 85 20        	sta	$20                     ; 0x2020 <next_line+0xb>
    5f54: a5 16        	lda	$16                     ; 0x2016 <next_line+0x1>
    5f56: 20 df 27     	jsr	$27df <BAMSectorUpdate>
    5f59: a5 20        	lda	$20                     ; 0x2020 <next_line+0xb>
    5f5b: a4 17        	ldy	$17                     ; 0x2017 <next_line+0x2>
    5f5d: a2 01        	ldx	#$1
    5f5f: 1a           	inc
    5f60: c9 28        	cmp	#$28
    5f62: d0 db        	bne	$5f3f <navi+0x895>
    5f64: e6 16        	inc	$16                     ; 0x2016 <next_line+0x1>
    5f66: c4 16        	cpy	$16                     ; 0x2016 <next_line+0x1>
    5f68: b0 03        	bcs	$5f6d <navi+0x8c3>
    5f6a: 4c bd 7e     	jmp	$7ebd <donehypchdir17+0xd>
    5f6d: a9 00        	lda	#$0
    5f6f: 80 ef        	bra	$5f60 <navi+0x8b6>
    5f71: a9 00        	lda	#$0
    5f73: a6 04        	ldx	$4                      ; 0x2004 <__heap_default_limit+0x1004>
    5f75: 86 1b        	stx	$1b                     ; 0x201b <next_line+0x6>
    5f77: 48           	pha
    5f78: a0 13        	ldy	#$13
    5f7a: b1 02        	lda	($2),y                  ; 0x2002 <__heap_default_limit+0x1002>
    5f7c: aa           	tax
    5f7d: 68           	pla
    5f7e: 20 51 48     	jsr	$4851 <shortcuts>
    5f81: a0 01        	ldy	#$1
    5f83: ae 10 d6     	ldx	$d610                   ; 0xd610 <__heap_start+0x3616>
    5f86: d0 0b        	bne	$5f93 <navi+0x8e9>
    5f88: ad 11 d6     	lda	$d611                   ; 0xd611 <__heap_start+0x3617>
    5f8b: 85 04        	sta	$4                      ; 0x2004 <__heap_default_limit+0x1004>
    5f8d: c5 1b        	cmp	$1b                     ; 0x201b <next_line+0x6>
    5f8f: f0 f2        	beq	$5f83 <navi+0x8d9>
    5f91: 80 e0        	bra	$5f73 <navi+0x8c9>
    5f93: 5a           	phy
    5f94: 8a           	txa
    5f95: a0 19        	ldy	#$19
    5f97: 91 02        	sta	($2),y                  ; 0x2002 <__heap_default_limit+0x1002>
    5f99: 9c 10 d6     	stz	$d610                   ; 0xd610 <__heap_start+0x3616>
    5f9c: 9c 20 d0     	stz	$d020                   ; 0xd020 <__heap_start+0x3026>
    5f9f: a0 13        	ldy	#$13
    5fa1: b1 02        	lda	($2),y                  ; 0x2002 <__heap_default_limit+0x1002>
    5fa3: 85 16        	sta	$16                     ; 0x2016 <next_line+0x1>
    5fa5: 06 16        	asl	$16                     ; 0x2016 <next_line+0x1>
    5fa7: 64 18        	stz	$18                     ; 0x2018 <next_line+0x3>
    5fa9: 26 18        	rol	$18                     ; 0x2018 <next_line+0x3>
    5fab: a9 01        	lda	#$1
    5fad: b0 02        	bcs	$5fb1 <navi+0x907>
    5faf: a9 00        	lda	#$0
    5fb1: a0 12        	ldy	#$12
    5fb3: 91 02        	sta	($2),y                  ; 0x2002 <__heap_default_limit+0x1002>
    5fb5: 7a           	ply
    5fb6: a9 27        	lda	#$27
    5fb8: 18           	clc
    5fb9: 65 16        	adc	$16                     ; 0x2016 <next_line+0x1>
    5fbb: 85 04        	sta	$4                      ; 0x2004 <__heap_default_limit+0x1004>
    5fbd: a9 00        	lda	#$0
    5fbf: 65 18        	adc	$18                     ; 0x2018 <next_line+0x3>
    5fc1: 85 05        	sta	$5                      ; 0x2005 <__heap_default_limit+0x1005>
    5fc3: b2 04        	lda	($4),z                  ; 0x2004 <__heap_default_limit+0x1004>
    5fc5: 85 1c        	sta	$1c                     ; 0x201c <next_line+0x7>
    5fc7: b1 04        	lda	($4),y                  ; 0x2004 <__heap_default_limit+0x1004>
    5fc9: 48           	pha
    5fca: a5 1c        	lda	$1c                     ; 0x201c <next_line+0x7>
    5fcc: a0 14        	ldy	#$14
    5fce: 91 02        	sta	($2),y                  ; 0x2002 <__heap_default_limit+0x1002>
    5fd0: 68           	pla
    5fd1: a0 16        	ldy	#$16
    5fd3: 91 02        	sta	($2),y                  ; 0x2002 <__heap_default_limit+0x1002>
    5fd5: 85 1d        	sta	$1d                     ; 0x201d <next_line+0x8>
    5fd7: a0 46        	ldy	#$46
    5fd9: b1 1c        	lda	($1c),y                 ; 0x201c <next_line+0x7>
    5fdb: a8           	tay
    5fdc: 29 02        	and	#$2
    5fde: 85 06        	sta	$6                      ; 0x2006 <__heap_default_limit+0x1006>
    5fe0: f0 03        	beq	$5fe5 <navi+0x93b>
    5fe2: 4c 4a 63     	jmp	$634a <navi+0xca0>
    5fe5: 5a           	phy
    5fe6: a5 1c        	lda	$1c                     ; 0x201c <next_line+0x7>
    5fe8: a0 17        	ldy	#$17
    5fea: 91 02        	sta	($2),y                  ; 0x2002 <__heap_default_limit+0x1002>
    5fec: a5 1d        	lda	$1d                     ; 0x201d <next_line+0x8>
    5fee: c8           	iny
    5fef: 91 02        	sta	($2),y                  ; 0x2002 <__heap_default_limit+0x1002>
    5ff1: 38           	sec
    5ff2: c8           	iny
    5ff3: b1 02        	lda	($2),y                  ; 0x2002 <__heap_default_limit+0x1002>
    5ff5: e9 f1        	sbc	#$f1
    5ff7: 85 07        	sta	$7                      ; 0x2007 <__heap_default_limit+0x1007>
    5ff9: a5 1b        	lda	$1b                     ; 0x201b <next_line+0x6>
    5ffb: a2 01        	ldx	#$1
    5ffd: b0 02        	bcs	$6001 <navi+0x957>
    5fff: a2 00        	ldx	#$0
    6001: e9 00        	sbc	#$0
    6003: 85 08        	sta	$8                      ; 0x2008 <__heap_default_limit+0x1008>
    6005: 06 16        	asl	$16                     ; 0x2016 <next_line+0x1>
    6007: 26 18        	rol	$18                     ; 0x2018 <next_line+0x3>
    6009: a0 01        	ldy	#$1
    600b: b0 02        	bcs	$600f <navi+0x965>
    600d: a0 00        	ldy	#$0
    600f: 84 1e        	sty	$1e                     ; 0x201e <next_line+0x9>
    6011: a4 16        	ldy	$16                     ; 0x2016 <next_line+0x1>
    6013: 84 1a        	sty	$1a                     ; 0x201a <next_line+0x5>
    6015: 06 1a        	asl	$1a                     ; 0x201a <next_line+0x5>
    6017: a4 18        	ldy	$18                     ; 0x2018 <next_line+0x3>
    6019: 84 19        	sty	$19                     ; 0x2019 <next_line+0x4>
    601b: 26 19        	rol	$19                     ; 0x2019 <next_line+0x4>
    601d: a0 01        	ldy	#$1
    601f: b0 02        	bcs	$6023 <navi+0x979>
    6021: a0 00        	ldy	#$0
    6023: 84 1f        	sty	$1f                     ; 0x201f <next_line+0xa>
    6025: a5 1a        	lda	$1a                     ; 0x201a <next_line+0x5>
    6027: 0a           	asl
    6028: a4 19        	ldy	$19                     ; 0x2019 <next_line+0x4>
    602a: 84 20        	sty	$20                     ; 0x2020 <next_line+0xb>
    602c: 26 20        	rol	$20                     ; 0x2020 <next_line+0xb>
    602e: a0 01        	ldy	#$1
    6030: b0 02        	bcs	$6034 <navi+0x98a>
    6032: a0 00        	ldy	#$0
    6034: 84 1c        	sty	$1c                     ; 0x201c <next_line+0x7>
    6036: 85 1d        	sta	$1d                     ; 0x201d <next_line+0x8>
    6038: 85 21        	sta	$21                     ; 0x2021 <_start>
    603a: a5 20        	lda	$20                     ; 0x2020 <next_line+0xb>
    603c: a0 11        	ldy	#$11
    603e: 91 02        	sta	($2),y                  ; 0x2002 <__heap_default_limit+0x1002>
    6040: 7a           	ply
    6041: 06 21        	asl	$21                     ; 0x2021 <_start>
    6043: 26 20        	rol	$20                     ; 0x2020 <next_line+0xb>
    6045: 06 21        	asl	$21                     ; 0x2021 <_start>
    6047: 26 20        	rol	$20                     ; 0x2020 <next_line+0xb>
    6049: 06 21        	asl	$21                     ; 0x2021 <_start>
    604b: 26 20        	rol	$20                     ; 0x2020 <next_line+0xb>
    604d: 06 21        	asl	$21                     ; 0x2021 <_start>
    604f: 26 20        	rol	$20                     ; 0x2020 <next_line+0xb>
    6051: 98           	tya
    6052: 84 05        	sty	$5                      ; 0x2005 <__heap_default_limit+0x1005>
    6054: 29 01        	and	#$1
    6056: 85 04        	sta	$4                      ; 0x2004 <__heap_default_limit+0x1004>
    6058: a5 08        	lda	$8                      ; 0x2008 <__heap_default_limit+0x1008>
    605a: f0 03        	beq	$605f <navi+0x9b5>
    605c: 4c 6a 63     	jmp	$636a <navi+0xcc0>
    605f: a5 07        	lda	$7                      ; 0x2007 <__heap_default_limit+0x1007>
    6061: c9 19        	cmp	#$19
    6063: 90 03        	bcc	$6068 <navi+0x9be>
    6065: 4c 75 63     	jmp	$6375 <navi+0xccb>
    6068: 0a           	asl
    6069: aa           	tax
    606a: 7c ce 90     	jmp	($90ce,x)               ; 0x90ce <__zp_data_load_start+0x70b7>
    606d: a2 00        	ldx	#$0
    606f: a9 14        	lda	#$14
    6071: 20 51 48     	jsr	$4851 <shortcuts>
    6074: a2 01        	ldx	#$1
    6076: a0 00        	ldy	#$0
    6078: 5a           	phy
    6079: a0 17        	ldy	#$17
    607b: b1 02        	lda	($2),y                  ; 0x2002 <__heap_default_limit+0x1002>
    607d: 85 18        	sta	$18                     ; 0x2018 <next_line+0x3>
    607f: c8           	iny
    6080: b1 02        	lda	($2),y                  ; 0x2002 <__heap_default_limit+0x1002>
    6082: 7a           	ply
    6083: 85 19        	sta	$19                     ; 0x2019 <next_line+0x4>
    6085: 4c 2a 61     	jmp	$612a <navi+0xa80>
    6088: a2 20        	ldx	#$20
    608a: 86 04        	stx	$4                      ; 0x2004 <__heap_default_limit+0x1004>
    608c: 5a           	phy
    608d: fa           	plx
    608e: a9 0c        	lda	#$c
    6090: 84 17        	sty	$17                     ; 0x2017 <next_line+0x2>
    6092: 20 48 87     	jsr	$8748 <cputcxy>
    6095: e6 17        	inc	$17                     ; 0x2017 <next_line+0x2>
    6097: a4 17        	ldy	$17                     ; 0x2017 <next_line+0x2>
    6099: c0 0a        	cpy	#$a
    609b: f0 10        	beq	$60ad <navi+0xa03>
    609d: 98           	tya
    609e: 38           	sec
    609f: e5 16        	sbc	$16                     ; 0x2016 <next_line+0x1>
    60a1: c9 08        	cmp	#$8
    60a3: d0 e3        	bne	$6088 <navi+0x9de>
    60a5: a2 3e        	ldx	#$3e
    60a7: 86 04        	stx	$4                      ; 0x2004 <__heap_default_limit+0x1004>
    60a9: a6 1a        	ldx	$1a                     ; 0x201a <next_line+0x5>
    60ab: 80 e1        	bra	$608e <navi+0x9e4>
    60ad: 20 75 89     	jsr	$8975 <cgetc>
    60b0: a0 00        	ldy	#$0
    60b2: a2 00        	ldx	#$0
    60b4: c9 91        	cmp	#$91
    60b6: d0 03        	bne	$60bb <navi+0xa11>
    60b8: 4c 2a 61     	jmp	$612a <navi+0xa80>
    60bb: c9 9d        	cmp	#$9d
    60bd: d0 03        	bne	$60c2 <navi+0xa18>
    60bf: 4c 2a 61     	jmp	$612a <navi+0xa80>
    60c2: c9 0d        	cmp	#$d
    60c4: f0 26        	beq	$60ec <navi+0xa42>
    60c6: c9 11        	cmp	#$11
    60c8: f0 1c        	beq	$60e6 <navi+0xa3c>
    60ca: c9 1d        	cmp	#$1d
    60cc: f0 18        	beq	$60e6 <navi+0xa3c>
    60ce: c9 03        	cmp	#$3
    60d0: d0 03        	bne	$60d5 <navi+0xa2b>
    60d2: 4c ef 59     	jmp	$59ef <navi+0x345>
    60d5: c9 1b        	cmp	#$1b
    60d7: d0 03        	bne	$60dc <navi+0xa32>
    60d9: 4c ef 59     	jmp	$59ef <navi+0x345>
    60dc: 20 d7 86     	jsr	$86d7 <sidbong>
    60df: a4 16        	ldy	$16                     ; 0x2016 <next_line+0x1>
    60e1: a2 00        	ldx	#$0
    60e3: 4c 2a 61     	jmp	$612a <navi+0xa80>
    60e6: a4 16        	ldy	$16                     ; 0x2016 <next_line+0x1>
    60e8: c8           	iny
    60e9: 4c 2a 61     	jmp	$612a <navi+0xa80>
    60ec: a2 01        	ldx	#$1
    60ee: a5 16        	lda	$16                     ; 0x2016 <next_line+0x1>
    60f0: f0 03        	beq	$60f5 <navi+0xa4b>
    60f2: 4c ff 73     	jmp	$73ff <donehypclosefile9+0xedf>
    60f5: a0 46        	ldy	#$46
    60f7: b1 18        	lda	($18),y                 ; 0x2018 <next_line+0x3>
    60f9: aa           	tax
    60fa: 29 01        	and	#$1
    60fc: f0 03        	beq	$6101 <navi+0xa57>
    60fe: 4c a9 74     	jmp	$74a9 <donehypclosefile9+0xf89>
    6101: a2 ac        	ldx	#$ac
    6103: 86 04        	stx	$4                      ; 0x2004 <__heap_default_limit+0x1004>
    6105: a2 9a        	ldx	#$9a
    6107: 86 05        	stx	$5                      ; 0x2005 <__heap_default_limit+0x1005>
    6109: a2 e5        	ldx	#$e5
    610b: 86 06        	stx	$6                      ; 0x2006 <__heap_default_limit+0x1006>
    610d: a2 93        	ldx	#$93
    610f: 86 07        	stx	$7                      ; 0x2007 <__heap_default_limit+0x1007>
    6111: a2 07        	ldx	#$7
    6113: 86 08        	stx	$8                      ; 0x2008 <__heap_default_limit+0x1008>
    6115: a2 92        	ldx	#$92
    6117: 86 09        	stx	$9                      ; 0x2009 <__heap_default_limit+0x1009>
    6119: 64 0a        	stz	$a                      ; 0x200a <__heap_default_limit+0x100a>
    611b: 64 0b        	stz	$b                      ; 0x200b <__heap_default_limit+0x100b>
    611d: 64 0c        	stz	$c                      ; 0x200c <__heap_default_limit+0x100c>
    611f: a2 00        	ldx	#$0
    6121: a9 04        	lda	#$4
    6123: 20 67 44     	jsr	$4467 <messagebox>
    6126: a0 00        	ldy	#$0
    6128: a2 01        	ldx	#$1
    612a: 8a           	txa
    612b: d0 03        	bne	$6130 <navi+0xa86>
    612d: 4c 96 61     	jmp	$6196 <navi+0xaec>
    6130: a2 46        	ldx	#$46
    6132: 86 04        	stx	$4                      ; 0x2004 <__heap_default_limit+0x1004>
    6134: a2 14        	ldx	#$14
    6136: 86 05        	stx	$5                      ; 0x2005 <__heap_default_limit+0x1005>
    6138: a2 01        	ldx	#$1
    613a: 86 06        	stx	$6                      ; 0x2006 <__heap_default_limit+0x1006>
    613c: a2 04        	ldx	#$4
    613e: a9 0a        	lda	#$a
    6140: 84 16        	sty	$16                     ; 0x2016 <next_line+0x1>
    6142: 20 dc 42     	jsr	$42dc <mcbox>
    6145: a9 20        	lda	#$20
    6147: 05 2b        	ora	$2b                     ; 0x202b <_start+0xa>
    6149: 85 2b        	sta	$2b                     ; 0x202b <_start+0xa>
    614b: a2 51        	ldx	#$51
    614d: 86 04        	stx	$4                      ; 0x2004 <__heap_default_limit+0x1004>
    614f: a2 92        	ldx	#$92
    6151: 86 05        	stx	$5                      ; 0x2005 <__heap_default_limit+0x1005>
    6153: a2 04        	ldx	#$4
    6155: a9 0e        	lda	#$e
    6157: 20 c6 42     	jsr	$42c6 <mcputsxy>
    615a: a2 78        	ldx	#$78
    615c: 86 04        	stx	$4                      ; 0x2004 <__heap_default_limit+0x1004>
    615e: a2 98        	ldx	#$98
    6160: 86 05        	stx	$5                      ; 0x2005 <__heap_default_limit+0x1005>
    6162: a2 04        	ldx	#$4
    6164: a9 1f        	lda	#$1f
    6166: 20 c6 42     	jsr	$42c6 <mcputsxy>
    6169: a2 c6        	ldx	#$c6
    616b: 86 04        	stx	$4                      ; 0x2004 <__heap_default_limit+0x1004>
    616d: a2 96        	ldx	#$96
    616f: 86 05        	stx	$5                      ; 0x2005 <__heap_default_limit+0x1005>
    6171: a2 04        	ldx	#$4
    6173: a9 28        	lda	#$28
    6175: 20 c6 42     	jsr	$42c6 <mcputsxy>
    6178: a2 50        	ldx	#$50
    617a: 86 04        	stx	$4                      ; 0x2004 <__heap_default_limit+0x1004>
    617c: a2 95        	ldx	#$95
    617e: 86 05        	stx	$5                      ; 0x2005 <__heap_default_limit+0x1005>
    6180: a2 12        	ldx	#$12
    6182: a9 24        	lda	#$24
    6184: 20 c6 42     	jsr	$42c6 <mcputsxy>
    6187: a9 df        	lda	#$df
    6189: 25 2b        	and	$2b                     ; 0x202b <_start+0xa>
    618b: 85 2b        	sta	$2b                     ; 0x202b <_start+0xa>
    618d: a2 01        	ldx	#$1
    618f: a9 5d        	lda	#$5d
    6191: 20 6e 84     	jsr	$846e <text>
    6194: a4 16        	ldy	$16                     ; 0x2016 <next_line+0x1>
    6196: c0 02        	cpy	#$2
    6198: 84 16        	sty	$16                     ; 0x2016 <next_line+0x1>
    619a: 90 04        	bcc	$61a0 <navi+0xaf6>
    619c: a2 01        	ldx	#$1
    619e: 86 16        	stx	$16                     ; 0x2016 <next_line+0x1>
    61a0: a0 08        	ldy	#$8
    61a2: a5 16        	lda	$16                     ; 0x2016 <next_line+0x1>
    61a4: 09 08        	ora	#$8
    61a6: 85 1a        	sta	$1a                     ; 0x201a <next_line+0x5>
    61a8: 4c 99 60     	jmp	$6099 <navi+0x9ef>
    61ab: e8           	inx
    61ac: 86 16        	stx	$16                     ; 0x2016 <next_line+0x1>
    61ae: a2 01        	ldx	#$1
    61b0: 4c f9 61     	jmp	$61f9 <navi+0xb4f>
    61b3: 20 d7 86     	jsr	$86d7 <sidbong>
    61b6: a2 55        	ldx	#$55
    61b8: 86 04        	stx	$4                      ; 0x2004 <__heap_default_limit+0x1004>
    61ba: a2 97        	ldx	#$97
    61bc: 86 05        	stx	$5                      ; 0x2005 <__heap_default_limit+0x1005>
    61be: a2 86        	ldx	#$86
    61c0: 86 06        	stx	$6                      ; 0x2006 <__heap_default_limit+0x1006>
    61c2: a2 98        	ldx	#$98
    61c4: 86 07        	stx	$7                      ; 0x2007 <__heap_default_limit+0x1007>
    61c6: a2 dd        	ldx	#$dd
    61c8: 86 08        	stx	$8                      ; 0x2008 <__heap_default_limit+0x1008>
    61ca: a2 93        	ldx	#$93
    61cc: 86 09        	stx	$9                      ; 0x2009 <__heap_default_limit+0x1009>
    61ce: 64 0a        	stz	$a                      ; 0x200a <__heap_default_limit+0x100a>
    61d0: 64 0b        	stz	$b                      ; 0x200b <__heap_default_limit+0x100b>
    61d2: 64 0c        	stz	$c                      ; 0x200c <__heap_default_limit+0x100c>
    61d4: a2 00        	ldx	#$0
    61d6: a9 04        	lda	#$4
    61d8: 20 67 44     	jsr	$4467 <messagebox>
    61db: a2 01        	ldx	#$1
    61dd: 80 1a        	bra	$61f9 <navi+0xb4f>
    61df: 64 16        	stz	$16                     ; 0x2016 <next_line+0x1>
    61e1: a2 01        	ldx	#$1
    61e3: a5 17        	lda	$17                     ; 0x2017 <next_line+0x2>
    61e5: f0 12        	beq	$61f9 <navi+0xb4f>
    61e7: a4 17        	ldy	$17                     ; 0x2017 <next_line+0x2>
    61e9: 88           	dey
    61ea: 84 16        	sty	$16                     ; 0x2016 <next_line+0x1>
    61ec: 80 0b        	bra	$61f9 <navi+0xb4f>
    61ee: a9 01        	lda	#$1
    61f0: 20 10 8c     	jsr	$8c10 <__ashlqi3>
    61f3: a2 01        	ldx	#$1
    61f5: 45 2f        	eor	$2f                     ; 0x202f <__do_init_stack>
    61f7: 85 2f        	sta	$2f                     ; 0x202f <__do_init_stack>
    61f9: a0 46        	ldy	#$46
    61fb: 84 04        	sty	$4                      ; 0x2004 <__heap_default_limit+0x1004>
    61fd: a0 14        	ldy	#$14
    61ff: 84 05        	sty	$5                      ; 0x2005 <__heap_default_limit+0x1005>
    6201: 86 06        	stx	$6                      ; 0x2006 <__heap_default_limit+0x1006>
    6203: a2 04        	ldx	#$4
    6205: a9 0a        	lda	#$a
    6207: 20 dc 42     	jsr	$42dc <mcbox>
    620a: a9 20        	lda	#$20
    620c: 05 2b        	ora	$2b                     ; 0x202b <_start+0xa>
    620e: 85 2b        	sta	$2b                     ; 0x202b <_start+0xa>
    6210: a2 51        	ldx	#$51
    6212: 86 04        	stx	$4                      ; 0x2004 <__heap_default_limit+0x1004>
    6214: a2 92        	ldx	#$92
    6216: 86 05        	stx	$5                      ; 0x2005 <__heap_default_limit+0x1005>
    6218: a2 04        	ldx	#$4
    621a: a9 0e        	lda	#$e
    621c: 20 c6 42     	jsr	$42c6 <mcputsxy>
    621f: a2 a3        	ldx	#$a3
    6221: 86 04        	stx	$4                      ; 0x2004 <__heap_default_limit+0x1004>
    6223: a2 95        	ldx	#$95
    6225: 86 05        	stx	$5                      ; 0x2005 <__heap_default_limit+0x1005>
    6227: a2 04        	ldx	#$4
    6229: a9 1f        	lda	#$1f
    622b: 20 c6 42     	jsr	$42c6 <mcputsxy>
    622e: a2 c6        	ldx	#$c6
    6230: 86 04        	stx	$4                      ; 0x2004 <__heap_default_limit+0x1004>
    6232: a2 96        	ldx	#$96
    6234: 86 05        	stx	$5                      ; 0x2005 <__heap_default_limit+0x1005>
    6236: a2 04        	ldx	#$4
    6238: a9 28        	lda	#$28
    623a: 20 c6 42     	jsr	$42c6 <mcputsxy>
    623d: a9 df        	lda	#$df
    623f: 25 2b        	and	$2b                     ; 0x202b <_start+0xa>
    6241: 85 2b        	sta	$2b                     ; 0x202b <_start+0xa>
    6243: a2 ab        	ldx	#$ab
    6245: 86 04        	stx	$4                      ; 0x2004 <__heap_default_limit+0x1004>
    6247: a2 95        	ldx	#$95
    6249: 86 05        	stx	$5                      ; 0x2005 <__heap_default_limit+0x1005>
    624b: a2 10        	ldx	#$10
    624d: a9 17        	lda	#$17
    624f: 20 c6 42     	jsr	$42c6 <mcputsxy>
    6252: a9 20        	lda	#$20
    6254: 05 2b        	ora	$2b                     ; 0x202b <_start+0xa>
    6256: 85 2b        	sta	$2b                     ; 0x202b <_start+0xa>
    6258: a2 50        	ldx	#$50
    625a: 86 04        	stx	$4                      ; 0x2004 <__heap_default_limit+0x1004>
    625c: a2 95        	ldx	#$95
    625e: 86 05        	stx	$5                      ; 0x2005 <__heap_default_limit+0x1005>
    6260: a2 12        	ldx	#$12
    6262: a9 24        	lda	#$24
    6264: 20 c6 42     	jsr	$42c6 <mcputsxy>
    6267: a9 df        	lda	#$df
    6269: 25 2b        	and	$2b                     ; 0x202b <_start+0xa>
    626b: 85 2b        	sta	$2b                     ; 0x202b <_start+0xa>
    626d: a4 16        	ldy	$16                     ; 0x2016 <next_line+0x1>
    626f: c0 05        	cpy	#$5
    6271: 90 02        	bcc	$6275 <navi+0xbcb>
    6273: a0 04        	ldy	#$4
    6275: a5 2f        	lda	$2f                     ; 0x202f <__do_init_stack>
    6277: a2 4f        	ldx	#$4f
    6279: 86 04        	stx	$4                      ; 0x2004 <__heap_default_limit+0x1004>
    627b: a2 94        	ldx	#$94
    627d: 86 05        	stx	$5                      ; 0x2005 <__heap_default_limit+0x1005>
    627f: 84 06        	sty	$6                      ; 0x2006 <__heap_default_limit+0x1006>
    6281: 64 07        	stz	$7                      ; 0x2007 <__heap_default_limit+0x1007>
    6283: a2 01        	ldx	#$1
    6285: 84 16        	sty	$16                     ; 0x2016 <next_line+0x1>
    6287: 20 6e 4e     	jsr	$4e6e <optionstring>
    628a: a5 2f        	lda	$2f                     ; 0x202f <__do_init_stack>
    628c: a2 85        	ldx	#$85
    628e: 86 04        	stx	$4                      ; 0x2004 <__heap_default_limit+0x1004>
    6290: a2 99        	ldx	#$99
    6292: 86 05        	stx	$5                      ; 0x2005 <__heap_default_limit+0x1005>
    6294: a6 16        	ldx	$16                     ; 0x2016 <next_line+0x1>
    6296: 86 06        	stx	$6                      ; 0x2006 <__heap_default_limit+0x1006>
    6298: a2 01        	ldx	#$1
    629a: 86 07        	stx	$7                      ; 0x2007 <__heap_default_limit+0x1007>
    629c: e8           	inx
    629d: 20 6e 4e     	jsr	$4e6e <optionstring>
    62a0: a5 2f        	lda	$2f                     ; 0x202f <__do_init_stack>
    62a2: a2 ed        	ldx	#$ed
    62a4: 86 04        	stx	$4                      ; 0x2004 <__heap_default_limit+0x1004>
    62a6: a2 91        	ldx	#$91
    62a8: 86 05        	stx	$5                      ; 0x2005 <__heap_default_limit+0x1005>
    62aa: a6 16        	ldx	$16                     ; 0x2016 <next_line+0x1>
    62ac: 86 06        	stx	$6                      ; 0x2006 <__heap_default_limit+0x1006>
    62ae: a2 02        	ldx	#$2
    62b0: 86 07        	stx	$7                      ; 0x2007 <__heap_default_limit+0x1007>
    62b2: a2 04        	ldx	#$4
    62b4: 20 6e 4e     	jsr	$4e6e <optionstring>
    62b7: a5 2f        	lda	$2f                     ; 0x202f <__do_init_stack>
    62b9: a2 bf        	ldx	#$bf
    62bb: 86 04        	stx	$4                      ; 0x2004 <__heap_default_limit+0x1004>
    62bd: a2 93        	ldx	#$93
    62bf: 86 05        	stx	$5                      ; 0x2005 <__heap_default_limit+0x1005>
    62c1: 48           	pha
    62c2: a5 04        	lda	$4                      ; 0x2004 <__heap_default_limit+0x1004>
    62c4: a0 19        	ldy	#$19
    62c6: 91 02        	sta	($2),y                  ; 0x2002 <__heap_default_limit+0x1002>
    62c8: a5 05        	lda	$5                      ; 0x2005 <__heap_default_limit+0x1005>
    62ca: c8           	iny
    62cb: 91 02        	sta	($2),y                  ; 0x2002 <__heap_default_limit+0x1002>
    62cd: 88           	dey
    62ce: b1 02        	lda	($2),y                  ; 0x2002 <__heap_default_limit+0x1002>
    62d0: 85 04        	sta	$4                      ; 0x2004 <__heap_default_limit+0x1004>
    62d2: c8           	iny
    62d3: b1 02        	lda	($2),y                  ; 0x2002 <__heap_default_limit+0x1002>
    62d5: 85 05        	sta	$5                      ; 0x2005 <__heap_default_limit+0x1005>
    62d7: 68           	pla
    62d8: a6 16        	ldx	$16                     ; 0x2016 <next_line+0x1>
    62da: 86 06        	stx	$6                      ; 0x2006 <__heap_default_limit+0x1006>
    62dc: a2 03        	ldx	#$3
    62de: 86 07        	stx	$7                      ; 0x2007 <__heap_default_limit+0x1007>
    62e0: a2 08        	ldx	#$8
    62e2: 20 6e 4e     	jsr	$4e6e <optionstring>
    62e5: a5 2f        	lda	$2f                     ; 0x202f <__do_init_stack>
    62e7: 48           	pha
    62e8: a0 19        	ldy	#$19
    62ea: b1 02        	lda	($2),y                  ; 0x2002 <__heap_default_limit+0x1002>
    62ec: 85 04        	sta	$4                      ; 0x2004 <__heap_default_limit+0x1004>
    62ee: c8           	iny
    62ef: b1 02        	lda	($2),y                  ; 0x2002 <__heap_default_limit+0x1002>
    62f1: 85 05        	sta	$5                      ; 0x2005 <__heap_default_limit+0x1005>
    62f3: 68           	pla
    62f4: a6 16        	ldx	$16                     ; 0x2016 <next_line+0x1>
    62f6: 86 17        	stx	$17                     ; 0x2017 <next_line+0x2>
    62f8: a6 16        	ldx	$16                     ; 0x2016 <next_line+0x1>
    62fa: 86 06        	stx	$6                      ; 0x2006 <__heap_default_limit+0x1006>
    62fc: a2 04        	ldx	#$4
    62fe: 86 07        	stx	$7                      ; 0x2007 <__heap_default_limit+0x1007>
    6300: a2 10        	ldx	#$10
    6302: 20 6e 4e     	jsr	$4e6e <optionstring>
    6305: 20 75 89     	jsr	$8975 <cgetc>
    6308: c9 91        	cmp	#$91
    630a: d0 03        	bne	$630f <navi+0xc65>
    630c: 4c df 61     	jmp	$61df <navi+0xb35>
    630f: c9 9d        	cmp	#$9d
    6311: d0 03        	bne	$6316 <navi+0xc6c>
    6313: 4c df 61     	jmp	$61df <navi+0xb35>
    6316: a6 16        	ldx	$16                     ; 0x2016 <next_line+0x1>
    6318: c9 03        	cmp	#$3
    631a: d0 03        	bne	$631f <navi+0xc75>
    631c: 4c b3 61     	jmp	$61b3 <navi+0xb09>
    631f: c9 11        	cmp	#$11
    6321: d0 03        	bne	$6326 <navi+0xc7c>
    6323: 4c ab 61     	jmp	$61ab <navi+0xb01>
    6326: c9 1b        	cmp	#$1b
    6328: d0 03        	bne	$632d <navi+0xc83>
    632a: 4c b3 61     	jmp	$61b3 <navi+0xb09>
    632d: c9 1d        	cmp	#$1d
    632f: d0 03        	bne	$6334 <navi+0xc8a>
    6331: 4c ab 61     	jmp	$61ab <navi+0xb01>
    6334: c9 20        	cmp	#$20
    6336: d0 03        	bne	$633b <navi+0xc91>
    6338: 4c ee 61     	jmp	$61ee <navi+0xb44>
    633b: c9 0d        	cmp	#$d
    633d: d0 03        	bne	$6342 <navi+0xc98>
    633f: 4c 04 74     	jmp	$7404 <donehypclosefile9+0xee4>
    6342: 20 d7 86     	jsr	$86d7 <sidbong>
    6345: a2 01        	ldx	#$1
    6347: 4c f9 61     	jmp	$61f9 <navi+0xb4f>
    634a: 38           	sec
    634b: 5a           	phy
    634c: a0 19        	ldy	#$19
    634e: b1 02        	lda	($2),y                  ; 0x2002 <__heap_default_limit+0x1002>
    6350: 7a           	ply
    6351: e9 1f        	sbc	#$1f
    6353: 85 04        	sta	$4                      ; 0x2004 <__heap_default_limit+0x1004>
    6355: a5 1b        	lda	$1b                     ; 0x201b <next_line+0x6>
    6357: e9 00        	sbc	#$0
    6359: f0 03        	beq	$635e <navi+0xcb4>
    635b: 4c f3 63     	jmp	$63f3 <navi+0xd49>
    635e: a6 04        	ldx	$4                      ; 0x2004 <__heap_default_limit+0x1004>
    6360: e0 02        	cpx	#$2
    6362: b0 03        	bcs	$6367 <navi+0xcbd>
    6364: 4c e5 5f     	jmp	$5fe5 <navi+0x93b>
    6367: 4c fa 63     	jmp	$63fa <navi+0xd50>
    636a: a4 08        	ldy	$8                      ; 0x2008 <__heap_default_limit+0x1008>
    636c: c0 00        	cpy	#$0
    636e: a5 07        	lda	$7                      ; 0x2007 <__heap_default_limit+0x1007>
    6370: b0 03        	bcs	$6375 <navi+0xccb>
    6372: 4c 68 60     	jmp	$6068 <navi+0x9be>
    6375: a8           	tay
    6376: a5 1b        	lda	$1b                     ; 0x201b <next_line+0x6>
    6378: e0 01        	cpx	#$1
    637a: e9 01        	sbc	#$1
    637c: f0 03        	beq	$6381 <navi+0xcd7>
    637e: 4c 48 64     	jmp	$6448 <navi+0xd9e>
    6381: 98           	tya
    6382: c0 0a        	cpy	#$a
    6384: b0 03        	bcs	$6389 <navi+0xcdf>
    6386: 4c 50 64     	jmp	$6450 <navi+0xda6>
    6389: a5 1b        	lda	$1b                     ; 0x201b <next_line+0x6>
    638b: e0 01        	cpx	#$1
    638d: e9 02        	sbc	#$2
    638f: f0 03        	beq	$6394 <navi+0xcea>
    6391: 4c df 66     	jmp	$66df <donehypclosefile9+0x1bf>
    6394: 98           	tya
    6395: c9 0a        	cmp	#$a
    6397: b0 03        	bcs	$639c <navi+0xcf2>
    6399: 4c e7 66     	jmp	$66e7 <donehypclosefile9+0x1c7>
    639c: 38           	sec
    639d: a0 19        	ldy	#$19
    639f: b1 02        	lda	($2),y                  ; 0x2002 <__heap_default_limit+0x1002>
    63a1: e9 1b        	sbc	#$1b
    63a3: aa           	tax
    63a4: a5 1b        	lda	$1b                     ; 0x201b <next_line+0x6>
    63a6: e9 00        	sbc	#$0
    63a8: f0 03        	beq	$63ad <navi+0xd03>
    63aa: 4c 73 6b     	jmp	$6b73 <donehypclosefile9+0x653>
    63ad: 8a           	txa
    63ae: e0 06        	cpx	#$6
    63b0: b0 03        	bcs	$63b5 <navi+0xd0b>
    63b2: 4c 7b 6b     	jmp	$6b7b <donehypclosefile9+0x65b>
    63b5: 38           	sec
    63b6: b1 02        	lda	($2),y                  ; 0x2002 <__heap_default_limit+0x1002>
    63b8: e9 f4        	sbc	#$f4
    63ba: aa           	tax
    63bb: a5 1b        	lda	$1b                     ; 0x201b <next_line+0x6>
    63bd: e9 08        	sbc	#$8
    63bf: f0 03        	beq	$63c4 <navi+0xd1a>
    63c1: 4c 51 6e     	jmp	$6e51 <donehypclosefile9+0x931>
    63c4: 8a           	txa
    63c5: e0 07        	cpx	#$7
    63c7: b0 03        	bcs	$63cc <navi+0xd22>
    63c9: 4c 59 6e     	jmp	$6e59 <donehypclosefile9+0x939>
    63cc: a5 1b        	lda	$1b                     ; 0x201b <next_line+0x6>
    63ce: d0 09        	bne	$63d9 <navi+0xd2f>
    63d0: b1 02        	lda	($2),y                  ; 0x2002 <__heap_default_limit+0x1002>
    63d2: c9 03        	cmp	#$3
    63d4: d0 03        	bne	$63d9 <navi+0xd2f>
    63d6: 4c 80 6b     	jmp	$6b80 <donehypclosefile9+0x660>
    63d9: a5 1b        	lda	$1b                     ; 0x201b <next_line+0x6>
    63db: d0 09        	bne	$63e6 <navi+0xd3c>
    63dd: b1 02        	lda	($2),y                  ; 0x2002 <__heap_default_limit+0x1002>
    63df: c9 09        	cmp	#$9
    63e1: d0 03        	bne	$63e6 <navi+0xd3c>
    63e3: 4c 08 7e     	jmp	$7e08 <donehypclosedir16+0x160>
    63e6: b1 02        	lda	($2),y                  ; 0x2002 <__heap_default_limit+0x1002>
    63e8: aa           	tax
    63e9: a5 1b        	lda	$1b                     ; 0x201b <next_line+0x6>
    63eb: f0 03        	beq	$63f0 <navi+0xd46>
    63ed: 4c da 75     	jmp	$75da <donehypd81dosattach10+0x103>
    63f0: 4c f4 74     	jmp	$74f4 <donehypd81dosattach10+0x1d>
    63f3: c9 00        	cmp	#$0
    63f5: b0 03        	bcs	$63fa <navi+0xd50>
    63f7: 4c e5 5f     	jmp	$5fe5 <navi+0x93b>
    63fa: a5 1b        	lda	$1b                     ; 0x201b <next_line+0x6>
    63fc: d0 0d        	bne	$640b <navi+0xd61>
    63fe: 5a           	phy
    63ff: a0 19        	ldy	#$19
    6401: b1 02        	lda	($2),y                  ; 0x2002 <__heap_default_limit+0x1002>
    6403: 7a           	ply
    6404: c9 03        	cmp	#$3
    6406: d0 03        	bne	$640b <navi+0xd61>
    6408: 4c 43 64     	jmp	$6443 <navi+0xd99>
    640b: a6 1b        	ldx	$1b                     ; 0x201b <next_line+0x6>
    640d: e0 04        	cpx	#$4
    640f: d0 0d        	bne	$641e <navi+0xd74>
    6411: 5a           	phy
    6412: a0 19        	ldy	#$19
    6414: b1 02        	lda	($2),y                  ; 0x2002 <__heap_default_limit+0x1002>
    6416: 7a           	ply
    6417: c9 12        	cmp	#$12
    6419: d0 03        	bne	$641e <navi+0xd74>
    641b: 4c e5 5f     	jmp	$5fe5 <navi+0x93b>
    641e: a5 1b        	lda	$1b                     ; 0x201b <next_line+0x6>
    6420: d0 0d        	bne	$642f <navi+0xd85>
    6422: 5a           	phy
    6423: a0 19        	ldy	#$19
    6425: b1 02        	lda	($2),y                  ; 0x2002 <__heap_default_limit+0x1002>
    6427: 7a           	ply
    6428: c9 11        	cmp	#$11
    642a: d0 03        	bne	$642f <navi+0xd85>
    642c: 4c e5 5f     	jmp	$5fe5 <navi+0x93b>
    642f: a5 1b        	lda	$1b                     ; 0x201b <next_line+0x6>
    6431: f0 03        	beq	$6436 <navi+0xd8c>
    6433: 4c fd 67     	jmp	$67fd <donehypclosefile9+0x2dd>
    6436: 5a           	phy
    6437: a0 19        	ldy	#$19
    6439: b1 02        	lda	($2),y                  ; 0x2002 <__heap_default_limit+0x1002>
    643b: 7a           	ply
    643c: c9 1b        	cmp	#$1b
    643e: f0 03        	beq	$6443 <navi+0xd99>
    6440: 4c fd 67     	jmp	$67fd <donehypclosefile9+0x2dd>
    6443: b2 1c        	lda	($1c),z                 ; 0x201c <next_line+0x7>
    6445: 4c 5e 6b     	jmp	$6b5e <donehypclosefile9+0x63e>
    6448: c9 00        	cmp	#$0
    644a: 98           	tya
    644b: 90 03        	bcc	$6450 <navi+0xda6>
    644d: 4c 89 63     	jmp	$6389 <navi+0xcdf>
    6450: 0a           	asl
    6451: aa           	tax
    6452: 7c 00 91     	jmp	($9100,x)               ; 0x9100 <__zp_data_load_start+0x70e9>
    6455: 84 19        	sty	$19                     ; 0x2019 <next_line+0x4>
    6457: a0 00        	ldy	#$0
    6459: 84 16        	sty	$16                     ; 0x2016 <next_line+0x1>
    645b: a0 1c        	ldy	#$1c
    645d: 84 17        	sty	$17                     ; 0x2017 <next_line+0x2>
    645f: a0 00        	ldy	#$0
    6461: 84 04        	sty	$4                      ; 0x2004 <__heap_default_limit+0x1004>
    6463: a0 1c        	ldy	#$1c
    6465: 84 05        	sty	$5                      ; 0x2005 <__heap_default_limit+0x1005>
    6467: a0 b2        	ldy	#$b2
    6469: 84 06        	sty	$6                      ; 0x2006 <__heap_default_limit+0x1006>
    646b: a0 99        	ldy	#$99
    646d: 84 07        	sty	$7                      ; 0x2007 <__heap_default_limit+0x1007>
    646f: a9 0b        	lda	#$b
    6471: 20 6c 90     	jsr	$906c <memcpy>
    6474: a2 0a        	ldx	#$a
    6476: 8a           	txa
    6477: a0 19        	ldy	#$19
    6479: 91 02        	sta	($2),y                  ; 0x2002 <__heap_default_limit+0x1002>
    647b: a2 00        	ldx	#$0
    647d: 86 04        	stx	$4                      ; 0x2004 <__heap_default_limit+0x1004>
    647f: a2 1c        	ldx	#$1c
    6481: 86 05        	stx	$5                      ; 0x2005 <__heap_default_limit+0x1005>
    6483: 20 9c 21     	jsr	$219c <hyppo_setname>
    6486: 18           	clc
    6487: a0 19        	ldy	#$19
    6489: b1 02        	lda	($2),y                  ; 0x2002 <__heap_default_limit+0x1002>
    648b: 69 06        	adc	#$6
    648d: a2 00        	ldx	#$0
    648f: 86 04        	stx	$4                      ; 0x2004 <__heap_default_limit+0x1004>
    6491: a2 1c        	ldx	#$1c
    6493: 86 05        	stx	$5                      ; 0x2005 <__heap_default_limit+0x1005>
    6495: 85 16        	sta	$16                     ; 0x2016 <next_line+0x1>
    6497: aa           	tax
    6498: a9 11        	lda	#$11
    649a: 20 c6 42     	jsr	$42c6 <mcputsxy>
    649d: a2 00        	ldx	#$0
    649f: a9 30        	lda	#$30
    64a1: 8d 40 d6     	sta	$d640                   ; 0xd640 <__heap_start+0x3646>
    64a4: b8           	clv
    64a5: 90 05        	bcc	$64ac <errhypfindfirst6>
    64a7: 85 04        	sta	$4                      ; 0x2004 <__heap_default_limit+0x1004>
    64a9: 4c ae 64     	jmp	$64ae <donehypfindfirst6>

000064ac <errhypfindfirst6>:
    64ac: 85 04        	sta	$4                      ; 0x2004 <__heap_default_limit+0x1004>

000064ae <donehypfindfirst6>:
    64ae: ea           	nop
    64af: a6 04        	ldx	$4                      ; 0x2004 <__heap_default_limit+0x1004>
    64b1: a0 1a        	ldy	#$1a
    64b3: 84 04        	sty	$4                      ; 0x2004 <__heap_default_limit+0x1004>
    64b5: a0 9a        	ldy	#$9a
    64b7: 84 05        	sty	$5                      ; 0x2005 <__heap_default_limit+0x1005>
    64b9: e0 88        	cpx	#$88
    64bb: d0 03        	bne	$64c0 <donehypfindfirst6+0x12>
    64bd: 4c 5b 65     	jmp	$655b <donehypclosefile9+0x3b>
    64c0: a9 18        	lda	#$18
    64c2: 8d 40 d6     	sta	$d640                   ; 0xd640 <__heap_start+0x3646>
    64c5: b8           	clv
    64c6: 90 05        	bcc	$64cd <errhypopenfile7>
    64c8: 85 04        	sta	$4                      ; 0x2004 <__heap_default_limit+0x1004>
    64ca: 4c cf 64     	jmp	$64cf <donehypopenfile7>

000064cd <errhypopenfile7>:
    64cd: 85 04        	sta	$4                      ; 0x2004 <__heap_default_limit+0x1004>

000064cf <donehypopenfile7>:
    64cf: ea           	nop
    64d0: a6 04        	ldx	$4                      ; 0x2004 <__heap_default_limit+0x1004>
    64d2: e0 84        	cpx	#$84
    64d4: f0 0d        	beq	$64e3 <donehypopenfile7+0x14>
    64d6: e0 86        	cpx	#$86
    64d8: d0 12        	bne	$64ec <donehypopenfile7+0x1d>
    64da: a2 2a        	ldx	#$2a
    64dc: 86 04        	stx	$4                      ; 0x2004 <__heap_default_limit+0x1004>
    64de: a2 99        	ldx	#$99
    64e0: 4c 59 65     	jmp	$6559 <donehypclosefile9+0x39>
    64e3: a2 bd        	ldx	#$bd
    64e5: 86 04        	stx	$4                      ; 0x2004 <__heap_default_limit+0x1004>
    64e7: a2 99        	ldx	#$99
    64e9: 4c 59 65     	jmp	$6559 <donehypclosefile9+0x39>
    64ec: a9 1a        	lda	#$1a
    64ee: 8d 40 d6     	sta	$d640                   ; 0xd640 <__heap_start+0x3646>
    64f1: b8           	clv
    64f2: 90 05        	bcc	$64f9 <errhypreadfile8>
    64f4: 85 04        	sta	$4                      ; 0x2004 <__heap_default_limit+0x1004>
    64f6: 4c fd 64     	jmp	$64fd <donehypreadfile8>

000064f9 <errhypreadfile8>:
    64f9: a9 ff        	lda	#$ff
    64fb: 85 04        	sta	$4                      ; 0x2004 <__heap_default_limit+0x1004>

000064fd <donehypreadfile8>:
    64fd: ea           	nop
    64fe: a4 04        	ldy	$4                      ; 0x2004 <__heap_default_limit+0x1004>
    6500: a9 6e        	lda	#$6e
    6502: 85 04        	sta	$4                      ; 0x2004 <__heap_default_limit+0x1004>
    6504: a9 9b        	lda	#$9b
    6506: 85 05        	sta	$5                      ; 0x2005 <__heap_default_limit+0x1005>
    6508: c0 89        	cpy	#$89
    650a: d0 03        	bne	$650f <donehypreadfile8+0x12>
    650c: 4c 5b 65     	jmp	$655b <donehypclosefile9+0x3b>
    650f: a9 20        	lda	#$20
    6511: 8d 40 d6     	sta	$d640                   ; 0xd640 <__heap_start+0x3646>
    6514: b8           	clv
    6515: 90 05        	bcc	$651c <errhypclosefile9>
    6517: 85 04        	sta	$4                      ; 0x2004 <__heap_default_limit+0x1004>
    6519: 4c 20 65     	jmp	$6520 <donehypclosefile9>

0000651c <errhypclosefile9>:
    651c: a9 ff        	lda	#$ff
    651e: 85 04        	sta	$4                      ; 0x2004 <__heap_default_limit+0x1004>

00006520 <donehypclosefile9>:
    6520: ea           	nop
    6521: 64 04        	stz	$4                      ; 0x2004 <__heap_default_limit+0x1004>
    6523: 64 05        	stz	$5                      ; 0x2005 <__heap_default_limit+0x1005>
    6525: 64 06        	stz	$6                      ; 0x2006 <__heap_default_limit+0x1006>
    6527: 64 07        	stz	$7                      ; 0x2007 <__heap_default_limit+0x1007>
    6529: a2 01        	ldx	#$1
    652b: 86 08        	stx	$8                      ; 0x2008 <__heap_default_limit+0x1008>
    652d: a2 19        	ldx	#$19
    652f: a9 00        	lda	#$0
    6531: 20 0c 8a     	jsr	$8a0c <lfill>
    6534: a2 fd        	ldx	#$fd
    6536: 86 04        	stx	$4                      ; 0x2004 <__heap_default_limit+0x1004>
    6538: a2 0f        	ldx	#$f
    653a: 86 05        	stx	$5                      ; 0x2005 <__heap_default_limit+0x1005>
    653c: 64 06        	stz	$6                      ; 0x2006 <__heap_default_limit+0x1006>
    653e: a2 19        	ldx	#$19
    6540: 86 07        	stx	$7                      ; 0x2007 <__heap_default_limit+0x1007>
    6542: 64 08        	stz	$8                      ; 0x2008 <__heap_default_limit+0x1008>
    6544: 64 09        	stz	$9                      ; 0x2009 <__heap_default_limit+0x1009>
    6546: 64 0a        	stz	$a                      ; 0x200a <__heap_default_limit+0x100a>
    6548: a2 01        	ldx	#$1
    654a: 86 0b        	stx	$b                      ; 0x200b <__heap_default_limit+0x100b>
    654c: a2 6e        	ldx	#$6e
    654e: a9 16        	lda	#$16
    6550: 20 a5 89     	jsr	$89a5 <lcopy>
    6553: a2 00        	ldx	#$0
    6555: 86 04        	stx	$4                      ; 0x2004 <__heap_default_limit+0x1004>
    6557: a2 19        	ldx	#$19
    6559: 86 05        	stx	$5                      ; 0x2005 <__heap_default_limit+0x1005>
    655b: a6 16        	ldx	$16                     ; 0x2016 <next_line+0x1>
    655d: a9 1e        	lda	#$1e
    655f: 20 c6 42     	jsr	$42c6 <mcputsxy>
    6562: a4 19        	ldy	$19                     ; 0x2019 <next_line+0x4>
    6564: c8           	iny
    6565: a2 00        	ldx	#$0
    6567: c0 0a        	cpy	#$a
    6569: d0 03        	bne	$656e <donehypclosefile9+0x4e>
    656b: 4c 55 64     	jmp	$6455 <navi+0xdab>
    656e: c0 0b        	cpy	#$b
    6570: d0 03        	bne	$6575 <donehypclosefile9+0x55>
    6572: 4c 4b 6c     	jmp	$6c4b <donehypclosefile9+0x72b>
    6575: a9 00        	lda	#$0
    6577: 85 16        	sta	$16                     ; 0x2016 <next_line+0x1>
    6579: a9 1c        	lda	#$1c
    657b: 85 17        	sta	$17                     ; 0x2017 <next_line+0x2>
    657d: a9 00        	lda	#$0
    657f: 85 04        	sta	$4                      ; 0x2004 <__heap_default_limit+0x1004>
    6581: a9 1c        	lda	#$1c
    6583: 85 05        	sta	$5                      ; 0x2005 <__heap_default_limit+0x1005>
    6585: a9 41        	lda	#$41
    6587: 85 06        	sta	$6                      ; 0x2006 <__heap_default_limit+0x1006>
    6589: a9 9a        	lda	#$9a
    658b: 85 07        	sta	$7                      ; 0x2007 <__heap_default_limit+0x1007>
    658d: a9 0c        	lda	#$c
    658f: 84 18        	sty	$18                     ; 0x2018 <next_line+0x3>
    6591: 20 6c 90     	jsr	$906c <memcpy>
    6594: 18           	clc
    6595: a5 18        	lda	$18                     ; 0x2018 <next_line+0x3>
    6597: 69 30        	adc	#$30
    6599: 8d 06 1c     	sta	$1c06                   ; 0x1c06 <__heap_default_limit+0xc06>
    659c: a6 18        	ldx	$18                     ; 0x2018 <next_line+0x3>
    659e: 86 19        	stx	$19                     ; 0x2019 <next_line+0x4>
    65a0: a5 18        	lda	$18                     ; 0x2018 <next_line+0x3>
    65a2: 4c 77 64     	jmp	$6477 <navi+0xdcd>
    65a5: a2 de        	ldx	#$de
    65a7: 86 04        	stx	$4                      ; 0x2004 <__heap_default_limit+0x1004>
    65a9: a2 99        	ldx	#$99
    65ab: 86 05        	stx	$5                      ; 0x2005 <__heap_default_limit+0x1005>
    65ad: 20 e9 87     	jsr	$87e9 <cputs>
    65b0: 4c 6b 5d     	jmp	$5d6b <navi+0x6c1>
    65b3: a9 01        	lda	#$1
    65b5: a4 16        	ldy	$16                     ; 0x2016 <next_line+0x1>
    65b7: 31 18        	and	($18),y                 ; 0x2018 <next_line+0x3>
    65b9: d0 03        	bne	$65be <donehypclosefile9+0x9e>
    65bb: 4c 51 5b     	jmp	$5b51 <navi+0x4a7>
    65be: a9 20        	lda	#$20
    65c0: 20 3f 87     	jsr	$873f <cputc>
    65c3: a0 0f        	ldy	#$f
    65c5: b1 02        	lda	($2),y                  ; 0x2002 <__heap_default_limit+0x1002>
    65c7: f0 05        	beq	$65ce <donehypclosefile9+0xae>
    65c9: a9 1e        	lda	#$1e
    65cb: 20 3f 87     	jsr	$873f <cputc>
    65ce: a0 0a        	ldy	#$a
    65d0: b1 02        	lda	($2),y                  ; 0x2002 <__heap_default_limit+0x1002>
    65d2: 85 04        	sta	$4                      ; 0x2004 <__heap_default_limit+0x1004>
    65d4: a0 0f        	ldy	#$f
    65d6: b1 02        	lda	($2),y                  ; 0x2002 <__heap_default_limit+0x1002>
    65d8: c5 04        	cmp	$4                      ; 0x2004 <__heap_default_limit+0x1004>
    65da: 90 03        	bcc	$65df <donehypclosefile9+0xbf>
    65dc: 4c 51 5b     	jmp	$5b51 <navi+0x4a7>
    65df: a9 16        	lda	#$16
    65e1: 20 3f 87     	jsr	$873f <cputc>
    65e4: 4c 51 5b     	jmp	$5b51 <navi+0x4a7>
    65e7: 48           	pha
    65e8: a0 13        	ldy	#$13
    65ea: b1 02        	lda	($2),y                  ; 0x2002 <__heap_default_limit+0x1002>
    65ec: 85 04        	sta	$4                      ; 0x2004 <__heap_default_limit+0x1004>
    65ee: 68           	pla
    65ef: a6 17        	ldx	$17                     ; 0x2017 <next_line+0x2>
    65f1: e4 04        	cpx	$4                      ; 0x2004 <__heap_default_limit+0x1004>
    65f3: f0 03        	beq	$65f8 <donehypclosefile9+0xd8>
    65f5: 4c 21 5d     	jmp	$5d21 <navi+0x677>
    65f8: 09 20        	ora	#$20
    65fa: 4c 23 5d     	jmp	$5d23 <navi+0x679>
    65fd: a6 1a        	ldx	$1a                     ; 0x201a <next_line+0x5>
    65ff: 86 04        	stx	$4                      ; 0x2004 <__heap_default_limit+0x1004>
    6601: a6 1b        	ldx	$1b                     ; 0x201b <next_line+0x6>
    6603: a0 13        	ldy	#$13
    6605: b1 02        	lda	($2),y                  ; 0x2002 <__heap_default_limit+0x1002>
    6607: 85 16        	sta	$16                     ; 0x2016 <next_line+0x1>
    6609: 20 47 35     	jsr	$3547 <getdirententry>
    660c: a6 04        	ldx	$4                      ; 0x2004 <__heap_default_limit+0x1004>
    660e: 86 1c        	stx	$1c                     ; 0x201c <next_line+0x7>
    6610: a6 05        	ldx	$5                      ; 0x2005 <__heap_default_limit+0x1005>
    6612: 86 1d        	stx	$1d                     ; 0x201d <next_line+0x8>
    6614: a2 f2        	ldx	#$f2
    6616: 86 04        	stx	$4                      ; 0x2004 <__heap_default_limit+0x1004>
    6618: a2 9a        	ldx	#$9a
    661a: 86 05        	stx	$5                      ; 0x2005 <__heap_default_limit+0x1005>
    661c: a2 de        	ldx	#$de
    661e: 86 06        	stx	$6                      ; 0x2006 <__heap_default_limit+0x1006>
    6620: a2 94        	ldx	#$94
    6622: 86 07        	stx	$7                      ; 0x2007 <__heap_default_limit+0x1007>
    6624: a9 14        	lda	#$14
    6626: 20 15 46     	jsr	$4615 <progress>
    6629: a5 16        	lda	$16                     ; 0x2016 <next_line+0x1>
    662b: 20 4e 26     	jsr	$264e <GetBAM>
    662e: a2 52        	ldx	#$52
    6630: 86 04        	stx	$4                      ; 0x2004 <__heap_default_limit+0x1004>
    6632: a2 99        	ldx	#$99
    6634: 86 05        	stx	$5                      ; 0x2005 <__heap_default_limit+0x1005>
    6636: a5 04        	lda	$4                      ; 0x2004 <__heap_default_limit+0x1004>
    6638: a0 19        	ldy	#$19
    663a: 91 02        	sta	($2),y                  ; 0x2002 <__heap_default_limit+0x1002>
    663c: a5 05        	lda	$5                      ; 0x2005 <__heap_default_limit+0x1005>
    663e: c8           	iny
    663f: 91 02        	sta	($2),y                  ; 0x2002 <__heap_default_limit+0x1002>
    6641: 88           	dey
    6642: b1 02        	lda	($2),y                  ; 0x2002 <__heap_default_limit+0x1002>
    6644: 85 04        	sta	$4                      ; 0x2004 <__heap_default_limit+0x1004>
    6646: c8           	iny
    6647: b1 02        	lda	($2),y                  ; 0x2002 <__heap_default_limit+0x1002>
    6649: 85 05        	sta	$5                      ; 0x2005 <__heap_default_limit+0x1005>
    664b: a2 18        	ldx	#$18
    664d: 86 06        	stx	$6                      ; 0x2006 <__heap_default_limit+0x1006>
    664f: a2 98        	ldx	#$98
    6651: 86 07        	stx	$7                      ; 0x2007 <__heap_default_limit+0x1007>
    6653: a9 28        	lda	#$28
    6655: 20 15 46     	jsr	$4615 <progress>
    6658: b2 1e        	lda	($1e),z                 ; 0x201e <next_line+0x9>
    665a: 85 06        	sta	$6                      ; 0x2006 <__heap_default_limit+0x1006>
    665c: a0 47        	ldy	#$47
    665e: b1 1e        	lda	($1e),y                 ; 0x201e <next_line+0x9>
    6660: 85 04        	sta	$4                      ; 0x2004 <__heap_default_limit+0x1004>
    6662: a6 1b        	ldx	$1b                     ; 0x201b <next_line+0x6>
    6664: 86 05        	stx	$5                      ; 0x2005 <__heap_default_limit+0x1005>
    6666: a6 16        	ldx	$16                     ; 0x2016 <next_line+0x1>
    6668: a5 06        	lda	$6                      ; 0x2006 <__heap_default_limit+0x1006>
    666a: 20 a2 3a     	jsr	$3aa2 <deletedirententry>
    666d: a0 19        	ldy	#$19
    666f: b1 02        	lda	($2),y                  ; 0x2002 <__heap_default_limit+0x1002>
    6671: 85 04        	sta	$4                      ; 0x2004 <__heap_default_limit+0x1004>
    6673: c8           	iny
    6674: b1 02        	lda	($2),y                  ; 0x2002 <__heap_default_limit+0x1002>
    6676: 85 05        	sta	$5                      ; 0x2005 <__heap_default_limit+0x1005>
    6678: a2 89        	ldx	#$89
    667a: 86 06        	stx	$6                      ; 0x2006 <__heap_default_limit+0x1006>
    667c: a2 92        	ldx	#$92
    667e: 86 07        	stx	$7                      ; 0x2007 <__heap_default_limit+0x1007>
    6680: a9 50        	lda	#$50
    6682: 20 15 46     	jsr	$4615 <progress>
    6685: b2 1e        	lda	($1e),z                 ; 0x201e <next_line+0x9>
    6687: 85 05        	sta	$5                      ; 0x2005 <__heap_default_limit+0x1005>
    6689: a0 47        	ldy	#$47
    668b: b1 1e        	lda	($1e),y                 ; 0x201e <next_line+0x9>
    668d: 85 04        	sta	$4                      ; 0x2004 <__heap_default_limit+0x1004>
    668f: a6 16        	ldx	$16                     ; 0x2016 <next_line+0x1>
    6691: a5 05        	lda	$5                      ; 0x2005 <__heap_default_limit+0x1005>
    6693: 20 87 26     	jsr	$2687 <PutBAM>
    6696: a6 1b        	ldx	$1b                     ; 0x201b <next_line+0x6>
    6698: 86 04        	stx	$4                      ; 0x2004 <__heap_default_limit+0x1004>
    669a: a6 1a        	ldx	$1a                     ; 0x201a <next_line+0x5>
    669c: 86 05        	stx	$5                      ; 0x2005 <__heap_default_limit+0x1005>
    669e: a5 05        	lda	$5                      ; 0x2005 <__heap_default_limit+0x1005>
    66a0: f0 29        	beq	$66cb <donehypclosefile9+0x1ab>
    66a2: a5 17        	lda	$17                     ; 0x2017 <next_line+0x2>
    66a4: 18           	clc
    66a5: 65 04        	adc	$4                      ; 0x2004 <__heap_default_limit+0x1004>
    66a7: 85 04        	sta	$4                      ; 0x2004 <__heap_default_limit+0x1004>
    66a9: a5 18        	lda	$18                     ; 0x2018 <next_line+0x3>
    66ab: 65 05        	adc	$5                      ; 0x2005 <__heap_default_limit+0x1005>
    66ad: a2 ff        	ldx	#$ff
    66af: c6 1b        	dec	$1b                     ; 0x201b <next_line+0x6>
    66b1: e4 1b        	cpx	$1b                     ; 0x201b <next_line+0x6>
    66b3: d0 02        	bne	$66b7 <donehypclosefile9+0x197>
    66b5: c6 1a        	dec	$1a                     ; 0x201a <next_line+0x5>
    66b7: 85 05        	sta	$5                      ; 0x2005 <__heap_default_limit+0x1005>
    66b9: a9 01        	lda	#$1
    66bb: 32 04        	and	($4),z                  ; 0x2004 <__heap_default_limit+0x1004>
    66bd: a6 1b        	ldx	$1b                     ; 0x201b <next_line+0x6>
    66bf: 86 04        	stx	$4                      ; 0x2004 <__heap_default_limit+0x1004>
    66c1: a6 1a        	ldx	$1a                     ; 0x201a <next_line+0x5>
    66c3: 86 05        	stx	$5                      ; 0x2005 <__heap_default_limit+0x1005>
    66c5: aa           	tax
    66c6: f0 d6        	beq	$669e <donehypclosefile9+0x17e>
    66c8: 4c fd 65     	jmp	$65fd <donehypclosefile9+0xdd>
    66cb: a5 04        	lda	$4                      ; 0x2004 <__heap_default_limit+0x1004>
    66cd: d0 d3        	bne	$66a2 <donehypclosefile9+0x182>
    66cf: a5 1c        	lda	$1c                     ; 0x201c <next_line+0x7>
    66d1: a0 08        	ldy	#$8
    66d3: 91 02        	sta	($2),y                  ; 0x2002 <__heap_default_limit+0x1002>
    66d5: a5 1d        	lda	$1d                     ; 0x201d <next_line+0x8>
    66d7: c8           	iny
    66d8: 91 02        	sta	($2),y                  ; 0x2002 <__heap_default_limit+0x1002>
    66da: b2 1e        	lda	($1e),z                 ; 0x201e <next_line+0x9>
    66dc: 4c 5e 6b     	jmp	$6b5e <donehypclosefile9+0x63e>
    66df: c9 00        	cmp	#$0
    66e1: 98           	tya
    66e2: 90 03        	bcc	$66e7 <donehypclosefile9+0x1c7>
    66e4: 4c 9c 63     	jmp	$639c <navi+0xcf2>
    66e7: 0a           	asl
    66e8: aa           	tax
    66e9: 7c 14 91     	jmp	($9114,x)               ; 0x9114 <__zp_data_load_start+0x70fd>
    66ec: a0 01        	ldy	#$1
    66ee: 5a           	phy
    66ef: a0 17        	ldy	#$17
    66f1: b1 02        	lda	($2),y                  ; 0x2002 <__heap_default_limit+0x1002>
    66f3: 85 1e        	sta	$1e                     ; 0x201e <next_line+0x9>
    66f5: c8           	iny
    66f6: b1 02        	lda	($2),y                  ; 0x2002 <__heap_default_limit+0x1002>
    66f8: 7a           	ply
    66f9: 85 1f        	sta	$1f                     ; 0x201f <next_line+0xa>
    66fb: b1 1e        	lda	($1e),y                 ; 0x201e <next_line+0x9>
    66fd: 64 04        	stz	$4                      ; 0x2004 <__heap_default_limit+0x1004>
    66ff: aa           	tax
    6700: a0 13        	ldy	#$13
    6702: b1 02        	lda	($2),y                  ; 0x2002 <__heap_default_limit+0x1002>
    6704: 20 47 35     	jsr	$3547 <getdirententry>
    6707: a6 04        	ldx	$4                      ; 0x2004 <__heap_default_limit+0x1004>
    6709: 86 1c        	stx	$1c                     ; 0x201c <next_line+0x7>
    670b: a6 05        	ldx	$5                      ; 0x2005 <__heap_default_limit+0x1005>
    670d: 86 1d        	stx	$1d                     ; 0x201d <next_line+0x8>
    670f: 38           	sec
    6710: a5 21        	lda	$21                     ; 0x2021 <_start>
    6712: e5 1a        	sbc	$1a                     ; 0x201a <next_line+0x5>
    6714: 85 1a        	sta	$1a                     ; 0x201a <next_line+0x5>
    6716: 85 18        	sta	$18                     ; 0x2018 <next_line+0x3>
    6718: a5 20        	lda	$20                     ; 0x2020 <next_line+0xb>
    671a: e5 19        	sbc	$19                     ; 0x2019 <next_line+0x4>
    671c: 85 19        	sta	$19                     ; 0x2019 <next_line+0x4>
    671e: 85 04        	sta	$4                      ; 0x2004 <__heap_default_limit+0x1004>
    6720: a9 8b        	lda	#$8b
    6722: 18           	clc
    6723: 65 18        	adc	$18                     ; 0x2018 <next_line+0x3>
    6725: 85 20        	sta	$20                     ; 0x2020 <next_line+0xb>
    6727: a9 9d        	lda	#$9d
    6729: 48           	pha
    672a: a5 04        	lda	$4                      ; 0x2004 <__heap_default_limit+0x1004>
    672c: a0 12        	ldy	#$12
    672e: 91 02        	sta	($2),y                  ; 0x2002 <__heap_default_limit+0x1002>
    6730: 68           	pla
    6731: 65 04        	adc	$4                      ; 0x2004 <__heap_default_limit+0x1004>
    6733: 85 21        	sta	$21                     ; 0x2021 <_start>
    6735: a0 00        	ldy	#$0
    6737: a2 00        	ldx	#$0
    6739: 4c 83 67     	jmp	$6783 <donehypclosefile9+0x263>
    673c: 84 16        	sty	$16                     ; 0x2016 <next_line+0x1>
    673e: a9 01        	lda	#$1
    6740: 31 20        	and	($20),y                 ; 0x2020 <next_line+0xb>
    6742: d0 03        	bne	$6747 <donehypclosefile9+0x227>
    6744: 4c 7f 67     	jmp	$677f <donehypclosefile9+0x25f>
    6747: 86 17        	stx	$17                     ; 0x2017 <next_line+0x2>
    6749: a9 8b        	lda	#$8b
    674b: 18           	clc
    674c: 65 1a        	adc	$1a                     ; 0x201a <next_line+0x5>
    674e: 85 04        	sta	$4                      ; 0x2004 <__heap_default_limit+0x1004>
    6750: a9 9d        	lda	#$9d
    6752: 65 19        	adc	$19                     ; 0x2019 <next_line+0x4>
    6754: 85 05        	sta	$5                      ; 0x2005 <__heap_default_limit+0x1005>
    6756: a0 01        	ldy	#$1
    6758: b1 1e        	lda	($1e),y                 ; 0x201e <next_line+0x9>
    675a: a8           	tay
    675b: a9 01        	lda	#$1
    675d: 31 04        	and	($4),y                  ; 0x2004 <__heap_default_limit+0x1004>
    675f: 29 01        	and	#$1
    6761: d0 06        	bne	$6769 <donehypclosefile9+0x249>
    6763: a0 01        	ldy	#$1
    6765: a5 16        	lda	$16                     ; 0x2016 <next_line+0x1>
    6767: 91 1e        	sta	($1e),y                 ; 0x201e <next_line+0x9>
    6769: 64 04        	stz	$4                      ; 0x2004 <__heap_default_limit+0x1004>
    676b: a6 16        	ldx	$16                     ; 0x2016 <next_line+0x1>
    676d: a0 13        	ldy	#$13
    676f: b1 02        	lda	($2),y                  ; 0x2002 <__heap_default_limit+0x1002>
    6771: 20 47 35     	jsr	$3547 <getdirententry>
    6774: a6 04        	ldx	$4                      ; 0x2004 <__heap_default_limit+0x1004>
    6776: 86 1c        	stx	$1c                     ; 0x201c <next_line+0x7>
    6778: a6 05        	ldx	$5                      ; 0x2005 <__heap_default_limit+0x1005>
    677a: 86 1d        	stx	$1d                     ; 0x201d <next_line+0x8>
    677c: a6 17        	ldx	$17                     ; 0x2017 <next_line+0x2>
    677e: e8           	inx
    677f: e6 16        	inc	$16                     ; 0x2016 <next_line+0x1>
    6781: a4 16        	ldy	$16                     ; 0x2016 <next_line+0x1>
    6783: c0 f8        	cpy	#$f8
    6785: f0 03        	beq	$678a <donehypclosefile9+0x26a>
    6787: 4c 3c 67     	jmp	$673c <donehypclosefile9+0x21c>
    678a: e0 01        	cpx	#$1
    678c: f0 1e        	beq	$67ac <donehypclosefile9+0x28c>
    678e: 8a           	txa
    678f: f0 03        	beq	$6794 <donehypclosefile9+0x274>
    6791: 4c f1 68     	jmp	$68f1 <donehypclosefile9+0x3d1>
    6794: a9 8b        	lda	#$8b
    6796: 18           	clc
    6797: 65 1a        	adc	$1a                     ; 0x201a <next_line+0x5>
    6799: 85 04        	sta	$4                      ; 0x2004 <__heap_default_limit+0x1004>
    679b: a9 9d        	lda	#$9d
    679d: 65 19        	adc	$19                     ; 0x2019 <next_line+0x4>
    679f: 85 05        	sta	$5                      ; 0x2005 <__heap_default_limit+0x1005>
    67a1: a0 01        	ldy	#$1
    67a3: b1 1e        	lda	($1e),y                 ; 0x201e <next_line+0x9>
    67a5: a8           	tay
    67a6: a9 01        	lda	#$1
    67a8: 51 04        	eor	($4),y                  ; 0x2004 <__heap_default_limit+0x1004>
    67aa: 91 04        	sta	($4),y                  ; 0x2004 <__heap_default_limit+0x1004>
    67ac: 18           	clc
    67ad: a0 14        	ldy	#$14
    67af: b1 02        	lda	($2),y                  ; 0x2002 <__heap_default_limit+0x1002>
    67b1: 69 4a        	adc	#$4a
    67b3: aa           	tax
    67b4: a0 16        	ldy	#$16
    67b6: b1 02        	lda	($2),y                  ; 0x2002 <__heap_default_limit+0x1002>
    67b8: 69 00        	adc	#$0
    67ba: 86 04        	stx	$4                      ; 0x2004 <__heap_default_limit+0x1004>
    67bc: 85 05        	sta	$5                      ; 0x2005 <__heap_default_limit+0x1005>
    67be: a5 1c        	lda	$1c                     ; 0x201c <next_line+0x7>
    67c0: 18           	clc
    67c1: 69 05        	adc	#$5
    67c3: 85 06        	sta	$6                      ; 0x2006 <__heap_default_limit+0x1006>
    67c5: a5 1d        	lda	$1d                     ; 0x201d <next_line+0x8>
    67c7: 69 00        	adc	#$0
    67c9: 85 07        	sta	$7                      ; 0x2007 <__heap_default_limit+0x1007>
    67cb: 20 96 8b     	jsr	$8b96 <strcpy>
    67ce: a0 02        	ldy	#$2
    67d0: b1 1c        	lda	($1c),y                 ; 0x201c <next_line+0x7>
    67d2: 85 06        	sta	$6                      ; 0x2006 <__heap_default_limit+0x1006>
    67d4: 29 0f        	and	#$f
    67d6: 85 07        	sta	$7                      ; 0x2007 <__heap_default_limit+0x1007>
    67d8: d0 0b        	bne	$67e5 <donehypclosefile9+0x2c5>
    67da: a9 01        	lda	#$1
    67dc: a0 46        	ldy	#$46
    67de: 31 1e        	and	($1e),y                 ; 0x201e <next_line+0x9>
    67e0: f0 03        	beq	$67e5 <donehypclosefile9+0x2c5>
    67e2: 4c 5e 6e     	jmp	$6e5e <donehypclosefile9+0x93e>
    67e5: a6 1b        	ldx	$1b                     ; 0x201b <next_line+0x6>
    67e7: e0 02        	cpx	#$2
    67e9: f0 03        	beq	$67ee <donehypclosefile9+0x2ce>
    67eb: 4c 22 69     	jmp	$6922 <donehypclosefile9+0x402>
    67ee: a0 19        	ldy	#$19
    67f0: b1 02        	lda	($2),y                  ; 0x2002 <__heap_default_limit+0x1002>
    67f2: a8           	tay
    67f3: c9 f6        	cmp	#$f6
    67f5: f0 03        	beq	$67fa <donehypclosefile9+0x2da>
    67f7: 4c 27 69     	jmp	$6927 <donehypclosefile9+0x407>
    67fa: 4c 3f 69     	jmp	$693f <donehypclosefile9+0x41f>
    67fd: a5 1b        	lda	$1b                     ; 0x201b <next_line+0x6>
    67ff: d0 0d        	bne	$680e <donehypclosefile9+0x2ee>
    6801: 5a           	phy
    6802: a0 19        	ldy	#$19
    6804: b1 02        	lda	($2),y                  ; 0x2002 <__heap_default_limit+0x1002>
    6806: 7a           	ply
    6807: c9 91        	cmp	#$91
    6809: d0 03        	bne	$680e <donehypclosefile9+0x2ee>
    680b: 4c e5 5f     	jmp	$5fe5 <navi+0x93b>
    680e: a5 1b        	lda	$1b                     ; 0x201b <next_line+0x6>
    6810: d0 0d        	bne	$681f <donehypclosefile9+0x2ff>
    6812: 5a           	phy
    6813: a0 19        	ldy	#$19
    6815: b1 02        	lda	($2),y                  ; 0x2002 <__heap_default_limit+0x1002>
    6817: 7a           	ply
    6818: c9 f1        	cmp	#$f1
    681a: d0 03        	bne	$681f <donehypclosefile9+0x2ff>
    681c: 4c e5 5f     	jmp	$5fe5 <navi+0x93b>
    681f: a6 1b        	ldx	$1b                     ; 0x201b <next_line+0x6>
    6821: e0 01        	cpx	#$1
    6823: d0 0d        	bne	$6832 <donehypclosefile9+0x312>
    6825: 5a           	phy
    6826: a0 19        	ldy	#$19
    6828: b1 02        	lda	($2),y                  ; 0x2002 <__heap_default_limit+0x1002>
    682a: 7a           	ply
    682b: c9 91        	cmp	#$91
    682d: d0 03        	bne	$6832 <donehypclosefile9+0x312>
    682f: 4c e5 5f     	jmp	$5fe5 <navi+0x93b>
    6832: a6 1b        	ldx	$1b                     ; 0x201b <next_line+0x6>
    6834: e0 01        	cpx	#$1
    6836: d0 0d        	bne	$6845 <donehypclosefile9+0x325>
    6838: 5a           	phy
    6839: a0 19        	ldy	#$19
    683b: b1 02        	lda	($2),y                  ; 0x2002 <__heap_default_limit+0x1002>
    683d: 7a           	ply
    683e: c9 94        	cmp	#$94
    6840: d0 03        	bne	$6845 <donehypclosefile9+0x325>
    6842: 4c e5 5f     	jmp	$5fe5 <navi+0x93b>
    6845: a6 1b        	ldx	$1b                     ; 0x201b <next_line+0x6>
    6847: e0 01        	cpx	#$1
    6849: d0 0d        	bne	$6858 <donehypclosefile9+0x338>
    684b: 5a           	phy
    684c: a0 19        	ldy	#$19
    684e: b1 02        	lda	($2),y                  ; 0x2002 <__heap_default_limit+0x1002>
    6850: 7a           	ply
    6851: c9 f1        	cmp	#$f1
    6853: d0 03        	bne	$6858 <donehypclosefile9+0x338>
    6855: 4c e5 5f     	jmp	$5fe5 <navi+0x93b>
    6858: a6 1b        	ldx	$1b                     ; 0x201b <next_line+0x6>
    685a: e0 02        	cpx	#$2
    685c: d0 03        	bne	$6861 <donehypclosefile9+0x341>
    685e: 4c ef 73     	jmp	$73ef <donehypclosefile9+0xecf>
    6861: a6 1b        	ldx	$1b                     ; 0x201b <next_line+0x6>
    6863: e0 02        	cpx	#$2
    6865: d0 03        	bne	$686a <donehypclosefile9+0x34a>
    6867: 4c 21 76     	jmp	$7621 <donehypd81dosattach10+0x14a>
    686a: a6 1b        	ldx	$1b                     ; 0x201b <next_line+0x6>
    686c: e0 02        	cpx	#$2
    686e: f0 03        	beq	$6873 <donehypclosefile9+0x353>
    6870: 4c dd 79     	jmp	$79dd <donehypd81dosattach10+0x506>
    6873: 4c d0 79     	jmp	$79d0 <donehypd81dosattach10+0x4f9>
    6876: a5 05        	lda	$5                      ; 0x2005 <__heap_default_limit+0x1005>
    6878: 49 01        	eor	#$1
    687a: a0 46        	ldy	#$46
    687c: 48           	pha
    687d: 5a           	phy
    687e: a0 17        	ldy	#$17
    6880: b1 02        	lda	($2),y                  ; 0x2002 <__heap_default_limit+0x1002>
    6882: 85 06        	sta	$6                      ; 0x2006 <__heap_default_limit+0x1006>
    6884: c8           	iny
    6885: b1 02        	lda	($2),y                  ; 0x2002 <__heap_default_limit+0x1002>
    6887: 7a           	ply
    6888: 85 07        	sta	$7                      ; 0x2007 <__heap_default_limit+0x1007>
    688a: 68           	pla
    688b: 91 06        	sta	($6),y                  ; 0x2006 <__heap_default_limit+0x1006>
    688d: a9 28        	lda	#$28
    688f: a0 47        	ldy	#$47
    6891: 91 06        	sta	($6),y                  ; 0x2006 <__heap_default_limit+0x1006>
    6893: a9 01        	lda	#$1
    6895: a0 48        	ldy	#$48
    6897: 91 06        	sta	($6),y                  ; 0x2006 <__heap_default_limit+0x1006>
    6899: a9 50        	lda	#$50
    689b: c8           	iny
    689c: 91 06        	sta	($6),y                  ; 0x2006 <__heap_default_limit+0x1006>
    689e: b2 06        	lda	($6),z                  ; 0x2006 <__heap_default_limit+0x1006>
    68a0: 4c 5e 6b     	jmp	$6b5e <donehypclosefile9+0x63e>
    68a3: ae 11 d6     	ldx	$d611                   ; 0xd611 <__heap_start+0x3617>
    68a6: e0 01        	cpx	#$1
    68a8: d0 03        	bne	$68ad <donehypclosefile9+0x38d>
    68aa: 4c a4 59     	jmp	$59a4 <navi+0x2fa>
    68ad: ae 11 d6     	ldx	$d611                   ; 0xd611 <__heap_start+0x3617>
    68b0: e0 02        	cpx	#$2
    68b2: f0 03        	beq	$68b7 <donehypclosefile9+0x397>
    68b4: 4c ef 59     	jmp	$59ef <navi+0x345>
    68b7: 4c a4 59     	jmp	$59a4 <navi+0x2fa>
    68ba: a0 47        	ldy	#$47
    68bc: 5a           	phy
    68bd: a0 17        	ldy	#$17
    68bf: b1 02        	lda	($2),y                  ; 0x2002 <__heap_default_limit+0x1002>
    68c1: 85 1e        	sta	$1e                     ; 0x201e <next_line+0x9>
    68c3: c8           	iny
    68c4: b1 02        	lda	($2),y                  ; 0x2002 <__heap_default_limit+0x1002>
    68c6: 7a           	ply
    68c7: 85 1f        	sta	$1f                     ; 0x201f <next_line+0xa>
    68c9: b1 1e        	lda	($1e),y                 ; 0x201e <next_line+0x9>
    68cb: c9 28        	cmp	#$28
    68cd: d0 09        	bne	$68d8 <donehypclosefile9+0x3b8>
    68cf: a5 04        	lda	$4                      ; 0x2004 <__heap_default_limit+0x1004>
    68d1: 29 01        	and	#$1
    68d3: f0 03        	beq	$68d8 <donehypclosefile9+0x3b8>
    68d5: 4c 9a 6e     	jmp	$6e9a <donehypclosefile9+0x97a>
    68d8: a2 e7        	ldx	#$e7
    68da: 86 04        	stx	$4                      ; 0x2004 <__heap_default_limit+0x1004>
    68dc: a2 9b        	ldx	#$9b
    68de: 86 05        	stx	$5                      ; 0x2005 <__heap_default_limit+0x1005>
    68e0: a2 78        	ldx	#$78
    68e2: 86 06        	stx	$6                      ; 0x2006 <__heap_default_limit+0x1006>
    68e4: a2 94        	ldx	#$94
    68e6: 86 07        	stx	$7                      ; 0x2007 <__heap_default_limit+0x1007>
    68e8: a2 07        	ldx	#$7
    68ea: 86 08        	stx	$8                      ; 0x2008 <__heap_default_limit+0x1008>
    68ec: a2 92        	ldx	#$92
    68ee: 4c 88 6e     	jmp	$6e88 <donehypclosefile9+0x968>
    68f1: a9 01        	lda	#$1
    68f3: a0 46        	ldy	#$46
    68f5: 31 1e        	and	($1e),y                 ; 0x201e <next_line+0x9>
    68f7: 29 01        	and	#$1
    68f9: f0 03        	beq	$68fe <donehypclosefile9+0x3de>
    68fb: 4c 6a 6d     	jmp	$6d6a <donehypclosefile9+0x84a>
    68fe: a5 1c        	lda	$1c                     ; 0x201c <next_line+0x7>
    6900: a0 08        	ldy	#$8
    6902: 91 02        	sta	($2),y                  ; 0x2002 <__heap_default_limit+0x1002>
    6904: a5 1d        	lda	$1d                     ; 0x201d <next_line+0x8>
    6906: c8           	iny
    6907: 91 02        	sta	($2),y                  ; 0x2002 <__heap_default_limit+0x1002>
    6909: a2 fc        	ldx	#$fc
    690b: 86 04        	stx	$4                      ; 0x2004 <__heap_default_limit+0x1004>
    690d: a2 98        	ldx	#$98
    690f: 86 05        	stx	$5                      ; 0x2005 <__heap_default_limit+0x1005>
    6911: a2 7f        	ldx	#$7f
    6913: 86 06        	stx	$6                      ; 0x2006 <__heap_default_limit+0x1006>
    6915: a2 97        	ldx	#$97
    6917: 86 07        	stx	$7                      ; 0x2007 <__heap_default_limit+0x1007>
    6919: a2 09        	ldx	#$9
    691b: 86 08        	stx	$8                      ; 0x2008 <__heap_default_limit+0x1008>
    691d: a2 92        	ldx	#$92
    691f: 4c 88 6e     	jmp	$6e88 <donehypclosefile9+0x968>
    6922: a0 19        	ldy	#$19
    6924: b1 02        	lda	($2),y                  ; 0x2002 <__heap_default_limit+0x1002>
    6926: a8           	tay
    6927: a5 1b        	lda	$1b                     ; 0x201b <next_line+0x6>
    6929: d0 04        	bne	$692f <donehypclosefile9+0x40f>
    692b: c0 f6        	cpy	#$f6
    692d: f0 10        	beq	$693f <donehypclosefile9+0x41f>
    692f: a6 1b        	ldx	$1b                     ; 0x201b <next_line+0x6>
    6931: e0 01        	cpx	#$1
    6933: f0 03        	beq	$6938 <donehypclosefile9+0x418>
    6935: 4c b1 6c     	jmp	$6cb1 <donehypclosefile9+0x791>
    6938: c0 f6        	cpy	#$f6
    693a: f0 03        	beq	$693f <donehypclosefile9+0x41f>
    693c: 4c b1 6c     	jmp	$6cb1 <donehypclosefile9+0x791>
    693f: a0 13        	ldy	#$13
    6941: b1 02        	lda	($2),y                  ; 0x2002 <__heap_default_limit+0x1002>
    6943: 85 06        	sta	$6                      ; 0x2006 <__heap_default_limit+0x1006>
    6945: 85 07        	sta	$7                      ; 0x2007 <__heap_default_limit+0x1007>
    6947: 46 07        	lsr	$7                      ; 0x2007 <__heap_default_limit+0x1007>
    6949: 64 08        	stz	$8                      ; 0x2008 <__heap_default_limit+0x1008>
    694b: 66 08        	ror	$8                      ; 0x2008 <__heap_default_limit+0x1008>
    694d: a9 00        	lda	#$0
    694f: 6a           	ror
    6950: 46 07        	lsr	$7                      ; 0x2007 <__heap_default_limit+0x1007>
    6952: 66 08        	ror	$8                      ; 0x2008 <__heap_default_limit+0x1008>
    6954: 6a           	ror
    6955: 46 07        	lsr	$7                      ; 0x2007 <__heap_default_limit+0x1007>
    6957: 66 08        	ror	$8                      ; 0x2008 <__heap_default_limit+0x1008>
    6959: 6a           	ror
    695a: 38           	sec
    695b: e9 00        	sbc	#$0
    695d: a0 10        	ldy	#$10
    695f: 91 02        	sta	($2),y                  ; 0x2002 <__heap_default_limit+0x1002>
    6961: a5 08        	lda	$8                      ; 0x2008 <__heap_default_limit+0x1008>
    6963: e5 06        	sbc	$6                      ; 0x2006 <__heap_default_limit+0x1006>
    6965: c8           	iny
    6966: 91 02        	sta	($2),y                  ; 0x2002 <__heap_default_limit+0x1002>
    6968: a5 07        	lda	$7                      ; 0x2007 <__heap_default_limit+0x1007>
    696a: e9 00        	sbc	#$0
    696c: c8           	iny
    696d: 91 02        	sta	($2),y                  ; 0x2002 <__heap_default_limit+0x1002>
    696f: a9 00        	lda	#$0
    6971: e9 00        	sbc	#$0
    6973: aa           	tax
    6974: 18           	clc
    6975: a0 14        	ldy	#$14
    6977: b1 02        	lda	($2),y                  ; 0x2002 <__heap_default_limit+0x1002>
    6979: 69 4a        	adc	#$4a
    697b: 85 1a        	sta	$1a                     ; 0x201a <next_line+0x5>
    697d: a0 16        	ldy	#$16
    697f: b1 02        	lda	($2),y                  ; 0x2002 <__heap_default_limit+0x1002>
    6981: 69 00        	adc	#$0
    6983: 85 1b        	sta	$1b                     ; 0x201b <next_line+0x6>
    6985: 8a           	txa
    6986: 09 08        	ora	#$8
    6988: 91 02        	sta	($2),y                  ; 0x2002 <__heap_default_limit+0x1002>
    698a: a0 00        	ldy	#$0
    698c: 64 1f        	stz	$1f                     ; 0x201f <next_line+0xa>
    698e: 64 1e        	stz	$1e                     ; 0x201e <next_line+0x9>
    6990: 4c fe 69     	jmp	$69fe <donehypclosefile9+0x4de>
    6993: a2 b5        	ldx	#$b5
    6995: 86 04        	stx	$4                      ; 0x2004 <__heap_default_limit+0x1004>
    6997: a2 92        	ldx	#$92
    6999: 86 05        	stx	$5                      ; 0x2005 <__heap_default_limit+0x1005>
    699b: a2 07        	ldx	#$7
    699d: 86 08        	stx	$8                      ; 0x2008 <__heap_default_limit+0x1008>
    699f: a2 92        	ldx	#$92
    69a1: 86 09        	stx	$9                      ; 0x2009 <__heap_default_limit+0x1009>
    69a3: 64 0a        	stz	$a                      ; 0x200a <__heap_default_limit+0x100a>
    69a5: 64 0b        	stz	$b                      ; 0x200b <__heap_default_limit+0x100b>
    69a7: 64 0c        	stz	$c                      ; 0x200c <__heap_default_limit+0x100c>
    69a9: a2 00        	ldx	#$0
    69ab: a9 04        	lda	#$4
    69ad: 20 67 44     	jsr	$4467 <messagebox>
    69b0: a0 17        	ldy	#$17
    69b2: b1 02        	lda	($2),y                  ; 0x2002 <__heap_default_limit+0x1002>
    69b4: 85 06        	sta	$6                      ; 0x2006 <__heap_default_limit+0x1006>
    69b6: c8           	iny
    69b7: b1 02        	lda	($2),y                  ; 0x2002 <__heap_default_limit+0x1002>
    69b9: 85 07        	sta	$7                      ; 0x2007 <__heap_default_limit+0x1007>
    69bb: b2 06        	lda	($6),z                  ; 0x2006 <__heap_default_limit+0x1006>
    69bd: 85 0a        	sta	$a                      ; 0x200a <__heap_default_limit+0x100a>
    69bf: a0 47        	ldy	#$47
    69c1: b1 06        	lda	($6),y                  ; 0x2006 <__heap_default_limit+0x1006>
    69c3: 85 04        	sta	$4                      ; 0x2004 <__heap_default_limit+0x1004>
    69c5: c8           	iny
    69c6: b1 06        	lda	($6),y                  ; 0x2006 <__heap_default_limit+0x1006>
    69c8: 85 05        	sta	$5                      ; 0x2005 <__heap_default_limit+0x1005>
    69ca: c8           	iny
    69cb: b1 06        	lda	($6),y                  ; 0x2006 <__heap_default_limit+0x1006>
    69cd: 85 06        	sta	$6                      ; 0x2006 <__heap_default_limit+0x1006>
    69cf: a0 13        	ldy	#$13
    69d1: b1 02        	lda	($2),y                  ; 0x2002 <__heap_default_limit+0x1002>
    69d3: aa           	tax
    69d4: a5 0a        	lda	$a                      ; 0x200a <__heap_default_limit+0x100a>
    69d6: 20 07 40     	jsr	$4007 <rewritedirent>
    69d9: a6 16        	ldx	$16                     ; 0x2016 <next_line+0x1>
    69db: 86 1c        	stx	$1c                     ; 0x201c <next_line+0x7>
    69dd: a6 17        	ldx	$17                     ; 0x2017 <next_line+0x2>
    69df: 86 1d        	stx	$1d                     ; 0x201d <next_line+0x8>
    69e1: a4 20        	ldy	$20                     ; 0x2020 <next_line+0xb>
    69e3: 5a           	phy
    69e4: a0 19        	ldy	#$19
    69e6: b1 02        	lda	($2),y                  ; 0x2002 <__heap_default_limit+0x1002>
    69e8: 85 20        	sta	$20                     ; 0x2020 <next_line+0xb>
    69ea: c8           	iny
    69eb: b1 02        	lda	($2),y                  ; 0x2002 <__heap_default_limit+0x1002>
    69ed: 7a           	ply
    69ee: 85 21        	sta	$21                     ; 0x2021 <_start>
    69f0: c8           	iny
    69f1: 18           	clc
    69f2: a5 1e        	lda	$1e                     ; 0x201e <next_line+0x9>
    69f4: 69 20        	adc	#$20
    69f6: 85 1e        	sta	$1e                     ; 0x201e <next_line+0x9>
    69f8: a5 1f        	lda	$1f                     ; 0x201f <next_line+0xa>
    69fa: 69 00        	adc	#$0
    69fc: 85 1f        	sta	$1f                     ; 0x201f <next_line+0xa>
    69fe: c0 f8        	cpy	#$f8
    6a00: d0 03        	bne	$6a05 <donehypclosefile9+0x4e5>
    6a02: 4c 46 6b     	jmp	$6b46 <donehypclosefile9+0x626>
    6a05: a9 01        	lda	#$1
    6a07: 31 20        	and	($20),y                 ; 0x2020 <next_line+0xb>
    6a09: f0 e5        	beq	$69f0 <donehypclosefile9+0x4d0>
    6a0b: 5a           	phy
    6a0c: a5 20        	lda	$20                     ; 0x2020 <next_line+0xb>
    6a0e: a0 19        	ldy	#$19
    6a10: 91 02        	sta	($2),y                  ; 0x2002 <__heap_default_limit+0x1002>
    6a12: a5 21        	lda	$21                     ; 0x2021 <_start>
    6a14: c8           	iny
    6a15: 91 02        	sta	($2),y                  ; 0x2002 <__heap_default_limit+0x1002>
    6a17: 7a           	ply
    6a18: 64 04        	stz	$4                      ; 0x2004 <__heap_default_limit+0x1004>
    6a1a: 84 20        	sty	$20                     ; 0x2020 <next_line+0xb>
    6a1c: 5a           	phy
    6a1d: fa           	plx
    6a1e: a0 13        	ldy	#$13
    6a20: b1 02        	lda	($2),y                  ; 0x2002 <__heap_default_limit+0x1002>
    6a22: 20 47 35     	jsr	$3547 <getdirententry>
    6a25: a6 04        	ldx	$4                      ; 0x2004 <__heap_default_limit+0x1004>
    6a27: 86 1c        	stx	$1c                     ; 0x201c <next_line+0x7>
    6a29: a6 05        	ldx	$5                      ; 0x2005 <__heap_default_limit+0x1005>
    6a2b: 86 1d        	stx	$1d                     ; 0x201d <next_line+0x8>
    6a2d: a6 1a        	ldx	$1a                     ; 0x201a <next_line+0x5>
    6a2f: 86 04        	stx	$4                      ; 0x2004 <__heap_default_limit+0x1004>
    6a31: a6 1b        	ldx	$1b                     ; 0x201b <next_line+0x6>
    6a33: 86 05        	stx	$5                      ; 0x2005 <__heap_default_limit+0x1005>
    6a35: a2 36        	ldx	#$36
    6a37: 86 06        	stx	$6                      ; 0x2006 <__heap_default_limit+0x1006>
    6a39: a2 9c        	ldx	#$9c
    6a3b: 86 07        	stx	$7                      ; 0x2007 <__heap_default_limit+0x1007>
    6a3d: a2 00        	ldx	#$0
    6a3f: a9 23        	lda	#$23
    6a41: 20 6c 90     	jsr	$906c <memcpy>
    6a44: a6 1a        	ldx	$1a                     ; 0x201a <next_line+0x5>
    6a46: 86 04        	stx	$4                      ; 0x2004 <__heap_default_limit+0x1004>
    6a48: a6 1b        	ldx	$1b                     ; 0x201b <next_line+0x6>
    6a4a: 86 05        	stx	$5                      ; 0x2005 <__heap_default_limit+0x1005>
    6a4c: a6 1a        	ldx	$1a                     ; 0x201a <next_line+0x5>
    6a4e: 86 06        	stx	$6                      ; 0x2006 <__heap_default_limit+0x1006>
    6a50: a6 1b        	ldx	$1b                     ; 0x201b <next_line+0x6>
    6a52: 86 07        	stx	$7                      ; 0x2007 <__heap_default_limit+0x1007>
    6a54: 20 c7 46     	jsr	$46c7 <inputbox>
    6a57: a0 4a        	ldy	#$4a
    6a59: 5a           	phy
    6a5a: a0 17        	ldy	#$17
    6a5c: b1 02        	lda	($2),y                  ; 0x2002 <__heap_default_limit+0x1002>
    6a5e: 85 04        	sta	$4                      ; 0x2004 <__heap_default_limit+0x1004>
    6a60: c8           	iny
    6a61: b1 02        	lda	($2),y                  ; 0x2002 <__heap_default_limit+0x1002>
    6a63: 7a           	ply
    6a64: 85 05        	sta	$5                      ; 0x2005 <__heap_default_limit+0x1005>
    6a66: b1 04        	lda	($4),y                  ; 0x2004 <__heap_default_limit+0x1004>
    6a68: d0 03        	bne	$6a6d <donehypclosefile9+0x54d>
    6a6a: 4c e1 69     	jmp	$69e1 <donehypclosefile9+0x4c1>
    6a6d: a5 1c        	lda	$1c                     ; 0x201c <next_line+0x7>
    6a6f: 18           	clc
    6a70: 69 05        	adc	#$5
    6a72: a8           	tay
    6a73: a5 1d        	lda	$1d                     ; 0x201d <next_line+0x8>
    6a75: 69 00        	adc	#$0
    6a77: a6 1c        	ldx	$1c                     ; 0x201c <next_line+0x7>
    6a79: 86 18        	stx	$18                     ; 0x2018 <next_line+0x3>
    6a7b: a6 1d        	ldx	$1d                     ; 0x201d <next_line+0x8>
    6a7d: 86 19        	stx	$19                     ; 0x2019 <next_line+0x4>
    6a7f: 84 1c        	sty	$1c                     ; 0x201c <next_line+0x7>
    6a81: 85 1d        	sta	$1d                     ; 0x201d <next_line+0x8>
    6a83: a6 1a        	ldx	$1a                     ; 0x201a <next_line+0x5>
    6a85: 86 04        	stx	$4                      ; 0x2004 <__heap_default_limit+0x1004>
    6a87: a6 1b        	ldx	$1b                     ; 0x201b <next_line+0x6>
    6a89: 86 05        	stx	$5                      ; 0x2005 <__heap_default_limit+0x1005>
    6a8b: 84 06        	sty	$6                      ; 0x2006 <__heap_default_limit+0x1006>
    6a8d: 85 07        	sta	$7                      ; 0x2007 <__heap_default_limit+0x1007>
    6a8f: 20 de 40     	jsr	$40de <strmakefilename>
    6a92: a0 10        	ldy	#$10
    6a94: b1 02        	lda	($2),y                  ; 0x2002 <__heap_default_limit+0x1002>
    6a96: 18           	clc
    6a97: 65 1e        	adc	$1e                     ; 0x201e <next_line+0x9>
    6a99: aa           	tax
    6a9a: c8           	iny
    6a9b: b1 02        	lda	($2),y                  ; 0x2002 <__heap_default_limit+0x1002>
    6a9d: 65 1f        	adc	$1f                     ; 0x201f <next_line+0xa>
    6a9f: 85 07        	sta	$7                      ; 0x2007 <__heap_default_limit+0x1007>
    6aa1: c8           	iny
    6aa2: b1 02        	lda	($2),y                  ; 0x2002 <__heap_default_limit+0x1002>
    6aa4: 69 00        	adc	#$0
    6aa6: 85 08        	sta	$8                      ; 0x2008 <__heap_default_limit+0x1008>
    6aa8: a0 16        	ldy	#$16
    6aaa: b1 02        	lda	($2),y                  ; 0x2002 <__heap_default_limit+0x1002>
    6aac: 69 00        	adc	#$0
    6aae: 86 06        	stx	$6                      ; 0x2006 <__heap_default_limit+0x1006>
    6ab0: 64 04        	stz	$4                      ; 0x2004 <__heap_default_limit+0x1004>
    6ab2: 64 05        	stz	$5                      ; 0x2005 <__heap_default_limit+0x1005>
    6ab4: 85 09        	sta	$9                      ; 0x2009 <__heap_default_limit+0x1009>
    6ab6: a2 20        	ldx	#$20
    6ab8: 86 0a        	stx	$a                      ; 0x200a <__heap_default_limit+0x100a>
    6aba: 64 0b        	stz	$b                      ; 0x200b <__heap_default_limit+0x100b>
    6abc: a6 19        	ldx	$19                     ; 0x2019 <next_line+0x4>
    6abe: a5 18        	lda	$18                     ; 0x2018 <next_line+0x3>
    6ac0: 20 a5 89     	jsr	$89a5 <lcopy>
    6ac3: a9 0f        	lda	#$f
    6ac5: a6 18        	ldx	$18                     ; 0x2018 <next_line+0x3>
    6ac7: 86 16        	stx	$16                     ; 0x2016 <next_line+0x1>
    6ac9: a6 19        	ldx	$19                     ; 0x2019 <next_line+0x4>
    6acb: 86 17        	stx	$17                     ; 0x2017 <next_line+0x2>
    6acd: a0 02        	ldy	#$2
    6acf: 31 18        	and	($18),y                 ; 0x2018 <next_line+0x3>
    6ad1: c9 05        	cmp	#$5
    6ad3: f0 03        	beq	$6ad8 <donehypclosefile9+0x5b8>
    6ad5: 4c b0 69     	jmp	$69b0 <donehypclosefile9+0x490>
    6ad8: a0 17        	ldy	#$17
    6ada: b1 02        	lda	($2),y                  ; 0x2002 <__heap_default_limit+0x1002>
    6adc: 85 04        	sta	$4                      ; 0x2004 <__heap_default_limit+0x1004>
    6ade: c8           	iny
    6adf: b1 02        	lda	($2),y                  ; 0x2002 <__heap_default_limit+0x1002>
    6ae1: 85 05        	sta	$5                      ; 0x2005 <__heap_default_limit+0x1005>
    6ae3: b2 04        	lda	($4),z                  ; 0x2004 <__heap_default_limit+0x1004>
    6ae5: 85 07        	sta	$7                      ; 0x2007 <__heap_default_limit+0x1007>
    6ae7: a0 03        	ldy	#$3
    6ae9: b1 16        	lda	($16),y                 ; 0x2016 <next_line+0x1>
    6aeb: a2 00        	ldx	#$0
    6aed: 86 04        	stx	$4                      ; 0x2004 <__heap_default_limit+0x1004>
    6aef: a2 19        	ldx	#$19
    6af1: 86 05        	stx	$5                      ; 0x2005 <__heap_default_limit+0x1005>
    6af3: 64 06        	stz	$6                      ; 0x2006 <__heap_default_limit+0x1006>
    6af5: 85 19        	sta	$19                     ; 0x2019 <next_line+0x4>
    6af7: aa           	tax
    6af8: a5 07        	lda	$7                      ; 0x2007 <__heap_default_limit+0x1007>
    6afa: 85 18        	sta	$18                     ; 0x2018 <next_line+0x3>
    6afc: 20 32 25     	jsr	$2532 <GetOneSector>
    6aff: c9 02        	cmp	#$2
    6b01: a2 db        	ldx	#$db
    6b03: 86 06        	stx	$6                      ; 0x2006 <__heap_default_limit+0x1006>
    6b05: a2 91        	ldx	#$91
    6b07: 86 07        	stx	$7                      ; 0x2007 <__heap_default_limit+0x1007>
    6b09: 90 03        	bcc	$6b0e <donehypclosefile9+0x5ee>
    6b0b: 4c 93 69     	jmp	$6993 <donehypclosefile9+0x473>
    6b0e: a6 1c        	ldx	$1c                     ; 0x201c <next_line+0x7>
    6b10: 86 04        	stx	$4                      ; 0x2004 <__heap_default_limit+0x1004>
    6b12: a6 1d        	ldx	$1d                     ; 0x201d <next_line+0x8>
    6b14: 86 05        	stx	$5                      ; 0x2005 <__heap_default_limit+0x1005>
    6b16: a2 04        	ldx	#$4
    6b18: 86 06        	stx	$6                      ; 0x2006 <__heap_default_limit+0x1006>
    6b1a: a2 19        	ldx	#$19
    6b1c: 86 07        	stx	$7                      ; 0x2007 <__heap_default_limit+0x1007>
    6b1e: a9 10        	lda	#$10
    6b20: 20 c8 40     	jsr	$40c8 <strcopy>
    6b23: a2 00        	ldx	#$0
    6b25: 86 04        	stx	$4                      ; 0x2004 <__heap_default_limit+0x1004>
    6b27: a2 19        	ldx	#$19
    6b29: 86 05        	stx	$5                      ; 0x2005 <__heap_default_limit+0x1005>
    6b2b: 64 06        	stz	$6                      ; 0x2006 <__heap_default_limit+0x1006>
    6b2d: a6 19        	ldx	$19                     ; 0x2019 <next_line+0x4>
    6b2f: a5 18        	lda	$18                     ; 0x2018 <next_line+0x3>
    6b31: 20 fd 25     	jsr	$25fd <PutOneSector>
    6b34: c9 03        	cmp	#$3
    6b36: a2 d2        	ldx	#$d2
    6b38: 86 06        	stx	$6                      ; 0x2006 <__heap_default_limit+0x1006>
    6b3a: a2 99        	ldx	#$99
    6b3c: 86 07        	stx	$7                      ; 0x2007 <__heap_default_limit+0x1007>
    6b3e: 90 03        	bcc	$6b43 <donehypclosefile9+0x623>
    6b40: 4c 93 69     	jmp	$6993 <donehypclosefile9+0x473>
    6b43: 4c b0 69     	jmp	$69b0 <donehypclosefile9+0x490>
    6b46: a5 1c        	lda	$1c                     ; 0x201c <next_line+0x7>
    6b48: a0 08        	ldy	#$8
    6b4a: 91 02        	sta	($2),y                  ; 0x2002 <__heap_default_limit+0x1002>
    6b4c: a5 1d        	lda	$1d                     ; 0x201d <next_line+0x8>
    6b4e: c8           	iny
    6b4f: 91 02        	sta	($2),y                  ; 0x2002 <__heap_default_limit+0x1002>
    6b51: a0 17        	ldy	#$17
    6b53: b1 02        	lda	($2),y                  ; 0x2002 <__heap_default_limit+0x1002>
    6b55: 85 04        	sta	$4                      ; 0x2004 <__heap_default_limit+0x1004>
    6b57: c8           	iny
    6b58: b1 02        	lda	($2),y                  ; 0x2002 <__heap_default_limit+0x1002>
    6b5a: 85 05        	sta	$5                      ; 0x2005 <__heap_default_limit+0x1005>
    6b5c: b2 04        	lda	($4),z                  ; 0x2004 <__heap_default_limit+0x1004>
    6b5e: 48           	pha
    6b5f: a0 13        	ldy	#$13
    6b61: b1 02        	lda	($2),y                  ; 0x2002 <__heap_default_limit+0x1002>
    6b63: 85 16        	sta	$16                     ; 0x2016 <next_line+0x1>
    6b65: 68           	pla
    6b66: a6 16        	ldx	$16                     ; 0x2016 <next_line+0x1>
    6b68: 20 0d 4f     	jsr	$4f0d <UpdateSectors>
    6b6b: a5 16        	lda	$16                     ; 0x2016 <next_line+0x1>
    6b6d: 20 c5 47     	jsr	$47c5 <Deselect>
    6b70: 4c ef 59     	jmp	$59ef <navi+0x345>
    6b73: c9 00        	cmp	#$0
    6b75: 8a           	txa
    6b76: 90 03        	bcc	$6b7b <donehypclosefile9+0x65b>
    6b78: 4c b5 63     	jmp	$63b5 <navi+0xd0b>
    6b7b: 0a           	asl
    6b7c: aa           	tax
    6b7d: 7c c2 90     	jmp	($90c2,x)               ; 0x90c2 <__zp_data_load_start+0x70ab>
    6b80: a5 04        	lda	$4                      ; 0x2004 <__heap_default_limit+0x1004>
    6b82: 29 01        	and	#$1
    6b84: d0 03        	bne	$6b89 <donehypclosefile9+0x669>
    6b86: 4c 80 73     	jmp	$7380 <donehypclosefile9+0xe60>
    6b89: a9 28        	lda	#$28
    6b8b: a0 47        	ldy	#$47
    6b8d: 48           	pha
    6b8e: 5a           	phy
    6b8f: a0 17        	ldy	#$17
    6b91: b1 02        	lda	($2),y                  ; 0x2002 <__heap_default_limit+0x1002>
    6b93: 85 06        	sta	$6                      ; 0x2006 <__heap_default_limit+0x1006>
    6b95: c8           	iny
    6b96: b1 02        	lda	($2),y                  ; 0x2002 <__heap_default_limit+0x1002>
    6b98: 7a           	ply
    6b99: 85 07        	sta	$7                      ; 0x2007 <__heap_default_limit+0x1007>
    6b9b: 68           	pla
    6b9c: 4c 91 68     	jmp	$6891 <donehypclosefile9+0x371>
    6b9f: 64 1a        	stz	$1a                     ; 0x201a <next_line+0x5>
    6ba1: a2 00        	ldx	#$0
    6ba3: a9 14        	lda	#$14
    6ba5: 20 51 48     	jsr	$4851 <shortcuts>
    6ba8: a4 1a        	ldy	$1a                     ; 0x201a <next_line+0x5>
    6baa: a2 8d        	ldx	#$8d
    6bac: 84 16        	sty	$16                     ; 0x2016 <next_line+0x1>
    6bae: c0 02        	cpy	#$2
    6bb0: f0 02        	beq	$6bb4 <donehypclosefile9+0x694>
    6bb2: a2 6a        	ldx	#$6a
    6bb4: a0 7b        	ldy	#$7b
    6bb6: 98           	tya
    6bb7: a0 19        	ldy	#$19
    6bb9: 91 02        	sta	($2),y                  ; 0x2002 <__heap_default_limit+0x1002>
    6bbb: a9 01        	lda	#$1
    6bbd: a4 16        	ldy	$16                     ; 0x2016 <next_line+0x1>
    6bbf: c0 01        	cpy	#$1
    6bc1: f0 14        	beq	$6bd7 <donehypclosefile9+0x6b7>
    6bc3: 48           	pha
    6bc4: 8a           	txa
    6bc5: a0 19        	ldy	#$19
    6bc7: 91 02        	sta	($2),y                  ; 0x2002 <__heap_default_limit+0x1002>
    6bc9: 68           	pla
    6bca: 80 0b        	bra	$6bd7 <donehypclosefile9+0x6b7>
    6bcc: a6 16        	ldx	$16                     ; 0x2016 <next_line+0x1>
    6bce: e0 02        	cpx	#$2
    6bd0: a9 01        	lda	#$1
    6bd2: b0 03        	bcs	$6bd7 <donehypclosefile9+0x6b7>
    6bd4: 4c 3f 6c     	jmp	$6c3f <donehypclosefile9+0x71f>
    6bd7: aa           	tax
    6bd8: a9 64        	lda	#$64
    6bda: 20 6e 84     	jsr	$846e <text>
    6bdd: a2 20        	ldx	#$20
    6bdf: 86 04        	stx	$4                      ; 0x2004 <__heap_default_limit+0x1004>
    6be1: a2 18        	ldx	#$18
    6be3: a9 07        	lda	#$7
    6be5: 20 48 87     	jsr	$8748 <cputcxy>
    6be8: a2 61        	ldx	#$61
    6bea: 86 04        	stx	$4                      ; 0x2004 <__heap_default_limit+0x1004>
    6bec: a2 92        	ldx	#$92
    6bee: 86 05        	stx	$5                      ; 0x2005 <__heap_default_limit+0x1005>
    6bf0: 20 8d 42     	jsr	$428d <msprintf>
    6bf3: a9 20        	lda	#$20
    6bf5: 20 3f 87     	jsr	$873f <cputc>
    6bf8: a2 01        	ldx	#$1
    6bfa: a0 19        	ldy	#$19
    6bfc: b1 02        	lda	($2),y                  ; 0x2002 <__heap_default_limit+0x1002>
    6bfe: 20 6e 84     	jsr	$846e <text>
    6c01: 20 75 89     	jsr	$8975 <cgetc>
    6c04: c9 11        	cmp	#$11
    6c06: d0 03        	bne	$6c0b <donehypclosefile9+0x6eb>
    6c08: 4c cc 6b     	jmp	$6bcc <donehypclosefile9+0x6ac>
    6c0b: c9 20        	cmp	#$20
    6c0d: d0 03        	bne	$6c12 <donehypclosefile9+0x6f2>
    6c0f: 4c ef 59     	jmp	$59ef <navi+0x345>
    6c12: c9 03        	cmp	#$3
    6c14: d0 03        	bne	$6c19 <donehypclosefile9+0x6f9>
    6c16: 4c ef 59     	jmp	$59ef <navi+0x345>
    6c19: c9 0d        	cmp	#$d
    6c1b: d0 03        	bne	$6c20 <donehypclosefile9+0x700>
    6c1d: 4c ef 59     	jmp	$59ef <navi+0x345>
    6c20: c9 1b        	cmp	#$1b
    6c22: d0 03        	bne	$6c27 <donehypclosefile9+0x707>
    6c24: 4c ef 59     	jmp	$59ef <navi+0x345>
    6c27: c9 91        	cmp	#$91
    6c29: f0 08        	beq	$6c33 <donehypclosefile9+0x713>
    6c2b: 20 d7 86     	jsr	$86d7 <sidbong>
    6c2e: a9 01        	lda	#$1
    6c30: 4c d7 6b     	jmp	$6bd7 <donehypclosefile9+0x6b7>
    6c33: 64 1a        	stz	$1a                     ; 0x201a <next_line+0x5>
    6c35: a5 16        	lda	$16                     ; 0x2016 <next_line+0x1>
    6c37: f0 03        	beq	$6c3c <donehypclosefile9+0x71c>
    6c39: 4c 64 71     	jmp	$7164 <donehypclosefile9+0xc44>
    6c3c: 4c a8 6b     	jmp	$6ba8 <donehypclosefile9+0x688>
    6c3f: a6 16        	ldx	$16                     ; 0x2016 <next_line+0x1>
    6c41: 86 1a        	stx	$1a                     ; 0x201a <next_line+0x5>
    6c43: e6 1a        	inc	$1a                     ; 0x201a <next_line+0x5>
    6c45: 4c a8 6b     	jmp	$6ba8 <donehypclosefile9+0x688>
    6c48: 20 d7 86     	jsr	$86d7 <sidbong>
    6c4b: 20 75 89     	jsr	$8975 <cgetc>
    6c4e: c9 03        	cmp	#$3
    6c50: d0 03        	bne	$6c55 <donehypclosefile9+0x735>
    6c52: 4c ef 59     	jmp	$59ef <navi+0x345>
    6c55: c9 0d        	cmp	#$d
    6c57: d0 03        	bne	$6c5c <donehypclosefile9+0x73c>
    6c59: 4c ef 59     	jmp	$59ef <navi+0x345>
    6c5c: c9 1b        	cmp	#$1b
    6c5e: d0 03        	bne	$6c63 <donehypclosefile9+0x743>
    6c60: 4c ef 59     	jmp	$59ef <navi+0x345>
    6c63: c9 20        	cmp	#$20
    6c65: d0 e1        	bne	$6c48 <donehypclosefile9+0x728>
    6c67: 4c ef 59     	jmp	$59ef <navi+0x345>
    6c6a: a9 43        	lda	#$43
    6c6c: a6 06        	ldx	$6                      ; 0x2006 <__heap_default_limit+0x1006>
    6c6e: 9d 3b 9d     	sta	$9d3b,x                 ; 0x9d3b <s>
    6c71: 3a           	dec
    6c72: 99 3b 9d     	sta	$9d3b,y                 ; 0x9d3b <s>
    6c75: a9 4d        	lda	#$4d
    6c77: 4c b8 5c     	jmp	$5cb8 <navi+0x60e>
    6c7a: a9 55        	lda	#$55
    6c7c: a6 06        	ldx	$6                      ; 0x2006 <__heap_default_limit+0x1006>
    6c7e: 9d 3b 9d     	sta	$9d3b,x                 ; 0x9d3b <s>
    6c81: a9 53        	lda	#$53
    6c83: 99 3b 9d     	sta	$9d3b,y                 ; 0x9d3b <s>
    6c86: 3a           	dec
    6c87: 4c b8 5c     	jmp	$5cb8 <navi+0x60e>
    6c8a: a9 52        	lda	#$52
    6c8c: 4c ac 5c     	jmp	$5cac <navi+0x602>
    6c8f: a9 53        	lda	#$53
    6c91: a6 06        	ldx	$6                      ; 0x2006 <__heap_default_limit+0x1006>
    6c93: 9d 3b 9d     	sta	$9d3b,x                 ; 0x9d3b <s>
    6c96: a9 45        	lda	#$45
    6c98: 99 3b 9d     	sta	$9d3b,y                 ; 0x9d3b <s>
    6c9b: a9 51        	lda	#$51
    6c9d: 4c b8 5c     	jmp	$5cb8 <navi+0x60e>
    6ca0: a9 50        	lda	#$50
    6ca2: a6 06        	ldx	$6                      ; 0x2006 <__heap_default_limit+0x1006>
    6ca4: 9d 3b 9d     	sta	$9d3b,x                 ; 0x9d3b <s>
    6ca7: a9 52        	lda	#$52
    6ca9: 99 3b 9d     	sta	$9d3b,y                 ; 0x9d3b <s>
    6cac: a9 47        	lda	#$47
    6cae: 4c b8 5c     	jmp	$5cb8 <navi+0x60e>
    6cb1: a5 1b        	lda	$1b                     ; 0x201b <next_line+0x6>
    6cb3: d0 1b        	bne	$6cd0 <donehypclosefile9+0x7b0>
    6cb5: c0 f5        	cpy	#$f5
    6cb7: d0 17        	bne	$6cd0 <donehypclosefile9+0x7b0>
    6cb9: a5 1c        	lda	$1c                     ; 0x201c <next_line+0x7>
    6cbb: a0 08        	ldy	#$8
    6cbd: 91 02        	sta	($2),y                  ; 0x2002 <__heap_default_limit+0x1002>
    6cbf: a5 1d        	lda	$1d                     ; 0x201d <next_line+0x8>
    6cc1: c8           	iny
    6cc2: 91 02        	sta	($2),y                  ; 0x2002 <__heap_default_limit+0x1002>
    6cc4: a6 07        	ldx	$7                      ; 0x2007 <__heap_default_limit+0x1007>
    6cc6: e0 05        	cpx	#$5
    6cc8: f0 03        	beq	$6ccd <donehypclosefile9+0x7ad>
    6cca: 4c 05 78     	jmp	$7805 <donehypd81dosattach10+0x32e>
    6ccd: 4c fc 77     	jmp	$77fc <donehypd81dosattach10+0x325>
    6cd0: a6 07        	ldx	$7                      ; 0x2007 <__heap_default_limit+0x1007>
    6cd2: e0 05        	cpx	#$5
    6cd4: f0 03        	beq	$6cd9 <donehypclosefile9+0x7b9>
    6cd6: 4c 07 6f     	jmp	$6f07 <donehypclosefile9+0x9e7>
    6cd9: a0 02        	ldy	#$2
    6cdb: b1 1e        	lda	($1e),y                 ; 0x201e <next_line+0x9>
    6cdd: c9 ff        	cmp	#$ff
    6cdf: d0 03        	bne	$6ce4 <donehypclosefile9+0x7c4>
    6ce1: 4c 0e 6f     	jmp	$6f0e <donehypclosefile9+0x9ee>
    6ce4: a9 8a        	lda	#$8a
    6ce6: 18           	clc
    6ce7: 65 18        	adc	$18                     ; 0x2018 <next_line+0x3>
    6ce9: 85 08        	sta	$8                      ; 0x2008 <__heap_default_limit+0x1008>
    6ceb: a9 9d        	lda	#$9d
    6ced: 48           	pha
    6cee: a0 12        	ldy	#$12
    6cf0: b1 02        	lda	($2),y                  ; 0x2002 <__heap_default_limit+0x1002>
    6cf2: 85 04        	sta	$4                      ; 0x2004 <__heap_default_limit+0x1004>
    6cf4: 68           	pla
    6cf5: 65 04        	adc	$4                      ; 0x2004 <__heap_default_limit+0x1004>
    6cf7: 85 09        	sta	$9                      ; 0x2009 <__heap_default_limit+0x1009>
    6cf9: a2 f8        	ldx	#$f8
    6cfb: a0 00        	ldy	#$0
    6cfd: 86 04        	stx	$4                      ; 0x2004 <__heap_default_limit+0x1004>
    6cff: a2 00        	ldx	#$0
    6d01: 80 01        	bra	$6d04 <donehypclosefile9+0x7e4>
    6d03: e8           	inx
    6d04: a5 04        	lda	$4                      ; 0x2004 <__heap_default_limit+0x1004>
    6d06: 85 05        	sta	$5                      ; 0x2005 <__heap_default_limit+0x1005>
    6d08: 84 06        	sty	$6                      ; 0x2006 <__heap_default_limit+0x1006>
    6d0a: a5 06        	lda	$6                      ; 0x2006 <__heap_default_limit+0x1006>
    6d0c: f0 2d        	beq	$6d3b <donehypclosefile9+0x81b>
    6d0e: a5 08        	lda	$8                      ; 0x2008 <__heap_default_limit+0x1008>
    6d10: 18           	clc
    6d11: 65 05        	adc	$5                      ; 0x2005 <__heap_default_limit+0x1005>
    6d13: 85 0a        	sta	$a                      ; 0x200a <__heap_default_limit+0x100a>
    6d15: a5 09        	lda	$9                      ; 0x2009 <__heap_default_limit+0x1009>
    6d17: 65 06        	adc	$6                      ; 0x2006 <__heap_default_limit+0x1006>
    6d19: 85 07        	sta	$7                      ; 0x2007 <__heap_default_limit+0x1007>
    6d1b: a5 0a        	lda	$a                      ; 0x200a <__heap_default_limit+0x100a>
    6d1d: 85 06        	sta	$6                      ; 0x2006 <__heap_default_limit+0x1006>
    6d1f: a9 ff        	lda	#$ff
    6d21: c6 04        	dec	$4                      ; 0x2004 <__heap_default_limit+0x1004>
    6d23: c5 04        	cmp	$4                      ; 0x2004 <__heap_default_limit+0x1004>
    6d25: d0 01        	bne	$6d28 <donehypclosefile9+0x808>
    6d27: 88           	dey
    6d28: a9 01        	lda	#$1
    6d2a: 32 06        	and	($6),z                  ; 0x2006 <__heap_default_limit+0x1006>
    6d2c: 5a           	phy
    6d2d: a4 04        	ldy	$4                      ; 0x2004 <__heap_default_limit+0x1004>
    6d2f: 84 05        	sty	$5                      ; 0x2005 <__heap_default_limit+0x1005>
    6d31: 7a           	ply
    6d32: 84 06        	sty	$6                      ; 0x2006 <__heap_default_limit+0x1006>
    6d34: c9 00        	cmp	#$0
    6d36: f0 d2        	beq	$6d0a <donehypclosefile9+0x7ea>
    6d38: 4c 03 6d     	jmp	$6d03 <donehypclosefile9+0x7e3>
    6d3b: a5 05        	lda	$5                      ; 0x2005 <__heap_default_limit+0x1005>
    6d3d: d0 cf        	bne	$6d0e <donehypclosefile9+0x7ee>
    6d3f: e0 02        	cpx	#$2
    6d41: b0 03        	bcs	$6d46 <donehypclosefile9+0x826>
    6d43: 4c 9e 78     	jmp	$789e <donehypd81dosattach10+0x3c7>
    6d46: 4c 7a 78     	jmp	$787a <donehypd81dosattach10+0x3a3>
    6d49: ae 7b 9f     	ldx	$9f7b                   ; 0x9f7b <legacyHDOSstate>
    6d4c: d0 03        	bne	$6d51 <donehypclosefile9+0x831>
    6d4e: 4c 87 71     	jmp	$7187 <donehypclosefile9+0xc67>
    6d51: a2 66        	ldx	#$66
    6d53: 86 04        	stx	$4                      ; 0x2004 <__heap_default_limit+0x1004>
    6d55: a2 9c        	ldx	#$9c
    6d57: 86 05        	stx	$5                      ; 0x2005 <__heap_default_limit+0x1005>
    6d59: a2 0b        	ldx	#$b
    6d5b: 86 06        	stx	$6                      ; 0x2006 <__heap_default_limit+0x1006>
    6d5d: a2 9c        	ldx	#$9c
    6d5f: 86 07        	stx	$7                      ; 0x2007 <__heap_default_limit+0x1007>
    6d61: a2 90        	ldx	#$90
    6d63: 86 08        	stx	$8                      ; 0x2008 <__heap_default_limit+0x1008>
    6d65: a2 9c        	ldx	#$9c
    6d67: 4c 88 6e     	jmp	$6e88 <donehypclosefile9+0x968>
    6d6a: a9 0f        	lda	#$f
    6d6c: a0 02        	ldy	#$2
    6d6e: 31 1c        	and	($1c),y                 ; 0x201c <next_line+0x7>
    6d70: c9 05        	cmp	#$5
    6d72: f0 03        	beq	$6d77 <donehypclosefile9+0x857>
    6d74: 4c 82 6f     	jmp	$6f82 <donehypclosefile9+0xa62>
    6d77: a5 1c        	lda	$1c                     ; 0x201c <next_line+0x7>
    6d79: a0 08        	ldy	#$8
    6d7b: 91 02        	sta	($2),y                  ; 0x2002 <__heap_default_limit+0x1002>
    6d7d: a5 1d        	lda	$1d                     ; 0x201d <next_line+0x8>
    6d7f: c8           	iny
    6d80: 91 02        	sta	($2),y                  ; 0x2002 <__heap_default_limit+0x1002>
    6d82: a2 c6        	ldx	#$c6
    6d84: 86 04        	stx	$4                      ; 0x2004 <__heap_default_limit+0x1004>
    6d86: a2 9b        	ldx	#$9b
    6d88: 86 05        	stx	$5                      ; 0x2005 <__heap_default_limit+0x1005>
    6d8a: a2 fd        	ldx	#$fd
    6d8c: 86 06        	stx	$6                      ; 0x2006 <__heap_default_limit+0x1006>
    6d8e: a2 9a        	ldx	#$9a
    6d90: 86 07        	stx	$7                      ; 0x2007 <__heap_default_limit+0x1007>
    6d92: a2 56        	ldx	#$56
    6d94: 86 08        	stx	$8                      ; 0x2008 <__heap_default_limit+0x1008>
    6d96: a2 96        	ldx	#$96
    6d98: 4c 88 6e     	jmp	$6e88 <donehypclosefile9+0x968>
    6d9b: a6 1a        	ldx	$1a                     ; 0x201a <next_line+0x5>
    6d9d: 98           	tya
    6d9e: 20 bb 34     	jsr	$34bb <tracksectorstring>
    6da1: a6 1b        	ldx	$1b                     ; 0x201b <next_line+0x6>
    6da3: 86 04        	stx	$4                      ; 0x2004 <__heap_default_limit+0x1004>
    6da5: 06 04        	asl	$4                      ; 0x2004 <__heap_default_limit+0x1004>
    6da7: a5 1c        	lda	$1c                     ; 0x201c <next_line+0x7>
    6da9: 2a           	rol
    6daa: 06 04        	asl	$4                      ; 0x2004 <__heap_default_limit+0x1004>
    6dac: 2a           	rol
    6dad: 18           	clc
    6dae: 69 32        	adc	#$32
    6db0: a2 52        	ldx	#$52
    6db2: 86 04        	stx	$4                      ; 0x2004 <__heap_default_limit+0x1004>
    6db4: a2 99        	ldx	#$99
    6db6: 86 05        	stx	$5                      ; 0x2005 <__heap_default_limit+0x1005>
    6db8: a2 3b        	ldx	#$3b
    6dba: 86 06        	stx	$6                      ; 0x2006 <__heap_default_limit+0x1006>
    6dbc: a2 9d        	ldx	#$9d
    6dbe: 86 07        	stx	$7                      ; 0x2007 <__heap_default_limit+0x1007>
    6dc0: 20 15 46     	jsr	$4615 <progress>
    6dc3: 18           	clc
    6dc4: a5 1b        	lda	$1b                     ; 0x201b <next_line+0x6>
    6dc6: 69 6a        	adc	#$6a
    6dc8: a8           	tay
    6dc9: a5 1c        	lda	$1c                     ; 0x201c <next_line+0x7>
    6dcb: 69 00        	adc	#$0
    6dcd: 85 04        	sta	$4                      ; 0x2004 <__heap_default_limit+0x1004>
    6dcf: a9 00        	lda	#$0
    6dd1: 69 08        	adc	#$8
    6dd3: 85 05        	sta	$5                      ; 0x2005 <__heap_default_limit+0x1005>
    6dd5: 64 06        	stz	$6                      ; 0x2006 <__heap_default_limit+0x1006>
    6dd7: a2 19        	ldx	#$19
    6dd9: 86 07        	stx	$7                      ; 0x2007 <__heap_default_limit+0x1007>
    6ddb: 64 08        	stz	$8                      ; 0x2008 <__heap_default_limit+0x1008>
    6ddd: 64 09        	stz	$9                      ; 0x2009 <__heap_default_limit+0x1009>
    6ddf: 64 0a        	stz	$a                      ; 0x200a <__heap_default_limit+0x100a>
    6de1: a2 02        	ldx	#$2
    6de3: 86 0b        	stx	$b                      ; 0x200b <__heap_default_limit+0x100b>
    6de5: 5a           	phy
    6de6: fa           	plx
    6de7: a9 00        	lda	#$0
    6de9: 20 a5 89     	jsr	$89a5 <lcopy>
    6dec: a2 00        	ldx	#$0
    6dee: 86 04        	stx	$4                      ; 0x2004 <__heap_default_limit+0x1004>
    6df0: a2 19        	ldx	#$19
    6df2: 86 05        	stx	$5                      ; 0x2005 <__heap_default_limit+0x1005>
    6df4: a6 1a        	ldx	$1a                     ; 0x201a <next_line+0x5>
    6df6: 86 06        	stx	$6                      ; 0x2006 <__heap_default_limit+0x1006>
    6df8: a6 19        	ldx	$19                     ; 0x2019 <next_line+0x4>
    6dfa: a5 18        	lda	$18                     ; 0x2018 <next_line+0x3>
    6dfc: 20 75 25     	jsr	$2575 <PutWholeSector>
    6dff: a4 19        	ldy	$19                     ; 0x2019 <next_line+0x4>
    6e01: 18           	clc
    6e02: a5 1b        	lda	$1b                     ; 0x201b <next_line+0x6>
    6e04: 69 02        	adc	#$2
    6e06: 85 1b        	sta	$1b                     ; 0x201b <next_line+0x6>
    6e08: a5 1c        	lda	$1c                     ; 0x201c <next_line+0x7>
    6e0a: 69 00        	adc	#$0
    6e0c: 85 1c        	sta	$1c                     ; 0x201c <next_line+0x7>
    6e0e: 18           	clc
    6e0f: a5 1d        	lda	$1d                     ; 0x201d <next_line+0x8>
    6e11: 69 02        	adc	#$2
    6e13: c9 29        	cmp	#$29
    6e15: b0 2b        	bcs	$6e42 <donehypclosefile9+0x922>
    6e17: 85 1d        	sta	$1d                     ; 0x201d <next_line+0x8>
    6e19: 85 1a        	sta	$1a                     ; 0x201a <next_line+0x5>
    6e1b: c6 1a        	dec	$1a                     ; 0x201a <next_line+0x5>
    6e1d: a9 02        	lda	#$2
    6e1f: 25 2f        	and	$2f                     ; 0x202f <__do_init_stack>
    6e21: d0 03        	bne	$6e26 <donehypclosefile9+0x906>
    6e23: 4c 9b 6d     	jmp	$6d9b <donehypclosefile9+0x87b>
    6e26: a6 1a        	ldx	$1a                     ; 0x201a <next_line+0x5>
    6e28: 98           	tya
    6e29: 20 c2 2e     	jsr	$2ec2 <isallocatedBAMtracksector>
    6e2c: a4 19        	ldy	$19                     ; 0x2019 <next_line+0x4>
    6e2e: aa           	tax
    6e2f: f0 03        	beq	$6e34 <donehypclosefile9+0x914>
    6e31: 4c 9b 6d     	jmp	$6d9b <donehypclosefile9+0x87b>
    6e34: a6 1d        	ldx	$1d                     ; 0x201d <next_line+0x8>
    6e36: 98           	tya
    6e37: 20 c2 2e     	jsr	$2ec2 <isallocatedBAMtracksector>
    6e3a: a4 19        	ldy	$19                     ; 0x2019 <next_line+0x4>
    6e3c: aa           	tax
    6e3d: f0 cf        	beq	$6e0e <donehypclosefile9+0x8ee>
    6e3f: 4c 9b 6d     	jmp	$6d9b <donehypclosefile9+0x87b>
    6e42: c8           	iny
    6e43: c0 51        	cpy	#$51
    6e45: d0 03        	bne	$6e4a <donehypclosefile9+0x92a>
    6e47: 4c b5 81     	jmp	$81b5 <donehyp1att19+0x62>
    6e4a: a9 01        	lda	#$1
    6e4c: 84 19        	sty	$19                     ; 0x2019 <next_line+0x4>
    6e4e: 4c 13 6e     	jmp	$6e13 <donehypclosefile9+0x8f3>
    6e51: c9 00        	cmp	#$0
    6e53: 8a           	txa
    6e54: 90 03        	bcc	$6e59 <donehypclosefile9+0x939>
    6e56: 4c cc 63     	jmp	$63cc <navi+0xd22>
    6e59: 0a           	asl
    6e5a: aa           	tax
    6e5b: 7c 28 91     	jmp	($9128,x)               ; 0x9128 <__zp_data_load_start+0x7111>
    6e5e: a5 1c        	lda	$1c                     ; 0x201c <next_line+0x7>
    6e60: a0 08        	ldy	#$8
    6e62: 91 02        	sta	($2),y                  ; 0x2002 <__heap_default_limit+0x1002>
    6e64: a5 1d        	lda	$1d                     ; 0x201d <next_line+0x8>
    6e66: c8           	iny
    6e67: 91 02        	sta	($2),y                  ; 0x2002 <__heap_default_limit+0x1002>
    6e69: 18           	clc
    6e6a: a0 14        	ldy	#$14
    6e6c: b1 02        	lda	($2),y                  ; 0x2002 <__heap_default_limit+0x1002>
    6e6e: 69 4a        	adc	#$4a
    6e70: 85 06        	sta	$6                      ; 0x2006 <__heap_default_limit+0x1006>
    6e72: a0 16        	ldy	#$16
    6e74: b1 02        	lda	($2),y                  ; 0x2002 <__heap_default_limit+0x1002>
    6e76: 69 00        	adc	#$0
    6e78: 85 07        	sta	$7                      ; 0x2007 <__heap_default_limit+0x1007>
    6e7a: a2 a4        	ldx	#$a4
    6e7c: 86 04        	stx	$4                      ; 0x2004 <__heap_default_limit+0x1004>
    6e7e: a2 99        	ldx	#$99
    6e80: 86 05        	stx	$5                      ; 0x2005 <__heap_default_limit+0x1005>
    6e82: a2 69        	ldx	#$69
    6e84: 86 08        	stx	$8                      ; 0x2008 <__heap_default_limit+0x1008>
    6e86: a2 95        	ldx	#$95
    6e88: 86 09        	stx	$9                      ; 0x2009 <__heap_default_limit+0x1009>
    6e8a: 64 0a        	stz	$a                      ; 0x200a <__heap_default_limit+0x100a>
    6e8c: 64 0b        	stz	$b                      ; 0x200b <__heap_default_limit+0x100b>
    6e8e: 64 0c        	stz	$c                      ; 0x200c <__heap_default_limit+0x100c>
    6e90: a2 00        	ldx	#$0
    6e92: a9 04        	lda	#$4
    6e94: 20 67 44     	jsr	$4467 <messagebox>
    6e97: 4c ef 59     	jmp	$59ef <navi+0x345>
    6e9a: a0 48        	ldy	#$48
    6e9c: b1 1e        	lda	($1e),y                 ; 0x201e <next_line+0x9>
    6e9e: 85 0a        	sta	$a                      ; 0x200a <__heap_default_limit+0x100a>
    6ea0: c8           	iny
    6ea1: b1 1e        	lda	($1e),y                 ; 0x201e <next_line+0x9>
    6ea3: 18           	clc
    6ea4: 48           	pha
    6ea5: a5 02        	lda	$2                      ; 0x2002 <__heap_default_limit+0x1002>
    6ea7: 69 1e        	adc	#$1e
    6ea9: 85 1c        	sta	$1c                     ; 0x201c <next_line+0x7>
    6eab: a5 03        	lda	$3                      ; 0x2003 <__heap_default_limit+0x1003>
    6ead: 69 00        	adc	#$0
    6eaf: 85 1d        	sta	$1d                     ; 0x201d <next_line+0x8>
    6eb1: a6 1c        	ldx	$1c                     ; 0x201c <next_line+0x7>
    6eb3: 86 06        	stx	$6                      ; 0x2006 <__heap_default_limit+0x1006>
    6eb5: 85 07        	sta	$7                      ; 0x2007 <__heap_default_limit+0x1007>
    6eb7: 18           	clc
    6eb8: a5 02        	lda	$2                      ; 0x2002 <__heap_default_limit+0x1002>
    6eba: 69 1c        	adc	#$1c
    6ebc: 85 18        	sta	$18                     ; 0x2018 <next_line+0x3>
    6ebe: a5 03        	lda	$3                      ; 0x2003 <__heap_default_limit+0x1003>
    6ec0: 69 00        	adc	#$0
    6ec2: 85 19        	sta	$19                     ; 0x2019 <next_line+0x4>
    6ec4: 68           	pla
    6ec5: a6 18        	ldx	$18                     ; 0x2018 <next_line+0x3>
    6ec7: 86 08        	stx	$8                      ; 0x2008 <__heap_default_limit+0x1008>
    6ec9: a6 19        	ldx	$19                     ; 0x2019 <next_line+0x4>
    6ecb: 86 09        	stx	$9                      ; 0x2009 <__heap_default_limit+0x1009>
    6ecd: 85 04        	sta	$4                      ; 0x2004 <__heap_default_limit+0x1004>
    6ecf: a2 02        	ldx	#$2
    6ed1: 86 05        	stx	$5                      ; 0x2005 <__heap_default_limit+0x1005>
    6ed3: a6 0a        	ldx	$a                      ; 0x200a <__heap_default_limit+0x100a>
    6ed5: a0 13        	ldy	#$13
    6ed7: b1 02        	lda	($2),y                  ; 0x2002 <__heap_default_limit+0x1002>
    6ed9: 20 79 2b     	jsr	$2b79 <FreeTracks>
    6edc: b2 18        	lda	($18),z                 ; 0x2018 <next_line+0x3>
    6ede: 38           	sec
    6edf: f2 1c        	sbc	($1c),z                 ; 0x201c <next_line+0x7>
    6ee1: aa           	tax
    6ee2: a9 00        	lda	#$0
    6ee4: e9 00        	sbc	#$0
    6ee6: 86 16        	stx	$16                     ; 0x2016 <next_line+0x1>
    6ee8: e0 02        	cpx	#$2
    6eea: e9 00        	sbc	#$0
    6eec: 50 02        	bvc	$6ef0 <donehypclosefile9+0x9d0>
    6eee: 49 80        	eor	#$80
    6ef0: aa           	tax
    6ef1: 30 03        	bmi	$6ef6 <donehypclosefile9+0x9d6>
    6ef3: 4c e7 71     	jmp	$71e7 <donehypclosefile9+0xcc7>
    6ef6: a2 5d        	ldx	#$5d
    6ef8: 86 04        	stx	$4                      ; 0x2004 <__heap_default_limit+0x1004>
    6efa: a2 99        	ldx	#$99
    6efc: 86 05        	stx	$5                      ; 0x2005 <__heap_default_limit+0x1005>
    6efe: a2 2d        	ldx	#$2d
    6f00: 86 06        	stx	$6                      ; 0x2006 <__heap_default_limit+0x1006>
    6f02: a2 98        	ldx	#$98
    6f04: 4c e6 68     	jmp	$68e6 <donehypclosefile9+0x3c6>
    6f07: a5 06        	lda	$6                      ; 0x2006 <__heap_default_limit+0x1006>
    6f09: d0 03        	bne	$6f0e <donehypclosefile9+0x9ee>
    6f0b: 4c ea 77     	jmp	$77ea <donehypd81dosattach10+0x313>
    6f0e: a5 1c        	lda	$1c                     ; 0x201c <next_line+0x7>
    6f10: 18           	clc
    6f11: 69 1e        	adc	#$1e
    6f13: 85 04        	sta	$4                      ; 0x2004 <__heap_default_limit+0x1004>
    6f15: a5 1d        	lda	$1d                     ; 0x201d <next_line+0x8>
    6f17: 69 00        	adc	#$0
    6f19: 85 05        	sta	$5                      ; 0x2005 <__heap_default_limit+0x1005>
    6f1b: a0 1e        	ldy	#$1e
    6f1d: b1 1c        	lda	($1c),y                 ; 0x201c <next_line+0x7>
    6f1f: 85 06        	sta	$6                      ; 0x2006 <__heap_default_limit+0x1006>
    6f21: a0 01        	ldy	#$1
    6f23: b1 04        	lda	($4),y                  ; 0x2004 <__heap_default_limit+0x1004>
    6f25: d0 03        	bne	$6f2a <donehypclosefile9+0xa0a>
    6f27: 4c e3 77     	jmp	$77e3 <donehypd81dosattach10+0x30c>
    6f2a: a0 13        	ldy	#$13
    6f2c: b1 02        	lda	($2),y                  ; 0x2002 <__heap_default_limit+0x1002>
    6f2e: aa           	tax
    6f2f: d0 03        	bne	$6f34 <donehypclosefile9+0xa14>
    6f31: 4c 66 78     	jmp	$7866 <donehypd81dosattach10+0x38f>
    6f34: a5 1c        	lda	$1c                     ; 0x201c <next_line+0x7>
    6f36: a0 08        	ldy	#$8
    6f38: 91 02        	sta	($2),y                  ; 0x2002 <__heap_default_limit+0x1002>
    6f3a: a5 1d        	lda	$1d                     ; 0x201d <next_line+0x8>
    6f3c: c8           	iny
    6f3d: 91 02        	sta	($2),y                  ; 0x2002 <__heap_default_limit+0x1002>
    6f3f: a2 08        	ldx	#$8
    6f41: 86 08        	stx	$8                      ; 0x2008 <__heap_default_limit+0x1008>
    6f43: a2 98        	ldx	#$98
    6f45: 86 09        	stx	$9                      ; 0x2009 <__heap_default_limit+0x1009>
    6f47: a2 00        	ldx	#$0
    6f49: 18           	clc
    6f4a: a0 14        	ldy	#$14
    6f4c: b1 02        	lda	($2),y                  ; 0x2002 <__heap_default_limit+0x1002>
    6f4e: 69 4a        	adc	#$4a
    6f50: 85 06        	sta	$6                      ; 0x2006 <__heap_default_limit+0x1006>
    6f52: a0 16        	ldy	#$16
    6f54: b1 02        	lda	($2),y                  ; 0x2002 <__heap_default_limit+0x1002>
    6f56: 69 00        	adc	#$0
    6f58: 85 07        	sta	$7                      ; 0x2007 <__heap_default_limit+0x1007>
    6f5a: a0 59        	ldy	#$59
    6f5c: 84 04        	sty	$4                      ; 0x2004 <__heap_default_limit+0x1004>
    6f5e: a0 9c        	ldy	#$9c
    6f60: 84 05        	sty	$5                      ; 0x2005 <__heap_default_limit+0x1005>
    6f62: 64 0a        	stz	$a                      ; 0x200a <__heap_default_limit+0x100a>
    6f64: 64 0b        	stz	$b                      ; 0x200b <__heap_default_limit+0x100b>
    6f66: 64 0c        	stz	$c                      ; 0x200c <__heap_default_limit+0x100c>
    6f68: 8a           	txa
    6f69: 20 67 44     	jsr	$4467 <messagebox>
    6f6c: aa           	tax
    6f6d: d0 03        	bne	$6f72 <donehypclosefile9+0xa52>
    6f6f: 4c ef 59     	jmp	$59ef <navi+0x345>
    6f72: a9 01        	lda	#$1
    6f74: a0 46        	ldy	#$46
    6f76: 31 1e        	and	($1e),y                 ; 0x201e <next_line+0x9>
    6f78: 29 01        	and	#$1
    6f7a: f0 03        	beq	$6f7f <donehypclosefile9+0xa5f>
    6f7c: 4c 78 7a     	jmp	$7a78 <donehypfindfirst11+0x36>
    6f7f: 4c 10 7a     	jmp	$7a10 <donehypd81dosattach10+0x539>
    6f82: 18           	clc
    6f83: a0 14        	ldy	#$14
    6f85: b1 02        	lda	($2),y                  ; 0x2002 <__heap_default_limit+0x1002>
    6f87: 69 4a        	adc	#$4a
    6f89: aa           	tax
    6f8a: a0 16        	ldy	#$16
    6f8c: b1 02        	lda	($2),y                  ; 0x2002 <__heap_default_limit+0x1002>
    6f8e: 69 00        	adc	#$0
    6f90: 86 04        	stx	$4                      ; 0x2004 <__heap_default_limit+0x1004>
    6f92: 85 05        	sta	$5                      ; 0x2005 <__heap_default_limit+0x1005>
    6f94: a2 fd        	ldx	#$fd
    6f96: 86 06        	stx	$6                      ; 0x2006 <__heap_default_limit+0x1006>
    6f98: a2 9a        	ldx	#$9a
    6f9a: 86 07        	stx	$7                      ; 0x2007 <__heap_default_limit+0x1007>
    6f9c: a2 00        	ldx	#$0
    6f9e: a9 1a        	lda	#$1a
    6fa0: 20 6c 90     	jsr	$906c <memcpy>
    6fa3: 4c ce 67     	jmp	$67ce <donehypclosefile9+0x2ae>
    6fa6: a5 04        	lda	$4                      ; 0x2004 <__heap_default_limit+0x1004>
    6fa8: 29 01        	and	#$1
    6faa: f0 03        	beq	$6faf <donehypclosefile9+0xa8f>
    6fac: 4c df 75     	jmp	$75df <donehypd81dosattach10+0x108>
    6faf: 20 d7 86     	jsr	$86d7 <sidbong>
    6fb2: 4c ef 59     	jmp	$59ef <navi+0x345>
    6fb5: a9 01        	lda	#$1
    6fb7: 31 20        	and	($20),y                 ; 0x2020 <next_line+0xb>
    6fb9: d0 03        	bne	$6fbe <donehypclosefile9+0xa9e>
    6fbb: 4c 59 71     	jmp	$7159 <donehypclosefile9+0xc39>
    6fbe: 64 04        	stz	$4                      ; 0x2004 <__heap_default_limit+0x1004>
    6fc0: 5a           	phy
    6fc1: fa           	plx
    6fc2: 5a           	phy
    6fc3: a0 13        	ldy	#$13
    6fc5: b1 02        	lda	($2),y                  ; 0x2002 <__heap_default_limit+0x1002>
    6fc7: 7a           	ply
    6fc8: 48           	pha
    6fc9: 98           	tya
    6fca: a0 12        	ldy	#$12
    6fcc: 91 02        	sta	($2),y                  ; 0x2002 <__heap_default_limit+0x1002>
    6fce: 68           	pla
    6fcf: 20 47 35     	jsr	$3547 <getdirententry>
    6fd2: a6 04        	ldx	$4                      ; 0x2004 <__heap_default_limit+0x1004>
    6fd4: 86 18        	stx	$18                     ; 0x2018 <next_line+0x3>
    6fd6: a6 05        	ldx	$5                      ; 0x2005 <__heap_default_limit+0x1005>
    6fd8: 86 19        	stx	$19                     ; 0x2019 <next_line+0x4>
    6fda: a2 f2        	ldx	#$f2
    6fdc: 86 04        	stx	$4                      ; 0x2004 <__heap_default_limit+0x1004>
    6fde: a2 9a        	ldx	#$9a
    6fe0: 86 05        	stx	$5                      ; 0x2005 <__heap_default_limit+0x1005>
    6fe2: a5 04        	lda	$4                      ; 0x2004 <__heap_default_limit+0x1004>
    6fe4: a0 19        	ldy	#$19
    6fe6: 91 02        	sta	($2),y                  ; 0x2002 <__heap_default_limit+0x1002>
    6fe8: a5 05        	lda	$5                      ; 0x2005 <__heap_default_limit+0x1005>
    6fea: c8           	iny
    6feb: 91 02        	sta	($2),y                  ; 0x2002 <__heap_default_limit+0x1002>
    6fed: 88           	dey
    6fee: b1 02        	lda	($2),y                  ; 0x2002 <__heap_default_limit+0x1002>
    6ff0: 85 04        	sta	$4                      ; 0x2004 <__heap_default_limit+0x1004>
    6ff2: c8           	iny
    6ff3: b1 02        	lda	($2),y                  ; 0x2002 <__heap_default_limit+0x1002>
    6ff5: 85 05        	sta	$5                      ; 0x2005 <__heap_default_limit+0x1005>
    6ff7: a2 5b        	ldx	#$5b
    6ff9: 86 06        	stx	$6                      ; 0x2006 <__heap_default_limit+0x1006>
    6ffb: a2 9a        	ldx	#$9a
    6ffd: 86 07        	stx	$7                      ; 0x2007 <__heap_default_limit+0x1007>
    6fff: a9 14        	lda	#$14
    7001: 20 15 46     	jsr	$4615 <progress>
    7004: b2 1e        	lda	($1e),z                 ; 0x201e <next_line+0x9>
    7006: 85 08        	sta	$8                      ; 0x2008 <__heap_default_limit+0x1008>
    7008: a0 03        	ldy	#$3
    700a: b1 18        	lda	($18),y                 ; 0x2018 <next_line+0x3>
    700c: 85 09        	sta	$9                      ; 0x2009 <__heap_default_limit+0x1009>
    700e: c8           	iny
    700f: b1 18        	lda	($18),y                 ; 0x2018 <next_line+0x3>
    7011: 64 04        	stz	$4                      ; 0x2004 <__heap_default_limit+0x1004>
    7013: a2 08        	ldx	#$8
    7015: 86 05        	stx	$5                      ; 0x2005 <__heap_default_limit+0x1005>
    7017: a2 80        	ldx	#$80
    7019: 86 06        	stx	$6                      ; 0x2006 <__heap_default_limit+0x1006>
    701b: a2 0c        	ldx	#$c
    701d: 86 07        	stx	$7                      ; 0x2007 <__heap_default_limit+0x1007>
    701f: 85 0a        	sta	$a                      ; 0x200a <__heap_default_limit+0x100a>
    7021: a2 6a        	ldx	#$6a
    7023: a9 00        	lda	#$0
    7025: 20 e7 26     	jsr	$26e7 <readblockchain>
    7028: a0 19        	ldy	#$19
    702a: b1 02        	lda	($2),y                  ; 0x2002 <__heap_default_limit+0x1002>
    702c: 85 04        	sta	$4                      ; 0x2004 <__heap_default_limit+0x1004>
    702e: c8           	iny
    702f: b1 02        	lda	($2),y                  ; 0x2002 <__heap_default_limit+0x1002>
    7031: 85 05        	sta	$5                      ; 0x2005 <__heap_default_limit+0x1005>
    7033: a2 de        	ldx	#$de
    7035: 86 06        	stx	$6                      ; 0x2006 <__heap_default_limit+0x1006>
    7037: a2 94        	ldx	#$94
    7039: 86 07        	stx	$7                      ; 0x2007 <__heap_default_limit+0x1007>
    703b: a5 06        	lda	$6                      ; 0x2006 <__heap_default_limit+0x1006>
    703d: a0 14        	ldy	#$14
    703f: 91 02        	sta	($2),y                  ; 0x2002 <__heap_default_limit+0x1002>
    7041: a5 07        	lda	$7                      ; 0x2007 <__heap_default_limit+0x1007>
    7043: c8           	iny
    7044: 91 02        	sta	($2),y                  ; 0x2002 <__heap_default_limit+0x1002>
    7046: 88           	dey
    7047: b1 02        	lda	($2),y                  ; 0x2002 <__heap_default_limit+0x1002>
    7049: 85 06        	sta	$6                      ; 0x2006 <__heap_default_limit+0x1006>
    704b: c8           	iny
    704c: b1 02        	lda	($2),y                  ; 0x2002 <__heap_default_limit+0x1002>
    704e: 85 07        	sta	$7                      ; 0x2007 <__heap_default_limit+0x1007>
    7050: a9 1e        	lda	#$1e
    7052: 20 15 46     	jsr	$4615 <progress>
    7055: a0 16        	ldy	#$16
    7057: b1 02        	lda	($2),y                  ; 0x2002 <__heap_default_limit+0x1002>
    7059: 20 4e 26     	jsr	$264e <GetBAM>
    705c: a2 52        	ldx	#$52
    705e: 86 04        	stx	$4                      ; 0x2004 <__heap_default_limit+0x1004>
    7060: a2 99        	ldx	#$99
    7062: 86 05        	stx	$5                      ; 0x2005 <__heap_default_limit+0x1005>
    7064: a5 04        	lda	$4                      ; 0x2004 <__heap_default_limit+0x1004>
    7066: a0 19        	ldy	#$19
    7068: 91 02        	sta	($2),y                  ; 0x2002 <__heap_default_limit+0x1002>
    706a: a5 05        	lda	$5                      ; 0x2005 <__heap_default_limit+0x1005>
    706c: c8           	iny
    706d: 91 02        	sta	($2),y                  ; 0x2002 <__heap_default_limit+0x1002>
    706f: 88           	dey
    7070: b1 02        	lda	($2),y                  ; 0x2002 <__heap_default_limit+0x1002>
    7072: 85 04        	sta	$4                      ; 0x2004 <__heap_default_limit+0x1004>
    7074: c8           	iny
    7075: b1 02        	lda	($2),y                  ; 0x2002 <__heap_default_limit+0x1002>
    7077: 85 05        	sta	$5                      ; 0x2005 <__heap_default_limit+0x1005>
    7079: a2 22        	ldx	#$22
    707b: 86 06        	stx	$6                      ; 0x2006 <__heap_default_limit+0x1006>
    707d: a2 92        	ldx	#$92
    707f: 86 07        	stx	$7                      ; 0x2007 <__heap_default_limit+0x1007>
    7081: a9 28        	lda	#$28
    7083: 20 15 46     	jsr	$4615 <progress>
    7086: b2 16        	lda	($16),z                 ; 0x2016 <next_line+0x1>
    7088: 85 08        	sta	$8                      ; 0x2008 <__heap_default_limit+0x1008>
    708a: a0 47        	ldy	#$47
    708c: b1 16        	lda	($16),y                 ; 0x2016 <next_line+0x1>
    708e: 85 09        	sta	$9                      ; 0x2009 <__heap_default_limit+0x1009>
    7090: c8           	iny
    7091: b1 16        	lda	($16),y                 ; 0x2016 <next_line+0x1>
    7093: 85 0f        	sta	$f                      ; 0x200f <__heap_default_limit+0x100f>
    7095: c8           	iny
    7096: b1 16        	lda	($16),y                 ; 0x2016 <next_line+0x1>
    7098: 18           	clc
    7099: 48           	pha
    709a: a5 02        	lda	$2                      ; 0x2002 <__heap_default_limit+0x1002>
    709c: 69 1e        	adc	#$1e
    709e: 85 1a        	sta	$1a                     ; 0x201a <next_line+0x5>
    70a0: a5 03        	lda	$3                      ; 0x2003 <__heap_default_limit+0x1003>
    70a2: 69 00        	adc	#$0
    70a4: 85 1b        	sta	$1b                     ; 0x201b <next_line+0x6>
    70a6: 18           	clc
    70a7: a5 02        	lda	$2                      ; 0x2002 <__heap_default_limit+0x1002>
    70a9: 69 1d        	adc	#$1d
    70ab: 85 1c        	sta	$1c                     ; 0x201c <next_line+0x7>
    70ad: a5 03        	lda	$3                      ; 0x2003 <__heap_default_limit+0x1003>
    70af: 69 00        	adc	#$0
    70b1: 85 1d        	sta	$1d                     ; 0x201d <next_line+0x8>
    70b3: 68           	pla
    70b4: a6 1a        	ldx	$1a                     ; 0x201a <next_line+0x5>
    70b6: 86 0a        	stx	$a                      ; 0x200a <__heap_default_limit+0x100a>
    70b8: a6 1b        	ldx	$1b                     ; 0x201b <next_line+0x6>
    70ba: 86 0b        	stx	$b                      ; 0x200b <__heap_default_limit+0x100b>
    70bc: a6 1c        	ldx	$1c                     ; 0x201c <next_line+0x7>
    70be: 86 0c        	stx	$c                      ; 0x200c <__heap_default_limit+0x100c>
    70c0: a6 1d        	ldx	$1d                     ; 0x201d <next_line+0x8>
    70c2: 86 0d        	stx	$d                      ; 0x200d <__heap_default_limit+0x100d>
    70c4: 64 04        	stz	$4                      ; 0x2004 <__heap_default_limit+0x1004>
    70c6: a2 08        	ldx	#$8
    70c8: 86 05        	stx	$5                      ; 0x2005 <__heap_default_limit+0x1005>
    70ca: a2 80        	ldx	#$80
    70cc: 86 06        	stx	$6                      ; 0x2006 <__heap_default_limit+0x1006>
    70ce: a2 0c        	ldx	#$c
    70d0: 86 07        	stx	$7                      ; 0x2007 <__heap_default_limit+0x1007>
    70d2: 64 0e        	stz	$e                      ; 0x200e <__heap_default_limit+0x100e>
    70d4: 85 10        	sta	$10                     ; 0x2010 <__heap_default_limit+0x1010>
    70d6: a2 6a        	ldx	#$6a
    70d8: a9 00        	lda	#$0
    70da: 20 c0 31     	jsr	$31c0 <writeblockchain>
    70dd: b2 1a        	lda	($1a),z                 ; 0x201a <next_line+0x5>
    70df: a0 03        	ldy	#$3
    70e1: 91 18        	sta	($18),y                 ; 0x2018 <next_line+0x3>
    70e3: b2 1c        	lda	($1c),z                 ; 0x201c <next_line+0x7>
    70e5: c8           	iny
    70e6: 91 18        	sta	($18),y                 ; 0x2018 <next_line+0x3>
    70e8: a0 19        	ldy	#$19
    70ea: b1 02        	lda	($2),y                  ; 0x2002 <__heap_default_limit+0x1002>
    70ec: 85 04        	sta	$4                      ; 0x2004 <__heap_default_limit+0x1004>
    70ee: c8           	iny
    70ef: b1 02        	lda	($2),y                  ; 0x2002 <__heap_default_limit+0x1002>
    70f1: 85 05        	sta	$5                      ; 0x2005 <__heap_default_limit+0x1005>
    70f3: a2 dd        	ldx	#$dd
    70f5: 86 06        	stx	$6                      ; 0x2006 <__heap_default_limit+0x1006>
    70f7: a2 9b        	ldx	#$9b
    70f9: 86 07        	stx	$7                      ; 0x2007 <__heap_default_limit+0x1007>
    70fb: a9 3c        	lda	#$3c
    70fd: 20 15 46     	jsr	$4615 <progress>
    7100: b2 16        	lda	($16),z                 ; 0x2016 <next_line+0x1>
    7102: 85 07        	sta	$7                      ; 0x2007 <__heap_default_limit+0x1007>
    7104: a0 47        	ldy	#$47
    7106: b1 16        	lda	($16),y                 ; 0x2016 <next_line+0x1>
    7108: 85 04        	sta	$4                      ; 0x2004 <__heap_default_limit+0x1004>
    710a: c8           	iny
    710b: b1 16        	lda	($16),y                 ; 0x2016 <next_line+0x1>
    710d: 85 05        	sta	$5                      ; 0x2005 <__heap_default_limit+0x1005>
    710f: c8           	iny
    7110: b1 16        	lda	($16),y                 ; 0x2016 <next_line+0x1>
    7112: a6 18        	ldx	$18                     ; 0x2018 <next_line+0x3>
    7114: 86 08        	stx	$8                      ; 0x2008 <__heap_default_limit+0x1008>
    7116: a6 19        	ldx	$19                     ; 0x2019 <next_line+0x4>
    7118: 86 09        	stx	$9                      ; 0x2009 <__heap_default_limit+0x1009>
    711a: 85 06        	sta	$6                      ; 0x2006 <__heap_default_limit+0x1006>
    711c: a0 16        	ldy	#$16
    711e: b1 02        	lda	($2),y                  ; 0x2002 <__heap_default_limit+0x1002>
    7120: 85 1a        	sta	$1a                     ; 0x201a <next_line+0x5>
    7122: aa           	tax
    7123: a5 07        	lda	$7                      ; 0x2007 <__heap_default_limit+0x1007>
    7125: 20 56 36     	jsr	$3656 <writenewdirententry>
    7128: a0 19        	ldy	#$19
    712a: b1 02        	lda	($2),y                  ; 0x2002 <__heap_default_limit+0x1002>
    712c: 85 04        	sta	$4                      ; 0x2004 <__heap_default_limit+0x1004>
    712e: c8           	iny
    712f: b1 02        	lda	($2),y                  ; 0x2002 <__heap_default_limit+0x1002>
    7131: 85 05        	sta	$5                      ; 0x2005 <__heap_default_limit+0x1005>
    7133: a0 14        	ldy	#$14
    7135: b1 02        	lda	($2),y                  ; 0x2002 <__heap_default_limit+0x1002>
    7137: 85 06        	sta	$6                      ; 0x2006 <__heap_default_limit+0x1006>
    7139: c8           	iny
    713a: b1 02        	lda	($2),y                  ; 0x2002 <__heap_default_limit+0x1002>
    713c: 85 07        	sta	$7                      ; 0x2007 <__heap_default_limit+0x1007>
    713e: a9 50        	lda	#$50
    7140: 20 15 46     	jsr	$4615 <progress>
    7143: b2 16        	lda	($16),z                 ; 0x2016 <next_line+0x1>
    7145: 85 05        	sta	$5                      ; 0x2005 <__heap_default_limit+0x1005>
    7147: a0 47        	ldy	#$47
    7149: b1 16        	lda	($16),y                 ; 0x2016 <next_line+0x1>
    714b: 85 04        	sta	$4                      ; 0x2004 <__heap_default_limit+0x1004>
    714d: a6 1a        	ldx	$1a                     ; 0x201a <next_line+0x5>
    714f: a5 05        	lda	$5                      ; 0x2005 <__heap_default_limit+0x1005>
    7151: 20 87 26     	jsr	$2687 <PutBAM>
    7154: a0 12        	ldy	#$12
    7156: b1 02        	lda	($2),y                  ; 0x2002 <__heap_default_limit+0x1002>
    7158: a8           	tay
    7159: c8           	iny
    715a: c0 f8        	cpy	#$f8
    715c: f0 03        	beq	$7161 <donehypclosefile9+0xc41>
    715e: 4c b5 6f     	jmp	$6fb5 <donehypclosefile9+0xa95>
    7161: 4c 66 82     	jmp	$8266 <donehyp1att19+0x113>
    7164: a6 16        	ldx	$16                     ; 0x2016 <next_line+0x1>
    7166: ca           	dex
    7167: 86 1a        	stx	$1a                     ; 0x201a <next_line+0x5>
    7169: 4c a8 6b     	jmp	$6ba8 <donehypclosefile9+0x688>
    716c: a9 0a        	lda	#$a
    716e: 18           	clc
    716f: a0 01        	ldy	#$1
    7171: 48           	pha
    7172: 5a           	phy
    7173: a0 17        	ldy	#$17
    7175: b1 02        	lda	($2),y                  ; 0x2002 <__heap_default_limit+0x1002>
    7177: 85 06        	sta	$6                      ; 0x2006 <__heap_default_limit+0x1006>
    7179: c8           	iny
    717a: b1 02        	lda	($2),y                  ; 0x2002 <__heap_default_limit+0x1002>
    717c: 7a           	ply
    717d: 85 07        	sta	$7                      ; 0x2007 <__heap_default_limit+0x1007>
    717f: 68           	pla
    7180: 71 06        	adc	($6),y                  ; 0x2006 <__heap_default_limit+0x1006>
    7182: 91 06        	sta	($6),y                  ; 0x2006 <__heap_default_limit+0x1006>
    7184: 4c ef 59     	jmp	$59ef <navi+0x345>
    7187: a0 13        	ldy	#$13
    7189: b1 02        	lda	($2),y                  ; 0x2002 <__heap_default_limit+0x1002>
    718b: f0 03        	beq	$7190 <donehypclosefile9+0xc70>
    718d: 4c b8 74     	jmp	$74b8 <donehypclosefile9+0xf98>
    7190: 4c b5 7a     	jmp	$7ab5 <donehypfindfirst11+0x73>
    7193: 86 07        	stx	$7                      ; 0x2007 <__heap_default_limit+0x1007>
    7195: a0 17        	ldy	#$17
    7197: b1 02        	lda	($2),y                  ; 0x2002 <__heap_default_limit+0x1002>
    7199: 85 16        	sta	$16                     ; 0x2016 <next_line+0x1>
    719b: c8           	iny
    719c: b1 02        	lda	($2),y                  ; 0x2002 <__heap_default_limit+0x1002>
    719e: 85 17        	sta	$17                     ; 0x2017 <next_line+0x2>
    71a0: a2 27        	ldx	#$27
    71a2: 86 04        	stx	$4                      ; 0x2004 <__heap_default_limit+0x1004>
    71a4: a2 93        	ldx	#$93
    71a6: 86 05        	stx	$5                      ; 0x2005 <__heap_default_limit+0x1005>
    71a8: a2 07        	ldx	#$7
    71aa: 86 08        	stx	$8                      ; 0x2008 <__heap_default_limit+0x1008>
    71ac: a2 92        	ldx	#$92
    71ae: 86 09        	stx	$9                      ; 0x2009 <__heap_default_limit+0x1009>
    71b0: 64 0a        	stz	$a                      ; 0x200a <__heap_default_limit+0x100a>
    71b2: 64 0b        	stz	$b                      ; 0x200b <__heap_default_limit+0x100b>
    71b4: 64 0c        	stz	$c                      ; 0x200c <__heap_default_limit+0x100c>
    71b6: a2 00        	ldx	#$0
    71b8: 8a           	txa
    71b9: 20 67 44     	jsr	$4467 <messagebox>
    71bc: aa           	tax
    71bd: f0 03        	beq	$71c2 <donehypclosefile9+0xca2>
    71bf: 4c c1 74     	jmp	$74c1 <donehypclosefile9+0xfa1>
    71c2: 4c ef 59     	jmp	$59ef <navi+0x345>
    71c5: 5a           	phy
    71c6: a0 17        	ldy	#$17
    71c8: b1 02        	lda	($2),y                  ; 0x2002 <__heap_default_limit+0x1002>
    71ca: 85 1c        	sta	$1c                     ; 0x201c <next_line+0x7>
    71cc: c8           	iny
    71cd: b1 02        	lda	($2),y                  ; 0x2002 <__heap_default_limit+0x1002>
    71cf: 7a           	ply
    71d0: 85 1d        	sta	$1d                     ; 0x201d <next_line+0x8>
    71d2: a5 1b        	lda	$1b                     ; 0x201b <next_line+0x6>
    71d4: f0 03        	beq	$71d9 <donehypclosefile9+0xcb9>
    71d6: 4c 38 78     	jmp	$7838 <donehypd81dosattach10+0x361>
    71d9: 4c 1e 78     	jmp	$781e <donehypd81dosattach10+0x347>
    71dc: 86 05        	stx	$5                      ; 0x2005 <__heap_default_limit+0x1005>
    71de: a2 09        	ldx	#$9
    71e0: 86 06        	stx	$6                      ; 0x2006 <__heap_default_limit+0x1006>
    71e2: a2 92        	ldx	#$92
    71e4: 4c e6 68     	jmp	$68e6 <donehypclosefile9+0x3c6>
    71e7: e6 16        	inc	$16                     ; 0x2016 <next_line+0x1>
    71e9: 18           	clc
    71ea: a0 14        	ldy	#$14
    71ec: b1 02        	lda	($2),y                  ; 0x2002 <__heap_default_limit+0x1002>
    71ee: 69 4a        	adc	#$4a
    71f0: 85 1a        	sta	$1a                     ; 0x201a <next_line+0x5>
    71f2: a0 16        	ldy	#$16
    71f4: b1 02        	lda	($2),y                  ; 0x2002 <__heap_default_limit+0x1002>
    71f6: 69 00        	adc	#$0
    71f8: 85 1b        	sta	$1b                     ; 0x201b <next_line+0x6>
    71fa: a6 1a        	ldx	$1a                     ; 0x201a <next_line+0x5>
    71fc: 86 04        	stx	$4                      ; 0x2004 <__heap_default_limit+0x1004>
    71fe: 85 05        	sta	$5                      ; 0x2005 <__heap_default_limit+0x1005>
    7200: a2 67        	ldx	#$67
    7202: 86 06        	stx	$6                      ; 0x2006 <__heap_default_limit+0x1006>
    7204: a2 9a        	ldx	#$9a
    7206: 86 07        	stx	$7                      ; 0x2007 <__heap_default_limit+0x1007>
    7208: a2 00        	ldx	#$0
    720a: a9 29        	lda	#$29
    720c: 20 6c 90     	jsr	$906c <memcpy>
    720f: 18           	clc
    7210: a5 02        	lda	$2                      ; 0x2002 <__heap_default_limit+0x1002>
    7212: 69 1b        	adc	#$1b
    7214: 85 20        	sta	$20                     ; 0x2020 <next_line+0xb>
    7216: a5 03        	lda	$3                      ; 0x2003 <__heap_default_limit+0x1003>
    7218: 69 00        	adc	#$0
    721a: 85 21        	sta	$21                     ; 0x2021 <_start>
    721c: a6 20        	ldx	$20                     ; 0x2020 <next_line+0xb>
    721e: 86 04        	stx	$4                      ; 0x2004 <__heap_default_limit+0x1004>
    7220: 85 05        	sta	$5                      ; 0x2005 <__heap_default_limit+0x1005>
    7222: a2 0a        	ldx	#$a
    7224: a5 16        	lda	$16                     ; 0x2016 <next_line+0x1>
    7226: 20 66 8d     	jsr	$8d66 <__udivmodqi4>
    7229: a8           	tay
    722a: b2 20        	lda	($20),z                 ; 0x2020 <next_line+0xb>
    722c: aa           	tax
    722d: 18           	clc
    722e: 98           	tya
    722f: 69 30        	adc	#$30
    7231: a0 64        	ldy	#$64
    7233: 91 1e        	sta	($1e),y                 ; 0x201e <next_line+0x9>
    7235: 8a           	txa
    7236: 09 30        	ora	#$30
    7238: c8           	iny
    7239: 91 1e        	sta	($1e),y                 ; 0x201e <next_line+0x9>
    723b: a6 1a        	ldx	$1a                     ; 0x201a <next_line+0x5>
    723d: 86 04        	stx	$4                      ; 0x2004 <__heap_default_limit+0x1004>
    723f: a6 1b        	ldx	$1b                     ; 0x201b <next_line+0x6>
    7241: 86 05        	stx	$5                      ; 0x2005 <__heap_default_limit+0x1005>
    7243: a6 1a        	ldx	$1a                     ; 0x201a <next_line+0x5>
    7245: 86 06        	stx	$6                      ; 0x2006 <__heap_default_limit+0x1006>
    7247: a6 1b        	ldx	$1b                     ; 0x201b <next_line+0x6>
    7249: 86 07        	stx	$7                      ; 0x2007 <__heap_default_limit+0x1007>
    724b: 20 c7 46     	jsr	$46c7 <inputbox>
    724e: a6 1a        	ldx	$1a                     ; 0x201a <next_line+0x5>
    7250: 86 04        	stx	$4                      ; 0x2004 <__heap_default_limit+0x1004>
    7252: a6 1b        	ldx	$1b                     ; 0x201b <next_line+0x6>
    7254: 86 05        	stx	$5                      ; 0x2005 <__heap_default_limit+0x1005>
    7256: 20 bd 8a     	jsr	$8abd <atoi>
    7259: 85 16        	sta	$16                     ; 0x2016 <next_line+0x1>
    725b: a0 48        	ldy	#$48
    725d: b1 1e        	lda	($1e),y                 ; 0x201e <next_line+0x9>
    725f: aa           	tax
    7260: c8           	iny
    7261: b1 1e        	lda	($1e),y                 ; 0x201e <next_line+0x9>
    7263: a4 1c        	ldy	$1c                     ; 0x201c <next_line+0x7>
    7265: 84 06        	sty	$6                      ; 0x2006 <__heap_default_limit+0x1006>
    7267: a4 1d        	ldy	$1d                     ; 0x201d <next_line+0x8>
    7269: 84 07        	sty	$7                      ; 0x2007 <__heap_default_limit+0x1007>
    726b: a4 18        	ldy	$18                     ; 0x2018 <next_line+0x3>
    726d: 84 08        	sty	$8                      ; 0x2008 <__heap_default_limit+0x1008>
    726f: a4 19        	ldy	$19                     ; 0x2019 <next_line+0x4>
    7271: 84 09        	sty	$9                      ; 0x2009 <__heap_default_limit+0x1009>
    7273: 85 04        	sta	$4                      ; 0x2004 <__heap_default_limit+0x1004>
    7275: a4 16        	ldy	$16                     ; 0x2016 <next_line+0x1>
    7277: 84 05        	sty	$5                      ; 0x2005 <__heap_default_limit+0x1005>
    7279: a0 13        	ldy	#$13
    727b: b1 02        	lda	($2),y                  ; 0x2002 <__heap_default_limit+0x1002>
    727d: 20 79 2b     	jsr	$2b79 <FreeTracks>
    7280: a6 16        	ldx	$16                     ; 0x2016 <next_line+0x1>
    7282: e0 02        	cpx	#$2
    7284: b0 03        	bcs	$7289 <donehypclosefile9+0xd69>
    7286: 4c f0 7a     	jmp	$7af0 <donehypfindfirst11+0xae>
    7289: 4c be 7a     	jmp	$7abe <donehypfindfirst11+0x7c>
    728c: a6 1d        	ldx	$1d                     ; 0x201d <next_line+0x8>
    728e: 86 04        	stx	$4                      ; 0x2004 <__heap_default_limit+0x1004>
    7290: 4c 78 73     	jmp	$7378 <donehypclosefile9+0xe58>
    7293: c8           	iny
    7294: c0 51        	cpy	#$51
    7296: d0 03        	bne	$729b <donehypclosefile9+0xd7b>
    7298: 4c f1 83     	jmp	$83f1 <donehypd81dosattach22+0x6>
    729b: a9 01        	lda	#$1
    729d: 84 1c        	sty	$1c                     ; 0x201c <next_line+0x7>
    729f: c9 29        	cmp	#$29
    72a1: b0 f0        	bcs	$7293 <donehypclosefile9+0xd73>
    72a3: a6 04        	ldx	$4                      ; 0x2004 <__heap_default_limit+0x1004>
    72a5: 86 1d        	stx	$1d                     ; 0x201d <next_line+0x8>
    72a7: 85 1f        	sta	$1f                     ; 0x201f <next_line+0xa>
    72a9: 85 1a        	sta	$1a                     ; 0x201a <next_line+0x5>
    72ab: c6 1a        	dec	$1a                     ; 0x201a <next_line+0x5>
    72ad: a9 02        	lda	#$2
    72af: 25 2f        	and	$2f                     ; 0x202f <__do_init_stack>
    72b1: f0 19        	beq	$72cc <donehypclosefile9+0xdac>
    72b3: a6 1a        	ldx	$1a                     ; 0x201a <next_line+0x5>
    72b5: 98           	tya
    72b6: 20 c2 2e     	jsr	$2ec2 <isallocatedBAMtracksector>
    72b9: a4 1c        	ldy	$1c                     ; 0x201c <next_line+0x7>
    72bb: aa           	tax
    72bc: d0 0e        	bne	$72cc <donehypclosefile9+0xdac>
    72be: a6 1f        	ldx	$1f                     ; 0x201f <next_line+0xa>
    72c0: 98           	tya
    72c1: 20 c2 2e     	jsr	$2ec2 <isallocatedBAMtracksector>
    72c4: a4 1c        	ldy	$1c                     ; 0x201c <next_line+0x7>
    72c6: aa           	tax
    72c7: d0 03        	bne	$72cc <donehypclosefile9+0xdac>
    72c9: 4c 8c 72     	jmp	$728c <donehypclosefile9+0xd6c>
    72cc: a6 1a        	ldx	$1a                     ; 0x201a <next_line+0x5>
    72ce: 98           	tya
    72cf: 84 1b        	sty	$1b                     ; 0x201b <next_line+0x6>
    72d1: 20 bb 34     	jsr	$34bb <tracksectorstring>
    72d4: a6 1d        	ldx	$1d                     ; 0x201d <next_line+0x8>
    72d6: 86 04        	stx	$4                      ; 0x2004 <__heap_default_limit+0x1004>
    72d8: 06 04        	asl	$4                      ; 0x2004 <__heap_default_limit+0x1004>
    72da: a5 1e        	lda	$1e                     ; 0x201e <next_line+0x9>
    72dc: 2a           	rol
    72dd: 06 04        	asl	$4                      ; 0x2004 <__heap_default_limit+0x1004>
    72df: 2a           	rol
    72e0: a2 f2        	ldx	#$f2
    72e2: 86 04        	stx	$4                      ; 0x2004 <__heap_default_limit+0x1004>
    72e4: a2 9a        	ldx	#$9a
    72e6: 86 05        	stx	$5                      ; 0x2005 <__heap_default_limit+0x1005>
    72e8: a2 3b        	ldx	#$3b
    72ea: 86 06        	stx	$6                      ; 0x2006 <__heap_default_limit+0x1006>
    72ec: a2 9d        	ldx	#$9d
    72ee: 86 07        	stx	$7                      ; 0x2007 <__heap_default_limit+0x1007>
    72f0: 20 15 46     	jsr	$4615 <progress>
    72f3: a6 1a        	ldx	$1a                     ; 0x201a <next_line+0x5>
    72f5: 86 04        	stx	$4                      ; 0x2004 <__heap_default_limit+0x1004>
    72f7: a6 1b        	ldx	$1b                     ; 0x201b <next_line+0x6>
    72f9: a5 19        	lda	$19                     ; 0x2019 <next_line+0x4>
    72fb: 20 aa 23     	jsr	$23aa <ReadSector>
    72fe: c9 02        	cmp	#$2
    7300: a2 01        	ldx	#$1
    7302: 90 03        	bcc	$7307 <donehypclosefile9+0xde7>
    7304: 4c b5 81     	jmp	$81b5 <donehyp1att19+0x62>
    7307: a0 fd        	ldy	#$fd
    7309: 84 04        	sty	$4                      ; 0x2004 <__heap_default_limit+0x1004>
    730b: a0 0f        	ldy	#$f
    730d: 84 05        	sty	$5                      ; 0x2005 <__heap_default_limit+0x1005>
    730f: 64 06        	stz	$6                      ; 0x2006 <__heap_default_limit+0x1006>
    7311: a0 19        	ldy	#$19
    7313: 84 07        	sty	$7                      ; 0x2007 <__heap_default_limit+0x1007>
    7315: 64 08        	stz	$8                      ; 0x2008 <__heap_default_limit+0x1008>
    7317: 64 09        	stz	$9                      ; 0x2009 <__heap_default_limit+0x1009>
    7319: 64 0a        	stz	$a                      ; 0x200a <__heap_default_limit+0x100a>
    731b: 86 0b        	stx	$b                      ; 0x200b <__heap_default_limit+0x100b>
    731d: a2 6c        	ldx	#$6c
    731f: a9 00        	lda	#$0
    7321: 20 a5 89     	jsr	$89a5 <lcopy>
    7324: a2 fd        	ldx	#$fd
    7326: 86 04        	stx	$4                      ; 0x2004 <__heap_default_limit+0x1004>
    7328: a2 0f        	ldx	#$f
    732a: 86 05        	stx	$5                      ; 0x2005 <__heap_default_limit+0x1005>
    732c: 64 06        	stz	$6                      ; 0x2006 <__heap_default_limit+0x1006>
    732e: a2 1a        	ldx	#$1a
    7330: 86 07        	stx	$7                      ; 0x2007 <__heap_default_limit+0x1007>
    7332: 64 08        	stz	$8                      ; 0x2008 <__heap_default_limit+0x1008>
    7334: 64 09        	stz	$9                      ; 0x2009 <__heap_default_limit+0x1009>
    7336: 64 0a        	stz	$a                      ; 0x200a <__heap_default_limit+0x100a>
    7338: a2 01        	ldx	#$1
    733a: 86 0b        	stx	$b                      ; 0x200b <__heap_default_limit+0x100b>
    733c: a2 6d        	ldx	#$6d
    733e: a9 00        	lda	#$0
    7340: 20 a5 89     	jsr	$89a5 <lcopy>
    7343: 18           	clc
    7344: a5 1d        	lda	$1d                     ; 0x201d <next_line+0x8>
    7346: 69 6a        	adc	#$6a
    7348: 85 07        	sta	$7                      ; 0x2007 <__heap_default_limit+0x1007>
    734a: a5 1e        	lda	$1e                     ; 0x201e <next_line+0x9>
    734c: 69 00        	adc	#$0
    734e: 85 08        	sta	$8                      ; 0x2008 <__heap_default_limit+0x1008>
    7350: a9 00        	lda	#$0
    7352: 69 08        	adc	#$8
    7354: 64 04        	stz	$4                      ; 0x2004 <__heap_default_limit+0x1004>
    7356: 64 05        	stz	$5                      ; 0x2005 <__heap_default_limit+0x1005>
    7358: 64 06        	stz	$6                      ; 0x2006 <__heap_default_limit+0x1006>
    735a: 85 09        	sta	$9                      ; 0x2009 <__heap_default_limit+0x1009>
    735c: 64 0a        	stz	$a                      ; 0x200a <__heap_default_limit+0x100a>
    735e: a2 02        	ldx	#$2
    7360: 86 0b        	stx	$b                      ; 0x200b <__heap_default_limit+0x100b>
    7362: a2 19        	ldx	#$19
    7364: a9 00        	lda	#$0
    7366: 20 a5 89     	jsr	$89a5 <lcopy>
    7369: 18           	clc
    736a: a5 1d        	lda	$1d                     ; 0x201d <next_line+0x8>
    736c: 69 02        	adc	#$2
    736e: 85 04        	sta	$4                      ; 0x2004 <__heap_default_limit+0x1004>
    7370: a5 1e        	lda	$1e                     ; 0x201e <next_line+0x9>
    7372: 69 00        	adc	#$0
    7374: a4 1c        	ldy	$1c                     ; 0x201c <next_line+0x7>
    7376: 85 1e        	sta	$1e                     ; 0x201e <next_line+0x9>
    7378: 18           	clc
    7379: a5 1f        	lda	$1f                     ; 0x201f <next_line+0xa>
    737b: 69 02        	adc	#$2
    737d: 4c 9f 72     	jmp	$729f <donehypclosefile9+0xd7f>
    7380: 64 16        	stz	$16                     ; 0x2016 <next_line+0x1>
    7382: 64 1a        	stz	$1a                     ; 0x201a <next_line+0x5>
    7384: a0 08        	ldy	#$8
    7386: b1 02        	lda	($2),y                  ; 0x2002 <__heap_default_limit+0x1002>
    7388: 85 04        	sta	$4                      ; 0x2004 <__heap_default_limit+0x1004>
    738a: c8           	iny
    738b: b1 02        	lda	($2),y                  ; 0x2002 <__heap_default_limit+0x1002>
    738d: 85 05        	sta	$5                      ; 0x2005 <__heap_default_limit+0x1005>
    738f: a0 17        	ldy	#$17
    7391: b1 02        	lda	($2),y                  ; 0x2002 <__heap_default_limit+0x1002>
    7393: 85 1e        	sta	$1e                     ; 0x201e <next_line+0x9>
    7395: c8           	iny
    7396: b1 02        	lda	($2),y                  ; 0x2002 <__heap_default_limit+0x1002>
    7398: 85 1f        	sta	$1f                     ; 0x201f <next_line+0xa>
    739a: a2 00        	ldx	#$0
    739c: e4 1a        	cpx	$1a                     ; 0x201a <next_line+0x5>
    739e: d0 0b        	bne	$73ab <donehypclosefile9+0xe8b>
    73a0: a0 02        	ldy	#$2
    73a2: b1 1e        	lda	($1e),y                 ; 0x201e <next_line+0x9>
    73a4: c5 16        	cmp	$16                     ; 0x2016 <next_line+0x1>
    73a6: b0 07        	bcs	$73af <donehypclosefile9+0xe8f>
    73a8: 4c e3 73     	jmp	$73e3 <donehypclosefile9+0xec3>
    73ab: e4 1a        	cpx	$1a                     ; 0x201a <next_line+0x5>
    73ad: 90 34        	bcc	$73e3 <donehypclosefile9+0xec3>
    73af: a6 1a        	ldx	$1a                     ; 0x201a <next_line+0x5>
    73b1: 86 04        	stx	$4                      ; 0x2004 <__heap_default_limit+0x1004>
    73b3: a6 16        	ldx	$16                     ; 0x2016 <next_line+0x1>
    73b5: a0 13        	ldy	#$13
    73b7: b1 02        	lda	($2),y                  ; 0x2002 <__heap_default_limit+0x1002>
    73b9: 20 47 35     	jsr	$3547 <getdirententry>
    73bc: a9 10        	lda	#$10
    73be: a0 02        	ldy	#$2
    73c0: 31 04        	and	($4),y                  ; 0x2004 <__heap_default_limit+0x1004>
    73c2: f0 13        	beq	$73d7 <donehypclosefile9+0xeb7>
    73c4: a0 05        	ldy	#$5
    73c6: b1 04        	lda	($4),y                  ; 0x2004 <__heap_default_limit+0x1004>
    73c8: c9 2e        	cmp	#$2e
    73ca: d0 0b        	bne	$73d7 <donehypclosefile9+0xeb7>
    73cc: a0 06        	ldy	#$6
    73ce: b1 04        	lda	($4),y                  ; 0x2004 <__heap_default_limit+0x1004>
    73d0: c9 2e        	cmp	#$2e
    73d2: d0 03        	bne	$73d7 <donehypclosefile9+0xeb7>
    73d4: 4c 79 7e     	jmp	$7e79 <donehypclosedir16+0x1d1>
    73d7: e6 16        	inc	$16                     ; 0x2016 <next_line+0x1>
    73d9: f0 03        	beq	$73de <donehypclosefile9+0xebe>
    73db: 4c 9a 73     	jmp	$739a <donehypclosefile9+0xe7a>
    73de: e6 1a        	inc	$1a                     ; 0x201a <next_line+0x5>
    73e0: 4c 9a 73     	jmp	$739a <donehypclosefile9+0xe7a>
    73e3: a5 04        	lda	$4                      ; 0x2004 <__heap_default_limit+0x1004>
    73e5: a0 08        	ldy	#$8
    73e7: 91 02        	sta	($2),y                  ; 0x2002 <__heap_default_limit+0x1002>
    73e9: a5 05        	lda	$5                      ; 0x2005 <__heap_default_limit+0x1005>
    73eb: c8           	iny
    73ec: 4c ed 59     	jmp	$59ed <navi+0x343>
    73ef: 5a           	phy
    73f0: a0 19        	ldy	#$19
    73f2: b1 02        	lda	($2),y                  ; 0x2002 <__heap_default_limit+0x1002>
    73f4: 7a           	ply
    73f5: c9 91        	cmp	#$91
    73f7: d0 03        	bne	$73fc <donehypclosefile9+0xedc>
    73f9: 4c e5 5f     	jmp	$5fe5 <navi+0x93b>
    73fc: 4c 61 68     	jmp	$6861 <donehypclosefile9+0x341>
    73ff: 64 16        	stz	$16                     ; 0x2016 <next_line+0x1>
    7401: 4c f9 61     	jmp	$61f9 <navi+0xb4f>
    7404: a2 07        	ldx	#$7
    7406: 86 04        	stx	$4                      ; 0x2004 <__heap_default_limit+0x1004>
    7408: a2 92        	ldx	#$92
    740a: 86 05        	stx	$5                      ; 0x2005 <__heap_default_limit+0x1005>
    740c: a5 04        	lda	$4                      ; 0x2004 <__heap_default_limit+0x1004>
    740e: a0 19        	ldy	#$19
    7410: 91 02        	sta	($2),y                  ; 0x2002 <__heap_default_limit+0x1002>
    7412: a5 05        	lda	$5                      ; 0x2005 <__heap_default_limit+0x1005>
    7414: c8           	iny
    7415: 91 02        	sta	($2),y                  ; 0x2002 <__heap_default_limit+0x1002>
    7417: 88           	dey
    7418: b1 02        	lda	($2),y                  ; 0x2002 <__heap_default_limit+0x1002>
    741a: 85 04        	sta	$4                      ; 0x2004 <__heap_default_limit+0x1004>
    741c: c8           	iny
    741d: b1 02        	lda	($2),y                  ; 0x2002 <__heap_default_limit+0x1002>
    741f: 85 05        	sta	$5                      ; 0x2005 <__heap_default_limit+0x1005>
    7421: 88           	dey
    7422: b1 02        	lda	($2),y                  ; 0x2002 <__heap_default_limit+0x1002>
    7424: 85 06        	sta	$6                      ; 0x2006 <__heap_default_limit+0x1006>
    7426: c8           	iny
    7427: b1 02        	lda	($2),y                  ; 0x2002 <__heap_default_limit+0x1002>
    7429: 85 07        	sta	$7                      ; 0x2007 <__heap_default_limit+0x1007>
    742b: 88           	dey
    742c: b1 02        	lda	($2),y                  ; 0x2002 <__heap_default_limit+0x1002>
    742e: 85 08        	sta	$8                      ; 0x2008 <__heap_default_limit+0x1008>
    7430: c8           	iny
    7431: b1 02        	lda	($2),y                  ; 0x2002 <__heap_default_limit+0x1002>
    7433: 85 09        	sta	$9                      ; 0x2009 <__heap_default_limit+0x1009>
    7435: 64 0a        	stz	$a                      ; 0x200a <__heap_default_limit+0x100a>
    7437: 64 0b        	stz	$b                      ; 0x200b <__heap_default_limit+0x100b>
    7439: 64 0c        	stz	$c                      ; 0x200c <__heap_default_limit+0x100c>
    743b: a2 00        	ldx	#$0
    743d: a9 02        	lda	#$2
    743f: 20 67 44     	jsr	$4467 <messagebox>
    7442: a2 f2        	ldx	#$f2
    7444: 86 04        	stx	$4                      ; 0x2004 <__heap_default_limit+0x1004>
    7446: a2 9a        	ldx	#$9a
    7448: 86 05        	stx	$5                      ; 0x2005 <__heap_default_limit+0x1005>
    744a: a2 de        	ldx	#$de
    744c: 86 06        	stx	$6                      ; 0x2006 <__heap_default_limit+0x1006>
    744e: a2 94        	ldx	#$94
    7450: 86 07        	stx	$7                      ; 0x2007 <__heap_default_limit+0x1007>
    7452: a9 14        	lda	#$14
    7454: 20 15 46     	jsr	$4615 <progress>
    7457: b2 18        	lda	($18),z                 ; 0x2018 <next_line+0x3>
    7459: 48           	pha
    745a: a0 13        	ldy	#$13
    745c: b1 02        	lda	($2),y                  ; 0x2002 <__heap_default_limit+0x1002>
    745e: 85 16        	sta	$16                     ; 0x2016 <next_line+0x1>
    7460: 68           	pla
    7461: a6 16        	ldx	$16                     ; 0x2016 <next_line+0x1>
    7463: 20 0d 4f     	jsr	$4f0d <UpdateSectors>
    7466: a5 16        	lda	$16                     ; 0x2016 <next_line+0x1>
    7468: 20 c5 47     	jsr	$47c5 <Deselect>
    746b: a2 01        	ldx	#$1
    746d: a0 13        	ldy	#$13
    746f: b1 02        	lda	($2),y                  ; 0x2002 <__heap_default_limit+0x1002>
    7471: f0 02        	beq	$7475 <donehypclosefile9+0xf55>
    7473: a2 00        	ldx	#$0
    7475: a0 01        	ldy	#$1
    7477: 98           	tya
    7478: a0 19        	ldy	#$19
    747a: 91 02        	sta	($2),y                  ; 0x2002 <__heap_default_limit+0x1002>
    747c: a9 01        	lda	#$1
    747e: e0 00        	cpx	#$0
    7480: d0 02        	bne	$7484 <donehypclosefile9+0xf64>
    7482: a9 00        	lda	#$0
    7484: 0a           	asl
    7485: a8           	tay
    7486: b9 27 00     	lda	$27,y                   ; 0x27 <midnight>
    7489: 48           	pha
    748a: b9 28 00     	lda	$28,y                   ; 0x28 <midnight+0x1>
    748d: a8           	tay
    748e: 68           	pla
    748f: 85 04        	sta	$4                      ; 0x2004 <__heap_default_limit+0x1004>
    7491: 84 05        	sty	$5                      ; 0x2005 <__heap_default_limit+0x1005>
    7493: b2 04        	lda	($4),z                  ; 0x2004 <__heap_default_limit+0x1004>
    7495: e0 00        	cpx	#$0
    7497: d0 0a        	bne	$74a3 <donehypclosefile9+0xf83>
    7499: 64 04        	stz	$4                      ; 0x2004 <__heap_default_limit+0x1004>
    749b: 48           	pha
    749c: a9 00        	lda	#$0
    749e: a0 19        	ldy	#$19
    74a0: 91 02        	sta	($2),y                  ; 0x2002 <__heap_default_limit+0x1002>
    74a2: 68           	pla
    74a3: 48           	pha
    74a4: a0 19        	ldy	#$19
    74a6: 4c 61 6b     	jmp	$6b61 <donehypclosefile9+0x641>
    74a9: 8a           	txa
    74aa: 09 02        	ora	#$2
    74ac: 91 18        	sta	($18),y                 ; 0x2018 <next_line+0x3>
    74ae: a0 13        	ldy	#$13
    74b0: b1 02        	lda	($2),y                  ; 0x2002 <__heap_default_limit+0x1002>
    74b2: 20 c5 47     	jsr	$47c5 <Deselect>
    74b5: 4c ef 59     	jmp	$59ef <navi+0x345>
    74b8: a2 f8        	ldx	#$f8
    74ba: 86 06        	stx	$6                      ; 0x2006 <__heap_default_limit+0x1006>
    74bc: a2 95        	ldx	#$95
    74be: 4c 93 71     	jmp	$7193 <donehypclosefile9+0xc73>
    74c1: a9 80        	lda	#$80
    74c3: 52 16        	eor	($16),z                 ; 0x2016 <next_line+0x1>
    74c5: aa           	tax
    74c6: a9 4a        	lda	#$4a
    74c8: 8d 40 d6     	sta	$d640                   ; 0xd640 <__heap_start+0x3646>
    74cb: b8           	clv
    74cc: 90 05        	bcc	$74d3 <errhypd81dosattach10>
    74ce: 85 04        	sta	$4                      ; 0x2004 <__heap_default_limit+0x1004>
    74d0: 4c d7 74     	jmp	$74d7 <donehypd81dosattach10>

000074d3 <errhypd81dosattach10>:
    74d3: a9 ff        	lda	#$ff
    74d5: 85 04        	sta	$4                      ; 0x2004 <__heap_default_limit+0x1004>

000074d7 <donehypd81dosattach10>:
    74d7: ea           	nop
    74d8: a0 46        	ldy	#$46
    74da: a9 01        	lda	#$1
    74dc: 11 16        	ora	($16),y                 ; 0x2016 <next_line+0x1>
    74de: 91 16        	sta	($16),y                 ; 0x2016 <next_line+0x1>
    74e0: a9 28        	lda	#$28
    74e2: c8           	iny
    74e3: 91 16        	sta	($16),y                 ; 0x2016 <next_line+0x1>
    74e5: a9 01        	lda	#$1
    74e7: c8           	iny
    74e8: 91 16        	sta	($16),y                 ; 0x2016 <next_line+0x1>
    74ea: a9 50        	lda	#$50
    74ec: c8           	iny
    74ed: 91 16        	sta	($16),y                 ; 0x2016 <next_line+0x1>
    74ef: b2 16        	lda	($16),z                 ; 0x2016 <next_line+0x1>
    74f1: 4c 5e 6b     	jmp	$6b5e <donehypclosefile9+0x63e>
    74f4: a0 01        	ldy	#$1
    74f6: e0 0d        	cpx	#$d
    74f8: f0 03        	beq	$74fd <donehypd81dosattach10+0x26>
    74fa: 4c c5 71     	jmp	$71c5 <donehypclosefile9+0xca5>
    74fd: 5a           	phy
    74fe: a0 17        	ldy	#$17
    7500: b1 02        	lda	($2),y                  ; 0x2002 <__heap_default_limit+0x1002>
    7502: 85 20        	sta	$20                     ; 0x2020 <next_line+0xb>
    7504: c8           	iny
    7505: b1 02        	lda	($2),y                  ; 0x2002 <__heap_default_limit+0x1002>
    7507: 7a           	ply
    7508: 85 21        	sta	$21                     ; 0x2021 <_start>
    750a: b1 20        	lda	($20),y                 ; 0x2020 <next_line+0xb>
    750c: 64 04        	stz	$4                      ; 0x2004 <__heap_default_limit+0x1004>
    750e: aa           	tax
    750f: a0 13        	ldy	#$13
    7511: b1 02        	lda	($2),y                  ; 0x2002 <__heap_default_limit+0x1002>
    7513: 20 47 35     	jsr	$3547 <getdirententry>
    7516: a6 04        	ldx	$4                      ; 0x2004 <__heap_default_limit+0x1004>
    7518: 86 1a        	stx	$1a                     ; 0x201a <next_line+0x5>
    751a: a6 05        	ldx	$5                      ; 0x2005 <__heap_default_limit+0x1005>
    751c: 86 1b        	stx	$1b                     ; 0x201b <next_line+0x6>
    751e: a9 00        	lda	#$0
    7520: 48           	pha
    7521: a0 12        	ldy	#$12
    7523: b1 02        	lda	($2),y                  ; 0x2002 <__heap_default_limit+0x1002>
    7525: c9 01        	cmp	#$1
    7527: 68           	pla
    7528: 2a           	rol
    7529: a6 1e        	ldx	$1e                     ; 0x201e <next_line+0x9>
    752b: e0 01        	cpx	#$1
    752d: 2a           	rol
    752e: 85 04        	sta	$4                      ; 0x2004 <__heap_default_limit+0x1004>
    7530: a6 1f        	ldx	$1f                     ; 0x201f <next_line+0xa>
    7532: e0 01        	cpx	#$1
    7534: 2a           	rol
    7535: a6 1c        	ldx	$1c                     ; 0x201c <next_line+0x7>
    7537: e0 01        	cpx	#$1
    7539: 2a           	rol
    753a: aa           	tax
    753b: a5 1d        	lda	$1d                     ; 0x201d <next_line+0x8>
    753d: 18           	clc
    753e: 65 16        	adc	$16                     ; 0x2016 <next_line+0x1>
    7540: 85 08        	sta	$8                      ; 0x2008 <__heap_default_limit+0x1008>
    7542: 88           	dey
    7543: b1 02        	lda	($2),y                  ; 0x2002 <__heap_default_limit+0x1002>
    7545: 65 18        	adc	$18                     ; 0x2018 <next_line+0x3>
    7547: 85 06        	sta	$6                      ; 0x2006 <__heap_default_limit+0x1006>
    7549: 8a           	txa
    754a: 65 04        	adc	$4                      ; 0x2004 <__heap_default_limit+0x1004>
    754c: aa           	tax
    754d: a0 01        	ldy	#$1
    754f: b1 20        	lda	($20),y                 ; 0x2020 <next_line+0xb>
    7551: 4a           	lsr
    7552: 64 04        	stz	$4                      ; 0x2004 <__heap_default_limit+0x1004>
    7554: 66 04        	ror	$4                      ; 0x2004 <__heap_default_limit+0x1004>
    7556: 4a           	lsr
    7557: 85 05        	sta	$5                      ; 0x2005 <__heap_default_limit+0x1005>
    7559: 66 04        	ror	$4                      ; 0x2004 <__heap_default_limit+0x1004>
    755b: a9 00        	lda	#$0
    755d: 18           	clc
    755e: 65 04        	adc	$4                      ; 0x2004 <__heap_default_limit+0x1004>
    7560: a8           	tay
    7561: a5 08        	lda	$8                      ; 0x2008 <__heap_default_limit+0x1008>
    7563: 65 05        	adc	$5                      ; 0x2005 <__heap_default_limit+0x1005>
    7565: 85 07        	sta	$7                      ; 0x2007 <__heap_default_limit+0x1007>
    7567: a5 06        	lda	$6                      ; 0x2006 <__heap_default_limit+0x1006>
    7569: 69 00        	adc	#$0
    756b: 85 05        	sta	$5                      ; 0x2005 <__heap_default_limit+0x1005>
    756d: 8a           	txa
    756e: 69 00        	adc	#$0
    7570: 85 04        	sta	$4                      ; 0x2004 <__heap_default_limit+0x1004>
    7572: 18           	clc
    7573: 98           	tya
    7574: 69 00        	adc	#$0
    7576: 85 0c        	sta	$c                      ; 0x200c <__heap_default_limit+0x100c>
    7578: a5 07        	lda	$7                      ; 0x2007 <__heap_default_limit+0x1007>
    757a: 69 3e        	adc	#$3e
    757c: a8           	tay
    757d: a5 05        	lda	$5                      ; 0x2005 <__heap_default_limit+0x1005>
    757f: 69 00        	adc	#$0
    7581: aa           	tax
    7582: a5 04        	lda	$4                      ; 0x2004 <__heap_default_limit+0x1004>
    7584: 69 08        	adc	#$8
    7586: 86 04        	stx	$4                      ; 0x2004 <__heap_default_limit+0x1004>
    7588: 85 05        	sta	$5                      ; 0x2005 <__heap_default_limit+0x1005>
    758a: a2 9e        	ldx	#$9e
    758c: 86 06        	stx	$6                      ; 0x2006 <__heap_default_limit+0x1006>
    758e: a2 9f        	ldx	#$9f
    7590: 86 07        	stx	$7                      ; 0x2007 <__heap_default_limit+0x1007>
    7592: 64 08        	stz	$8                      ; 0x2008 <__heap_default_limit+0x1008>
    7594: 64 09        	stz	$9                      ; 0x2009 <__heap_default_limit+0x1009>
    7596: a2 40        	ldx	#$40
    7598: 86 0a        	stx	$a                      ; 0x200a <__heap_default_limit+0x100a>
    759a: 64 0b        	stz	$b                      ; 0x200b <__heap_default_limit+0x100b>
    759c: 5a           	phy
    759d: fa           	plx
    759e: a5 0c        	lda	$c                      ; 0x200c <__heap_default_limit+0x100c>
    75a0: 20 a5 89     	jsr	$89a5 <lcopy>
    75a3: a9 01        	lda	#$1
    75a5: a0 46        	ldy	#$46
    75a7: 31 20        	and	($20),y                 ; 0x2020 <next_line+0xb>
    75a9: 29 01        	and	#$1
    75ab: aa           	tax
    75ac: a0 02        	ldy	#$2
    75ae: b1 1a        	lda	($1a),y                 ; 0x201a <next_line+0x5>
    75b0: e0 00        	cpx	#$0
    75b2: f0 03        	beq	$75b7 <donehypd81dosattach10+0xe0>
    75b4: 4c ac 7c     	jmp	$7cac <donehypclosedir16+0x4>
    75b7: 29 10        	and	#$10
    75b9: f0 03        	beq	$75be <donehypd81dosattach10+0xe7>
    75bb: 4c 0b 80     	jmp	$800b <donehypchdir17+0x15b>
    75be: b2 20        	lda	($20),z                 ; 0x2020 <next_line+0xb>
    75c0: 85 16        	sta	$16                     ; 0x2016 <next_line+0x1>
    75c2: a2 9e        	ldx	#$9e
    75c4: 86 04        	stx	$4                      ; 0x2004 <__heap_default_limit+0x1004>
    75c6: a2 9f        	ldx	#$9f
    75c8: 86 05        	stx	$5                      ; 0x2005 <__heap_default_limit+0x1005>
    75ca: 20 9c 21     	jsr	$219c <hyppo_setname>
    75cd: ae 7b 9f     	ldx	$9f7b                   ; 0x9f7b <legacyHDOSstate>
    75d0: a5 16        	lda	$16                     ; 0x2016 <next_line+0x1>
    75d2: f0 03        	beq	$75d7 <donehypd81dosattach10+0x100>
    75d4: 4c 2b 81     	jmp	$812b <donehypchdir18+0xfc>
    75d7: 4c fd 82     	jmp	$82fd <donehyp1att19+0x1aa>
    75da: a0 01        	ldy	#$1
    75dc: 4c c5 71     	jmp	$71c5 <donehypclosefile9+0xca5>
    75df: 38           	sec
    75e0: a5 21        	lda	$21                     ; 0x2021 <_start>
    75e2: e5 1a        	sbc	$1a                     ; 0x201a <next_line+0x5>
    75e4: 85 04        	sta	$4                      ; 0x2004 <__heap_default_limit+0x1004>
    75e6: a5 20        	lda	$20                     ; 0x2020 <next_line+0xb>
    75e8: e5 19        	sbc	$19                     ; 0x2019 <next_line+0x4>
    75ea: 85 05        	sta	$5                      ; 0x2005 <__heap_default_limit+0x1005>
    75ec: a9 8b        	lda	#$8b
    75ee: 18           	clc
    75ef: 65 04        	adc	$4                      ; 0x2004 <__heap_default_limit+0x1004>
    75f1: 85 04        	sta	$4                      ; 0x2004 <__heap_default_limit+0x1004>
    75f3: a9 9d        	lda	#$9d
    75f5: 65 05        	adc	$5                      ; 0x2005 <__heap_default_limit+0x1005>
    75f7: 85 05        	sta	$5                      ; 0x2005 <__heap_default_limit+0x1005>
    75f9: a0 01        	ldy	#$1
    75fb: 5a           	phy
    75fc: a0 17        	ldy	#$17
    75fe: b1 02        	lda	($2),y                  ; 0x2002 <__heap_default_limit+0x1002>
    7600: 85 08        	sta	$8                      ; 0x2008 <__heap_default_limit+0x1008>
    7602: c8           	iny
    7603: b1 02        	lda	($2),y                  ; 0x2002 <__heap_default_limit+0x1002>
    7605: 7a           	ply
    7606: 85 09        	sta	$9                      ; 0x2009 <__heap_default_limit+0x1009>
    7608: b1 08        	lda	($8),y                  ; 0x2008 <__heap_default_limit+0x1008>
    760a: a8           	tay
    760b: a9 01        	lda	#$1
    760d: 51 04        	eor	($4),y                  ; 0x2004 <__heap_default_limit+0x1004>
    760f: 91 04        	sta	($4),y                  ; 0x2004 <__heap_default_limit+0x1004>
    7611: a5 06        	lda	$6                      ; 0x2006 <__heap_default_limit+0x1006>
    7613: f0 03        	beq	$7618 <donehypd81dosattach10+0x141>
    7615: 4c ef 59     	jmp	$59ef <navi+0x345>
    7618: c8           	iny
    7619: 98           	tya
    761a: a0 01        	ldy	#$1
    761c: 91 08        	sta	($8),y                  ; 0x2008 <__heap_default_limit+0x1008>
    761e: 4c ef 59     	jmp	$59ef <navi+0x345>
    7621: 5a           	phy
    7622: a0 19        	ldy	#$19
    7624: b1 02        	lda	($2),y                  ; 0x2002 <__heap_default_limit+0x1002>
    7626: 7a           	ply
    7627: c9 94        	cmp	#$94
    7629: d0 03        	bne	$762e <donehypd81dosattach10+0x157>
    762b: 4c e5 5f     	jmp	$5fe5 <navi+0x93b>
    762e: 4c 6a 68     	jmp	$686a <donehypclosefile9+0x34a>
    7631: a0 47        	ldy	#$47
    7633: 5a           	phy
    7634: a0 17        	ldy	#$17
    7636: b1 02        	lda	($2),y                  ; 0x2002 <__heap_default_limit+0x1002>
    7638: 85 16        	sta	$16                     ; 0x2016 <next_line+0x1>
    763a: c8           	iny
    763b: b1 02        	lda	($2),y                  ; 0x2002 <__heap_default_limit+0x1002>
    763d: 7a           	ply
    763e: 85 17        	sta	$17                     ; 0x2017 <next_line+0x2>
    7640: b1 16        	lda	($16),y                 ; 0x2016 <next_line+0x1>
    7642: c9 28        	cmp	#$28
    7644: d0 09        	bne	$764f <donehypd81dosattach10+0x178>
    7646: a5 04        	lda	$4                      ; 0x2004 <__heap_default_limit+0x1004>
    7648: 29 01        	and	#$1
    764a: f0 03        	beq	$764f <donehypd81dosattach10+0x178>
    764c: 4c e5 7c     	jmp	$7ce5 <donehypclosedir16+0x3d>
    764f: a2 44        	ldx	#$44
    7651: 86 04        	stx	$4                      ; 0x2004 <__heap_default_limit+0x1004>
    7653: a2 98        	ldx	#$98
    7655: 4c de 68     	jmp	$68de <donehypclosefile9+0x3be>
    7658: a9 04        	lda	#$4
    765a: 48           	pha
    765b: a0 17        	ldy	#$17
    765d: b1 02        	lda	($2),y                  ; 0x2002 <__heap_default_limit+0x1002>
    765f: 85 18        	sta	$18                     ; 0x2018 <next_line+0x3>
    7661: c8           	iny
    7662: b1 02        	lda	($2),y                  ; 0x2002 <__heap_default_limit+0x1002>
    7664: 85 19        	sta	$19                     ; 0x2019 <next_line+0x4>
    7666: 68           	pla
    7667: a6 04        	ldx	$4                      ; 0x2004 <__heap_default_limit+0x1004>
    7669: d0 03        	bne	$766e <donehypd81dosattach10+0x197>
    766b: 4c 9a 7d     	jmp	$7d9a <donehypclosedir16+0xf2>
    766e: a0 13        	ldy	#$13
    7670: b1 02        	lda	($2),y                  ; 0x2002 <__heap_default_limit+0x1002>
    7672: f0 03        	beq	$7677 <donehypd81dosattach10+0x1a0>
    7674: 4c 7e 7d     	jmp	$7d7e <donehypclosedir16+0xd6>
    7677: a9 01        	lda	#$1
    7679: 4c 80 7d     	jmp	$7d80 <donehypclosedir16+0xd8>
    767c: a2 4b        	ldx	#$4b
    767e: 86 04        	stx	$4                      ; 0x2004 <__heap_default_limit+0x1004>
    7680: a2 14        	ldx	#$14
    7682: 86 05        	stx	$5                      ; 0x2005 <__heap_default_limit+0x1005>
    7684: a2 01        	ldx	#$1
    7686: 86 06        	stx	$6                      ; 0x2006 <__heap_default_limit+0x1006>
    7688: a2 04        	ldx	#$4
    768a: 8a           	txa
    768b: 20 dc 42     	jsr	$42dc <mcbox>
    768e: a9 20        	lda	#$20
    7690: 05 2b        	ora	$2b                     ; 0x202b <_start+0xa>
    7692: 85 2b        	sta	$2b                     ; 0x202b <_start+0xa>
    7694: a2 51        	ldx	#$51
    7696: 86 04        	stx	$4                      ; 0x2004 <__heap_default_limit+0x1004>
    7698: a2 92        	ldx	#$92
    769a: 86 05        	stx	$5                      ; 0x2005 <__heap_default_limit+0x1005>
    769c: a2 04        	ldx	#$4
    769e: a9 06        	lda	#$6
    76a0: 20 c6 42     	jsr	$42c6 <mcputsxy>
    76a3: a2 f4        	ldx	#$f4
    76a5: 86 04        	stx	$4                      ; 0x2004 <__heap_default_limit+0x1004>
    76a7: a2 94        	ldx	#$94
    76a9: 86 05        	stx	$5                      ; 0x2005 <__heap_default_limit+0x1005>
    76ab: a2 04        	ldx	#$4
    76ad: a9 19        	lda	#$19
    76af: 20 c6 42     	jsr	$42c6 <mcputsxy>
    76b2: a2 c6        	ldx	#$c6
    76b4: 86 04        	stx	$4                      ; 0x2004 <__heap_default_limit+0x1004>
    76b6: a2 96        	ldx	#$96
    76b8: 86 05        	stx	$5                      ; 0x2005 <__heap_default_limit+0x1005>
    76ba: a2 04        	ldx	#$4
    76bc: a9 2f        	lda	#$2f
    76be: 20 c6 42     	jsr	$42c6 <mcputsxy>
    76c1: a9 df        	lda	#$df
    76c3: 25 2b        	and	$2b                     ; 0x202b <_start+0xa>
    76c5: 85 2b        	sta	$2b                     ; 0x202b <_start+0xa>
    76c7: a2 07        	ldx	#$7
    76c9: 86 04        	stx	$4                      ; 0x2004 <__heap_default_limit+0x1004>
    76cb: a2 92        	ldx	#$92
    76cd: 86 05        	stx	$5                      ; 0x2005 <__heap_default_limit+0x1005>
    76cf: a5 04        	lda	$4                      ; 0x2004 <__heap_default_limit+0x1004>
    76d1: a0 19        	ldy	#$19
    76d3: 91 02        	sta	($2),y                  ; 0x2002 <__heap_default_limit+0x1002>
    76d5: a5 05        	lda	$5                      ; 0x2005 <__heap_default_limit+0x1005>
    76d7: c8           	iny
    76d8: 91 02        	sta	($2),y                  ; 0x2002 <__heap_default_limit+0x1002>
    76da: 88           	dey
    76db: b1 02        	lda	($2),y                  ; 0x2002 <__heap_default_limit+0x1002>
    76dd: 85 04        	sta	$4                      ; 0x2004 <__heap_default_limit+0x1004>
    76df: c8           	iny
    76e0: b1 02        	lda	($2),y                  ; 0x2002 <__heap_default_limit+0x1002>
    76e2: 85 05        	sta	$5                      ; 0x2005 <__heap_default_limit+0x1005>
    76e4: a2 14        	ldx	#$14
    76e6: a9 07        	lda	#$7
    76e8: 20 c6 42     	jsr	$42c6 <mcputsxy>
    76eb: a2 61        	ldx	#$61
    76ed: 86 04        	stx	$4                      ; 0x2004 <__heap_default_limit+0x1004>
    76ef: a2 92        	ldx	#$92
    76f1: 86 05        	stx	$5                      ; 0x2005 <__heap_default_limit+0x1005>
    76f3: 20 8d 42     	jsr	$428d <msprintf>
    76f6: a0 19        	ldy	#$19
    76f8: b1 02        	lda	($2),y                  ; 0x2002 <__heap_default_limit+0x1002>
    76fa: 85 04        	sta	$4                      ; 0x2004 <__heap_default_limit+0x1004>
    76fc: c8           	iny
    76fd: b1 02        	lda	($2),y                  ; 0x2002 <__heap_default_limit+0x1002>
    76ff: 85 05        	sta	$5                      ; 0x2005 <__heap_default_limit+0x1005>
    7701: 20 8d 42     	jsr	$428d <msprintf>
    7704: a2 2a        	ldx	#$2a
    7706: 86 04        	stx	$4                      ; 0x2004 <__heap_default_limit+0x1004>
    7708: a2 9a        	ldx	#$9a
    770a: 86 05        	stx	$5                      ; 0x2005 <__heap_default_limit+0x1005>
    770c: a2 14        	ldx	#$14
    770e: a9 34        	lda	#$34
    7710: 20 c6 42     	jsr	$42c6 <mcputsxy>
    7713: a0 00        	ldy	#$0
    7715: 4c 65 65     	jmp	$6565 <donehypclosefile9+0x45>
    7718: a2 f9        	ldx	#$f9
    771a: 86 04        	stx	$4                      ; 0x2004 <__heap_default_limit+0x1004>
    771c: a2 96        	ldx	#$96
    771e: 86 05        	stx	$5                      ; 0x2005 <__heap_default_limit+0x1005>
    7720: a2 ae        	ldx	#$ae
    7722: 86 06        	stx	$6                      ; 0x2006 <__heap_default_limit+0x1006>
    7724: a2 9b        	ldx	#$9b
    7726: 86 07        	stx	$7                      ; 0x2007 <__heap_default_limit+0x1007>
    7728: a2 07        	ldx	#$7
    772a: 86 08        	stx	$8                      ; 0x2008 <__heap_default_limit+0x1008>
    772c: a2 92        	ldx	#$92
    772e: 86 09        	stx	$9                      ; 0x2009 <__heap_default_limit+0x1009>
    7730: 64 0a        	stz	$a                      ; 0x200a <__heap_default_limit+0x100a>
    7732: 64 0b        	stz	$b                      ; 0x200b <__heap_default_limit+0x100b>
    7734: 64 0c        	stz	$c                      ; 0x200c <__heap_default_limit+0x100c>
    7736: a2 00        	ldx	#$0
    7738: 8a           	txa
    7739: 20 67 44     	jsr	$4467 <messagebox>
    773c: 48           	pha
    773d: a0 17        	ldy	#$17
    773f: b1 02        	lda	($2),y                  ; 0x2002 <__heap_default_limit+0x1002>
    7741: 85 18        	sta	$18                     ; 0x2018 <next_line+0x3>
    7743: c8           	iny
    7744: b1 02        	lda	($2),y                  ; 0x2002 <__heap_default_limit+0x1002>
    7746: 85 19        	sta	$19                     ; 0x2019 <next_line+0x4>
    7748: 68           	pla
    7749: d0 03        	bne	$774e <donehypd81dosattach10+0x277>
    774b: 4c ef 59     	jmp	$59ef <navi+0x345>
    774e: a9 00        	lda	#$0
    7750: 8d 7f d6     	sta	$d67f                   ; 0xd67f <__heap_start+0x3685>
    7753: b8           	clv
    7754: a2 f2        	ldx	#$f2
    7756: 86 04        	stx	$4                      ; 0x2004 <__heap_default_limit+0x1004>
    7758: a2 9a        	ldx	#$9a
    775a: 86 05        	stx	$5                      ; 0x2005 <__heap_default_limit+0x1005>
    775c: a2 de        	ldx	#$de
    775e: 86 06        	stx	$6                      ; 0x2006 <__heap_default_limit+0x1006>
    7760: a2 94        	ldx	#$94
    7762: 86 07        	stx	$7                      ; 0x2007 <__heap_default_limit+0x1007>
    7764: a9 1e        	lda	#$1e
    7766: 20 15 46     	jsr	$4615 <progress>
    7769: 64 05        	stz	$5                      ; 0x2005 <__heap_default_limit+0x1005>
    776b: a2 1e        	ldx	#$1e
    776d: 86 04        	stx	$4                      ; 0x2004 <__heap_default_limit+0x1004>
    776f: a2 84        	ldx	#$84
    7771: a9 80        	lda	#$80
    7773: 20 5c 8a     	jsr	$8a5c <usleep>
    7776: a9 01        	lda	#$1
    7778: a0 46        	ldy	#$46
    777a: 11 18        	ora	($18),y                 ; 0x2018 <next_line+0x3>
    777c: 91 18        	sta	($18),y                 ; 0x2018 <next_line+0x3>
    777e: a0 01        	ldy	#$1
    7780: 5a           	phy
    7781: a0 13        	ldy	#$13
    7783: b1 02        	lda	($2),y                  ; 0x2002 <__heap_default_limit+0x1002>
    7785: 7a           	ply
    7786: aa           	tax
    7787: f0 02        	beq	$778b <donehypd81dosattach10+0x2b4>
    7789: a0 00        	ldy	#$0
    778b: a9 01        	lda	#$1
    778d: 84 1a        	sty	$1a                     ; 0x201a <next_line+0x5>
    778f: c0 00        	cpy	#$0
    7791: d0 02        	bne	$7795 <donehypd81dosattach10+0x2be>
    7793: a9 00        	lda	#$0
    7795: 0a           	asl
    7796: aa           	tax
    7797: b4 27        	ldy	$27,x                   ; 0x2027 <_start+0x6>
    7799: 84 16        	sty	$16                     ; 0x2016 <next_line+0x1>
    779b: b5 28        	lda	$28,x                   ; 0x2028 <_start+0x7>
    779d: aa           	tax
    779e: 86 17        	stx	$17                     ; 0x2017 <next_line+0x2>
    77a0: a9 01        	lda	#$1
    77a2: a0 46        	ldy	#$46
    77a4: 11 16        	ora	($16),y                 ; 0x2016 <next_line+0x1>
    77a6: 91 16        	sta	($16),y                 ; 0x2016 <next_line+0x1>
    77a8: a9 28        	lda	#$28
    77aa: c8           	iny
    77ab: 91 18        	sta	($18),y                 ; 0x2018 <next_line+0x3>
    77ad: a9 01        	lda	#$1
    77af: c8           	iny
    77b0: 91 18        	sta	($18),y                 ; 0x2018 <next_line+0x3>
    77b2: a9 50        	lda	#$50
    77b4: c8           	iny
    77b5: 91 18        	sta	($18),y                 ; 0x2018 <next_line+0x3>
    77b7: a9 28        	lda	#$28
    77b9: a0 47        	ldy	#$47
    77bb: 91 16        	sta	($16),y                 ; 0x2016 <next_line+0x1>
    77bd: a9 01        	lda	#$1
    77bf: c8           	iny
    77c0: 91 16        	sta	($16),y                 ; 0x2016 <next_line+0x1>
    77c2: a9 50        	lda	#$50
    77c4: c8           	iny
    77c5: 91 16        	sta	($16),y                 ; 0x2016 <next_line+0x1>
    77c7: b2 18        	lda	($18),z                 ; 0x2018 <next_line+0x3>
    77c9: 48           	pha
    77ca: a0 13        	ldy	#$13
    77cc: b1 02        	lda	($2),y                  ; 0x2002 <__heap_default_limit+0x1002>
    77ce: aa           	tax
    77cf: 68           	pla
    77d0: 20 0d 4f     	jsr	$4f0d <UpdateSectors>
    77d3: b2 16        	lda	($16),z                 ; 0x2016 <next_line+0x1>
    77d5: a2 01        	ldx	#$1
    77d7: a4 1a        	ldy	$1a                     ; 0x201a <next_line+0x5>
    77d9: d0 02        	bne	$77dd <donehypd81dosattach10+0x306>
    77db: a2 00        	ldx	#$0
    77dd: 20 0d 4f     	jsr	$4f0d <UpdateSectors>
    77e0: 4c ef 59     	jmp	$59ef <navi+0x345>
    77e3: a5 06        	lda	$6                      ; 0x2006 <__heap_default_limit+0x1006>
    77e5: f0 03        	beq	$77ea <donehypd81dosattach10+0x313>
    77e7: 4c 2a 6f     	jmp	$6f2a <donehypclosefile9+0xa0a>
    77ea: a0 13        	ldy	#$13
    77ec: b1 02        	lda	($2),y                  ; 0x2002 <__heap_default_limit+0x1002>
    77ee: d0 03        	bne	$77f3 <donehypd81dosattach10+0x31c>
    77f0: 4c 07 7b     	jmp	$7b07 <donehypfindfirst11+0xc5>
    77f3: a2 08        	ldx	#$8
    77f5: 86 08        	stx	$8                      ; 0x2008 <__heap_default_limit+0x1008>
    77f7: a2 98        	ldx	#$98
    77f9: 4c 0d 7b     	jmp	$7b0d <donehypfindfirst11+0xcb>
    77fc: a2 e3        	ldx	#$e3
    77fe: 86 04        	stx	$4                      ; 0x2004 <__heap_default_limit+0x1004>
    7800: a2 99        	ldx	#$99
    7802: 4c dc 71     	jmp	$71dc <donehypclosefile9+0xcbc>
    7805: a9 01        	lda	#$1
    7807: a0 46        	ldy	#$46
    7809: 31 1e        	and	($1e),y                 ; 0x201e <next_line+0x9>
    780b: d0 03        	bne	$7810 <donehypd81dosattach10+0x339>
    780d: 4c 34 7e     	jmp	$7e34 <donehypclosedir16+0x18c>
    7810: a0 13        	ldy	#$13
    7812: b1 02        	lda	($2),y                  ; 0x2002 <__heap_default_limit+0x1002>
    7814: f0 03        	beq	$7819 <donehypd81dosattach10+0x342>
    7816: 4c 1b 7e     	jmp	$7e1b <donehypclosedir16+0x173>
    7819: a9 01        	lda	#$1
    781b: 4c 1d 7e     	jmp	$7e1d <donehypclosedir16+0x175>
    781e: e0 11        	cpx	#$11
    7820: d0 16        	bne	$7838 <donehypd81dosattach10+0x361>
    7822: b1 1c        	lda	($1c),y                 ; 0x201c <next_line+0x7>
    7824: a0 02        	ldy	#$2
    7826: d1 1c        	cmp	($1c),y                 ; 0x201c <next_line+0x7>
    7828: 90 03        	bcc	$782d <donehypd81dosattach10+0x356>
    782a: 4c ef 59     	jmp	$59ef <navi+0x345>
    782d: aa           	tax
    782e: a4 06        	ldy	$6                      ; 0x2006 <__heap_default_limit+0x1006>
    7830: f0 03        	beq	$7835 <donehypd81dosattach10+0x35e>
    7832: 4c 78 80     	jmp	$8078 <donehypchdir18+0x49>
    7835: 4c 74 80     	jmp	$8074 <donehypchdir18+0x45>
    7838: a5 1b        	lda	$1b                     ; 0x201b <next_line+0x6>
    783a: d0 07        	bne	$7843 <donehypd81dosattach10+0x36c>
    783c: e0 5f        	cpx	#$5f
    783e: d0 03        	bne	$7843 <donehypd81dosattach10+0x36c>
    7840: 4c 80 6b     	jmp	$6b80 <donehypclosefile9+0x660>
    7843: a0 19        	ldy	#$19
    7845: b1 02        	lda	($2),y                  ; 0x2002 <__heap_default_limit+0x1002>
    7847: a8           	tay
    7848: a5 1b        	lda	$1b                     ; 0x201b <next_line+0x6>
    784a: f0 03        	beq	$784f <donehypd81dosattach10+0x378>
    784c: 4c 8e 7b     	jmp	$7b8e <donehypfindfirst12+0x36>
    784f: 5a           	phy
    7850: a0 17        	ldy	#$17
    7852: b1 02        	lda	($2),y                  ; 0x2002 <__heap_default_limit+0x1002>
    7854: 85 1c        	sta	$1c                     ; 0x201c <next_line+0x7>
    7856: c8           	iny
    7857: b1 02        	lda	($2),y                  ; 0x2002 <__heap_default_limit+0x1002>
    7859: 7a           	ply
    785a: 85 1d        	sta	$1d                     ; 0x201d <next_line+0x8>
    785c: c0 91        	cpy	#$91
    785e: f0 03        	beq	$7863 <donehypd81dosattach10+0x38c>
    7860: 4c 9b 7b     	jmp	$7b9b <donehypfindfirst12+0x43>
    7863: 4c b6 7b     	jmp	$7bb6 <donehypfindfirst12+0x5e>
    7866: a5 1c        	lda	$1c                     ; 0x201c <next_line+0x7>
    7868: a0 08        	ldy	#$8
    786a: 91 02        	sta	($2),y                  ; 0x2002 <__heap_default_limit+0x1002>
    786c: a5 1d        	lda	$1d                     ; 0x201d <next_line+0x8>
    786e: c8           	iny
    786f: 91 02        	sta	($2),y                  ; 0x2002 <__heap_default_limit+0x1002>
    7871: a2 7a        	ldx	#$7a
    7873: 86 08        	stx	$8                      ; 0x2008 <__heap_default_limit+0x1008>
    7875: a2 92        	ldx	#$92
    7877: 4c 45 6f     	jmp	$6f45 <donehypclosefile9+0xa25>
    787a: a5 1c        	lda	$1c                     ; 0x201c <next_line+0x7>
    787c: a0 08        	ldy	#$8
    787e: 91 02        	sta	($2),y                  ; 0x2002 <__heap_default_limit+0x1002>
    7880: a5 1d        	lda	$1d                     ; 0x201d <next_line+0x8>
    7882: c8           	iny
    7883: 91 02        	sta	($2),y                  ; 0x2002 <__heap_default_limit+0x1002>
    7885: a2 9a        	ldx	#$9a
    7887: 86 04        	stx	$4                      ; 0x2004 <__heap_default_limit+0x1004>
    7889: a2 97        	ldx	#$97
    788b: 86 05        	stx	$5                      ; 0x2005 <__heap_default_limit+0x1005>
    788d: a2 02        	ldx	#$2
    788f: 86 06        	stx	$6                      ; 0x2006 <__heap_default_limit+0x1006>
    7891: a2 94        	ldx	#$94
    7893: 86 07        	stx	$7                      ; 0x2007 <__heap_default_limit+0x1007>
    7895: a2 c2        	ldx	#$c2
    7897: 86 08        	stx	$8                      ; 0x2008 <__heap_default_limit+0x1008>
    7899: a2 91        	ldx	#$91
    789b: 4c 88 6e     	jmp	$6e88 <donehypclosefile9+0x968>
    789e: a6 1c        	ldx	$1c                     ; 0x201c <next_line+0x7>
    78a0: a5 1c        	lda	$1c                     ; 0x201c <next_line+0x7>
    78a2: 86 17        	stx	$17                     ; 0x2017 <next_line+0x2>
    78a4: 18           	clc
    78a5: 69 1e        	adc	#$1e
    78a7: 85 04        	sta	$4                      ; 0x2004 <__heap_default_limit+0x1004>
    78a9: a5 1d        	lda	$1d                     ; 0x201d <next_line+0x8>
    78ab: 69 00        	adc	#$0
    78ad: 85 05        	sta	$5                      ; 0x2005 <__heap_default_limit+0x1005>
    78af: a0 1e        	ldy	#$1e
    78b1: b1 1c        	lda	($1c),y                 ; 0x201c <next_line+0x7>
    78b3: 85 06        	sta	$6                      ; 0x2006 <__heap_default_limit+0x1006>
    78b5: a0 01        	ldy	#$1
    78b7: b1 04        	lda	($4),y                  ; 0x2004 <__heap_default_limit+0x1004>
    78b9: 85 19        	sta	$19                     ; 0x2019 <next_line+0x4>
    78bb: b2 1e        	lda	($1e),z                 ; 0x201e <next_line+0x9>
    78bd: 85 1a        	sta	$1a                     ; 0x201a <next_line+0x5>
    78bf: a0 03        	ldy	#$3
    78c1: b1 1c        	lda	($1c),y                 ; 0x201c <next_line+0x7>
    78c3: 85 1b        	sta	$1b                     ; 0x201b <next_line+0x6>
    78c5: a2 28        	ldx	#$28
    78c7: 86 04        	stx	$4                      ; 0x2004 <__heap_default_limit+0x1004>
    78c9: 64 05        	stz	$5                      ; 0x2005 <__heap_default_limit+0x1005>
    78cb: a6 19        	ldx	$19                     ; 0x2019 <next_line+0x4>
    78cd: a5 06        	lda	$6                      ; 0x2006 <__heap_default_limit+0x1006>
    78cf: 85 18        	sta	$18                     ; 0x2018 <next_line+0x3>
    78d1: 20 60 8c     	jsr	$8c60 <__udivhi3>
    78d4: 85 04        	sta	$4                      ; 0x2004 <__heap_default_limit+0x1004>
    78d6: a6 1b        	ldx	$1b                     ; 0x201b <next_line+0x6>
    78d8: 86 09        	stx	$9                      ; 0x2009 <__heap_default_limit+0x1009>
    78da: a5 1b        	lda	$1b                     ; 0x201b <next_line+0x6>
    78dc: 18           	clc
    78dd: 65 04        	adc	$4                      ; 0x2004 <__heap_default_limit+0x1004>
    78df: 85 1b        	sta	$1b                     ; 0x201b <next_line+0x6>
    78e1: 64 04        	stz	$4                      ; 0x2004 <__heap_default_limit+0x1004>
    78e3: a2 08        	ldx	#$8
    78e5: 86 05        	stx	$5                      ; 0x2005 <__heap_default_limit+0x1005>
    78e7: a2 02        	ldx	#$2
    78e9: 86 06        	stx	$6                      ; 0x2006 <__heap_default_limit+0x1006>
    78eb: 64 07        	stz	$7                      ; 0x2007 <__heap_default_limit+0x1007>
    78ed: a6 1a        	ldx	$1a                     ; 0x201a <next_line+0x5>
    78ef: 86 08        	stx	$8                      ; 0x2008 <__heap_default_limit+0x1008>
    78f1: a6 09        	ldx	$9                      ; 0x2009 <__heap_default_limit+0x1009>
    78f3: 86 1a        	stx	$1a                     ; 0x201a <next_line+0x5>
    78f5: a2 01        	ldx	#$1
    78f7: 86 0a        	stx	$a                      ; 0x200a <__heap_default_limit+0x100a>
    78f9: a2 6a        	ldx	#$6a
    78fb: a9 00        	lda	#$0
    78fd: 20 e7 26     	jsr	$26e7 <readblockchain>
    7900: 64 04        	stz	$4                      ; 0x2004 <__heap_default_limit+0x1004>
    7902: a2 08        	ldx	#$8
    7904: 86 05        	stx	$5                      ; 0x2005 <__heap_default_limit+0x1005>
    7906: 64 06        	stz	$6                      ; 0x2006 <__heap_default_limit+0x1006>
    7908: a2 17        	ldx	#$17
    790a: 86 07        	stx	$7                      ; 0x2007 <__heap_default_limit+0x1007>
    790c: 64 08        	stz	$8                      ; 0x2008 <__heap_default_limit+0x1008>
    790e: 64 09        	stz	$9                      ; 0x2009 <__heap_default_limit+0x1009>
    7910: 64 0a        	stz	$a                      ; 0x200a <__heap_default_limit+0x100a>
    7912: a2 02        	ldx	#$2
    7914: 86 0b        	stx	$b                      ; 0x200b <__heap_default_limit+0x100b>
    7916: a2 6a        	ldx	#$6a
    7918: a9 00        	lda	#$0
    791a: 20 a5 89     	jsr	$89a5 <lcopy>
    791d: a2 00        	ldx	#$0
    791f: 86 04        	stx	$4                      ; 0x2004 <__heap_default_limit+0x1004>
    7921: a2 17        	ldx	#$17
    7923: 86 05        	stx	$5                      ; 0x2005 <__heap_default_limit+0x1005>
    7925: a2 00        	ldx	#$0
    7927: 86 06        	stx	$6                      ; 0x2006 <__heap_default_limit+0x1006>
    7929: a2 18        	ldx	#$18
    792b: 86 07        	stx	$7                      ; 0x2007 <__heap_default_limit+0x1007>
    792d: a6 1b        	ldx	$1b                     ; 0x201b <next_line+0x6>
    792f: 86 08        	stx	$8                      ; 0x2008 <__heap_default_limit+0x1008>
    7931: a6 1a        	ldx	$1a                     ; 0x201a <next_line+0x5>
    7933: a5 1a        	lda	$1a                     ; 0x201a <next_line+0x5>
    7935: 20 e1 2a     	jsr	$2ae1 <BAMSectorsFreeBlocks>
    7938: 85 04        	sta	$4                      ; 0x2004 <__heap_default_limit+0x1004>
    793a: 86 05        	stx	$5                      ; 0x2005 <__heap_default_limit+0x1005>
    793c: 18           	clc
    793d: a5 17        	lda	$17                     ; 0x2017 <next_line+0x2>
    793f: 69 05        	adc	#$5
    7941: 85 06        	sta	$6                      ; 0x2006 <__heap_default_limit+0x1006>
    7943: a5 1d        	lda	$1d                     ; 0x201d <next_line+0x8>
    7945: 69 00        	adc	#$0
    7947: 85 07        	sta	$7                      ; 0x2007 <__heap_default_limit+0x1007>
    7949: a6 19        	ldx	$19                     ; 0x2019 <next_line+0x4>
    794b: e4 05        	cpx	$5                      ; 0x2005 <__heap_default_limit+0x1005>
    794d: f0 03        	beq	$7952 <donehypd81dosattach10+0x47b>
    794f: 4c 5a 7c     	jmp	$7c5a <donehypclosedir14+0x46>
    7952: a9 00        	lda	#$0
    7954: a6 18        	ldx	$18                     ; 0x2018 <next_line+0x3>
    7956: e4 04        	cpx	$4                      ; 0x2004 <__heap_default_limit+0x1004>
    7958: f0 03        	beq	$795d <donehypd81dosattach10+0x486>
    795a: 4c 5c 7c     	jmp	$7c5c <donehypclosedir14+0x48>
    795d: 48           	pha
    795e: a0 13        	ldy	#$13
    7960: b1 02        	lda	($2),y                  ; 0x2002 <__heap_default_limit+0x1002>
    7962: aa           	tax
    7963: 68           	pla
    7964: e0 00        	cpx	#$0
    7966: d0 03        	bne	$796b <donehypd81dosattach10+0x494>
    7968: 4c e5 81     	jmp	$81e5 <donehyp1att19+0x92>
    796b: 48           	pha
    796c: a5 1c        	lda	$1c                     ; 0x201c <next_line+0x7>
    796e: a0 08        	ldy	#$8
    7970: 91 02        	sta	($2),y                  ; 0x2002 <__heap_default_limit+0x1002>
    7972: a5 1d        	lda	$1d                     ; 0x201d <next_line+0x8>
    7974: c8           	iny
    7975: 91 02        	sta	($2),y                  ; 0x2002 <__heap_default_limit+0x1002>
    7977: 68           	pla
    7978: a2 08        	ldx	#$8
    797a: 86 08        	stx	$8                      ; 0x2008 <__heap_default_limit+0x1008>
    797c: a2 98        	ldx	#$98
    797e: 86 09        	stx	$9                      ; 0x2009 <__heap_default_limit+0x1009>
    7980: a2 9a        	ldx	#$9a
    7982: 86 04        	stx	$4                      ; 0x2004 <__heap_default_limit+0x1004>
    7984: a2 97        	ldx	#$97
    7986: 86 05        	stx	$5                      ; 0x2005 <__heap_default_limit+0x1005>
    7988: 85 0a        	sta	$a                      ; 0x200a <__heap_default_limit+0x100a>
    798a: 85 0b        	sta	$b                      ; 0x200b <__heap_default_limit+0x100b>
    798c: 85 0c        	sta	$c                      ; 0x200c <__heap_default_limit+0x100c>
    798e: aa           	tax
    798f: a9 00        	lda	#$0
    7991: 20 67 44     	jsr	$4467 <messagebox>
    7994: aa           	tax
    7995: d0 03        	bne	$799a <donehypd81dosattach10+0x4c3>
    7997: 4c ef 59     	jmp	$59ef <navi+0x345>
    799a: a0 13        	ldy	#$13
    799c: b1 02        	lda	($2),y                  ; 0x2002 <__heap_default_limit+0x1002>
    799e: 85 16        	sta	$16                     ; 0x2016 <next_line+0x1>
    79a0: 20 4e 26     	jsr	$264e <GetBAM>
    79a3: b2 1e        	lda	($1e),z                 ; 0x201e <next_line+0x9>
    79a5: 85 06        	sta	$6                      ; 0x2006 <__heap_default_limit+0x1006>
    79a7: a0 47        	ldy	#$47
    79a9: b1 1e        	lda	($1e),y                 ; 0x201e <next_line+0x9>
    79ab: 85 04        	sta	$4                      ; 0x2004 <__heap_default_limit+0x1004>
    79ad: a0 01        	ldy	#$1
    79af: b1 1e        	lda	($1e),y                 ; 0x201e <next_line+0x9>
    79b1: 85 05        	sta	$5                      ; 0x2005 <__heap_default_limit+0x1005>
    79b3: a6 16        	ldx	$16                     ; 0x2016 <next_line+0x1>
    79b5: a5 06        	lda	$6                      ; 0x2006 <__heap_default_limit+0x1006>
    79b7: 20 a2 3a     	jsr	$3aa2 <deletedirententry>
    79ba: b2 1e        	lda	($1e),z                 ; 0x201e <next_line+0x9>
    79bc: 85 05        	sta	$5                      ; 0x2005 <__heap_default_limit+0x1005>
    79be: a0 47        	ldy	#$47
    79c0: b1 1e        	lda	($1e),y                 ; 0x201e <next_line+0x9>
    79c2: 85 04        	sta	$4                      ; 0x2004 <__heap_default_limit+0x1004>
    79c4: a6 16        	ldx	$16                     ; 0x2016 <next_line+0x1>
    79c6: a5 05        	lda	$5                      ; 0x2005 <__heap_default_limit+0x1005>
    79c8: 20 87 26     	jsr	$2687 <PutBAM>
    79cb: b2 1e        	lda	($1e),z                 ; 0x201e <next_line+0x9>
    79cd: 4c 66 6b     	jmp	$6b66 <donehypclosefile9+0x646>
    79d0: 5a           	phy
    79d1: a0 19        	ldy	#$19
    79d3: b1 02        	lda	($2),y                  ; 0x2002 <__heap_default_limit+0x1002>
    79d5: 7a           	ply
    79d6: c9 f1        	cmp	#$f1
    79d8: d0 03        	bne	$79dd <donehypd81dosattach10+0x506>
    79da: 4c e5 5f     	jmp	$5fe5 <navi+0x93b>
    79dd: a5 1b        	lda	$1b                     ; 0x201b <next_line+0x6>
    79df: f0 03        	beq	$79e4 <donehypd81dosattach10+0x50d>
    79e1: 4c af 6f     	jmp	$6faf <donehypclosefile9+0xa8f>
    79e4: a0 19        	ldy	#$19
    79e6: b1 02        	lda	($2),y                  ; 0x2002 <__heap_default_limit+0x1002>
    79e8: c9 0d        	cmp	#$d
    79ea: f0 03        	beq	$79ef <donehypd81dosattach10+0x518>
    79ec: 4c af 6f     	jmp	$6faf <donehypclosefile9+0xa8f>
    79ef: b2 1c        	lda	($1c),z                 ; 0x201c <next_line+0x7>
    79f1: 85 07        	sta	$7                      ; 0x2007 <__heap_default_limit+0x1007>
    79f3: a0 47        	ldy	#$47
    79f5: b1 1c        	lda	($1c),y                 ; 0x201c <next_line+0x7>
    79f7: 85 04        	sta	$4                      ; 0x2004 <__heap_default_limit+0x1004>
    79f9: c8           	iny
    79fa: b1 1c        	lda	($1c),y                 ; 0x201c <next_line+0x7>
    79fc: 85 05        	sta	$5                      ; 0x2005 <__heap_default_limit+0x1005>
    79fe: c8           	iny
    79ff: b1 1c        	lda	($1c),y                 ; 0x201c <next_line+0x7>
    7a01: 85 06        	sta	$6                      ; 0x2006 <__heap_default_limit+0x1006>
    7a03: a0 13        	ldy	#$13
    7a05: b1 02        	lda	($2),y                  ; 0x2002 <__heap_default_limit+0x1002>
    7a07: aa           	tax
    7a08: a5 07        	lda	$7                      ; 0x2007 <__heap_default_limit+0x1007>
    7a0a: 20 07 40     	jsr	$4007 <rewritedirent>
    7a0d: 4c 43 64     	jmp	$6443 <navi+0xd99>
    7a10: a0 08        	ldy	#$8
    7a12: b1 02        	lda	($2),y                  ; 0x2002 <__heap_default_limit+0x1002>
    7a14: 85 04        	sta	$4                      ; 0x2004 <__heap_default_limit+0x1004>
    7a16: c8           	iny
    7a17: b1 02        	lda	($2),y                  ; 0x2002 <__heap_default_limit+0x1002>
    7a19: 85 05        	sta	$5                      ; 0x2005 <__heap_default_limit+0x1005>
    7a1b: a5 04        	lda	$4                      ; 0x2004 <__heap_default_limit+0x1004>
    7a1d: 18           	clc
    7a1e: 69 05        	adc	#$5
    7a20: 85 1a        	sta	$1a                     ; 0x201a <next_line+0x5>
    7a22: a5 05        	lda	$5                      ; 0x2005 <__heap_default_limit+0x1005>
    7a24: 69 00        	adc	#$0
    7a26: 85 1b        	sta	$1b                     ; 0x201b <next_line+0x6>
    7a28: a6 1a        	ldx	$1a                     ; 0x201a <next_line+0x5>
    7a2a: 86 04        	stx	$4                      ; 0x2004 <__heap_default_limit+0x1004>
    7a2c: 85 05        	sta	$5                      ; 0x2005 <__heap_default_limit+0x1005>
    7a2e: 20 9c 21     	jsr	$219c <hyppo_setname>
    7a31: a2 00        	ldx	#$0
    7a33: a9 30        	lda	#$30
    7a35: 8d 40 d6     	sta	$d640                   ; 0xd640 <__heap_start+0x3646>
    7a38: b8           	clv
    7a39: 90 05        	bcc	$7a40 <errhypfindfirst11>
    7a3b: 85 04        	sta	$4                      ; 0x2004 <__heap_default_limit+0x1004>
    7a3d: 4c 42 7a     	jmp	$7a42 <donehypfindfirst11>

00007a40 <errhypfindfirst11>:
    7a40: 85 04        	sta	$4                      ; 0x2004 <__heap_default_limit+0x1004>

00007a42 <donehypfindfirst11>:
    7a42: ea           	nop
    7a43: a4 04        	ldy	$4                      ; 0x2004 <__heap_default_limit+0x1004>
    7a45: c0 84        	cpy	#$84
    7a47: b0 03        	bcs	$7a4c <donehypfindfirst11+0xa>
    7a49: 4c 83 7c     	jmp	$7c83 <donehypclosedir14+0x6f>
    7a4c: a2 b4        	ldx	#$b4
    7a4e: 86 04        	stx	$4                      ; 0x2004 <__heap_default_limit+0x1004>
    7a50: a2 96        	ldx	#$96
    7a52: 86 05        	stx	$5                      ; 0x2005 <__heap_default_limit+0x1005>
    7a54: a6 1a        	ldx	$1a                     ; 0x201a <next_line+0x5>
    7a56: 86 06        	stx	$6                      ; 0x2006 <__heap_default_limit+0x1006>
    7a58: a6 1b        	ldx	$1b                     ; 0x201b <next_line+0x6>
    7a5a: 86 07        	stx	$7                      ; 0x2007 <__heap_default_limit+0x1007>
    7a5c: a2 1f        	ldx	#$1f
    7a5e: 86 08        	stx	$8                      ; 0x2008 <__heap_default_limit+0x1008>
    7a60: a2 95        	ldx	#$95
    7a62: 86 09        	stx	$9                      ; 0x2009 <__heap_default_limit+0x1009>
    7a64: 64 0a        	stz	$a                      ; 0x200a <__heap_default_limit+0x100a>
    7a66: 64 0b        	stz	$b                      ; 0x200b <__heap_default_limit+0x100b>
    7a68: 64 0c        	stz	$c                      ; 0x200c <__heap_default_limit+0x100c>
    7a6a: a2 00        	ldx	#$0
    7a6c: a9 04        	lda	#$4
    7a6e: 84 16        	sty	$16                     ; 0x2016 <next_line+0x1>
    7a70: 20 67 44     	jsr	$4467 <messagebox>
    7a73: a4 16        	ldy	$16                     ; 0x2016 <next_line+0x1>
    7a75: 4c 97 7c     	jmp	$7c97 <donehyprmfile15+0x1>
    7a78: a0 13        	ldy	#$13
    7a7a: b1 02        	lda	($2),y                  ; 0x2002 <__heap_default_limit+0x1002>
    7a7c: 20 0b 55     	jsr	$550b <sizeselectcurrentifnone>
    7a7f: 48           	pha
    7a80: a0 08        	ldy	#$8
    7a82: b1 02        	lda	($2),y                  ; 0x2002 <__heap_default_limit+0x1002>
    7a84: 85 1c        	sta	$1c                     ; 0x201c <next_line+0x7>
    7a86: c8           	iny
    7a87: b1 02        	lda	($2),y                  ; 0x2002 <__heap_default_limit+0x1002>
    7a89: 85 1d        	sta	$1d                     ; 0x201d <next_line+0x8>
    7a8b: 68           	pla
    7a8c: e0 ff        	cpx	#$ff
    7a8e: d0 07        	bne	$7a97 <donehypfindfirst11+0x55>
    7a90: c9 ff        	cmp	#$ff
    7a92: d0 03        	bne	$7a97 <donehypfindfirst11+0x55>
    7a94: 4c da 66     	jmp	$66da <donehypclosefile9+0x1ba>
    7a97: a9 8a        	lda	#$8a
    7a99: 18           	clc
    7a9a: 65 18        	adc	$18                     ; 0x2018 <next_line+0x3>
    7a9c: 85 17        	sta	$17                     ; 0x2017 <next_line+0x2>
    7a9e: a9 9d        	lda	#$9d
    7aa0: 48           	pha
    7aa1: a0 12        	ldy	#$12
    7aa3: b1 02        	lda	($2),y                  ; 0x2002 <__heap_default_limit+0x1002>
    7aa5: 85 04        	sta	$4                      ; 0x2004 <__heap_default_limit+0x1004>
    7aa7: 68           	pla
    7aa8: 65 04        	adc	$4                      ; 0x2004 <__heap_default_limit+0x1004>
    7aaa: 85 18        	sta	$18                     ; 0x2018 <next_line+0x3>
    7aac: a2 f8        	ldx	#$f8
    7aae: 64 1a        	stz	$1a                     ; 0x201a <next_line+0x5>
    7ab0: 86 1b        	stx	$1b                     ; 0x201b <next_line+0x6>
    7ab2: 4c 96 66     	jmp	$6696 <donehypclosefile9+0x176>
    7ab5: a2 05        	ldx	#$5
    7ab7: 86 06        	stx	$6                      ; 0x2006 <__heap_default_limit+0x1006>
    7ab9: a2 96        	ldx	#$96
    7abb: 4c 93 71     	jmp	$7193 <donehypclosefile9+0xc73>
    7abe: 86 17        	stx	$17                     ; 0x2017 <next_line+0x2>
    7ac0: b2 18        	lda	($18),z                 ; 0x2018 <next_line+0x3>
    7ac2: 85 04        	sta	$4                      ; 0x2004 <__heap_default_limit+0x1004>
    7ac4: b2 1c        	lda	($1c),z                 ; 0x201c <next_line+0x7>
    7ac6: 85 16        	sta	$16                     ; 0x2016 <next_line+0x1>
    7ac8: 38           	sec
    7ac9: a5 04        	lda	$4                      ; 0x2004 <__heap_default_limit+0x1004>
    7acb: e5 16        	sbc	$16                     ; 0x2016 <next_line+0x1>
    7acd: aa           	tax
    7ace: a9 00        	lda	#$0
    7ad0: e9 00        	sbc	#$0
    7ad2: e0 02        	cpx	#$2
    7ad4: a8           	tay
    7ad5: e9 00        	sbc	#$0
    7ad7: 50 02        	bvc	$7adb <donehypfindfirst11+0x99>
    7ad9: 49 80        	eor	#$80
    7adb: c9 00        	cmp	#$0
    7add: 30 17        	bmi	$7af6 <donehypfindfirst11+0xb4>
    7adf: e8           	inx
    7ae0: d0 01        	bne	$7ae3 <donehypfindfirst11+0xa1>
    7ae2: c8           	iny
    7ae3: 98           	tya
    7ae4: f0 03        	beq	$7ae9 <donehypfindfirst11+0xa7>
    7ae6: 4c ac 7f     	jmp	$7fac <donehypchdir17+0xfc>
    7ae9: e4 17        	cpx	$17                     ; 0x2017 <next_line+0x2>
    7aeb: 90 09        	bcc	$7af6 <donehypfindfirst11+0xb4>
    7aed: 4c b3 7f     	jmp	$7fb3 <donehypchdir17+0x103>
    7af0: 8a           	txa
    7af1: d0 03        	bne	$7af6 <donehypfindfirst11+0xb4>
    7af3: 4c ef 59     	jmp	$59ef <navi+0x345>
    7af6: a2 3a        	ldx	#$3a
    7af8: 86 04        	stx	$4                      ; 0x2004 <__heap_default_limit+0x1004>
    7afa: a2 9b        	ldx	#$9b
    7afc: 86 05        	stx	$5                      ; 0x2005 <__heap_default_limit+0x1005>
    7afe: a2 e2        	ldx	#$e2
    7b00: 86 06        	stx	$6                      ; 0x2006 <__heap_default_limit+0x1006>
    7b02: a2 98        	ldx	#$98
    7b04: 4c e6 68     	jmp	$68e6 <donehypclosefile9+0x3c6>
    7b07: a2 7a        	ldx	#$7a
    7b09: 86 08        	stx	$8                      ; 0x2008 <__heap_default_limit+0x1008>
    7b0b: a2 92        	ldx	#$92
    7b0d: 86 09        	stx	$9                      ; 0x2009 <__heap_default_limit+0x1009>
    7b0f: a5 1c        	lda	$1c                     ; 0x201c <next_line+0x7>
    7b11: 18           	clc
    7b12: 69 05        	adc	#$5
    7b14: 85 1a        	sta	$1a                     ; 0x201a <next_line+0x5>
    7b16: a5 1d        	lda	$1d                     ; 0x201d <next_line+0x8>
    7b18: 69 00        	adc	#$0
    7b1a: 85 1b        	sta	$1b                     ; 0x201b <next_line+0x6>
    7b1c: a2 0b        	ldx	#$b
    7b1e: 86 04        	stx	$4                      ; 0x2004 <__heap_default_limit+0x1004>
    7b20: a2 93        	ldx	#$93
    7b22: 86 05        	stx	$5                      ; 0x2005 <__heap_default_limit+0x1005>
    7b24: a6 1a        	ldx	$1a                     ; 0x201a <next_line+0x5>
    7b26: 86 06        	stx	$6                      ; 0x2006 <__heap_default_limit+0x1006>
    7b28: 85 07        	sta	$7                      ; 0x2007 <__heap_default_limit+0x1007>
    7b2a: 64 0a        	stz	$a                      ; 0x200a <__heap_default_limit+0x100a>
    7b2c: 64 0b        	stz	$b                      ; 0x200b <__heap_default_limit+0x100b>
    7b2e: 64 0c        	stz	$c                      ; 0x200c <__heap_default_limit+0x100c>
    7b30: a2 00        	ldx	#$0
    7b32: 8a           	txa
    7b33: 20 67 44     	jsr	$4467 <messagebox>
    7b36: aa           	tax
    7b37: d0 03        	bne	$7b3c <donehypfindfirst11+0xfa>
    7b39: 4c cf 66     	jmp	$66cf <donehypclosefile9+0x1af>
    7b3c: a6 1a        	ldx	$1a                     ; 0x201a <next_line+0x5>
    7b3e: 86 04        	stx	$4                      ; 0x2004 <__heap_default_limit+0x1004>
    7b40: a6 1b        	ldx	$1b                     ; 0x201b <next_line+0x6>
    7b42: 86 05        	stx	$5                      ; 0x2005 <__heap_default_limit+0x1005>
    7b44: 20 9c 21     	jsr	$219c <hyppo_setname>
    7b47: a2 00        	ldx	#$0
    7b49: a9 30        	lda	#$30
    7b4b: 8d 40 d6     	sta	$d640                   ; 0xd640 <__heap_start+0x3646>
    7b4e: b8           	clv
    7b4f: 90 05        	bcc	$7b56 <errhypfindfirst12>
    7b51: 85 04        	sta	$4                      ; 0x2004 <__heap_default_limit+0x1004>
    7b53: 4c 58 7b     	jmp	$7b58 <donehypfindfirst12>

00007b56 <errhypfindfirst12>:
    7b56: 85 04        	sta	$4                      ; 0x2004 <__heap_default_limit+0x1004>

00007b58 <donehypfindfirst12>:
    7b58: ea           	nop
    7b59: a4 04        	ldy	$4                      ; 0x2004 <__heap_default_limit+0x1004>
    7b5b: c0 84        	cpy	#$84
    7b5d: b0 03        	bcs	$7b62 <donehypfindfirst12+0xa>
    7b5f: 4c ef 7b     	jmp	$7bef <donehypfindfirst12+0x97>
    7b62: a2 dd        	ldx	#$dd
    7b64: 86 04        	stx	$4                      ; 0x2004 <__heap_default_limit+0x1004>
    7b66: a2 9a        	ldx	#$9a
    7b68: 86 05        	stx	$5                      ; 0x2005 <__heap_default_limit+0x1005>
    7b6a: a6 1a        	ldx	$1a                     ; 0x201a <next_line+0x5>
    7b6c: 86 06        	stx	$6                      ; 0x2006 <__heap_default_limit+0x1006>
    7b6e: a6 1b        	ldx	$1b                     ; 0x201b <next_line+0x6>
    7b70: 86 07        	stx	$7                      ; 0x2007 <__heap_default_limit+0x1007>
    7b72: a2 1f        	ldx	#$1f
    7b74: 86 08        	stx	$8                      ; 0x2008 <__heap_default_limit+0x1008>
    7b76: a2 95        	ldx	#$95
    7b78: 86 09        	stx	$9                      ; 0x2009 <__heap_default_limit+0x1009>
    7b7a: 64 0a        	stz	$a                      ; 0x200a <__heap_default_limit+0x100a>
    7b7c: 64 0b        	stz	$b                      ; 0x200b <__heap_default_limit+0x100b>
    7b7e: 64 0c        	stz	$c                      ; 0x200c <__heap_default_limit+0x100c>
    7b80: a2 00        	ldx	#$0
    7b82: a9 04        	lda	#$4
    7b84: 84 16        	sty	$16                     ; 0x2016 <next_line+0x1>
    7b86: 20 67 44     	jsr	$4467 <messagebox>
    7b89: a4 16        	ldy	$16                     ; 0x2016 <next_line+0x1>
    7b8b: 4c 03 7c     	jmp	$7c03 <donehyprmfile13+0x1>
    7b8e: 5a           	phy
    7b8f: a0 17        	ldy	#$17
    7b91: b1 02        	lda	($2),y                  ; 0x2002 <__heap_default_limit+0x1002>
    7b93: 85 1c        	sta	$1c                     ; 0x201c <next_line+0x7>
    7b95: c8           	iny
    7b96: b1 02        	lda	($2),y                  ; 0x2002 <__heap_default_limit+0x1002>
    7b98: 7a           	ply
    7b99: 85 1d        	sta	$1d                     ; 0x201d <next_line+0x8>
    7b9b: a5 1b        	lda	$1b                     ; 0x201b <next_line+0x6>
    7b9d: d0 07        	bne	$7ba6 <donehypfindfirst12+0x4e>
    7b9f: c0 9d        	cpy	#$9d
    7ba1: d0 03        	bne	$7ba6 <donehypfindfirst12+0x4e>
    7ba3: 4c 47 7c     	jmp	$7c47 <donehypclosedir14+0x33>
    7ba6: a6 1b        	ldx	$1b                     ; 0x201b <next_line+0x6>
    7ba8: e0 01        	cpx	#$1
    7baa: f0 03        	beq	$7baf <donehypfindfirst12+0x57>
    7bac: 4c 18 7c     	jmp	$7c18 <donehypclosedir14+0x4>
    7baf: c0 91        	cpy	#$91
    7bb1: f0 03        	beq	$7bb6 <donehypfindfirst12+0x5e>
    7bb3: 4c 18 7c     	jmp	$7c18 <donehypclosedir14+0x4>
    7bb6: a0 01        	ldy	#$1
    7bb8: b1 1c        	lda	($1c),y                 ; 0x201c <next_line+0x7>
    7bba: d0 03        	bne	$7bbf <donehypfindfirst12+0x67>
    7bbc: 4c ef 59     	jmp	$59ef <navi+0x345>
    7bbf: a8           	tay
    7bc0: a5 06        	lda	$6                      ; 0x2006 <__heap_default_limit+0x1006>
    7bc2: f0 27        	beq	$7beb <donehypfindfirst12+0x93>
    7bc4: 38           	sec
    7bc5: a5 21        	lda	$21                     ; 0x2021 <_start>
    7bc7: e5 1a        	sbc	$1a                     ; 0x201a <next_line+0x5>
    7bc9: 85 17        	sta	$17                     ; 0x2017 <next_line+0x2>
    7bcb: 85 04        	sta	$4                      ; 0x2004 <__heap_default_limit+0x1004>
    7bcd: a5 20        	lda	$20                     ; 0x2020 <next_line+0xb>
    7bcf: e5 19        	sbc	$19                     ; 0x2019 <next_line+0x4>
    7bd1: 85 18        	sta	$18                     ; 0x2018 <next_line+0x3>
    7bd3: 85 05        	sta	$5                      ; 0x2005 <__heap_default_limit+0x1005>
    7bd5: a9 8b        	lda	#$8b
    7bd7: 18           	clc
    7bd8: 65 04        	adc	$4                      ; 0x2004 <__heap_default_limit+0x1004>
    7bda: 85 04        	sta	$4                      ; 0x2004 <__heap_default_limit+0x1004>
    7bdc: a9 9d        	lda	#$9d
    7bde: 65 05        	adc	$5                      ; 0x2005 <__heap_default_limit+0x1005>
    7be0: 85 05        	sta	$5                      ; 0x2005 <__heap_default_limit+0x1005>
    7be2: a9 01        	lda	#$1
    7be4: 31 04        	and	($4),y                  ; 0x2004 <__heap_default_limit+0x1004>
    7be6: f0 03        	beq	$7beb <donehypfindfirst12+0x93>
    7be8: 4c 80 82     	jmp	$8280 <donehyp1att19+0x12d>
    7beb: 88           	dey
    7bec: 4c 66 7e     	jmp	$7e66 <donehypclosedir16+0x1be>
    7bef: a6 04        	ldx	$4                      ; 0x2004 <__heap_default_limit+0x1004>
    7bf1: a9 10        	lda	#$10
    7bf3: 8d 40 d6     	sta	$d640                   ; 0xd640 <__heap_start+0x3646>
    7bf6: b8           	clv
    7bf7: 90 05        	bcc	$7bfe <errhyprmfile13>
    7bf9: 85 04        	sta	$4                      ; 0x2004 <__heap_default_limit+0x1004>
    7bfb: 4c 02 7c     	jmp	$7c02 <donehyprmfile13>

00007bfe <errhyprmfile13>:
    7bfe: a9 ff        	lda	#$ff
    7c00: 85 04        	sta	$4                      ; 0x2004 <__heap_default_limit+0x1004>

00007c02 <donehyprmfile13>:
    7c02: ea           	nop
    7c03: 5a           	phy
    7c04: fa           	plx
    7c05: a9 16        	lda	#$16
    7c07: 8d 40 d6     	sta	$d640                   ; 0xd640 <__heap_start+0x3646>
    7c0a: b8           	clv
    7c0b: 90 05        	bcc	$7c12 <errhypclosedir14>
    7c0d: 86 04        	stx	$4                      ; 0x2004 <__heap_default_limit+0x1004>
    7c0f: 4c 14 7c     	jmp	$7c14 <donehypclosedir14>

00007c12 <errhypclosedir14>:
    7c12: 85 04        	sta	$4                      ; 0x2004 <__heap_default_limit+0x1004>

00007c14 <donehypclosedir14>:
    7c14: ea           	nop
    7c15: 4c cf 66     	jmp	$66cf <donehypclosefile9+0x1af>
    7c18: a6 1b        	ldx	$1b                     ; 0x201b <next_line+0x6>
    7c1a: e0 01        	cpx	#$1
    7c1c: d0 07        	bne	$7c25 <donehypclosedir14+0x11>
    7c1e: c0 94        	cpy	#$94
    7c20: d0 03        	bne	$7c25 <donehypclosedir14+0x11>
    7c22: 4c a6 6f     	jmp	$6fa6 <donehypclosefile9+0xa86>
    7c25: a6 1b        	ldx	$1b                     ; 0x201b <next_line+0x6>
    7c27: a0 19        	ldy	#$19
    7c29: b1 02        	lda	($2),y                  ; 0x2002 <__heap_default_limit+0x1002>
    7c2b: a8           	tay
    7c2c: e0 01        	cpx	#$1
    7c2e: f0 03        	beq	$7c33 <donehypclosedir14+0x1f>
    7c30: 4c f8 7d     	jmp	$7df8 <donehypclosedir16+0x150>
    7c33: 5a           	phy
    7c34: a0 17        	ldy	#$17
    7c36: b1 02        	lda	($2),y                  ; 0x2002 <__heap_default_limit+0x1002>
    7c38: 85 1c        	sta	$1c                     ; 0x201c <next_line+0x7>
    7c3a: c8           	iny
    7c3b: b1 02        	lda	($2),y                  ; 0x2002 <__heap_default_limit+0x1002>
    7c3d: 7a           	ply
    7c3e: 85 1d        	sta	$1d                     ; 0x201d <next_line+0x8>
    7c40: c0 9d        	cpy	#$9d
    7c42: f0 03        	beq	$7c47 <donehypclosedir14+0x33>
    7c44: 4c f8 7d     	jmp	$7df8 <donehypclosedir16+0x150>
    7c47: a0 01        	ldy	#$1
    7c49: b1 1c        	lda	($1c),y                 ; 0x201c <next_line+0x7>
    7c4b: c9 0b        	cmp	#$b
    7c4d: b0 03        	bcs	$7c52 <donehypclosedir14+0x3e>
    7c4f: 4c 3c 80     	jmp	$803c <donehypchdir18+0xd>
    7c52: 18           	clc
    7c53: 69 f6        	adc	#$f6
    7c55: 91 1c        	sta	($1c),y                 ; 0x201c <next_line+0x7>
    7c57: 4c ef 59     	jmp	$59ef <navi+0x345>
    7c5a: a9 00        	lda	#$0
    7c5c: 48           	pha
    7c5d: a5 1c        	lda	$1c                     ; 0x201c <next_line+0x7>
    7c5f: a0 08        	ldy	#$8
    7c61: 91 02        	sta	($2),y                  ; 0x2002 <__heap_default_limit+0x1002>
    7c63: a5 1d        	lda	$1d                     ; 0x201d <next_line+0x8>
    7c65: c8           	iny
    7c66: 91 02        	sta	($2),y                  ; 0x2002 <__heap_default_limit+0x1002>
    7c68: 68           	pla
    7c69: a2 9a        	ldx	#$9a
    7c6b: 86 04        	stx	$4                      ; 0x2004 <__heap_default_limit+0x1004>
    7c6d: a2 97        	ldx	#$97
    7c6f: 86 05        	stx	$5                      ; 0x2005 <__heap_default_limit+0x1005>
    7c71: a2 13        	ldx	#$13
    7c73: 86 08        	stx	$8                      ; 0x2008 <__heap_default_limit+0x1008>
    7c75: a2 99        	ldx	#$99
    7c77: 86 09        	stx	$9                      ; 0x2009 <__heap_default_limit+0x1009>
    7c79: 85 0a        	sta	$a                      ; 0x200a <__heap_default_limit+0x100a>
    7c7b: 85 0b        	sta	$b                      ; 0x200b <__heap_default_limit+0x100b>
    7c7d: 85 0c        	sta	$c                      ; 0x200c <__heap_default_limit+0x100c>
    7c7f: aa           	tax
    7c80: 4c 92 6e     	jmp	$6e92 <donehypclosefile9+0x972>
    7c83: a6 04        	ldx	$4                      ; 0x2004 <__heap_default_limit+0x1004>
    7c85: a9 26        	lda	#$26
    7c87: 8d 40 d6     	sta	$d640                   ; 0xd640 <__heap_start+0x3646>
    7c8a: b8           	clv
    7c8b: 90 05        	bcc	$7c92 <errhyprmfile15>
    7c8d: 85 04        	sta	$4                      ; 0x2004 <__heap_default_limit+0x1004>
    7c8f: 4c 96 7c     	jmp	$7c96 <donehyprmfile15>

00007c92 <errhyprmfile15>:
    7c92: a9 ff        	lda	#$ff
    7c94: 85 04        	sta	$4                      ; 0x2004 <__heap_default_limit+0x1004>

00007c96 <donehyprmfile15>:
    7c96: ea           	nop
    7c97: 5a           	phy
    7c98: fa           	plx
    7c99: a9 16        	lda	#$16
    7c9b: 8d 40 d6     	sta	$d640                   ; 0xd640 <__heap_start+0x3646>
    7c9e: b8           	clv
    7c9f: 90 05        	bcc	$7ca6 <errhypclosedir16>
    7ca1: 86 04        	stx	$4                      ; 0x2004 <__heap_default_limit+0x1004>
    7ca3: 4c a8 7c     	jmp	$7ca8 <donehypclosedir16>

00007ca6 <errhypclosedir16>:
    7ca6: 85 04        	sta	$4                      ; 0x2004 <__heap_default_limit+0x1004>

00007ca8 <donehypclosedir16>:
    7ca8: ea           	nop
    7ca9: 4c da 66     	jmp	$66da <donehypclosefile9+0x1ba>
    7cac: 29 0f        	and	#$f
    7cae: c9 05        	cmp	#$5
    7cb0: d0 09        	bne	$7cbb <donehypclosedir16+0x13>
    7cb2: b1 20        	lda	($20),y                 ; 0x2020 <next_line+0xb>
    7cb4: c9 ff        	cmp	#$ff
    7cb6: f0 03        	beq	$7cbb <donehypclosedir16+0x13>
    7cb8: 4c 57 81     	jmp	$8157 <donehyp1att19+0x4>
    7cbb: a5 1a        	lda	$1a                     ; 0x201a <next_line+0x5>
    7cbd: a0 08        	ldy	#$8
    7cbf: 91 02        	sta	($2),y                  ; 0x2002 <__heap_default_limit+0x1002>
    7cc1: a5 1b        	lda	$1b                     ; 0x201b <next_line+0x6>
    7cc3: c8           	iny
    7cc4: 91 02        	sta	($2),y                  ; 0x2002 <__heap_default_limit+0x1002>
    7cc6: 20 d7 86     	jsr	$86d7 <sidbong>
    7cc9: a0 02        	ldy	#$2
    7ccb: b1 20        	lda	($20),y                 ; 0x2020 <next_line+0xb>
    7ccd: c9 ff        	cmp	#$ff
    7ccf: d0 03        	bne	$7cd4 <donehypclosedir16+0x2c>
    7cd1: 4c ef 59     	jmp	$59ef <navi+0x345>
    7cd4: a2 21        	ldx	#$21
    7cd6: 86 04        	stx	$4                      ; 0x2004 <__heap_default_limit+0x1004>
    7cd8: a2 96        	ldx	#$96
    7cda: 86 05        	stx	$5                      ; 0x2005 <__heap_default_limit+0x1005>
    7cdc: a2 c5        	ldx	#$c5
    7cde: 86 06        	stx	$6                      ; 0x2006 <__heap_default_limit+0x1006>
    7ce0: a2 9a        	ldx	#$9a
    7ce2: 4c e6 68     	jmp	$68e6 <donehypclosefile9+0x3c6>
    7ce5: a0 13        	ldy	#$13
    7ce7: b1 02        	lda	($2),y                  ; 0x2002 <__heap_default_limit+0x1002>
    7ce9: d0 03        	bne	$7cee <donehypclosedir16+0x46>
    7ceb: 4c 22 81     	jmp	$8122 <donehypchdir18+0xf3>
    7cee: a2 68        	ldx	#$68
    7cf0: 86 08        	stx	$8                      ; 0x2008 <__heap_default_limit+0x1008>
    7cf2: a2 93        	ldx	#$93
    7cf4: 86 09        	stx	$9                      ; 0x2009 <__heap_default_limit+0x1009>
    7cf6: 18           	clc
    7cf7: b1 02        	lda	($2),y                  ; 0x2002 <__heap_default_limit+0x1002>
    7cf9: 85 04        	sta	$4                      ; 0x2004 <__heap_default_limit+0x1004>
    7cfb: a5 1d        	lda	$1d                     ; 0x201d <next_line+0x8>
    7cfd: 65 04        	adc	$4                      ; 0x2004 <__heap_default_limit+0x1004>
    7cff: 85 04        	sta	$4                      ; 0x2004 <__heap_default_limit+0x1004>
    7d01: a0 11        	ldy	#$11
    7d03: b1 02        	lda	($2),y                  ; 0x2002 <__heap_default_limit+0x1002>
    7d05: 69 00        	adc	#$0
    7d07: 85 05        	sta	$5                      ; 0x2005 <__heap_default_limit+0x1005>
    7d09: a9 7c        	lda	#$7c
    7d0b: 18           	clc
    7d0c: 65 04        	adc	$4                      ; 0x2004 <__heap_default_limit+0x1004>
    7d0e: 85 06        	sta	$6                      ; 0x2006 <__heap_default_limit+0x1006>
    7d10: a9 9f        	lda	#$9f
    7d12: 65 05        	adc	$5                      ; 0x2005 <__heap_default_limit+0x1005>
    7d14: 85 07        	sta	$7                      ; 0x2007 <__heap_default_limit+0x1007>
    7d16: a2 01        	ldx	#$1
    7d18: 86 04        	stx	$4                      ; 0x2004 <__heap_default_limit+0x1004>
    7d1a: a2 97        	ldx	#$97
    7d1c: 86 05        	stx	$5                      ; 0x2005 <__heap_default_limit+0x1005>
    7d1e: 64 0a        	stz	$a                      ; 0x200a <__heap_default_limit+0x100a>
    7d20: 64 0b        	stz	$b                      ; 0x200b <__heap_default_limit+0x100b>
    7d22: 64 0c        	stz	$c                      ; 0x200c <__heap_default_limit+0x100c>
    7d24: a2 00        	ldx	#$0
    7d26: 8a           	txa
    7d27: 20 67 44     	jsr	$4467 <messagebox>
    7d2a: aa           	tax
    7d2b: d0 03        	bne	$7d30 <donehypclosedir16+0x88>
    7d2d: 4c ef 59     	jmp	$59ef <navi+0x345>
    7d30: 18           	clc
    7d31: a0 14        	ldy	#$14
    7d33: b1 02        	lda	($2),y                  ; 0x2002 <__heap_default_limit+0x1002>
    7d35: 69 4a        	adc	#$4a
    7d37: 85 1a        	sta	$1a                     ; 0x201a <next_line+0x5>
    7d39: a0 16        	ldy	#$16
    7d3b: b1 02        	lda	($2),y                  ; 0x2002 <__heap_default_limit+0x1002>
    7d3d: 69 00        	adc	#$0
    7d3f: 85 1b        	sta	$1b                     ; 0x201b <next_line+0x6>
    7d41: a6 1a        	ldx	$1a                     ; 0x201a <next_line+0x5>
    7d43: 86 04        	stx	$4                      ; 0x2004 <__heap_default_limit+0x1004>
    7d45: 85 05        	sta	$5                      ; 0x2005 <__heap_default_limit+0x1005>
    7d47: a2 29        	ldx	#$29
    7d49: 86 06        	stx	$6                      ; 0x2006 <__heap_default_limit+0x1006>
    7d4b: a2 95        	ldx	#$95
    7d4d: 86 07        	stx	$7                      ; 0x2007 <__heap_default_limit+0x1007>
    7d4f: 20 c7 46     	jsr	$46c7 <inputbox>
    7d52: a6 1a        	ldx	$1a                     ; 0x201a <next_line+0x5>
    7d54: 86 04        	stx	$4                      ; 0x2004 <__heap_default_limit+0x1004>
    7d56: a6 1b        	ldx	$1b                     ; 0x201b <next_line+0x6>
    7d58: 86 05        	stx	$5                      ; 0x2005 <__heap_default_limit+0x1005>
    7d5a: a6 1a        	ldx	$1a                     ; 0x201a <next_line+0x5>
    7d5c: 86 06        	stx	$6                      ; 0x2006 <__heap_default_limit+0x1006>
    7d5e: a6 1b        	ldx	$1b                     ; 0x201b <next_line+0x6>
    7d60: 86 07        	stx	$7                      ; 0x2007 <__heap_default_limit+0x1007>
    7d62: 20 de 40     	jsr	$40de <strmakefilename>
    7d65: b2 16        	lda	($16),z                 ; 0x2016 <next_line+0x1>
    7d67: 85 06        	sta	$6                      ; 0x2006 <__heap_default_limit+0x1006>
    7d69: a0 47        	ldy	#$47
    7d6b: b1 16        	lda	($16),y                 ; 0x2016 <next_line+0x1>
    7d6d: a6 1a        	ldx	$1a                     ; 0x201a <next_line+0x5>
    7d6f: 86 04        	stx	$4                      ; 0x2004 <__heap_default_limit+0x1004>
    7d71: a6 1b        	ldx	$1b                     ; 0x201b <next_line+0x6>
    7d73: 86 05        	stx	$5                      ; 0x2005 <__heap_default_limit+0x1005>
    7d75: aa           	tax
    7d76: a5 06        	lda	$6                      ; 0x2006 <__heap_default_limit+0x1006>
    7d78: 20 e0 2c     	jsr	$2ce0 <FormatPartition>
    7d7b: 4c ef 74     	jmp	$74ef <donehypd81dosattach10+0x18>
    7d7e: a9 00        	lda	#$0
    7d80: 0a           	asl
    7d81: aa           	tax
    7d82: b4 27        	ldy	$27,x                   ; 0x2027 <_start+0x6>
    7d84: b5 28        	lda	$28,x                   ; 0x2028 <_start+0x7>
    7d86: aa           	tax
    7d87: 84 16        	sty	$16                     ; 0x2016 <next_line+0x1>
    7d89: 86 17        	stx	$17                     ; 0x2017 <next_line+0x2>
    7d8b: a9 01        	lda	#$1
    7d8d: a0 46        	ldy	#$46
    7d8f: 31 16        	and	($16),y                 ; 0x2016 <next_line+0x1>
    7d91: 29 01        	and	#$1
    7d93: aa           	tax
    7d94: a9 04        	lda	#$4
    7d96: e0 00        	cpx	#$0
    7d98: d0 26        	bne	$7dc0 <donehypclosedir16+0x118>
    7d9a: a2 33        	ldx	#$33
    7d9c: 86 04        	stx	$4                      ; 0x2004 <__heap_default_limit+0x1004>
    7d9e: a2 92        	ldx	#$92
    7da0: 86 05        	stx	$5                      ; 0x2005 <__heap_default_limit+0x1005>
    7da2: a2 09        	ldx	#$9
    7da4: 86 06        	stx	$6                      ; 0x2006 <__heap_default_limit+0x1006>
    7da6: a2 92        	ldx	#$92
    7da8: 86 07        	stx	$7                      ; 0x2007 <__heap_default_limit+0x1007>
    7daa: a2 07        	ldx	#$7
    7dac: 86 08        	stx	$8                      ; 0x2008 <__heap_default_limit+0x1008>
    7dae: a2 92        	ldx	#$92
    7db0: 86 09        	stx	$9                      ; 0x2009 <__heap_default_limit+0x1009>
    7db2: 64 0a        	stz	$a                      ; 0x200a <__heap_default_limit+0x100a>
    7db4: 64 0b        	stz	$b                      ; 0x200b <__heap_default_limit+0x100b>
    7db6: 64 0c        	stz	$c                      ; 0x200c <__heap_default_limit+0x100c>
    7db8: a2 00        	ldx	#$0
    7dba: 20 67 44     	jsr	$4467 <messagebox>
    7dbd: 4c ef 59     	jmp	$59ef <navi+0x345>
    7dc0: a0 47        	ldy	#$47
    7dc2: b1 18        	lda	($18),y                 ; 0x2018 <next_line+0x3>
    7dc4: c9 28        	cmp	#$28
    7dc6: f0 03        	beq	$7dcb <donehypclosedir16+0x123>
    7dc8: 4c ef 59     	jmp	$59ef <navi+0x345>
    7dcb: a2 e2        	ldx	#$e2
    7dcd: 86 04        	stx	$4                      ; 0x2004 <__heap_default_limit+0x1004>
    7dcf: a2 94        	ldx	#$94
    7dd1: 86 05        	stx	$5                      ; 0x2005 <__heap_default_limit+0x1005>
    7dd3: a2 ac        	ldx	#$ac
    7dd5: 86 06        	stx	$6                      ; 0x2006 <__heap_default_limit+0x1006>
    7dd7: a2 97        	ldx	#$97
    7dd9: 86 07        	stx	$7                      ; 0x2007 <__heap_default_limit+0x1007>
    7ddb: a2 07        	ldx	#$7
    7ddd: 86 08        	stx	$8                      ; 0x2008 <__heap_default_limit+0x1008>
    7ddf: a2 92        	ldx	#$92
    7de1: 86 09        	stx	$9                      ; 0x2009 <__heap_default_limit+0x1009>
    7de3: 64 0a        	stz	$a                      ; 0x200a <__heap_default_limit+0x100a>
    7de5: 64 0b        	stz	$b                      ; 0x200b <__heap_default_limit+0x100b>
    7de7: 64 0c        	stz	$c                      ; 0x200c <__heap_default_limit+0x100c>
    7de9: a2 00        	ldx	#$0
    7deb: 8a           	txa
    7dec: 20 67 44     	jsr	$4467 <messagebox>
    7def: aa           	tax
    7df0: f0 03        	beq	$7df5 <donehypclosedir16+0x14d>
    7df2: 4c cd 81     	jmp	$81cd <donehyp1att19+0x7a>
    7df5: 4c ef 59     	jmp	$59ef <navi+0x345>
    7df8: a6 1b        	ldx	$1b                     ; 0x201b <next_line+0x6>
    7dfa: e0 02        	cpx	#$2
    7dfc: f0 03        	beq	$7e01 <donehypclosedir16+0x159>
    7dfe: 4c de 7f     	jmp	$7fde <donehypchdir17+0x12e>
    7e01: c0 09        	cpy	#$9
    7e03: f0 03        	beq	$7e08 <donehypclosedir16+0x160>
    7e05: 4c de 7f     	jmp	$7fde <donehypchdir17+0x12e>
    7e08: a0 13        	ldy	#$13
    7e0a: b1 02        	lda	($2),y                  ; 0x2002 <__heap_default_limit+0x1002>
    7e0c: d0 06        	bne	$7e14 <donehypclosedir16+0x16c>
    7e0e: a2 01        	ldx	#$1
    7e10: 8a           	txa
    7e11: 4c ed 59     	jmp	$59ed <navi+0x343>
    7e14: 64 04        	stz	$4                      ; 0x2004 <__heap_default_limit+0x1004>
    7e16: a9 00        	lda	#$0
    7e18: 4c ed 59     	jmp	$59ed <navi+0x343>
    7e1b: a9 00        	lda	#$0
    7e1d: 0a           	asl
    7e1e: aa           	tax
    7e1f: b4 27        	ldy	$27,x                   ; 0x2027 <_start+0x6>
    7e21: b5 28        	lda	$28,x                   ; 0x2028 <_start+0x7>
    7e23: aa           	tax
    7e24: 84 18        	sty	$18                     ; 0x2018 <next_line+0x3>
    7e26: 84 16        	sty	$16                     ; 0x2016 <next_line+0x1>
    7e28: 86 17        	stx	$17                     ; 0x2017 <next_line+0x2>
    7e2a: a9 01        	lda	#$1
    7e2c: a0 46        	ldy	#$46
    7e2e: 31 16        	and	($16),y                 ; 0x2016 <next_line+0x1>
    7e30: 29 01        	and	#$1
    7e32: d0 09        	bne	$7e3d <donehypclosedir16+0x195>
    7e34: a2 17        	ldx	#$17
    7e36: 86 04        	stx	$4                      ; 0x2004 <__heap_default_limit+0x1004>
    7e38: a2 9b        	ldx	#$9b
    7e3a: 4c dc 71     	jmp	$71dc <donehypclosefile9+0xcbc>
    7e3d: 86 19        	stx	$19                     ; 0x2019 <next_line+0x4>
    7e3f: a0 13        	ldy	#$13
    7e41: b1 02        	lda	($2),y                  ; 0x2002 <__heap_default_limit+0x1002>
    7e43: 20 0b 55     	jsr	$550b <sizeselectcurrentifnone>
    7e46: a0 01        	ldy	#$1
    7e48: 85 04        	sta	$4                      ; 0x2004 <__heap_default_limit+0x1004>
    7e4a: 86 05        	stx	$5                      ; 0x2005 <__heap_default_limit+0x1005>
    7e4c: 18           	clc
    7e4d: a5 18        	lda	$18                     ; 0x2018 <next_line+0x3>
    7e4f: 69 44        	adc	#$44
    7e51: 85 06        	sta	$6                      ; 0x2006 <__heap_default_limit+0x1006>
    7e53: a5 19        	lda	$19                     ; 0x2019 <next_line+0x4>
    7e55: 69 00        	adc	#$0
    7e57: 85 07        	sta	$7                      ; 0x2007 <__heap_default_limit+0x1007>
    7e59: b1 06        	lda	($6),y                  ; 0x2006 <__heap_default_limit+0x1006>
    7e5b: c5 05        	cmp	$5                      ; 0x2005 <__heap_default_limit+0x1005>
    7e5d: f0 03        	beq	$7e62 <donehypclosedir16+0x1ba>
    7e5f: 4c 5d 80     	jmp	$805d <donehypchdir18+0x2e>
    7e62: 4c 43 80     	jmp	$8043 <donehypchdir18+0x14>
    7e65: c8           	iny
    7e66: 98           	tya
    7e67: a0 01        	ldy	#$1
    7e69: 91 1c        	sta	($1c),y                 ; 0x201c <next_line+0x7>
    7e6b: 4c ef 59     	jmp	$59ef <navi+0x345>
    7e6e: a6 18        	ldx	$18                     ; 0x2018 <next_line+0x3>
    7e70: 86 04        	stx	$4                      ; 0x2004 <__heap_default_limit+0x1004>
    7e72: a6 19        	ldx	$19                     ; 0x2019 <next_line+0x4>
    7e74: 86 05        	stx	$5                      ; 0x2005 <__heap_default_limit+0x1005>
    7e76: 4c d7 73     	jmp	$73d7 <donehypclosefile9+0xeb7>
    7e79: a5 04        	lda	$4                      ; 0x2004 <__heap_default_limit+0x1004>
    7e7b: a6 04        	ldx	$4                      ; 0x2004 <__heap_default_limit+0x1004>
    7e7d: 86 18        	stx	$18                     ; 0x2018 <next_line+0x3>
    7e7f: a6 05        	ldx	$5                      ; 0x2005 <__heap_default_limit+0x1005>
    7e81: 86 19        	stx	$19                     ; 0x2019 <next_line+0x4>
    7e83: 18           	clc
    7e84: 69 05        	adc	#$5
    7e86: 85 1c        	sta	$1c                     ; 0x201c <next_line+0x7>
    7e88: a5 05        	lda	$5                      ; 0x2005 <__heap_default_limit+0x1005>
    7e8a: 69 00        	adc	#$0
    7e8c: 85 1d        	sta	$1d                     ; 0x201d <next_line+0x8>
    7e8e: a6 1c        	ldx	$1c                     ; 0x201c <next_line+0x7>
    7e90: 86 04        	stx	$4                      ; 0x2004 <__heap_default_limit+0x1004>
    7e92: 85 05        	sta	$5                      ; 0x2005 <__heap_default_limit+0x1005>
    7e94: 20 9c 21     	jsr	$219c <hyppo_setname>
    7e97: a2 00        	ldx	#$0
    7e99: a9 34        	lda	#$34
    7e9b: 8d 40 d6     	sta	$d640                   ; 0xd640 <__heap_start+0x3646>
    7e9e: b8           	clv
    7e9f: 90 0b        	bcc	$7eac <errhypchdir17>
    7ea1: a9 0c        	lda	#$c
    7ea3: 8d 40 d6     	sta	$d640                   ; 0xd640 <__heap_start+0x3646>
    7ea6: b8           	clv
    7ea7: 85 04        	sta	$4                      ; 0x2004 <__heap_default_limit+0x1004>
    7ea9: 4c b0 7e     	jmp	$7eb0 <donehypchdir17>

00007eac <errhypchdir17>:
    7eac: a9 ff        	lda	#$ff
    7eae: 85 04        	sta	$4                      ; 0x2004 <__heap_default_limit+0x1004>

00007eb0 <donehypchdir17>:
    7eb0: ea           	nop
    7eb1: a6 04        	ldx	$4                      ; 0x2004 <__heap_default_limit+0x1004>
    7eb3: e0 10        	cpx	#$10
    7eb5: b0 03        	bcs	$7eba <donehypchdir17+0xa>
    7eb7: 4c 0b 81     	jmp	$810b <donehypchdir18+0xdc>
    7eba: 4c e3 80     	jmp	$80e3 <donehypchdir18+0xb4>
    7ebd: b2 1e        	lda	($1e),z                 ; 0x201e <next_line+0x9>
    7ebf: 85 05        	sta	$5                      ; 0x2005 <__heap_default_limit+0x1005>
    7ec1: a0 47        	ldy	#$47
    7ec3: b1 1e        	lda	($1e),y                 ; 0x201e <next_line+0x9>
    7ec5: 85 04        	sta	$4                      ; 0x2004 <__heap_default_limit+0x1004>
    7ec7: a0 13        	ldy	#$13
    7ec9: b1 02        	lda	($2),y                  ; 0x2002 <__heap_default_limit+0x1002>
    7ecb: 85 17        	sta	$17                     ; 0x2017 <next_line+0x2>
    7ecd: aa           	tax
    7ece: a5 05        	lda	$5                      ; 0x2005 <__heap_default_limit+0x1005>
    7ed0: 20 87 26     	jsr	$2687 <PutBAM>
    7ed3: a6 1a        	ldx	$1a                     ; 0x201a <next_line+0x5>
    7ed5: 86 06        	stx	$6                      ; 0x2006 <__heap_default_limit+0x1006>
    7ed7: a6 1b        	ldx	$1b                     ; 0x201b <next_line+0x6>
    7ed9: 86 07        	stx	$7                      ; 0x2007 <__heap_default_limit+0x1007>
    7edb: a0 08        	ldy	#$8
    7edd: b1 02        	lda	($2),y                  ; 0x2002 <__heap_default_limit+0x1002>
    7edf: 85 1a        	sta	$1a                     ; 0x201a <next_line+0x5>
    7ee1: c8           	iny
    7ee2: b1 02        	lda	($2),y                  ; 0x2002 <__heap_default_limit+0x1002>
    7ee4: 85 1b        	sta	$1b                     ; 0x201b <next_line+0x6>
    7ee6: a9 00        	lda	#$0
    7ee8: 92 1a        	sta	($1a),z                 ; 0x201a <next_line+0x5>
    7eea: b2 1c        	lda	($1c),z                 ; 0x201c <next_line+0x7>
    7eec: 85 16        	sta	$16                     ; 0x2016 <next_line+0x1>
    7eee: a0 03        	ldy	#$3
    7ef0: 91 1a        	sta	($1a),y                 ; 0x201a <next_line+0x5>
    7ef2: a6 1a        	ldx	$1a                     ; 0x201a <next_line+0x5>
    7ef4: a5 1a        	lda	$1a                     ; 0x201a <next_line+0x5>
    7ef6: 86 21        	stx	$21                     ; 0x2021 <_start>
    7ef8: 18           	clc
    7ef9: 69 05        	adc	#$5
    7efb: 85 1c        	sta	$1c                     ; 0x201c <next_line+0x7>
    7efd: a5 1b        	lda	$1b                     ; 0x201b <next_line+0x6>
    7eff: 69 00        	adc	#$0
    7f01: 85 1d        	sta	$1d                     ; 0x201d <next_line+0x8>
    7f03: a0 01        	ldy	#$1
    7f05: a9 00        	lda	#$0
    7f07: 91 1a        	sta	($1a),y                 ; 0x201a <next_line+0x5>
    7f09: a9 85        	lda	#$85
    7f0b: c8           	iny
    7f0c: 91 1a        	sta	($1a),y                 ; 0x201a <next_line+0x5>
    7f0e: a0 04        	ldy	#$4
    7f10: a9 00        	lda	#$0
    7f12: 91 1a        	sta	($1a),y                 ; 0x201a <next_line+0x5>
    7f14: a6 06        	ldx	$6                      ; 0x2006 <__heap_default_limit+0x1006>
    7f16: 86 04        	stx	$4                      ; 0x2004 <__heap_default_limit+0x1004>
    7f18: a6 07        	ldx	$7                      ; 0x2007 <__heap_default_limit+0x1007>
    7f1a: 86 05        	stx	$5                      ; 0x2005 <__heap_default_limit+0x1005>
    7f1c: a6 1c        	ldx	$1c                     ; 0x201c <next_line+0x7>
    7f1e: 86 06        	stx	$6                      ; 0x2006 <__heap_default_limit+0x1006>
    7f20: a6 1d        	ldx	$1d                     ; 0x201d <next_line+0x8>
    7f22: 86 07        	stx	$7                      ; 0x2007 <__heap_default_limit+0x1007>
    7f24: 20 de 40     	jsr	$40de <strmakefilename>
    7f27: b2 18        	lda	($18),z                 ; 0x2018 <next_line+0x3>
    7f29: 38           	sec
    7f2a: e5 16        	sbc	$16                     ; 0x2016 <next_line+0x1>
    7f2c: 85 04        	sta	$4                      ; 0x2004 <__heap_default_limit+0x1004>
    7f2e: a9 00        	lda	#$0
    7f30: e9 00        	sbc	#$0
    7f32: 06 04        	asl	$4                      ; 0x2004 <__heap_default_limit+0x1004>
    7f34: 2a           	rol
    7f35: 06 04        	asl	$4                      ; 0x2004 <__heap_default_limit+0x1004>
    7f37: 2a           	rol
    7f38: 06 04        	asl	$4                      ; 0x2004 <__heap_default_limit+0x1004>
    7f3a: 2a           	rol
    7f3b: 85 05        	sta	$5                      ; 0x2005 <__heap_default_limit+0x1005>
    7f3d: a5 04        	lda	$4                      ; 0x2004 <__heap_default_limit+0x1004>
    7f3f: 0a           	asl
    7f40: a6 05        	ldx	$5                      ; 0x2005 <__heap_default_limit+0x1005>
    7f42: 86 06        	stx	$6                      ; 0x2006 <__heap_default_limit+0x1006>
    7f44: 26 06        	rol	$6                      ; 0x2006 <__heap_default_limit+0x1006>
    7f46: 0a           	asl
    7f47: 26 06        	rol	$6                      ; 0x2006 <__heap_default_limit+0x1006>
    7f49: 18           	clc
    7f4a: 65 04        	adc	$4                      ; 0x2004 <__heap_default_limit+0x1004>
    7f4c: aa           	tax
    7f4d: a5 06        	lda	$6                      ; 0x2006 <__heap_default_limit+0x1006>
    7f4f: 65 05        	adc	$5                      ; 0x2005 <__heap_default_limit+0x1005>
    7f51: 85 06        	sta	$6                      ; 0x2006 <__heap_default_limit+0x1006>
    7f53: 18           	clc
    7f54: a5 21        	lda	$21                     ; 0x2021 <_start>
    7f56: 69 1e        	adc	#$1e
    7f58: 85 04        	sta	$4                      ; 0x2004 <__heap_default_limit+0x1004>
    7f5a: a5 1b        	lda	$1b                     ; 0x201b <next_line+0x6>
    7f5c: 69 00        	adc	#$0
    7f5e: 85 05        	sta	$5                      ; 0x2005 <__heap_default_limit+0x1005>
    7f60: a0 1e        	ldy	#$1e
    7f62: 8a           	txa
    7f63: 91 1a        	sta	($1a),y                 ; 0x201a <next_line+0x5>
    7f65: a0 01        	ldy	#$1
    7f67: a5 06        	lda	$6                      ; 0x2006 <__heap_default_limit+0x1006>
    7f69: 91 04        	sta	($4),y                  ; 0x2004 <__heap_default_limit+0x1004>
    7f6b: b2 1e        	lda	($1e),z                 ; 0x201e <next_line+0x9>
    7f6d: 85 07        	sta	$7                      ; 0x2007 <__heap_default_limit+0x1007>
    7f6f: a0 47        	ldy	#$47
    7f71: b1 1e        	lda	($1e),y                 ; 0x201e <next_line+0x9>
    7f73: 85 04        	sta	$4                      ; 0x2004 <__heap_default_limit+0x1004>
    7f75: c8           	iny
    7f76: b1 1e        	lda	($1e),y                 ; 0x201e <next_line+0x9>
    7f78: 85 05        	sta	$5                      ; 0x2005 <__heap_default_limit+0x1005>
    7f7a: c8           	iny
    7f7b: b1 1e        	lda	($1e),y                 ; 0x201e <next_line+0x9>
    7f7d: a6 1a        	ldx	$1a                     ; 0x201a <next_line+0x5>
    7f7f: 86 08        	stx	$8                      ; 0x2008 <__heap_default_limit+0x1008>
    7f81: a6 1b        	ldx	$1b                     ; 0x201b <next_line+0x6>
    7f83: 86 09        	stx	$9                      ; 0x2009 <__heap_default_limit+0x1009>
    7f85: 85 06        	sta	$6                      ; 0x2006 <__heap_default_limit+0x1006>
    7f87: a6 17        	ldx	$17                     ; 0x2017 <next_line+0x2>
    7f89: a5 07        	lda	$7                      ; 0x2007 <__heap_default_limit+0x1007>
    7f8b: 20 56 36     	jsr	$3656 <writenewdirententry>
    7f8e: b2 1e        	lda	($1e),z                 ; 0x201e <next_line+0x9>
    7f90: a6 1c        	ldx	$1c                     ; 0x201c <next_line+0x7>
    7f92: 86 04        	stx	$4                      ; 0x2004 <__heap_default_limit+0x1004>
    7f94: a6 1d        	ldx	$1d                     ; 0x201d <next_line+0x8>
    7f96: 86 05        	stx	$5                      ; 0x2005 <__heap_default_limit+0x1005>
    7f98: a6 16        	ldx	$16                     ; 0x2016 <next_line+0x1>
    7f9a: 20 e0 2c     	jsr	$2ce0 <FormatPartition>
    7f9d: b2 1e        	lda	($1e),z                 ; 0x201e <next_line+0x9>
    7f9f: a6 17        	ldx	$17                     ; 0x2017 <next_line+0x2>
    7fa1: 20 0d 4f     	jsr	$4f0d <UpdateSectors>
    7fa4: a5 17        	lda	$17                     ; 0x2017 <next_line+0x2>
    7fa6: 20 c5 47     	jsr	$47c5 <Deselect>
    7fa9: 4c ef 59     	jmp	$59ef <navi+0x345>
    7fac: c0 00        	cpy	#$0
    7fae: b0 03        	bcs	$7fb3 <donehypchdir17+0x103>
    7fb0: 4c f6 7a     	jmp	$7af6 <donehypfindfirst11+0xb4>
    7fb3: a6 1a        	ldx	$1a                     ; 0x201a <next_line+0x5>
    7fb5: 86 04        	stx	$4                      ; 0x2004 <__heap_default_limit+0x1004>
    7fb7: a6 1b        	ldx	$1b                     ; 0x201b <next_line+0x6>
    7fb9: 86 05        	stx	$5                      ; 0x2005 <__heap_default_limit+0x1005>
    7fbb: a2 17        	ldx	#$17
    7fbd: 86 06        	stx	$6                      ; 0x2006 <__heap_default_limit+0x1006>
    7fbf: a2 94        	ldx	#$94
    7fc1: 86 07        	stx	$7                      ; 0x2007 <__heap_default_limit+0x1007>
    7fc3: 20 c7 46     	jsr	$46c7 <inputbox>
    7fc6: 18           	clc
    7fc7: a5 17        	lda	$17                     ; 0x2017 <next_line+0x2>
    7fc9: 65 16        	adc	$16                     ; 0x2016 <next_line+0x1>
    7fcb: 3a           	dec
    7fcc: 92 18        	sta	($18),z                 ; 0x2018 <next_line+0x3>
    7fce: 85 17        	sta	$17                     ; 0x2017 <next_line+0x2>
    7fd0: a0 13        	ldy	#$13
    7fd2: b1 02        	lda	($2),y                  ; 0x2002 <__heap_default_limit+0x1002>
    7fd4: 20 4e 26     	jsr	$264e <GetBAM>
    7fd7: a4 17        	ldy	$17                     ; 0x2017 <next_line+0x2>
    7fd9: a2 01        	ldx	#$1
    7fdb: 4c 66 5f     	jmp	$5f66 <navi+0x8bc>
    7fde: a6 1b        	ldx	$1b                     ; 0x201b <next_line+0x6>
    7fe0: a0 19        	ldy	#$19
    7fe2: b1 02        	lda	($2),y                  ; 0x2002 <__heap_default_limit+0x1002>
    7fe4: a8           	tay
    7fe5: e0 02        	cpx	#$2
    7fe7: d0 03        	bne	$7fec <donehypchdir17+0x13c>
    7fe9: 4c 9e 81     	jmp	$819e <donehyp1att19+0x4b>
    7fec: a6 1b        	ldx	$1b                     ; 0x201b <next_line+0x6>
    7fee: e0 02        	cpx	#$2
    7ff0: f0 03        	beq	$7ff5 <donehypchdir17+0x145>
    7ff2: 4c d8 82     	jmp	$82d8 <donehyp1att19+0x185>
    7ff5: 4c d1 82     	jmp	$82d1 <donehyp1att19+0x17e>
    7ff8: 91 20        	sta	($20),y                 ; 0x2020 <next_line+0xb>
    7ffa: b2 20        	lda	($20),z                 ; 0x2020 <next_line+0xb>
    7ffc: 4c 5e 6b     	jmp	$6b5e <donehypclosefile9+0x63e>
    7fff: a6 04        	ldx	$4                      ; 0x2004 <__heap_default_limit+0x1004>
    8001: e0 4b        	cpx	#$4b
    8003: b0 03        	bcs	$8008 <donehypchdir17+0x158>
    8005: 4c 22 82     	jmp	$8222 <donehyp1att19+0xcf>
    8008: 4c fb 81     	jmp	$81fb <donehyp1att19+0xa8>
    800b: a2 9e        	ldx	#$9e
    800d: 86 04        	stx	$4                      ; 0x2004 <__heap_default_limit+0x1004>
    800f: a2 9f        	ldx	#$9f
    8011: 86 05        	stx	$5                      ; 0x2005 <__heap_default_limit+0x1005>
    8013: 20 9c 21     	jsr	$219c <hyppo_setname>
    8016: a2 00        	ldx	#$0
    8018: a9 34        	lda	#$34
    801a: 8d 40 d6     	sta	$d640                   ; 0xd640 <__heap_start+0x3646>
    801d: b8           	clv
    801e: 90 0b        	bcc	$802b <errhypchdir18>
    8020: a9 0c        	lda	#$c
    8022: 8d 40 d6     	sta	$d640                   ; 0xd640 <__heap_start+0x3646>
    8025: b8           	clv
    8026: 85 04        	sta	$4                      ; 0x2004 <__heap_default_limit+0x1004>
    8028: 4c 2f 80     	jmp	$802f <donehypchdir18>

0000802b <errhypchdir18>:
    802b: a9 ff        	lda	#$ff
    802d: 85 04        	sta	$4                      ; 0x2004 <__heap_default_limit+0x1004>

0000802f <donehypchdir18>:
    802f: ea           	nop
    8030: a6 04        	ldx	$4                      ; 0x2004 <__heap_default_limit+0x1004>
    8032: e0 10        	cpx	#$10
    8034: b0 03        	bcs	$8039 <donehypchdir18+0xa>
    8036: 4c 58 82     	jmp	$8258 <donehyp1att19+0x105>
    8039: 4c 2b 82     	jmp	$822b <donehyp1att19+0xd8>
    803c: a9 00        	lda	#$0
    803e: 91 1c        	sta	($1c),y                 ; 0x201c <next_line+0x7>
    8040: 4c ef 59     	jmp	$59ef <navi+0x345>
    8043: a0 44        	ldy	#$44
    8045: b1 16        	lda	($16),y                 ; 0x2016 <next_line+0x1>
    8047: c5 04        	cmp	$4                      ; 0x2004 <__heap_default_limit+0x1004>
    8049: 90 16        	bcc	$8061 <donehypchdir18+0x32>
    804b: a0 13        	ldy	#$13
    804d: b1 02        	lda	($2),y                  ; 0x2002 <__heap_default_limit+0x1002>
    804f: d0 03        	bne	$8054 <donehypchdir18+0x25>
    8051: 4c 6a 83     	jmp	$836a <donehyp0att20+0x45>
    8054: a2 3f        	ldx	#$3f
    8056: 86 08        	stx	$8                      ; 0x2008 <__heap_default_limit+0x1008>
    8058: a2 99        	ldx	#$99
    805a: 4c 70 83     	jmp	$8370 <donehyp0att20+0x4b>
    805d: c5 05        	cmp	$5                      ; 0x2005 <__heap_default_limit+0x1005>
    805f: b0 ea        	bcs	$804b <donehypchdir18+0x1c>
    8061: a9 04        	lda	#$4
    8063: a2 99        	ldx	#$99
    8065: 86 04        	stx	$4                      ; 0x2004 <__heap_default_limit+0x1004>
    8067: a2 93        	ldx	#$93
    8069: 86 05        	stx	$5                      ; 0x2005 <__heap_default_limit+0x1005>
    806b: a2 e7        	ldx	#$e7
    806d: 86 06        	stx	$6                      ; 0x2006 <__heap_default_limit+0x1006>
    806f: a2 92        	ldx	#$92
    8071: 4c a8 7d     	jmp	$7da8 <donehypclosedir16+0x100>
    8074: a8           	tay
    8075: 4c 65 7e     	jmp	$7e65 <donehypclosedir16+0x1bd>
    8078: 38           	sec
    8079: a5 21        	lda	$21                     ; 0x2021 <_start>
    807b: e5 1a        	sbc	$1a                     ; 0x201a <next_line+0x5>
    807d: 85 17        	sta	$17                     ; 0x2017 <next_line+0x2>
    807f: 85 04        	sta	$4                      ; 0x2004 <__heap_default_limit+0x1004>
    8081: a5 20        	lda	$20                     ; 0x2020 <next_line+0xb>
    8083: e5 19        	sbc	$19                     ; 0x2019 <next_line+0x4>
    8085: 85 18        	sta	$18                     ; 0x2018 <next_line+0x3>
    8087: 85 05        	sta	$5                      ; 0x2005 <__heap_default_limit+0x1005>
    8089: a9 8b        	lda	#$8b
    808b: 18           	clc
    808c: 65 04        	adc	$4                      ; 0x2004 <__heap_default_limit+0x1004>
    808e: 85 04        	sta	$4                      ; 0x2004 <__heap_default_limit+0x1004>
    8090: a9 9d        	lda	#$9d
    8092: 65 05        	adc	$5                      ; 0x2005 <__heap_default_limit+0x1005>
    8094: 85 05        	sta	$5                      ; 0x2005 <__heap_default_limit+0x1005>
    8096: a9 01        	lda	#$1
    8098: da           	phx
    8099: 7a           	ply
    809a: 31 04        	and	($4),y                  ; 0x2004 <__heap_default_limit+0x1004>
    809c: d0 03        	bne	$80a1 <donehypchdir18+0x72>
    809e: 4c 65 7e     	jmp	$7e65 <donehypclosedir16+0x1bd>
    80a1: 64 06        	stz	$6                      ; 0x2006 <__heap_default_limit+0x1006>
    80a3: 86 05        	stx	$5                      ; 0x2005 <__heap_default_limit+0x1005>
    80a5: e6 05        	inc	$5                      ; 0x2005 <__heap_default_limit+0x1005>
    80a7: d0 02        	bne	$80ab <donehypchdir18+0x7c>
    80a9: e6 06        	inc	$6                      ; 0x2006 <__heap_default_limit+0x1006>
    80ab: 64 04        	stz	$4                      ; 0x2004 <__heap_default_limit+0x1004>
    80ad: a0 13        	ldy	#$13
    80af: b1 02        	lda	($2),y                  ; 0x2002 <__heap_default_limit+0x1002>
    80b1: 85 16        	sta	$16                     ; 0x2016 <next_line+0x1>
    80b3: 20 a7 3d     	jsr	$3da7 <swapdirententry>
    80b6: a5 16        	lda	$16                     ; 0x2016 <next_line+0x1>
    80b8: 20 c5 47     	jsr	$47c5 <Deselect>
    80bb: a0 01        	ldy	#$1
    80bd: b1 1c        	lda	($1c),y                 ; 0x201c <next_line+0x7>
    80bf: 85 04        	sta	$4                      ; 0x2004 <__heap_default_limit+0x1004>
    80c1: a9 8b        	lda	#$8b
    80c3: 18           	clc
    80c4: 65 17        	adc	$17                     ; 0x2017 <next_line+0x2>
    80c6: aa           	tax
    80c7: a9 9d        	lda	#$9d
    80c9: 65 18        	adc	$18                     ; 0x2018 <next_line+0x3>
    80cb: 85 05        	sta	$5                      ; 0x2005 <__heap_default_limit+0x1005>
    80cd: 8a           	txa
    80ce: 18           	clc
    80cf: 65 04        	adc	$4                      ; 0x2004 <__heap_default_limit+0x1004>
    80d1: 85 06        	sta	$6                      ; 0x2006 <__heap_default_limit+0x1006>
    80d3: a5 05        	lda	$5                      ; 0x2005 <__heap_default_limit+0x1005>
    80d5: 69 00        	adc	#$0
    80d7: 85 07        	sta	$7                      ; 0x2007 <__heap_default_limit+0x1007>
    80d9: 98           	tya
    80da: 11 06        	ora	($6),y                  ; 0x2006 <__heap_default_limit+0x1006>
    80dc: 91 06        	sta	($6),y                  ; 0x2006 <__heap_default_limit+0x1006>
    80de: a4 04        	ldy	$4                      ; 0x2004 <__heap_default_limit+0x1004>
    80e0: 4c 65 7e     	jmp	$7e65 <donehypclosedir16+0x1bd>
    80e3: a2 96        	ldx	#$96
    80e5: 86 04        	stx	$4                      ; 0x2004 <__heap_default_limit+0x1004>
    80e7: a2 92        	ldx	#$92
    80e9: 86 05        	stx	$5                      ; 0x2005 <__heap_default_limit+0x1005>
    80eb: a2 11        	ldx	#$11
    80ed: 86 06        	stx	$6                      ; 0x2006 <__heap_default_limit+0x1006>
    80ef: a2 96        	ldx	#$96
    80f1: 86 07        	stx	$7                      ; 0x2007 <__heap_default_limit+0x1007>
    80f3: a6 1c        	ldx	$1c                     ; 0x201c <next_line+0x7>
    80f5: 86 08        	stx	$8                      ; 0x2008 <__heap_default_limit+0x1008>
    80f7: a6 1d        	ldx	$1d                     ; 0x201d <next_line+0x8>
    80f9: 86 09        	stx	$9                      ; 0x2009 <__heap_default_limit+0x1009>
    80fb: 64 0a        	stz	$a                      ; 0x200a <__heap_default_limit+0x100a>
    80fd: 64 0b        	stz	$b                      ; 0x200b <__heap_default_limit+0x100b>
    80ff: 64 0c        	stz	$c                      ; 0x200c <__heap_default_limit+0x100c>
    8101: a2 00        	ldx	#$0
    8103: a9 04        	lda	#$4
    8105: 20 67 44     	jsr	$4467 <messagebox>
    8108: 4c 6e 7e     	jmp	$7e6e <donehypclosedir16+0x1c6>
    810b: b2 1e        	lda	($1e),z                 ; 0x201e <next_line+0x9>
    810d: 48           	pha
    810e: a0 13        	ldy	#$13
    8110: b1 02        	lda	($2),y                  ; 0x2002 <__heap_default_limit+0x1002>
    8112: 85 17        	sta	$17                     ; 0x2017 <next_line+0x2>
    8114: 68           	pla
    8115: a6 17        	ldx	$17                     ; 0x2017 <next_line+0x2>
    8117: 20 0d 4f     	jsr	$4f0d <UpdateSectors>
    811a: a5 17        	lda	$17                     ; 0x2017 <next_line+0x2>
    811c: 20 c5 47     	jsr	$47c5 <Deselect>
    811f: 4c 6e 7e     	jmp	$7e6e <donehypclosedir16+0x1c6>
    8122: a2 05        	ldx	#$5
    8124: 86 08        	stx	$8                      ; 0x2008 <__heap_default_limit+0x1008>
    8126: a2 9a        	ldx	#$9a
    8128: 4c f4 7c     	jmp	$7cf4 <donehypclosedir16+0x4c>
    812b: a5 1a        	lda	$1a                     ; 0x201a <next_line+0x5>
    812d: a0 08        	ldy	#$8
    812f: 91 02        	sta	($2),y                  ; 0x2002 <__heap_default_limit+0x1002>
    8131: a5 1b        	lda	$1b                     ; 0x201b <next_line+0x6>
    8133: c8           	iny
    8134: 91 02        	sta	($2),y                  ; 0x2002 <__heap_default_limit+0x1002>
    8136: a0 04        	ldy	#$4
    8138: 8a           	txa
    8139: d0 03        	bne	$813e <donehypchdir18+0x10f>
    813b: 4c c2 83     	jmp	$83c2 <donehyp0att20+0x9d>
    813e: a2 00        	ldx	#$0
    8140: a9 46        	lda	#$46
    8142: 8d 40 d6     	sta	$d640                   ; 0xd640 <__heap_start+0x3646>
    8145: b8           	clv
    8146: 90 07        	bcc	$814f <errhyp1att19>
    8148: a9 00        	lda	#$0
    814a: 85 04        	sta	$4                      ; 0x2004 <__heap_default_limit+0x1004>
    814c: 4c 53 81     	jmp	$8153 <donehyp1att19>

0000814f <errhyp1att19>:
    814f: a9 ff        	lda	#$ff
    8151: 85 04        	sta	$4                      ; 0x2004 <__heap_default_limit+0x1004>

00008153 <donehyp1att19>:
    8153: ea           	nop
    8154: 4c ff 7f     	jmp	$7fff <donehypchdir17+0x14f>
    8157: a5 1a        	lda	$1a                     ; 0x201a <next_line+0x5>
    8159: 18           	clc
    815a: 69 1e        	adc	#$1e
    815c: 85 04        	sta	$4                      ; 0x2004 <__heap_default_limit+0x1004>
    815e: a5 1b        	lda	$1b                     ; 0x201b <next_line+0x6>
    8160: 69 00        	adc	#$0
    8162: 85 05        	sta	$5                      ; 0x2005 <__heap_default_limit+0x1005>
    8164: a0 03        	ldy	#$3
    8166: b1 1a        	lda	($1a),y                 ; 0x201a <next_line+0x5>
    8168: a0 47        	ldy	#$47
    816a: 91 20        	sta	($20),y                 ; 0x2020 <next_line+0xb>
    816c: c8           	iny
    816d: 91 20        	sta	($20),y                 ; 0x2020 <next_line+0xb>
    816f: 85 16        	sta	$16                     ; 0x2016 <next_line+0x1>
    8171: a5 1a        	lda	$1a                     ; 0x201a <next_line+0x5>
    8173: a0 08        	ldy	#$8
    8175: 91 02        	sta	($2),y                  ; 0x2002 <__heap_default_limit+0x1002>
    8177: a5 1b        	lda	$1b                     ; 0x201b <next_line+0x6>
    8179: c8           	iny
    817a: 91 02        	sta	($2),y                  ; 0x2002 <__heap_default_limit+0x1002>
    817c: a0 1e        	ldy	#$1e
    817e: b1 1a        	lda	($1a),y                 ; 0x201a <next_line+0x5>
    8180: 85 06        	sta	$6                      ; 0x2006 <__heap_default_limit+0x1006>
    8182: a0 01        	ldy	#$1
    8184: b1 04        	lda	($4),y                  ; 0x2004 <__heap_default_limit+0x1004>
    8186: a2 28        	ldx	#$28
    8188: 86 04        	stx	$4                      ; 0x2004 <__heap_default_limit+0x1004>
    818a: 64 05        	stz	$5                      ; 0x2005 <__heap_default_limit+0x1005>
    818c: aa           	tax
    818d: a5 06        	lda	$6                      ; 0x2006 <__heap_default_limit+0x1006>
    818f: 20 60 8c     	jsr	$8c60 <__udivhi3>
    8192: 85 04        	sta	$4                      ; 0x2004 <__heap_default_limit+0x1004>
    8194: 18           	clc
    8195: a5 16        	lda	$16                     ; 0x2016 <next_line+0x1>
    8197: 65 04        	adc	$4                      ; 0x2004 <__heap_default_limit+0x1004>
    8199: a0 49        	ldy	#$49
    819b: 4c f8 7f     	jmp	$7ff8 <donehypchdir17+0x148>
    819e: 5a           	phy
    819f: a0 17        	ldy	#$17
    81a1: b1 02        	lda	($2),y                  ; 0x2002 <__heap_default_limit+0x1002>
    81a3: 85 1c        	sta	$1c                     ; 0x201c <next_line+0x7>
    81a5: c8           	iny
    81a6: b1 02        	lda	($2),y                  ; 0x2002 <__heap_default_limit+0x1002>
    81a8: 7a           	ply
    81a9: 85 1d        	sta	$1d                     ; 0x201d <next_line+0x8>
    81ab: c0 91        	cpy	#$91
    81ad: d0 03        	bne	$81b2 <donehyp1att19+0x5f>
    81af: 4c b6 7b     	jmp	$7bb6 <donehypfindfirst12+0x5e>
    81b2: 4c ec 7f     	jmp	$7fec <donehypchdir17+0x13c>
    81b5: a2 01        	ldx	#$1
    81b7: a0 13        	ldy	#$13
    81b9: b1 02        	lda	($2),y                  ; 0x2002 <__heap_default_limit+0x1002>
    81bb: f0 02        	beq	$81bf <donehyp1att19+0x6c>
    81bd: a2 00        	ldx	#$0
    81bf: b2 16        	lda	($16),z                 ; 0x2016 <next_line+0x1>
    81c1: e0 00        	cpx	#$0
    81c3: d0 03        	bne	$81c8 <donehyp1att19+0x75>
    81c5: 4c db 77     	jmp	$77db <donehypd81dosattach10+0x304>
    81c8: a2 01        	ldx	#$1
    81ca: 4c dd 77     	jmp	$77dd <donehypd81dosattach10+0x306>
    81cd: a0 13        	ldy	#$13
    81cf: b1 02        	lda	($2),y                  ; 0x2002 <__heap_default_limit+0x1002>
    81d1: 20 4e 26     	jsr	$264e <GetBAM>
    81d4: b2 18        	lda	($18),z                 ; 0x2018 <next_line+0x3>
    81d6: 85 19        	sta	$19                     ; 0x2019 <next_line+0x4>
    81d8: b2 16        	lda	($16),z                 ; 0x2016 <next_line+0x1>
    81da: 85 18        	sta	$18                     ; 0x2018 <next_line+0x3>
    81dc: a0 01        	ldy	#$1
    81de: 64 04        	stz	$4                      ; 0x2004 <__heap_default_limit+0x1004>
    81e0: 64 1e        	stz	$1e                     ; 0x201e <next_line+0x9>
    81e2: 4c 94 72     	jmp	$7294 <donehypclosefile9+0xd74>
    81e5: 48           	pha
    81e6: a5 1c        	lda	$1c                     ; 0x201c <next_line+0x7>
    81e8: a0 08        	ldy	#$8
    81ea: 91 02        	sta	($2),y                  ; 0x2002 <__heap_default_limit+0x1002>
    81ec: a5 1d        	lda	$1d                     ; 0x201d <next_line+0x8>
    81ee: c8           	iny
    81ef: 91 02        	sta	($2),y                  ; 0x2002 <__heap_default_limit+0x1002>
    81f1: 68           	pla
    81f2: a2 7a        	ldx	#$7a
    81f4: 86 08        	stx	$8                      ; 0x2008 <__heap_default_limit+0x1008>
    81f6: a2 92        	ldx	#$92
    81f8: 4c 7e 79     	jmp	$797e <donehypd81dosattach10+0x4a7>
    81fb: a2 7e        	ldx	#$7e
    81fd: 86 04        	stx	$4                      ; 0x2004 <__heap_default_limit+0x1004>
    81ff: a2 93        	ldx	#$93
    8201: 86 05        	stx	$5                      ; 0x2005 <__heap_default_limit+0x1005>
    8203: a2 1e        	ldx	#$1e
    8205: 86 06        	stx	$6                      ; 0x2006 <__heap_default_limit+0x1006>
    8207: a2 9c        	ldx	#$9c
    8209: 86 07        	stx	$7                      ; 0x2007 <__heap_default_limit+0x1007>
    820b: a2 9e        	ldx	#$9e
    820d: 86 08        	stx	$8                      ; 0x2008 <__heap_default_limit+0x1008>
    820f: a2 9f        	ldx	#$9f
    8211: 86 09        	stx	$9                      ; 0x2009 <__heap_default_limit+0x1009>
    8213: 64 0a        	stz	$a                      ; 0x200a <__heap_default_limit+0x100a>
    8215: 64 0b        	stz	$b                      ; 0x200b <__heap_default_limit+0x100b>
    8217: 64 0c        	stz	$c                      ; 0x200c <__heap_default_limit+0x100c>
    8219: a2 00        	ldx	#$0
    821b: 98           	tya
    821c: 20 67 44     	jsr	$4467 <messagebox>
    821f: 4c ef 59     	jmp	$59ef <navi+0x345>
    8222: a9 01        	lda	#$1
    8224: a0 46        	ldy	#$46
    8226: 11 20        	ora	($20),y                 ; 0x2020 <next_line+0xb>
    8228: 4c f8 7f     	jmp	$7ff8 <donehypchdir17+0x148>
    822b: a5 1a        	lda	$1a                     ; 0x201a <next_line+0x5>
    822d: 48           	pha
    822e: a5 1a        	lda	$1a                     ; 0x201a <next_line+0x5>
    8230: a0 08        	ldy	#$8
    8232: 91 02        	sta	($2),y                  ; 0x2002 <__heap_default_limit+0x1002>
    8234: a5 1b        	lda	$1b                     ; 0x201b <next_line+0x6>
    8236: c8           	iny
    8237: 91 02        	sta	($2),y                  ; 0x2002 <__heap_default_limit+0x1002>
    8239: 68           	pla
    823a: 18           	clc
    823b: 69 05        	adc	#$5
    823d: 85 08        	sta	$8                      ; 0x2008 <__heap_default_limit+0x1008>
    823f: a5 1b        	lda	$1b                     ; 0x201b <next_line+0x6>
    8241: 69 00        	adc	#$0
    8243: 85 09        	sta	$9                      ; 0x2009 <__heap_default_limit+0x1009>
    8245: a2 4f        	ldx	#$4f
    8247: 86 04        	stx	$4                      ; 0x2004 <__heap_default_limit+0x1004>
    8249: a2 9b        	ldx	#$9b
    824b: 86 05        	stx	$5                      ; 0x2005 <__heap_default_limit+0x1005>
    824d: a2 11        	ldx	#$11
    824f: 86 06        	stx	$6                      ; 0x2006 <__heap_default_limit+0x1006>
    8251: a2 96        	ldx	#$96
    8253: 86 07        	stx	$7                      ; 0x2007 <__heap_default_limit+0x1007>
    8255: 4c 8a 6e     	jmp	$6e8a <donehypclosefile9+0x96a>
    8258: a5 1a        	lda	$1a                     ; 0x201a <next_line+0x5>
    825a: a0 08        	ldy	#$8
    825c: 91 02        	sta	($2),y                  ; 0x2002 <__heap_default_limit+0x1002>
    825e: a5 1b        	lda	$1b                     ; 0x201b <next_line+0x6>
    8260: c8           	iny
    8261: 91 02        	sta	($2),y                  ; 0x2002 <__heap_default_limit+0x1002>
    8263: 4c fa 7f     	jmp	$7ffa <donehypchdir17+0x14a>
    8266: a5 18        	lda	$18                     ; 0x2018 <next_line+0x3>
    8268: a0 08        	ldy	#$8
    826a: 91 02        	sta	($2),y                  ; 0x2002 <__heap_default_limit+0x1002>
    826c: a5 19        	lda	$19                     ; 0x2019 <next_line+0x4>
    826e: c8           	iny
    826f: 91 02        	sta	($2),y                  ; 0x2002 <__heap_default_limit+0x1002>
    8271: b2 16        	lda	($16),z                 ; 0x2016 <next_line+0x1>
    8273: 48           	pha
    8274: a0 16        	ldy	#$16
    8276: b1 02        	lda	($2),y                  ; 0x2002 <__heap_default_limit+0x1002>
    8278: aa           	tax
    8279: 68           	pla
    827a: 20 0d 4f     	jsr	$4f0d <UpdateSectors>
    827d: 4c ae 74     	jmp	$74ae <donehypclosefile9+0xf8e>
    8280: 84 05        	sty	$5                      ; 0x2005 <__heap_default_limit+0x1005>
    8282: 64 06        	stz	$6                      ; 0x2006 <__heap_default_limit+0x1006>
    8284: a2 ff        	ldx	#$ff
    8286: c6 05        	dec	$5                      ; 0x2005 <__heap_default_limit+0x1005>
    8288: e4 05        	cpx	$5                      ; 0x2005 <__heap_default_limit+0x1005>
    828a: d0 02        	bne	$828e <donehyp1att19+0x13b>
    828c: c6 06        	dec	$6                      ; 0x2006 <__heap_default_limit+0x1006>
    828e: 64 04        	stz	$4                      ; 0x2004 <__heap_default_limit+0x1004>
    8290: 5a           	phy
    8291: fa           	plx
    8292: a0 13        	ldy	#$13
    8294: b1 02        	lda	($2),y                  ; 0x2002 <__heap_default_limit+0x1002>
    8296: 85 16        	sta	$16                     ; 0x2016 <next_line+0x1>
    8298: 20 a7 3d     	jsr	$3da7 <swapdirententry>
    829b: a5 16        	lda	$16                     ; 0x2016 <next_line+0x1>
    829d: 20 c5 47     	jsr	$47c5 <Deselect>
    82a0: a0 01        	ldy	#$1
    82a2: b1 1c        	lda	($1c),y                 ; 0x201c <next_line+0x7>
    82a4: 85 04        	sta	$4                      ; 0x2004 <__heap_default_limit+0x1004>
    82a6: a9 8b        	lda	#$8b
    82a8: 18           	clc
    82a9: 65 17        	adc	$17                     ; 0x2017 <next_line+0x2>
    82ab: aa           	tax
    82ac: a9 9d        	lda	#$9d
    82ae: 65 18        	adc	$18                     ; 0x2018 <next_line+0x3>
    82b0: a8           	tay
    82b1: 8a           	txa
    82b2: 18           	clc
    82b3: 65 04        	adc	$4                      ; 0x2004 <__heap_default_limit+0x1004>
    82b5: 85 06        	sta	$6                      ; 0x2006 <__heap_default_limit+0x1006>
    82b7: 98           	tya
    82b8: 69 00        	adc	#$0
    82ba: 85 07        	sta	$7                      ; 0x2007 <__heap_default_limit+0x1007>
    82bc: a2 ff        	ldx	#$ff
    82be: c6 06        	dec	$6                      ; 0x2006 <__heap_default_limit+0x1006>
    82c0: e4 06        	cpx	$6                      ; 0x2006 <__heap_default_limit+0x1006>
    82c2: d0 02        	bne	$82c6 <donehyp1att19+0x173>
    82c4: c6 07        	dec	$7                      ; 0x2007 <__heap_default_limit+0x1007>
    82c6: a9 01        	lda	#$1
    82c8: 12 06        	ora	($6),z                  ; 0x2006 <__heap_default_limit+0x1006>
    82ca: 92 06        	sta	($6),z                  ; 0x2006 <__heap_default_limit+0x1006>
    82cc: a4 04        	ldy	$4                      ; 0x2004 <__heap_default_limit+0x1004>
    82ce: 4c eb 7b     	jmp	$7beb <donehypfindfirst12+0x93>
    82d1: c0 94        	cpy	#$94
    82d3: d0 03        	bne	$82d8 <donehyp1att19+0x185>
    82d5: 4c a6 6f     	jmp	$6fa6 <donehypclosefile9+0xa86>
    82d8: a6 1b        	ldx	$1b                     ; 0x201b <next_line+0x6>
    82da: a0 19        	ldy	#$19
    82dc: b1 02        	lda	($2),y                  ; 0x2002 <__heap_default_limit+0x1002>
    82de: a8           	tay
    82df: e0 02        	cpx	#$2
    82e1: f0 03        	beq	$82e6 <donehyp1att19+0x193>
    82e3: 4c 29 83     	jmp	$8329 <donehyp0att20+0x4>
    82e6: 5a           	phy
    82e7: a0 17        	ldy	#$17
    82e9: b1 02        	lda	($2),y                  ; 0x2002 <__heap_default_limit+0x1002>
    82eb: 85 1c        	sta	$1c                     ; 0x201c <next_line+0x7>
    82ed: c8           	iny
    82ee: b1 02        	lda	($2),y                  ; 0x2002 <__heap_default_limit+0x1002>
    82f0: 7a           	ply
    82f1: 85 1d        	sta	$1d                     ; 0x201d <next_line+0x8>
    82f3: c0 9d        	cpy	#$9d
    82f5: d0 03        	bne	$82fa <donehyp1att19+0x1a7>
    82f7: 4c 47 7c     	jmp	$7c47 <donehypclosedir14+0x33>
    82fa: 4c 36 83     	jmp	$8336 <donehyp0att20+0x11>
    82fd: a5 1a        	lda	$1a                     ; 0x201a <next_line+0x5>
    82ff: a0 08        	ldy	#$8
    8301: 91 02        	sta	($2),y                  ; 0x2002 <__heap_default_limit+0x1002>
    8303: a5 1b        	lda	$1b                     ; 0x201b <next_line+0x6>
    8305: c8           	iny
    8306: 91 02        	sta	($2),y                  ; 0x2002 <__heap_default_limit+0x1002>
    8308: a0 04        	ldy	#$4
    830a: 8a           	txa
    830b: d0 03        	bne	$8310 <donehyp1att19+0x1bd>
    830d: 4c d8 83     	jmp	$83d8 <donehypd81dosattach21+0x3>
    8310: a2 00        	ldx	#$0
    8312: a9 40        	lda	#$40
    8314: 8d 40 d6     	sta	$d640                   ; 0xd640 <__heap_start+0x3646>
    8317: b8           	clv
    8318: 90 07        	bcc	$8321 <errhyp0att20>
    831a: a9 00        	lda	#$0
    831c: 85 04        	sta	$4                      ; 0x2004 <__heap_default_limit+0x1004>
    831e: 4c 25 83     	jmp	$8325 <donehyp0att20>

00008321 <errhyp0att20>:
    8321: a9 ff        	lda	#$ff
    8323: 85 04        	sta	$4                      ; 0x2004 <__heap_default_limit+0x1004>

00008325 <donehyp0att20>:
    8325: ea           	nop
    8326: 4c ff 7f     	jmp	$7fff <donehypchdir17+0x14f>
    8329: 5a           	phy
    832a: a0 17        	ldy	#$17
    832c: b1 02        	lda	($2),y                  ; 0x2002 <__heap_default_limit+0x1002>
    832e: 85 1c        	sta	$1c                     ; 0x201c <next_line+0x7>
    8330: c8           	iny
    8331: b1 02        	lda	($2),y                  ; 0x2002 <__heap_default_limit+0x1002>
    8333: 7a           	ply
    8334: 85 1d        	sta	$1d                     ; 0x201d <next_line+0x8>
    8336: a6 1b        	ldx	$1b                     ; 0x201b <next_line+0x6>
    8338: e0 04        	cpx	#$4
    833a: d0 1e        	bne	$835a <donehyp0att20+0x35>
    833c: c0 12        	cpy	#$12
    833e: d0 1a        	bne	$835a <donehyp0att20+0x35>
    8340: a5 05        	lda	$5                      ; 0x2005 <__heap_default_limit+0x1005>
    8342: 09 01        	ora	#$1
    8344: a0 46        	ldy	#$46
    8346: 91 1c        	sta	($1c),y                 ; 0x201c <next_line+0x7>
    8348: a9 28        	lda	#$28
    834a: c8           	iny
    834b: 91 1c        	sta	($1c),y                 ; 0x201c <next_line+0x7>
    834d: a9 01        	lda	#$1
    834f: c8           	iny
    8350: 91 1c        	sta	($1c),y                 ; 0x201c <next_line+0x7>
    8352: a9 50        	lda	#$50
    8354: c8           	iny
    8355: 91 1c        	sta	($1c),y                 ; 0x201c <next_line+0x7>
    8357: 4c 43 64     	jmp	$6443 <navi+0xd99>
    835a: a6 1b        	ldx	$1b                     ; 0x201b <next_line+0x6>
    835c: e0 04        	cpx	#$4
    835e: f0 03        	beq	$8363 <donehyp0att20+0x3e>
    8360: 4c af 6f     	jmp	$6faf <donehypclosefile9+0xa8f>
    8363: a0 19        	ldy	#$19
    8365: b1 02        	lda	($2),y                  ; 0x2002 <__heap_default_limit+0x1002>
    8367: 4c af 6f     	jmp	$6faf <donehypclosefile9+0xa8f>
    836a: a2 a1        	ldx	#$a1
    836c: 86 08        	stx	$8                      ; 0x2008 <__heap_default_limit+0x1008>
    836e: a2 96        	ldx	#$96
    8370: 86 09        	stx	$9                      ; 0x2009 <__heap_default_limit+0x1009>
    8372: 18           	clc
    8373: a0 14        	ldy	#$14
    8375: b1 02        	lda	($2),y                  ; 0x2002 <__heap_default_limit+0x1002>
    8377: 69 4a        	adc	#$4a
    8379: 85 06        	sta	$6                      ; 0x2006 <__heap_default_limit+0x1006>
    837b: a0 16        	ldy	#$16
    837d: b1 02        	lda	($2),y                  ; 0x2002 <__heap_default_limit+0x1002>
    837f: 69 00        	adc	#$0
    8381: 85 07        	sta	$7                      ; 0x2007 <__heap_default_limit+0x1007>
    8383: a2 99        	ldx	#$99
    8385: 86 04        	stx	$4                      ; 0x2004 <__heap_default_limit+0x1004>
    8387: a2 93        	ldx	#$93
    8389: 86 05        	stx	$5                      ; 0x2005 <__heap_default_limit+0x1005>
    838b: 64 0a        	stz	$a                      ; 0x200a <__heap_default_limit+0x100a>
    838d: 64 0b        	stz	$b                      ; 0x200b <__heap_default_limit+0x100b>
    838f: 64 0c        	stz	$c                      ; 0x200c <__heap_default_limit+0x100c>
    8391: a2 00        	ldx	#$0
    8393: 8a           	txa
    8394: 20 67 44     	jsr	$4467 <messagebox>
    8397: aa           	tax
    8398: d0 03        	bne	$839d <donehyp0att20+0x78>
    839a: 4c ef 59     	jmp	$59ef <navi+0x345>
    839d: a0 13        	ldy	#$13
    839f: b1 02        	lda	($2),y                  ; 0x2002 <__heap_default_limit+0x1002>
    83a1: d0 05        	bne	$83a8 <donehyp0att20+0x83>
    83a3: a2 01        	ldx	#$1
    83a5: 8a           	txa
    83a6: 80 04        	bra	$83ac <donehyp0att20+0x87>
    83a8: 64 04        	stz	$4                      ; 0x2004 <__heap_default_limit+0x1004>
    83aa: a9 00        	lda	#$0
    83ac: a0 16        	ldy	#$16
    83ae: 91 02        	sta	($2),y                  ; 0x2002 <__heap_default_limit+0x1002>
    83b0: a0 00        	ldy	#$0
    83b2: 5a           	phy
    83b3: a0 08        	ldy	#$8
    83b5: b1 02        	lda	($2),y                  ; 0x2002 <__heap_default_limit+0x1002>
    83b7: 85 18        	sta	$18                     ; 0x2018 <next_line+0x3>
    83b9: c8           	iny
    83ba: b1 02        	lda	($2),y                  ; 0x2002 <__heap_default_limit+0x1002>
    83bc: 7a           	ply
    83bd: 85 19        	sta	$19                     ; 0x2019 <next_line+0x4>
    83bf: 4c 5a 71     	jmp	$715a <donehypclosefile9+0xc3a>
    83c2: a2 01        	ldx	#$1
    83c4: a9 4a        	lda	#$4a
    83c6: 8d 40 d6     	sta	$d640                   ; 0xd640 <__heap_start+0x3646>
    83c9: b8           	clv
    83ca: 90 05        	bcc	$83d1 <errhypd81dosattach21>
    83cc: 85 04        	sta	$4                      ; 0x2004 <__heap_default_limit+0x1004>
    83ce: 4c d5 83     	jmp	$83d5 <donehypd81dosattach21>

000083d1 <errhypd81dosattach21>:
    83d1: a9 ff        	lda	#$ff
    83d3: 85 04        	sta	$4                      ; 0x2004 <__heap_default_limit+0x1004>

000083d5 <donehypd81dosattach21>:
    83d5: ea           	nop
    83d6: 80 14        	bra	$83ec <donehypd81dosattach22+0x1>
    83d8: a2 00        	ldx	#$0
    83da: a9 4a        	lda	#$4a
    83dc: 8d 40 d6     	sta	$d640                   ; 0xd640 <__heap_start+0x3646>
    83df: b8           	clv
    83e0: 90 05        	bcc	$83e7 <errhypd81dosattach22>
    83e2: 85 04        	sta	$4                      ; 0x2004 <__heap_default_limit+0x1004>
    83e4: 4c eb 83     	jmp	$83eb <donehypd81dosattach22>

000083e7 <errhypd81dosattach22>:
    83e7: a9 ff        	lda	#$ff
    83e9: 85 04        	sta	$4                      ; 0x2004 <__heap_default_limit+0x1004>

000083eb <donehypd81dosattach22>:
    83eb: ea           	nop
    83ec: a0 04        	ldy	#$4
    83ee: 4c ff 7f     	jmp	$7fff <donehypchdir17+0x14f>
    83f1: a0 01        	ldy	#$1
    83f3: 64 1b        	stz	$1b                     ; 0x201b <next_line+0x6>
    83f5: 64 1c        	stz	$1c                     ; 0x201c <next_line+0x7>
    83f7: 4c 43 6e     	jmp	$6e43 <donehypclosefile9+0x923>

000083fa <blockreadbyte>:
    83fa: 85 05        	sta	$5                      ; 0x2005 <__heap_default_limit+0x1005>
    83fc: a4 04        	ldy	$4                      ; 0x2004 <__heap_default_limit+0x1004>
    83fe: 84 54        	sty	$54                     ; 0x2054 <_fini+0x9>
    8400: e6 05        	inc	$5                      ; 0x2005 <__heap_default_limit+0x1005>
    8402: d0 01        	bne	$8405 <blockreadbyte+0xb>
    8404: e8           	inx
    8405: a9 00        	lda	#$0
    8407: 64 04        	stz	$4                      ; 0x2004 <__heap_default_limit+0x1004>
    8409: e0 00        	cpx	#$0
    840b: f0 15        	beq	$8422 <blockreadbyte+0x28>
    840d: a8           	tay
    840e: d0 02        	bne	$8412 <blockreadbyte+0x18>
    8410: 09 02        	ora	#$2
    8412: 1a           	inc
    8413: d0 02        	bne	$8417 <blockreadbyte+0x1d>
    8415: e6 04        	inc	$4                      ; 0x2004 <__heap_default_limit+0x1004>
    8417: a0 ff        	ldy	#$ff
    8419: c6 05        	dec	$5                      ; 0x2005 <__heap_default_limit+0x1005>
    841b: c4 05        	cpy	$5                      ; 0x2005 <__heap_default_limit+0x1005>
    841d: d0 01        	bne	$8420 <blockreadbyte+0x26>
    841f: ca           	dex
    8420: 80 e7        	bra	$8409 <blockreadbyte+0xf>
    8422: a4 05        	ldy	$5                      ; 0x2005 <__heap_default_limit+0x1005>
    8424: d0 e7        	bne	$840d <blockreadbyte+0x13>
    8426: 3a           	dec
    8427: c9 ff        	cmp	#$ff
    8429: d0 02        	bne	$842d <blockreadbyte+0x33>
    842b: c6 04        	dec	$4                      ; 0x2004 <__heap_default_limit+0x1004>
    842d: 18           	clc
    842e: 69 00        	adc	#$0
    8430: 85 0d        	sta	$d                      ; 0x200d <__heap_default_limit+0x100d>
    8432: a5 04        	lda	$4                      ; 0x2004 <__heap_default_limit+0x1004>
    8434: 69 ea        	adc	#$ea
    8436: 85 0c        	sta	$c                      ; 0x200c <__heap_default_limit+0x100c>
    8438: a9 00        	lda	#$0
    843a: 69 0c        	adc	#$c
    843c: 85 04        	sta	$4                      ; 0x2004 <__heap_default_limit+0x1004>
    843e: a9 00        	lda	#$0
    8440: 69 08        	adc	#$8
    8442: 85 05        	sta	$5                      ; 0x2005 <__heap_default_limit+0x1005>
    8444: a9 55        	lda	#$55
    8446: a0 00        	ldy	#$0
    8448: a2 01        	ldx	#$1
    844a: 85 06        	sta	$6                      ; 0x2006 <__heap_default_limit+0x1006>
    844c: 84 07        	sty	$7                      ; 0x2007 <__heap_default_limit+0x1007>
    844e: 86 0a        	stx	$a                      ; 0x200a <__heap_default_limit+0x100a>
    8450: 64 08        	stz	$8                      ; 0x2008 <__heap_default_limit+0x1008>
    8452: 64 09        	stz	$9                      ; 0x2009 <__heap_default_limit+0x1009>
    8454: 64 0b        	stz	$b                      ; 0x200b <__heap_default_limit+0x100b>
    8456: a6 0c        	ldx	$c                      ; 0x200c <__heap_default_limit+0x100c>
    8458: a5 0d        	lda	$d                      ; 0x200d <__heap_default_limit+0x100d>
    845a: 20 a5 89     	jsr	$89a5 <lcopy>
    845d: a5 55        	lda	$55                     ; 0x2055 <_fini+0xa>
    845f: c9 0d        	cmp	#$d
    8461: d0 0a        	bne	$846d <blockreadbyte+0x73>
    8463: a9 0d        	lda	#$d
    8465: a6 54        	ldx	$54                     ; 0x2054 <_fini+0x9>
    8467: e0 01        	cpx	#$1
    8469: d0 02        	bne	$846d <blockreadbyte+0x73>
    846b: a9 00        	lda	#$0
    846d: 60           	rts

0000846e <text>:
    846e: 85 49        	sta	$49                     ; 0x2049 <__after_main+0x1>
    8470: 86 4d        	stx	$4d                     ; 0x204d <_fini+0x2>
    8472: a0 00        	ldy	#$0
    8474: 64 4c        	stz	$4c                     ; 0x204c <_fini+0x1>
    8476: 64 48        	stz	$48                     ; 0x2048 <__after_main>
    8478: 98           	tya
    8479: 64 4b        	stz	$4b                     ; 0x204b <_fini>
    847b: c4 48        	cpy	$48                     ; 0x2048 <__after_main>
    847d: d0 09        	bne	$8488 <text+0x1a>
    847f: a6 49        	ldx	$49                     ; 0x2049 <__after_main+0x1>
    8481: e4 4c        	cpx	$4c                     ; 0x204c <_fini+0x1>
    8483: b0 0a        	bcs	$848f <text+0x21>
    8485: 4c bc 85     	jmp	$85bc <text+0x14e>
    8488: c4 48        	cpy	$48                     ; 0x2048 <__after_main>
    848a: b0 03        	bcs	$848f <text+0x21>
    848c: 4c bc 85     	jmp	$85bc <text+0x14e>
    848f: 64 04        	stz	$4                      ; 0x2004 <__heap_default_limit+0x1004>
    8491: a6 4b        	ldx	$4b                     ; 0x204b <_fini>
    8493: 85 4a        	sta	$4a                     ; 0x204a <__after_main+0x2>
    8495: 20 fa 83     	jsr	$83fa <blockreadbyte>
    8498: a6 49        	ldx	$49                     ; 0x2049 <__after_main+0x1>
    849a: e8           	inx
    849b: c9 01        	cmp	#$1
    849d: f0 1a        	beq	$84b9 <text+0x4b>
    849f: c9 02        	cmp	#$2
    84a1: d0 03        	bne	$84a6 <text+0x38>
    84a3: 4c 8d 85     	jmp	$858d <text+0x11f>
    84a6: a0 00        	ldy	#$0
    84a8: c9 0a        	cmp	#$a
    84aa: f0 03        	beq	$84af <text+0x41>
    84ac: 4c 91 86     	jmp	$8691 <text+0x223>
    84af: a5 48        	lda	$48                     ; 0x2048 <__after_main>
    84b1: f0 03        	beq	$84b6 <text+0x48>
    84b3: 4c bd 85     	jmp	$85bd <text+0x14f>
    84b6: 4c b4 85     	jmp	$85b4 <text+0x146>
    84b9: a5 48        	lda	$48                     ; 0x2048 <__after_main>
    84bb: d0 03        	bne	$84c0 <text+0x52>
    84bd: 4c c1 85     	jmp	$85c1 <text+0x153>
    84c0: 86 4e        	stx	$4e                     ; 0x204e <_fini+0x3>
    84c2: 18           	clc
    84c3: a5 4a        	lda	$4a                     ; 0x204a <__after_main+0x2>
    84c5: 69 03        	adc	#$3
    84c7: a8           	tay
    84c8: a5 4b        	lda	$4b                     ; 0x204b <_fini>
    84ca: 69 00        	adc	#$0
    84cc: 4c 1e 85     	jmp	$851e <text+0xb0>
    84cf: 85 04        	sta	$4                      ; 0x2004 <__heap_default_limit+0x1004>
    84d1: 98           	tya
    84d2: 06 04        	asl	$4                      ; 0x2004 <__heap_default_limit+0x1004>
    84d4: a6 04        	ldx	$4                      ; 0x2004 <__heap_default_limit+0x1004>
    84d6: 7c 36 91     	jmp	($9136,x)               ; 0x9136 <__zp_data_load_start+0x711f>
    84d9: a9 bf        	lda	#$bf
    84db: 80 1e        	bra	$84fb <text+0x8d>
    84dd: 20 28 87     	jsr	$8728 <petsciitoscreencode>
    84e0: 20 3f 87     	jsr	$873f <cputc>
    84e3: 80 30        	bra	$8515 <text+0xa7>
    84e5: a9 40        	lda	#$40
    84e7: 80 28        	bra	$8511 <text+0xa3>
    84e9: a9 7f        	lda	#$7f
    84eb: 80 0e        	bra	$84fb <text+0x8d>
    84ed: a9 80        	lda	#$80
    84ef: 80 20        	bra	$8511 <text+0xa3>
    84f1: a9 20        	lda	#$20
    84f3: 80 1c        	bra	$8511 <text+0xa3>
    84f5: a9 ef        	lda	#$ef
    84f7: 80 02        	bra	$84fb <text+0x8d>
    84f9: a9 df        	lda	#$df
    84fb: 25 2b        	and	$2b                     ; 0x202b <_start+0xa>
    84fd: 80 14        	bra	$8513 <text+0xa5>
    84ff: a9 f0        	lda	#$f0
    8501: 25 2b        	and	$2b                     ; 0x202b <_start+0xa>
    8503: 09 0b        	ora	#$b
    8505: 80 0c        	bra	$8513 <text+0xa5>
    8507: a9 f0        	lda	#$f0
    8509: 25 2b        	and	$2b                     ; 0x202b <_start+0xa>
    850b: 09 0e        	ora	#$e
    850d: 80 04        	bra	$8513 <text+0xa5>
    850f: a9 10        	lda	#$10
    8511: 05 2b        	ora	$2b                     ; 0x202b <_start+0xa>
    8513: 85 2b        	sta	$2b                     ; 0x202b <_start+0xa>
    8515: a5 4b        	lda	$4b                     ; 0x204b <_fini>
    8517: e6 4a        	inc	$4a                     ; 0x204a <__after_main+0x2>
    8519: d0 01        	bne	$851c <text+0xae>
    851b: 1a           	inc
    851c: a4 4a        	ldy	$4a                     ; 0x204a <__after_main+0x2>
    851e: a2 01        	ldx	#$1
    8520: 86 04        	stx	$4                      ; 0x2004 <__heap_default_limit+0x1004>
    8522: 85 4b        	sta	$4b                     ; 0x204b <_fini>
    8524: aa           	tax
    8525: 98           	tya
    8526: 84 4a        	sty	$4a                     ; 0x204a <__after_main+0x2>
    8528: 20 fa 83     	jsr	$83fa <blockreadbyte>
    852b: aa           	tax
    852c: d0 03        	bne	$8531 <text+0xc3>
    852e: 4c 7c 85     	jmp	$857c <text+0x10e>
    8531: a6 48        	ldx	$48                     ; 0x2048 <__after_main>
    8533: d0 e0        	bne	$8515 <text+0xa7>
    8535: a6 4c        	ldx	$4c                     ; 0x204c <_fini+0x1>
    8537: e4 49        	cpx	$49                     ; 0x2049 <__after_main+0x1>
    8539: d0 da        	bne	$8515 <text+0xa7>
    853b: 38           	sec
    853c: a8           	tay
    853d: e9 08        	sbc	#$8
    853f: c9 0b        	cmp	#$b
    8541: b0 03        	bcs	$8546 <text+0xd8>
    8543: 4c cf 84     	jmp	$84cf <text+0x61>
    8546: c0 82        	cpy	#$82
    8548: d0 03        	bne	$854d <text+0xdf>
    854a: 4c 0f 85     	jmp	$850f <text+0xa1>
    854d: 5a           	phy
    854e: fa           	plx
    854f: c0 84        	cpy	#$84
    8551: d0 03        	bne	$8556 <text+0xe8>
    8553: 4c f5 84     	jmp	$84f5 <text+0x87>
    8556: e0 92        	cpx	#$92
    8558: d0 03        	bne	$855d <text+0xef>
    855a: 4c f9 84     	jmp	$84f9 <text+0x8b>
    855d: e0 97        	cpx	#$97
    855f: d0 03        	bne	$8564 <text+0xf6>
    8561: 4c ff 84     	jmp	$84ff <text+0x91>
    8564: e0 9a        	cpx	#$9a
    8566: d0 03        	bne	$856b <text+0xfd>
    8568: 4c 07 85     	jmp	$8507 <text+0x99>
    856b: 98           	tya
    856c: e0 9f        	cpx	#$9f
    856e: f0 03        	beq	$8573 <text+0x105>
    8570: 4c dd 84     	jmp	$84dd <text+0x6f>
    8573: a9 f0        	lda	#$f0
    8575: 25 2b        	and	$2b                     ; 0x202b <_start+0xa>
    8577: 09 03        	ora	#$3
    8579: 4c 13 85     	jmp	$8513 <text+0xa5>
    857c: a5 4a        	lda	$4a                     ; 0x204a <__after_main+0x2>
    857e: 1a           	inc
    857f: d0 03        	bne	$8584 <text+0x116>
    8581: 4c 00 86     	jmp	$8600 <text+0x192>
    8584: a0 00        	ldy	#$0
    8586: a6 48        	ldx	$48                     ; 0x2048 <__after_main>
    8588: d0 1e        	bne	$85a8 <text+0x13a>
    858a: 4c 05 86     	jmp	$8605 <text+0x197>
    858d: a0 00        	ldy	#$0
    858f: a5 48        	lda	$48                     ; 0x2048 <__after_main>
    8591: d0 03        	bne	$8596 <text+0x128>
    8593: 4c 1c 86     	jmp	$861c <text+0x1ae>
    8596: 18           	clc
    8597: a5 4a        	lda	$4a                     ; 0x204a <__after_main+0x2>
    8599: 69 06        	adc	#$6
    859b: 80 03        	bra	$85a0 <text+0x132>
    859d: 18           	clc
    859e: 69 02        	adc	#$2
    85a0: aa           	tax
    85a1: a5 4b        	lda	$4b                     ; 0x204b <_fini>
    85a3: 69 00        	adc	#$0
    85a5: 85 4b        	sta	$4b                     ; 0x204b <_fini>
    85a7: 8a           	txa
    85a8: a6 4c        	ldx	$4c                     ; 0x204c <_fini+0x1>
    85aa: e8           	inx
    85ab: d0 02        	bne	$85af <text+0x141>
    85ad: e6 48        	inc	$48                     ; 0x2048 <__after_main>
    85af: 86 4c        	stx	$4c                     ; 0x204c <_fini+0x1>
    85b1: 4c 7b 84     	jmp	$847b <text+0xd>
    85b4: a5 4a        	lda	$4a                     ; 0x204a <__after_main+0x2>
    85b6: a6 4c        	ldx	$4c                     ; 0x204c <_fini+0x1>
    85b8: e4 49        	cpx	$49                     ; 0x2049 <__after_main+0x1>
    85ba: d0 e1        	bne	$859d <text+0x12f>
    85bc: 60           	rts
    85bd: a5 4a        	lda	$4a                     ; 0x204a <__after_main+0x2>
    85bf: 80 dc        	bra	$859d <text+0x12f>
    85c1: a4 4c        	ldy	$4c                     ; 0x204c <_fini+0x1>
    85c3: c4 49        	cpy	$49                     ; 0x2049 <__after_main+0x1>
    85c5: f0 03        	beq	$85ca <text+0x15c>
    85c7: 4c c0 84     	jmp	$84c0 <text+0x52>
    85ca: 86 4e        	stx	$4e                     ; 0x204e <_fini+0x3>
    85cc: 64 04        	stz	$4                      ; 0x2004 <__heap_default_limit+0x1004>
    85ce: a6 4a        	ldx	$4a                     ; 0x204a <__after_main+0x2>
    85d0: a5 4a        	lda	$4a                     ; 0x204a <__after_main+0x2>
    85d2: 86 53        	stx	$53                     ; 0x2053 <_fini+0x8>
    85d4: a6 4b        	ldx	$4b                     ; 0x204b <_fini>
    85d6: a4 4b        	ldy	$4b                     ; 0x204b <_fini>
    85d8: 84 52        	sty	$52                     ; 0x2052 <_fini+0x7>
    85da: 1a           	inc
    85db: d0 01        	bne	$85de <text+0x170>
    85dd: e8           	inx
    85de: 20 fa 83     	jsr	$83fa <blockreadbyte>
    85e1: 85 4f        	sta	$4f                     ; 0x204f <_fini+0x4>
    85e3: 18           	clc
    85e4: a6 53        	ldx	$53                     ; 0x2053 <_fini+0x8>
    85e6: 8a           	txa
    85e7: 69 02        	adc	#$2
    85e9: a8           	tay
    85ea: a5 52        	lda	$52                     ; 0x2052 <_fini+0x7>
    85ec: 69 00        	adc	#$0
    85ee: 64 04        	stz	$4                      ; 0x2004 <__heap_default_limit+0x1004>
    85f0: aa           	tax
    85f1: 98           	tya
    85f2: 20 fa 83     	jsr	$83fa <blockreadbyte>
    85f5: a6 4f        	ldx	$4f                     ; 0x204f <_fini+0x4>
    85f7: 86 32        	stx	$32                     ; 0x2032 <__do_init_stack+0x3>
    85f9: 85 33        	sta	$33                     ; 0x2033 <__do_init_stack+0x4>
    85fb: a6 4e        	ldx	$4e                     ; 0x204e <_fini+0x3>
    85fd: 4c c0 84     	jmp	$84c0 <text+0x52>
    8600: e6 4b        	inc	$4b                     ; 0x204b <_fini>
    8602: 4c 84 85     	jmp	$8584 <text+0x116>
    8605: a6 4c        	ldx	$4c                     ; 0x204c <_fini+0x1>
    8607: e4 49        	cpx	$49                     ; 0x2049 <__after_main+0x1>
    8609: f0 03        	beq	$860e <text+0x1a0>
    860b: 4c a8 85     	jmp	$85a8 <text+0x13a>
    860e: a6 4e        	ldx	$4e                     ; 0x204e <_fini+0x3>
    8610: 86 49        	stx	$49                     ; 0x2049 <__after_main+0x1>
    8612: a6 4d        	ldx	$4d                     ; 0x204d <_fini+0x2>
    8614: f0 03        	beq	$8619 <text+0x1ab>
    8616: 4c a8 85     	jmp	$85a8 <text+0x13a>
    8619: 4c bc 85     	jmp	$85bc <text+0x14e>
    861c: a5 4c        	lda	$4c                     ; 0x204c <_fini+0x1>
    861e: c5 49        	cmp	$49                     ; 0x2049 <__after_main+0x1>
    8620: f0 03        	beq	$8625 <text+0x1b7>
    8622: 4c 96 85     	jmp	$8596 <text+0x128>
    8625: a5 4a        	lda	$4a                     ; 0x204a <__after_main+0x2>
    8627: 86 4e        	stx	$4e                     ; 0x204e <_fini+0x3>
    8629: a6 4b        	ldx	$4b                     ; 0x204b <_fini>
    862b: 1a           	inc
    862c: d0 01        	bne	$862f <text+0x1c1>
    862e: e8           	inx
    862f: 64 04        	stz	$4                      ; 0x2004 <__heap_default_limit+0x1004>
    8631: 20 fa 83     	jsr	$83fa <blockreadbyte>
    8634: 85 4f        	sta	$4f                     ; 0x204f <_fini+0x4>
    8636: 18           	clc
    8637: a5 4a        	lda	$4a                     ; 0x204a <__after_main+0x2>
    8639: 69 02        	adc	#$2
    863b: a8           	tay
    863c: a5 4b        	lda	$4b                     ; 0x204b <_fini>
    863e: 69 00        	adc	#$0
    8640: 64 04        	stz	$4                      ; 0x2004 <__heap_default_limit+0x1004>
    8642: aa           	tax
    8643: 98           	tya
    8644: 20 fa 83     	jsr	$83fa <blockreadbyte>
    8647: 85 50        	sta	$50                     ; 0x2050 <_fini+0x5>
    8649: 18           	clc
    864a: a5 4a        	lda	$4a                     ; 0x204a <__after_main+0x2>
    864c: 69 03        	adc	#$3
    864e: a8           	tay
    864f: a5 4b        	lda	$4b                     ; 0x204b <_fini>
    8651: 69 00        	adc	#$0
    8653: 64 04        	stz	$4                      ; 0x2004 <__heap_default_limit+0x1004>
    8655: aa           	tax
    8656: 98           	tya
    8657: 20 fa 83     	jsr	$83fa <blockreadbyte>
    865a: 85 51        	sta	$51                     ; 0x2051 <_fini+0x6>
    865c: 18           	clc
    865d: a5 4a        	lda	$4a                     ; 0x204a <__after_main+0x2>
    865f: 69 04        	adc	#$4
    8661: a8           	tay
    8662: a5 4b        	lda	$4b                     ; 0x204b <_fini>
    8664: 69 00        	adc	#$0
    8666: 64 04        	stz	$4                      ; 0x2004 <__heap_default_limit+0x1004>
    8668: aa           	tax
    8669: 98           	tya
    866a: 20 fa 83     	jsr	$83fa <blockreadbyte>
    866d: 85 05        	sta	$5                      ; 0x2005 <__heap_default_limit+0x1005>
    866f: a6 51        	ldx	$51                     ; 0x2051 <_fini+0x6>
    8671: 86 04        	stx	$4                      ; 0x2004 <__heap_default_limit+0x1004>
    8673: a2 01        	ldx	#$1
    8675: 86 06        	stx	$6                      ; 0x2006 <__heap_default_limit+0x1006>
    8677: a6 50        	ldx	$50                     ; 0x2050 <_fini+0x5>
    8679: a5 4f        	lda	$4f                     ; 0x204f <_fini+0x4>
    867b: 20 dc 42     	jsr	$42dc <mcbox>
    867e: a0 00        	ldy	#$0
    8680: a6 4e        	ldx	$4e                     ; 0x204e <_fini+0x3>
    8682: 86 49        	stx	$49                     ; 0x2049 <__after_main+0x1>
    8684: a6 4d        	ldx	$4d                     ; 0x204d <_fini+0x2>
    8686: d0 03        	bne	$868b <text+0x21d>
    8688: 4c bc 85     	jmp	$85bc <text+0x14e>
    868b: a5 4a        	lda	$4a                     ; 0x204a <__after_main+0x2>
    868d: 18           	clc
    868e: 4c 99 85     	jmp	$8599 <text+0x12b>
    8691: aa           	tax
    8692: d0 12        	bne	$86a6 <text+0x238>
    8694: a2 75        	ldx	#$75
    8696: 86 04        	stx	$4                      ; 0x2004 <__heap_default_limit+0x1004>
    8698: a2 95        	ldx	#$95
    869a: 86 05        	stx	$5                      ; 0x2005 <__heap_default_limit+0x1005>
    869c: 64 06        	stz	$6                      ; 0x2006 <__heap_default_limit+0x1006>
    869e: 64 07        	stz	$7                      ; 0x2007 <__heap_default_limit+0x1007>
    86a0: a2 00        	ldx	#$0
    86a2: a5 49        	lda	$49                     ; 0x2049 <__after_main+0x1>
    86a4: 80 2a        	bra	$86d0 <text+0x262>
    86a6: 64 04        	stz	$4                      ; 0x2004 <__heap_default_limit+0x1004>
    86a8: a6 4b        	ldx	$4b                     ; 0x204b <_fini>
    86aa: a5 4a        	lda	$4a                     ; 0x204a <__after_main+0x2>
    86ac: 20 fa 83     	jsr	$83fa <blockreadbyte>
    86af: a2 1d        	ldx	#$1d
    86b1: 86 04        	stx	$4                      ; 0x2004 <__heap_default_limit+0x1004>
    86b3: a2 97        	ldx	#$97
    86b5: 86 05        	stx	$5                      ; 0x2005 <__heap_default_limit+0x1005>
    86b7: 64 06        	stz	$6                      ; 0x2006 <__heap_default_limit+0x1006>
    86b9: 64 07        	stz	$7                      ; 0x2007 <__heap_default_limit+0x1007>
    86bb: a2 00        	ldx	#$0
    86bd: 20 9b 42     	jsr	$429b <mprintf>
    86c0: a2 2f        	ldx	#$2f
    86c2: 86 04        	stx	$4                      ; 0x2004 <__heap_default_limit+0x1004>
    86c4: a2 9c        	ldx	#$9c
    86c6: 86 05        	stx	$5                      ; 0x2005 <__heap_default_limit+0x1005>
    86c8: 64 06        	stz	$6                      ; 0x2006 <__heap_default_limit+0x1006>
    86ca: 64 07        	stz	$7                      ; 0x2007 <__heap_default_limit+0x1007>
    86cc: a6 4b        	ldx	$4b                     ; 0x204b <_fini>
    86ce: a5 4a        	lda	$4a                     ; 0x204a <__after_main+0x2>
    86d0: 20 9b 42     	jsr	$429b <mprintf>
    86d3: 20 75 89     	jsr	$8975 <cgetc>
    86d6: 60           	rts

000086d7 <sidbong>:
    86d7: a2 1f        	ldx	#$1f
    86d9: 8e 02 d4     	stx	$d402                   ; 0xd402 <__heap_start+0x3408>
    86dc: 64 05        	stz	$5                      ; 0x2005 <__heap_default_limit+0x1005>
    86de: 9c 03 d4     	stz	$d403                   ; 0xd403 <__heap_start+0x3409>
    86e1: a9 09        	lda	#$9
    86e3: 8d 05 d4     	sta	$d405                   ; 0xd405 <__heap_start+0x340b>
    86e6: a0 25        	ldy	#$25
    86e8: 8c 00 d4     	sty	$d400                   ; 0xd400 <__heap_start+0x3406>
    86eb: a0 11        	ldy	#$11
    86ed: 8c 01 d4     	sty	$d401                   ; 0xd401 <__heap_start+0x3407>
    86f0: 8c 04 d4     	sty	$d404                   ; 0xd404 <__heap_start+0x340a>
    86f3: 8e 42 d4     	stx	$d442                   ; 0xd442 <__heap_start+0x3448>
    86f6: 9c 43 d4     	stz	$d443                   ; 0xd443 <__heap_start+0x3449>
    86f9: 8d 45 d4     	sta	$d445                   ; 0xd445 <__heap_start+0x344b>
    86fc: a2 9a        	ldx	#$9a
    86fe: 8e 40 d4     	stx	$d440                   ; 0xd440 <__heap_start+0x3446>
    8701: a2 15        	ldx	#$15
    8703: 8e 41 d4     	stx	$d441                   ; 0xd441 <__heap_start+0x3447>
    8706: 8c 44 d4     	sty	$d444                   ; 0xd444 <__heap_start+0x344a>
    8709: a9 40        	lda	#$40
    870b: a2 0d        	ldx	#$d
    870d: a0 03        	ldy	#$3
    870f: 84 04        	sty	$4                      ; 0x2004 <__heap_default_limit+0x1004>
    8711: 20 5c 8a     	jsr	$8a5c <usleep>
    8714: a2 10        	ldx	#$10
    8716: 8e 04 d4     	stx	$d404                   ; 0xd404 <__heap_start+0x340a>
    8719: 8e 44 d4     	stx	$d444                   ; 0xd444 <__heap_start+0x344a>
    871c: 60           	rts

0000871d <flushkeybuf>:
    871d: 80 03        	bra	$8722 <flushkeybuf+0x5>
    871f: 9c 10 d6     	stz	$d610                   ; 0xd610 <__heap_start+0x3616>
    8722: ae 10 d6     	ldx	$d610                   ; 0xd610 <__heap_start+0x3616>
    8725: d0 f8        	bne	$871f <flushkeybuf+0x2>
    8727: 60           	rts

00008728 <petsciitoscreencode>:
    8728: c9 40        	cmp	#$40
    872a: 90 12        	bcc	$873e <petsciitoscreencode+0x16>
    872c: c9 60        	cmp	#$60
    872e: b0 04        	bcs	$8734 <petsciitoscreencode+0xc>
    8730: 18           	clc
    8731: 69 c0        	adc	#$c0
    8733: 60           	rts
    8734: c9 c0        	cmp	#$c0
    8736: 90 03        	bcc	$873b <petsciitoscreencode+0x13>
    8738: 29 7f        	and	#$7f
    873a: 60           	rts
    873b: 18           	clc
    873c: 69 e0        	adc	#$e0
    873e: 60           	rts

0000873f <cputc>:
    873f: 85 04        	sta	$4                      ; 0x2004 <__heap_default_limit+0x1004>
    8741: a5 32        	lda	$32                     ; 0x2032 <__do_init_stack+0x3>
    8743: a6 33        	ldx	$33                     ; 0x2033 <__do_init_stack+0x4>
    8745: 4c 48 87     	jmp	$8748 <cputcxy>

00008748 <cputcxy>:
    8748: 85 77        	sta	$77                     ; 0x2077 <lprestore+0x2>
    874a: a4 04        	ldy	$4                      ; 0x2004 <__heap_default_limit+0x1004>
    874c: 84 78        	sty	$78                     ; 0x2078 <lprestore+0x3>
    874e: a5 30        	lda	$30                     ; 0x2030 <__do_init_stack+0x1>
    8750: 86 76        	stx	$76                     ; 0x2076 <lprestore+0x1>
    8752: 86 04        	stx	$4                      ; 0x2004 <__heap_default_limit+0x1004>
    8754: 64 05        	stz	$5                      ; 0x2005 <__heap_default_limit+0x1005>
    8756: a2 00        	ldx	#$0
    8758: 64 74        	stz	$74                     ; 0x2074 <lpstore+0x1a>
    875a: 20 2e 8c     	jsr	$8c2e <__mulhi3>
    875d: 18           	clc
    875e: 65 77        	adc	$77                     ; 0x2077 <lprestore+0x2>
    8760: 85 75        	sta	$75                     ; 0x2075 <lprestore>
    8762: 8a           	txa
    8763: 69 00        	adc	#$0
    8765: 85 73        	sta	$73                     ; 0x2073 <lpstore+0x19>
    8767: ad 63 d0     	lda	$d063                   ; 0xd063 <__heap_start+0x3069>
    876a: 29 07        	and	#$7
    876c: a8           	tay
    876d: ae 62 d0     	ldx	$d062                   ; 0xd062 <__heap_start+0x3068>
    8770: 86 06        	stx	$6                      ; 0x2006 <__heap_default_limit+0x1006>
    8772: ae 61 d0     	ldx	$d061                   ; 0xd061 <__heap_start+0x3067>
    8775: 86 04        	stx	$4                      ; 0x2004 <__heap_default_limit+0x1004>
    8777: ae 60 d0     	ldx	$d060                   ; 0xd060 <__heap_start+0x3066>
    877a: 86 05        	stx	$5                      ; 0x2005 <__heap_default_limit+0x1005>
    877c: a5 75        	lda	$75                     ; 0x2075 <lprestore>
    877e: 18           	clc
    877f: 69 00        	adc	#$0
    8781: aa           	tax
    8782: a5 73        	lda	$73                     ; 0x2073 <lpstore+0x19>
    8784: 65 04        	adc	$4                      ; 0x2004 <__heap_default_limit+0x1004>
    8786: 85 07        	sta	$7                      ; 0x2007 <__heap_default_limit+0x1007>
    8788: a5 06        	lda	$6                      ; 0x2006 <__heap_default_limit+0x1006>
    878a: 69 00        	adc	#$0
    878c: 85 04        	sta	$4                      ; 0x2004 <__heap_default_limit+0x1004>
    878e: 98           	tya
    878f: 69 00        	adc	#$0
    8791: 85 06        	sta	$6                      ; 0x2006 <__heap_default_limit+0x1006>
    8793: 8a           	txa
    8794: 18           	clc
    8795: 65 05        	adc	$5                      ; 0x2005 <__heap_default_limit+0x1005>
    8797: a8           	tay
    8798: a5 07        	lda	$7                      ; 0x2007 <__heap_default_limit+0x1007>
    879a: 69 00        	adc	#$0
    879c: 85 07        	sta	$7                      ; 0x2007 <__heap_default_limit+0x1007>
    879e: a5 04        	lda	$4                      ; 0x2004 <__heap_default_limit+0x1004>
    87a0: 69 00        	adc	#$0
    87a2: 85 04        	sta	$4                      ; 0x2004 <__heap_default_limit+0x1004>
    87a4: a5 06        	lda	$6                      ; 0x2006 <__heap_default_limit+0x1006>
    87a6: 69 00        	adc	#$0
    87a8: 85 05        	sta	$5                      ; 0x2005 <__heap_default_limit+0x1005>
    87aa: a6 78        	ldx	$78                     ; 0x2078 <lprestore+0x3>
    87ac: 86 06        	stx	$6                      ; 0x2006 <__heap_default_limit+0x1006>
    87ae: a6 07        	ldx	$7                      ; 0x2007 <__heap_default_limit+0x1007>
    87b0: 98           	tya
    87b1: 20 90 20     	jsr	$2090 <lpoke>
    87b4: a6 2b        	ldx	$2b                     ; 0x202b <_start+0xa>
    87b6: a0 f8        	ldy	#$f8
    87b8: a9 0f        	lda	#$f
    87ba: 84 04        	sty	$4                      ; 0x2004 <__heap_default_limit+0x1004>
    87bc: 85 05        	sta	$5                      ; 0x2005 <__heap_default_limit+0x1005>
    87be: 86 06        	stx	$6                      ; 0x2006 <__heap_default_limit+0x1006>
    87c0: a6 73        	ldx	$73                     ; 0x2073 <lpstore+0x19>
    87c2: a5 75        	lda	$75                     ; 0x2075 <lprestore>
    87c4: 20 90 20     	jsr	$2090 <lpoke>
    87c7: a6 30        	ldx	$30                     ; 0x2030 <__do_init_stack+0x1>
    87c9: ca           	dex
    87ca: e0 ff        	cpx	#$ff
    87cc: d0 02        	bne	$87d0 <cputcxy+0x88>
    87ce: c6 74        	dec	$74                     ; 0x2074 <lpstore+0x1a>
    87d0: a5 74        	lda	$74                     ; 0x2074 <lpstore+0x1a>
    87d2: d0 0b        	bne	$87df <cputcxy+0x97>
    87d4: e4 77        	cpx	$77                     ; 0x2077 <lprestore+0x2>
    87d6: d0 07        	bne	$87df <cputcxy+0x97>
    87d8: a4 76        	ldy	$76                     ; 0x2076 <lprestore+0x1>
    87da: c8           	iny
    87db: a2 00        	ldx	#$0
    87dd: 80 05        	bra	$87e4 <cputcxy+0x9c>
    87df: a4 76        	ldy	$76                     ; 0x2076 <lprestore+0x1>
    87e1: a6 77        	ldx	$77                     ; 0x2077 <lprestore+0x2>
    87e3: e8           	inx
    87e4: 86 32        	stx	$32                     ; 0x2032 <__do_init_stack+0x3>
    87e6: 84 33        	sty	$33                     ; 0x2033 <__do_init_stack+0x4>
    87e8: 60           	rts

000087e9 <cputs>:
    87e9: a5 32        	lda	$32                     ; 0x2032 <__do_init_stack+0x3>
    87eb: a6 33        	ldx	$33                     ; 0x2033 <__do_init_stack+0x4>
    87ed: 4c f0 87     	jmp	$87f0 <cputsxy>

000087f0 <cputsxy>:
    87f0: 85 8c        	sta	$8c                     ; 0x208c <lprestore+0x17>
    87f2: 86 8b        	stx	$8b                     ; 0x208b <lprestore+0x16>
    87f4: a6 04        	ldx	$4                      ; 0x2004 <__heap_default_limit+0x1004>
    87f6: 86 06        	stx	$6                      ; 0x2006 <__heap_default_limit+0x1006>
    87f8: a6 05        	ldx	$5                      ; 0x2005 <__heap_default_limit+0x1005>
    87fa: 86 07        	stx	$7                      ; 0x2007 <__heap_default_limit+0x1007>
    87fc: a6 06        	ldx	$6                      ; 0x2006 <__heap_default_limit+0x1006>
    87fe: 86 89        	stx	$89                     ; 0x2089 <lprestore+0x14>
    8800: a6 07        	ldx	$7                      ; 0x2007 <__heap_default_limit+0x1007>
    8802: 86 8a        	stx	$8a                     ; 0x208a <lprestore+0x15>
    8804: 20 d4 8b     	jsr	$8bd4 <strlen>
    8807: 85 88        	sta	$88                     ; 0x2088 <lprestore+0x13>
    8809: a5 30        	lda	$30                     ; 0x2030 <__do_init_stack+0x1>
    880b: a6 8b        	ldx	$8b                     ; 0x208b <lprestore+0x16>
    880d: 86 04        	stx	$4                      ; 0x2004 <__heap_default_limit+0x1004>
    880f: 64 05        	stz	$5                      ; 0x2005 <__heap_default_limit+0x1005>
    8811: a2 00        	ldx	#$0
    8813: 20 2e 8c     	jsr	$8c2e <__mulhi3>
    8816: 86 05        	stx	$5                      ; 0x2005 <__heap_default_limit+0x1005>
    8818: a6 8c        	ldx	$8c                     ; 0x208c <lprestore+0x17>
    881a: 86 04        	stx	$4                      ; 0x2004 <__heap_default_limit+0x1004>
    881c: 18           	clc
    881d: 65 04        	adc	$4                      ; 0x2004 <__heap_default_limit+0x1004>
    881f: a8           	tay
    8820: 85 8e        	sta	$8e                     ; 0x208e <lprestore+0x19>
    8822: a5 05        	lda	$5                      ; 0x2005 <__heap_default_limit+0x1005>
    8824: 69 00        	adc	#$0
    8826: 85 8d        	sta	$8d                     ; 0x208d <lprestore+0x18>
    8828: ad 63 d0     	lda	$d063                   ; 0xd063 <__heap_start+0x3069>
    882b: 29 07        	and	#$7
    882d: 85 08        	sta	$8                      ; 0x2008 <__heap_default_limit+0x1008>
    882f: ae 62 d0     	ldx	$d062                   ; 0xd062 <__heap_start+0x3068>
    8832: 86 07        	stx	$7                      ; 0x2007 <__heap_default_limit+0x1007>
    8834: ae 61 d0     	ldx	$d061                   ; 0xd061 <__heap_start+0x3067>
    8837: 86 04        	stx	$4                      ; 0x2004 <__heap_default_limit+0x1004>
    8839: ae 60 d0     	ldx	$d060                   ; 0xd060 <__heap_start+0x3066>
    883c: 86 05        	stx	$5                      ; 0x2005 <__heap_default_limit+0x1005>
    883e: 18           	clc
    883f: 98           	tya
    8840: 69 00        	adc	#$0
    8842: a8           	tay
    8843: a6 8d        	ldx	$8d                     ; 0x208d <lprestore+0x18>
    8845: 8a           	txa
    8846: 65 04        	adc	$4                      ; 0x2004 <__heap_default_limit+0x1004>
    8848: 85 09        	sta	$9                      ; 0x2009 <__heap_default_limit+0x1009>
    884a: a5 07        	lda	$7                      ; 0x2007 <__heap_default_limit+0x1007>
    884c: 69 00        	adc	#$0
    884e: 85 04        	sta	$4                      ; 0x2004 <__heap_default_limit+0x1004>
    8850: a5 08        	lda	$8                      ; 0x2008 <__heap_default_limit+0x1008>
    8852: 69 00        	adc	#$0
    8854: aa           	tax
    8855: 18           	clc
    8856: 98           	tya
    8857: 65 05        	adc	$5                      ; 0x2005 <__heap_default_limit+0x1005>
    8859: 85 06        	sta	$6                      ; 0x2006 <__heap_default_limit+0x1006>
    885b: a5 09        	lda	$9                      ; 0x2009 <__heap_default_limit+0x1009>
    885d: 69 00        	adc	#$0
    885f: 85 07        	sta	$7                      ; 0x2007 <__heap_default_limit+0x1007>
    8861: a5 04        	lda	$4                      ; 0x2004 <__heap_default_limit+0x1004>
    8863: 69 00        	adc	#$0
    8865: 85 08        	sta	$8                      ; 0x2008 <__heap_default_limit+0x1008>
    8867: 8a           	txa
    8868: 69 00        	adc	#$0
    886a: 64 04        	stz	$4                      ; 0x2004 <__heap_default_limit+0x1004>
    886c: 64 05        	stz	$5                      ; 0x2005 <__heap_default_limit+0x1005>
    886e: 85 09        	sta	$9                      ; 0x2009 <__heap_default_limit+0x1009>
    8870: a6 88        	ldx	$88                     ; 0x2088 <lprestore+0x13>
    8872: 86 0a        	stx	$a                      ; 0x200a <__heap_default_limit+0x100a>
    8874: 64 0b        	stz	$b                      ; 0x200b <__heap_default_limit+0x100b>
    8876: a6 89        	ldx	$89                     ; 0x2089 <lprestore+0x14>
    8878: 86 0c        	stx	$c                      ; 0x200c <__heap_default_limit+0x100c>
    887a: a6 8a        	ldx	$8a                     ; 0x208a <lprestore+0x15>
    887c: a5 0c        	lda	$c                      ; 0x200c <__heap_default_limit+0x100c>
    887e: 20 a5 89     	jsr	$89a5 <lcopy>
    8881: a6 2b        	ldx	$2b                     ; 0x202b <_start+0xa>
    8883: a0 f8        	ldy	#$f8
    8885: a9 0f        	lda	#$f
    8887: 84 04        	sty	$4                      ; 0x2004 <__heap_default_limit+0x1004>
    8889: 85 05        	sta	$5                      ; 0x2005 <__heap_default_limit+0x1005>
    888b: 86 06        	stx	$6                      ; 0x2006 <__heap_default_limit+0x1006>
    888d: a6 88        	ldx	$88                     ; 0x2088 <lprestore+0x13>
    888f: 86 07        	stx	$7                      ; 0x2007 <__heap_default_limit+0x1007>
    8891: 64 08        	stz	$8                      ; 0x2008 <__heap_default_limit+0x1008>
    8893: a6 8d        	ldx	$8d                     ; 0x208d <lprestore+0x18>
    8895: a5 8e        	lda	$8e                     ; 0x208e <lprestore+0x19>
    8897: 20 0c 8a     	jsr	$8a0c <lfill>
    889a: a5 88        	lda	$88                     ; 0x2088 <lprestore+0x13>
    889c: a6 8c        	ldx	$8c                     ; 0x208c <lprestore+0x17>
    889e: 86 04        	stx	$4                      ; 0x2004 <__heap_default_limit+0x1004>
    88a0: 18           	clc
    88a1: 65 04        	adc	$4                      ; 0x2004 <__heap_default_limit+0x1004>
    88a3: 85 08        	sta	$8                      ; 0x2008 <__heap_default_limit+0x1008>
    88a5: a9 00        	lda	#$0
    88a7: 69 00        	adc	#$0
    88a9: a6 30        	ldx	$30                     ; 0x2030 <__do_init_stack+0x1>
    88ab: a0 86        	ldy	#$86
    88ad: 84 06        	sty	$6                      ; 0x2006 <__heap_default_limit+0x1006>
    88af: a0 00        	ldy	#$0
    88b1: 84 07        	sty	$7                      ; 0x2007 <__heap_default_limit+0x1007>
    88b3: 86 04        	stx	$4                      ; 0x2004 <__heap_default_limit+0x1004>
    88b5: 64 05        	stz	$5                      ; 0x2005 <__heap_default_limit+0x1005>
    88b7: aa           	tax
    88b8: a5 08        	lda	$8                      ; 0x2008 <__heap_default_limit+0x1008>
    88ba: 20 d6 8d     	jsr	$8dd6 <__udivmodhi4>
    88bd: a6 86        	ldx	$86                     ; 0x2086 <lprestore+0x11>
    88bf: 18           	clc
    88c0: a4 8b        	ldy	$8b                     ; 0x208b <lprestore+0x16>
    88c2: 84 04        	sty	$4                      ; 0x2004 <__heap_default_limit+0x1004>
    88c4: 65 04        	adc	$4                      ; 0x2004 <__heap_default_limit+0x1004>
    88c6: 85 33        	sta	$33                     ; 0x2033 <__do_init_stack+0x4>
    88c8: 86 32        	stx	$32                     ; 0x2032 <__do_init_stack+0x3>
    88ca: 60           	rts

000088cb <fillrect>:
    88cb: a6 04        	ldx	$4                      ; 0x2004 <__heap_default_limit+0x1004>
    88cd: 86 73        	stx	$73                     ; 0x2073 <lpstore+0x19>
    88cf: a6 05        	ldx	$5                      ; 0x2005 <__heap_default_limit+0x1005>
    88d1: 86 74        	stx	$74                     ; 0x2074 <lpstore+0x1a>
    88d3: a0 02        	ldy	#$2
    88d5: b1 04        	lda	($4),y                  ; 0x2004 <__heap_default_limit+0x1004>
    88d7: 38           	sec
    88d8: f2 04        	sbc	($4),z                  ; 0x2004 <__heap_default_limit+0x1004>
    88da: 85 76        	sta	$76                     ; 0x2076 <lprestore+0x1>
    88dc: 88           	dey
    88dd: b1 04        	lda	($4),y                  ; 0x2004 <__heap_default_limit+0x1004>
    88df: 85 75        	sta	$75                     ; 0x2075 <lprestore>
    88e1: 4c 69 89     	jmp	$8969 <fillrect+0x9e>
    88e4: a5 30        	lda	$30                     ; 0x2030 <__do_init_stack+0x1>
    88e6: a6 75        	ldx	$75                     ; 0x2075 <lprestore>
    88e8: 86 04        	stx	$4                      ; 0x2004 <__heap_default_limit+0x1004>
    88ea: 64 05        	stz	$5                      ; 0x2005 <__heap_default_limit+0x1005>
    88ec: a2 00        	ldx	#$0
    88ee: 20 2e 8c     	jsr	$8c2e <__mulhi3>
    88f1: 18           	clc
    88f2: 72 73        	adc	($73),z                 ; 0x2073 <lpstore+0x19>
    88f4: 85 77        	sta	$77                     ; 0x2077 <lprestore+0x2>
    88f6: 8a           	txa
    88f7: 69 00        	adc	#$0
    88f9: 85 78        	sta	$78                     ; 0x2078 <lprestore+0x3>
    88fb: ad 63 d0     	lda	$d063                   ; 0xd063 <__heap_start+0x3069>
    88fe: 29 07        	and	#$7
    8900: a8           	tay
    8901: ae 62 d0     	ldx	$d062                   ; 0xd062 <__heap_start+0x3068>
    8904: 86 07        	stx	$7                      ; 0x2007 <__heap_default_limit+0x1007>
    8906: ae 61 d0     	ldx	$d061                   ; 0xd061 <__heap_start+0x3067>
    8909: 86 04        	stx	$4                      ; 0x2004 <__heap_default_limit+0x1004>
    890b: ae 60 d0     	ldx	$d060                   ; 0xd060 <__heap_start+0x3066>
    890e: 86 05        	stx	$5                      ; 0x2005 <__heap_default_limit+0x1005>
    8910: a5 77        	lda	$77                     ; 0x2077 <lprestore+0x2>
    8912: 18           	clc
    8913: 69 00        	adc	#$0
    8915: 85 06        	sta	$6                      ; 0x2006 <__heap_default_limit+0x1006>
    8917: a5 78        	lda	$78                     ; 0x2078 <lprestore+0x3>
    8919: 65 04        	adc	$4                      ; 0x2004 <__heap_default_limit+0x1004>
    891b: 85 08        	sta	$8                      ; 0x2008 <__heap_default_limit+0x1008>
    891d: a5 07        	lda	$7                      ; 0x2007 <__heap_default_limit+0x1007>
    891f: 69 00        	adc	#$0
    8921: 85 04        	sta	$4                      ; 0x2004 <__heap_default_limit+0x1004>
    8923: 98           	tya
    8924: 69 00        	adc	#$0
    8926: aa           	tax
    8927: 18           	clc
    8928: a5 06        	lda	$6                      ; 0x2006 <__heap_default_limit+0x1006>
    892a: 65 05        	adc	$5                      ; 0x2005 <__heap_default_limit+0x1005>
    892c: a8           	tay
    892d: a5 08        	lda	$8                      ; 0x2008 <__heap_default_limit+0x1008>
    892f: 69 00        	adc	#$0
    8931: 85 09        	sta	$9                      ; 0x2009 <__heap_default_limit+0x1009>
    8933: a5 04        	lda	$4                      ; 0x2004 <__heap_default_limit+0x1004>
    8935: 69 00        	adc	#$0
    8937: 85 04        	sta	$4                      ; 0x2004 <__heap_default_limit+0x1004>
    8939: 8a           	txa
    893a: 69 00        	adc	#$0
    893c: 85 05        	sta	$5                      ; 0x2005 <__heap_default_limit+0x1005>
    893e: a2 20        	ldx	#$20
    8940: 86 06        	stx	$6                      ; 0x2006 <__heap_default_limit+0x1006>
    8942: a6 76        	ldx	$76                     ; 0x2076 <lprestore+0x1>
    8944: 86 07        	stx	$7                      ; 0x2007 <__heap_default_limit+0x1007>
    8946: 64 08        	stz	$8                      ; 0x2008 <__heap_default_limit+0x1008>
    8948: a6 09        	ldx	$9                      ; 0x2009 <__heap_default_limit+0x1009>
    894a: 98           	tya
    894b: 20 0c 8a     	jsr	$8a0c <lfill>
    894e: a2 f8        	ldx	#$f8
    8950: 86 04        	stx	$4                      ; 0x2004 <__heap_default_limit+0x1004>
    8952: a2 0f        	ldx	#$f
    8954: 86 05        	stx	$5                      ; 0x2005 <__heap_default_limit+0x1005>
    8956: a2 03        	ldx	#$3
    8958: 86 06        	stx	$6                      ; 0x2006 <__heap_default_limit+0x1006>
    895a: a6 76        	ldx	$76                     ; 0x2076 <lprestore+0x1>
    895c: 86 07        	stx	$7                      ; 0x2007 <__heap_default_limit+0x1007>
    895e: 64 08        	stz	$8                      ; 0x2008 <__heap_default_limit+0x1008>
    8960: a6 78        	ldx	$78                     ; 0x2078 <lprestore+0x3>
    8962: a5 77        	lda	$77                     ; 0x2077 <lprestore+0x2>
    8964: 20 0c 8a     	jsr	$8a0c <lfill>
    8967: e6 75        	inc	$75                     ; 0x2075 <lprestore>
    8969: a0 03        	ldy	#$3
    896b: b1 73        	lda	($73),y                 ; 0x2073 <lpstore+0x19>
    896d: c5 75        	cmp	$75                     ; 0x2075 <lprestore>
    896f: 90 03        	bcc	$8974 <fillrect+0xa9>
    8971: 4c e4 88     	jmp	$88e4 <fillrect+0x19>
    8974: 60           	rts

00008975 <cgetc>:
    8975: ad 10 d6     	lda	$d610                   ; 0xd610 <__heap_start+0x3616>
    8978: f0 fb        	beq	$8975 <cgetc>
    897a: 9c 10 d6     	stz	$d610                   ; 0xd610 <__heap_start+0x3616>
    897d: 60           	rts

0000897e <do_dma>:
    897e: a2 00        	ldx	#$0
    8980: a0 34        	ldy	#$34
    8982: 84 04        	sty	$4                      ; 0x2004 <__heap_default_limit+0x1004>
    8984: a0 00        	ldy	#$0
    8986: 84 05        	sty	$5                      ; 0x2005 <__heap_default_limit+0x1005>
    8988: a4 04        	ldy	$4                      ; 0x2004 <__heap_default_limit+0x1004>
    898a: a9 47        	lda	#$47
    898c: 8d 2f d0     	sta	$d02f                   ; 0xd02f <__heap_start+0x3035>
    898f: a9 53        	lda	#$53
    8991: 8d 2f d0     	sta	$d02f                   ; 0xd02f <__heap_start+0x3035>
    8994: a9 41        	lda	#$41
    8996: 85 00        	sta	$0                      ; 0x2000 <__heap_default_limit+0x1000>
    8998: 9c 02 d7     	stz	$d702                   ; 0xd702 <__heap_start+0x3708>
    899b: 9c 04 d7     	stz	$d704                   ; 0xd704 <__heap_start+0x370a>
    899e: 8e 01 d7     	stx	$d701                   ; 0xd701 <__heap_start+0x3707>
    89a1: 8c 05 d7     	sty	$d705                   ; 0xd705 <__heap_start+0x370b>
    89a4: 60           	rts

000089a5 <lcopy>:
    89a5: 85 0c        	sta	$c                      ; 0x200c <__heap_default_limit+0x100c>
    89a7: 86 0d        	stx	$d                      ; 0x200d <__heap_default_limit+0x100d>
    89a9: a6 0a        	ldx	$a                      ; 0x200a <__heap_default_limit+0x100a>
    89ab: a4 0b        	ldy	$b                      ; 0x200b <__heap_default_limit+0x100b>
    89ad: a9 0b        	lda	#$b
    89af: 85 34        	sta	$34                     ; 0x2034 <__do_init_stack+0x5>
    89b1: a9 80        	lda	#$80
    89b3: 85 35        	sta	$35                     ; 0x2035 <__do_init_stack+0x6>
    89b5: 46 05        	lsr	$5                      ; 0x2005 <__heap_default_limit+0x1005>
    89b7: a5 04        	lda	$4                      ; 0x2004 <__heap_default_limit+0x1004>
    89b9: 6a           	ror
    89ba: 46 05        	lsr	$5                      ; 0x2005 <__heap_default_limit+0x1005>
    89bc: 6a           	ror
    89bd: 46 05        	lsr	$5                      ; 0x2005 <__heap_default_limit+0x1005>
    89bf: 6a           	ror
    89c0: 46 05        	lsr	$5                      ; 0x2005 <__heap_default_limit+0x1005>
    89c2: 6a           	ror
    89c3: 85 36        	sta	$36                     ; 0x2036 <__do_init_stack+0x7>
    89c5: a9 81        	lda	#$81
    89c7: 85 37        	sta	$37                     ; 0x2037 <__do_zero_bss>
    89c9: 46 09        	lsr	$9                      ; 0x2009 <__heap_default_limit+0x1009>
    89cb: a5 08        	lda	$8                      ; 0x2008 <__heap_default_limit+0x1008>
    89cd: 6a           	ror
    89ce: 46 09        	lsr	$9                      ; 0x2009 <__heap_default_limit+0x1009>
    89d0: 6a           	ror
    89d1: 46 09        	lsr	$9                      ; 0x2009 <__heap_default_limit+0x1009>
    89d3: 6a           	ror
    89d4: 46 09        	lsr	$9                      ; 0x2009 <__heap_default_limit+0x1009>
    89d6: 6a           	ror
    89d7: 85 38        	sta	$38                     ; 0x2038 <__do_zero_bss+0x1>
    89d9: a9 85        	lda	#$85
    89db: 85 39        	sta	$39                     ; 0x2039 <__do_zero_bss+0x2>
    89dd: a9 01        	lda	#$1
    89df: 85 3a        	sta	$3a                     ; 0x203a <__do_zero_zp_bss>
    89e1: 64 3b        	stz	$3b                     ; 0x203b <__do_zero_zp_bss+0x1>
    89e3: 64 45        	stz	$45                     ; 0x2045 <shift+0x5>
    89e5: 64 3c        	stz	$3c                     ; 0x203c <__do_zero_zp_bss+0x2>
    89e7: 86 3d        	stx	$3d                     ; 0x203d <__do_copy_zp_data>
    89e9: 84 3e        	sty	$3e                     ; 0x203e <__do_copy_zp_data+0x1>
    89eb: 64 45        	stz	$45                     ; 0x2045 <shift+0x5>
    89ed: a6 0c        	ldx	$c                      ; 0x200c <__heap_default_limit+0x100c>
    89ef: 86 3f        	stx	$3f                     ; 0x203f <__do_copy_zp_data+0x2>
    89f1: a6 0d        	ldx	$d                      ; 0x200d <__heap_default_limit+0x100d>
    89f3: 86 40        	stx	$40                     ; 0x2040 <shift>
    89f5: a5 04        	lda	$4                      ; 0x2004 <__heap_default_limit+0x1004>
    89f7: 29 0f        	and	#$f
    89f9: 85 41        	sta	$41                     ; 0x2041 <shift+0x1>
    89fb: a6 06        	ldx	$6                      ; 0x2006 <__heap_default_limit+0x1006>
    89fd: 86 42        	stx	$42                     ; 0x2042 <shift+0x2>
    89ff: a6 07        	ldx	$7                      ; 0x2007 <__heap_default_limit+0x1007>
    8a01: 86 43        	stx	$43                     ; 0x2043 <shift+0x3>
    8a03: a5 08        	lda	$8                      ; 0x2008 <__heap_default_limit+0x1008>
    8a05: 29 0f        	and	#$f
    8a07: 85 44        	sta	$44                     ; 0x2044 <shift+0x4>
    8a09: 4c 7e 89     	jmp	$897e <do_dma>

00008a0c <lfill>:
    8a0c: 85 09        	sta	$9                      ; 0x2009 <__heap_default_limit+0x1009>
    8a0e: 86 0a        	stx	$a                      ; 0x200a <__heap_default_limit+0x100a>
    8a10: a6 07        	ldx	$7                      ; 0x2007 <__heap_default_limit+0x1007>
    8a12: a4 08        	ldy	$8                      ; 0x2008 <__heap_default_limit+0x1008>
    8a14: a9 0b        	lda	#$b
    8a16: 85 34        	sta	$34                     ; 0x2034 <__do_init_stack+0x5>
    8a18: a9 80        	lda	#$80
    8a1a: 85 35        	sta	$35                     ; 0x2035 <__do_init_stack+0x6>
    8a1c: 64 36        	stz	$36                     ; 0x2036 <__do_init_stack+0x7>
    8a1e: 1a           	inc
    8a1f: 85 37        	sta	$37                     ; 0x2037 <__do_zero_bss>
    8a21: 46 05        	lsr	$5                      ; 0x2005 <__heap_default_limit+0x1005>
    8a23: a5 04        	lda	$4                      ; 0x2004 <__heap_default_limit+0x1004>
    8a25: 6a           	ror
    8a26: 46 05        	lsr	$5                      ; 0x2005 <__heap_default_limit+0x1005>
    8a28: 6a           	ror
    8a29: 46 05        	lsr	$5                      ; 0x2005 <__heap_default_limit+0x1005>
    8a2b: 6a           	ror
    8a2c: 46 05        	lsr	$5                      ; 0x2005 <__heap_default_limit+0x1005>
    8a2e: 6a           	ror
    8a2f: 85 38        	sta	$38                     ; 0x2038 <__do_zero_bss+0x1>
    8a31: a9 85        	lda	#$85
    8a33: 85 39        	sta	$39                     ; 0x2039 <__do_zero_bss+0x2>
    8a35: a9 01        	lda	#$1
    8a37: 85 3a        	sta	$3a                     ; 0x203a <__do_zero_zp_bss>
    8a39: 64 3b        	stz	$3b                     ; 0x203b <__do_zero_zp_bss+0x1>
    8a3b: a9 03        	lda	#$3
    8a3d: 85 3c        	sta	$3c                     ; 0x203c <__do_zero_zp_bss+0x2>
    8a3f: 64 45        	stz	$45                     ; 0x2045 <shift+0x5>
    8a41: 86 3d        	stx	$3d                     ; 0x203d <__do_copy_zp_data>
    8a43: 84 3e        	sty	$3e                     ; 0x203e <__do_copy_zp_data+0x1>
    8a45: a6 06        	ldx	$6                      ; 0x2006 <__heap_default_limit+0x1006>
    8a47: 86 3f        	stx	$3f                     ; 0x203f <__do_copy_zp_data+0x2>
    8a49: 64 40        	stz	$40                     ; 0x2040 <shift>
    8a4b: a6 09        	ldx	$9                      ; 0x2009 <__heap_default_limit+0x1009>
    8a4d: 86 42        	stx	$42                     ; 0x2042 <shift+0x2>
    8a4f: a6 0a        	ldx	$a                      ; 0x200a <__heap_default_limit+0x100a>
    8a51: 86 43        	stx	$43                     ; 0x2043 <shift+0x3>
    8a53: a5 04        	lda	$4                      ; 0x2004 <__heap_default_limit+0x1004>
    8a55: 29 0f        	and	#$f
    8a57: 85 44        	sta	$44                     ; 0x2044 <shift+0x4>
    8a59: 4c 7e 89     	jmp	$897e <do_dma>

00008a5c <usleep>:
    8a5c: a8           	tay
    8a5d: 86 06        	stx	$6                      ; 0x2006 <__heap_default_limit+0x1006>
    8a5f: a5 05        	lda	$5                      ; 0x2005 <__heap_default_limit+0x1005>
    8a61: 4c 98 8a     	jmp	$8a98 <usleep+0x3c>
    8a64: a6 04        	ldx	$4                      ; 0x2004 <__heap_default_limit+0x1004>
    8a66: 80 02        	bra	$8a6a <usleep+0xe>
    8a68: a6 06        	ldx	$6                      ; 0x2006 <__heap_default_limit+0x1006>
    8a6a: e0 00        	cpx	#$0
    8a6c: b0 03        	bcs	$8a71 <usleep+0x15>
    8a6e: 4c b7 8a     	jmp	$8ab7 <usleep+0x5b>
    8a71: 85 07        	sta	$7                      ; 0x2007 <__heap_default_limit+0x1007>
    8a73: a6 06        	ldx	$6                      ; 0x2006 <__heap_default_limit+0x1006>
    8a75: 86 05        	stx	$5                      ; 0x2005 <__heap_default_limit+0x1005>
    8a77: ae 12 d0     	ldx	$d012                   ; 0xd012 <__heap_start+0x3018>
    8a7a: 86 06        	stx	$6                      ; 0x2006 <__heap_default_limit+0x1006>
    8a7c: ae 12 d0     	ldx	$d012                   ; 0xd012 <__heap_start+0x3018>
    8a7f: e4 06        	cpx	$6                      ; 0x2006 <__heap_default_limit+0x1006>
    8a81: f0 f9        	beq	$8a7c <usleep+0x20>
    8a83: 18           	clc
    8a84: 98           	tya
    8a85: 69 c0        	adc	#$c0
    8a87: a8           	tay
    8a88: a5 05        	lda	$5                      ; 0x2005 <__heap_default_limit+0x1005>
    8a8a: 69 ff        	adc	#$ff
    8a8c: 85 06        	sta	$6                      ; 0x2006 <__heap_default_limit+0x1006>
    8a8e: a5 04        	lda	$4                      ; 0x2004 <__heap_default_limit+0x1004>
    8a90: 69 ff        	adc	#$ff
    8a92: 85 04        	sta	$4                      ; 0x2004 <__heap_default_limit+0x1004>
    8a94: a5 07        	lda	$7                      ; 0x2007 <__heap_default_limit+0x1007>
    8a96: 69 ff        	adc	#$ff
    8a98: aa           	tax
    8a99: d0 15        	bne	$8ab0 <usleep+0x54>
    8a9b: a6 04        	ldx	$4                      ; 0x2004 <__heap_default_limit+0x1004>
    8a9d: f0 03        	beq	$8aa2 <usleep+0x46>
    8a9f: 4c 64 8a     	jmp	$8a64 <usleep+0x8>
    8aa2: a6 06        	ldx	$6                      ; 0x2006 <__heap_default_limit+0x1006>
    8aa4: f0 03        	beq	$8aa9 <usleep+0x4d>
    8aa6: 4c 68 8a     	jmp	$8a68 <usleep+0xc>
    8aa9: c0 41        	cpy	#$41
    8aab: 90 0a        	bcc	$8ab7 <usleep+0x5b>
    8aad: 4c 71 8a     	jmp	$8a71 <usleep+0x15>
    8ab0: c9 00        	cmp	#$0
    8ab2: 90 03        	bcc	$8ab7 <usleep+0x5b>
    8ab4: 4c 71 8a     	jmp	$8a71 <usleep+0x15>
    8ab7: 60           	rts

00008ab8 <exit>:
    8ab8: 20 4b 20     	jsr	$204b <_fini>
    8abb: 80 fe        	bra	$8abb <exit+0x3>

00008abd <atoi>:
    8abd: b2 04        	lda	($4),z                  ; 0x2004 <__heap_default_limit+0x1004>
    8abf: a8           	tay
    8ac0: 38           	sec
    8ac1: e9 09        	sbc	#$9
    8ac3: c9 05        	cmp	#$5
    8ac5: b0 08        	bcs	$8acf <atoi+0x12>
    8ac7: e6 04        	inc	$4                      ; 0x2004 <__heap_default_limit+0x1004>
    8ac9: d0 02        	bne	$8acd <atoi+0x10>
    8acb: e6 05        	inc	$5                      ; 0x2005 <__heap_default_limit+0x1005>
    8acd: 80 ee        	bra	$8abd <atoi>
    8acf: c0 20        	cpy	#$20
    8ad1: f0 f4        	beq	$8ac7 <atoi+0xa>
    8ad3: a6 04        	ldx	$4                      ; 0x2004 <__heap_default_limit+0x1004>
    8ad5: 86 06        	stx	$6                      ; 0x2006 <__heap_default_limit+0x1006>
    8ad7: a6 05        	ldx	$5                      ; 0x2005 <__heap_default_limit+0x1005>
    8ad9: 86 07        	stx	$7                      ; 0x2007 <__heap_default_limit+0x1007>
    8adb: e6 06        	inc	$6                      ; 0x2006 <__heap_default_limit+0x1006>
    8add: d0 02        	bne	$8ae1 <atoi+0x24>
    8adf: e6 07        	inc	$7                      ; 0x2007 <__heap_default_limit+0x1007>
    8ae1: c0 2d        	cpy	#$2d
    8ae3: f0 10        	beq	$8af5 <atoi+0x38>
    8ae5: a2 00        	ldx	#$0
    8ae7: c0 2b        	cpy	#$2b
    8ae9: f0 0c        	beq	$8af7 <atoi+0x3a>
    8aeb: a4 04        	ldy	$4                      ; 0x2004 <__heap_default_limit+0x1004>
    8aed: 84 06        	sty	$6                      ; 0x2006 <__heap_default_limit+0x1006>
    8aef: a4 05        	ldy	$5                      ; 0x2005 <__heap_default_limit+0x1005>
    8af1: 84 07        	sty	$7                      ; 0x2007 <__heap_default_limit+0x1007>
    8af3: 80 02        	bra	$8af7 <atoi+0x3a>
    8af5: a2 01        	ldx	#$1
    8af7: a9 d0        	lda	#$d0
    8af9: 18           	clc
    8afa: 72 06        	adc	($6),z                  ; 0x2006 <__heap_default_limit+0x1006>
    8afc: c9 0a        	cmp	#$a
    8afe: 64 0a        	stz	$a                      ; 0x200a <__heap_default_limit+0x100a>
    8b00: 64 0b        	stz	$b                      ; 0x200b <__heap_default_limit+0x100b>
    8b02: 90 03        	bcc	$8b07 <atoi+0x4a>
    8b04: 4c 81 8b     	jmp	$8b81 <atoi+0xc4>
    8b07: b2 06        	lda	($6),z                  ; 0x2006 <__heap_default_limit+0x1006>
    8b09: 64 08        	stz	$8                      ; 0x2008 <__heap_default_limit+0x1008>
    8b0b: 64 0c        	stz	$c                      ; 0x200c <__heap_default_limit+0x100c>
    8b0d: a0 01        	ldy	#$1
    8b0f: 85 09        	sta	$9                      ; 0x2009 <__heap_default_limit+0x1009>
    8b11: a9 00        	lda	#$0
    8b13: 5a           	phy
    8b14: a4 06        	ldy	$6                      ; 0x2006 <__heap_default_limit+0x1006>
    8b16: 84 04        	sty	$4                      ; 0x2004 <__heap_default_limit+0x1004>
    8b18: a4 07        	ldy	$7                      ; 0x2007 <__heap_default_limit+0x1007>
    8b1a: 84 05        	sty	$5                      ; 0x2005 <__heap_default_limit+0x1005>
    8b1c: 7a           	ply
    8b1d: 5a           	phy
    8b1e: a4 0c        	ldy	$c                      ; 0x200c <__heap_default_limit+0x100c>
    8b20: 84 0a        	sty	$a                      ; 0x200a <__heap_default_limit+0x100a>
    8b22: 7a           	ply
    8b23: 06 0a        	asl	$a                      ; 0x200a <__heap_default_limit+0x100a>
    8b25: 85 0b        	sta	$b                      ; 0x200b <__heap_default_limit+0x100b>
    8b27: 26 0b        	rol	$b                      ; 0x200b <__heap_default_limit+0x100b>
    8b29: a5 0a        	lda	$a                      ; 0x200a <__heap_default_limit+0x100a>
    8b2b: 0a           	asl
    8b2c: 85 0c        	sta	$c                      ; 0x200c <__heap_default_limit+0x100c>
    8b2e: a5 0b        	lda	$b                      ; 0x200b <__heap_default_limit+0x100b>
    8b30: 2a           	rol
    8b31: 06 0c        	asl	$c                      ; 0x200c <__heap_default_limit+0x100c>
    8b33: 2a           	rol
    8b34: 85 0d        	sta	$d                      ; 0x200d <__heap_default_limit+0x100d>
    8b36: a5 0c        	lda	$c                      ; 0x200c <__heap_default_limit+0x100c>
    8b38: 18           	clc
    8b39: 65 0a        	adc	$a                      ; 0x200a <__heap_default_limit+0x100a>
    8b3b: 85 0a        	sta	$a                      ; 0x200a <__heap_default_limit+0x100a>
    8b3d: a5 0d        	lda	$d                      ; 0x200d <__heap_default_limit+0x100d>
    8b3f: 65 0b        	adc	$b                      ; 0x200b <__heap_default_limit+0x100b>
    8b41: 85 0b        	sta	$b                      ; 0x200b <__heap_default_limit+0x100b>
    8b43: a5 0a        	lda	$a                      ; 0x200a <__heap_default_limit+0x100a>
    8b45: 18           	clc
    8b46: 65 09        	adc	$9                      ; 0x2009 <__heap_default_limit+0x1009>
    8b48: 85 09        	sta	$9                      ; 0x2009 <__heap_default_limit+0x1009>
    8b4a: a5 0b        	lda	$b                      ; 0x200b <__heap_default_limit+0x100b>
    8b4c: 65 08        	adc	$8                      ; 0x2008 <__heap_default_limit+0x1008>
    8b4e: 85 08        	sta	$8                      ; 0x2008 <__heap_default_limit+0x1008>
    8b50: 18           	clc
    8b51: a5 09        	lda	$9                      ; 0x2009 <__heap_default_limit+0x1009>
    8b53: 69 d0        	adc	#$d0
    8b55: 85 0a        	sta	$a                      ; 0x200a <__heap_default_limit+0x100a>
    8b57: a5 08        	lda	$8                      ; 0x2008 <__heap_default_limit+0x1008>
    8b59: 69 ff        	adc	#$ff
    8b5b: 85 0b        	sta	$b                      ; 0x200b <__heap_default_limit+0x100b>
    8b5d: b1 06        	lda	($6),y                  ; 0x2006 <__heap_default_limit+0x1006>
    8b5f: 85 09        	sta	$9                      ; 0x2009 <__heap_default_limit+0x1009>
    8b61: 18           	clc
    8b62: 69 d0        	adc	#$d0
    8b64: e6 04        	inc	$4                      ; 0x2004 <__heap_default_limit+0x1004>
    8b66: d0 02        	bne	$8b6a <atoi+0xad>
    8b68: e6 05        	inc	$5                      ; 0x2005 <__heap_default_limit+0x1005>
    8b6a: c9 0a        	cmp	#$a
    8b6c: a5 04        	lda	$4                      ; 0x2004 <__heap_default_limit+0x1004>
    8b6e: 85 06        	sta	$6                      ; 0x2006 <__heap_default_limit+0x1006>
    8b70: a5 05        	lda	$5                      ; 0x2005 <__heap_default_limit+0x1005>
    8b72: 85 07        	sta	$7                      ; 0x2007 <__heap_default_limit+0x1007>
    8b74: 64 08        	stz	$8                      ; 0x2008 <__heap_default_limit+0x1008>
    8b76: a5 0a        	lda	$a                      ; 0x200a <__heap_default_limit+0x100a>
    8b78: 85 0c        	sta	$c                      ; 0x200c <__heap_default_limit+0x100c>
    8b7a: a5 0b        	lda	$b                      ; 0x200b <__heap_default_limit+0x100b>
    8b7c: b0 03        	bcs	$8b81 <atoi+0xc4>
    8b7e: 4c 1d 8b     	jmp	$8b1d <atoi+0x60>
    8b81: 8a           	txa
    8b82: f0 0d        	beq	$8b91 <atoi+0xd4>
    8b84: 38           	sec
    8b85: a9 00        	lda	#$0
    8b87: e5 0a        	sbc	$a                      ; 0x200a <__heap_default_limit+0x100a>
    8b89: 85 0a        	sta	$a                      ; 0x200a <__heap_default_limit+0x100a>
    8b8b: a9 00        	lda	#$0
    8b8d: e5 0b        	sbc	$b                      ; 0x200b <__heap_default_limit+0x100b>
    8b8f: 85 0b        	sta	$b                      ; 0x200b <__heap_default_limit+0x100b>
    8b91: a6 0b        	ldx	$b                      ; 0x200b <__heap_default_limit+0x100b>
    8b93: a5 0a        	lda	$a                      ; 0x200a <__heap_default_limit+0x100a>
    8b95: 60           	rts

00008b96 <strcpy>:
    8b96: b2 06        	lda	($6),z                  ; 0x2006 <__heap_default_limit+0x1006>
    8b98: aa           	tax
    8b99: b2 06        	lda	($6),z                  ; 0x2006 <__heap_default_limit+0x1006>
    8b9b: 92 04        	sta	($4),z                  ; 0x2004 <__heap_default_limit+0x1004>
    8b9d: 8a           	txa
    8b9e: d0 03        	bne	$8ba3 <strcpy+0xd>
    8ba0: 4c d3 8b     	jmp	$8bd3 <strcpy+0x3d>
    8ba3: a0 01        	ldy	#$1
    8ba5: a6 04        	ldx	$4                      ; 0x2004 <__heap_default_limit+0x1004>
    8ba7: 86 08        	stx	$8                      ; 0x2008 <__heap_default_limit+0x1008>
    8ba9: a6 05        	ldx	$5                      ; 0x2005 <__heap_default_limit+0x1005>
    8bab: 86 09        	stx	$9                      ; 0x2009 <__heap_default_limit+0x1009>
    8bad: a6 06        	ldx	$6                      ; 0x2006 <__heap_default_limit+0x1006>
    8baf: 86 0a        	stx	$a                      ; 0x200a <__heap_default_limit+0x100a>
    8bb1: a6 07        	ldx	$7                      ; 0x2007 <__heap_default_limit+0x1007>
    8bb3: 86 0b        	stx	$b                      ; 0x200b <__heap_default_limit+0x100b>
    8bb5: e6 0a        	inc	$a                      ; 0x200a <__heap_default_limit+0x100a>
    8bb7: d0 02        	bne	$8bbb <strcpy+0x25>
    8bb9: e6 0b        	inc	$b                      ; 0x200b <__heap_default_limit+0x100b>
    8bbb: b1 06        	lda	($6),y                  ; 0x2006 <__heap_default_limit+0x1006>
    8bbd: aa           	tax
    8bbe: b1 06        	lda	($6),y                  ; 0x2006 <__heap_default_limit+0x1006>
    8bc0: 91 08        	sta	($8),y                  ; 0x2008 <__heap_default_limit+0x1008>
    8bc2: e6 08        	inc	$8                      ; 0x2008 <__heap_default_limit+0x1008>
    8bc4: d0 02        	bne	$8bc8 <strcpy+0x32>
    8bc6: e6 09        	inc	$9                      ; 0x2009 <__heap_default_limit+0x1009>
    8bc8: a5 0a        	lda	$a                      ; 0x200a <__heap_default_limit+0x100a>
    8bca: 85 06        	sta	$6                      ; 0x2006 <__heap_default_limit+0x1006>
    8bcc: a5 0b        	lda	$b                      ; 0x200b <__heap_default_limit+0x100b>
    8bce: 85 07        	sta	$7                      ; 0x2007 <__heap_default_limit+0x1007>
    8bd0: 8a           	txa
    8bd1: d0 e2        	bne	$8bb5 <strcpy+0x1f>
    8bd3: 60           	rts

00008bd4 <strlen>:
    8bd4: b2 04        	lda	($4),z                  ; 0x2004 <__heap_default_limit+0x1004>
    8bd6: d0 03        	bne	$8bdb <strlen+0x7>
    8bd8: 4c 09 8c     	jmp	$8c09 <strlen+0x35>
    8bdb: 64 07        	stz	$7                      ; 0x2007 <__heap_default_limit+0x1007>
    8bdd: a0 01        	ldy	#$1
    8bdf: a9 00        	lda	#$0
    8be1: 64 06        	stz	$6                      ; 0x2006 <__heap_default_limit+0x1006>
    8be3: aa           	tax
    8be4: e6 06        	inc	$6                      ; 0x2006 <__heap_default_limit+0x1006>
    8be6: d0 01        	bne	$8be9 <strlen+0x15>
    8be8: e8           	inx
    8be9: 18           	clc
    8bea: 85 09        	sta	$9                      ; 0x2009 <__heap_default_limit+0x1009>
    8bec: a5 07        	lda	$7                      ; 0x2007 <__heap_default_limit+0x1007>
    8bee: 65 04        	adc	$4                      ; 0x2004 <__heap_default_limit+0x1004>
    8bf0: 85 08        	sta	$8                      ; 0x2008 <__heap_default_limit+0x1008>
    8bf2: a5 09        	lda	$9                      ; 0x2009 <__heap_default_limit+0x1009>
    8bf4: 65 05        	adc	$5                      ; 0x2005 <__heap_default_limit+0x1005>
    8bf6: 85 09        	sta	$9                      ; 0x2009 <__heap_default_limit+0x1009>
    8bf8: b1 08        	lda	($8),y                  ; 0x2008 <__heap_default_limit+0x1008>
    8bfa: 85 08        	sta	$8                      ; 0x2008 <__heap_default_limit+0x1008>
    8bfc: a5 06        	lda	$6                      ; 0x2006 <__heap_default_limit+0x1006>
    8bfe: 85 07        	sta	$7                      ; 0x2007 <__heap_default_limit+0x1007>
    8c00: 8a           	txa
    8c01: e6 08        	inc	$8                      ; 0x2008 <__heap_default_limit+0x1008>
    8c03: c6 08        	dec	$8                      ; 0x2008 <__heap_default_limit+0x1008>
    8c05: d0 dd        	bne	$8be4 <strlen+0x10>
    8c07: 80 04        	bra	$8c0d <strlen+0x39>
    8c09: 64 06        	stz	$6                      ; 0x2006 <__heap_default_limit+0x1006>
    8c0b: a2 00        	ldx	#$0
    8c0d: a5 06        	lda	$6                      ; 0x2006 <__heap_default_limit+0x1006>
    8c0f: 60           	rts

00008c10 <__ashlqi3>:
    8c10: e0 00        	cpx	#$0
    8c12: f0 06        	beq	$8c1a <__ashlqi3+0xa>
    8c14: ca           	dex
    8c15: 0a           	asl
    8c16: e0 00        	cpx	#$0
    8c18: d0 fa        	bne	$8c14 <__ashlqi3+0x4>
    8c1a: 60           	rts

00008c1b <__ashlhi3>:
    8c1b: 86 05        	stx	$5                      ; 0x2005 <__heap_default_limit+0x1005>
    8c1d: a6 04        	ldx	$4                      ; 0x2004 <__heap_default_limit+0x1004>
    8c1f: f0 0a        	beq	$8c2b <__ashlhi3+0x10>
    8c21: a6 04        	ldx	$4                      ; 0x2004 <__heap_default_limit+0x1004>
    8c23: ca           	dex
    8c24: 0a           	asl
    8c25: 26 05        	rol	$5                      ; 0x2005 <__heap_default_limit+0x1005>
    8c27: e0 00        	cpx	#$0
    8c29: d0 f8        	bne	$8c23 <__ashlhi3+0x8>
    8c2b: a6 05        	ldx	$5                      ; 0x2005 <__heap_default_limit+0x1005>
    8c2d: 60           	rts

00008c2e <__mulhi3>:
    8c2e: a4 05        	ldy	$5                      ; 0x2005 <__heap_default_limit+0x1005>
    8c30: d0 04        	bne	$8c36 <__mulhi3+0x8>
    8c32: a4 04        	ldy	$4                      ; 0x2004 <__heap_default_limit+0x1004>
    8c34: f0 25        	beq	$8c5b <__mulhi3+0x2d>
    8c36: 85 06        	sta	$6                      ; 0x2006 <__heap_default_limit+0x1006>
    8c38: 86 07        	stx	$7                      ; 0x2007 <__heap_default_limit+0x1007>
    8c3a: a0 00        	ldy	#$0
    8c3c: 98           	tya
    8c3d: 46 05        	lsr	$5                      ; 0x2005 <__heap_default_limit+0x1005>
    8c3f: 66 04        	ror	$4                      ; 0x2004 <__heap_default_limit+0x1004>
    8c41: 90 09        	bcc	$8c4c <__mulhi3+0x1e>
    8c43: aa           	tax
    8c44: 98           	tya
    8c45: 18           	clc
    8c46: 65 06        	adc	$6                      ; 0x2006 <__heap_default_limit+0x1006>
    8c48: a8           	tay
    8c49: 8a           	txa
    8c4a: 65 07        	adc	$7                      ; 0x2007 <__heap_default_limit+0x1007>
    8c4c: 06 06        	asl	$6                      ; 0x2006 <__heap_default_limit+0x1006>
    8c4e: 26 07        	rol	$7                      ; 0x2007 <__heap_default_limit+0x1007>
    8c50: a6 05        	ldx	$5                      ; 0x2005 <__heap_default_limit+0x1005>
    8c52: d0 e9        	bne	$8c3d <__mulhi3+0xf>
    8c54: a6 04        	ldx	$4                      ; 0x2004 <__heap_default_limit+0x1004>
    8c56: d0 e5        	bne	$8c3d <__mulhi3+0xf>
    8c58: aa           	tax
    8c59: 98           	tya
    8c5a: 60           	rts
    8c5b: a0 00        	ldy	#$0
    8c5d: 98           	tya
    8c5e: 80 f8        	bra	$8c58 <__mulhi3+0x2a>

00008c60 <__udivhi3>:
    8c60: 64 06        	stz	$6                      ; 0x2006 <__heap_default_limit+0x1006>
    8c62: a4 05        	ldy	$5                      ; 0x2005 <__heap_default_limit+0x1005>
    8c64: d0 04        	bne	$8c6a <__udivhi3+0xa>
    8c66: a4 04        	ldy	$4                      ; 0x2004 <__heap_default_limit+0x1004>
    8c68: f0 0e        	beq	$8c78 <__udivhi3+0x18>
    8c6a: 85 09        	sta	$9                      ; 0x2009 <__heap_default_limit+0x1009>
    8c6c: 8a           	txa
    8c6d: e4 05        	cpx	$5                      ; 0x2005 <__heap_default_limit+0x1005>
    8c6f: d0 0e        	bne	$8c7f <__udivhi3+0x1f>
    8c71: a5 09        	lda	$9                      ; 0x2009 <__heap_default_limit+0x1009>
    8c73: c5 04        	cmp	$4                      ; 0x2004 <__heap_default_limit+0x1004>
    8c75: 8a           	txa
    8c76: b0 0b        	bcs	$8c83 <__udivhi3+0x23>
    8c78: a2 00        	ldx	#$0
    8c7a: 86 48        	stx	$48                     ; 0x2048 <__after_main>
    8c7c: 4c 1c 8d     	jmp	$8d1c <__udivhi3+0xbc>
    8c7f: c5 05        	cmp	$5                      ; 0x2005 <__heap_default_limit+0x1005>
    8c81: 90 f5        	bcc	$8c78 <__udivhi3+0x18>
    8c83: a2 01        	ldx	#$1
    8c85: 86 48        	stx	$48                     ; 0x2048 <__after_main>
    8c87: a6 05        	ldx	$5                      ; 0x2005 <__heap_default_limit+0x1005>
    8c89: 10 03        	bpl	$8c8e <__udivhi3+0x2e>
    8c8b: 4c 1c 8d     	jmp	$8d1c <__udivhi3+0xbc>
    8c8e: a2 00        	ldx	#$0
    8c90: a4 04        	ldy	$4                      ; 0x2004 <__heap_default_limit+0x1004>
    8c92: 84 07        	sty	$7                      ; 0x2007 <__heap_default_limit+0x1007>
    8c94: a4 05        	ldy	$5                      ; 0x2005 <__heap_default_limit+0x1005>
    8c96: 84 08        	sty	$8                      ; 0x2008 <__heap_default_limit+0x1008>
    8c98: 06 07        	asl	$7                      ; 0x2007 <__heap_default_limit+0x1007>
    8c9a: 26 08        	rol	$8                      ; 0x2008 <__heap_default_limit+0x1008>
    8c9c: c5 08        	cmp	$8                      ; 0x2008 <__heap_default_limit+0x1008>
    8c9e: d0 08        	bne	$8ca8 <__udivhi3+0x48>
    8ca0: a4 09        	ldy	$9                      ; 0x2009 <__heap_default_limit+0x1009>
    8ca2: c4 07        	cpy	$7                      ; 0x2007 <__heap_default_limit+0x1007>
    8ca4: 90 13        	bcc	$8cb9 <__udivhi3+0x59>
    8ca6: 80 04        	bra	$8cac <__udivhi3+0x4c>
    8ca8: c5 08        	cmp	$8                      ; 0x2008 <__heap_default_limit+0x1008>
    8caa: 90 0d        	bcc	$8cb9 <__udivhi3+0x59>
    8cac: e8           	inx
    8cad: a4 07        	ldy	$7                      ; 0x2007 <__heap_default_limit+0x1007>
    8caf: 84 04        	sty	$4                      ; 0x2004 <__heap_default_limit+0x1004>
    8cb1: a4 08        	ldy	$8                      ; 0x2008 <__heap_default_limit+0x1008>
    8cb3: 84 05        	sty	$5                      ; 0x2005 <__heap_default_limit+0x1005>
    8cb5: 10 e1        	bpl	$8c98 <__udivhi3+0x38>
    8cb7: 80 08        	bra	$8cc1 <__udivhi3+0x61>
    8cb9: a4 04        	ldy	$4                      ; 0x2004 <__heap_default_limit+0x1004>
    8cbb: 84 07        	sty	$7                      ; 0x2007 <__heap_default_limit+0x1007>
    8cbd: a4 05        	ldy	$5                      ; 0x2005 <__heap_default_limit+0x1005>
    8cbf: 84 08        	sty	$8                      ; 0x2008 <__heap_default_limit+0x1008>
    8cc1: e0 00        	cpx	#$0
    8cc3: d0 03        	bne	$8cc8 <__udivhi3+0x68>
    8cc5: 4c 1c 8d     	jmp	$8d1c <__udivhi3+0xbc>
    8cc8: 38           	sec
    8cc9: a8           	tay
    8cca: a5 09        	lda	$9                      ; 0x2009 <__heap_default_limit+0x1009>
    8ccc: e5 07        	sbc	$7                      ; 0x2007 <__heap_default_limit+0x1007>
    8cce: 85 04        	sta	$4                      ; 0x2004 <__heap_default_limit+0x1004>
    8cd0: 98           	tya
    8cd1: e5 08        	sbc	$8                      ; 0x2008 <__heap_default_limit+0x1008>
    8cd3: a0 01        	ldy	#$1
    8cd5: 84 48        	sty	$48                     ; 0x2048 <__after_main>
    8cd7: 64 06        	stz	$6                      ; 0x2006 <__heap_default_limit+0x1006>
    8cd9: 46 08        	lsr	$8                      ; 0x2008 <__heap_default_limit+0x1008>
    8cdb: 66 07        	ror	$7                      ; 0x2007 <__heap_default_limit+0x1007>
    8cdd: a4 48        	ldy	$48                     ; 0x2048 <__after_main>
    8cdf: 84 05        	sty	$5                      ; 0x2005 <__heap_default_limit+0x1005>
    8ce1: 06 05        	asl	$5                      ; 0x2005 <__heap_default_limit+0x1005>
    8ce3: a0 01        	ldy	#$1
    8ce5: b0 02        	bcs	$8ce9 <__udivhi3+0x89>
    8ce7: a0 00        	ldy	#$0
    8ce9: 84 09        	sty	$9                      ; 0x2009 <__heap_default_limit+0x1009>
    8ceb: a4 05        	ldy	$5                      ; 0x2005 <__heap_default_limit+0x1005>
    8ced: 84 48        	sty	$48                     ; 0x2048 <__after_main>
    8cef: c5 08        	cmp	$8                      ; 0x2008 <__heap_default_limit+0x1008>
    8cf1: d0 23        	bne	$8d16 <__udivhi3+0xb6>
    8cf3: a4 04        	ldy	$4                      ; 0x2004 <__heap_default_limit+0x1004>
    8cf5: c4 07        	cpy	$7                      ; 0x2007 <__heap_default_limit+0x1007>
    8cf7: 90 11        	bcc	$8d0a <__udivhi3+0xaa>
    8cf9: a8           	tay
    8cfa: a5 48        	lda	$48                     ; 0x2048 <__after_main>
    8cfc: 09 01        	ora	#$1
    8cfe: 85 48        	sta	$48                     ; 0x2048 <__after_main>
    8d00: 38           	sec
    8d01: a5 04        	lda	$4                      ; 0x2004 <__heap_default_limit+0x1004>
    8d03: e5 07        	sbc	$7                      ; 0x2007 <__heap_default_limit+0x1007>
    8d05: 85 04        	sta	$4                      ; 0x2004 <__heap_default_limit+0x1004>
    8d07: 98           	tya
    8d08: e5 08        	sbc	$8                      ; 0x2008 <__heap_default_limit+0x1008>
    8d0a: a4 09        	ldy	$9                      ; 0x2009 <__heap_default_limit+0x1009>
    8d0c: c0 01        	cpy	#$1
    8d0e: 26 06        	rol	$6                      ; 0x2006 <__heap_default_limit+0x1006>
    8d10: ca           	dex
    8d11: f0 09        	beq	$8d1c <__udivhi3+0xbc>
    8d13: 4c d9 8c     	jmp	$8cd9 <__udivhi3+0x79>
    8d16: c5 08        	cmp	$8                      ; 0x2008 <__heap_default_limit+0x1008>
    8d18: b0 df        	bcs	$8cf9 <__udivhi3+0x99>
    8d1a: 80 ee        	bra	$8d0a <__udivhi3+0xaa>
    8d1c: a6 06        	ldx	$6                      ; 0x2006 <__heap_default_limit+0x1006>
    8d1e: a5 48        	lda	$48                     ; 0x2048 <__after_main>
    8d20: 60           	rts

00008d21 <__umodqi3>:
    8d21: e0 00        	cpx	#$0
    8d23: d0 03        	bne	$8d28 <__umodqi3+0x7>
    8d25: 4c 65 8d     	jmp	$8d65 <__umodqi3+0x44>
    8d28: 86 05        	stx	$5                      ; 0x2005 <__heap_default_limit+0x1005>
    8d2a: c5 05        	cmp	$5                      ; 0x2005 <__heap_default_limit+0x1005>
    8d2c: b0 03        	bcs	$8d31 <__umodqi3+0x10>
    8d2e: 4c 65 8d     	jmp	$8d65 <__umodqi3+0x44>
    8d31: a6 05        	ldx	$5                      ; 0x2005 <__heap_default_limit+0x1005>
    8d33: 30 15        	bmi	$8d4a <__umodqi3+0x29>
    8d35: a2 00        	ldx	#$0
    8d37: a4 05        	ldy	$5                      ; 0x2005 <__heap_default_limit+0x1005>
    8d39: 84 04        	sty	$4                      ; 0x2004 <__heap_default_limit+0x1004>
    8d3b: 06 04        	asl	$4                      ; 0x2004 <__heap_default_limit+0x1004>
    8d3d: c5 04        	cmp	$4                      ; 0x2004 <__heap_default_limit+0x1004>
    8d3f: 90 0d        	bcc	$8d4e <__umodqi3+0x2d>
    8d41: e8           	inx
    8d42: a4 04        	ldy	$4                      ; 0x2004 <__heap_default_limit+0x1004>
    8d44: 84 05        	sty	$5                      ; 0x2005 <__heap_default_limit+0x1005>
    8d46: 10 f3        	bpl	$8d3b <__umodqi3+0x1a>
    8d48: 80 08        	bra	$8d52 <__umodqi3+0x31>
    8d4a: 38           	sec
    8d4b: e5 05        	sbc	$5                      ; 0x2005 <__heap_default_limit+0x1005>
    8d4d: 60           	rts
    8d4e: a4 05        	ldy	$5                      ; 0x2005 <__heap_default_limit+0x1005>
    8d50: 84 04        	sty	$4                      ; 0x2004 <__heap_default_limit+0x1004>
    8d52: 38           	sec
    8d53: e5 04        	sbc	$4                      ; 0x2004 <__heap_default_limit+0x1004>
    8d55: e0 00        	cpx	#$0
    8d57: f0 0c        	beq	$8d65 <__umodqi3+0x44>
    8d59: 46 04        	lsr	$4                      ; 0x2004 <__heap_default_limit+0x1004>
    8d5b: c5 04        	cmp	$4                      ; 0x2004 <__heap_default_limit+0x1004>
    8d5d: 90 03        	bcc	$8d62 <__umodqi3+0x41>
    8d5f: 38           	sec
    8d60: e5 04        	sbc	$4                      ; 0x2004 <__heap_default_limit+0x1004>
    8d62: ca           	dex
    8d63: d0 f4        	bne	$8d59 <__umodqi3+0x38>
    8d65: 60           	rts

00008d66 <__udivmodqi4>:
    8d66: a8           	tay
    8d67: a9 00        	lda	#$0
    8d69: e0 00        	cpx	#$0
    8d6b: f0 25        	beq	$8d92 <__udivmodqi4+0x2c>
    8d6d: 86 07        	stx	$7                      ; 0x2007 <__heap_default_limit+0x1007>
    8d6f: 84 08        	sty	$8                      ; 0x2008 <__heap_default_limit+0x1008>
    8d71: c4 07        	cpy	$7                      ; 0x2007 <__heap_default_limit+0x1007>
    8d73: b0 03        	bcs	$8d78 <__udivmodqi4+0x12>
    8d75: 4c cf 8d     	jmp	$8dcf <__udivmodqi4+0x69>
    8d78: a5 07        	lda	$7                      ; 0x2007 <__heap_default_limit+0x1007>
    8d7a: 30 1b        	bmi	$8d97 <__udivmodqi4+0x31>
    8d7c: a2 00        	ldx	#$0
    8d7e: a5 07        	lda	$7                      ; 0x2007 <__heap_default_limit+0x1007>
    8d80: 85 06        	sta	$6                      ; 0x2006 <__heap_default_limit+0x1006>
    8d82: 98           	tya
    8d83: 06 06        	asl	$6                      ; 0x2006 <__heap_default_limit+0x1006>
    8d85: c5 06        	cmp	$6                      ; 0x2006 <__heap_default_limit+0x1006>
    8d87: 90 17        	bcc	$8da0 <__udivmodqi4+0x3a>
    8d89: e8           	inx
    8d8a: a4 06        	ldy	$6                      ; 0x2006 <__heap_default_limit+0x1006>
    8d8c: 84 07        	sty	$7                      ; 0x2007 <__heap_default_limit+0x1007>
    8d8e: 10 f3        	bpl	$8d83 <__udivmodqi4+0x1d>
    8d90: 80 12        	bra	$8da4 <__udivmodqi4+0x3e>
    8d92: 84 08        	sty	$8                      ; 0x2008 <__heap_default_limit+0x1008>
    8d94: 4c cf 8d     	jmp	$8dcf <__udivmodqi4+0x69>
    8d97: 38           	sec
    8d98: 98           	tya
    8d99: e5 07        	sbc	$7                      ; 0x2007 <__heap_default_limit+0x1007>
    8d9b: 85 08        	sta	$8                      ; 0x2008 <__heap_default_limit+0x1008>
    8d9d: 4c cd 8d     	jmp	$8dcd <__udivmodqi4+0x67>
    8da0: a4 07        	ldy	$7                      ; 0x2007 <__heap_default_limit+0x1007>
    8da2: 84 06        	sty	$6                      ; 0x2006 <__heap_default_limit+0x1006>
    8da4: 38           	sec
    8da5: e5 06        	sbc	$6                      ; 0x2006 <__heap_default_limit+0x1006>
    8da7: 85 08        	sta	$8                      ; 0x2008 <__heap_default_limit+0x1008>
    8da9: 8a           	txa
    8daa: f0 21        	beq	$8dcd <__udivmodqi4+0x67>
    8dac: a9 01        	lda	#$1
    8dae: 46 06        	lsr	$6                      ; 0x2006 <__heap_default_limit+0x1006>
    8db0: 0a           	asl
    8db1: a8           	tay
    8db2: a5 08        	lda	$8                      ; 0x2008 <__heap_default_limit+0x1008>
    8db4: c5 06        	cmp	$6                      ; 0x2006 <__heap_default_limit+0x1006>
    8db6: 90 0d        	bcc	$8dc5 <__udivmodqi4+0x5f>
    8db8: 85 07        	sta	$7                      ; 0x2007 <__heap_default_limit+0x1007>
    8dba: 98           	tya
    8dbb: 09 01        	ora	#$1
    8dbd: a8           	tay
    8dbe: 38           	sec
    8dbf: a5 07        	lda	$7                      ; 0x2007 <__heap_default_limit+0x1007>
    8dc1: e5 06        	sbc	$6                      ; 0x2006 <__heap_default_limit+0x1006>
    8dc3: 85 08        	sta	$8                      ; 0x2008 <__heap_default_limit+0x1008>
    8dc5: ca           	dex
    8dc6: 98           	tya
    8dc7: e0 00        	cpx	#$0
    8dc9: d0 e3        	bne	$8dae <__udivmodqi4+0x48>
    8dcb: 80 02        	bra	$8dcf <__udivmodqi4+0x69>
    8dcd: a9 01        	lda	#$1
    8dcf: aa           	tax
    8dd0: a5 08        	lda	$8                      ; 0x2008 <__heap_default_limit+0x1008>
    8dd2: 92 04        	sta	($4),z                  ; 0x2004 <__heap_default_limit+0x1004>
    8dd4: 8a           	txa
    8dd5: 60           	rts

00008dd6 <__udivmodhi4>:
    8dd6: 86 0c        	stx	$c                      ; 0x200c <__heap_default_limit+0x100c>
    8dd8: 64 08        	stz	$8                      ; 0x2008 <__heap_default_limit+0x1008>
    8dda: a4 05        	ldy	$5                      ; 0x2005 <__heap_default_limit+0x1005>
    8ddc: d0 04        	bne	$8de2 <__udivmodhi4+0xc>
    8dde: a4 04        	ldy	$4                      ; 0x2004 <__heap_default_limit+0x1004>
    8de0: f0 08        	beq	$8dea <__udivmodhi4+0x14>
    8de2: e4 05        	cpx	$5                      ; 0x2005 <__heap_default_limit+0x1005>
    8de4: d0 0d        	bne	$8df3 <__udivmodhi4+0x1d>
    8de6: c5 04        	cmp	$4                      ; 0x2004 <__heap_default_limit+0x1004>
    8de8: b0 0d        	bcs	$8df7 <__udivmodhi4+0x21>
    8dea: a6 0c        	ldx	$c                      ; 0x200c <__heap_default_limit+0x100c>
    8dec: 86 04        	stx	$4                      ; 0x2004 <__heap_default_limit+0x1004>
    8dee: a2 00        	ldx	#$0
    8df0: 4c 9c 8e     	jmp	$8e9c <__udivmodhi4+0xc6>
    8df3: e4 05        	cpx	$5                      ; 0x2005 <__heap_default_limit+0x1005>
    8df5: 90 f3        	bcc	$8dea <__udivmodhi4+0x14>
    8df7: a6 05        	ldx	$5                      ; 0x2005 <__heap_default_limit+0x1005>
    8df9: 10 03        	bpl	$8dfe <__udivmodhi4+0x28>
    8dfb: 4c 8f 8e     	jmp	$8e8f <__udivmodhi4+0xb9>
    8dfe: a2 00        	ldx	#$0
    8e00: a4 04        	ldy	$4                      ; 0x2004 <__heap_default_limit+0x1004>
    8e02: 84 09        	sty	$9                      ; 0x2009 <__heap_default_limit+0x1009>
    8e04: a4 05        	ldy	$5                      ; 0x2005 <__heap_default_limit+0x1005>
    8e06: 84 0a        	sty	$a                      ; 0x200a <__heap_default_limit+0x100a>
    8e08: 06 09        	asl	$9                      ; 0x2009 <__heap_default_limit+0x1009>
    8e0a: 26 0a        	rol	$a                      ; 0x200a <__heap_default_limit+0x100a>
    8e0c: a4 0c        	ldy	$c                      ; 0x200c <__heap_default_limit+0x100c>
    8e0e: c4 0a        	cpy	$a                      ; 0x200a <__heap_default_limit+0x100a>
    8e10: d0 06        	bne	$8e18 <__udivmodhi4+0x42>
    8e12: c5 09        	cmp	$9                      ; 0x2009 <__heap_default_limit+0x1009>
    8e14: b0 08        	bcs	$8e1e <__udivmodhi4+0x48>
    8e16: 80 13        	bra	$8e2b <__udivmodhi4+0x55>
    8e18: a4 0c        	ldy	$c                      ; 0x200c <__heap_default_limit+0x100c>
    8e1a: c4 0a        	cpy	$a                      ; 0x200a <__heap_default_limit+0x100a>
    8e1c: 90 0d        	bcc	$8e2b <__udivmodhi4+0x55>
    8e1e: e8           	inx
    8e1f: a4 09        	ldy	$9                      ; 0x2009 <__heap_default_limit+0x1009>
    8e21: 84 04        	sty	$4                      ; 0x2004 <__heap_default_limit+0x1004>
    8e23: a4 0a        	ldy	$a                      ; 0x200a <__heap_default_limit+0x100a>
    8e25: 84 05        	sty	$5                      ; 0x2005 <__heap_default_limit+0x1005>
    8e27: 10 df        	bpl	$8e08 <__udivmodhi4+0x32>
    8e29: 80 08        	bra	$8e33 <__udivmodhi4+0x5d>
    8e2b: a4 04        	ldy	$4                      ; 0x2004 <__heap_default_limit+0x1004>
    8e2d: 84 09        	sty	$9                      ; 0x2009 <__heap_default_limit+0x1009>
    8e2f: a4 05        	ldy	$5                      ; 0x2005 <__heap_default_limit+0x1005>
    8e31: 84 0a        	sty	$a                      ; 0x200a <__heap_default_limit+0x100a>
    8e33: 38           	sec
    8e34: e5 09        	sbc	$9                      ; 0x2009 <__heap_default_limit+0x1009>
    8e36: a8           	tay
    8e37: a5 0c        	lda	$c                      ; 0x200c <__heap_default_limit+0x100c>
    8e39: e5 0a        	sbc	$a                      ; 0x200a <__heap_default_limit+0x100a>
    8e3b: 85 04        	sta	$4                      ; 0x2004 <__heap_default_limit+0x1004>
    8e3d: 8a           	txa
    8e3e: d0 03        	bne	$8e43 <__udivmodhi4+0x6d>
    8e40: 4c ab 8e     	jmp	$8eab <__udivmodhi4+0xd5>
    8e43: a9 01        	lda	#$1
    8e45: 85 8f        	sta	$8f                     ; 0x208f <lprestore+0x1a>
    8e47: 64 08        	stz	$8                      ; 0x2008 <__heap_default_limit+0x1008>
    8e49: 98           	tya
    8e4a: 46 0a        	lsr	$a                      ; 0x200a <__heap_default_limit+0x100a>
    8e4c: 66 09        	ror	$9                      ; 0x2009 <__heap_default_limit+0x1009>
    8e4e: a4 8f        	ldy	$8f                     ; 0x208f <lprestore+0x1a>
    8e50: 84 05        	sty	$5                      ; 0x2005 <__heap_default_limit+0x1005>
    8e52: 06 05        	asl	$5                      ; 0x2005 <__heap_default_limit+0x1005>
    8e54: a0 01        	ldy	#$1
    8e56: b0 02        	bcs	$8e5a <__udivmodhi4+0x84>
    8e58: a0 00        	ldy	#$0
    8e5a: 84 0b        	sty	$b                      ; 0x200b <__heap_default_limit+0x100b>
    8e5c: a4 05        	ldy	$5                      ; 0x2005 <__heap_default_limit+0x1005>
    8e5e: 84 8f        	sty	$8f                     ; 0x208f <lprestore+0x1a>
    8e60: a4 04        	ldy	$4                      ; 0x2004 <__heap_default_limit+0x1004>
    8e62: c4 0a        	cpy	$a                      ; 0x200a <__heap_default_limit+0x100a>
    8e64: d0 23        	bne	$8e89 <__udivmodhi4+0xb3>
    8e66: c5 09        	cmp	$9                      ; 0x2009 <__heap_default_limit+0x1009>
    8e68: 90 13        	bcc	$8e7d <__udivmodhi4+0xa7>
    8e6a: a8           	tay
    8e6b: a5 8f        	lda	$8f                     ; 0x208f <lprestore+0x1a>
    8e6d: 09 01        	ora	#$1
    8e6f: 85 8f        	sta	$8f                     ; 0x208f <lprestore+0x1a>
    8e71: 38           	sec
    8e72: 98           	tya
    8e73: e5 09        	sbc	$9                      ; 0x2009 <__heap_default_limit+0x1009>
    8e75: a8           	tay
    8e76: a5 04        	lda	$4                      ; 0x2004 <__heap_default_limit+0x1004>
    8e78: e5 0a        	sbc	$a                      ; 0x200a <__heap_default_limit+0x100a>
    8e7a: 85 04        	sta	$4                      ; 0x2004 <__heap_default_limit+0x1004>
    8e7c: 98           	tya
    8e7d: a4 0b        	ldy	$b                      ; 0x200b <__heap_default_limit+0x100b>
    8e7f: c0 01        	cpy	#$1
    8e81: 26 08        	rol	$8                      ; 0x2008 <__heap_default_limit+0x1008>
    8e83: ca           	dex
    8e84: f0 18        	beq	$8e9e <__udivmodhi4+0xc8>
    8e86: 4c 4a 8e     	jmp	$8e4a <__udivmodhi4+0x74>
    8e89: c4 0a        	cpy	$a                      ; 0x200a <__heap_default_limit+0x100a>
    8e8b: b0 dd        	bcs	$8e6a <__udivmodhi4+0x94>
    8e8d: 80 ee        	bra	$8e7d <__udivmodhi4+0xa7>
    8e8f: 38           	sec
    8e90: e5 04        	sbc	$4                      ; 0x2004 <__heap_default_limit+0x1004>
    8e92: aa           	tax
    8e93: a5 0c        	lda	$c                      ; 0x200c <__heap_default_limit+0x100c>
    8e95: e5 05        	sbc	$5                      ; 0x2005 <__heap_default_limit+0x1005>
    8e97: 85 04        	sta	$4                      ; 0x2004 <__heap_default_limit+0x1004>
    8e99: 8a           	txa
    8e9a: a2 01        	ldx	#$1
    8e9c: 86 8f        	stx	$8f                     ; 0x208f <lprestore+0x1a>
    8e9e: 92 06        	sta	($6),z                  ; 0x2006 <__heap_default_limit+0x1006>
    8ea0: a0 01        	ldy	#$1
    8ea2: a5 04        	lda	$4                      ; 0x2004 <__heap_default_limit+0x1004>
    8ea4: 91 06        	sta	($6),y                  ; 0x2006 <__heap_default_limit+0x1006>
    8ea6: a6 08        	ldx	$8                      ; 0x2008 <__heap_default_limit+0x1008>
    8ea8: a5 8f        	lda	$8f                     ; 0x208f <lprestore+0x1a>
    8eaa: 60           	rts
    8eab: a2 01        	ldx	#$1
    8ead: 86 8f        	stx	$8f                     ; 0x208f <lprestore+0x1a>
    8eaf: 98           	tya
    8eb0: 80 ec        	bra	$8e9e <__udivmodhi4+0xc8>

00008eb2 <__udivmodsi4>:
    8eb2: da           	phx
    8eb3: 7a           	ply
    8eb4: a6 04        	ldx	$4                      ; 0x2004 <__heap_default_limit+0x1004>
    8eb6: 86 11        	stx	$11                     ; 0x2011 <__heap_default_limit+0x1011>
    8eb8: a6 05        	ldx	$5                      ; 0x2005 <__heap_default_limit+0x1005>
    8eba: 64 0c        	stz	$c                      ; 0x200c <__heap_default_limit+0x100c>
    8ebc: e6 09        	inc	$9                      ; 0x2009 <__heap_default_limit+0x1009>
    8ebe: c6 09        	dec	$9                      ; 0x2009 <__heap_default_limit+0x1009>
    8ec0: d0 15        	bne	$8ed7 <__udivmodsi4+0x25>
    8ec2: e6 08        	inc	$8                      ; 0x2008 <__heap_default_limit+0x1008>
    8ec4: c6 08        	dec	$8                      ; 0x2008 <__heap_default_limit+0x1008>
    8ec6: d0 0f        	bne	$8ed7 <__udivmodsi4+0x25>
    8ec8: e6 07        	inc	$7                      ; 0x2007 <__heap_default_limit+0x1007>
    8eca: c6 07        	dec	$7                      ; 0x2007 <__heap_default_limit+0x1007>
    8ecc: d0 09        	bne	$8ed7 <__udivmodsi4+0x25>
    8ece: e6 06        	inc	$6                      ; 0x2006 <__heap_default_limit+0x1006>
    8ed0: c6 06        	dec	$6                      ; 0x2006 <__heap_default_limit+0x1006>
    8ed2: d0 03        	bne	$8ed7 <__udivmodsi4+0x25>
    8ed4: 4c 67 90     	jmp	$9067 <__udivmodsi4+0x1b5>
    8ed7: 84 05        	sty	$5                      ; 0x2005 <__heap_default_limit+0x1005>
    8ed9: 86 04        	stx	$4                      ; 0x2004 <__heap_default_limit+0x1004>
    8edb: e4 09        	cpx	$9                      ; 0x2009 <__heap_default_limit+0x1009>
    8edd: d0 15        	bne	$8ef4 <__udivmodsi4+0x42>
    8edf: a6 11        	ldx	$11                     ; 0x2011 <__heap_default_limit+0x1011>
    8ee1: e4 08        	cpx	$8                      ; 0x2008 <__heap_default_limit+0x1008>
    8ee3: d0 1e        	bne	$8f03 <__udivmodsi4+0x51>
    8ee5: a6 05        	ldx	$5                      ; 0x2005 <__heap_default_limit+0x1005>
    8ee7: e4 07        	cpx	$7                      ; 0x2007 <__heap_default_limit+0x1007>
    8ee9: f0 03        	beq	$8eee <__udivmodsi4+0x3c>
    8eeb: 4c 4f 90     	jmp	$904f <__udivmodsi4+0x19d>
    8eee: c5 06        	cmp	$6                      ; 0x2006 <__heap_default_limit+0x1006>
    8ef0: 90 06        	bcc	$8ef8 <__udivmodsi4+0x46>
    8ef2: 80 13        	bra	$8f07 <__udivmodsi4+0x55>
    8ef4: e4 09        	cpx	$9                      ; 0x2009 <__heap_default_limit+0x1009>
    8ef6: b0 0f        	bcs	$8f07 <__udivmodsi4+0x55>
    8ef8: 84 07        	sty	$7                      ; 0x2007 <__heap_default_limit+0x1007>
    8efa: a6 04        	ldx	$4                      ; 0x2004 <__heap_default_limit+0x1004>
    8efc: 86 06        	stx	$6                      ; 0x2006 <__heap_default_limit+0x1006>
    8efe: a2 00        	ldx	#$0
    8f00: 4c 32 90     	jmp	$9032 <__udivmodsi4+0x180>
    8f03: e4 08        	cpx	$8                      ; 0x2008 <__heap_default_limit+0x1008>
    8f05: 90 f1        	bcc	$8ef8 <__udivmodsi4+0x46>
    8f07: a6 09        	ldx	$9                      ; 0x2009 <__heap_default_limit+0x1009>
    8f09: 10 03        	bpl	$8f0e <__udivmodsi4+0x5c>
    8f0b: 4c 1a 90     	jmp	$901a <__udivmodsi4+0x168>
    8f0e: a2 00        	ldx	#$0
    8f10: a4 06        	ldy	$6                      ; 0x2006 <__heap_default_limit+0x1006>
    8f12: 84 0d        	sty	$d                      ; 0x200d <__heap_default_limit+0x100d>
    8f14: a4 07        	ldy	$7                      ; 0x2007 <__heap_default_limit+0x1007>
    8f16: 84 0e        	sty	$e                      ; 0x200e <__heap_default_limit+0x100e>
    8f18: a4 08        	ldy	$8                      ; 0x2008 <__heap_default_limit+0x1008>
    8f1a: 84 0f        	sty	$f                      ; 0x200f <__heap_default_limit+0x100f>
    8f1c: a4 09        	ldy	$9                      ; 0x2009 <__heap_default_limit+0x1009>
    8f1e: 84 10        	sty	$10                     ; 0x2010 <__heap_default_limit+0x1010>
    8f20: 06 0d        	asl	$d                      ; 0x200d <__heap_default_limit+0x100d>
    8f22: 26 0e        	rol	$e                      ; 0x200e <__heap_default_limit+0x100e>
    8f24: 26 0f        	rol	$f                      ; 0x200f <__heap_default_limit+0x100f>
    8f26: 26 10        	rol	$10                     ; 0x2010 <__heap_default_limit+0x1010>
    8f28: a4 04        	ldy	$4                      ; 0x2004 <__heap_default_limit+0x1004>
    8f2a: c4 10        	cpy	$10                     ; 0x2010 <__heap_default_limit+0x1010>
    8f2c: d0 12        	bne	$8f40 <__udivmodsi4+0x8e>
    8f2e: a4 11        	ldy	$11                     ; 0x2011 <__heap_default_limit+0x1011>
    8f30: c4 0f        	cpy	$f                      ; 0x200f <__heap_default_limit+0x100f>
    8f32: d0 12        	bne	$8f46 <__udivmodsi4+0x94>
    8f34: a4 05        	ldy	$5                      ; 0x2005 <__heap_default_limit+0x1005>
    8f36: c4 0e        	cpy	$e                      ; 0x200e <__heap_default_limit+0x100e>
    8f38: d0 12        	bne	$8f4c <__udivmodsi4+0x9a>
    8f3a: c5 0d        	cmp	$d                      ; 0x200d <__heap_default_limit+0x100d>
    8f3c: 90 28        	bcc	$8f66 <__udivmodsi4+0xb4>
    8f3e: 80 10        	bra	$8f50 <__udivmodsi4+0x9e>
    8f40: c4 10        	cpy	$10                     ; 0x2010 <__heap_default_limit+0x1010>
    8f42: b0 0c        	bcs	$8f50 <__udivmodsi4+0x9e>
    8f44: 80 20        	bra	$8f66 <__udivmodsi4+0xb4>
    8f46: c4 0f        	cpy	$f                      ; 0x200f <__heap_default_limit+0x100f>
    8f48: 90 1c        	bcc	$8f66 <__udivmodsi4+0xb4>
    8f4a: 80 04        	bra	$8f50 <__udivmodsi4+0x9e>
    8f4c: c4 0e        	cpy	$e                      ; 0x200e <__heap_default_limit+0x100e>
    8f4e: 90 16        	bcc	$8f66 <__udivmodsi4+0xb4>
    8f50: e8           	inx
    8f51: a4 0d        	ldy	$d                      ; 0x200d <__heap_default_limit+0x100d>
    8f53: 84 06        	sty	$6                      ; 0x2006 <__heap_default_limit+0x1006>
    8f55: a4 0e        	ldy	$e                      ; 0x200e <__heap_default_limit+0x100e>
    8f57: 84 07        	sty	$7                      ; 0x2007 <__heap_default_limit+0x1007>
    8f59: a4 0f        	ldy	$f                      ; 0x200f <__heap_default_limit+0x100f>
    8f5b: 84 08        	sty	$8                      ; 0x2008 <__heap_default_limit+0x1008>
    8f5d: a4 10        	ldy	$10                     ; 0x2010 <__heap_default_limit+0x1010>
    8f5f: 84 09        	sty	$9                      ; 0x2009 <__heap_default_limit+0x1009>
    8f61: 30 13        	bmi	$8f76 <__udivmodsi4+0xc4>
    8f63: 4c 20 8f     	jmp	$8f20 <__udivmodsi4+0x6e>
    8f66: a4 06        	ldy	$6                      ; 0x2006 <__heap_default_limit+0x1006>
    8f68: 84 0d        	sty	$d                      ; 0x200d <__heap_default_limit+0x100d>
    8f6a: a4 07        	ldy	$7                      ; 0x2007 <__heap_default_limit+0x1007>
    8f6c: 84 0e        	sty	$e                      ; 0x200e <__heap_default_limit+0x100e>
    8f6e: a4 08        	ldy	$8                      ; 0x2008 <__heap_default_limit+0x1008>
    8f70: 84 0f        	sty	$f                      ; 0x200f <__heap_default_limit+0x100f>
    8f72: a4 09        	ldy	$9                      ; 0x2009 <__heap_default_limit+0x1009>
    8f74: 84 10        	sty	$10                     ; 0x2010 <__heap_default_limit+0x1010>
    8f76: 38           	sec
    8f77: e5 0d        	sbc	$d                      ; 0x200d <__heap_default_limit+0x100d>
    8f79: 85 08        	sta	$8                      ; 0x2008 <__heap_default_limit+0x1008>
    8f7b: a5 05        	lda	$5                      ; 0x2005 <__heap_default_limit+0x1005>
    8f7d: e5 0e        	sbc	$e                      ; 0x200e <__heap_default_limit+0x100e>
    8f7f: 85 07        	sta	$7                      ; 0x2007 <__heap_default_limit+0x1007>
    8f81: a5 11        	lda	$11                     ; 0x2011 <__heap_default_limit+0x1011>
    8f83: e5 0f        	sbc	$f                      ; 0x200f <__heap_default_limit+0x100f>
    8f85: a8           	tay
    8f86: a5 04        	lda	$4                      ; 0x2004 <__heap_default_limit+0x1004>
    8f88: e5 10        	sbc	$10                     ; 0x2010 <__heap_default_limit+0x1010>
    8f8a: 85 06        	sta	$6                      ; 0x2006 <__heap_default_limit+0x1006>
    8f8c: 8a           	txa
    8f8d: d0 03        	bne	$8f92 <__udivmodsi4+0xe0>
    8f8f: 4c 59 90     	jmp	$9059 <__udivmodsi4+0x1a7>
    8f92: a9 01        	lda	#$1
    8f94: 85 86        	sta	$86                     ; 0x2086 <lprestore+0x11>
    8f96: 64 0c        	stz	$c                      ; 0x200c <__heap_default_limit+0x100c>
    8f98: 64 04        	stz	$4                      ; 0x2004 <__heap_default_limit+0x1004>
    8f9a: 64 05        	stz	$5                      ; 0x2005 <__heap_default_limit+0x1005>
    8f9c: 84 11        	sty	$11                     ; 0x2011 <__heap_default_limit+0x1011>
    8f9e: a5 08        	lda	$8                      ; 0x2008 <__heap_default_limit+0x1008>
    8fa0: 46 10        	lsr	$10                     ; 0x2010 <__heap_default_limit+0x1010>
    8fa2: 66 0f        	ror	$f                      ; 0x200f <__heap_default_limit+0x100f>
    8fa4: 66 0e        	ror	$e                      ; 0x200e <__heap_default_limit+0x100e>
    8fa6: 66 0d        	ror	$d                      ; 0x200d <__heap_default_limit+0x100d>
    8fa8: a4 86        	ldy	$86                     ; 0x2086 <lprestore+0x11>
    8faa: 84 08        	sty	$8                      ; 0x2008 <__heap_default_limit+0x1008>
    8fac: 06 08        	asl	$8                      ; 0x2008 <__heap_default_limit+0x1008>
    8fae: a0 01        	ldy	#$1
    8fb0: b0 02        	bcs	$8fb4 <__udivmodsi4+0x102>
    8fb2: a0 00        	ldy	#$0
    8fb4: 84 09        	sty	$9                      ; 0x2009 <__heap_default_limit+0x1009>
    8fb6: a4 08        	ldy	$8                      ; 0x2008 <__heap_default_limit+0x1008>
    8fb8: 84 86        	sty	$86                     ; 0x2086 <lprestore+0x11>
    8fba: a4 06        	ldy	$6                      ; 0x2006 <__heap_default_limit+0x1006>
    8fbc: c4 10        	cpy	$10                     ; 0x2010 <__heap_default_limit+0x1010>
    8fbe: d0 18        	bne	$8fd8 <__udivmodsi4+0x126>
    8fc0: a4 11        	ldy	$11                     ; 0x2011 <__heap_default_limit+0x1011>
    8fc2: c4 0f        	cpy	$f                      ; 0x200f <__heap_default_limit+0x100f>
    8fc4: f0 03        	beq	$8fc9 <__udivmodsi4+0x117>
    8fc6: 4c 0c 90     	jmp	$900c <__udivmodsi4+0x15a>
    8fc9: a4 07        	ldy	$7                      ; 0x2007 <__heap_default_limit+0x1007>
    8fcb: c4 0e        	cpy	$e                      ; 0x200e <__heap_default_limit+0x100e>
    8fcd: f0 03        	beq	$8fd2 <__udivmodsi4+0x120>
    8fcf: 4c 13 90     	jmp	$9013 <__udivmodsi4+0x161>
    8fd2: c5 0d        	cmp	$d                      ; 0x200d <__heap_default_limit+0x100d>
    8fd4: b0 06        	bcs	$8fdc <__udivmodsi4+0x12a>
    8fd6: 80 24        	bra	$8ffc <__udivmodsi4+0x14a>
    8fd8: c4 10        	cpy	$10                     ; 0x2010 <__heap_default_limit+0x1010>
    8fda: 90 20        	bcc	$8ffc <__udivmodsi4+0x14a>
    8fdc: 38           	sec
    8fdd: e5 0d        	sbc	$d                      ; 0x200d <__heap_default_limit+0x100d>
    8fdf: 85 08        	sta	$8                      ; 0x2008 <__heap_default_limit+0x1008>
    8fe1: a5 07        	lda	$7                      ; 0x2007 <__heap_default_limit+0x1007>
    8fe3: e5 0e        	sbc	$e                      ; 0x200e <__heap_default_limit+0x100e>
    8fe5: 85 07        	sta	$7                      ; 0x2007 <__heap_default_limit+0x1007>
    8fe7: a5 11        	lda	$11                     ; 0x2011 <__heap_default_limit+0x1011>
    8fe9: e5 0f        	sbc	$f                      ; 0x200f <__heap_default_limit+0x100f>
    8feb: a8           	tay
    8fec: a5 06        	lda	$6                      ; 0x2006 <__heap_default_limit+0x1006>
    8fee: e5 10        	sbc	$10                     ; 0x2010 <__heap_default_limit+0x1010>
    8ff0: 85 06        	sta	$6                      ; 0x2006 <__heap_default_limit+0x1006>
    8ff2: 84 11        	sty	$11                     ; 0x2011 <__heap_default_limit+0x1011>
    8ff4: a5 86        	lda	$86                     ; 0x2086 <lprestore+0x11>
    8ff6: 09 01        	ora	#$1
    8ff8: 85 86        	sta	$86                     ; 0x2086 <lprestore+0x11>
    8ffa: a5 08        	lda	$8                      ; 0x2008 <__heap_default_limit+0x1008>
    8ffc: a4 09        	ldy	$9                      ; 0x2009 <__heap_default_limit+0x1009>
    8ffe: c0 01        	cpy	#$1
    9000: 26 0c        	rol	$c                      ; 0x200c <__heap_default_limit+0x100c>
    9002: 26 04        	rol	$4                      ; 0x2004 <__heap_default_limit+0x1004>
    9004: 26 05        	rol	$5                      ; 0x2005 <__heap_default_limit+0x1005>
    9006: ca           	dex
    9007: f0 2f        	beq	$9038 <__udivmodsi4+0x186>
    9009: 4c a0 8f     	jmp	$8fa0 <__udivmodsi4+0xee>
    900c: c4 0f        	cpy	$f                      ; 0x200f <__heap_default_limit+0x100f>
    900e: 90 ec        	bcc	$8ffc <__udivmodsi4+0x14a>
    9010: 4c dc 8f     	jmp	$8fdc <__udivmodsi4+0x12a>
    9013: c4 0e        	cpy	$e                      ; 0x200e <__heap_default_limit+0x100e>
    9015: 90 e5        	bcc	$8ffc <__udivmodsi4+0x14a>
    9017: 4c dc 8f     	jmp	$8fdc <__udivmodsi4+0x12a>
    901a: 38           	sec
    901b: e5 06        	sbc	$6                      ; 0x2006 <__heap_default_limit+0x1006>
    901d: aa           	tax
    901e: 98           	tya
    901f: e5 07        	sbc	$7                      ; 0x2007 <__heap_default_limit+0x1007>
    9021: 85 07        	sta	$7                      ; 0x2007 <__heap_default_limit+0x1007>
    9023: a5 11        	lda	$11                     ; 0x2011 <__heap_default_limit+0x1011>
    9025: e5 08        	sbc	$8                      ; 0x2008 <__heap_default_limit+0x1008>
    9027: 85 11        	sta	$11                     ; 0x2011 <__heap_default_limit+0x1011>
    9029: a5 04        	lda	$4                      ; 0x2004 <__heap_default_limit+0x1004>
    902b: e5 09        	sbc	$9                      ; 0x2009 <__heap_default_limit+0x1009>
    902d: 85 06        	sta	$6                      ; 0x2006 <__heap_default_limit+0x1006>
    902f: 8a           	txa
    9030: a2 01        	ldx	#$1
    9032: 86 86        	stx	$86                     ; 0x2086 <lprestore+0x11>
    9034: 64 04        	stz	$4                      ; 0x2004 <__heap_default_limit+0x1004>
    9036: 64 05        	stz	$5                      ; 0x2005 <__heap_default_limit+0x1005>
    9038: 92 0a        	sta	($a),z                  ; 0x200a <__heap_default_limit+0x100a>
    903a: a0 01        	ldy	#$1
    903c: a5 07        	lda	$7                      ; 0x2007 <__heap_default_limit+0x1007>
    903e: 91 0a        	sta	($a),y                  ; 0x200a <__heap_default_limit+0x100a>
    9040: c8           	iny
    9041: a5 11        	lda	$11                     ; 0x2011 <__heap_default_limit+0x1011>
    9043: 91 0a        	sta	($a),y                  ; 0x200a <__heap_default_limit+0x100a>
    9045: c8           	iny
    9046: a5 06        	lda	$6                      ; 0x2006 <__heap_default_limit+0x1006>
    9048: 91 0a        	sta	($a),y                  ; 0x200a <__heap_default_limit+0x100a>
    904a: a6 0c        	ldx	$c                      ; 0x200c <__heap_default_limit+0x100c>
    904c: a5 86        	lda	$86                     ; 0x2086 <lprestore+0x11>
    904e: 60           	rts
    904f: e4 07        	cpx	$7                      ; 0x2007 <__heap_default_limit+0x1007>
    9051: b0 03        	bcs	$9056 <__udivmodsi4+0x1a4>
    9053: 4c f8 8e     	jmp	$8ef8 <__udivmodsi4+0x46>
    9056: 4c 07 8f     	jmp	$8f07 <__udivmodsi4+0x55>
    9059: a2 01        	ldx	#$1
    905b: 86 86        	stx	$86                     ; 0x2086 <lprestore+0x11>
    905d: 64 04        	stz	$4                      ; 0x2004 <__heap_default_limit+0x1004>
    905f: 64 05        	stz	$5                      ; 0x2005 <__heap_default_limit+0x1005>
    9061: 84 11        	sty	$11                     ; 0x2011 <__heap_default_limit+0x1011>
    9063: a5 08        	lda	$8                      ; 0x2008 <__heap_default_limit+0x1008>
    9065: 80 d1        	bra	$9038 <__udivmodsi4+0x186>
    9067: 84 07        	sty	$7                      ; 0x2007 <__heap_default_limit+0x1007>
    9069: 4c fc 8e     	jmp	$8efc <__udivmodsi4+0x4a>

0000906c <memcpy>:
    906c: a8           	tay
    906d: 8a           	txa
    906e: d0 03        	bne	$9073 <memcpy+0x7>
    9070: 98           	tya
    9071: f0 24        	beq	$9097 <memcpy+0x2b>
    9073: a5 04        	lda	$4                      ; 0x2004 <__heap_default_limit+0x1004>
    9075: 85 08        	sta	$8                      ; 0x2008 <__heap_default_limit+0x1008>
    9077: a5 05        	lda	$5                      ; 0x2005 <__heap_default_limit+0x1005>
    9079: 85 09        	sta	$9                      ; 0x2009 <__heap_default_limit+0x1009>
    907b: b2 06        	lda	($6),z                  ; 0x2006 <__heap_default_limit+0x1006>
    907d: 92 08        	sta	($8),z                  ; 0x2008 <__heap_default_limit+0x1008>
    907f: e6 08        	inc	$8                      ; 0x2008 <__heap_default_limit+0x1008>
    9081: d0 02        	bne	$9085 <memcpy+0x19>
    9083: e6 09        	inc	$9                      ; 0x2009 <__heap_default_limit+0x1009>
    9085: e6 06        	inc	$6                      ; 0x2006 <__heap_default_limit+0x1006>
    9087: d0 02        	bne	$908b <memcpy+0x1f>
    9089: e6 07        	inc	$7                      ; 0x2007 <__heap_default_limit+0x1007>
    908b: 88           	dey
    908c: c0 ff        	cpy	#$ff
    908e: d0 01        	bne	$9091 <memcpy+0x25>
    9090: ca           	dex
    9091: 8a           	txa
    9092: d0 e7        	bne	$907b <memcpy+0xf>
    9094: 98           	tya
    9095: d0 e4        	bne	$907b <memcpy+0xf>
    9097: 60           	rts

00009098 <__memset>:
    9098: a4 06        	ldy	$6                      ; 0x2006 <__heap_default_limit+0x1006>
    909a: d0 04        	bne	$90a0 <__memset+0x8>
    909c: e0 00        	cpx	#$0
    909e: f0 17        	beq	$90b7 <__memset+0x1f>
    90a0: 92 04        	sta	($4),z                  ; 0x2004 <__heap_default_limit+0x1004>
    90a2: e6 04        	inc	$4                      ; 0x2004 <__heap_default_limit+0x1004>
    90a4: d0 02        	bne	$90a8 <__memset+0x10>
    90a6: e6 05        	inc	$5                      ; 0x2005 <__heap_default_limit+0x1005>
    90a8: ca           	dex
    90a9: e0 ff        	cpx	#$ff
    90ab: d0 02        	bne	$90af <__memset+0x17>
    90ad: c6 06        	dec	$6                      ; 0x2006 <__heap_default_limit+0x1006>
    90af: a4 06        	ldy	$6                      ; 0x2006 <__heap_default_limit+0x1006>
    90b1: d0 ed        	bne	$90a0 <__memset+0x8>
    90b3: e0 00        	cpx	#$0
    90b5: d0 e9        	bne	$90a0 <__memset+0x8>
    90b7: 60           	rts
