
midnightmega.prg.elf:	file format elf32-mos

SYMBOL TABLE:
00002056 l       .text	00000000 fourbytes
0000205a l       .text	00000000 lpstore
00002075 l       .text	00000000 lprestore
00000000 l    df *ABS*	00000000 exit-return.c
00002015 l       .basic_header	00000000 next_line
0000fff0 l       *ABS*	00000000 PLOT
00000000 l    df *ABS*	00000000 exit.c
00000000 l    df *ABS*	00000000 zero-bss.c
00000000 l    df *ABS*	00000000 zero-zp-bss.c
00000000 l    df *ABS*	00000000 copy-zp-data.c
00000000 l    df *ABS*	00000000 ld-temp.o
0000d640 l       *ABS*	00000000 HTRAP00
0000d67f l       *ABS*	00000000 HTRAP3F
00002040 l       .text	00000000 shift
00000031 l     O .zp.bss	00000001 g_curScreenW
00000032 l     O .zp.bss	00000001 g_curScreenH
00007c9a l     O .bss	000002fd escapeCode
0000673f l     F .text	00000001 escNOP
0000002b l     O .zp.data	00000001 g_curTextColor
0000567b l     F .text	0000005e clrhome
000056e7 l     F .text	00000016 mcputsxy
000056d9 l     F .text	0000000e msprintf
00005ae0 l     F .text	00000388 shortcuts
00005888 l     F .text	00000157 messagebox
00000030 l     O .zp.bss	00000001 option.0
00000027 l     O .zp.data	00000004 midnight
000059df l     F .text	000000c0 progress
00005f07 l     F .text	00000665 UpdateSectors
0000656c l     F .text	00000046 Deselect
0000002e l     O .zp.bss	00000001 lasttrack
00007b58 l     O .bss	000000e0 direntflags
000056fd l     F .text	0000018b mcbox
00007c38 l     O .bss	00000022 disknames
00006740 l     F .text	00000009 cputc
00000033 l     O .zp.bss	00000001 g_curX
00005564 l     F .text	000000c6 csputdec
000066f9 l     F .text	00000046 sidbong
0000546e l     F .text	000000e2 getdirententry
00007b08 l     O .bss	00000050 s
000067f1 l     F .text	000000db cputsxy
00004cf8 l     F .text	00000039 GetBAM
000069a6 l     F .text	00000067 lcopy
00004d31 l     F .text	0000005c PutBAM
00004ca7 l     F .text	00000051 PutOneSector
00004be0 l     F .text	00000043 GetOneSector
00004e27 l     F .text	00000302 BAMSectorUpdate
00006b83 l     F .text	000000c1 __udivhi3
00000034 l     O .zp.bss	00000001 g_curY
00006b33 l     F .text	0000000b __ashlqi3
00005e68 l     F .text	0000009f optionstring
00006976 l     F .text	00000009 cgetc
00004876 l     F .text	00000030 hyppo_setname
00002f65 l       .text	00000000 errhypfindfirst0
00002f67 l       .text	00000000 donehypfindfirst0
00002f86 l       .text	00000000 errhypopenfile1
00002f88 l       .text	00000000 donehypopenfile1
00002fb2 l       .text	00000000 errhypreadfile2
00002fb6 l       .text	00000000 donehypreadfile2
00002fd5 l       .text	00000000 errhypclosefile3
00002fd9 l       .text	00000000 donehypclosefile3
00006a0d l     F .text	00000050 lfill
000067ea l     F .text	00000007 cputs
000053e2 l     F .text	0000008c tracksectorstring
00004c23 l     F .text	00000084 PutWholeSector
00005129 l     F .text	000001a0 isallocatedBAMtracksector
00004d8d l     F .text	0000009a readblockchain
000052c9 l     F .text	00000119 findnextBAMtracksector
00004a6f l     F .text	000000d2 ReadSector
00007c5a l     O .bss	00000040 lfnname
00006a5d l     F .text	0000005c usleep
000065b2 l     F .text	00000147 sizeselectcurrentifnone
000043fc l       .text	00000000 errhypd81detach4
00004400 l       .text	00000000 donehypd81detach4
000045af l       .text	00000000 errhypchdir5
000045b3 l       .text	00000000 donehypchdir5
00004641 l       .text	00000000 errhypchdir6
00004645 l       .text	00000000 donehypchdir6
00004760 l       .text	00000000 errhyp1att7
00004764 l       .text	00000000 donehyp1att7
00004825 l       .text	00000000 errhyp0att8
00004829 l       .text	00000000 donehyp0att8
0000002c l     O .zp.bss	00000001 fnamehi.2
00006ab9 l     F .text	0000003e strcpy
000048a0 l       .text	00000000 errhypsetnam9
000048a4 l       .text	00000000 donehypsetnam9
000048a6 l     F .text	00000063 getsfn
00004909 l     F .text	00000166 ShowAccess
00006b51 l     F .text	00000032 __mulhi3
00006c89 l     F .text	00000070 __udivmodqi4
0000002d l     O .zp.bss	00000001 lastdrive
0000002f l     O .zp.bss	00000001 lastdoublesector
00006c44 l     F .text	00000045 __umodqi3
00004b41 l     F .text	0000009f WriteSector
00006b3e l     F .text	00000013 __ashlhi3
00007a7f l     O .rodata	00000004 BAMsector
00005550 l     F .text	00000014 strcopy
00006e21 l     F .text	000001ba __udivmodsi4
0000562a l     F .text	00000051 asciitoscreencode_s
000068cc l     F .text	000000aa fillrect
00006749 l     F .text	000000a1 cputcxy
00007ad7 l     O .rodata	00000010 hexDigits
00005a9f l     F .text	00000041 shortcutprint
00006003 l       .text	00000000 errgetproc10
00006007 l       .text	00000000 donegetproc10
00006141 l       .text	00000000 errgetcurdrv11
00006145 l       .text	00000000 donegetcurdrv11
0000615e l       .text	00000000 errhypopendir12
00006162 l       .text	00000000 donehypopendir12
00006208 l       .text	00000000 hypreaddirloop13
00006220 l       .text	00000000 errhypreaddir13
00006222 l       .text	00000000 donehypreaddir13
00007ae7 l     O .bss	00000021 direntryblock2
000064e6 l       .text	00000000 errhypclosedir14
000064e8 l       .text	00000000 donehypclosedir14
00006af7 l     F .text	0000003c strlen
00006cf9 l     F .text	000000dc __udivmodhi4
0000697f l     F .text	00000027 do_dma
00000035 l     O .zp.bss	00000014 dmalist
00002116 g     F .text	00002760 main
00002090 g       .text	00000000 lpoke
000020b1 g       .text	00000000 lpeek
00000007 g       *ABS*	00000000 __rc5
00000008 g       *ABS*	00000000 __rc6
00000009 g       *ABS*	00000000 __rc7
0000000a g       *ABS*	00000000 __rc8
00000004 g       *ABS*	00000000 __rc2
00000005 g       *ABS*	00000000 __rc3
00000006 g       *ABS*	00000000 __rc4
00002048 g       .text	00000000 __after_main
0000203d g       .text	00000000 __do_copy_zp_data
000020ff g     F .text	00000017 __copy_zp_data
00002037 g       .text	00000000 __do_zero_bss
000020d9 g     F .text	00000013 __zero_bss
0000203a g       .text	00000000 __do_zero_zp_bss
000020ec g     F .text	00000013 __zero_zp_bss
000020cf g     F .text	0000000a __exit_return
0000204b g       .text	00000000 _fini
0000202f g       .text	00000000 __do_init_stack
0000d000 g       *ABS*	00000000 __stack
00000002 g       *ABS*	00000000 __rc0
00000003 g       *ABS*	00000000 __rc1
0000ff81  w      *ABS*	00000000 CINT
0000ff84  w      *ABS*	00000000 IOINIT
0000ff87  w      *ABS*	00000000 RAMTAS
0000ff8a  w      *ABS*	00000000 RESTOR
0000ff8d  w      *ABS*	00000000 VECTOR
0000ff90  w      *ABS*	00000000 SETMSG
0000ff93  w      *ABS*	00000000 SECOND
0000ff96  w      *ABS*	00000000 TKSA
0000ff99  w      *ABS*	00000000 MEMTOP
0000ff9c  w      *ABS*	00000000 MEMBOT
0000ff9f  w      *ABS*	00000000 SCNKEY
0000ffa2  w      *ABS*	00000000 SETTMO
0000ffa5  w      *ABS*	00000000 ACPTR
0000ffa8  w      *ABS*	00000000 CIOUT
0000ffab  w      *ABS*	00000000 UNTLK
0000ffae  w      *ABS*	00000000 UNLSN
0000ffb1  w      *ABS*	00000000 LISTEN
0000ffb4  w      *ABS*	00000000 TALK
0000ffb7  w      *ABS*	00000000 READST
0000ffba  w      *ABS*	00000000 SETLFS
0000ffbd  w      *ABS*	00000000 SETNAM
0000ffc0  w      *ABS*	00000000 OPEN
0000ffc3  w      *ABS*	00000000 CLOSE
0000ffc6  w      *ABS*	00000000 CHKIN
0000ffc9  w      *ABS*	00000000 CKOUT
0000ffc9  w      *ABS*	00000000 CHKOUT
0000ffcc  w      *ABS*	00000000 CLRCH
0000ffcc  w      *ABS*	00000000 CLRCHN
0000ffcf  w      *ABS*	00000000 BASIN
0000ffcf  w      *ABS*	00000000 CHRIN
0000ffd2  w      *ABS*	00000000 BSOUT
0000ffd2  w      *ABS*	00000000 CHROUT
0000ffd5  w      *ABS*	00000000 LOAD
0000ffd8  w      *ABS*	00000000 SAVE
0000ffdb  w      *ABS*	00000000 SETTIM
0000ffde  w      *ABS*	00000000 RDTIM
0000ffe1  w      *ABS*	00000000 STOP
0000ffe4  w      *ABS*	00000000 GETIN
0000ffe7  w      *ABS*	00000000 CLALL
0000ffea  w      *ABS*	00000000 UDTIM
0000ffed  w      *ABS*	00000000 SCREEN
0000fff3  w      *ABS*	00000000 IOBASE
0000ffc6 g       *ABS*	00000000 __CHKIN
0000ffc9 g       *ABS*	00000000 __CKOUT
0000ffc9 g       *ABS*	00000000 __CHKOUT
0000ffcc g       *ABS*	00000000 __CLRCH
0000ffcc g       *ABS*	00000000 __CLRCHN
0000ffcf g       *ABS*	00000000 __BASIN
0000ffcf g       *ABS*	00000000 __CHRIN
0000ffd2 g       *ABS*	00000000 __BSOUT
0000ffd2 g       *ABS*	00000000 __CHROUT
0000ffe1 g       *ABS*	00000000 __STOP
0000ffe4 g       *ABS*	00000000 __GETIN
0000ffe7 g       *ABS*	00000000 __CLALL
0000ffea g       *ABS*	00000000 __UDTIM
0000ff81 g       *ABS*	00000000 __CINT
0000ff84 g       *ABS*	00000000 __IOINIT
0000ff87 g       *ABS*	00000000 __RAMTAS
0000ff8a g       *ABS*	00000000 __RESTOR
0000ff8d g       *ABS*	00000000 __VECTOR
0000ff90 g       *ABS*	00000000 __SETMSG
0000ff93 g       *ABS*	00000000 __SECOND
0000ff96 g       *ABS*	00000000 __TKSA
0000ff99 g       *ABS*	00000000 __MEMTOP
0000ff9c g       *ABS*	00000000 __MEMBOT
0000ff9f g       *ABS*	00000000 __SCNKEY
0000ffa2 g       *ABS*	00000000 __SETTMO
0000ffa5 g       *ABS*	00000000 __ACPTR
0000ffa8 g       *ABS*	00000000 __CIOUT
0000ffab g       *ABS*	00000000 __UNTLK
0000ffae g       *ABS*	00000000 __UNLSN
0000ffb1 g       *ABS*	00000000 __LISTEN
0000ffb4 g       *ABS*	00000000 __TALK
0000ffb7 g       *ABS*	00000000 __READST
0000ffba g       *ABS*	00000000 __SETLFS
0000ffbd g       *ABS*	00000000 __SETNAM
0000ffc0 g       *ABS*	00000000 __OPEN
0000ffc3 g       *ABS*	00000000 __CLOSE
0000ffd5 g       *ABS*	00000000 __LOAD
0000ffd8 g       *ABS*	00000000 __SAVE
0000ffdb g       *ABS*	00000000 __SETTIM
0000ffde g       *ABS*	00000000 __RDTIM
0000ffed g       *ABS*	00000000 __SCREEN
0000fff3 g       *ABS*	00000000 __IOBASE
00001000  w      *ABS*	00000000 __heap_default_limit
00006dd5  w    F .text	0000002c memcpy
00006e01  w    F .text	00000020 __memset
00002021 g       .text	00000000 _start
00000002 g       *ABS*	00000000 __basic_zp_start
0000000c g       *ABS*	00000000 __rc10
0000000e g       *ABS*	00000000 __rc12
00000010 g       *ABS*	00000000 __rc14
00000012 g       *ABS*	00000000 __rc16
00000014 g       *ABS*	00000000 __rc18
00000016 g       *ABS*	00000000 __rc20
00000018 g       *ABS*	00000000 __rc22
0000001a g       *ABS*	00000000 __rc24
0000001c g       *ABS*	00000000 __rc26
0000001e g       *ABS*	00000000 __rc28
00000020 g       *ABS*	00000000 __rc30
00000021 g       *ABS*	00000000 __rc31
00000090 g       *ABS*	00000000 __basic_zp_end
0000001f g       *ABS*	00000000 __rc29
0000001d g       *ABS*	00000000 __rc27
0000001b g       *ABS*	00000000 __rc25
00000019 g       *ABS*	00000000 __rc23
00000017 g       *ABS*	00000000 __rc21
00000015 g       *ABS*	00000000 __rc19
00000013 g       *ABS*	00000000 __rc17
00000011 g       *ABS*	00000000 __rc15
0000000f g       *ABS*	00000000 __rc13
0000000d g       *ABS*	00000000 __rc11
0000000b g       *ABS*	00000000 __rc9
00007f98 g       .noinit	00000000 __heap_start
00000022 g       .zp.data	00000000 __zp_data_start
00002017 g       *ABS*	00000000 __zp_data_load_start
0000000a g       *ABS*	00000000 __zp_data_size
0000002c g       .zp.bss	00000000 __zp_bss_start
0000001d g       *ABS*	00000000 __zp_bss_size
00002021 g       .text	00000000 _init
00006fdb g       .text	00000000 __init_array_start
00006fdb g       .text	00000000 __init_array_end
00006fdb g       .text	00000000 __fini_array_start
00006fdb g       .text	00000000 __fini_array_end
00007ae7 g       .data	00000000 __data_start
00007ae7 g       .data	00000000 __data_end
00007ae7 g       *ABS*	00000000 __data_load_start
00000000 g       *ABS*	00000000 __data_size
00007ae7 g       .bss	00000000 __bss_start
00007f97 g       .bss	00000000 __bss_end
000004b0 g       *ABS*	00000000 __bss_size

Disassembly of section .text:

00002021 <_start>:
    2021: 78           	sei
    2022: a2 2f        	ldx	#$2f
    2024: 86 00        	stx	$0                      ; 0x0 <__data_size>
    2026: a2 3e        	ldx	#$3e
    2028: 86 01        	stx	$1                      ; 0x1 <__data_size+0x1>
    202a: a2 44        	ldx	#$44
    202c: 8e 30 d0     	stx	$d030                   ; 0xd030 <__heap_start+0x5098>

0000202f <__do_init_stack>:
    202f: a9 00        	lda	#$0
    2031: 85 02        	sta	$2                      ; 0x2 <__rc0>
    2033: a9 d0        	lda	#$d0
    2035: 85 03        	sta	$3                      ; 0x3 <__rc1>

00002037 <__do_zero_bss>:
    2037: 20 d9 20     	jsr	$20d9 <__zero_bss>

0000203a <__do_zero_zp_bss>:
    203a: 20 ec 20     	jsr	$20ec <__zero_zp_bss>

0000203d <__do_copy_zp_data>:
    203d: 20 ff 20     	jsr	$20ff <__copy_zp_data>

00002040 <shift>:
    2040: a9 0e        	lda	#$e
    2042: 20 d2 ff     	jsr	$ffd2 <__heap_start+0x803a>
    2045: 20 16 21     	jsr	$2116 <main>

00002048 <__after_main>:
    2048: 4c cf 20     	jmp	$20cf <__exit_return>

0000204b <_fini>:
    204b: a2 3f        	ldx	#$3f
    204d: 86 01        	stx	$1                      ; 0x1 <__data_size+0x1>
    204f: a2 64        	ldx	#$64
    2051: 8e 30 d0     	stx	$d030                   ; 0xd030 <__heap_start+0x5098>
    2054: 58           	cli
    2055: 60           	rts

00002056 <fourbytes>:
    2056: 00           	brk
    2057: 00           	brk
    2058: 00           	brk
    2059: 00           	brk

0000205a <lpstore>:
    205a: 48           	pha
    205b: ad 07 00     	lda	$7                      ; 0x7 <__rc5>
    205e: 8d 56 20     	sta	$2056                   ; 0x2056 <fourbytes>
    2061: ad 08 00     	lda	$8                      ; 0x8 <__rc6>
    2064: 8d 57 20     	sta	$2057                   ; 0x2057 <fourbytes+0x1>
    2067: ad 09 00     	lda	$9                      ; 0x9 <__rc7>
    206a: 8d 58 20     	sta	$2058                   ; 0x2058 <fourbytes+0x2>
    206d: ad 0a 00     	lda	$a                      ; 0xa <__zp_data_size>
    2070: 8d 59 20     	sta	$2059                   ; 0x2059 <fourbytes+0x3>
    2073: 68           	pla
    2074: 60           	rts

00002075 <lprestore>:
    2075: 48           	pha
    2076: ad 56 20     	lda	$2056                   ; 0x2056 <fourbytes>
    2079: 8d 07 00     	sta	$7                      ; 0x7 <__rc5>
    207c: ad 57 20     	lda	$2057                   ; 0x2057 <fourbytes+0x1>
    207f: 8d 08 00     	sta	$8                      ; 0x8 <__rc6>
    2082: ad 58 20     	lda	$2058                   ; 0x2058 <fourbytes+0x2>
    2085: 8d 09 00     	sta	$9                      ; 0x9 <__rc7>
    2088: ad 59 20     	lda	$2059                   ; 0x2059 <fourbytes+0x3>
    208b: 8d 0a 00     	sta	$a                      ; 0xa <__zp_data_size>
    208e: 68           	pla
    208f: 60           	rts

00002090 <lpoke>:
    2090: 20 5a 20     	jsr	$205a <lpstore>
    2093: 8d 07 00     	sta	$7                      ; 0x7 <__rc5>
    2096: 8e 08 00     	stx	$8                      ; 0x8 <__rc6>
    2099: ad 04 00     	lda	$4                      ; 0x4 <__rc2>
    209c: 8d 09 00     	sta	$9                      ; 0x9 <__rc7>
    209f: ad 05 00     	lda	$5                      ; 0x5 <__rc3>
    20a2: 8d 0a 00     	sta	$a                      ; 0xa <__zp_data_size>
    20a5: ad 06 00     	lda	$6                      ; 0x6 <__rc4>
    20a8: a3 00        	ldz	#$0
    20aa: ea 92 07     	sta	[$7],z                  ; 0x7 <__rc5>
    20ad: 20 75 20     	jsr	$2075 <lprestore>
    20b0: 60           	rts

000020b1 <lpeek>:
    20b1: 20 5a 20     	jsr	$205a <lpstore>
    20b4: 8d 06 00     	sta	$6                      ; 0x6 <__rc4>
    20b7: 8e 07 00     	stx	$7                      ; 0x7 <__rc5>
    20ba: ad 04 00     	lda	$4                      ; 0x4 <__rc2>
    20bd: 8d 08 00     	sta	$8                      ; 0x8 <__rc6>
    20c0: ad 05 00     	lda	$5                      ; 0x5 <__rc3>
    20c3: 8d 09 00     	sta	$9                      ; 0x9 <__rc7>
    20c6: a3 00        	ldz	#$0
    20c8: ea b2 06     	lda	[$6],z                  ; 0x6 <__rc4>
    20cb: 20 75 20     	jsr	$2075 <lprestore>
    20ce: 60           	rts

000020cf <__exit_return>:
    20cf: 8d 97 7f     	sta	$7f97                   ; 0x7f97 <__data_load_start+0x4b0>
    20d2: 20 4b 20     	jsr	$204b <_fini>
    20d5: ad 97 7f     	lda	$7f97                   ; 0x7f97 <__data_load_start+0x4b0>
    20d8: 60           	rts

000020d9 <__zero_bss>:
    20d9: a2 b0        	ldx	#$b0
    20db: a0 04        	ldy	#$4
    20dd: a9 e7        	lda	#$e7
    20df: 85 04        	sta	$4                      ; 0x4 <__rc2>
    20e1: a9 7a        	lda	#$7a
    20e3: 85 05        	sta	$5                      ; 0x5 <__rc3>
    20e5: a9 00        	lda	#$0
    20e7: 84 06        	sty	$6                      ; 0x6 <__rc4>
    20e9: 4c 01 6e     	jmp	$6e01 <__memset>

000020ec <__zero_zp_bss>:
    20ec: a2 1d        	ldx	#$1d
    20ee: a0 00        	ldy	#$0
    20f0: a9 2c        	lda	#$2c
    20f2: 85 04        	sta	$4                      ; 0x4 <__rc2>
    20f4: a9 00        	lda	#$0
    20f6: 85 05        	sta	$5                      ; 0x5 <__rc3>
    20f8: a9 00        	lda	#$0
    20fa: 84 06        	sty	$6                      ; 0x6 <__rc4>
    20fc: 4c 01 6e     	jmp	$6e01 <__memset>

000020ff <__copy_zp_data>:
    20ff: a9 0a        	lda	#$a
    2101: a2 00        	ldx	#$0
    2103: a0 22        	ldy	#$22
    2105: 84 04        	sty	$4                      ; 0x4 <__rc2>
    2107: a0 00        	ldy	#$0
    2109: 84 05        	sty	$5                      ; 0x5 <__rc3>
    210b: a0 17        	ldy	#$17
    210d: 84 06        	sty	$6                      ; 0x6 <__rc4>
    210f: a0 20        	ldy	#$20
    2111: 84 07        	sty	$7                      ; 0x7 <__rc5>
    2113: 4c d5 6d     	jmp	$6dd5 <memcpy>

00002116 <main>:
    2116: a2 47        	ldx	#$47
    2118: 8e 2f d0     	stx	$d02f                   ; 0xd02f <__heap_start+0x5097>
    211b: a2 53        	ldx	#$53
    211d: 8e 2f d0     	stx	$d02f                   ; 0xd02f <__heap_start+0x5097>
    2120: ad 5d d0     	lda	$d05d                   ; 0xd05d <__heap_start+0x50c5>
    2123: 29 7f        	and	#$7f
    2125: 8d 5d d0     	sta	$d05d                   ; 0xd05d <__heap_start+0x50c5>
    2128: 9c 68 d0     	stz	$d068                   ; 0xd068 <__heap_start+0x50d0>
    212b: a2 d8        	ldx	#$d8
    212d: 8e 69 d0     	stx	$d069                   ; 0xd069 <__heap_start+0x50d1>
    2130: a2 02        	ldx	#$2
    2132: 8e 6a d0     	stx	$d06a                   ; 0xd06a <__heap_start+0x50d2>
    2135: ac 31 d0     	ldy	$d031                   ; 0xd031 <__heap_start+0x5099>
    2138: a2 28        	ldx	#$28
    213a: 98           	tya
    213b: 10 02        	bpl	$213f <main+0x29>
    213d: a2 50        	ldx	#$50
    213f: 86 31        	stx	$31                     ; 0x31 <g_curScreenW>
    2141: ad 31 d0     	lda	$d031                   ; 0xd031 <__heap_start+0x5099>
    2144: 29 08        	and	#$8
    2146: f0 04        	beq	$214c <main+0x36>
    2148: a2 32        	ldx	#$32
    214a: 80 02        	bra	$214e <main+0x38>
    214c: a2 19        	ldx	#$19
    214e: 18           	clc
    214f: a5 02        	lda	$2                      ; 0x2 <__rc0>
    2151: 69 d5        	adc	#$d5
    2153: 85 02        	sta	$2                      ; 0x2 <__rc0>
    2155: a5 03        	lda	$3                      ; 0x3 <__rc1>
    2157: 69 ff        	adc	#$ff
    2159: 85 03        	sta	$3                      ; 0x3 <__rc1>
    215b: a4 16        	ldy	$16                     ; 0x16 <__rc20>
    215d: 5a           	phy
    215e: a4 17        	ldy	$17                     ; 0x17 <__rc21>
    2160: 5a           	phy
    2161: a4 18        	ldy	$18                     ; 0x18 <__rc22>
    2163: 5a           	phy
    2164: a4 19        	ldy	$19                     ; 0x19 <__rc23>
    2166: 5a           	phy
    2167: a5 1a        	lda	$1a                     ; 0x1a <__rc24>
    2169: a0 07        	ldy	#$7
    216b: 91 02        	sta	($2),y                  ; 0x2 <__rc0>
    216d: a5 1b        	lda	$1b                     ; 0x1b <__rc25>
    216f: 88           	dey
    2170: 91 02        	sta	($2),y                  ; 0x2 <__rc0>
    2172: a5 1c        	lda	$1c                     ; 0x1c <__rc26>
    2174: 88           	dey
    2175: 91 02        	sta	($2),y                  ; 0x2 <__rc0>
    2177: a5 1d        	lda	$1d                     ; 0x1d <__zp_bss_size>
    2179: 88           	dey
    217a: 91 02        	sta	($2),y                  ; 0x2 <__rc0>
    217c: a5 1e        	lda	$1e                     ; 0x1e <__rc28>
    217e: 88           	dey
    217f: 91 02        	sta	($2),y                  ; 0x2 <__rc0>
    2181: a5 1f        	lda	$1f                     ; 0x1f <__rc29>
    2183: 88           	dey
    2184: 91 02        	sta	($2),y                  ; 0x2 <__rc0>
    2186: a5 20        	lda	$20                     ; 0x20 <__rc30>
    2188: 88           	dey
    2189: 91 02        	sta	($2),y                  ; 0x2 <__rc0>
    218b: a5 21        	lda	$21                     ; 0x21 <__rc31>
    218d: 88           	dey
    218e: 91 02        	sta	($2),y                  ; 0x2 <__rc0>
    2190: 86 32        	stx	$32                     ; 0x32 <g_curScreenH>
    2192: 80 03        	bra	$2197 <main+0x81>
    2194: 9c 10 d6     	stz	$d610                   ; 0xd610 <__heap_start+0x5678>
    2197: ae 10 d6     	ldx	$d610                   ; 0xd610 <__heap_start+0x5678>
    219a: d0 f8        	bne	$2194 <main+0x7e>
    219c: a2 9a        	ldx	#$9a
    219e: 86 04        	stx	$4                      ; 0x4 <__rc2>
    21a0: a2 7c        	ldx	#$7c
    21a2: 86 05        	stx	$5                      ; 0x5 <__rc3>
    21a4: a2 ff        	ldx	#$ff
    21a6: a0 01        	ldy	#$1
    21a8: 4c db 21     	jmp	$21db <main+0xc5>
    21ab: a5 04        	lda	$4                      ; 0x4 <__rc2>
    21ad: 18           	clc
    21ae: 69 03        	adc	#$3
    21b0: 85 08        	sta	$8                      ; 0x8 <__rc6>
    21b2: a5 05        	lda	$5                      ; 0x5 <__rc3>
    21b4: 69 00        	adc	#$0
    21b6: 85 09        	sta	$9                      ; 0x9 <__rc7>
    21b8: a5 04        	lda	$4                      ; 0x4 <__rc2>
    21ba: 85 06        	sta	$6                      ; 0x6 <__rc4>
    21bc: a5 05        	lda	$5                      ; 0x5 <__rc3>
    21be: 85 07        	sta	$7                      ; 0x7 <__rc5>
    21c0: a9 3f        	lda	#$3f
    21c2: 91 04        	sta	($4),y                  ; 0x4 <__rc2>
    21c4: a9 00        	lda	#$0
    21c6: 92 04        	sta	($4),z                  ; 0x4 <__rc2>
    21c8: a5 08        	lda	$8                      ; 0x8 <__rc6>
    21ca: 85 04        	sta	$4                      ; 0x4 <__rc2>
    21cc: a5 09        	lda	$9                      ; 0x9 <__rc7>
    21ce: 85 05        	sta	$5                      ; 0x5 <__rc3>
    21d0: e6 06        	inc	$6                      ; 0x6 <__rc4>
    21d2: d0 02        	bne	$21d6 <main+0xc0>
    21d4: e6 07        	inc	$7                      ; 0x7 <__rc5>
    21d6: a9 67        	lda	#$67
    21d8: 91 06        	sta	($6),y                  ; 0x6 <__rc4>
    21da: ca           	dex
    21db: 8a           	txa
    21dc: f0 03        	beq	$21e1 <main+0xcb>
    21de: 4c ab 21     	jmp	$21ab <main+0x95>
    21e1: a9 f0        	lda	#$f0
    21e3: 25 2b        	and	$2b                     ; 0x2b <g_curTextColor>
    21e5: 09 03        	ora	#$3
    21e7: 85 2b        	sta	$2b                     ; 0x2b <g_curTextColor>
    21e9: 9c 20 d0     	stz	$d020                   ; 0xd020 <__heap_start+0x5088>
    21ec: a2 06        	ldx	#$6
    21ee: 8e 21 d0     	stx	$d021                   ; 0xd021 <__heap_start+0x5089>
    21f1: ad 31 d0     	lda	$d031                   ; 0xd031 <__heap_start+0x5099>
    21f4: 09 80        	ora	#$80
    21f6: 8d 31 d0     	sta	$d031                   ; 0xd031 <__heap_start+0x5099>
    21f9: a2 50        	ldx	#$50
    21fb: 8e 4c d0     	stx	$d04c                   ; 0xd04c <__heap_start+0x50b4>
    21fe: ad 31 d0     	lda	$d031                   ; 0xd031 <__heap_start+0x5099>
    2201: 29 f7        	and	#$f7
    2203: 8d 31 d0     	sta	$d031                   ; 0xd031 <__heap_start+0x5099>
    2206: 86 31        	stx	$31                     ; 0x31 <g_curScreenW>
    2208: a2 19        	ldx	#$19
    220a: 86 32        	stx	$32                     ; 0x32 <g_curScreenH>
    220c: 20 7b 56     	jsr	$567b <clrhome>
    220f: a2 16        	ldx	#$16
    2211: a0 a1        	ldy	#$a1
    2213: 84 04        	sty	$4                      ; 0x4 <__rc2>
    2215: a0 70        	ldy	#$70
    2217: 84 05        	sty	$5                      ; 0x5 <__rc3>
    2219: a9 00        	lda	#$0
    221b: 20 e7 56     	jsr	$56e7 <mcputsxy>
    221e: a2 c5        	ldx	#$c5
    2220: 86 04        	stx	$4                      ; 0x4 <__rc2>
    2222: a2 78        	ldx	#$78
    2224: 86 05        	stx	$5                      ; 0x5 <__rc3>
    2226: 20 d9 56     	jsr	$56d9 <msprintf>
    2229: a2 17        	ldx	#$17
    222b: a0 58        	ldy	#$58
    222d: 84 04        	sty	$4                      ; 0x4 <__rc2>
    222f: a0 76        	ldy	#$76
    2231: 84 05        	sty	$5                      ; 0x5 <__rc3>
    2233: a9 00        	lda	#$0
    2235: 20 e7 56     	jsr	$56e7 <mcputsxy>
    2238: a9 14        	lda	#$14
    223a: a2 00        	ldx	#$0
    223c: 20 e0 5a     	jsr	$5ae0 <shortcuts>
    223f: a9 01        	lda	#$1
    2241: a2 d6        	ldx	#$d6
    2243: 86 04        	stx	$4                      ; 0x4 <__rc2>
    2245: a2 79        	ldx	#$79
    2247: 86 05        	stx	$5                      ; 0x5 <__rc3>
    2249: a2 1f        	ldx	#$1f
    224b: 86 06        	stx	$6                      ; 0x6 <__rc4>
    224d: a2 79        	ldx	#$79
    224f: 86 07        	stx	$7                      ; 0x7 <__rc5>
    2251: a2 f1        	ldx	#$f1
    2253: 86 08        	stx	$8                      ; 0x8 <__rc6>
    2255: a2 73        	ldx	#$73
    2257: 86 09        	stx	$9                      ; 0x9 <__rc7>
    2259: 64 0a        	stz	$a                      ; 0xa <__zp_data_size>
    225b: 64 0b        	stz	$b                      ; 0xb <__rc9>
    225d: 64 0c        	stz	$c                      ; 0xc <__rc10>
    225f: a2 00        	ldx	#$0
    2261: 20 88 58     	jsr	$5888 <messagebox>
    2264: aa           	tax
    2265: d0 03        	bne	$226a <main+0x154>
    2267: 4c 63 46     	jmp	$4663 <donehypchdir6+0x1e>
    226a: a2 06        	ldx	#$6
    226c: 86 30        	stx	$30                     ; 0x30 <option.0>
    226e: a2 28        	ldx	#$28
    2270: 8a           	txa
    2271: a0 23        	ldy	#$23
    2273: 91 02        	sta	($2),y                  ; 0x2 <__rc0>
    2275: a0 00        	ldy	#$0
    2277: 64 19        	stz	$19                     ; 0x19 <__rc23>
    2279: 4c f4 22     	jmp	$22f4 <main+0x1de>
    227c: a6 19        	ldx	$19                     ; 0x19 <__rc23>
    227e: 84 18        	sty	$18                     ; 0x18 <__rc22>
    2280: b4 27        	ldy	$27,x                   ; 0x27 <midnight>
    2282: b5 28        	lda	$28,x                   ; 0x28 <midnight+0x1>
    2284: aa           	tax
    2285: 84 16        	sty	$16                     ; 0x16 <__rc20>
    2287: 86 17        	stx	$17                     ; 0x17 <__rc21>
    2289: a5 18        	lda	$18                     ; 0x18 <__rc22>
    228b: 92 16        	sta	($16),z                 ; 0x16 <__rc20>
    228d: 18           	clc
    228e: 98           	tya
    228f: 69 03        	adc	#$3
    2291: 85 04        	sta	$4                      ; 0x4 <__rc2>
    2293: 8a           	txa
    2294: 69 00        	adc	#$0
    2296: 85 05        	sta	$5                      ; 0x5 <__rc3>
    2298: a2 d5        	ldx	#$d5
    229a: 86 06        	stx	$6                      ; 0x6 <__rc4>
    229c: a2 73        	ldx	#$73
    229e: 86 07        	stx	$7                      ; 0x7 <__rc5>
    22a0: a2 00        	ldx	#$0
    22a2: a9 10        	lda	#$10
    22a4: 20 d5 6d     	jsr	$6dd5 <memcpy>
    22a7: a9 28        	lda	#$28
    22a9: a0 47        	ldy	#$47
    22ab: 91 16        	sta	($16),y                 ; 0x16 <__rc20>
    22ad: a0 01        	ldy	#$1
    22af: a9 00        	lda	#$0
    22b1: 91 16        	sta	($16),y                 ; 0x16 <__rc20>
    22b3: 98           	tya
    22b4: a0 46        	ldy	#$46
    22b6: 11 16        	ora	($16),y                 ; 0x16 <__rc20>
    22b8: 91 16        	sta	($16),y                 ; 0x16 <__rc20>
    22ba: a2 49        	ldx	#$49
    22bc: 86 04        	stx	$4                      ; 0x4 <__rc2>
    22be: a2 73        	ldx	#$73
    22c0: 86 05        	stx	$5                      ; 0x5 <__rc3>
    22c2: a2 22        	ldx	#$22
    22c4: 86 06        	stx	$6                      ; 0x6 <__rc4>
    22c6: a2 72        	ldx	#$72
    22c8: 86 07        	stx	$7                      ; 0x7 <__rc5>
    22ca: a0 23        	ldy	#$23
    22cc: b1 02        	lda	($2),y                  ; 0x2 <__rc0>
    22ce: 85 1a        	sta	$1a                     ; 0x1a <__rc24>
    22d0: 20 df 59     	jsr	$59df <progress>
    22d3: b2 16        	lda	($16),z                 ; 0x16 <__rc20>
    22d5: a6 18        	ldx	$18                     ; 0x18 <__rc22>
    22d7: 20 07 5f     	jsr	$5f07 <UpdateSectors>
    22da: a5 18        	lda	$18                     ; 0x18 <__rc22>
    22dc: 20 6c 65     	jsr	$656c <Deselect>
    22df: a5 19        	lda	$19                     ; 0x19 <__rc23>
    22e1: a4 18        	ldy	$18                     ; 0x18 <__rc22>
    22e3: 18           	clc
    22e4: 69 02        	adc	#$2
    22e6: 85 19        	sta	$19                     ; 0x19 <__rc23>
    22e8: c8           	iny
    22e9: 18           	clc
    22ea: a5 1a        	lda	$1a                     ; 0x1a <__rc24>
    22ec: 69 28        	adc	#$28
    22ee: 5a           	phy
    22ef: a0 23        	ldy	#$23
    22f1: 91 02        	sta	($2),y                  ; 0x2 <__rc0>
    22f3: 7a           	ply
    22f4: c0 02        	cpy	#$2
    22f6: f0 03        	beq	$22fb <main+0x1e5>
    22f8: 4c 7c 22     	jmp	$227c <main+0x166>
    22fb: 64 04        	stz	$4                      ; 0x4 <__rc2>
    22fd: a9 00        	lda	#$0
    22ff: a0 18        	ldy	#$18
    2301: 91 02        	sta	($2),y                  ; 0x2 <__rc0>
    2303: 9c 80 d0     	stz	$d080                   ; 0xd080 <__heap_start+0x50e8>
    2306: 64 2e        	stz	$2e                     ; 0x2e <lasttrack>
    2308: a2 58        	ldx	#$58
    230a: 86 18        	stx	$18                     ; 0x18 <__rc22>
    230c: a2 7b        	ldx	#$7b
    230e: 86 19        	stx	$19                     ; 0x19 <__rc23>
    2310: a9 00        	lda	#$0
    2312: 64 04        	stz	$4                      ; 0x4 <__rc2>
    2314: 48           	pha
    2315: a9 00        	lda	#$0
    2317: a0 23        	ldy	#$23
    2319: 91 02        	sta	($2),y                  ; 0x2 <__rc0>
    231b: a0 21        	ldy	#$21
    231d: 91 02        	sta	($2),y                  ; 0x2 <__rc0>
    231f: 68           	pla
    2320: 64 20        	stz	$20                     ; 0x20 <__rc30>
    2322: 64 17        	stz	$17                     ; 0x17 <__rc21>
    2324: a6 17        	ldx	$17                     ; 0x17 <__rc21>
    2326: d0 09        	bne	$2331 <main+0x21b>
    2328: a6 20        	ldx	$20                     ; 0x20 <__rc30>
    232a: e0 02        	cpx	#$2
    232c: d0 03        	bne	$2331 <main+0x21b>
    232e: 4c 0c 2c     	jmp	$2c0c <main+0xaf6>
    2331: 85 16        	sta	$16                     ; 0x16 <__rc20>
    2333: a0 21        	ldy	#$21
    2335: b1 02        	lda	($2),y                  ; 0x2 <__rc0>
    2337: aa           	tax
    2338: b4 27        	ldy	$27,x                   ; 0x27 <midnight>
    233a: b5 28        	lda	$28,x                   ; 0x28 <midnight+0x1>
    233c: aa           	tax
    233d: 84 1b        	sty	$1b                     ; 0x1b <__rc25>
    233f: 84 1c        	sty	$1c                     ; 0x1c <__rc26>
    2341: 86 1a        	stx	$1a                     ; 0x1a <__rc24>
    2343: 86 1d        	stx	$1d                     ; 0x1d <__zp_bss_size>
    2345: a0 02        	ldy	#$2
    2347: b1 1c        	lda	($1c),y                 ; 0x1c <__rc26>
    2349: 88           	dey
    234a: d1 1c        	cmp	($1c),y                 ; 0x1c <__rc26>
    234c: b0 02        	bcs	$2350 <main+0x23a>
    234e: 91 1c        	sta	($1c),y                 ; 0x1c <__rc26>
    2350: a5 20        	lda	$20                     ; 0x20 <__rc30>
    2352: 0a           	asl
    2353: 0a           	asl
    2354: 0a           	asl
    2355: 85 04        	sta	$4                      ; 0x4 <__rc2>
    2357: 0a           	asl
    2358: 0a           	asl
    2359: 18           	clc
    235a: 65 04        	adc	$4                      ; 0x4 <__rc2>
    235c: 85 1f        	sta	$1f                     ; 0x1f <__rc29>
    235e: 18           	clc
    235f: 69 27        	adc	#$27
    2361: 85 04        	sta	$4                      ; 0x4 <__rc2>
    2363: a2 17        	ldx	#$17
    2365: 86 05        	stx	$5                      ; 0x5 <__rc3>
    2367: 64 06        	stz	$6                      ; 0x6 <__rc4>
    2369: a2 00        	ldx	#$0
    236b: a5 1f        	lda	$1f                     ; 0x1f <__rc29>
    236d: 20 fd 56     	jsr	$56fd <mcbox>
    2370: a9 20        	lda	#$20
    2372: 05 2b        	ora	$2b                     ; 0x2b <g_curTextColor>
    2374: 85 2b        	sta	$2b                     ; 0x2b <g_curTextColor>
    2376: a6 1f        	ldx	$1f                     ; 0x1f <__rc29>
    2378: 86 1e        	stx	$1e                     ; 0x1e <__rc28>
    237a: a5 1f        	lda	$1f                     ; 0x1f <__rc29>
    237c: 09 02        	ora	#$2
    237e: a2 fd        	ldx	#$fd
    2380: 86 04        	stx	$4                      ; 0x4 <__rc2>
    2382: a2 70        	ldx	#$70
    2384: 86 05        	stx	$5                      ; 0x5 <__rc3>
    2386: a2 00        	ldx	#$0
    2388: 85 1f        	sta	$1f                     ; 0x1f <__rc29>
    238a: 20 e7 56     	jsr	$56e7 <mcputsxy>
    238d: a0 23        	ldy	#$23
    238f: b1 02        	lda	($2),y                  ; 0x2 <__rc0>
    2391: 85 04        	sta	$4                      ; 0x4 <__rc2>
    2393: a9 38        	lda	#$38
    2395: 18           	clc
    2396: 65 04        	adc	$4                      ; 0x4 <__rc2>
    2398: 85 04        	sta	$4                      ; 0x4 <__rc2>
    239a: a9 7c        	lda	#$7c
    239c: 69 00        	adc	#$0
    239e: 85 05        	sta	$5                      ; 0x5 <__rc3>
    23a0: 20 d9 56     	jsr	$56d9 <msprintf>
    23a3: a9 20        	lda	#$20
    23a5: 20 40 67     	jsr	$6740 <cputc>
    23a8: a9 01        	lda	#$1
    23aa: a0 46        	ldy	#$46
    23ac: 31 1c        	and	($1c),y                 ; 0x1c <__rc26>
    23ae: f0 25        	beq	$23d5 <main+0x2bf>
    23b0: a5 33        	lda	$33                     ; 0x33 <g_curX>
    23b2: 1a           	inc
    23b3: a2 fd        	ldx	#$fd
    23b5: 86 04        	stx	$4                      ; 0x4 <__rc2>
    23b7: a2 70        	ldx	#$70
    23b9: 86 05        	stx	$5                      ; 0x5 <__rc3>
    23bb: a2 00        	ldx	#$0
    23bd: 20 e7 56     	jsr	$56e7 <mcputsxy>
    23c0: a5 1b        	lda	$1b                     ; 0x1b <__rc25>
    23c2: 18           	clc
    23c3: 69 03        	adc	#$3
    23c5: 85 04        	sta	$4                      ; 0x4 <__rc2>
    23c7: a5 1a        	lda	$1a                     ; 0x1a <__rc24>
    23c9: 69 00        	adc	#$0
    23cb: 85 05        	sta	$5                      ; 0x5 <__rc3>
    23cd: 20 d9 56     	jsr	$56d9 <msprintf>
    23d0: a9 20        	lda	#$20
    23d2: 20 40 67     	jsr	$6740 <cputc>
    23d5: a2 8d        	ldx	#$8d
    23d7: 86 04        	stx	$4                      ; 0x4 <__rc2>
    23d9: a2 75        	ldx	#$75
    23db: 86 05        	stx	$5                      ; 0x5 <__rc3>
    23dd: a2 17        	ldx	#$17
    23df: a5 1f        	lda	$1f                     ; 0x1f <__rc29>
    23e1: 20 e7 56     	jsr	$56e7 <mcputsxy>
    23e4: b2 1c        	lda	($1c),z                 ; 0x1c <__rc26>
    23e6: 64 04        	stz	$4                      ; 0x4 <__rc2>
    23e8: 64 05        	stz	$5                      ; 0x5 <__rc3>
    23ea: 64 06        	stz	$6                      ; 0x6 <__rc4>
    23ec: a2 00        	ldx	#$0
    23ee: 20 64 55     	jsr	$5564 <csputdec>
    23f1: a0 02        	ldy	#$2
    23f3: b1 1c        	lda	($1c),y                 ; 0x1c <__rc26>
    23f5: c9 ff        	cmp	#$ff
    23f7: d0 03        	bne	$23fc <main+0x2e6>
    23f9: 4c 33 24     	jmp	$2433 <main+0x31d>
    23fc: a9 20        	lda	#$20
    23fe: 20 40 67     	jsr	$6740 <cputc>
    2401: 18           	clc
    2402: a5 1b        	lda	$1b                     ; 0x1b <__rc25>
    2404: 69 44        	adc	#$44
    2406: aa           	tax
    2407: a5 1a        	lda	$1a                     ; 0x1a <__rc24>
    2409: 69 00        	adc	#$0
    240b: 86 1f        	stx	$1f                     ; 0x1f <__rc29>
    240d: 86 04        	stx	$4                      ; 0x4 <__rc2>
    240f: 85 21        	sta	$21                     ; 0x21 <__rc31>
    2411: 85 05        	sta	$5                      ; 0x5 <__rc3>
    2413: a0 44        	ldy	#$44
    2415: b1 1c        	lda	($1c),y                 ; 0x1c <__rc26>
    2417: aa           	tax
    2418: a0 01        	ldy	#$1
    241a: b1 04        	lda	($4),y                  ; 0x4 <__rc2>
    241c: c9 ff        	cmp	#$ff
    241e: d0 2a        	bne	$244a <main+0x334>
    2420: 5a           	phy
    2421: a0 00        	ldy	#$0
    2423: 84 06        	sty	$6                      ; 0x6 <__rc4>
    2425: a0 00        	ldy	#$0
    2427: 84 07        	sty	$7                      ; 0x7 <__rc5>
    2429: 7a           	ply
    242a: 86 04        	stx	$4                      ; 0x4 <__rc2>
    242c: e0 ff        	cpx	#$ff
    242e: d0 24        	bne	$2454 <main+0x33e>
    2430: 4c fa 24     	jmp	$24fa <main+0x3e4>
    2433: 18           	clc
    2434: a5 1e        	lda	$1e                     ; 0x1e <__rc28>
    2436: 69 11        	adc	#$11
    2438: a2 99        	ldx	#$99
    243a: 86 04        	stx	$4                      ; 0x4 <__rc2>
    243c: a2 70        	ldx	#$70
    243e: 86 05        	stx	$5                      ; 0x5 <__rc3>
    2440: a2 03        	ldx	#$3
    2442: 20 e7 56     	jsr	$56e7 <mcputsxy>
    2445: a4 16        	ldy	$16                     ; 0x16 <__rc20>
    2447: 4c c1 27     	jmp	$27c1 <main+0x6ab>
    244a: 86 04        	stx	$4                      ; 0x4 <__rc2>
    244c: a2 00        	ldx	#$0
    244e: 86 06        	stx	$6                      ; 0x6 <__rc4>
    2450: a2 00        	ldx	#$0
    2452: 86 07        	stx	$7                      ; 0x7 <__rc5>
    2454: aa           	tax
    2455: e0 ff        	cpx	#$ff
    2457: f0 03        	beq	$245c <main+0x346>
    2459: 4c ad 24     	jmp	$24ad <main+0x397>
    245c: a6 04        	ldx	$4                      ; 0x4 <__rc2>
    245e: e0 fe        	cpx	#$fe
    2460: f0 03        	beq	$2465 <main+0x34f>
    2462: 4c ad 24     	jmp	$24ad <main+0x397>
    2465: a2 00        	ldx	#$0
    2467: 86 1a        	stx	$1a                     ; 0x1a <__rc24>
    2469: a2 00        	ldx	#$0
    246b: 86 1b        	stx	$1b                     ; 0x1b <__rc25>
    246d: a9 e0        	lda	#$e0
    246f: 25 2b        	and	$2b                     ; 0x2b <g_curTextColor>
    2471: 09 18        	ora	#$18
    2473: 85 2b        	sta	$2b                     ; 0x2b <g_curTextColor>
    2475: a5 1e        	lda	$1e                     ; 0x1e <__rc28>
    2477: 18           	clc
    2478: 69 0c        	adc	#$c
    247a: a2 b1        	ldx	#$b1
    247c: 86 04        	stx	$4                      ; 0x4 <__rc2>
    247e: a2 74        	ldx	#$74
    2480: 86 05        	stx	$5                      ; 0x5 <__rc3>
    2482: a2 17        	ldx	#$17
    2484: 20 e7 56     	jsr	$56e7 <mcputsxy>
    2487: a9 ef        	lda	#$ef
    2489: 25 2b        	and	$2b                     ; 0x2b <g_curTextColor>
    248b: 85 2b        	sta	$2b                     ; 0x2b <g_curTextColor>
    248d: 20 f9 66     	jsr	$66f9 <sidbong>
    2490: a6 1f        	ldx	$1f                     ; 0x1f <__rc29>
    2492: 86 04        	stx	$4                      ; 0x4 <__rc2>
    2494: a6 21        	ldx	$21                     ; 0x21 <__rc31>
    2496: 86 05        	stx	$5                      ; 0x5 <__rc3>
    2498: a9 ff        	lda	#$ff
    249a: a0 44        	ldy	#$44
    249c: 91 1c        	sta	($1c),y                 ; 0x1c <__rc26>
    249e: a0 01        	ldy	#$1
    24a0: 91 04        	sta	($4),y                  ; 0x4 <__rc2>
    24a2: a2 00        	ldx	#$0
    24a4: 86 06        	stx	$6                      ; 0x6 <__rc4>
    24a6: a2 00        	ldx	#$0
    24a8: 86 07        	stx	$7                      ; 0x7 <__rc5>
    24aa: 4c fa 24     	jmp	$24fa <main+0x3e4>
    24ad: a5 1e        	lda	$1e                     ; 0x1e <__rc28>
    24af: 18           	clc
    24b0: 69 0c        	adc	#$c
    24b2: a2 fd        	ldx	#$fd
    24b4: 86 04        	stx	$4                      ; 0x4 <__rc2>
    24b6: a2 70        	ldx	#$70
    24b8: 86 05        	stx	$5                      ; 0x5 <__rc3>
    24ba: a2 17        	ldx	#$17
    24bc: a0 00        	ldy	#$0
    24be: 84 1a        	sty	$1a                     ; 0x1a <__rc24>
    24c0: a0 00        	ldy	#$0
    24c2: 84 1b        	sty	$1b                     ; 0x1b <__rc25>
    24c4: 20 e7 56     	jsr	$56e7 <mcputsxy>
    24c7: a6 1f        	ldx	$1f                     ; 0x1f <__rc29>
    24c9: 86 04        	stx	$4                      ; 0x4 <__rc2>
    24cb: a6 21        	ldx	$21                     ; 0x21 <__rc31>
    24cd: 86 05        	stx	$5                      ; 0x5 <__rc3>
    24cf: a0 44        	ldy	#$44
    24d1: b1 1c        	lda	($1c),y                 ; 0x1c <__rc26>
    24d3: 85 07        	sta	$7                      ; 0x7 <__rc5>
    24d5: a0 01        	ldy	#$1
    24d7: b1 04        	lda	($4),y                  ; 0x4 <__rc2>
    24d9: 64 04        	stz	$4                      ; 0x4 <__rc2>
    24db: 64 05        	stz	$5                      ; 0x5 <__rc3>
    24dd: 64 06        	stz	$6                      ; 0x6 <__rc4>
    24df: aa           	tax
    24e0: a5 07        	lda	$7                      ; 0x7 <__rc5>
    24e2: 20 64 55     	jsr	$5564 <csputdec>
    24e5: a2 25        	ldx	#$25
    24e7: 86 04        	stx	$4                      ; 0x4 <__rc2>
    24e9: a2 76        	ldx	#$76
    24eb: 86 05        	stx	$5                      ; 0x5 <__rc3>
    24ed: 20 d9 56     	jsr	$56d9 <msprintf>
    24f0: a2 00        	ldx	#$0
    24f2: 86 06        	stx	$6                      ; 0x6 <__rc4>
    24f4: a2 00        	ldx	#$0
    24f6: 86 07        	stx	$7                      ; 0x7 <__rc5>
    24f8: a0 01        	ldy	#$1
    24fa: a9 df        	lda	#$df
    24fc: 25 2b        	and	$2b                     ; 0x2b <g_curTextColor>
    24fe: 85 0a        	sta	$a                      ; 0xa <__zp_data_size>
    2500: 85 2b        	sta	$2b                     ; 0x2b <g_curTextColor>
    2502: b1 1c        	lda	($1c),y                 ; 0x1c <__rc26>
    2504: a0 1d        	ldy	#$1d
    2506: 91 02        	sta	($2),y                  ; 0x2 <__rc0>
    2508: aa           	tax
    2509: a0 02        	ldy	#$2
    250b: b1 1c        	lda	($1c),y                 ; 0x1c <__rc26>
    250d: a0 1b        	ldy	#$1b
    250f: 91 02        	sta	($2),y                  ; 0x2 <__rc0>
    2511: e0 15        	cpx	#$15
    2513: 64 1a        	stz	$1a                     ; 0x1a <__rc24>
    2515: 64 1b        	stz	$1b                     ; 0x1b <__rc25>
    2517: a9 00        	lda	#$0
    2519: 90 0a        	bcc	$2525 <main+0x40f>
    251b: 18           	clc
    251c: 8a           	txa
    251d: 69 eb        	adc	#$eb
    251f: 85 1b        	sta	$1b                     ; 0x1b <__rc25>
    2521: a9 00        	lda	#$0
    2523: 69 ff        	adc	#$ff
    2525: aa           	tax
    2526: a5 1b        	lda	$1b                     ; 0x1b <__rc25>
    2528: 18           	clc
    2529: 65 18        	adc	$18                     ; 0x18 <__rc22>
    252b: 85 08        	sta	$8                      ; 0x8 <__rc6>
    252d: 8a           	txa
    252e: a0 1f        	ldy	#$1f
    2530: 91 02        	sta	($2),y                  ; 0x2 <__rc0>
    2532: 65 19        	adc	$19                     ; 0x19 <__rc23>
    2534: 85 09        	sta	$9                      ; 0x9 <__rc7>
    2536: a5 08        	lda	$8                      ; 0x8 <__rc6>
    2538: a0 19        	ldy	#$19
    253a: 91 02        	sta	($2),y                  ; 0x2 <__rc0>
    253c: a5 09        	lda	$9                      ; 0x9 <__rc7>
    253e: c8           	iny
    253f: 91 02        	sta	($2),y                  ; 0x2 <__rc0>
    2541: a5 1e        	lda	$1e                     ; 0x1e <__rc28>
    2543: 09 01        	ora	#$1
    2545: a0 1c        	ldy	#$1c
    2547: 91 02        	sta	($2),y                  ; 0x2 <__rc0>
    2549: a5 0a        	lda	$a                      ; 0xa <__zp_data_size>
    254b: a4 16        	ldy	$16                     ; 0x16 <__rc20>
    254d: a6 1a        	ldx	$1a                     ; 0x1a <__rc24>
    254f: e0 16        	cpx	#$16
    2551: d0 03        	bne	$2556 <main+0x440>
    2553: 4c bd 27     	jmp	$27bd <main+0x6a7>
    2556: 86 04        	stx	$4                      ; 0x4 <__rc2>
    2558: a5 1b        	lda	$1b                     ; 0x1b <__rc25>
    255a: 18           	clc
    255b: 65 04        	adc	$4                      ; 0x4 <__rc2>
    255d: a2 01        	ldx	#$1
    255f: b0 02        	bcs	$2563 <main+0x44d>
    2561: a2 00        	ldx	#$0
    2563: 86 1e        	stx	$1e                     ; 0x1e <__rc28>
    2565: 85 21        	sta	$21                     ; 0x21 <__rc31>
    2567: aa           	tax
    2568: a5 20        	lda	$20                     ; 0x20 <__rc30>
    256a: a4 06        	ldy	$6                      ; 0x6 <__rc4>
    256c: 84 1c        	sty	$1c                     ; 0x1c <__rc26>
    256e: a4 07        	ldy	$7                      ; 0x7 <__rc5>
    2570: 84 1d        	sty	$1d                     ; 0x1d <__zp_bss_size>
    2572: 20 6e 54     	jsr	$546e <getdirententry>
    2575: a6 1c        	ldx	$1c                     ; 0x1c <__rc26>
    2577: 86 06        	stx	$6                      ; 0x6 <__rc4>
    2579: a6 1d        	ldx	$1d                     ; 0x1d <__zp_bss_size>
    257b: 86 07        	stx	$7                      ; 0x7 <__rc5>
    257d: a6 04        	ldx	$4                      ; 0x4 <__rc2>
    257f: 86 18        	stx	$18                     ; 0x18 <__rc22>
    2581: a6 05        	ldx	$5                      ; 0x5 <__rc3>
    2583: 86 19        	stx	$19                     ; 0x19 <__rc23>
    2585: a6 19        	ldx	$19                     ; 0x19 <__rc23>
    2587: e4 07        	cpx	$7                      ; 0x7 <__rc5>
    2589: d0 11        	bne	$259c <main+0x486>
    258b: a6 18        	ldx	$18                     ; 0x18 <__rc22>
    258d: a4 16        	ldy	$16                     ; 0x16 <__rc20>
    258f: 5a           	phy
    2590: a0 1f        	ldy	#$1f
    2592: b1 02        	lda	($2),y                  ; 0x2 <__rc0>
    2594: 7a           	ply
    2595: e4 06        	cpx	$6                      ; 0x6 <__rc4>
    2597: d0 07        	bne	$25a0 <main+0x48a>
    2599: 4c bb 27     	jmp	$27bb <main+0x6a5>
    259c: a0 1f        	ldy	#$1f
    259e: b1 02        	lda	($2),y                  ; 0x2 <__rc0>
    25a0: a6 1e        	ldx	$1e                     ; 0x1e <__rc28>
    25a2: e0 01        	cpx	#$1
    25a4: 69 00        	adc	#$0
    25a6: 85 1e        	sta	$1e                     ; 0x1e <__rc28>
    25a8: a2 00        	ldx	#$0
    25aa: e4 1e        	cpx	$1e                     ; 0x1e <__rc28>
    25ac: d0 08        	bne	$25b6 <main+0x4a0>
    25ae: a0 1b        	ldy	#$1b
    25b0: b1 02        	lda	($2),y                  ; 0x2 <__rc0>
    25b2: c5 21        	cmp	$21                     ; 0x21 <__rc31>
    25b4: 80 02        	bra	$25b8 <main+0x4a2>
    25b6: e4 1e        	cpx	$1e                     ; 0x1e <__rc28>
    25b8: a4 16        	ldy	$16                     ; 0x16 <__rc20>
    25ba: b0 03        	bcs	$25bf <main+0x4a9>
    25bc: 4c bb 27     	jmp	$27bb <main+0x6a5>
    25bf: a5 1e        	lda	$1e                     ; 0x1e <__rc28>
    25c1: d0 0f        	bne	$25d2 <main+0x4bc>
    25c3: a0 1d        	ldy	#$1d
    25c5: b1 02        	lda	($2),y                  ; 0x2 <__rc0>
    25c7: 85 04        	sta	$4                      ; 0x4 <__rc2>
    25c9: a6 21        	ldx	$21                     ; 0x21 <__rc31>
    25cb: e4 04        	cpx	$4                      ; 0x4 <__rc2>
    25cd: d0 03        	bne	$25d2 <main+0x4bc>
    25cf: 4c f5 27     	jmp	$27f5 <main+0x6df>
    25d2: a9 01        	lda	#$1
    25d4: 29 01        	and	#$1
    25d6: a2 20        	ldx	#$20
    25d8: a8           	tay
    25d9: d0 02        	bne	$25dd <main+0x4c7>
    25db: a2 3e        	ldx	#$3e
    25dd: 8e 08 7b     	stx	$7b08                   ; 0x7b08 <s>
    25e0: a2 20        	ldx	#$20
    25e2: 8e 09 7b     	stx	$7b09                   ; 0x7b09 <s+0x1>
    25e5: a0 00        	ldy	#$0
    25e7: 80 04        	bra	$25ed <main+0x4d7>
    25e9: 99 0a 7b     	sta	$7b0a,y                 ; 0x7b0a <s+0x2>
    25ec: c8           	iny
    25ed: 84 06        	sty	$6                      ; 0x6 <__rc4>
    25ef: 98           	tya
    25f0: 18           	clc
    25f1: 65 18        	adc	$18                     ; 0x18 <__rc22>
    25f3: 85 04        	sta	$4                      ; 0x4 <__rc2>
    25f5: a5 19        	lda	$19                     ; 0x19 <__rc23>
    25f7: 69 00        	adc	#$0
    25f9: 85 05        	sta	$5                      ; 0x5 <__rc3>
    25fb: a0 05        	ldy	#$5
    25fd: b1 04        	lda	($4),y                  ; 0x4 <__rc2>
    25ff: c9 a0        	cmp	#$a0
    2601: f0 0f        	beq	$2612 <main+0x4fc>
    2603: aa           	tax
    2604: f0 0c        	beq	$2612 <main+0x4fc>
    2606: a4 06        	ldy	$6                      ; 0x6 <__rc4>
    2608: c0 10        	cpy	#$10
    260a: d0 dd        	bne	$25e9 <main+0x4d3>
    260c: a2 10        	ldx	#$10
    260e: a9 12        	lda	#$12
    2610: 80 07        	bra	$2619 <main+0x503>
    2612: 18           	clc
    2613: a6 06        	ldx	$6                      ; 0x6 <__rc4>
    2615: a5 06        	lda	$6                      ; 0x6 <__rc4>
    2617: 69 02        	adc	#$2
    2619: a8           	tay
    261a: 18           	clc
    261b: 69 10        	adc	#$10
    261d: 86 04        	stx	$4                      ; 0x4 <__rc2>
    261f: 38           	sec
    2620: e5 04        	sbc	$4                      ; 0x4 <__rc2>
    2622: 85 05        	sta	$5                      ; 0x5 <__rc3>
    2624: 18           	clc
    2625: 8a           	txa
    2626: 69 f0        	adc	#$f0
    2628: 85 04        	sta	$4                      ; 0x4 <__rc2>
    262a: 5a           	phy
    262b: fa           	plx
    262c: a5 05        	lda	$5                      ; 0x5 <__rc3>
    262e: 80 0c        	bra	$263c <main+0x526>
    2630: c8           	iny
    2631: a9 20        	lda	#$20
    2633: 9d 08 7b     	sta	$7b08,x                 ; 0x7b08 <s>
    2636: a5 05        	lda	$5                      ; 0x5 <__rc3>
    2638: e6 04        	inc	$4                      ; 0x4 <__rc2>
    263a: 5a           	phy
    263b: fa           	plx
    263c: e6 04        	inc	$4                      ; 0x4 <__rc2>
    263e: c6 04        	dec	$4                      ; 0x4 <__rc2>
    2640: d0 ee        	bne	$2630 <main+0x51a>
    2642: aa           	tax
    2643: e8           	inx
    2644: a8           	tay
    2645: 85 04        	sta	$4                      ; 0x4 <__rc2>
    2647: a9 20        	lda	#$20
    2649: 99 08 7b     	sta	$7b08,y                 ; 0x7b08 <s>
    264c: a5 04        	lda	$4                      ; 0x4 <__rc2>
    264e: 18           	clc
    264f: 69 02        	adc	#$2
    2651: a8           	tay
    2652: a9 5d        	lda	#$5d
    2654: 9d 08 7b     	sta	$7b08,x                 ; 0x7b08 <s>
    2657: a5 04        	lda	$4                      ; 0x4 <__rc2>
    2659: 18           	clc
    265a: 69 03        	adc	#$3
    265c: 85 06        	sta	$6                      ; 0x6 <__rc4>
    265e: a9 20        	lda	#$20
    2660: 99 08 7b     	sta	$7b08,y                 ; 0x7b08 <s>
    2663: a0 02        	ldy	#$2
    2665: b1 18        	lda	($18),y                 ; 0x18 <__rc22>
    2667: aa           	tax
    2668: 29 40        	and	#$40
    266a: d0 2b        	bne	$2697 <main+0x581>
    266c: 8a           	txa
    266d: 29 0f        	and	#$f
    266f: 85 07        	sta	$7                      ; 0x7 <__rc5>
    2671: a5 04        	lda	$4                      ; 0x4 <__rc2>
    2673: 18           	clc
    2674: 69 04        	adc	#$4
    2676: a8           	tay
    2677: a5 04        	lda	$4                      ; 0x4 <__rc2>
    2679: 18           	clc
    267a: 69 05        	adc	#$5
    267c: 85 04        	sta	$4                      ; 0x4 <__rc2>
    267e: a2 00        	ldx	#$0
    2680: a9 ff        	lda	#$ff
    2682: c6 07        	dec	$7                      ; 0x7 <__rc5>
    2684: c5 07        	cmp	$7                      ; 0x7 <__rc5>
    2686: d0 03        	bne	$268b <main+0x575>
    2688: 4c fa 27     	jmp	$27fa <main+0x6e4>
    268b: a5 07        	lda	$7                      ; 0x7 <__rc5>
    268d: e0 00        	cpx	#$0
    268f: f0 03        	beq	$2694 <main+0x57e>
    2691: 4c 07 28     	jmp	$2807 <main+0x6f1>
    2694: 4c fe 27     	jmp	$27fe <main+0x6e8>
    2697: 8a           	txa
    2698: 29 bf        	and	#$bf
    269a: a8           	tay
    269b: a5 04        	lda	$4                      ; 0x4 <__rc2>
    269d: 18           	clc
    269e: 69 04        	adc	#$4
    26a0: 85 07        	sta	$7                      ; 0x7 <__rc5>
    26a2: a5 04        	lda	$4                      ; 0x4 <__rc2>
    26a4: 18           	clc
    26a5: 69 05        	adc	#$5
    26a7: aa           	tax
    26a8: c0 10        	cpy	#$10
    26aa: f0 03        	beq	$26af <main+0x599>
    26ac: 4c 23 28     	jmp	$2823 <main+0x70d>
    26af: 4c 10 28     	jmp	$2810 <main+0x6fa>
    26b2: a6 06        	ldx	$6                      ; 0x6 <__rc4>
    26b4: 9d 08 7b     	sta	$7b08,x                 ; 0x7b08 <s>
    26b7: a9 45        	lda	#$45
    26b9: 99 08 7b     	sta	$7b08,y                 ; 0x7b08 <s>
    26bc: a9 4c        	lda	#$4c
    26be: a6 04        	ldx	$4                      ; 0x4 <__rc2>
    26c0: 9d 08 7b     	sta	$7b08,x                 ; 0x7b08 <s>
    26c3: a5 05        	lda	$5                      ; 0x5 <__rc3>
    26c5: 18           	clc
    26c6: 69 06        	adc	#$6
    26c8: aa           	tax
    26c9: a5 05        	lda	$5                      ; 0x5 <__rc3>
    26cb: 18           	clc
    26cc: 69 07        	adc	#$7
    26ce: a8           	tay
    26cf: a9 20        	lda	#$20
    26d1: 9d 08 7b     	sta	$7b08,x                 ; 0x7b08 <s>
    26d4: a5 05        	lda	$5                      ; 0x5 <__rc3>
    26d6: 18           	clc
    26d7: 69 08        	adc	#$8
    26d9: aa           	tax
    26da: a9 5d        	lda	#$5d
    26dc: 99 08 7b     	sta	$7b08,y                 ; 0x7b08 <s>
    26df: 18           	clc
    26e0: a5 05        	lda	$5                      ; 0x5 <__rc3>
    26e2: 69 09        	adc	#$9
    26e4: a8           	tay
    26e5: a9 20        	lda	#$20
    26e7: 9d 08 7b     	sta	$7b08,x                 ; 0x7b08 <s>
    26ea: 5a           	phy
    26eb: fa           	plx
    26ec: 9e 08 7b     	stz	$7b08,x                 ; 0x7b08 <s>
    26ef: a2 07        	ldx	#$7
    26f1: 86 04        	stx	$4                      ; 0x4 <__rc2>
    26f3: a9 01        	lda	#$1
    26f5: a4 1a        	ldy	$1a                     ; 0x1a <__rc24>
    26f7: 48           	pha
    26f8: 5a           	phy
    26f9: a0 19        	ldy	#$19
    26fb: b1 02        	lda	($2),y                  ; 0x2 <__rc0>
    26fd: 85 06        	sta	$6                      ; 0x6 <__rc4>
    26ff: c8           	iny
    2700: b1 02        	lda	($2),y                  ; 0x2 <__rc0>
    2702: 7a           	ply
    2703: 85 07        	sta	$7                      ; 0x7 <__rc5>
    2705: 68           	pla
    2706: 31 06        	and	($6),y                  ; 0x6 <__rc4>
    2708: 29 01        	and	#$1
    270a: d0 0f        	bne	$271b <main+0x605>
    270c: a0 02        	ldy	#$2
    270e: b1 18        	lda	($18),y                 ; 0x18 <__rc22>
    2710: d0 03        	bne	$2715 <main+0x5ff>
    2712: 4c 41 28     	jmp	$2841 <main+0x72b>
    2715: a2 03        	ldx	#$3
    2717: 86 04        	stx	$4                      ; 0x4 <__rc2>
    2719: a4 1a        	ldy	$1a                     ; 0x1a <__rc24>
    271b: a9 f0        	lda	#$f0
    271d: 25 2b        	and	$2b                     ; 0x2b <g_curTextColor>
    271f: 05 04        	ora	$4                      ; 0x4 <__rc2>
    2721: a6 1e        	ldx	$1e                     ; 0x1e <__rc28>
    2723: d0 13        	bne	$2738 <main+0x622>
    2725: 48           	pha
    2726: 5a           	phy
    2727: a0 1d        	ldy	#$1d
    2729: b1 02        	lda	($2),y                  ; 0x2 <__rc0>
    272b: 7a           	ply
    272c: 85 04        	sta	$4                      ; 0x4 <__rc2>
    272e: 68           	pla
    272f: a6 21        	ldx	$21                     ; 0x21 <__rc31>
    2731: e4 04        	cpx	$4                      ; 0x4 <__rc2>
    2733: d0 03        	bne	$2738 <main+0x622>
    2735: 4c 32 28     	jmp	$2832 <main+0x71c>
    2738: 29 df        	and	#$df
    273a: 85 2b        	sta	$2b                     ; 0x2b <g_curTextColor>
    273c: c8           	iny
    273d: a2 08        	ldx	#$8
    273f: 86 04        	stx	$4                      ; 0x4 <__rc2>
    2741: a2 7b        	ldx	#$7b
    2743: 86 05        	stx	$5                      ; 0x5 <__rc3>
    2745: 84 1a        	sty	$1a                     ; 0x1a <__rc24>
    2747: 5a           	phy
    2748: fa           	plx
    2749: a0 1c        	ldy	#$1c
    274b: b1 02        	lda	($2),y                  ; 0x2 <__rc0>
    274d: 20 f1 67     	jsr	$67f1 <cputsxy>
    2750: a5 18        	lda	$18                     ; 0x18 <__rc22>
    2752: 18           	clc
    2753: 69 1e        	adc	#$1e
    2755: 85 04        	sta	$4                      ; 0x4 <__rc2>
    2757: a5 19        	lda	$19                     ; 0x19 <__rc23>
    2759: 69 00        	adc	#$0
    275b: 85 05        	sta	$5                      ; 0x5 <__rc3>
    275d: a0 1e        	ldy	#$1e
    275f: b1 18        	lda	($18),y                 ; 0x18 <__rc22>
    2761: 85 06        	sta	$6                      ; 0x6 <__rc4>
    2763: a0 01        	ldy	#$1
    2765: b1 04        	lda	($4),y                  ; 0x4 <__rc2>
    2767: d0 07        	bne	$2770 <main+0x65a>
    2769: a6 06        	ldx	$6                      ; 0x6 <__rc4>
    276b: d0 03        	bne	$2770 <main+0x65a>
    276d: 4c 5e 30     	jmp	$305e <donehypclosefile3+0x85>
    2770: a4 06        	ldy	$6                      ; 0x6 <__rc4>
    2772: 64 04        	stz	$4                      ; 0x4 <__rc2>
    2774: 64 05        	stz	$5                      ; 0x5 <__rc3>
    2776: a2 05        	ldx	#$5
    2778: 86 06        	stx	$6                      ; 0x6 <__rc4>
    277a: aa           	tax
    277b: 98           	tya
    277c: 20 64 55     	jsr	$5564 <csputdec>
    277f: a5 1e        	lda	$1e                     ; 0x1e <__rc28>
    2781: d0 0f        	bne	$2792 <main+0x67c>
    2783: a0 1d        	ldy	#$1d
    2785: b1 02        	lda	($2),y                  ; 0x2 <__rc0>
    2787: 85 04        	sta	$4                      ; 0x4 <__rc2>
    2789: a6 21        	ldx	$21                     ; 0x21 <__rc31>
    278b: e4 04        	cpx	$4                      ; 0x4 <__rc2>
    278d: d0 03        	bne	$2792 <main+0x67c>
    278f: 4c 3c 28     	jmp	$283c <main+0x726>
    2792: a9 01        	lda	#$1
    2794: 29 01        	and	#$1
    2796: 85 18        	sta	$18                     ; 0x18 <__rc22>
    2798: a9 20        	lda	#$20
    279a: 20 40 67     	jsr	$6740 <cputc>
    279d: a9 20        	lda	#$20
    279f: a6 18        	ldx	$18                     ; 0x18 <__rc22>
    27a1: d0 02        	bne	$27a5 <main+0x68f>
    27a3: a9 3c        	lda	#$3c
    27a5: 20 40 67     	jsr	$6740 <cputc>
    27a8: a9 f0        	lda	#$f0
    27aa: 25 2b        	and	$2b                     ; 0x2b <g_curTextColor>
    27ac: 09 03        	ora	#$3
    27ae: 85 2b        	sta	$2b                     ; 0x2b <g_curTextColor>
    27b0: a6 1c        	ldx	$1c                     ; 0x1c <__rc26>
    27b2: 86 06        	stx	$6                      ; 0x6 <__rc4>
    27b4: a6 1d        	ldx	$1d                     ; 0x1d <__zp_bss_size>
    27b6: 86 07        	stx	$7                      ; 0x7 <__rc5>
    27b8: 4c 4b 25     	jmp	$254b <main+0x435>
    27bb: a5 2b        	lda	$2b                     ; 0x2b <g_curTextColor>
    27bd: 29 df        	and	#$df
    27bf: 85 2b        	sta	$2b                     ; 0x2b <g_curTextColor>
    27c1: 18           	clc
    27c2: 5a           	phy
    27c3: a0 21        	ldy	#$21
    27c5: b1 02        	lda	($2),y                  ; 0x2 <__rc0>
    27c7: 69 02        	adc	#$2
    27c9: 91 02        	sta	($2),y                  ; 0x2 <__rc0>
    27cb: 18           	clc
    27cc: a0 23        	ldy	#$23
    27ce: b1 02        	lda	($2),y                  ; 0x2 <__rc0>
    27d0: 69 11        	adc	#$11
    27d2: 91 02        	sta	($2),y                  ; 0x2 <__rc0>
    27d4: 7a           	ply
    27d5: 84 04        	sty	$4                      ; 0x4 <__rc2>
    27d7: a9 c8        	lda	#$c8
    27d9: 18           	clc
    27da: 65 04        	adc	$4                      ; 0x4 <__rc2>
    27dc: 85 18        	sta	$18                     ; 0x18 <__rc22>
    27de: a9 7b        	lda	#$7b
    27e0: 69 00        	adc	#$0
    27e2: 85 19        	sta	$19                     ; 0x19 <__rc23>
    27e4: a5 16        	lda	$16                     ; 0x16 <__rc20>
    27e6: 18           	clc
    27e7: 69 70        	adc	#$70
    27e9: e6 20        	inc	$20                     ; 0x20 <__rc30>
    27eb: f0 03        	beq	$27f0 <main+0x6da>
    27ed: 4c 24 23     	jmp	$2324 <main+0x20e>
    27f0: e6 17        	inc	$17                     ; 0x17 <__rc21>
    27f2: 4c 24 23     	jmp	$2324 <main+0x20e>
    27f5: a9 00        	lda	#$0
    27f7: 4c d4 25     	jmp	$25d4 <main+0x4be>
    27fa: ca           	dex
    27fb: 4c 8b 26     	jmp	$268b <main+0x575>
    27fe: c9 05        	cmp	#$5
    2800: 90 09        	bcc	$280b <main+0x6f5>
    2802: a9 44        	lda	#$44
    2804: 4c b2 26     	jmp	$26b2 <main+0x59c>
    2807: e0 00        	cpx	#$0
    2809: b0 f7        	bcs	$2802 <main+0x6ec>
    280b: 0a           	asl
    280c: aa           	tax
    280d: 7c db 6f     	jmp	($6fdb,x)               ; 0x6fdb <__zp_data_load_start+0x4fc4>
    2810: a9 44        	lda	#$44
    2812: a4 06        	ldy	$6                      ; 0x6 <__rc4>
    2814: 99 08 7b     	sta	$7b08,y                 ; 0x7b08 <s>
    2817: a9 49        	lda	#$49
    2819: a4 07        	ldy	$7                      ; 0x7 <__rc5>
    281b: 99 08 7b     	sta	$7b08,y                 ; 0x7b08 <s>
    281e: a9 52        	lda	#$52
    2820: 4c c0 26     	jmp	$26c0 <main+0x5aa>
    2823: a9 20        	lda	#$20
    2825: a4 06        	ldy	$6                      ; 0x6 <__rc4>
    2827: 99 08 7b     	sta	$7b08,y                 ; 0x7b08 <s>
    282a: a4 07        	ldy	$7                      ; 0x7 <__rc5>
    282c: 99 08 7b     	sta	$7b08,y                 ; 0x7b08 <s>
    282f: 4c c0 26     	jmp	$26c0 <main+0x5aa>
    2832: a6 17        	ldx	$17                     ; 0x17 <__rc21>
    2834: f0 03        	beq	$2839 <main+0x723>
    2836: 4c 38 27     	jmp	$2738 <main+0x622>
    2839: 4c 6c 30     	jmp	$306c <donehypclosefile3+0x93>
    283c: a9 00        	lda	#$0
    283e: 4c 94 27     	jmp	$2794 <main+0x67e>
    2841: a2 0c        	ldx	#$c
    2843: 4c 17 27     	jmp	$2717 <main+0x601>
    2846: a6 1e        	ldx	$1e                     ; 0x1e <__rc28>
    2848: 86 05        	stx	$5                      ; 0x5 <__rc3>
    284a: a5 04        	lda	$4                      ; 0x4 <__rc2>
    284c: d0 03        	bne	$2851 <main+0x73b>
    284e: 4c 45 2a     	jmp	$2a45 <main+0x92f>
    2851: a6 04        	ldx	$4                      ; 0x4 <__rc2>
    2853: 86 1f        	stx	$1f                     ; 0x1f <__rc29>
    2855: a2 ff        	ldx	#$ff
    2857: c6 1e        	dec	$1e                     ; 0x1e <__rc28>
    2859: e4 1e        	cpx	$1e                     ; 0x1e <__rc28>
    285b: d0 02        	bne	$285f <main+0x749>
    285d: c6 1f        	dec	$1f                     ; 0x1f <__rc29>
    285f: a0 21        	ldy	#$21
    2861: b1 02        	lda	($2),y                  ; 0x2 <__rc0>
    2863: 38           	sec
    2864: e5 1a        	sbc	$1a                     ; 0x1a <__rc24>
    2866: 85 06        	sta	$6                      ; 0x6 <__rc4>
    2868: a0 23        	ldy	#$23
    286a: b1 02        	lda	($2),y                  ; 0x2 <__rc0>
    286c: e5 17        	sbc	$17                     ; 0x17 <__rc21>
    286e: 85 07        	sta	$7                      ; 0x7 <__rc5>
    2870: a9 58        	lda	#$58
    2872: 18           	clc
    2873: 65 06        	adc	$6                      ; 0x6 <__rc4>
    2875: aa           	tax
    2876: a9 7b        	lda	#$7b
    2878: 65 07        	adc	$7                      ; 0x7 <__rc5>
    287a: a8           	tay
    287b: 8a           	txa
    287c: 18           	clc
    287d: 65 05        	adc	$5                      ; 0x5 <__rc3>
    287f: aa           	tax
    2880: 98           	tya
    2881: 65 04        	adc	$4                      ; 0x4 <__rc2>
    2883: 86 04        	stx	$4                      ; 0x4 <__rc2>
    2885: 85 05        	sta	$5                      ; 0x5 <__rc3>
    2887: a2 ff        	ldx	#$ff
    2889: c6 04        	dec	$4                      ; 0x4 <__rc2>
    288b: e4 04        	cpx	$4                      ; 0x4 <__rc2>
    288d: d0 02        	bne	$2891 <main+0x77b>
    288f: c6 05        	dec	$5                      ; 0x5 <__rc3>
    2891: a9 01        	lda	#$1
    2893: 32 04        	and	($4),z                  ; 0x4 <__rc2>
    2895: a6 1f        	ldx	$1f                     ; 0x1f <__rc29>
    2897: 86 04        	stx	$4                      ; 0x4 <__rc2>
    2899: aa           	tax
    289a: d0 03        	bne	$289f <main+0x789>
    289c: 4c 46 28     	jmp	$2846 <main+0x730>
    289f: a6 1e        	ldx	$1e                     ; 0x1e <__rc28>
    28a1: a0 18        	ldy	#$18
    28a3: b1 02        	lda	($2),y                  ; 0x2 <__rc0>
    28a5: 85 16        	sta	$16                     ; 0x16 <__rc20>
    28a7: 20 6e 54     	jsr	$546e <getdirententry>
    28aa: a6 04        	ldx	$4                      ; 0x4 <__rc2>
    28ac: 86 18        	stx	$18                     ; 0x18 <__rc22>
    28ae: a6 05        	ldx	$5                      ; 0x5 <__rc3>
    28b0: 86 19        	stx	$19                     ; 0x19 <__rc23>
    28b2: a2 93        	ldx	#$93
    28b4: 86 04        	stx	$4                      ; 0x4 <__rc2>
    28b6: a2 79        	ldx	#$79
    28b8: 86 05        	stx	$5                      ; 0x5 <__rc3>
    28ba: a2 59        	ldx	#$59
    28bc: 86 06        	stx	$6                      ; 0x6 <__rc4>
    28be: a2 73        	ldx	#$73
    28c0: 86 07        	stx	$7                      ; 0x7 <__rc5>
    28c2: a9 14        	lda	#$14
    28c4: 20 df 59     	jsr	$59df <progress>
    28c7: a9 00        	lda	#$0
    28c9: a0 02        	ldy	#$2
    28cb: 64 1d        	stz	$1d                     ; 0x1d <__zp_bss_size>
    28cd: 91 18        	sta	($18),y                 ; 0x18 <__rc22>
    28cf: a5 16        	lda	$16                     ; 0x16 <__rc20>
    28d1: 20 f8 4c     	jsr	$4cf8 <GetBAM>
    28d4: a2 e0        	ldx	#$e0
    28d6: 86 04        	stx	$4                      ; 0x4 <__rc2>
    28d8: a2 77        	ldx	#$77
    28da: 86 05        	stx	$5                      ; 0x5 <__rc3>
    28dc: a2 43        	ldx	#$43
    28de: 86 06        	stx	$6                      ; 0x6 <__rc4>
    28e0: a2 76        	ldx	#$76
    28e2: 86 07        	stx	$7                      ; 0x7 <__rc5>
    28e4: a9 28        	lda	#$28
    28e6: 20 df 59     	jsr	$59df <progress>
    28e9: a0 1f        	ldy	#$1f
    28eb: b1 02        	lda	($2),y                  ; 0x2 <__rc0>
    28ed: 85 06        	sta	$6                      ; 0x6 <__rc4>
    28ef: c8           	iny
    28f0: b1 02        	lda	($2),y                  ; 0x2 <__rc0>
    28f2: 85 07        	sta	$7                      ; 0x7 <__rc5>
    28f4: b2 06        	lda	($6),z                  ; 0x6 <__rc4>
    28f6: 85 08        	sta	$8                      ; 0x8 <__rc6>
    28f8: a0 47        	ldy	#$47
    28fa: b1 06        	lda	($6),y                  ; 0x6 <__rc4>
    28fc: a2 03        	ldx	#$3
    28fe: 48           	pha
    28ff: 8a           	txa
    2900: a0 1b        	ldy	#$1b
    2902: 91 02        	sta	($2),y                  ; 0x2 <__rc0>
    2904: a2 08        	ldx	#$8
    2906: 8a           	txa
    2907: a0 1d        	ldy	#$1d
    2909: 91 02        	sta	($2),y                  ; 0x2 <__rc0>
    290b: 68           	pla
    290c: a0 00        	ldy	#$0
    290e: 5a           	phy
    290f: a0 14        	ldy	#$14
    2911: 91 02        	sta	($2),y                  ; 0x2 <__rc0>
    2913: a0 19        	ldy	#$19
    2915: 91 02        	sta	($2),y                  ; 0x2 <__rc0>
    2917: 7a           	ply
    2918: 64 1c        	stz	$1c                     ; 0x1c <__rc26>
    291a: 64 19        	stz	$19                     ; 0x19 <__rc23>
    291c: 64 20        	stz	$20                     ; 0x20 <__rc30>
    291e: a2 00        	ldx	#$0
    2920: 4c f4 29     	jmp	$29f4 <main+0x8de>
    2923: e4 1c        	cpx	$1c                     ; 0x1c <__rc26>
    2925: 90 03        	bcc	$292a <main+0x814>
    2927: 4c 0a 2a     	jmp	$2a0a <main+0x8f4>
    292a: a5 08        	lda	$8                      ; 0x8 <__rc6>
    292c: 5a           	phy
    292d: a0 1c        	ldy	#$1c
    292f: 91 02        	sta	($2),y                  ; 0x2 <__rc0>
    2931: 7a           	ply
    2932: 84 04        	sty	$4                      ; 0x4 <__rc2>
    2934: 46 04        	lsr	$4                      ; 0x4 <__rc2>
    2936: a9 00        	lda	#$0
    2938: 6a           	ror
    2939: 46 04        	lsr	$4                      ; 0x4 <__rc2>
    293b: 6a           	ror
    293c: 84 13        	sty	$13                     ; 0x13 <__rc17>
    293e: 48           	pha
    293f: a5 04        	lda	$4                      ; 0x4 <__rc2>
    2941: a0 12        	ldy	#$12
    2943: 91 02        	sta	($2),y                  ; 0x2 <__rc0>
    2945: 68           	pla
    2946: 46 04        	lsr	$4                      ; 0x4 <__rc2>
    2948: a6 04        	ldx	$4                      ; 0x4 <__rc2>
    294a: 86 05        	stx	$5                      ; 0x5 <__rc3>
    294c: 6a           	ror
    294d: 85 04        	sta	$4                      ; 0x4 <__rc2>
    294f: a9 00        	lda	#$0
    2951: 18           	clc
    2952: 65 04        	adc	$4                      ; 0x4 <__rc2>
    2954: 85 0d        	sta	$d                      ; 0xd <__rc11>
    2956: a0 17        	ldy	#$17
    2958: b1 02        	lda	($2),y                  ; 0x2 <__rc0>
    295a: 85 04        	sta	$4                      ; 0x4 <__rc2>
    295c: a5 05        	lda	$5                      ; 0x5 <__rc3>
    295e: 65 04        	adc	$4                      ; 0x4 <__rc2>
    2960: 85 0c        	sta	$c                      ; 0xc <__rc10>
    2962: 88           	dey
    2963: b1 02        	lda	($2),y                  ; 0x2 <__rc0>
    2965: 69 00        	adc	#$0
    2967: aa           	tax
    2968: 88           	dey
    2969: b1 02        	lda	($2),y                  ; 0x2 <__rc0>
    296b: 69 00        	adc	#$0
    296d: 48           	pha
    296e: 8a           	txa
    296f: a0 11        	ldy	#$11
    2971: 91 02        	sta	($2),y                  ; 0x2 <__rc0>
    2973: a4 13        	ldy	$13                     ; 0x13 <__rc17>
    2975: 68           	pla
    2976: 86 04        	stx	$4                      ; 0x4 <__rc2>
    2978: 85 18        	sta	$18                     ; 0x18 <__rc22>
    297a: 85 05        	sta	$5                      ; 0x5 <__rc3>
    297c: a2 c0        	ldx	#$c0
    297e: 86 06        	stx	$6                      ; 0x6 <__rc4>
    2980: a2 1a        	ldx	#$1a
    2982: 86 07        	stx	$7                      ; 0x7 <__rc5>
    2984: 64 08        	stz	$8                      ; 0x8 <__rc6>
    2986: 64 09        	stz	$9                      ; 0x9 <__rc7>
    2988: a2 20        	ldx	#$20
    298a: 86 0a        	stx	$a                      ; 0xa <__zp_data_size>
    298c: 64 0b        	stz	$b                      ; 0xb <__rc9>
    298e: a6 0c        	ldx	$c                      ; 0xc <__rc10>
    2990: 86 1b        	stx	$1b                     ; 0x1b <__rc25>
    2992: a5 0d        	lda	$d                      ; 0xd <__rc11>
    2994: 85 21        	sta	$21                     ; 0x21 <__rc31>
    2996: 84 16        	sty	$16                     ; 0x16 <__rc20>
    2998: 20 a6 69     	jsr	$69a6 <lcopy>
    299b: a4 16        	ldy	$16                     ; 0x16 <__rc20>
    299d: f0 14        	beq	$29b3 <main+0x89d>
    299f: 98           	tya
    29a0: 29 07        	and	#$7
    29a2: d0 0f        	bne	$29b3 <main+0x89d>
    29a4: 5a           	phy
    29a5: a5 19        	lda	$19                     ; 0x19 <__rc23>
    29a7: a0 19        	ldy	#$19
    29a9: 91 02        	sta	($2),y                  ; 0x2 <__rc0>
    29ab: a6 20        	ldx	$20                     ; 0x20 <__rc30>
    29ad: 8a           	txa
    29ae: a0 1b        	ldy	#$1b
    29b0: 91 02        	sta	($2),y                  ; 0x2 <__rc0>
    29b2: 7a           	ply
    29b3: ae c0 1a     	ldx	$1ac0                   ; 0x1ac0 <__heap_default_limit+0xac0>
    29b6: f0 18        	beq	$29d0 <main+0x8ba>
    29b8: 18           	clc
    29b9: 5a           	phy
    29ba: a0 1d        	ldy	#$1d
    29bc: b1 02        	lda	($2),y                  ; 0x2 <__rc0>
    29be: 69 08        	adc	#$8
    29c0: 91 02        	sta	($2),y                  ; 0x2 <__rc0>
    29c2: 7a           	ply
    29c3: a5 1c        	lda	$1c                     ; 0x1c <__rc26>
    29c5: 69 00        	adc	#$0
    29c7: 85 1c        	sta	$1c                     ; 0x1c <__rc26>
    29c9: ad c1 1a     	lda	$1ac1                   ; 0x1ac1 <__heap_default_limit+0xac1>
    29cc: 85 20        	sta	$20                     ; 0x20 <__rc30>
    29ce: 86 19        	stx	$19                     ; 0x19 <__rc23>
    29d0: ae c2 1a     	ldx	$1ac2                   ; 0x1ac2 <__heap_default_limit+0xac2>
    29d3: 86 16        	stx	$16                     ; 0x16 <__rc20>
    29d5: d0 06        	bne	$29dd <main+0x8c7>
    29d7: a9 01        	lda	#$1
    29d9: 25 30        	and	$30                     ; 0x30 <option.0>
    29db: f0 0c        	beq	$29e9 <main+0x8d3>
    29dd: a6 1d        	ldx	$1d                     ; 0x1d <__zp_bss_size>
    29df: e4 1e        	cpx	$1e                     ; 0x1e <__rc28>
    29e1: d0 03        	bne	$29e6 <main+0x8d0>
    29e3: 4c 4f 2a     	jmp	$2a4f <main+0x939>
    29e6: e8           	inx
    29e7: 86 1d        	stx	$1d                     ; 0x1d <__zp_bss_size>
    29e9: a2 00        	ldx	#$0
    29eb: c8           	iny
    29ec: 5a           	phy
    29ed: a0 1c        	ldy	#$1c
    29ef: b1 02        	lda	($2),y                  ; 0x2 <__rc0>
    29f1: 7a           	ply
    29f2: 85 08        	sta	$8                      ; 0x8 <__rc6>
    29f4: e4 1c        	cpx	$1c                     ; 0x1c <__rc26>
    29f6: f0 03        	beq	$29fb <main+0x8e5>
    29f8: 4c 23 29     	jmp	$2923 <main+0x80d>
    29fb: 5a           	phy
    29fc: a0 1d        	ldy	#$1d
    29fe: b1 02        	lda	($2),y                  ; 0x2 <__rc0>
    2a00: 7a           	ply
    2a01: 85 04        	sta	$4                      ; 0x4 <__rc2>
    2a03: c4 04        	cpy	$4                      ; 0x4 <__rc2>
    2a05: b0 03        	bcs	$2a0a <main+0x8f4>
    2a07: 4c 2a 29     	jmp	$292a <main+0x814>
    2a0a: a2 e0        	ldx	#$e0
    2a0c: 86 04        	stx	$4                      ; 0x4 <__rc2>
    2a0e: a2 77        	ldx	#$77
    2a10: 86 05        	stx	$5                      ; 0x5 <__rc3>
    2a12: a2 e4        	ldx	#$e4
    2a14: 86 06        	stx	$6                      ; 0x6 <__rc4>
    2a16: a2 71        	ldx	#$71
    2a18: 86 07        	stx	$7                      ; 0x7 <__rc5>
    2a1a: a9 50        	lda	#$50
    2a1c: 20 df 59     	jsr	$59df <progress>
    2a1f: a0 1f        	ldy	#$1f
    2a21: b1 02        	lda	($2),y                  ; 0x2 <__rc0>
    2a23: 85 06        	sta	$6                      ; 0x6 <__rc4>
    2a25: c8           	iny
    2a26: b1 02        	lda	($2),y                  ; 0x2 <__rc0>
    2a28: 85 07        	sta	$7                      ; 0x7 <__rc5>
    2a2a: b2 06        	lda	($6),z                  ; 0x6 <__rc4>
    2a2c: 85 05        	sta	$5                      ; 0x5 <__rc3>
    2a2e: a0 47        	ldy	#$47
    2a30: b1 06        	lda	($6),y                  ; 0x6 <__rc4>
    2a32: 85 04        	sta	$4                      ; 0x4 <__rc2>
    2a34: a0 18        	ldy	#$18
    2a36: b1 02        	lda	($2),y                  ; 0x2 <__rc0>
    2a38: aa           	tax
    2a39: a5 05        	lda	$5                      ; 0x5 <__rc3>
    2a3b: 20 31 4d     	jsr	$4d31 <PutBAM>
    2a3e: a6 1f        	ldx	$1f                     ; 0x1f <__rc29>
    2a40: 86 04        	stx	$4                      ; 0x4 <__rc2>
    2a42: 4c 46 28     	jmp	$2846 <main+0x730>
    2a45: a5 05        	lda	$5                      ; 0x5 <__rc3>
    2a47: f0 03        	beq	$2a4c <main+0x936>
    2a49: 4c 51 28     	jmp	$2851 <main+0x73b>
    2a4c: 4c 59 44     	jmp	$4459 <donehypd81detach4+0x59>
    2a4f: 9c c2 1a     	stz	$1ac2                   ; 0x1ac2 <__heap_default_limit+0xac2>
    2a52: a6 21        	ldx	$21                     ; 0x21 <__rc31>
    2a54: 86 06        	stx	$6                      ; 0x6 <__rc4>
    2a56: a6 1b        	ldx	$1b                     ; 0x1b <__rc25>
    2a58: 86 07        	stx	$7                      ; 0x7 <__rc5>
    2a5a: 64 04        	stz	$4                      ; 0x4 <__rc2>
    2a5c: 64 05        	stz	$5                      ; 0x5 <__rc3>
    2a5e: a0 11        	ldy	#$11
    2a60: b1 02        	lda	($2),y                  ; 0x2 <__rc0>
    2a62: 85 08        	sta	$8                      ; 0x8 <__rc6>
    2a64: a6 18        	ldx	$18                     ; 0x18 <__rc22>
    2a66: 86 09        	stx	$9                      ; 0x9 <__rc7>
    2a68: a2 20        	ldx	#$20
    2a6a: 86 0a        	stx	$a                      ; 0xa <__zp_data_size>
    2a6c: 64 0b        	stz	$b                      ; 0xb <__rc9>
    2a6e: a2 1a        	ldx	#$1a
    2a70: a9 c0        	lda	#$c0
    2a72: 20 a6 69     	jsr	$69a6 <lcopy>
    2a75: a0 12        	ldy	#$12
    2a77: b1 02        	lda	($2),y                  ; 0x2 <__rc0>
    2a79: 4a           	lsr
    2a7a: 18           	clc
    2a7b: 48           	pha
    2a7c: a0 10        	ldy	#$10
    2a7e: b1 02        	lda	($2),y                  ; 0x2 <__rc0>
    2a80: 85 04        	sta	$4                      ; 0x4 <__rc2>
    2a82: 68           	pla
    2a83: 65 04        	adc	$4                      ; 0x4 <__rc2>
    2a85: 85 0c        	sta	$c                      ; 0xc <__rc10>
    2a87: 88           	dey
    2a88: b1 02        	lda	($2),y                  ; 0x2 <__rc0>
    2a8a: 85 04        	sta	$4                      ; 0x4 <__rc2>
    2a8c: a9 00        	lda	#$0
    2a8e: 65 04        	adc	$4                      ; 0x4 <__rc2>
    2a90: aa           	tax
    2a91: a9 00        	lda	#$0
    2a93: 48           	pha
    2a94: 88           	dey
    2a95: b1 02        	lda	($2),y                  ; 0x2 <__rc0>
    2a97: 85 04        	sta	$4                      ; 0x4 <__rc2>
    2a99: 68           	pla
    2a9a: 65 04        	adc	$4                      ; 0x4 <__rc2>
    2a9c: 86 04        	stx	$4                      ; 0x4 <__rc2>
    2a9e: 85 05        	sta	$5                      ; 0x5 <__rc3>
    2aa0: 64 06        	stz	$6                      ; 0x6 <__rc4>
    2aa2: a2 18        	ldx	#$18
    2aa4: 86 07        	stx	$7                      ; 0x7 <__rc5>
    2aa6: 64 08        	stz	$8                      ; 0x8 <__rc6>
    2aa8: 64 09        	stz	$9                      ; 0x9 <__rc7>
    2aaa: 64 0a        	stz	$a                      ; 0xa <__zp_data_size>
    2aac: a2 01        	ldx	#$1
    2aae: 86 0b        	stx	$b                      ; 0xb <__rc9>
    2ab0: a6 0c        	ldx	$c                      ; 0xc <__rc10>
    2ab2: a9 00        	lda	#$0
    2ab4: 20 a6 69     	jsr	$69a6 <lcopy>
    2ab7: a2 00        	ldx	#$0
    2ab9: 86 04        	stx	$4                      ; 0x4 <__rc2>
    2abb: a2 18        	ldx	#$18
    2abd: 86 05        	stx	$5                      ; 0x5 <__rc3>
    2abf: a0 1b        	ldy	#$1b
    2ac1: b1 02        	lda	($2),y                  ; 0x2 <__rc0>
    2ac3: 85 06        	sta	$6                      ; 0x6 <__rc4>
    2ac5: a0 19        	ldy	#$19
    2ac7: b1 02        	lda	($2),y                  ; 0x2 <__rc0>
    2ac9: aa           	tax
    2aca: a0 1c        	ldy	#$1c
    2acc: b1 02        	lda	($2),y                  ; 0x2 <__rc0>
    2ace: 85 18        	sta	$18                     ; 0x18 <__rc22>
    2ad0: 20 a7 4c     	jsr	$4ca7 <PutOneSector>
    2ad3: a5 16        	lda	$16                     ; 0x16 <__rc20>
    2ad5: 29 0f        	and	#$f
    2ad7: c9 05        	cmp	#$5
    2ad9: d0 06        	bne	$2ae1 <main+0x9cb>
    2adb: a0 00        	ldy	#$0
    2add: 98           	tya
    2ade: 4c fa 2b     	jmp	$2bfa <main+0xae4>
    2ae1: ae c3 1a     	ldx	$1ac3                   ; 0x1ac3 <__heap_default_limit+0xac3>
    2ae4: 86 16        	stx	$16                     ; 0x16 <__rc20>
    2ae6: ae c4 1a     	ldx	$1ac4                   ; 0x1ac4 <__heap_default_limit+0xac4>
    2ae9: 86 19        	stx	$19                     ; 0x19 <__rc23>
    2aeb: a2 00        	ldx	#$0
    2aed: 86 04        	stx	$4                      ; 0x4 <__rc2>
    2aef: a2 16        	ldx	#$16
    2af1: 86 05        	stx	$5                      ; 0x5 <__rc3>
    2af3: a2 01        	ldx	#$1
    2af5: 86 06        	stx	$6                      ; 0x6 <__rc4>
    2af7: a0 14        	ldy	#$14
    2af9: b1 02        	lda	($2),y                  ; 0x2 <__rc0>
    2afb: aa           	tax
    2afc: a5 18        	lda	$18                     ; 0x18 <__rc22>
    2afe: 20 e0 4b     	jsr	$4be0 <GetOneSector>
    2b01: c9 02        	cmp	#$2
    2b03: 90 03        	bcc	$2b08 <main+0x9f2>
    2b05: 4c 0a 2a     	jmp	$2a0a <main+0x8f4>
    2b08: ae 00 16     	ldx	$1600                   ; 0x1600 <__heap_default_limit+0x600>
    2b0b: ac 01 16     	ldy	$1601                   ; 0x1601 <__heap_default_limit+0x601>
    2b0e: a9 00        	lda	#$0
    2b10: 85 04        	sta	$4                      ; 0x4 <__rc2>
    2b12: a9 17        	lda	#$17
    2b14: 85 05        	sta	$5                      ; 0x5 <__rc3>
    2b16: 84 06        	sty	$6                      ; 0x6 <__rc4>
    2b18: a0 1c        	ldy	#$1c
    2b1a: b1 02        	lda	($2),y                  ; 0x2 <__rc0>
    2b1c: 20 e0 4b     	jsr	$4be0 <GetOneSector>
    2b1f: c9 02        	cmp	#$2
    2b21: a0 1c        	ldy	#$1c
    2b23: b1 02        	lda	($2),y                  ; 0x2 <__rc0>
    2b25: a8           	tay
    2b26: 90 03        	bcc	$2b2b <main+0xa15>
    2b28: 4c 0a 2a     	jmp	$2a0a <main+0x8f4>
    2b2b: a6 16        	ldx	$16                     ; 0x16 <__rc20>
    2b2d: a5 19        	lda	$19                     ; 0x19 <__rc23>
    2b2f: 4c 6b 2b     	jmp	$2b6b <main+0xa55>
    2b32: a0 00        	ldy	#$0
    2b34: 84 04        	sty	$4                      ; 0x4 <__rc2>
    2b36: a0 18        	ldy	#$18
    2b38: 84 05        	sty	$5                      ; 0x5 <__rc3>
    2b3a: 85 06        	sta	$6                      ; 0x6 <__rc4>
    2b3c: 86 16        	stx	$16                     ; 0x16 <__rc20>
    2b3e: 85 18        	sta	$18                     ; 0x18 <__rc22>
    2b40: a0 1c        	ldy	#$1c
    2b42: b1 02        	lda	($2),y                  ; 0x2 <__rc0>
    2b44: 20 e0 4b     	jsr	$4be0 <GetOneSector>
    2b47: a2 00        	ldx	#$0
    2b49: 86 04        	stx	$4                      ; 0x4 <__rc2>
    2b4b: a2 16        	ldx	#$16
    2b4d: 86 05        	stx	$5                      ; 0x5 <__rc3>
    2b4f: a2 00        	ldx	#$0
    2b51: 86 06        	stx	$6                      ; 0x6 <__rc4>
    2b53: a2 17        	ldx	#$17
    2b55: 86 07        	stx	$7                      ; 0x7 <__rc5>
    2b57: 64 08        	stz	$8                      ; 0x8 <__rc6>
    2b59: a6 18        	ldx	$18                     ; 0x18 <__rc22>
    2b5b: a5 16        	lda	$16                     ; 0x16 <__rc20>
    2b5d: 20 27 4e     	jsr	$4e27 <BAMSectorUpdate>
    2b60: a0 1c        	ldy	#$1c
    2b62: b1 02        	lda	($2),y                  ; 0x2 <__rc0>
    2b64: a8           	tay
    2b65: ae 00 18     	ldx	$1800                   ; 0x1800 <__heap_default_limit+0x800>
    2b68: ad 01 18     	lda	$1801                   ; 0x1801 <__heap_default_limit+0x801>
    2b6b: e0 00        	cpx	#$0
    2b6d: f0 03        	beq	$2b72 <main+0xa5c>
    2b6f: 4c 32 2b     	jmp	$2b32 <main+0xa1c>
    2b72: a2 00        	ldx	#$0
    2b74: 86 04        	stx	$4                      ; 0x4 <__rc2>
    2b76: a2 16        	ldx	#$16
    2b78: 86 05        	stx	$5                      ; 0x5 <__rc3>
    2b7a: a2 01        	ldx	#$1
    2b7c: 86 06        	stx	$6                      ; 0x6 <__rc4>
    2b7e: 5a           	phy
    2b7f: a0 14        	ldy	#$14
    2b81: b1 02        	lda	($2),y                  ; 0x2 <__rc0>
    2b83: 7a           	ply
    2b84: aa           	tax
    2b85: 84 16        	sty	$16                     ; 0x16 <__rc20>
    2b87: 98           	tya
    2b88: 20 a7 4c     	jsr	$4ca7 <PutOneSector>
    2b8b: ae 00 16     	ldx	$1600                   ; 0x1600 <__heap_default_limit+0x600>
    2b8e: ac 01 16     	ldy	$1601                   ; 0x1601 <__heap_default_limit+0x601>
    2b91: a9 00        	lda	#$0
    2b93: 85 04        	sta	$4                      ; 0x4 <__rc2>
    2b95: a9 17        	lda	#$17
    2b97: 85 05        	sta	$5                      ; 0x5 <__rc3>
    2b99: 84 06        	sty	$6                      ; 0x6 <__rc4>
    2b9b: a5 16        	lda	$16                     ; 0x16 <__rc20>
    2b9d: 20 a7 4c     	jsr	$4ca7 <PutOneSector>
    2ba0: 4c 0a 2a     	jmp	$2a0a <main+0x8f4>
    2ba3: cd df 1a     	cmp	$1adf                   ; 0x1adf <__heap_default_limit+0xadf>
    2ba6: 64 05        	stz	$5                      ; 0x5 <__rc3>
    2ba8: 90 03        	bcc	$2bad <main+0xa97>
    2baa: 4c 0a 2a     	jmp	$2a0a <main+0x8f4>
    2bad: a2 28        	ldx	#$28
    2baf: 86 04        	stx	$4                      ; 0x4 <__rc2>
    2bb1: aa           	tax
    2bb2: 84 16        	sty	$16                     ; 0x16 <__rc20>
    2bb4: 85 18        	sta	$18                     ; 0x18 <__rc22>
    2bb6: 98           	tya
    2bb7: 20 83 6b     	jsr	$6b83 <__udivhi3>
    2bba: aa           	tax
    2bbb: 0a           	asl
    2bbc: 0a           	asl
    2bbd: 0a           	asl
    2bbe: 85 04        	sta	$4                      ; 0x4 <__rc2>
    2bc0: 0a           	asl
    2bc1: 0a           	asl
    2bc2: 18           	clc
    2bc3: 65 04        	adc	$4                      ; 0x4 <__rc2>
    2bc5: 85 04        	sta	$4                      ; 0x4 <__rc2>
    2bc7: 38           	sec
    2bc8: a5 16        	lda	$16                     ; 0x16 <__rc20>
    2bca: e5 04        	sbc	$4                      ; 0x4 <__rc2>
    2bcc: 85 04        	sta	$4                      ; 0x4 <__rc2>
    2bce: 18           	clc
    2bcf: 8a           	txa
    2bd0: 6d c3 1a     	adc	$1ac3                   ; 0x1ac3 <__heap_default_limit+0xac3>
    2bd3: a8           	tay
    2bd4: 18           	clc
    2bd5: a5 04        	lda	$4                      ; 0x4 <__rc2>
    2bd7: 6d c4 1a     	adc	$1ac4                   ; 0x1ac4 <__heap_default_limit+0xac4>
    2bda: a2 00        	ldx	#$0
    2bdc: 86 04        	stx	$4                      ; 0x4 <__rc2>
    2bde: a2 16        	ldx	#$16
    2be0: 86 05        	stx	$5                      ; 0x5 <__rc3>
    2be2: a2 00        	ldx	#$0
    2be4: 86 06        	stx	$6                      ; 0x6 <__rc4>
    2be6: a2 17        	ldx	#$17
    2be8: 86 07        	stx	$7                      ; 0x7 <__rc5>
    2bea: 64 08        	stz	$8                      ; 0x8 <__rc6>
    2bec: aa           	tax
    2bed: 98           	tya
    2bee: 20 27 4e     	jsr	$4e27 <BAMSectorUpdate>
    2bf1: a4 16        	ldy	$16                     ; 0x16 <__rc20>
    2bf3: a6 18        	ldx	$18                     ; 0x18 <__rc22>
    2bf5: c8           	iny
    2bf6: d0 01        	bne	$2bf9 <main+0xae3>
    2bf8: e8           	inx
    2bf9: 8a           	txa
    2bfa: cd df 1a     	cmp	$1adf                   ; 0x1adf <__heap_default_limit+0xadf>
    2bfd: f0 03        	beq	$2c02 <main+0xaec>
    2bff: 4c a3 2b     	jmp	$2ba3 <main+0xa8d>
    2c02: ae de 1a     	ldx	$1ade                   ; 0x1ade <__heap_default_limit+0xade>
    2c05: 86 04        	stx	$4                      ; 0x4 <__rc2>
    2c07: c4 04        	cpy	$4                      ; 0x4 <__rc2>
    2c09: 4c a6 2b     	jmp	$2ba6 <main+0xa90>
    2c0c: a9 00        	lda	#$0
    2c0e: 48           	pha
    2c0f: a0 18        	ldy	#$18
    2c11: b1 02        	lda	($2),y                  ; 0x2 <__rc0>
    2c13: 85 1f        	sta	$1f                     ; 0x1f <__rc29>
    2c15: 68           	pla
    2c16: a6 04        	ldx	$4                      ; 0x4 <__rc2>
    2c18: 86 1d        	stx	$1d                     ; 0x1d <__zp_bss_size>
    2c1a: a6 1f        	ldx	$1f                     ; 0x1f <__rc29>
    2c1c: 20 e0 5a     	jsr	$5ae0 <shortcuts>
    2c1f: a0 01        	ldy	#$1
    2c21: ae 10 d6     	ldx	$d610                   ; 0xd610 <__heap_start+0x5678>
    2c24: d0 0b        	bne	$2c31 <main+0xb1b>
    2c26: ad 11 d6     	lda	$d611                   ; 0xd611 <__heap_start+0x5679>
    2c29: 85 04        	sta	$4                      ; 0x4 <__rc2>
    2c2b: c5 1d        	cmp	$1d                     ; 0x1d <__zp_bss_size>
    2c2d: f0 f2        	beq	$2c21 <main+0xb0b>
    2c2f: 80 e5        	bra	$2c16 <main+0xb00>
    2c31: 38           	sec
    2c32: 86 21        	stx	$21                     ; 0x21 <__rc31>
    2c34: 8a           	txa
    2c35: e9 f1        	sbc	#$f1
    2c37: aa           	tax
    2c38: a5 1d        	lda	$1d                     ; 0x1d <__zp_bss_size>
    2c3a: 5a           	phy
    2c3b: a0 01        	ldy	#$1
    2c3d: b0 02        	bcs	$2c41 <main+0xb2b>
    2c3f: a0 00        	ldy	#$0
    2c41: 84 08        	sty	$8                      ; 0x8 <__rc6>
    2c43: e9 00        	sbc	#$0
    2c45: 85 09        	sta	$9                      ; 0x9 <__rc7>
    2c47: a4 1f        	ldy	$1f                     ; 0x1f <__rc29>
    2c49: 84 1c        	sty	$1c                     ; 0x1c <__rc26>
    2c4b: 06 1c        	asl	$1c                     ; 0x1c <__rc26>
    2c4d: 64 1b        	stz	$1b                     ; 0x1b <__rc25>
    2c4f: 26 1b        	rol	$1b                     ; 0x1b <__rc25>
    2c51: a0 01        	ldy	#$1
    2c53: b0 02        	bcs	$2c57 <main+0xb41>
    2c55: a0 00        	ldy	#$0
    2c57: 84 1e        	sty	$1e                     ; 0x1e <__rc28>
    2c59: a4 1c        	ldy	$1c                     ; 0x1c <__rc26>
    2c5b: 84 1a        	sty	$1a                     ; 0x1a <__rc24>
    2c5d: 06 1a        	asl	$1a                     ; 0x1a <__rc24>
    2c5f: a4 1b        	ldy	$1b                     ; 0x1b <__rc25>
    2c61: 84 17        	sty	$17                     ; 0x17 <__rc21>
    2c63: 26 17        	rol	$17                     ; 0x17 <__rc21>
    2c65: a0 01        	ldy	#$1
    2c67: b0 02        	bcs	$2c6b <main+0xb55>
    2c69: a0 00        	ldy	#$0
    2c6b: 84 18        	sty	$18                     ; 0x18 <__rc22>
    2c6d: 06 1a        	asl	$1a                     ; 0x1a <__rc24>
    2c6f: 26 17        	rol	$17                     ; 0x17 <__rc21>
    2c71: a0 01        	ldy	#$1
    2c73: b0 02        	bcs	$2c77 <main+0xb61>
    2c75: a0 00        	ldy	#$0
    2c77: 84 19        	sty	$19                     ; 0x19 <__rc23>
    2c79: a4 1a        	ldy	$1a                     ; 0x1a <__rc24>
    2c7b: 84 16        	sty	$16                     ; 0x16 <__rc20>
    2c7d: a4 17        	ldy	$17                     ; 0x17 <__rc21>
    2c7f: 84 20        	sty	$20                     ; 0x20 <__rc30>
    2c81: 06 1a        	asl	$1a                     ; 0x1a <__rc24>
    2c83: 26 17        	rol	$17                     ; 0x17 <__rc21>
    2c85: a5 1a        	lda	$1a                     ; 0x1a <__rc24>
    2c87: a4 17        	ldy	$17                     ; 0x17 <__rc21>
    2c89: 84 04        	sty	$4                      ; 0x4 <__rc2>
    2c8b: 7a           	ply
    2c8c: 0a           	asl
    2c8d: 26 04        	rol	$4                      ; 0x4 <__rc2>
    2c8f: 0a           	asl
    2c90: 26 04        	rol	$4                      ; 0x4 <__rc2>
    2c92: 0a           	asl
    2c93: 5a           	phy
    2c94: a0 21        	ldy	#$21
    2c96: 91 02        	sta	($2),y                  ; 0x2 <__rc0>
    2c98: 26 04        	rol	$4                      ; 0x4 <__rc2>
    2c9a: a5 04        	lda	$4                      ; 0x4 <__rc2>
    2c9c: a0 23        	ldy	#$23
    2c9e: 91 02        	sta	($2),y                  ; 0x2 <__rc0>
    2ca0: 9c 10 d6     	stz	$d610                   ; 0xd610 <__heap_start+0x5678>
    2ca3: 64 33        	stz	$33                     ; 0x33 <g_curX>
    2ca5: 64 34        	stz	$34                     ; 0x34 <g_curY>
    2ca7: 9c 20 d0     	stz	$d020                   ; 0xd020 <__heap_start+0x5088>
    2caa: a5 1f        	lda	$1f                     ; 0x1f <__rc29>
    2cac: 49 01        	eor	#$1
    2cae: a0 1f        	ldy	#$1f
    2cb0: 91 02        	sta	($2),y                  ; 0x2 <__rc0>
    2cb2: 7a           	ply
    2cb3: a5 09        	lda	$9                      ; 0x9 <__rc7>
    2cb5: f0 03        	beq	$2cba <main+0xba4>
    2cb7: 4c 68 2e     	jmp	$2e68 <main+0xd52>
    2cba: 8a           	txa
    2cbb: e0 19        	cpx	#$19
    2cbd: 90 03        	bcc	$2cc2 <main+0xbac>
    2cbf: 4c 72 2e     	jmp	$2e72 <main+0xd5c>
    2cc2: 0a           	asl
    2cc3: aa           	tax
    2cc4: 7c f1 6f     	jmp	($6ff1,x)               ; 0x6ff1 <__zp_data_load_start+0x4fda>
    2cc7: a2 00        	ldx	#$0
    2cc9: a9 14        	lda	#$14
    2ccb: 20 e0 5a     	jsr	$5ae0 <shortcuts>
    2cce: 64 16        	stz	$16                     ; 0x16 <__rc20>
    2cd0: 4c 19 2d     	jmp	$2d19 <main+0xc03>
    2cd3: e6 16        	inc	$16                     ; 0x16 <__rc20>
    2cd5: 4c 19 2d     	jmp	$2d19 <main+0xc03>
    2cd8: 20 f9 66     	jsr	$66f9 <sidbong>
    2cdb: a2 2a        	ldx	#$2a
    2cdd: 86 04        	stx	$4                      ; 0x4 <__rc2>
    2cdf: a2 75        	ldx	#$75
    2ce1: 86 05        	stx	$5                      ; 0x5 <__rc3>
    2ce3: a2 19        	ldx	#$19
    2ce5: 86 06        	stx	$6                      ; 0x6 <__rc4>
    2ce7: a2 77        	ldx	#$77
    2ce9: 86 07        	stx	$7                      ; 0x7 <__rc5>
    2ceb: a2 ca        	ldx	#$ca
    2ced: 86 08        	stx	$8                      ; 0x8 <__rc6>
    2cef: a2 72        	ldx	#$72
    2cf1: 86 09        	stx	$9                      ; 0x9 <__rc7>
    2cf3: 64 0a        	stz	$a                      ; 0xa <__zp_data_size>
    2cf5: 64 0b        	stz	$b                      ; 0xb <__rc9>
    2cf7: 64 0c        	stz	$c                      ; 0xc <__rc10>
    2cf9: a2 00        	ldx	#$0
    2cfb: 8a           	txa
    2cfc: 20 88 58     	jsr	$5888 <messagebox>
    2cff: 80 18        	bra	$2d19 <main+0xc03>
    2d01: 64 16        	stz	$16                     ; 0x16 <__rc20>
    2d03: a5 17        	lda	$17                     ; 0x17 <__rc21>
    2d05: f0 12        	beq	$2d19 <main+0xc03>
    2d07: a6 17        	ldx	$17                     ; 0x17 <__rc21>
    2d09: ca           	dex
    2d0a: 86 16        	stx	$16                     ; 0x16 <__rc20>
    2d0c: 80 0b        	bra	$2d19 <main+0xc03>
    2d0e: a6 16        	ldx	$16                     ; 0x16 <__rc20>
    2d10: a9 01        	lda	#$1
    2d12: 20 33 6b     	jsr	$6b33 <__ashlqi3>
    2d15: 45 30        	eor	$30                     ; 0x30 <option.0>
    2d17: 85 30        	sta	$30                     ; 0x30 <option.0>
    2d19: a2 46        	ldx	#$46
    2d1b: 86 04        	stx	$4                      ; 0x4 <__rc2>
    2d1d: a2 14        	ldx	#$14
    2d1f: 86 05        	stx	$5                      ; 0x5 <__rc3>
    2d21: a2 01        	ldx	#$1
    2d23: 86 06        	stx	$6                      ; 0x6 <__rc4>
    2d25: a2 04        	ldx	#$4
    2d27: a9 0a        	lda	#$a
    2d29: 20 fd 56     	jsr	$56fd <mcbox>
    2d2c: a9 20        	lda	#$20
    2d2e: 05 2b        	ora	$2b                     ; 0x2b <g_curTextColor>
    2d30: 85 2b        	sta	$2b                     ; 0x2b <g_curTextColor>
    2d32: a2 73        	ldx	#$73
    2d34: 86 04        	stx	$4                      ; 0x4 <__rc2>
    2d36: a2 71        	ldx	#$71
    2d38: 86 05        	stx	$5                      ; 0x5 <__rc3>
    2d3a: a2 04        	ldx	#$4
    2d3c: a9 0e        	lda	#$e
    2d3e: 20 e7 56     	jsr	$56e7 <mcputsxy>
    2d41: a2 22        	ldx	#$22
    2d43: 86 04        	stx	$4                      ; 0x4 <__rc2>
    2d45: a2 74        	ldx	#$74
    2d47: 86 05        	stx	$5                      ; 0x5 <__rc3>
    2d49: a2 04        	ldx	#$4
    2d4b: a9 1f        	lda	#$1f
    2d4d: 20 e7 56     	jsr	$56e7 <mcputsxy>
    2d50: a2 e5        	ldx	#$e5
    2d52: 86 04        	stx	$4                      ; 0x4 <__rc2>
    2d54: a2 74        	ldx	#$74
    2d56: 86 05        	stx	$5                      ; 0x5 <__rc3>
    2d58: a2 04        	ldx	#$4
    2d5a: a9 28        	lda	#$28
    2d5c: 20 e7 56     	jsr	$56e7 <mcputsxy>
    2d5f: a9 df        	lda	#$df
    2d61: 25 2b        	and	$2b                     ; 0x2b <g_curTextColor>
    2d63: 85 2b        	sta	$2b                     ; 0x2b <g_curTextColor>
    2d65: a2 2a        	ldx	#$2a
    2d67: 86 04        	stx	$4                      ; 0x4 <__rc2>
    2d69: a2 74        	ldx	#$74
    2d6b: 86 05        	stx	$5                      ; 0x5 <__rc3>
    2d6d: a2 10        	ldx	#$10
    2d6f: a9 17        	lda	#$17
    2d71: 20 e7 56     	jsr	$56e7 <mcputsxy>
    2d74: a9 20        	lda	#$20
    2d76: 05 2b        	ora	$2b                     ; 0x2b <g_curTextColor>
    2d78: 85 2b        	sta	$2b                     ; 0x2b <g_curTextColor>
    2d7a: a2 8b        	ldx	#$8b
    2d7c: 86 04        	stx	$4                      ; 0x4 <__rc2>
    2d7e: a2 73        	ldx	#$73
    2d80: 86 05        	stx	$5                      ; 0x5 <__rc3>
    2d82: a2 12        	ldx	#$12
    2d84: a9 24        	lda	#$24
    2d86: 20 e7 56     	jsr	$56e7 <mcputsxy>
    2d89: a9 df        	lda	#$df
    2d8b: 25 2b        	and	$2b                     ; 0x2b <g_curTextColor>
    2d8d: 85 2b        	sta	$2b                     ; 0x2b <g_curTextColor>
    2d8f: a6 16        	ldx	$16                     ; 0x16 <__rc20>
    2d91: e0 05        	cpx	#$5
    2d93: 90 02        	bcc	$2d97 <main+0xc81>
    2d95: a2 04        	ldx	#$4
    2d97: a5 30        	lda	$30                     ; 0x30 <option.0>
    2d99: a0 e6        	ldy	#$e6
    2d9b: 84 04        	sty	$4                      ; 0x4 <__rc2>
    2d9d: a0 72        	ldy	#$72
    2d9f: 84 05        	sty	$5                      ; 0x5 <__rc3>
    2da1: 86 06        	stx	$6                      ; 0x6 <__rc4>
    2da3: 64 07        	stz	$7                      ; 0x7 <__rc5>
    2da5: 86 16        	stx	$16                     ; 0x16 <__rc20>
    2da7: a2 01        	ldx	#$1
    2da9: 20 68 5e     	jsr	$5e68 <optionstring>
    2dac: a5 30        	lda	$30                     ; 0x30 <option.0>
    2dae: a2 f2        	ldx	#$f2
    2db0: 86 04        	stx	$4                      ; 0x4 <__rc2>
    2db2: a2 77        	ldx	#$77
    2db4: 86 05        	stx	$5                      ; 0x5 <__rc3>
    2db6: a6 16        	ldx	$16                     ; 0x16 <__rc20>
    2db8: 86 06        	stx	$6                      ; 0x6 <__rc4>
    2dba: a2 01        	ldx	#$1
    2dbc: 86 07        	stx	$7                      ; 0x7 <__rc5>
    2dbe: e8           	inx
    2dbf: 20 68 5e     	jsr	$5e68 <optionstring>
    2dc2: a5 30        	lda	$30                     ; 0x30 <option.0>
    2dc4: a2 e3        	ldx	#$e3
    2dc6: 86 04        	stx	$4                      ; 0x4 <__rc2>
    2dc8: a2 70        	ldx	#$70
    2dca: 86 05        	stx	$5                      ; 0x5 <__rc3>
    2dcc: a6 16        	ldx	$16                     ; 0x16 <__rc20>
    2dce: 86 06        	stx	$6                      ; 0x6 <__rc4>
    2dd0: a2 02        	ldx	#$2
    2dd2: 86 07        	stx	$7                      ; 0x7 <__rc5>
    2dd4: a2 04        	ldx	#$4
    2dd6: 20 68 5e     	jsr	$5e68 <optionstring>
    2dd9: a5 30        	lda	$30                     ; 0x30 <option.0>
    2ddb: a2 ac        	ldx	#$ac
    2ddd: 86 04        	stx	$4                      ; 0x4 <__rc2>
    2ddf: a2 72        	ldx	#$72
    2de1: 86 05        	stx	$5                      ; 0x5 <__rc3>
    2de3: 48           	pha
    2de4: a5 04        	lda	$4                      ; 0x4 <__rc2>
    2de6: a0 23        	ldy	#$23
    2de8: 91 02        	sta	($2),y                  ; 0x2 <__rc0>
    2dea: a5 05        	lda	$5                      ; 0x5 <__rc3>
    2dec: c8           	iny
    2ded: 91 02        	sta	($2),y                  ; 0x2 <__rc0>
    2def: 88           	dey
    2df0: b1 02        	lda	($2),y                  ; 0x2 <__rc0>
    2df2: 85 04        	sta	$4                      ; 0x4 <__rc2>
    2df4: c8           	iny
    2df5: b1 02        	lda	($2),y                  ; 0x2 <__rc0>
    2df7: 85 05        	sta	$5                      ; 0x5 <__rc3>
    2df9: 68           	pla
    2dfa: a6 16        	ldx	$16                     ; 0x16 <__rc20>
    2dfc: 86 06        	stx	$6                      ; 0x6 <__rc4>
    2dfe: a2 03        	ldx	#$3
    2e00: 86 07        	stx	$7                      ; 0x7 <__rc5>
    2e02: a2 08        	ldx	#$8
    2e04: 20 68 5e     	jsr	$5e68 <optionstring>
    2e07: a5 30        	lda	$30                     ; 0x30 <option.0>
    2e09: 48           	pha
    2e0a: a0 23        	ldy	#$23
    2e0c: b1 02        	lda	($2),y                  ; 0x2 <__rc0>
    2e0e: 85 04        	sta	$4                      ; 0x4 <__rc2>
    2e10: c8           	iny
    2e11: b1 02        	lda	($2),y                  ; 0x2 <__rc0>
    2e13: 85 05        	sta	$5                      ; 0x5 <__rc3>
    2e15: 68           	pla
    2e16: a6 16        	ldx	$16                     ; 0x16 <__rc20>
    2e18: 86 17        	stx	$17                     ; 0x17 <__rc21>
    2e1a: a6 16        	ldx	$16                     ; 0x16 <__rc20>
    2e1c: 86 06        	stx	$6                      ; 0x6 <__rc4>
    2e1e: a2 04        	ldx	#$4
    2e20: 86 07        	stx	$7                      ; 0x7 <__rc5>
    2e22: a2 10        	ldx	#$10
    2e24: 20 68 5e     	jsr	$5e68 <optionstring>
    2e27: 20 76 69     	jsr	$6976 <cgetc>
    2e2a: c9 91        	cmp	#$91
    2e2c: d0 03        	bne	$2e31 <main+0xd1b>
    2e2e: 4c 01 2d     	jmp	$2d01 <main+0xbeb>
    2e31: c9 9d        	cmp	#$9d
    2e33: d0 03        	bne	$2e38 <main+0xd22>
    2e35: 4c 01 2d     	jmp	$2d01 <main+0xbeb>
    2e38: c9 03        	cmp	#$3
    2e3a: d0 03        	bne	$2e3f <main+0xd29>
    2e3c: 4c d8 2c     	jmp	$2cd8 <main+0xbc2>
    2e3f: c9 11        	cmp	#$11
    2e41: d0 03        	bne	$2e46 <main+0xd30>
    2e43: 4c d3 2c     	jmp	$2cd3 <main+0xbbd>
    2e46: c9 1b        	cmp	#$1b
    2e48: d0 03        	bne	$2e4d <main+0xd37>
    2e4a: 4c d8 2c     	jmp	$2cd8 <main+0xbc2>
    2e4d: c9 1d        	cmp	#$1d
    2e4f: d0 03        	bne	$2e54 <main+0xd3e>
    2e51: 4c d3 2c     	jmp	$2cd3 <main+0xbbd>
    2e54: c9 20        	cmp	#$20
    2e56: d0 03        	bne	$2e5b <main+0xd45>
    2e58: 4c 0e 2d     	jmp	$2d0e <main+0xbf8>
    2e5b: c9 0d        	cmp	#$d
    2e5d: d0 03        	bne	$2e62 <main+0xd4c>
    2e5f: 4c 09 36     	jmp	$3609 <donehypclosefile3+0x630>
    2e62: 20 f9 66     	jsr	$66f9 <sidbong>
    2e65: 4c 19 2d     	jmp	$2d19 <main+0xc03>
    2e68: a5 09        	lda	$9                      ; 0x9 <__rc7>
    2e6a: c9 00        	cmp	#$0
    2e6c: 8a           	txa
    2e6d: b0 03        	bcs	$2e72 <main+0xd5c>
    2e6f: 4c c2 2c     	jmp	$2cc2 <main+0xbac>
    2e72: a5 1d        	lda	$1d                     ; 0x1d <__zp_bss_size>
    2e74: 5a           	phy
    2e75: a4 08        	ldy	$8                      ; 0x8 <__rc6>
    2e77: c0 01        	cpy	#$1
    2e79: 7a           	ply
    2e7a: e9 01        	sbc	#$1
    2e7c: f0 03        	beq	$2e81 <main+0xd6b>
    2e7e: 4c 01 2f     	jmp	$2f01 <main+0xdeb>
    2e81: e0 0a        	cpx	#$a
    2e83: b0 03        	bcs	$2e88 <main+0xd72>
    2e85: 4c 08 2f     	jmp	$2f08 <main+0xdf2>
    2e88: a5 1d        	lda	$1d                     ; 0x1d <__zp_bss_size>
    2e8a: 5a           	phy
    2e8b: a4 08        	ldy	$8                      ; 0x8 <__rc6>
    2e8d: c0 01        	cpy	#$1
    2e8f: 7a           	ply
    2e90: e9 02        	sbc	#$2
    2e92: f0 03        	beq	$2e97 <main+0xd81>
    2e94: 4c 84 30     	jmp	$3084 <donehypclosefile3+0xab>
    2e97: 8a           	txa
    2e98: e0 0a        	cpx	#$a
    2e9a: b0 03        	bcs	$2e9f <main+0xd89>
    2e9c: 4c 8c 30     	jmp	$308c <donehypclosefile3+0xb3>
    2e9f: 38           	sec
    2ea0: a5 21        	lda	$21                     ; 0x21 <__rc31>
    2ea2: e9 1b        	sbc	#$1b
    2ea4: aa           	tax
    2ea5: a5 1d        	lda	$1d                     ; 0x1d <__zp_bss_size>
    2ea7: e9 00        	sbc	#$0
    2ea9: f0 03        	beq	$2eae <main+0xd98>
    2eab: 4c 27 32     	jmp	$3227 <donehypclosefile3+0x24e>
    2eae: 8a           	txa
    2eaf: e0 06        	cpx	#$6
    2eb1: b0 03        	bcs	$2eb6 <main+0xda0>
    2eb3: 4c 2f 32     	jmp	$322f <donehypclosefile3+0x256>
    2eb6: 38           	sec
    2eb7: a5 21        	lda	$21                     ; 0x21 <__rc31>
    2eb9: e9 f2        	sbc	#$f2
    2ebb: aa           	tax
    2ebc: a5 1d        	lda	$1d                     ; 0x1d <__zp_bss_size>
    2ebe: e9 08        	sbc	#$8
    2ec0: f0 03        	beq	$2ec5 <main+0xdaf>
    2ec2: 4c 03 37     	jmp	$3703 <donehypclosefile3+0x72a>
    2ec5: 8a           	txa
    2ec6: e0 07        	cpx	#$7
    2ec8: b0 03        	bcs	$2ecd <main+0xdb7>
    2eca: 4c 0b 37     	jmp	$370b <donehypclosefile3+0x732>
    2ecd: a5 1d        	lda	$1d                     ; 0x1d <__zp_bss_size>
    2ecf: d0 09        	bne	$2eda <main+0xdc4>
    2ed1: a6 21        	ldx	$21                     ; 0x21 <__rc31>
    2ed3: e0 03        	cpx	#$3
    2ed5: d0 03        	bne	$2eda <main+0xdc4>
    2ed7: 4c 34 32     	jmp	$3234 <donehypclosefile3+0x25b>
    2eda: a5 1d        	lda	$1d                     ; 0x1d <__zp_bss_size>
    2edc: d0 09        	bne	$2ee7 <main+0xdd1>
    2ede: a6 21        	ldx	$21                     ; 0x21 <__rc31>
    2ee0: e0 09        	cpx	#$9
    2ee2: d0 03        	bne	$2ee7 <main+0xdd1>
    2ee4: 4c e1 3f     	jmp	$3fe1 <donehypclosefile3+0x1008>
    2ee7: a6 21        	ldx	$21                     ; 0x21 <__rc31>
    2ee9: a5 1d        	lda	$1d                     ; 0x1d <__zp_bss_size>
    2eeb: d0 03        	bne	$2ef0 <main+0xdda>
    2eed: 4c e8 3f     	jmp	$3fe8 <donehypclosefile3+0x100f>
    2ef0: a5 1d        	lda	$1d                     ; 0x1d <__zp_bss_size>
    2ef2: d0 03        	bne	$2ef7 <main+0xde1>
    2ef4: 4c bd 42     	jmp	$42bd <donehypclosefile3+0x12e4>
    2ef7: a5 1d        	lda	$1d                     ; 0x1d <__zp_bss_size>
    2ef9: f0 03        	beq	$2efe <main+0xde8>
    2efb: 4c 5c 43     	jmp	$435c <donehypclosefile3+0x1383>
    2efe: 4c 55 43     	jmp	$4355 <donehypclosefile3+0x137c>
    2f01: c9 00        	cmp	#$0
    2f03: 90 03        	bcc	$2f08 <main+0xdf2>
    2f05: 4c 88 2e     	jmp	$2e88 <main+0xd72>
    2f08: 8a           	txa
    2f09: 0a           	asl
    2f0a: aa           	tax
    2f0b: 7c 23 70     	jmp	($7023,x)               ; 0x7023 <__zp_data_load_start+0x500c>
    2f0e: 84 17        	sty	$17                     ; 0x17 <__rc21>
    2f10: a0 00        	ldy	#$0
    2f12: 84 18        	sty	$18                     ; 0x18 <__rc22>
    2f14: a0 1c        	ldy	#$1c
    2f16: 84 19        	sty	$19                     ; 0x19 <__rc23>
    2f18: a0 00        	ldy	#$0
    2f1a: 84 04        	sty	$4                      ; 0x4 <__rc2>
    2f1c: a0 1c        	ldy	#$1c
    2f1e: 84 05        	sty	$5                      ; 0x5 <__rc3>
    2f20: a0 2d        	ldy	#$2d
    2f22: 84 06        	sty	$6                      ; 0x6 <__rc4>
    2f24: a0 78        	ldy	#$78
    2f26: 84 07        	sty	$7                      ; 0x7 <__rc5>
    2f28: a9 0b        	lda	#$b
    2f2a: 20 d5 6d     	jsr	$6dd5 <memcpy>
    2f2d: a2 0a        	ldx	#$a
    2f2f: 8a           	txa
    2f30: a0 23        	ldy	#$23
    2f32: 91 02        	sta	($2),y                  ; 0x2 <__rc0>
    2f34: a2 00        	ldx	#$0
    2f36: 86 04        	stx	$4                      ; 0x4 <__rc2>
    2f38: a2 1c        	ldx	#$1c
    2f3a: 86 05        	stx	$5                      ; 0x5 <__rc3>
    2f3c: 20 76 48     	jsr	$4876 <hyppo_setname>
    2f3f: 18           	clc
    2f40: a0 23        	ldy	#$23
    2f42: b1 02        	lda	($2),y                  ; 0x2 <__rc0>
    2f44: 69 06        	adc	#$6
    2f46: a2 00        	ldx	#$0
    2f48: 86 04        	stx	$4                      ; 0x4 <__rc2>
    2f4a: a2 1c        	ldx	#$1c
    2f4c: 86 05        	stx	$5                      ; 0x5 <__rc3>
    2f4e: 85 16        	sta	$16                     ; 0x16 <__rc20>
    2f50: aa           	tax
    2f51: a9 11        	lda	#$11
    2f53: 20 e7 56     	jsr	$56e7 <mcputsxy>
    2f56: a2 00        	ldx	#$0
    2f58: a9 30        	lda	#$30
    2f5a: 8d 40 d6     	sta	$d640                   ; 0xd640 <__heap_start+0x56a8>
    2f5d: b8           	clv
    2f5e: 90 05        	bcc	$2f65 <errhypfindfirst0>
    2f60: 85 04        	sta	$4                      ; 0x4 <__rc2>
    2f62: 4c 67 2f     	jmp	$2f67 <donehypfindfirst0>

00002f65 <errhypfindfirst0>:
    2f65: 85 04        	sta	$4                      ; 0x4 <__rc2>

00002f67 <donehypfindfirst0>:
    2f67: ea           	nop
    2f68: a6 04        	ldx	$4                      ; 0x4 <__rc2>
    2f6a: a0 5a        	ldy	#$5a
    2f6c: 84 04        	sty	$4                      ; 0x4 <__rc2>
    2f6e: a0 78        	ldy	#$78
    2f70: 84 05        	sty	$5                      ; 0x5 <__rc3>
    2f72: e0 88        	cpx	#$88
    2f74: d0 03        	bne	$2f79 <donehypfindfirst0+0x12>
    2f76: 4c 14 30     	jmp	$3014 <donehypclosefile3+0x3b>
    2f79: a9 18        	lda	#$18
    2f7b: 8d 40 d6     	sta	$d640                   ; 0xd640 <__heap_start+0x56a8>
    2f7e: b8           	clv
    2f7f: 90 05        	bcc	$2f86 <errhypopenfile1>
    2f81: 85 04        	sta	$4                      ; 0x4 <__rc2>
    2f83: 4c 88 2f     	jmp	$2f88 <donehypopenfile1>

00002f86 <errhypopenfile1>:
    2f86: 85 04        	sta	$4                      ; 0x4 <__rc2>

00002f88 <donehypopenfile1>:
    2f88: ea           	nop
    2f89: a6 04        	ldx	$4                      ; 0x4 <__rc2>
    2f8b: e0 84        	cpx	#$84
    2f8d: f0 0d        	beq	$2f9c <donehypopenfile1+0x14>
    2f8f: e0 86        	cpx	#$86
    2f91: d0 12        	bne	$2fa5 <donehypopenfile1+0x1d>
    2f93: a2 88        	ldx	#$88
    2f95: 86 04        	stx	$4                      ; 0x4 <__rc2>
    2f97: a2 77        	ldx	#$77
    2f99: 4c 12 30     	jmp	$3012 <donehypclosefile3+0x39>
    2f9c: a2 38        	ldx	#$38
    2f9e: 86 04        	stx	$4                      ; 0x4 <__rc2>
    2fa0: a2 78        	ldx	#$78
    2fa2: 4c 12 30     	jmp	$3012 <donehypclosefile3+0x39>
    2fa5: a9 1a        	lda	#$1a
    2fa7: 8d 40 d6     	sta	$d640                   ; 0xd640 <__heap_start+0x56a8>
    2faa: b8           	clv
    2fab: 90 05        	bcc	$2fb2 <errhypreadfile2>
    2fad: 85 04        	sta	$4                      ; 0x4 <__rc2>
    2faf: 4c b6 2f     	jmp	$2fb6 <donehypreadfile2>

00002fb2 <errhypreadfile2>:
    2fb2: a9 ff        	lda	#$ff
    2fb4: 85 04        	sta	$4                      ; 0x4 <__rc2>

00002fb6 <donehypreadfile2>:
    2fb6: ea           	nop
    2fb7: a4 04        	ldy	$4                      ; 0x4 <__rc2>
    2fb9: a9 bd        	lda	#$bd
    2fbb: 85 04        	sta	$4                      ; 0x4 <__rc2>
    2fbd: a9 79        	lda	#$79
    2fbf: 85 05        	sta	$5                      ; 0x5 <__rc3>
    2fc1: c0 89        	cpy	#$89
    2fc3: d0 03        	bne	$2fc8 <donehypreadfile2+0x12>
    2fc5: 4c 14 30     	jmp	$3014 <donehypclosefile3+0x3b>
    2fc8: a9 20        	lda	#$20
    2fca: 8d 40 d6     	sta	$d640                   ; 0xd640 <__heap_start+0x56a8>
    2fcd: b8           	clv
    2fce: 90 05        	bcc	$2fd5 <errhypclosefile3>
    2fd0: 85 04        	sta	$4                      ; 0x4 <__rc2>
    2fd2: 4c d9 2f     	jmp	$2fd9 <donehypclosefile3>

00002fd5 <errhypclosefile3>:
    2fd5: a9 ff        	lda	#$ff
    2fd7: 85 04        	sta	$4                      ; 0x4 <__rc2>

00002fd9 <donehypclosefile3>:
    2fd9: ea           	nop
    2fda: 64 04        	stz	$4                      ; 0x4 <__rc2>
    2fdc: 64 05        	stz	$5                      ; 0x5 <__rc3>
    2fde: 64 06        	stz	$6                      ; 0x6 <__rc4>
    2fe0: 64 07        	stz	$7                      ; 0x7 <__rc5>
    2fe2: a2 01        	ldx	#$1
    2fe4: 86 08        	stx	$8                      ; 0x8 <__rc6>
    2fe6: a2 18        	ldx	#$18
    2fe8: a9 00        	lda	#$0
    2fea: 20 0d 6a     	jsr	$6a0d <lfill>
    2fed: a2 fd        	ldx	#$fd
    2fef: 86 04        	stx	$4                      ; 0x4 <__rc2>
    2ff1: a2 0f        	ldx	#$f
    2ff3: 86 05        	stx	$5                      ; 0x5 <__rc3>
    2ff5: 64 06        	stz	$6                      ; 0x6 <__rc4>
    2ff7: a2 18        	ldx	#$18
    2ff9: 86 07        	stx	$7                      ; 0x7 <__rc5>
    2ffb: 64 08        	stz	$8                      ; 0x8 <__rc6>
    2ffd: 64 09        	stz	$9                      ; 0x9 <__rc7>
    2fff: 64 0a        	stz	$a                      ; 0xa <__zp_data_size>
    3001: a2 01        	ldx	#$1
    3003: 86 0b        	stx	$b                      ; 0xb <__rc9>
    3005: a2 6e        	ldx	#$6e
    3007: a9 16        	lda	#$16
    3009: 20 a6 69     	jsr	$69a6 <lcopy>
    300c: a2 00        	ldx	#$0
    300e: 86 04        	stx	$4                      ; 0x4 <__rc2>
    3010: a2 18        	ldx	#$18
    3012: 86 05        	stx	$5                      ; 0x5 <__rc3>
    3014: a6 16        	ldx	$16                     ; 0x16 <__rc20>
    3016: a9 1e        	lda	#$1e
    3018: 20 e7 56     	jsr	$56e7 <mcputsxy>
    301b: a4 17        	ldy	$17                     ; 0x17 <__rc21>
    301d: c8           	iny
    301e: a2 00        	ldx	#$0
    3020: c0 0a        	cpy	#$a
    3022: d0 03        	bne	$3027 <donehypclosefile3+0x4e>
    3024: 4c 0e 2f     	jmp	$2f0e <main+0xdf8>
    3027: c0 0b        	cpy	#$b
    3029: d0 03        	bne	$302e <donehypclosefile3+0x55>
    302b: 4c a3 35     	jmp	$35a3 <donehypclosefile3+0x5ca>
    302e: a9 00        	lda	#$0
    3030: 85 18        	sta	$18                     ; 0x18 <__rc22>
    3032: a9 1c        	lda	#$1c
    3034: 85 19        	sta	$19                     ; 0x19 <__rc23>
    3036: a9 00        	lda	#$0
    3038: 85 04        	sta	$4                      ; 0x4 <__rc2>
    303a: a9 1c        	lda	#$1c
    303c: 85 05        	sta	$5                      ; 0x5 <__rc3>
    303e: a9 b9        	lda	#$b9
    3040: 85 06        	sta	$6                      ; 0x6 <__rc4>
    3042: a9 78        	lda	#$78
    3044: 85 07        	sta	$7                      ; 0x7 <__rc5>
    3046: a9 0c        	lda	#$c
    3048: 84 16        	sty	$16                     ; 0x16 <__rc20>
    304a: 20 d5 6d     	jsr	$6dd5 <memcpy>
    304d: 18           	clc
    304e: a5 16        	lda	$16                     ; 0x16 <__rc20>
    3050: 69 30        	adc	#$30
    3052: 8d 06 1c     	sta	$1c06                   ; 0x1c06 <__heap_default_limit+0xc06>
    3055: a6 16        	ldx	$16                     ; 0x16 <__rc20>
    3057: 86 17        	stx	$17                     ; 0x17 <__rc21>
    3059: a5 16        	lda	$16                     ; 0x16 <__rc20>
    305b: 4c 30 2f     	jmp	$2f30 <main+0xe1a>
    305e: a2 4d        	ldx	#$4d
    3060: 86 04        	stx	$4                      ; 0x4 <__rc2>
    3062: a2 78        	ldx	#$78
    3064: 86 05        	stx	$5                      ; 0x5 <__rc3>
    3066: 20 ea 67     	jsr	$67ea <cputs>
    3069: 4c 7f 27     	jmp	$277f <main+0x669>
    306c: 48           	pha
    306d: 5a           	phy
    306e: a0 18        	ldy	#$18
    3070: b1 02        	lda	($2),y                  ; 0x2 <__rc0>
    3072: 7a           	ply
    3073: 85 04        	sta	$4                      ; 0x4 <__rc2>
    3075: 68           	pla
    3076: a6 20        	ldx	$20                     ; 0x20 <__rc30>
    3078: e4 04        	cpx	$4                      ; 0x4 <__rc2>
    307a: f0 03        	beq	$307f <donehypclosefile3+0xa6>
    307c: 4c 38 27     	jmp	$2738 <main+0x622>
    307f: 09 20        	ora	#$20
    3081: 4c 3a 27     	jmp	$273a <main+0x624>
    3084: c9 00        	cmp	#$0
    3086: 8a           	txa
    3087: 90 03        	bcc	$308c <donehypclosefile3+0xb3>
    3089: 4c 9f 2e     	jmp	$2e9f <main+0xd89>
    308c: 0a           	asl
    308d: aa           	tax
    308e: 7c 37 70     	jmp	($7037,x)               ; 0x7037 <__zp_data_load_start+0x5020>
    3091: 20 f9 66     	jsr	$66f9 <sidbong>
    3094: 4c 03 23     	jmp	$2303 <main+0x1ed>
    3097: a9 27        	lda	#$27
    3099: 18           	clc
    309a: 65 1c        	adc	$1c                     ; 0x1c <__rc26>
    309c: 85 04        	sta	$4                      ; 0x4 <__rc2>
    309e: a9 00        	lda	#$0
    30a0: 65 1b        	adc	$1b                     ; 0x1b <__rc25>
    30a2: 85 05        	sta	$5                      ; 0x5 <__rc3>
    30a4: b2 04        	lda	($4),z                  ; 0x4 <__rc2>
    30a6: 85 08        	sta	$8                      ; 0x8 <__rc6>
    30a8: b1 04        	lda	($4),y                  ; 0x4 <__rc2>
    30aa: 85 09        	sta	$9                      ; 0x9 <__rc7>
    30ac: a9 01        	lda	#$1
    30ae: a0 46        	ldy	#$46
    30b0: 31 08        	and	($8),y                  ; 0x8 <__rc6>
    30b2: d0 03        	bne	$30b7 <donehypclosefile3+0xde>
    30b4: 4c 01 31     	jmp	$3101 <donehypclosefile3+0x128>
    30b7: a0 18        	ldy	#$18
    30b9: b1 02        	lda	($2),y                  ; 0x2 <__rc0>
    30bb: 49 01        	eor	#$1
    30bd: a0 1c        	ldy	#$1c
    30bf: 91 02        	sta	($2),y                  ; 0x2 <__rc0>
    30c1: 0a           	asl
    30c2: 85 04        	sta	$4                      ; 0x4 <__rc2>
    30c4: a9 00        	lda	#$0
    30c6: 2a           	rol
    30c7: 85 05        	sta	$5                      ; 0x5 <__rc3>
    30c9: a9 27        	lda	#$27
    30cb: 18           	clc
    30cc: 65 04        	adc	$4                      ; 0x4 <__rc2>
    30ce: 85 04        	sta	$4                      ; 0x4 <__rc2>
    30d0: a9 00        	lda	#$0
    30d2: 65 05        	adc	$5                      ; 0x5 <__rc3>
    30d4: 85 05        	sta	$5                      ; 0x5 <__rc3>
    30d6: b2 04        	lda	($4),z                  ; 0x4 <__rc2>
    30d8: aa           	tax
    30d9: a0 01        	ldy	#$1
    30db: b1 04        	lda	($4),y                  ; 0x4 <__rc2>
    30dd: 86 06        	stx	$6                      ; 0x6 <__rc4>
    30df: a0 1b        	ldy	#$1b
    30e1: 91 02        	sta	($2),y                  ; 0x2 <__rc0>
    30e3: 85 07        	sta	$7                      ; 0x7 <__rc5>
    30e5: a9 01        	lda	#$1
    30e7: a0 46        	ldy	#$46
    30e9: 48           	pha
    30ea: 5a           	phy
    30eb: a5 06        	lda	$6                      ; 0x6 <__rc4>
    30ed: a0 1d        	ldy	#$1d
    30ef: 91 02        	sta	($2),y                  ; 0x2 <__rc0>
    30f1: a5 07        	lda	$7                      ; 0x7 <__rc5>
    30f3: c8           	iny
    30f4: 91 02        	sta	($2),y                  ; 0x2 <__rc0>
    30f6: 7a           	ply
    30f7: 68           	pla
    30f8: 31 06        	and	($6),y                  ; 0x6 <__rc4>
    30fa: 29 01        	and	#$1
    30fc: f0 03        	beq	$3101 <donehypclosefile3+0x128>
    30fe: 4c b4 36     	jmp	$36b4 <donehypclosefile3+0x6db>
    3101: a2 ff        	ldx	#$ff
    3103: 86 04        	stx	$4                      ; 0x4 <__rc2>
    3105: a2 70        	ldx	#$70
    3107: 86 05        	stx	$5                      ; 0x5 <__rc3>
    3109: a2 2b        	ldx	#$2b
    310b: 86 06        	stx	$6                      ; 0x6 <__rc4>
    310d: a2 71        	ldx	#$71
    310f: 86 07        	stx	$7                      ; 0x7 <__rc5>
    3111: a2 fd        	ldx	#$fd
    3113: 86 08        	stx	$8                      ; 0x8 <__rc6>
    3115: a2 70        	ldx	#$70
    3117: 86 09        	stx	$9                      ; 0x9 <__rc7>
    3119: 64 0a        	stz	$a                      ; 0xa <__zp_data_size>
    311b: 64 0b        	stz	$b                      ; 0xb <__rc9>
    311d: 64 0c        	stz	$c                      ; 0xc <__rc10>
    311f: a2 00        	ldx	#$0
    3121: 8a           	txa
    3122: 20 88 58     	jsr	$5888 <messagebox>
    3125: 4c 03 23     	jmp	$2303 <main+0x1ed>
    3128: ae 11 d6     	ldx	$d611                   ; 0xd611 <__heap_start+0x5679>
    312b: e0 01        	cpx	#$1
    312d: d0 03        	bne	$3132 <donehypclosefile3+0x159>
    312f: 4c 63 46     	jmp	$4663 <donehypchdir6+0x1e>
    3132: ae 11 d6     	ldx	$d611                   ; 0xd611 <__heap_start+0x5679>
    3135: e0 02        	cpx	#$2
    3137: f0 03        	beq	$313c <donehypclosefile3+0x163>
    3139: 4c 03 23     	jmp	$2303 <main+0x1ed>
    313c: 4c 63 46     	jmp	$4663 <donehypchdir6+0x1e>
    313f: a9 27        	lda	#$27
    3141: 18           	clc
    3142: 65 1c        	adc	$1c                     ; 0x1c <__rc26>
    3144: 85 04        	sta	$4                      ; 0x4 <__rc2>
    3146: a9 00        	lda	#$0
    3148: 65 1b        	adc	$1b                     ; 0x1b <__rc25>
    314a: 85 05        	sta	$5                      ; 0x5 <__rc3>
    314c: b2 04        	lda	($4),z                  ; 0x4 <__rc2>
    314e: 85 06        	sta	$6                      ; 0x6 <__rc4>
    3150: b1 04        	lda	($4),y                  ; 0x4 <__rc2>
    3152: 85 07        	sta	$7                      ; 0x7 <__rc5>
    3154: a9 01        	lda	#$1
    3156: a0 46        	ldy	#$46
    3158: 51 06        	eor	($6),y                  ; 0x6 <__rc4>
    315a: 91 06        	sta	($6),y                  ; 0x6 <__rc4>
    315c: a9 28        	lda	#$28
    315e: a0 47        	ldy	#$47
    3160: 91 06        	sta	($6),y                  ; 0x6 <__rc4>
    3162: b2 06        	lda	($6),z                  ; 0x6 <__rc4>
    3164: a6 1f        	ldx	$1f                     ; 0x1f <__rc29>
    3166: 20 07 5f     	jsr	$5f07 <UpdateSectors>
    3169: a5 1f        	lda	$1f                     ; 0x1f <__rc29>
    316b: 20 6c 65     	jsr	$656c <Deselect>
    316e: 4c 03 23     	jmp	$2303 <main+0x1ed>
    3171: a6 18        	ldx	$18                     ; 0x18 <__rc22>
    3173: 98           	tya
    3174: 20 e2 53     	jsr	$53e2 <tracksectorstring>
    3177: a6 19        	ldx	$19                     ; 0x19 <__rc23>
    3179: 86 04        	stx	$4                      ; 0x4 <__rc2>
    317b: 06 04        	asl	$4                      ; 0x4 <__rc2>
    317d: a5 1c        	lda	$1c                     ; 0x1c <__rc26>
    317f: 2a           	rol
    3180: 06 04        	asl	$4                      ; 0x4 <__rc2>
    3182: 2a           	rol
    3183: 18           	clc
    3184: 69 32        	adc	#$32
    3186: a2 e0        	ldx	#$e0
    3188: 86 04        	stx	$4                      ; 0x4 <__rc2>
    318a: a2 77        	ldx	#$77
    318c: 86 05        	stx	$5                      ; 0x5 <__rc3>
    318e: a2 08        	ldx	#$8
    3190: 86 06        	stx	$6                      ; 0x6 <__rc4>
    3192: a2 7b        	ldx	#$7b
    3194: 86 07        	stx	$7                      ; 0x7 <__rc5>
    3196: 20 df 59     	jsr	$59df <progress>
    3199: a5 19        	lda	$19                     ; 0x19 <__rc23>
    319b: 18           	clc
    319c: 69 3c        	adc	#$3c
    319e: a8           	tay
    319f: a5 1c        	lda	$1c                     ; 0x1c <__rc26>
    31a1: 69 00        	adc	#$0
    31a3: 85 04        	sta	$4                      ; 0x4 <__rc2>
    31a5: a9 00        	lda	#$0
    31a7: 69 08        	adc	#$8
    31a9: 85 05        	sta	$5                      ; 0x5 <__rc3>
    31ab: 64 06        	stz	$6                      ; 0x6 <__rc4>
    31ad: a2 18        	ldx	#$18
    31af: 86 07        	stx	$7                      ; 0x7 <__rc5>
    31b1: 64 08        	stz	$8                      ; 0x8 <__rc6>
    31b3: 64 09        	stz	$9                      ; 0x9 <__rc7>
    31b5: 64 0a        	stz	$a                      ; 0xa <__zp_data_size>
    31b7: a2 02        	ldx	#$2
    31b9: 86 0b        	stx	$b                      ; 0xb <__rc9>
    31bb: 5a           	phy
    31bc: fa           	plx
    31bd: a9 00        	lda	#$0
    31bf: 20 a6 69     	jsr	$69a6 <lcopy>
    31c2: a2 00        	ldx	#$0
    31c4: 86 04        	stx	$4                      ; 0x4 <__rc2>
    31c6: a2 18        	ldx	#$18
    31c8: 86 05        	stx	$5                      ; 0x5 <__rc3>
    31ca: a6 18        	ldx	$18                     ; 0x18 <__rc22>
    31cc: 86 06        	stx	$6                      ; 0x6 <__rc4>
    31ce: a6 17        	ldx	$17                     ; 0x17 <__rc21>
    31d0: a5 16        	lda	$16                     ; 0x16 <__rc20>
    31d2: 20 23 4c     	jsr	$4c23 <PutWholeSector>
    31d5: a4 17        	ldy	$17                     ; 0x17 <__rc21>
    31d7: 18           	clc
    31d8: a5 19        	lda	$19                     ; 0x19 <__rc23>
    31da: 69 02        	adc	#$2
    31dc: 85 19        	sta	$19                     ; 0x19 <__rc23>
    31de: a5 1c        	lda	$1c                     ; 0x1c <__rc26>
    31e0: 69 00        	adc	#$0
    31e2: 85 1c        	sta	$1c                     ; 0x1c <__rc26>
    31e4: 18           	clc
    31e5: a5 1d        	lda	$1d                     ; 0x1d <__zp_bss_size>
    31e7: 69 02        	adc	#$2
    31e9: c9 29        	cmp	#$29
    31eb: b0 2b        	bcs	$3218 <donehypclosefile3+0x23f>
    31ed: 85 1d        	sta	$1d                     ; 0x1d <__zp_bss_size>
    31ef: 85 18        	sta	$18                     ; 0x18 <__rc22>
    31f1: c6 18        	dec	$18                     ; 0x18 <__rc22>
    31f3: a9 02        	lda	#$2
    31f5: 25 30        	and	$30                     ; 0x30 <option.0>
    31f7: d0 03        	bne	$31fc <donehypclosefile3+0x223>
    31f9: 4c 71 31     	jmp	$3171 <donehypclosefile3+0x198>
    31fc: a6 18        	ldx	$18                     ; 0x18 <__rc22>
    31fe: 98           	tya
    31ff: 20 29 51     	jsr	$5129 <isallocatedBAMtracksector>
    3202: a4 17        	ldy	$17                     ; 0x17 <__rc21>
    3204: aa           	tax
    3205: f0 03        	beq	$320a <donehypclosefile3+0x231>
    3207: 4c 71 31     	jmp	$3171 <donehypclosefile3+0x198>
    320a: a6 1d        	ldx	$1d                     ; 0x1d <__zp_bss_size>
    320c: 98           	tya
    320d: 20 29 51     	jsr	$5129 <isallocatedBAMtracksector>
    3210: a4 17        	ldy	$17                     ; 0x17 <__rc21>
    3212: aa           	tax
    3213: f0 cf        	beq	$31e4 <donehypclosefile3+0x20b>
    3215: 4c 71 31     	jmp	$3171 <donehypclosefile3+0x198>
    3218: c8           	iny
    3219: c0 51        	cpy	#$51
    321b: d0 03        	bne	$3220 <donehypclosefile3+0x247>
    321d: 4c 04 46     	jmp	$4604 <donehypchdir5+0x51>
    3220: a9 01        	lda	#$1
    3222: 84 17        	sty	$17                     ; 0x17 <__rc21>
    3224: 4c e9 31     	jmp	$31e9 <donehypclosefile3+0x210>
    3227: c9 00        	cmp	#$0
    3229: 8a           	txa
    322a: 90 03        	bcc	$322f <donehypclosefile3+0x256>
    322c: 4c b6 2e     	jmp	$2eb6 <main+0xda0>
    322f: 0a           	asl
    3230: aa           	tax
    3231: 7c e5 6f     	jmp	($6fe5,x)               ; 0x6fe5 <__zp_data_load_start+0x4fce>
    3234: a9 27        	lda	#$27
    3236: 18           	clc
    3237: 65 1c        	adc	$1c                     ; 0x1c <__rc26>
    3239: 85 04        	sta	$4                      ; 0x4 <__rc2>
    323b: a9 00        	lda	#$0
    323d: 65 1b        	adc	$1b                     ; 0x1b <__rc25>
    323f: 85 05        	sta	$5                      ; 0x5 <__rc3>
    3241: b2 04        	lda	($4),z                  ; 0x4 <__rc2>
    3243: 85 1a        	sta	$1a                     ; 0x1a <__rc24>
    3245: b1 04        	lda	($4),y                  ; 0x4 <__rc2>
    3247: 85 1b        	sta	$1b                     ; 0x1b <__rc25>
    3249: a9 01        	lda	#$1
    324b: a0 46        	ldy	#$46
    324d: 31 1a        	and	($1a),y                 ; 0x1a <__rc24>
    324f: 29 01        	and	#$1
    3251: f0 03        	beq	$3256 <donehypclosefile3+0x27d>
    3253: 4c d8 3e     	jmp	$3ed8 <donehypclosefile3+0xeff>
    3256: 64 17        	stz	$17                     ; 0x17 <__rc21>
    3258: 64 1c        	stz	$1c                     ; 0x1c <__rc26>
    325a: a2 00        	ldx	#$0
    325c: e4 1c        	cpx	$1c                     ; 0x1c <__rc26>
    325e: d0 0b        	bne	$326b <donehypclosefile3+0x292>
    3260: a0 02        	ldy	#$2
    3262: b1 1a        	lda	($1a),y                 ; 0x1a <__rc24>
    3264: c5 17        	cmp	$17                     ; 0x17 <__rc21>
    3266: b0 0a        	bcs	$3272 <donehypclosefile3+0x299>
    3268: 4c 03 23     	jmp	$2303 <main+0x1ed>
    326b: e4 1c        	cpx	$1c                     ; 0x1c <__rc26>
    326d: b0 03        	bcs	$3272 <donehypclosefile3+0x299>
    326f: 4c 03 23     	jmp	$2303 <main+0x1ed>
    3272: a6 17        	ldx	$17                     ; 0x17 <__rc21>
    3274: a5 1f        	lda	$1f                     ; 0x1f <__rc29>
    3276: 20 6e 54     	jsr	$546e <getdirententry>
    3279: a9 10        	lda	#$10
    327b: a0 02        	ldy	#$2
    327d: 31 04        	and	($4),y                  ; 0x4 <__rc2>
    327f: f0 13        	beq	$3294 <donehypclosefile3+0x2bb>
    3281: a0 05        	ldy	#$5
    3283: b1 04        	lda	($4),y                  ; 0x4 <__rc2>
    3285: c9 2e        	cmp	#$2e
    3287: d0 0b        	bne	$3294 <donehypclosefile3+0x2bb>
    3289: a0 06        	ldy	#$6
    328b: b1 04        	lda	($4),y                  ; 0x4 <__rc2>
    328d: c9 2e        	cmp	#$2e
    328f: d0 03        	bne	$3294 <donehypclosefile3+0x2bb>
    3291: 4c 84 45     	jmp	$4584 <donehypd81detach4+0x184>
    3294: e6 17        	inc	$17                     ; 0x17 <__rc21>
    3296: f0 03        	beq	$329b <donehypclosefile3+0x2c2>
    3298: 4c 5a 32     	jmp	$325a <donehypclosefile3+0x281>
    329b: e6 1c        	inc	$1c                     ; 0x1c <__rc26>
    329d: 4c 5a 32     	jmp	$325a <donehypclosefile3+0x281>
    32a0: a2 00        	ldx	#$0
    32a2: a9 14        	lda	#$14
    32a4: 20 e0 5a     	jsr	$5ae0 <shortcuts>
    32a7: 80 03        	bra	$32ac <donehypclosefile3+0x2d3>
    32a9: 20 f9 66     	jsr	$66f9 <sidbong>
    32ac: a2 4c        	ldx	#$4c
    32ae: 86 04        	stx	$4                      ; 0x4 <__rc2>
    32b0: a2 18        	ldx	#$18
    32b2: 86 05        	stx	$5                      ; 0x5 <__rc3>
    32b4: a2 01        	ldx	#$1
    32b6: 86 06        	stx	$6                      ; 0x6 <__rc4>
    32b8: ca           	dex
    32b9: a9 04        	lda	#$4
    32bb: 20 fd 56     	jsr	$56fd <mcbox>
    32be: a9 20        	lda	#$20
    32c0: 05 2b        	ora	$2b                     ; 0x2b <g_curTextColor>
    32c2: 85 2b        	sta	$2b                     ; 0x2b <g_curTextColor>
    32c4: a2 73        	ldx	#$73
    32c6: 86 04        	stx	$4                      ; 0x4 <__rc2>
    32c8: a2 71        	ldx	#$71
    32ca: 86 05        	stx	$5                      ; 0x5 <__rc3>
    32cc: a2 00        	ldx	#$0
    32ce: a9 0e        	lda	#$e
    32d0: 20 e7 56     	jsr	$56e7 <mcputsxy>
    32d3: a2 92        	ldx	#$92
    32d5: 86 04        	stx	$4                      ; 0x4 <__rc2>
    32d7: a2 70        	ldx	#$70
    32d9: 86 05        	stx	$5                      ; 0x5 <__rc3>
    32db: a2 00        	ldx	#$0
    32dd: a9 1f        	lda	#$1f
    32df: 20 e7 56     	jsr	$56e7 <mcputsxy>
    32e2: a2 e5        	ldx	#$e5
    32e4: 86 04        	stx	$4                      ; 0x4 <__rc2>
    32e6: a2 74        	ldx	#$74
    32e8: 86 05        	stx	$5                      ; 0x5 <__rc3>
    32ea: a2 00        	ldx	#$0
    32ec: a9 28        	lda	#$28
    32ee: 20 e7 56     	jsr	$56e7 <mcputsxy>
    32f1: a9 df        	lda	#$df
    32f3: 25 2b        	and	$2b                     ; 0x2b <g_curTextColor>
    32f5: 85 2b        	sta	$2b                     ; 0x2b <g_curTextColor>
    32f7: a2 fd        	ldx	#$fd
    32f9: 86 04        	stx	$4                      ; 0x4 <__rc2>
    32fb: a2 70        	ldx	#$70
    32fd: 86 05        	stx	$5                      ; 0x5 <__rc3>
    32ff: a5 04        	lda	$4                      ; 0x4 <__rc2>
    3301: a0 23        	ldy	#$23
    3303: 91 02        	sta	($2),y                  ; 0x2 <__rc0>
    3305: a5 05        	lda	$5                      ; 0x5 <__rc3>
    3307: c8           	iny
    3308: 91 02        	sta	($2),y                  ; 0x2 <__rc0>
    330a: 88           	dey
    330b: b1 02        	lda	($2),y                  ; 0x2 <__rc0>
    330d: 85 04        	sta	$4                      ; 0x4 <__rc2>
    330f: c8           	iny
    3310: b1 02        	lda	($2),y                  ; 0x2 <__rc0>
    3312: 85 05        	sta	$5                      ; 0x5 <__rc3>
    3314: a2 18        	ldx	#$18
    3316: a9 07        	lda	#$7
    3318: 20 e7 56     	jsr	$56e7 <mcputsxy>
    331b: a2 f5        	ldx	#$f5
    331d: 86 04        	stx	$4                      ; 0x4 <__rc2>
    331f: a2 72        	ldx	#$72
    3321: 86 05        	stx	$5                      ; 0x5 <__rc3>
    3323: 20 d9 56     	jsr	$56d9 <msprintf>
    3326: a0 23        	ldy	#$23
    3328: b1 02        	lda	($2),y                  ; 0x2 <__rc0>
    332a: 85 04        	sta	$4                      ; 0x4 <__rc2>
    332c: c8           	iny
    332d: b1 02        	lda	($2),y                  ; 0x2 <__rc0>
    332f: 85 05        	sta	$5                      ; 0x5 <__rc3>
    3331: 20 d9 56     	jsr	$56d9 <msprintf>
    3334: a2 6a        	ldx	#$6a
    3336: 86 04        	stx	$4                      ; 0x4 <__rc2>
    3338: a2 78        	ldx	#$78
    333a: 86 05        	stx	$5                      ; 0x5 <__rc3>
    333c: a2 18        	ldx	#$18
    333e: a9 34        	lda	#$34
    3340: 20 e7 56     	jsr	$56e7 <mcputsxy>
    3343: a9 20        	lda	#$20
    3345: 05 2b        	ora	$2b                     ; 0x2b <g_curTextColor>
    3347: 85 2b        	sta	$2b                     ; 0x2b <g_curTextColor>
    3349: a2 17        	ldx	#$17
    334b: 86 04        	stx	$4                      ; 0x4 <__rc2>
    334d: a2 72        	ldx	#$72
    334f: 86 05        	stx	$5                      ; 0x5 <__rc3>
    3351: a2 02        	ldx	#$2
    3353: a9 06        	lda	#$6
    3355: 20 e7 56     	jsr	$56e7 <mcputsxy>
    3358: a6 2b        	ldx	$2b                     ; 0x2b <g_curTextColor>
    335a: 86 17        	stx	$17                     ; 0x17 <__rc21>
    335c: a9 df        	lda	#$df
    335e: 25 2b        	and	$2b                     ; 0x2b <g_curTextColor>
    3360: 85 2b        	sta	$2b                     ; 0x2b <g_curTextColor>
    3362: 85 16        	sta	$16                     ; 0x16 <__rc20>
    3364: a0 23        	ldy	#$23
    3366: b1 02        	lda	($2),y                  ; 0x2 <__rc0>
    3368: 85 04        	sta	$4                      ; 0x4 <__rc2>
    336a: c8           	iny
    336b: b1 02        	lda	($2),y                  ; 0x2 <__rc0>
    336d: 85 05        	sta	$5                      ; 0x5 <__rc3>
    336f: 20 d9 56     	jsr	$56d9 <msprintf>
    3372: a5 17        	lda	$17                     ; 0x17 <__rc21>
    3374: 09 20        	ora	#$20
    3376: 85 2b        	sta	$2b                     ; 0x2b <g_curTextColor>
    3378: a2 1e        	ldx	#$1e
    337a: 86 04        	stx	$4                      ; 0x4 <__rc2>
    337c: a2 72        	ldx	#$72
    337e: 86 05        	stx	$5                      ; 0x5 <__rc3>
    3380: 20 d9 56     	jsr	$56d9 <msprintf>
    3383: a6 16        	ldx	$16                     ; 0x16 <__rc20>
    3385: 86 2b        	stx	$2b                     ; 0x2b <g_curTextColor>
    3387: a2 43        	ldx	#$43
    3389: 86 04        	stx	$4                      ; 0x4 <__rc2>
    338b: a2 7a        	ldx	#$7a
    338d: 86 05        	stx	$5                      ; 0x5 <__rc3>
    338f: 20 d9 56     	jsr	$56d9 <msprintf>
    3392: a2 83        	ldx	#$83
    3394: 86 04        	stx	$4                      ; 0x4 <__rc2>
    3396: a2 71        	ldx	#$71
    3398: 86 05        	stx	$5                      ; 0x5 <__rc3>
    339a: a2 04        	ldx	#$4
    339c: a9 06        	lda	#$6
    339e: 20 e7 56     	jsr	$56e7 <mcputsxy>
    33a1: a2 3b        	ldx	#$3b
    33a3: 86 04        	stx	$4                      ; 0x4 <__rc2>
    33a5: a2 77        	ldx	#$77
    33a7: 86 05        	stx	$5                      ; 0x5 <__rc3>
    33a9: a2 05        	ldx	#$5
    33ab: a9 06        	lda	#$6
    33ad: 20 e7 56     	jsr	$56e7 <mcputsxy>
    33b0: a9 20        	lda	#$20
    33b2: 05 2b        	ora	$2b                     ; 0x2b <g_curTextColor>
    33b4: 85 2b        	sta	$2b                     ; 0x2b <g_curTextColor>
    33b6: a2 a4        	ldx	#$a4
    33b8: 86 04        	stx	$4                      ; 0x4 <__rc2>
    33ba: a2 77        	ldx	#$77
    33bc: 86 05        	stx	$5                      ; 0x5 <__rc3>
    33be: a2 07        	ldx	#$7
    33c0: a9 06        	lda	#$6
    33c2: 20 e7 56     	jsr	$56e7 <mcputsxy>
    33c5: a6 2b        	ldx	$2b                     ; 0x2b <g_curTextColor>
    33c7: 86 17        	stx	$17                     ; 0x17 <__rc21>
    33c9: a9 df        	lda	#$df
    33cb: 25 2b        	and	$2b                     ; 0x2b <g_curTextColor>
    33cd: 85 2b        	sta	$2b                     ; 0x2b <g_curTextColor>
    33cf: 85 16        	sta	$16                     ; 0x16 <__rc20>
    33d1: a0 23        	ldy	#$23
    33d3: b1 02        	lda	($2),y                  ; 0x2 <__rc0>
    33d5: 85 04        	sta	$4                      ; 0x4 <__rc2>
    33d7: c8           	iny
    33d8: b1 02        	lda	($2),y                  ; 0x2 <__rc0>
    33da: 85 05        	sta	$5                      ; 0x5 <__rc3>
    33dc: 20 d9 56     	jsr	$56d9 <msprintf>
    33df: a5 17        	lda	$17                     ; 0x17 <__rc21>
    33e1: 09 20        	ora	#$20
    33e3: 85 2b        	sta	$2b                     ; 0x2b <g_curTextColor>
    33e5: a2 ab        	ldx	#$ab
    33e7: 86 04        	stx	$4                      ; 0x4 <__rc2>
    33e9: a2 77        	ldx	#$77
    33eb: 86 05        	stx	$5                      ; 0x5 <__rc3>
    33ed: 20 d9 56     	jsr	$56d9 <msprintf>
    33f0: a6 16        	ldx	$16                     ; 0x16 <__rc20>
    33f2: 86 2b        	stx	$2b                     ; 0x2b <g_curTextColor>
    33f4: a2 81        	ldx	#$81
    33f6: 86 04        	stx	$4                      ; 0x4 <__rc2>
    33f8: a2 78        	ldx	#$78
    33fa: 86 05        	stx	$5                      ; 0x5 <__rc3>
    33fc: 20 d9 56     	jsr	$56d9 <msprintf>
    33ff: a2 02        	ldx	#$2
    3401: 86 04        	stx	$4                      ; 0x4 <__rc2>
    3403: a2 73        	ldx	#$73
    3405: 86 05        	stx	$5                      ; 0x5 <__rc3>
    3407: a2 08        	ldx	#$8
    3409: a9 06        	lda	#$6
    340b: 20 e7 56     	jsr	$56e7 <mcputsxy>
    340e: a6 2b        	ldx	$2b                     ; 0x2b <g_curTextColor>
    3410: 86 16        	stx	$16                     ; 0x16 <__rc20>
    3412: a9 40        	lda	#$40
    3414: 05 2b        	ora	$2b                     ; 0x2b <g_curTextColor>
    3416: 85 2b        	sta	$2b                     ; 0x2b <g_curTextColor>
    3418: a2 dc        	ldx	#$dc
    341a: 86 04        	stx	$4                      ; 0x4 <__rc2>
    341c: a2 72        	ldx	#$72
    341e: 86 05        	stx	$5                      ; 0x5 <__rc3>
    3420: 20 d9 56     	jsr	$56d9 <msprintf>
    3423: a5 16        	lda	$16                     ; 0x16 <__rc20>
    3425: 29 bf        	and	#$bf
    3427: 85 2b        	sta	$2b                     ; 0x2b <g_curTextColor>
    3429: a2 11        	ldx	#$11
    342b: 86 04        	stx	$4                      ; 0x4 <__rc2>
    342d: a2 78        	ldx	#$78
    342f: 86 05        	stx	$5                      ; 0x5 <__rc3>
    3431: 20 d9 56     	jsr	$56d9 <msprintf>
    3434: a2 c8        	ldx	#$c8
    3436: 86 04        	stx	$4                      ; 0x4 <__rc2>
    3438: a2 75        	ldx	#$75
    343a: 86 05        	stx	$5                      ; 0x5 <__rc3>
    343c: a2 09        	ldx	#$9
    343e: a9 06        	lda	#$6
    3440: 20 e7 56     	jsr	$56e7 <mcputsxy>
    3443: a9 20        	lda	#$20
    3445: 05 2b        	ora	$2b                     ; 0x2b <g_curTextColor>
    3447: 85 2b        	sta	$2b                     ; 0x2b <g_curTextColor>
    3449: a0 23        	ldy	#$23
    344b: b1 02        	lda	($2),y                  ; 0x2 <__rc0>
    344d: 85 04        	sta	$4                      ; 0x4 <__rc2>
    344f: c8           	iny
    3450: b1 02        	lda	($2),y                  ; 0x2 <__rc0>
    3452: 85 05        	sta	$5                      ; 0x5 <__rc3>
    3454: a2 0b        	ldx	#$b
    3456: a9 06        	lda	#$6
    3458: 20 e7 56     	jsr	$56e7 <mcputsxy>
    345b: a9 1f        	lda	#$1f
    345d: 20 40 67     	jsr	$6740 <cputc>
    3460: a0 23        	ldy	#$23
    3462: b1 02        	lda	($2),y                  ; 0x2 <__rc0>
    3464: 85 04        	sta	$4                      ; 0x4 <__rc2>
    3466: c8           	iny
    3467: b1 02        	lda	($2),y                  ; 0x2 <__rc0>
    3469: 85 05        	sta	$5                      ; 0x5 <__rc3>
    346b: 20 d9 56     	jsr	$56d9 <msprintf>
    346e: a6 2b        	ldx	$2b                     ; 0x2b <g_curTextColor>
    3470: 86 16        	stx	$16                     ; 0x16 <__rc20>
    3472: a9 df        	lda	#$df
    3474: 25 2b        	and	$2b                     ; 0x2b <g_curTextColor>
    3476: 85 2b        	sta	$2b                     ; 0x2b <g_curTextColor>
    3478: a2 e6        	ldx	#$e6
    347a: 86 04        	stx	$4                      ; 0x4 <__rc2>
    347c: a2 75        	ldx	#$75
    347e: 86 05        	stx	$5                      ; 0x5 <__rc3>
    3480: 20 d9 56     	jsr	$56d9 <msprintf>
    3483: a5 16        	lda	$16                     ; 0x16 <__rc20>
    3485: 09 20        	ora	#$20
    3487: 85 2b        	sta	$2b                     ; 0x2b <g_curTextColor>
    3489: a2 0b        	ldx	#$b
    348b: 86 04        	stx	$4                      ; 0x4 <__rc2>
    348d: a2 7a        	ldx	#$7a
    348f: 86 05        	stx	$5                      ; 0x5 <__rc3>
    3491: a2 0c        	ldx	#$c
    3493: a9 06        	lda	#$6
    3495: 20 e7 56     	jsr	$56e7 <mcputsxy>
    3498: a9 df        	lda	#$df
    349a: 25 2b        	and	$2b                     ; 0x2b <g_curTextColor>
    349c: 85 2b        	sta	$2b                     ; 0x2b <g_curTextColor>
    349e: a2 5b        	ldx	#$5b
    34a0: 86 04        	stx	$4                      ; 0x4 <__rc2>
    34a2: a2 79        	ldx	#$79
    34a4: 86 05        	stx	$5                      ; 0x5 <__rc3>
    34a6: 20 d9 56     	jsr	$56d9 <msprintf>
    34a9: a2 9c        	ldx	#$9c
    34ab: 86 04        	stx	$4                      ; 0x4 <__rc2>
    34ad: a2 76        	ldx	#$76
    34af: 86 05        	stx	$5                      ; 0x5 <__rc3>
    34b1: a2 0e        	ldx	#$e
    34b3: a9 06        	lda	#$6
    34b5: 20 e7 56     	jsr	$56e7 <mcputsxy>
    34b8: a2 4e        	ldx	#$4e
    34ba: 86 04        	stx	$4                      ; 0x4 <__rc2>
    34bc: a2 75        	ldx	#$75
    34be: 86 05        	stx	$5                      ; 0x5 <__rc3>
    34c0: a2 0f        	ldx	#$f
    34c2: a9 06        	lda	#$6
    34c4: 20 e7 56     	jsr	$56e7 <mcputsxy>
    34c7: a2 59        	ldx	#$59
    34c9: 86 04        	stx	$4                      ; 0x4 <__rc2>
    34cb: a2 70        	ldx	#$70
    34cd: 86 05        	stx	$5                      ; 0x5 <__rc3>
    34cf: a2 10        	ldx	#$10
    34d1: a9 06        	lda	#$6
    34d3: 20 e7 56     	jsr	$56e7 <mcputsxy>
    34d6: a9 20        	lda	#$20
    34d8: 05 2b        	ora	$2b                     ; 0x2b <g_curTextColor>
    34da: 85 2b        	sta	$2b                     ; 0x2b <g_curTextColor>
    34dc: a2 8e        	ldx	#$8e
    34de: 86 04        	stx	$4                      ; 0x4 <__rc2>
    34e0: a2 79        	ldx	#$79
    34e2: 86 05        	stx	$5                      ; 0x5 <__rc3>
    34e4: a2 12        	ldx	#$12
    34e6: a9 06        	lda	#$6
    34e8: 20 e7 56     	jsr	$56e7 <mcputsxy>
    34eb: a6 2b        	ldx	$2b                     ; 0x2b <g_curTextColor>
    34ed: 86 17        	stx	$17                     ; 0x17 <__rc21>
    34ef: a9 df        	lda	#$df
    34f1: 25 2b        	and	$2b                     ; 0x2b <g_curTextColor>
    34f3: 85 2b        	sta	$2b                     ; 0x2b <g_curTextColor>
    34f5: 85 16        	sta	$16                     ; 0x16 <__rc20>
    34f7: a2 94        	ldx	#$94
    34f9: 86 04        	stx	$4                      ; 0x4 <__rc2>
    34fb: a2 73        	ldx	#$73
    34fd: 86 05        	stx	$5                      ; 0x5 <__rc3>
    34ff: 20 d9 56     	jsr	$56d9 <msprintf>
    3502: a5 17        	lda	$17                     ; 0x17 <__rc21>
    3504: 09 20        	ora	#$20
    3506: 85 2b        	sta	$2b                     ; 0x2b <g_curTextColor>
    3508: 85 17        	sta	$17                     ; 0x17 <__rc21>
    350a: a2 52        	ldx	#$52
    350c: 86 04        	stx	$4                      ; 0x4 <__rc2>
    350e: a2 78        	ldx	#$78
    3510: 86 05        	stx	$5                      ; 0x5 <__rc3>
    3512: 20 d9 56     	jsr	$56d9 <msprintf>
    3515: a6 16        	ldx	$16                     ; 0x16 <__rc20>
    3517: 86 2b        	stx	$2b                     ; 0x2b <g_curTextColor>
    3519: a0 23        	ldy	#$23
    351b: b1 02        	lda	($2),y                  ; 0x2 <__rc0>
    351d: 85 04        	sta	$4                      ; 0x4 <__rc2>
    351f: c8           	iny
    3520: b1 02        	lda	($2),y                  ; 0x2 <__rc0>
    3522: 85 05        	sta	$5                      ; 0x5 <__rc3>
    3524: 20 d9 56     	jsr	$56d9 <msprintf>
    3527: a6 17        	ldx	$17                     ; 0x17 <__rc21>
    3529: 86 2b        	stx	$2b                     ; 0x2b <g_curTextColor>
    352b: a2 6f        	ldx	#$6f
    352d: 86 04        	stx	$4                      ; 0x4 <__rc2>
    352f: a2 73        	ldx	#$73
    3531: 86 05        	stx	$5                      ; 0x5 <__rc3>
    3533: 20 d9 56     	jsr	$56d9 <msprintf>
    3536: a6 16        	ldx	$16                     ; 0x16 <__rc20>
    3538: 86 2b        	stx	$2b                     ; 0x2b <g_curTextColor>
    353a: a2 e1        	ldx	#$e1
    353c: 86 04        	stx	$4                      ; 0x4 <__rc2>
    353e: a2 76        	ldx	#$76
    3540: 86 05        	stx	$5                      ; 0x5 <__rc3>
    3542: 20 d9 56     	jsr	$56d9 <msprintf>
    3545: a2 97        	ldx	#$97
    3547: 86 04        	stx	$4                      ; 0x4 <__rc2>
    3549: a2 73        	ldx	#$73
    354b: 86 05        	stx	$5                      ; 0x5 <__rc3>
    354d: a2 13        	ldx	#$13
    354f: a9 06        	lda	#$6
    3551: 20 e7 56     	jsr	$56e7 <mcputsxy>
    3554: a2 2c        	ldx	#$2c
    3556: 86 04        	stx	$4                      ; 0x4 <__rc2>
    3558: a2 73        	ldx	#$73
    355a: 86 05        	stx	$5                      ; 0x5 <__rc3>
    355c: a2 14        	ldx	#$14
    355e: a9 06        	lda	#$6
    3560: 20 e7 56     	jsr	$56e7 <mcputsxy>
    3563: a9 20        	lda	#$20
    3565: 05 2b        	ora	$2b                     ; 0x2b <g_curTextColor>
    3567: 85 2b        	sta	$2b                     ; 0x2b <g_curTextColor>
    3569: a2 8b        	ldx	#$8b
    356b: 86 04        	stx	$4                      ; 0x4 <__rc2>
    356d: a2 73        	ldx	#$73
    356f: 86 05        	stx	$5                      ; 0x5 <__rc3>
    3571: a2 16        	ldx	#$16
    3573: a9 24        	lda	#$24
    3575: 20 e7 56     	jsr	$56e7 <mcputsxy>
    3578: a9 df        	lda	#$df
    357a: 25 2b        	and	$2b                     ; 0x2b <g_curTextColor>
    357c: 85 2b        	sta	$2b                     ; 0x2b <g_curTextColor>
    357e: 20 76 69     	jsr	$6976 <cgetc>
    3581: c9 03        	cmp	#$3
    3583: d0 03        	bne	$3588 <donehypclosefile3+0x5af>
    3585: 4c 03 23     	jmp	$2303 <main+0x1ed>
    3588: c9 0d        	cmp	#$d
    358a: d0 03        	bne	$358f <donehypclosefile3+0x5b6>
    358c: 4c 03 23     	jmp	$2303 <main+0x1ed>
    358f: c9 1b        	cmp	#$1b
    3591: d0 03        	bne	$3596 <donehypclosefile3+0x5bd>
    3593: 4c 03 23     	jmp	$2303 <main+0x1ed>
    3596: c9 20        	cmp	#$20
    3598: f0 03        	beq	$359d <donehypclosefile3+0x5c4>
    359a: 4c a9 32     	jmp	$32a9 <donehypclosefile3+0x2d0>
    359d: 4c 03 23     	jmp	$2303 <main+0x1ed>
    35a0: 20 f9 66     	jsr	$66f9 <sidbong>
    35a3: 20 76 69     	jsr	$6976 <cgetc>
    35a6: c9 03        	cmp	#$3
    35a8: d0 03        	bne	$35ad <donehypclosefile3+0x5d4>
    35aa: 4c 03 23     	jmp	$2303 <main+0x1ed>
    35ad: c9 0d        	cmp	#$d
    35af: d0 03        	bne	$35b4 <donehypclosefile3+0x5db>
    35b1: 4c 03 23     	jmp	$2303 <main+0x1ed>
    35b4: c9 1b        	cmp	#$1b
    35b6: d0 03        	bne	$35bb <donehypclosefile3+0x5e2>
    35b8: 4c 03 23     	jmp	$2303 <main+0x1ed>
    35bb: c9 20        	cmp	#$20
    35bd: d0 e1        	bne	$35a0 <donehypclosefile3+0x5c7>
    35bf: 4c 03 23     	jmp	$2303 <main+0x1ed>
    35c2: a9 43        	lda	#$43
    35c4: a6 06        	ldx	$6                      ; 0x6 <__rc4>
    35c6: 9d 08 7b     	sta	$7b08,x                 ; 0x7b08 <s>
    35c9: 3a           	dec
    35ca: 99 08 7b     	sta	$7b08,y                 ; 0x7b08 <s>
    35cd: a9 4d        	lda	#$4d
    35cf: 4c be 26     	jmp	$26be <main+0x5a8>
    35d2: a9 55        	lda	#$55
    35d4: a6 06        	ldx	$6                      ; 0x6 <__rc4>
    35d6: 9d 08 7b     	sta	$7b08,x                 ; 0x7b08 <s>
    35d9: a9 53        	lda	#$53
    35db: 99 08 7b     	sta	$7b08,y                 ; 0x7b08 <s>
    35de: 3a           	dec
    35df: 4c be 26     	jmp	$26be <main+0x5a8>
    35e2: a9 52        	lda	#$52
    35e4: 4c b2 26     	jmp	$26b2 <main+0x59c>
    35e7: a9 53        	lda	#$53
    35e9: a6 06        	ldx	$6                      ; 0x6 <__rc4>
    35eb: 9d 08 7b     	sta	$7b08,x                 ; 0x7b08 <s>
    35ee: a9 45        	lda	#$45
    35f0: 99 08 7b     	sta	$7b08,y                 ; 0x7b08 <s>
    35f3: a9 51        	lda	#$51
    35f5: 4c be 26     	jmp	$26be <main+0x5a8>
    35f8: a9 50        	lda	#$50
    35fa: a6 06        	ldx	$6                      ; 0x6 <__rc4>
    35fc: 9d 08 7b     	sta	$7b08,x                 ; 0x7b08 <s>
    35ff: a9 52        	lda	#$52
    3601: 99 08 7b     	sta	$7b08,y                 ; 0x7b08 <s>
    3604: a9 47        	lda	#$47
    3606: 4c be 26     	jmp	$26be <main+0x5a8>
    3609: a2 fd        	ldx	#$fd
    360b: 86 04        	stx	$4                      ; 0x4 <__rc2>
    360d: a2 70        	ldx	#$70
    360f: 86 05        	stx	$5                      ; 0x5 <__rc3>
    3611: a5 04        	lda	$4                      ; 0x4 <__rc2>
    3613: a0 23        	ldy	#$23
    3615: 91 02        	sta	($2),y                  ; 0x2 <__rc0>
    3617: a5 05        	lda	$5                      ; 0x5 <__rc3>
    3619: c8           	iny
    361a: 91 02        	sta	($2),y                  ; 0x2 <__rc0>
    361c: 88           	dey
    361d: b1 02        	lda	($2),y                  ; 0x2 <__rc0>
    361f: 85 04        	sta	$4                      ; 0x4 <__rc2>
    3621: c8           	iny
    3622: b1 02        	lda	($2),y                  ; 0x2 <__rc0>
    3624: 85 05        	sta	$5                      ; 0x5 <__rc3>
    3626: 88           	dey
    3627: b1 02        	lda	($2),y                  ; 0x2 <__rc0>
    3629: 85 06        	sta	$6                      ; 0x6 <__rc4>
    362b: c8           	iny
    362c: b1 02        	lda	($2),y                  ; 0x2 <__rc0>
    362e: 85 07        	sta	$7                      ; 0x7 <__rc5>
    3630: 88           	dey
    3631: b1 02        	lda	($2),y                  ; 0x2 <__rc0>
    3633: 85 08        	sta	$8                      ; 0x8 <__rc6>
    3635: c8           	iny
    3636: b1 02        	lda	($2),y                  ; 0x2 <__rc0>
    3638: 85 09        	sta	$9                      ; 0x9 <__rc7>
    363a: 64 0a        	stz	$a                      ; 0xa <__zp_data_size>
    363c: 64 0b        	stz	$b                      ; 0xb <__rc9>
    363e: 64 0c        	stz	$c                      ; 0xc <__rc10>
    3640: a2 00        	ldx	#$0
    3642: a9 02        	lda	#$2
    3644: 20 88 58     	jsr	$5888 <messagebox>
    3647: a2 93        	ldx	#$93
    3649: 86 04        	stx	$4                      ; 0x4 <__rc2>
    364b: a2 79        	ldx	#$79
    364d: 86 05        	stx	$5                      ; 0x5 <__rc3>
    364f: a2 59        	ldx	#$59
    3651: 86 06        	stx	$6                      ; 0x6 <__rc4>
    3653: a2 73        	ldx	#$73
    3655: 86 07        	stx	$7                      ; 0x7 <__rc5>
    3657: a9 14        	lda	#$14
    3659: 20 df 59     	jsr	$59df <progress>
    365c: a9 27        	lda	#$27
    365e: 18           	clc
    365f: 65 1c        	adc	$1c                     ; 0x1c <__rc26>
    3661: 85 04        	sta	$4                      ; 0x4 <__rc2>
    3663: a9 00        	lda	#$0
    3665: 65 1b        	adc	$1b                     ; 0x1b <__rc25>
    3667: 85 05        	sta	$5                      ; 0x5 <__rc3>
    3669: b2 04        	lda	($4),z                  ; 0x4 <__rc2>
    366b: aa           	tax
    366c: a0 01        	ldy	#$1
    366e: b1 04        	lda	($4),y                  ; 0x4 <__rc2>
    3670: 86 04        	stx	$4                      ; 0x4 <__rc2>
    3672: 85 05        	sta	$5                      ; 0x5 <__rc3>
    3674: b2 04        	lda	($4),z                  ; 0x4 <__rc2>
    3676: a6 1f        	ldx	$1f                     ; 0x1f <__rc29>
    3678: 20 07 5f     	jsr	$5f07 <UpdateSectors>
    367b: a5 1f        	lda	$1f                     ; 0x1f <__rc29>
    367d: 20 6c 65     	jsr	$656c <Deselect>
    3680: a5 1f        	lda	$1f                     ; 0x1f <__rc29>
    3682: 49 01        	eor	#$1
    3684: 85 16        	sta	$16                     ; 0x16 <__rc20>
    3686: 0a           	asl
    3687: 85 04        	sta	$4                      ; 0x4 <__rc2>
    3689: a9 00        	lda	#$0
    368b: 2a           	rol
    368c: 85 05        	sta	$5                      ; 0x5 <__rc3>
    368e: a9 27        	lda	#$27
    3690: 18           	clc
    3691: 65 04        	adc	$4                      ; 0x4 <__rc2>
    3693: 85 04        	sta	$4                      ; 0x4 <__rc2>
    3695: a9 00        	lda	#$0
    3697: 65 05        	adc	$5                      ; 0x5 <__rc3>
    3699: 85 05        	sta	$5                      ; 0x5 <__rc3>
    369b: b2 04        	lda	($4),z                  ; 0x4 <__rc2>
    369d: 85 06        	sta	$6                      ; 0x6 <__rc4>
    369f: a0 01        	ldy	#$1
    36a1: b1 04        	lda	($4),y                  ; 0x4 <__rc2>
    36a3: 85 07        	sta	$7                      ; 0x7 <__rc5>
    36a5: b2 06        	lda	($6),z                  ; 0x6 <__rc4>
    36a7: a6 16        	ldx	$16                     ; 0x16 <__rc20>
    36a9: 20 07 5f     	jsr	$5f07 <UpdateSectors>
    36ac: a5 16        	lda	$16                     ; 0x16 <__rc20>
    36ae: 20 6c 65     	jsr	$656c <Deselect>
    36b1: 4c 03 23     	jmp	$2303 <main+0x1ed>
    36b4: 86 1f        	stx	$1f                     ; 0x1f <__rc29>
    36b6: a5 08        	lda	$8                      ; 0x8 <__rc6>
    36b8: a0 1f        	ldy	#$1f
    36ba: 91 02        	sta	($2),y                  ; 0x2 <__rc0>
    36bc: a5 09        	lda	$9                      ; 0x9 <__rc7>
    36be: c8           	iny
    36bf: 91 02        	sta	($2),y                  ; 0x2 <__rc0>
    36c1: a0 01        	ldy	#$1
    36c3: b1 08        	lda	($8),y                  ; 0x8 <__rc6>
    36c5: aa           	tax
    36c6: a0 18        	ldy	#$18
    36c8: b1 02        	lda	($2),y                  ; 0x2 <__rc0>
    36ca: 20 6e 54     	jsr	$546e <getdirententry>
    36cd: a6 04        	ldx	$4                      ; 0x4 <__rc2>
    36cf: 86 06        	stx	$6                      ; 0x6 <__rc4>
    36d1: a6 05        	ldx	$5                      ; 0x5 <__rc3>
    36d3: 86 07        	stx	$7                      ; 0x7 <__rc5>
    36d5: a0 02        	ldy	#$2
    36d7: b1 04        	lda	($4),y                  ; 0x4 <__rc2>
    36d9: a8           	tay
    36da: 29 0f        	and	#$f
    36dc: f0 07        	beq	$36e5 <donehypclosefile3+0x70c>
    36de: c9 05        	cmp	#$5
    36e0: f0 03        	beq	$36e5 <donehypclosefile3+0x70c>
    36e2: 4c e3 3e     	jmp	$3ee3 <donehypclosefile3+0xf0a>
    36e5: a5 06        	lda	$6                      ; 0x6 <__rc4>
    36e7: 18           	clc
    36e8: 69 05        	adc	#$5
    36ea: 85 06        	sta	$6                      ; 0x6 <__rc4>
    36ec: a5 07        	lda	$7                      ; 0x7 <__rc5>
    36ee: 69 00        	adc	#$0
    36f0: 85 07        	sta	$7                      ; 0x7 <__rc5>
    36f2: a2 1f        	ldx	#$1f
    36f4: 86 04        	stx	$4                      ; 0x4 <__rc2>
    36f6: a2 78        	ldx	#$78
    36f8: 86 05        	stx	$5                      ; 0x5 <__rc3>
    36fa: a2 e5        	ldx	#$e5
    36fc: 86 08        	stx	$8                      ; 0x8 <__rc6>
    36fe: a2 73        	ldx	#$73
    3700: 4c 17 31     	jmp	$3117 <donehypclosefile3+0x13e>
    3703: c9 00        	cmp	#$0
    3705: 8a           	txa
    3706: 90 03        	bcc	$370b <donehypclosefile3+0x732>
    3708: 4c cd 2e     	jmp	$2ecd <main+0xdb7>
    370b: 0a           	asl
    370c: aa           	tax
    370d: 7c 4b 70     	jmp	($704b,x)               ; 0x704b <__zp_data_load_start+0x5034>
    3710: c0 70        	cpy	#$70
    3712: d0 03        	bne	$3717 <donehypclosefile3+0x73e>
    3714: 4c cd 46     	jmp	$46cd <donehypchdir6+0x88>
    3717: a9 01        	lda	#$1
    3719: 31 04        	and	($4),y                  ; 0x4 <__rc2>
    371b: d0 03        	bne	$3720 <donehypclosefile3+0x747>
    371d: 4c c3 3d     	jmp	$3dc3 <donehypclosefile3+0xdea>
    3720: 5a           	phy
    3721: a5 04        	lda	$4                      ; 0x4 <__rc2>
    3723: a0 12        	ldy	#$12
    3725: 91 02        	sta	($2),y                  ; 0x2 <__rc0>
    3727: a5 05        	lda	$5                      ; 0x5 <__rc3>
    3729: c8           	iny
    372a: 91 02        	sta	($2),y                  ; 0x2 <__rc0>
    372c: 7a           	ply
    372d: 98           	tya
    372e: 5a           	phy
    372f: a0 11        	ldy	#$11
    3731: 91 02        	sta	($2),y                  ; 0x2 <__rc0>
    3733: 7a           	ply
    3734: 5a           	phy
    3735: fa           	plx
    3736: a0 18        	ldy	#$18
    3738: b1 02        	lda	($2),y                  ; 0x2 <__rc0>
    373a: 20 6e 54     	jsr	$546e <getdirententry>
    373d: a6 04        	ldx	$4                      ; 0x4 <__rc2>
    373f: 86 16        	stx	$16                     ; 0x16 <__rc20>
    3741: a6 05        	ldx	$5                      ; 0x5 <__rc3>
    3743: 86 17        	stx	$17                     ; 0x17 <__rc21>
    3745: a2 93        	ldx	#$93
    3747: 86 04        	stx	$4                      ; 0x4 <__rc2>
    3749: a2 79        	ldx	#$79
    374b: 86 05        	stx	$5                      ; 0x5 <__rc3>
    374d: a5 04        	lda	$4                      ; 0x4 <__rc2>
    374f: a0 23        	ldy	#$23
    3751: 91 02        	sta	($2),y                  ; 0x2 <__rc0>
    3753: a5 05        	lda	$5                      ; 0x5 <__rc3>
    3755: c8           	iny
    3756: 91 02        	sta	($2),y                  ; 0x2 <__rc0>
    3758: 88           	dey
    3759: b1 02        	lda	($2),y                  ; 0x2 <__rc0>
    375b: 85 04        	sta	$4                      ; 0x4 <__rc2>
    375d: c8           	iny
    375e: b1 02        	lda	($2),y                  ; 0x2 <__rc0>
    3760: 85 05        	sta	$5                      ; 0x5 <__rc3>
    3762: a2 ea        	ldx	#$ea
    3764: 86 06        	stx	$6                      ; 0x6 <__rc4>
    3766: a2 78        	ldx	#$78
    3768: 86 07        	stx	$7                      ; 0x7 <__rc5>
    376a: a9 14        	lda	#$14
    376c: 20 df 59     	jsr	$59df <progress>
    376f: a0 1f        	ldy	#$1f
    3771: b1 02        	lda	($2),y                  ; 0x2 <__rc0>
    3773: 85 04        	sta	$4                      ; 0x4 <__rc2>
    3775: c8           	iny
    3776: b1 02        	lda	($2),y                  ; 0x2 <__rc0>
    3778: 85 05        	sta	$5                      ; 0x5 <__rc3>
    377a: b2 04        	lda	($4),z                  ; 0x4 <__rc2>
    377c: 85 08        	sta	$8                      ; 0x8 <__rc6>
    377e: a0 03        	ldy	#$3
    3780: b1 16        	lda	($16),y                 ; 0x16 <__rc20>
    3782: 85 09        	sta	$9                      ; 0x9 <__rc7>
    3784: a5 16        	lda	$16                     ; 0x16 <__rc20>
    3786: a0 21        	ldy	#$21
    3788: 91 02        	sta	($2),y                  ; 0x2 <__rc0>
    378a: a5 17        	lda	$17                     ; 0x17 <__rc21>
    378c: c8           	iny
    378d: 91 02        	sta	($2),y                  ; 0x2 <__rc0>
    378f: a0 04        	ldy	#$4
    3791: b1 16        	lda	($16),y                 ; 0x16 <__rc20>
    3793: 64 04        	stz	$4                      ; 0x4 <__rc2>
    3795: a2 08        	ldx	#$8
    3797: 86 05        	stx	$5                      ; 0x5 <__rc3>
    3799: a2 80        	ldx	#$80
    379b: 86 06        	stx	$6                      ; 0x6 <__rc4>
    379d: a2 0c        	ldx	#$c
    379f: 86 07        	stx	$7                      ; 0x7 <__rc5>
    37a1: 85 0a        	sta	$a                      ; 0xa <__zp_data_size>
    37a3: a2 3c        	ldx	#$3c
    37a5: a9 00        	lda	#$0
    37a7: 20 8d 4d     	jsr	$4d8d <readblockchain>
    37aa: a0 23        	ldy	#$23
    37ac: b1 02        	lda	($2),y                  ; 0x2 <__rc0>
    37ae: 85 04        	sta	$4                      ; 0x4 <__rc2>
    37b0: c8           	iny
    37b1: b1 02        	lda	($2),y                  ; 0x2 <__rc0>
    37b3: 85 05        	sta	$5                      ; 0x5 <__rc3>
    37b5: a2 59        	ldx	#$59
    37b7: 86 06        	stx	$6                      ; 0x6 <__rc4>
    37b9: a2 73        	ldx	#$73
    37bb: 86 07        	stx	$7                      ; 0x7 <__rc5>
    37bd: a9 1e        	lda	#$1e
    37bf: 20 df 59     	jsr	$59df <progress>
    37c2: a0 1c        	ldy	#$1c
    37c4: b1 02        	lda	($2),y                  ; 0x2 <__rc0>
    37c6: 20 f8 4c     	jsr	$4cf8 <GetBAM>
    37c9: a2 e0        	ldx	#$e0
    37cb: 86 04        	stx	$4                      ; 0x4 <__rc2>
    37cd: a2 77        	ldx	#$77
    37cf: 86 05        	stx	$5                      ; 0x5 <__rc3>
    37d1: a2 44        	ldx	#$44
    37d3: 86 06        	stx	$6                      ; 0x6 <__rc4>
    37d5: a2 71        	ldx	#$71
    37d7: 86 07        	stx	$7                      ; 0x7 <__rc5>
    37d9: a9 28        	lda	#$28
    37db: 20 df 59     	jsr	$59df <progress>
    37de: a0 1d        	ldy	#$1d
    37e0: b1 02        	lda	($2),y                  ; 0x2 <__rc0>
    37e2: 85 04        	sta	$4                      ; 0x4 <__rc2>
    37e4: c8           	iny
    37e5: b1 02        	lda	($2),y                  ; 0x2 <__rc0>
    37e7: 85 05        	sta	$5                      ; 0x5 <__rc3>
    37e9: b2 04        	lda	($4),z                  ; 0x4 <__rc2>
    37eb: a0 16        	ldy	#$16
    37ed: 91 02        	sta	($2),y                  ; 0x2 <__rc0>
    37ef: 18           	clc
    37f0: a5 02        	lda	$2                      ; 0x2 <__rc0>
    37f2: 69 28        	adc	#$28
    37f4: 85 1a        	sta	$1a                     ; 0x1a <__rc24>
    37f6: a5 03        	lda	$3                      ; 0x3 <__rc1>
    37f8: 69 00        	adc	#$0
    37fa: 85 1b        	sta	$1b                     ; 0x1b <__rc25>
    37fc: a9 00        	lda	#$0
    37fe: 92 1a        	sta	($1a),z                 ; 0x1a <__rc24>
    3800: 18           	clc
    3801: a5 02        	lda	$2                      ; 0x2 <__rc0>
    3803: 69 27        	adc	#$27
    3805: 85 1c        	sta	$1c                     ; 0x1c <__rc26>
    3807: a5 03        	lda	$3                      ; 0x3 <__rc1>
    3809: 69 00        	adc	#$0
    380b: 85 1d        	sta	$1d                     ; 0x1d <__zp_bss_size>
    380d: a9 ff        	lda	#$ff
    380f: aa           	tax
    3810: 48           	pha
    3811: 8a           	txa
    3812: a0 23        	ldy	#$23
    3814: 91 02        	sta	($2),y                  ; 0x2 <__rc0>
    3816: 68           	pla
    3817: 92 1c        	sta	($1c),z                 ; 0x1c <__rc26>
    3819: 18           	clc
    381a: a5 02        	lda	$2                      ; 0x2 <__rc0>
    381c: 69 26        	adc	#$26
    381e: 85 1e        	sta	$1e                     ; 0x1e <__rc28>
    3820: a5 03        	lda	$3                      ; 0x3 <__rc1>
    3822: 69 00        	adc	#$0
    3824: 85 1f        	sta	$1f                     ; 0x1f <__rc29>
    3826: a6 1e        	ldx	$1e                     ; 0x1e <__rc28>
    3828: 86 04        	stx	$4                      ; 0x4 <__rc2>
    382a: 85 05        	sta	$5                      ; 0x5 <__rc3>
    382c: 18           	clc
    382d: a5 02        	lda	$2                      ; 0x2 <__rc0>
    382f: 69 25        	adc	#$25
    3831: 85 20        	sta	$20                     ; 0x20 <__rc30>
    3833: a5 03        	lda	$3                      ; 0x3 <__rc1>
    3835: 69 00        	adc	#$0
    3837: 85 21        	sta	$21                     ; 0x21 <__rc31>
    3839: a6 20        	ldx	$20                     ; 0x20 <__rc30>
    383b: 86 06        	stx	$6                      ; 0x6 <__rc4>
    383d: 85 07        	sta	$7                      ; 0x7 <__rc5>
    383f: a9 00        	lda	#$0
    3841: 20 c9 52     	jsr	$52c9 <findnextBAMtracksector>
    3844: b2 1e        	lda	($1e),z                 ; 0x1e <__rc28>
    3846: aa           	tax
    3847: b2 20        	lda	($20),z                 ; 0x20 <__rc30>
    3849: 64 20        	stz	$20                     ; 0x20 <__rc30>
    384b: 64 17        	stz	$17                     ; 0x17 <__rc21>
    384d: a0 17        	ldy	#$17
    384f: 91 02        	sta	($2),y                  ; 0x2 <__rc0>
    3851: 85 1e        	sta	$1e                     ; 0x1e <__rc28>
    3853: 8a           	txa
    3854: 86 21        	stx	$21                     ; 0x21 <__rc31>
    3856: a0 00        	ldy	#$0
    3858: 4c 06 39     	jmp	$3906 <donehypclosefile3+0x92d>
    385b: c0 0c        	cpy	#$c
    385d: 90 03        	bcc	$3862 <donehypclosefile3+0x889>
    385f: 4c 16 39     	jmp	$3916 <donehypclosefile3+0x93d>
    3862: 85 16        	sta	$16                     ; 0x16 <__rc20>
    3864: a5 20        	lda	$20                     ; 0x20 <__rc30>
    3866: 18           	clc
    3867: 69 3c        	adc	#$3c
    3869: 85 0c        	sta	$c                      ; 0xc <__rc10>
    386b: 84 1f        	sty	$1f                     ; 0x1f <__rc29>
    386d: 98           	tya
    386e: 69 00        	adc	#$0
    3870: 85 04        	sta	$4                      ; 0x4 <__rc2>
    3872: a9 00        	lda	#$0
    3874: 69 08        	adc	#$8
    3876: 85 05        	sta	$5                      ; 0x5 <__rc3>
    3878: 64 06        	stz	$6                      ; 0x6 <__rc4>
    387a: a2 18        	ldx	#$18
    387c: 86 07        	stx	$7                      ; 0x7 <__rc5>
    387e: 64 08        	stz	$8                      ; 0x8 <__rc6>
    3880: 64 09        	stz	$9                      ; 0x9 <__rc7>
    3882: 64 0a        	stz	$a                      ; 0xa <__zp_data_size>
    3884: a2 01        	ldx	#$1
    3886: 86 0b        	stx	$b                      ; 0xb <__rc9>
    3888: a6 0c        	ldx	$c                      ; 0xc <__rc10>
    388a: a9 00        	lda	#$0
    388c: 20 a6 69     	jsr	$69a6 <lcopy>
    388f: ae 00 18     	ldx	$1800                   ; 0x1800 <__heap_default_limit+0x800>
    3892: d0 03        	bne	$3897 <donehypclosefile3+0x8be>
    3894: 4c da 38     	jmp	$38da <donehypclosefile3+0x901>
    3897: a6 1a        	ldx	$1a                     ; 0x1a <__rc24>
    3899: 86 04        	stx	$4                      ; 0x4 <__rc2>
    389b: a6 1b        	ldx	$1b                     ; 0x1b <__rc25>
    389d: 86 05        	stx	$5                      ; 0x5 <__rc3>
    389f: a6 1c        	ldx	$1c                     ; 0x1c <__rc26>
    38a1: 86 06        	stx	$6                      ; 0x6 <__rc4>
    38a3: a6 1d        	ldx	$1d                     ; 0x1d <__zp_bss_size>
    38a5: 86 07        	stx	$7                      ; 0x7 <__rc5>
    38a7: a9 00        	lda	#$0
    38a9: 20 c9 52     	jsr	$52c9 <findnextBAMtracksector>
    38ac: b2 1a        	lda	($1a),z                 ; 0x1a <__rc24>
    38ae: 85 17        	sta	$17                     ; 0x17 <__rc21>
    38b0: b2 1a        	lda	($1a),z                 ; 0x1a <__rc24>
    38b2: 8d 00 18     	sta	$1800                   ; 0x1800 <__heap_default_limit+0x800>
    38b5: b2 1c        	lda	($1c),z                 ; 0x1c <__rc26>
    38b7: a0 23        	ldy	#$23
    38b9: 91 02        	sta	($2),y                  ; 0x2 <__rc0>
    38bb: b2 1c        	lda	($1c),z                 ; 0x1c <__rc26>
    38bd: 8d 01 18     	sta	$1801                   ; 0x1801 <__heap_default_limit+0x801>
    38c0: a5 17        	lda	$17                     ; 0x17 <__rc21>
    38c2: f0 14        	beq	$38d8 <donehypclosefile3+0x8ff>
    38c4: a6 16        	ldx	$16                     ; 0x16 <__rc20>
    38c6: e4 17        	cpx	$17                     ; 0x17 <__rc21>
    38c8: d0 10        	bne	$38da <donehypclosefile3+0x901>
    38ca: b1 02        	lda	($2),y                  ; 0x2 <__rc0>
    38cc: 45 1e        	eor	$1e                     ; 0x1e <__rc28>
    38ce: c9 02        	cmp	#$2
    38d0: 90 03        	bcc	$38d5 <donehypclosefile3+0x8fc>
    38d2: 4c 47 3a     	jmp	$3a47 <donehypclosefile3+0xa6e>
    38d5: 4c c0 39     	jmp	$39c0 <donehypclosefile3+0x9e7>
    38d8: 64 17        	stz	$17                     ; 0x17 <__rc21>
    38da: a2 00        	ldx	#$0
    38dc: 86 04        	stx	$4                      ; 0x4 <__rc2>
    38de: a2 18        	ldx	#$18
    38e0: 86 05        	stx	$5                      ; 0x5 <__rc3>
    38e2: a6 1e        	ldx	$1e                     ; 0x1e <__rc28>
    38e4: 86 06        	stx	$6                      ; 0x6 <__rc4>
    38e6: a6 16        	ldx	$16                     ; 0x16 <__rc20>
    38e8: a0 16        	ldy	#$16
    38ea: b1 02        	lda	($2),y                  ; 0x2 <__rc0>
    38ec: 20 a7 4c     	jsr	$4ca7 <PutOneSector>
    38ef: ae 00 18     	ldx	$1800                   ; 0x1800 <__heap_default_limit+0x800>
    38f2: a4 1f        	ldy	$1f                     ; 0x1f <__rc29>
    38f4: 8a           	txa
    38f5: f0 1f        	beq	$3916 <donehypclosefile3+0x93d>
    38f7: e6 20        	inc	$20                     ; 0x20 <__rc30>
    38f9: d0 01        	bne	$38fc <donehypclosefile3+0x923>
    38fb: c8           	iny
    38fc: 5a           	phy
    38fd: a0 23        	ldy	#$23
    38ff: b1 02        	lda	($2),y                  ; 0x2 <__rc0>
    3901: 7a           	ply
    3902: 85 1e        	sta	$1e                     ; 0x1e <__rc28>
    3904: a5 17        	lda	$17                     ; 0x17 <__rc21>
    3906: c0 0c        	cpy	#$c
    3908: f0 03        	beq	$390d <donehypclosefile3+0x934>
    390a: 4c 5b 38     	jmp	$385b <donehypclosefile3+0x882>
    390d: a6 20        	ldx	$20                     ; 0x20 <__rc30>
    390f: e0 80        	cpx	#$80
    3911: b0 03        	bcs	$3916 <donehypclosefile3+0x93d>
    3913: 4c 62 38     	jmp	$3862 <donehypclosefile3+0x889>
    3916: a5 17        	lda	$17                     ; 0x17 <__rc21>
    3918: d0 03        	bne	$391d <donehypclosefile3+0x944>
    391a: 4c 51 39     	jmp	$3951 <donehypclosefile3+0x978>
    391d: c0 0c        	cpy	#$c
    391f: f0 03        	beq	$3924 <donehypclosefile3+0x94b>
    3921: 4c b6 39     	jmp	$39b6 <donehypclosefile3+0x9dd>
    3924: a6 20        	ldx	$20                     ; 0x20 <__rc30>
    3926: e0 80        	cpx	#$80
    3928: 90 27        	bcc	$3951 <donehypclosefile3+0x978>
    392a: a2 dc        	ldx	#$dc
    392c: 86 04        	stx	$4                      ; 0x4 <__rc2>
    392e: a2 78        	ldx	#$78
    3930: 86 05        	stx	$5                      ; 0x5 <__rc3>
    3932: a2 78        	ldx	#$78
    3934: 86 06        	stx	$6                      ; 0x6 <__rc4>
    3936: a2 70        	ldx	#$70
    3938: 86 07        	stx	$7                      ; 0x7 <__rc5>
    393a: a2 3b        	ldx	#$3b
    393c: 86 08        	stx	$8                      ; 0x8 <__rc6>
    393e: a2 73        	ldx	#$73
    3940: 86 09        	stx	$9                      ; 0x9 <__rc7>
    3942: a2 0c        	ldx	#$c
    3944: 86 0a        	stx	$a                      ; 0xa <__zp_data_size>
    3946: 64 0b        	stz	$b                      ; 0xb <__rc9>
    3948: 64 0c        	stz	$c                      ; 0xc <__rc10>
    394a: a2 80        	ldx	#$80
    394c: a9 03        	lda	#$3
    394e: 20 88 58     	jsr	$5888 <messagebox>
    3951: a0 03        	ldy	#$3
    3953: a5 21        	lda	$21                     ; 0x21 <__rc31>
    3955: 48           	pha
    3956: 5a           	phy
    3957: a0 21        	ldy	#$21
    3959: b1 02        	lda	($2),y                  ; 0x2 <__rc0>
    395b: 85 06        	sta	$6                      ; 0x6 <__rc4>
    395d: c8           	iny
    395e: b1 02        	lda	($2),y                  ; 0x2 <__rc0>
    3960: 7a           	ply
    3961: 85 07        	sta	$7                      ; 0x7 <__rc5>
    3963: 68           	pla
    3964: 91 06        	sta	($6),y                  ; 0x6 <__rc4>
    3966: a0 17        	ldy	#$17
    3968: b1 02        	lda	($2),y                  ; 0x2 <__rc0>
    396a: a0 04        	ldy	#$4
    396c: 91 06        	sta	($6),y                  ; 0x6 <__rc4>
    396e: a2 e0        	ldx	#$e0
    3970: 86 04        	stx	$4                      ; 0x4 <__rc2>
    3972: a2 77        	ldx	#$77
    3974: 86 05        	stx	$5                      ; 0x5 <__rc3>
    3976: a2 28        	ldx	#$28
    3978: 86 06        	stx	$6                      ; 0x6 <__rc4>
    397a: a2 7a        	ldx	#$7a
    397c: 86 07        	stx	$7                      ; 0x7 <__rc5>
    397e: a9 3c        	lda	#$3c
    3980: 20 df 59     	jsr	$59df <progress>
    3983: a0 1d        	ldy	#$1d
    3985: b1 02        	lda	($2),y                  ; 0x2 <__rc0>
    3987: 85 06        	sta	$6                      ; 0x6 <__rc4>
    3989: c8           	iny
    398a: b1 02        	lda	($2),y                  ; 0x2 <__rc0>
    398c: 85 07        	sta	$7                      ; 0x7 <__rc5>
    398e: b2 06        	lda	($6),z                  ; 0x6 <__rc4>
    3990: a0 10        	ldy	#$10
    3992: 91 02        	sta	($2),y                  ; 0x2 <__rc0>
    3994: a0 47        	ldy	#$47
    3996: b1 06        	lda	($6),y                  ; 0x6 <__rc4>
    3998: a0 15        	ldy	#$15
    399a: 91 02        	sta	($2),y                  ; 0x2 <__rc0>
    399c: a2 03        	ldx	#$3
    399e: 8a           	txa
    399f: c8           	iny
    39a0: 91 02        	sta	($2),y                  ; 0x2 <__rc0>
    39a2: a2 08        	ldx	#$8
    39a4: 8a           	txa
    39a5: a0 23        	ldy	#$23
    39a7: 91 02        	sta	($2),y                  ; 0x2 <__rc0>
    39a9: 64 20        	stz	$20                     ; 0x20 <__rc30>
    39ab: 64 1c        	stz	$1c                     ; 0x1c <__rc26>
    39ad: 64 1f        	stz	$1f                     ; 0x1f <__rc29>
    39af: a0 00        	ldy	#$0
    39b1: 64 05        	stz	$5                      ; 0x5 <__rc3>
    39b3: 4c 0f 3b     	jmp	$3b0f <donehypclosefile3+0xb36>
    39b6: c0 0c        	cpy	#$c
    39b8: 90 03        	bcc	$39bd <donehypclosefile3+0x9e4>
    39ba: 4c 2a 39     	jmp	$392a <donehypclosefile3+0x951>
    39bd: 4c 51 39     	jmp	$3951 <donehypclosefile3+0x978>
    39c0: a6 20        	ldx	$20                     ; 0x20 <__rc30>
    39c2: a4 1f        	ldy	$1f                     ; 0x1f <__rc29>
    39c4: e8           	inx
    39c5: d0 01        	bne	$39c8 <donehypclosefile3+0x9ef>
    39c7: c8           	iny
    39c8: 86 20        	stx	$20                     ; 0x20 <__rc30>
    39ca: 8a           	txa
    39cb: 18           	clc
    39cc: 69 3c        	adc	#$3c
    39ce: 85 0c        	sta	$c                      ; 0xc <__rc10>
    39d0: 84 1f        	sty	$1f                     ; 0x1f <__rc29>
    39d2: 98           	tya
    39d3: 69 00        	adc	#$0
    39d5: 85 04        	sta	$4                      ; 0x4 <__rc2>
    39d7: a9 00        	lda	#$0
    39d9: 69 08        	adc	#$8
    39db: 85 05        	sta	$5                      ; 0x5 <__rc3>
    39dd: 64 06        	stz	$6                      ; 0x6 <__rc4>
    39df: a2 19        	ldx	#$19
    39e1: 86 07        	stx	$7                      ; 0x7 <__rc5>
    39e3: 64 08        	stz	$8                      ; 0x8 <__rc6>
    39e5: 64 09        	stz	$9                      ; 0x9 <__rc7>
    39e7: 64 0a        	stz	$a                      ; 0xa <__zp_data_size>
    39e9: a2 01        	ldx	#$1
    39eb: 86 0b        	stx	$b                      ; 0xb <__rc9>
    39ed: a6 0c        	ldx	$c                      ; 0xc <__rc10>
    39ef: a9 00        	lda	#$0
    39f1: 20 a6 69     	jsr	$69a6 <lcopy>
    39f4: ae 00 19     	ldx	$1900                   ; 0x1900 <__heap_default_limit+0x900>
    39f7: a5 16        	lda	$16                     ; 0x16 <__rc20>
    39f9: 85 17        	sta	$17                     ; 0x17 <__rc21>
    39fb: e0 00        	cpx	#$0
    39fd: f0 2b        	beq	$3a2a <donehypclosefile3+0xa51>
    39ff: a6 1a        	ldx	$1a                     ; 0x1a <__rc24>
    3a01: 86 04        	stx	$4                      ; 0x4 <__rc2>
    3a03: a6 1b        	ldx	$1b                     ; 0x1b <__rc25>
    3a05: 86 05        	stx	$5                      ; 0x5 <__rc3>
    3a07: a6 1c        	ldx	$1c                     ; 0x1c <__rc26>
    3a09: 86 06        	stx	$6                      ; 0x6 <__rc4>
    3a0b: a6 1d        	ldx	$1d                     ; 0x1d <__zp_bss_size>
    3a0d: 86 07        	stx	$7                      ; 0x7 <__rc5>
    3a0f: a9 00        	lda	#$0
    3a11: 20 c9 52     	jsr	$52c9 <findnextBAMtracksector>
    3a14: b2 1a        	lda	($1a),z                 ; 0x1a <__rc24>
    3a16: 85 17        	sta	$17                     ; 0x17 <__rc21>
    3a18: b2 1a        	lda	($1a),z                 ; 0x1a <__rc24>
    3a1a: 8d 00 19     	sta	$1900                   ; 0x1900 <__heap_default_limit+0x900>
    3a1d: b2 1c        	lda	($1c),z                 ; 0x1c <__rc26>
    3a1f: a0 23        	ldy	#$23
    3a21: 91 02        	sta	($2),y                  ; 0x2 <__rc0>
    3a23: b2 1c        	lda	($1c),z                 ; 0x1c <__rc26>
    3a25: 8d 01 19     	sta	$1901                   ; 0x1901 <__heap_default_limit+0x901>
    3a28: a5 16        	lda	$16                     ; 0x16 <__rc20>
    3a2a: a2 00        	ldx	#$0
    3a2c: 86 04        	stx	$4                      ; 0x4 <__rc2>
    3a2e: a2 18        	ldx	#$18
    3a30: 86 05        	stx	$5                      ; 0x5 <__rc3>
    3a32: a6 1e        	ldx	$1e                     ; 0x1e <__rc28>
    3a34: 86 06        	stx	$6                      ; 0x6 <__rc4>
    3a36: aa           	tax
    3a37: a0 16        	ldy	#$16
    3a39: b1 02        	lda	($2),y                  ; 0x2 <__rc0>
    3a3b: 20 23 4c     	jsr	$4c23 <PutWholeSector>
    3a3e: ae 00 19     	ldx	$1900                   ; 0x1900 <__heap_default_limit+0x900>
    3a41: 8e 00 18     	stx	$1800                   ; 0x1800 <__heap_default_limit+0x800>
    3a44: 4c f2 38     	jmp	$38f2 <donehypclosefile3+0x919>
    3a47: a6 16        	ldx	$16                     ; 0x16 <__rc20>
    3a49: 86 17        	stx	$17                     ; 0x17 <__rc21>
    3a4b: 4c da 38     	jmp	$38da <donehypclosefile3+0x901>
    3a4e: 85 04        	sta	$4                      ; 0x4 <__rc2>
    3a50: e4 04        	cpx	$4                      ; 0x4 <__rc2>
    3a52: 90 03        	bcc	$3a57 <donehypclosefile3+0xa7e>
    3a54: 4c 5f 3b     	jmp	$3b5f <donehypclosefile3+0xb86>
    3a57: 85 1b        	sta	$1b                     ; 0x1b <__rc25>
    3a59: 84 1a        	sty	$1a                     ; 0x1a <__rc24>
    3a5b: a0 14        	ldy	#$14
    3a5d: b1 02        	lda	($2),y                  ; 0x2 <__rc0>
    3a5f: 85 06        	sta	$6                      ; 0x6 <__rc4>
    3a61: 18           	clc
    3a62: 65 1e        	adc	$1e                     ; 0x1e <__rc28>
    3a64: 85 0c        	sta	$c                      ; 0xc <__rc10>
    3a66: a0 1b        	ldy	#$1b
    3a68: b1 02        	lda	($2),y                  ; 0x2 <__rc0>
    3a6a: 65 08        	adc	$8                      ; 0x8 <__rc6>
    3a6c: 85 0d        	sta	$d                      ; 0xd <__rc11>
    3a6e: a5 06        	lda	$6                      ; 0x6 <__rc4>
    3a70: 69 00        	adc	#$0
    3a72: a8           	tay
    3a73: 5a           	phy
    3a74: a0 19        	ldy	#$19
    3a76: b1 02        	lda	($2),y                  ; 0x2 <__rc0>
    3a78: 7a           	ply
    3a79: 69 00        	adc	#$0
    3a7b: 84 19        	sty	$19                     ; 0x19 <__rc23>
    3a7d: 84 04        	sty	$4                      ; 0x4 <__rc2>
    3a7f: 85 1d        	sta	$1d                     ; 0x1d <__zp_bss_size>
    3a81: 85 05        	sta	$5                      ; 0x5 <__rc3>
    3a83: a0 e1        	ldy	#$e1
    3a85: 84 06        	sty	$6                      ; 0x6 <__rc4>
    3a87: a0 1a        	ldy	#$1a
    3a89: 84 07        	sty	$7                      ; 0x7 <__rc5>
    3a8b: 64 08        	stz	$8                      ; 0x8 <__rc6>
    3a8d: 64 09        	stz	$9                      ; 0x9 <__rc7>
    3a8f: a0 20        	ldy	#$20
    3a91: 84 0a        	sty	$a                      ; 0xa <__zp_data_size>
    3a93: 64 0b        	stz	$b                      ; 0xb <__rc9>
    3a95: a6 0d        	ldx	$d                      ; 0xd <__rc11>
    3a97: 86 18        	stx	$18                     ; 0x18 <__rc22>
    3a99: a5 0c        	lda	$c                      ; 0xc <__rc10>
    3a9b: 85 17        	sta	$17                     ; 0x17 <__rc21>
    3a9d: 20 a6 69     	jsr	$69a6 <lcopy>
    3aa0: a5 1a        	lda	$1a                     ; 0x1a <__rc24>
    3aa2: 29 07        	and	#$7
    3aa4: f0 11        	beq	$3ab7 <donehypclosefile3+0xade>
    3aa6: a0 01        	ldy	#$1
    3aa8: 5a           	phy
    3aa9: a0 1f        	ldy	#$1f
    3aab: b1 02        	lda	($2),y                  ; 0x2 <__rc0>
    3aad: 85 06        	sta	$6                      ; 0x6 <__rc4>
    3aaf: c8           	iny
    3ab0: b1 02        	lda	($2),y                  ; 0x2 <__rc0>
    3ab2: 7a           	ply
    3ab3: 85 07        	sta	$7                      ; 0x7 <__rc5>
    3ab5: 80 28        	bra	$3adf <donehypclosefile3+0xb06>
    3ab7: a6 1a        	ldx	$1a                     ; 0x1a <__rc24>
    3ab9: a0 01        	ldy	#$1
    3abb: 5a           	phy
    3abc: a0 1f        	ldy	#$1f
    3abe: b1 02        	lda	($2),y                  ; 0x2 <__rc0>
    3ac0: 85 06        	sta	$6                      ; 0x6 <__rc4>
    3ac2: c8           	iny
    3ac3: b1 02        	lda	($2),y                  ; 0x2 <__rc0>
    3ac5: 7a           	ply
    3ac6: 85 07        	sta	$7                      ; 0x7 <__rc5>
    3ac8: a5 1a        	lda	$1a                     ; 0x1a <__rc24>
    3aca: d0 03        	bne	$3acf <donehypclosefile3+0xaf6>
    3acc: 4c c7 3d     	jmp	$3dc7 <donehypclosefile3+0xdee>
    3acf: 86 1f        	stx	$1f                     ; 0x1f <__rc29>
    3ad1: 5a           	phy
    3ad2: a5 1c        	lda	$1c                     ; 0x1c <__rc26>
    3ad4: a0 15        	ldy	#$15
    3ad6: 91 02        	sta	($2),y                  ; 0x2 <__rc0>
    3ad8: a6 20        	ldx	$20                     ; 0x20 <__rc30>
    3ada: 8a           	txa
    3adb: c8           	iny
    3adc: 91 02        	sta	($2),y                  ; 0x2 <__rc0>
    3ade: 7a           	ply
    3adf: ae e1 1a     	ldx	$1ae1                   ; 0x1ae1 <__heap_default_limit+0xae1>
    3ae2: f0 1a        	beq	$3afe <donehypclosefile3+0xb25>
    3ae4: 18           	clc
    3ae5: 86 1c        	stx	$1c                     ; 0x1c <__rc26>
    3ae7: 5a           	phy
    3ae8: a0 23        	ldy	#$23
    3aea: b1 02        	lda	($2),y                  ; 0x2 <__rc0>
    3aec: 69 08        	adc	#$8
    3aee: 91 02        	sta	($2),y                  ; 0x2 <__rc0>
    3af0: 7a           	ply
    3af1: a5 1b        	lda	$1b                     ; 0x1b <__rc25>
    3af3: 69 00        	adc	#$0
    3af5: 85 1b        	sta	$1b                     ; 0x1b <__rc25>
    3af7: ae e2 1a     	ldx	$1ae2                   ; 0x1ae2 <__heap_default_limit+0xae2>
    3afa: 86 20        	stx	$20                     ; 0x20 <__rc30>
    3afc: a6 1c        	ldx	$1c                     ; 0x1c <__rc26>
    3afe: a9 0f        	lda	#$f
    3b00: 2d e3 1a     	and	$1ae3                   ; 0x1ae3 <__heap_default_limit+0xae3>
    3b03: d0 03        	bne	$3b08 <donehypclosefile3+0xb2f>
    3b05: 4c cc 3d     	jmp	$3dcc <donehypclosefile3+0xdf3>
    3b08: a4 1a        	ldy	$1a                     ; 0x1a <__rc24>
    3b0a: c8           	iny
    3b0b: a6 1b        	ldx	$1b                     ; 0x1b <__rc25>
    3b0d: 86 05        	stx	$5                      ; 0x5 <__rc3>
    3b0f: 98           	tya
    3b10: 4a           	lsr
    3b11: a2 01        	ldx	#$1
    3b13: b0 02        	bcs	$3b17 <donehypclosefile3+0xb3e>
    3b15: a2 00        	ldx	#$0
    3b17: 86 06        	stx	$6                      ; 0x6 <__rc4>
    3b19: 4a           	lsr
    3b1a: a2 01        	ldx	#$1
    3b1c: b0 02        	bcs	$3b20 <donehypclosefile3+0xb47>
    3b1e: a2 00        	ldx	#$0
    3b20: 86 08        	stx	$8                      ; 0x8 <__rc6>
    3b22: 85 04        	sta	$4                      ; 0x4 <__rc2>
    3b24: 64 1e        	stz	$1e                     ; 0x1e <__rc28>
    3b26: a6 06        	ldx	$6                      ; 0x6 <__rc4>
    3b28: e0 01        	cpx	#$1
    3b2a: 66 1e        	ror	$1e                     ; 0x1e <__rc28>
    3b2c: 46 04        	lsr	$4                      ; 0x4 <__rc2>
    3b2e: 48           	pha
    3b2f: a5 04        	lda	$4                      ; 0x4 <__rc2>
    3b31: 5a           	phy
    3b32: a0 17        	ldy	#$17
    3b34: 91 02        	sta	($2),y                  ; 0x2 <__rc0>
    3b36: 7a           	ply
    3b37: 68           	pla
    3b38: a6 08        	ldx	$8                      ; 0x8 <__rc6>
    3b3a: e0 01        	cpx	#$1
    3b3c: 66 1e        	ror	$1e                     ; 0x1e <__rc28>
    3b3e: 4a           	lsr
    3b3f: 85 08        	sta	$8                      ; 0x8 <__rc6>
    3b41: 66 1e        	ror	$1e                     ; 0x1e <__rc28>
    3b43: a2 00        	ldx	#$0
    3b45: a5 05        	lda	$5                      ; 0x5 <__rc3>
    3b47: e4 05        	cpx	$5                      ; 0x5 <__rc3>
    3b49: f0 03        	beq	$3b4e <donehypclosefile3+0xb75>
    3b4b: 4c 4e 3a     	jmp	$3a4e <donehypclosefile3+0xa75>
    3b4e: 48           	pha
    3b4f: 5a           	phy
    3b50: a0 23        	ldy	#$23
    3b52: b1 02        	lda	($2),y                  ; 0x2 <__rc0>
    3b54: 7a           	ply
    3b55: 85 04        	sta	$4                      ; 0x4 <__rc2>
    3b57: 68           	pla
    3b58: c4 04        	cpy	$4                      ; 0x4 <__rc2>
    3b5a: b0 03        	bcs	$3b5f <donehypclosefile3+0xb86>
    3b5c: 4c 57 3a     	jmp	$3a57 <donehypclosefile3+0xa7e>
    3b5f: 18           	clc
    3b60: a5 02        	lda	$2                      ; 0x2 <__rc0>
    3b62: 69 2a        	adc	#$2a
    3b64: 85 1a        	sta	$1a                     ; 0x1a <__rc24>
    3b66: a5 03        	lda	$3                      ; 0x3 <__rc1>
    3b68: 69 00        	adc	#$0
    3b6a: 85 1b        	sta	$1b                     ; 0x1b <__rc25>
    3b6c: a5 1c        	lda	$1c                     ; 0x1c <__rc26>
    3b6e: 92 1a        	sta	($1a),z                 ; 0x1a <__rc24>
    3b70: 18           	clc
    3b71: a5 02        	lda	$2                      ; 0x2 <__rc0>
    3b73: 69 29        	adc	#$29
    3b75: 85 1c        	sta	$1c                     ; 0x1c <__rc26>
    3b77: a5 03        	lda	$3                      ; 0x3 <__rc1>
    3b79: 69 00        	adc	#$0
    3b7b: 85 1d        	sta	$1d                     ; 0x1d <__zp_bss_size>
    3b7d: a5 20        	lda	$20                     ; 0x20 <__rc30>
    3b7f: 92 1c        	sta	($1c),z                 ; 0x1c <__rc26>
    3b81: 46 1f        	lsr	$1f                     ; 0x1f <__rc29>
    3b83: a9 00        	lda	#$0
    3b85: 6a           	ror
    3b86: 46 1f        	lsr	$1f                     ; 0x1f <__rc29>
    3b88: 6a           	ror
    3b89: a6 1f        	ldx	$1f                     ; 0x1f <__rc29>
    3b8b: 86 04        	stx	$4                      ; 0x4 <__rc2>
    3b8d: 46 04        	lsr	$4                      ; 0x4 <__rc2>
    3b8f: 6a           	ror
    3b90: 85 05        	sta	$5                      ; 0x5 <__rc3>
    3b92: a5 1e        	lda	$1e                     ; 0x1e <__rc28>
    3b94: a0 09        	ldy	#$9
    3b96: 91 02        	sta	($2),y                  ; 0x2 <__rc0>
    3b98: a0 14        	ldy	#$14
    3b9a: b1 02        	lda	($2),y                  ; 0x2 <__rc0>
    3b9c: 85 1e        	sta	$1e                     ; 0x1e <__rc28>
    3b9e: a0 0e        	ldy	#$e
    3ba0: 91 02        	sta	($2),y                  ; 0x2 <__rc0>
    3ba2: 48           	pha
    3ba3: a0 21        	ldy	#$21
    3ba5: b1 02        	lda	($2),y                  ; 0x2 <__rc0>
    3ba7: 85 20        	sta	$20                     ; 0x20 <__rc30>
    3ba9: c8           	iny
    3baa: b1 02        	lda	($2),y                  ; 0x2 <__rc0>
    3bac: 85 21        	sta	$21                     ; 0x21 <__rc31>
    3bae: 68           	pla
    3baf: 18           	clc
    3bb0: 65 05        	adc	$5                      ; 0x5 <__rc3>
    3bb2: 85 18        	sta	$18                     ; 0x18 <__rc22>
    3bb4: a0 1b        	ldy	#$1b
    3bb6: b1 02        	lda	($2),y                  ; 0x2 <__rc0>
    3bb8: a0 0d        	ldy	#$d
    3bba: 91 02        	sta	($2),y                  ; 0x2 <__rc0>
    3bbc: 65 04        	adc	$4                      ; 0x4 <__rc2>
    3bbe: 85 16        	sta	$16                     ; 0x16 <__rc20>
    3bc0: a5 1e        	lda	$1e                     ; 0x1e <__rc28>
    3bc2: a0 08        	ldy	#$8
    3bc4: 91 02        	sta	($2),y                  ; 0x2 <__rc0>
    3bc6: 69 00        	adc	#$0
    3bc8: 85 19        	sta	$19                     ; 0x19 <__rc23>
    3bca: a0 19        	ldy	#$19
    3bcc: b1 02        	lda	($2),y                  ; 0x2 <__rc0>
    3bce: a0 0c        	ldy	#$c
    3bd0: 91 02        	sta	($2),y                  ; 0x2 <__rc0>
    3bd2: 69 00        	adc	#$0
    3bd4: 85 17        	sta	$17                     ; 0x17 <__rc21>
    3bd6: a6 19        	ldx	$19                     ; 0x19 <__rc23>
    3bd8: 86 04        	stx	$4                      ; 0x4 <__rc2>
    3bda: 85 05        	sta	$5                      ; 0x5 <__rc3>
    3bdc: a2 e1        	ldx	#$e1
    3bde: 86 06        	stx	$6                      ; 0x6 <__rc4>
    3be0: a2 1a        	ldx	#$1a
    3be2: 86 07        	stx	$7                      ; 0x7 <__rc5>
    3be4: a5 08        	lda	$8                      ; 0x8 <__rc6>
    3be6: 88           	dey
    3be7: 91 02        	sta	($2),y                  ; 0x2 <__rc0>
    3be9: 64 08        	stz	$8                      ; 0x8 <__rc6>
    3beb: 64 09        	stz	$9                      ; 0x9 <__rc7>
    3bed: a2 20        	ldx	#$20
    3bef: 86 0a        	stx	$a                      ; 0xa <__zp_data_size>
    3bf1: 64 0b        	stz	$b                      ; 0xb <__rc9>
    3bf3: a6 16        	ldx	$16                     ; 0x16 <__rc20>
    3bf5: a5 18        	lda	$18                     ; 0x18 <__rc22>
    3bf7: 20 a6 69     	jsr	$69a6 <lcopy>
    3bfa: a6 1a        	ldx	$1a                     ; 0x1a <__rc24>
    3bfc: 86 04        	stx	$4                      ; 0x4 <__rc2>
    3bfe: a6 1b        	ldx	$1b                     ; 0x1b <__rc25>
    3c00: 86 05        	stx	$5                      ; 0x5 <__rc3>
    3c02: a6 1c        	ldx	$1c                     ; 0x1c <__rc26>
    3c04: 86 06        	stx	$6                      ; 0x6 <__rc4>
    3c06: a6 1d        	ldx	$1d                     ; 0x1d <__zp_bss_size>
    3c08: 86 07        	stx	$7                      ; 0x7 <__rc5>
    3c0a: a9 01        	lda	#$1
    3c0c: 20 c9 52     	jsr	$52c9 <findnextBAMtracksector>
    3c0f: b2 1a        	lda	($1a),z                 ; 0x1a <__rc24>
    3c11: a0 0f        	ldy	#$f
    3c13: 91 02        	sta	($2),y                  ; 0x2 <__rc0>
    3c15: b2 1a        	lda	($1a),z                 ; 0x1a <__rc24>
    3c17: 8d e1 1a     	sta	$1ae1                   ; 0x1ae1 <__heap_default_limit+0xae1>
    3c1a: b2 1c        	lda	($1c),z                 ; 0x1c <__rc26>
    3c1c: a0 0a        	ldy	#$a
    3c1e: 91 02        	sta	($2),y                  ; 0x2 <__rc0>
    3c20: b2 1c        	lda	($1c),z                 ; 0x1c <__rc26>
    3c22: 8d e2 1a     	sta	$1ae2                   ; 0x1ae2 <__heap_default_limit+0xae2>
    3c25: a6 18        	ldx	$18                     ; 0x18 <__rc22>
    3c27: 86 06        	stx	$6                      ; 0x6 <__rc4>
    3c29: a6 16        	ldx	$16                     ; 0x16 <__rc20>
    3c2b: 86 07        	stx	$7                      ; 0x7 <__rc5>
    3c2d: 64 04        	stz	$4                      ; 0x4 <__rc2>
    3c2f: 64 05        	stz	$5                      ; 0x5 <__rc3>
    3c31: a6 19        	ldx	$19                     ; 0x19 <__rc23>
    3c33: 86 08        	stx	$8                      ; 0x8 <__rc6>
    3c35: a6 17        	ldx	$17                     ; 0x17 <__rc21>
    3c37: 86 09        	stx	$9                      ; 0x9 <__rc7>
    3c39: a2 20        	ldx	#$20
    3c3b: 86 0a        	stx	$a                      ; 0xa <__zp_data_size>
    3c3d: 64 0b        	stz	$b                      ; 0xb <__rc9>
    3c3f: a2 1a        	ldx	#$1a
    3c41: a9 e1        	lda	#$e1
    3c43: 20 a6 69     	jsr	$69a6 <lcopy>
    3c46: a6 1f        	ldx	$1f                     ; 0x1f <__rc29>
    3c48: 86 06        	stx	$6                      ; 0x6 <__rc4>
    3c4a: 46 06        	lsr	$6                      ; 0x6 <__rc4>
    3c4c: a9 00        	lda	#$0
    3c4e: 18           	clc
    3c4f: 65 1e        	adc	$1e                     ; 0x1e <__rc28>
    3c51: a2 01        	ldx	#$1
    3c53: b0 02        	bcs	$3c57 <donehypclosefile3+0xc7e>
    3c55: a2 00        	ldx	#$0
    3c57: 86 1a        	stx	$1a                     ; 0x1a <__rc24>
    3c59: 85 1f        	sta	$1f                     ; 0x1f <__rc29>
    3c5b: a0 1b        	ldy	#$1b
    3c5d: b1 02        	lda	($2),y                  ; 0x2 <__rc0>
    3c5f: 85 1d        	sta	$1d                     ; 0x1d <__zp_bss_size>
    3c61: a5 06        	lda	$6                      ; 0x6 <__rc4>
    3c63: 65 1d        	adc	$1d                     ; 0x1d <__zp_bss_size>
    3c65: 85 0c        	sta	$c                      ; 0xc <__rc10>
    3c67: a9 00        	lda	#$0
    3c69: 65 1e        	adc	$1e                     ; 0x1e <__rc28>
    3c6b: aa           	tax
    3c6c: a9 00        	lda	#$0
    3c6e: 48           	pha
    3c6f: a0 19        	ldy	#$19
    3c71: b1 02        	lda	($2),y                  ; 0x2 <__rc0>
    3c73: 85 17        	sta	$17                     ; 0x17 <__rc21>
    3c75: 68           	pla
    3c76: 65 17        	adc	$17                     ; 0x17 <__rc21>
    3c78: 86 04        	stx	$4                      ; 0x4 <__rc2>
    3c7a: 85 05        	sta	$5                      ; 0x5 <__rc3>
    3c7c: 64 06        	stz	$6                      ; 0x6 <__rc4>
    3c7e: a2 18        	ldx	#$18
    3c80: 86 07        	stx	$7                      ; 0x7 <__rc5>
    3c82: 64 08        	stz	$8                      ; 0x8 <__rc6>
    3c84: 64 09        	stz	$9                      ; 0x9 <__rc7>
    3c86: 64 0a        	stz	$a                      ; 0xa <__zp_data_size>
    3c88: a2 01        	ldx	#$1
    3c8a: 86 0b        	stx	$b                      ; 0xb <__rc9>
    3c8c: a6 0c        	ldx	$c                      ; 0xc <__rc10>
    3c8e: a5 1f        	lda	$1f                     ; 0x1f <__rc29>
    3c90: 20 a6 69     	jsr	$69a6 <lcopy>
    3c93: a2 00        	ldx	#$0
    3c95: 86 04        	stx	$4                      ; 0x4 <__rc2>
    3c97: a2 18        	ldx	#$18
    3c99: 86 05        	stx	$5                      ; 0x5 <__rc3>
    3c9b: a5 04        	lda	$4                      ; 0x4 <__rc2>
    3c9d: a0 23        	ldy	#$23
    3c9f: 91 02        	sta	($2),y                  ; 0x2 <__rc0>
    3ca1: a5 05        	lda	$5                      ; 0x5 <__rc3>
    3ca3: c8           	iny
    3ca4: 91 02        	sta	($2),y                  ; 0x2 <__rc0>
    3ca6: 88           	dey
    3ca7: b1 02        	lda	($2),y                  ; 0x2 <__rc0>
    3ca9: 85 04        	sta	$4                      ; 0x4 <__rc2>
    3cab: c8           	iny
    3cac: b1 02        	lda	($2),y                  ; 0x2 <__rc0>
    3cae: 85 05        	sta	$5                      ; 0x5 <__rc3>
    3cb0: a0 16        	ldy	#$16
    3cb2: b1 02        	lda	($2),y                  ; 0x2 <__rc0>
    3cb4: 85 06        	sta	$6                      ; 0x6 <__rc4>
    3cb6: 88           	dey
    3cb7: b1 02        	lda	($2),y                  ; 0x2 <__rc0>
    3cb9: aa           	tax
    3cba: a0 10        	ldy	#$10
    3cbc: b1 02        	lda	($2),y                  ; 0x2 <__rc0>
    3cbe: 85 16        	sta	$16                     ; 0x16 <__rc20>
    3cc0: 20 a7 4c     	jsr	$4ca7 <PutOneSector>
    3cc3: a0 0e        	ldy	#$e
    3cc5: b1 02        	lda	($2),y                  ; 0x2 <__rc0>
    3cc7: 18           	clc
    3cc8: 48           	pha
    3cc9: a0 09        	ldy	#$9
    3ccb: b1 02        	lda	($2),y                  ; 0x2 <__rc0>
    3ccd: 85 04        	sta	$4                      ; 0x4 <__rc2>
    3ccf: 68           	pla
    3cd0: 65 04        	adc	$4                      ; 0x4 <__rc2>
    3cd2: 85 18        	sta	$18                     ; 0x18 <__rc22>
    3cd4: a0 0d        	ldy	#$d
    3cd6: b1 02        	lda	($2),y                  ; 0x2 <__rc0>
    3cd8: 48           	pha
    3cd9: a0 0b        	ldy	#$b
    3cdb: b1 02        	lda	($2),y                  ; 0x2 <__rc0>
    3cdd: 85 04        	sta	$4                      ; 0x4 <__rc2>
    3cdf: 68           	pla
    3ce0: 65 04        	adc	$4                      ; 0x4 <__rc2>
    3ce2: 85 1c        	sta	$1c                     ; 0x1c <__rc26>
    3ce4: a0 08        	ldy	#$8
    3ce6: b1 02        	lda	($2),y                  ; 0x2 <__rc0>
    3ce8: 69 00        	adc	#$0
    3cea: 85 1b        	sta	$1b                     ; 0x1b <__rc25>
    3cec: a0 0c        	ldy	#$c
    3cee: b1 02        	lda	($2),y                  ; 0x2 <__rc0>
    3cf0: 69 00        	adc	#$0
    3cf2: 85 19        	sta	$19                     ; 0x19 <__rc23>
    3cf4: a6 1b        	ldx	$1b                     ; 0x1b <__rc25>
    3cf6: 86 04        	stx	$4                      ; 0x4 <__rc2>
    3cf8: 85 05        	sta	$5                      ; 0x5 <__rc3>
    3cfa: 64 06        	stz	$6                      ; 0x6 <__rc4>
    3cfc: 64 07        	stz	$7                      ; 0x7 <__rc5>
    3cfe: a2 01        	ldx	#$1
    3d00: 86 08        	stx	$8                      ; 0x8 <__rc6>
    3d02: a6 1c        	ldx	$1c                     ; 0x1c <__rc26>
    3d04: a5 18        	lda	$18                     ; 0x18 <__rc22>
    3d06: 20 0d 6a     	jsr	$6a0d <lfill>
    3d09: a9 00        	lda	#$0
    3d0b: 92 20        	sta	($20),z                 ; 0x20 <__rc30>
    3d0d: 3a           	dec
    3d0e: a0 01        	ldy	#$1
    3d10: 91 20        	sta	($20),y                 ; 0x20 <__rc30>
    3d12: a6 18        	ldx	$18                     ; 0x18 <__rc22>
    3d14: 86 06        	stx	$6                      ; 0x6 <__rc4>
    3d16: a6 1c        	ldx	$1c                     ; 0x1c <__rc26>
    3d18: 86 07        	stx	$7                      ; 0x7 <__rc5>
    3d1a: 64 04        	stz	$4                      ; 0x4 <__rc2>
    3d1c: 64 05        	stz	$5                      ; 0x5 <__rc3>
    3d1e: 64 0b        	stz	$b                      ; 0xb <__rc9>
    3d20: a6 1b        	ldx	$1b                     ; 0x1b <__rc25>
    3d22: 86 08        	stx	$8                      ; 0x8 <__rc6>
    3d24: a6 19        	ldx	$19                     ; 0x19 <__rc23>
    3d26: 86 09        	stx	$9                      ; 0x9 <__rc7>
    3d28: a2 20        	ldx	#$20
    3d2a: 86 0a        	stx	$a                      ; 0xa <__zp_data_size>
    3d2c: a6 21        	ldx	$21                     ; 0x21 <__rc31>
    3d2e: a5 20        	lda	$20                     ; 0x20 <__rc30>
    3d30: 20 a6 69     	jsr	$69a6 <lcopy>
    3d33: a0 17        	ldy	#$17
    3d35: b1 02        	lda	($2),y                  ; 0x2 <__rc0>
    3d37: a6 1a        	ldx	$1a                     ; 0x1a <__rc24>
    3d39: e0 01        	cpx	#$1
    3d3b: 65 1d        	adc	$1d                     ; 0x1d <__zp_bss_size>
    3d3d: 85 0c        	sta	$c                      ; 0xc <__rc10>
    3d3f: a9 00        	lda	#$0
    3d41: 65 1e        	adc	$1e                     ; 0x1e <__rc28>
    3d43: 85 04        	sta	$4                      ; 0x4 <__rc2>
    3d45: a9 00        	lda	#$0
    3d47: 65 17        	adc	$17                     ; 0x17 <__rc21>
    3d49: 85 05        	sta	$5                      ; 0x5 <__rc3>
    3d4b: 64 06        	stz	$6                      ; 0x6 <__rc4>
    3d4d: a2 18        	ldx	#$18
    3d4f: 86 07        	stx	$7                      ; 0x7 <__rc5>
    3d51: 64 08        	stz	$8                      ; 0x8 <__rc6>
    3d53: 64 09        	stz	$9                      ; 0x9 <__rc7>
    3d55: 64 0a        	stz	$a                      ; 0xa <__zp_data_size>
    3d57: a2 01        	ldx	#$1
    3d59: 86 0b        	stx	$b                      ; 0xb <__rc9>
    3d5b: a6 0c        	ldx	$c                      ; 0xc <__rc10>
    3d5d: a5 1f        	lda	$1f                     ; 0x1f <__rc29>
    3d5f: 20 a6 69     	jsr	$69a6 <lcopy>
    3d62: a0 23        	ldy	#$23
    3d64: b1 02        	lda	($2),y                  ; 0x2 <__rc0>
    3d66: 85 04        	sta	$4                      ; 0x4 <__rc2>
    3d68: c8           	iny
    3d69: b1 02        	lda	($2),y                  ; 0x2 <__rc0>
    3d6b: 85 05        	sta	$5                      ; 0x5 <__rc3>
    3d6d: a0 0a        	ldy	#$a
    3d6f: b1 02        	lda	($2),y                  ; 0x2 <__rc0>
    3d71: 85 06        	sta	$6                      ; 0x6 <__rc4>
    3d73: a0 0f        	ldy	#$f
    3d75: b1 02        	lda	($2),y                  ; 0x2 <__rc0>
    3d77: aa           	tax
    3d78: a5 16        	lda	$16                     ; 0x16 <__rc20>
    3d7a: 20 a7 4c     	jsr	$4ca7 <PutOneSector>
    3d7d: a2 e0        	ldx	#$e0
    3d7f: 86 04        	stx	$4                      ; 0x4 <__rc2>
    3d81: a2 77        	ldx	#$77
    3d83: 86 05        	stx	$5                      ; 0x5 <__rc3>
    3d85: a2 59        	ldx	#$59
    3d87: 86 06        	stx	$6                      ; 0x6 <__rc4>
    3d89: a2 73        	ldx	#$73
    3d8b: 86 07        	stx	$7                      ; 0x7 <__rc5>
    3d8d: a9 50        	lda	#$50
    3d8f: 20 df 59     	jsr	$59df <progress>
    3d92: a0 1d        	ldy	#$1d
    3d94: b1 02        	lda	($2),y                  ; 0x2 <__rc0>
    3d96: 85 06        	sta	$6                      ; 0x6 <__rc4>
    3d98: c8           	iny
    3d99: b1 02        	lda	($2),y                  ; 0x2 <__rc0>
    3d9b: 85 07        	sta	$7                      ; 0x7 <__rc5>
    3d9d: b2 06        	lda	($6),z                  ; 0x6 <__rc4>
    3d9f: 85 05        	sta	$5                      ; 0x5 <__rc3>
    3da1: a0 47        	ldy	#$47
    3da3: b1 06        	lda	($6),y                  ; 0x6 <__rc4>
    3da5: 85 04        	sta	$4                      ; 0x4 <__rc2>
    3da7: a0 1c        	ldy	#$1c
    3da9: b1 02        	lda	($2),y                  ; 0x2 <__rc0>
    3dab: aa           	tax
    3dac: a5 05        	lda	$5                      ; 0x5 <__rc3>
    3dae: 20 31 4d     	jsr	$4d31 <PutBAM>
    3db1: a0 11        	ldy	#$11
    3db3: b1 02        	lda	($2),y                  ; 0x2 <__rc0>
    3db5: a8           	tay
    3db6: 5a           	phy
    3db7: a0 12        	ldy	#$12
    3db9: b1 02        	lda	($2),y                  ; 0x2 <__rc0>
    3dbb: 85 04        	sta	$4                      ; 0x4 <__rc2>
    3dbd: c8           	iny
    3dbe: b1 02        	lda	($2),y                  ; 0x2 <__rc0>
    3dc0: 7a           	ply
    3dc1: 85 05        	sta	$5                      ; 0x5 <__rc3>
    3dc3: c8           	iny
    3dc4: 4c 10 37     	jmp	$3710 <donehypclosefile3+0x737>
    3dc7: 64 1f        	stz	$1f                     ; 0x1f <__rc29>
    3dc9: 4c df 3a     	jmp	$3adf <donehypclosefile3+0xb06>
    3dcc: 5a           	phy
    3dcd: a5 06        	lda	$6                      ; 0x6 <__rc4>
    3dcf: a0 1f        	ldy	#$1f
    3dd1: 91 02        	sta	($2),y                  ; 0x2 <__rc0>
    3dd3: a5 07        	lda	$7                      ; 0x7 <__rc5>
    3dd5: c8           	iny
    3dd6: 91 02        	sta	($2),y                  ; 0x2 <__rc0>
    3dd8: c8           	iny
    3dd9: b1 02        	lda	($2),y                  ; 0x2 <__rc0>
    3ddb: 85 0c        	sta	$c                      ; 0xc <__rc10>
    3ddd: c8           	iny
    3dde: b1 02        	lda	($2),y                  ; 0x2 <__rc0>
    3de0: 7a           	ply
    3de1: 85 0d        	sta	$d                      ; 0xd <__rc11>
    3de3: 8a           	txa
    3de4: 92 0c        	sta	($c),z                  ; 0xc <__rc10>
    3de6: ad e2 1a     	lda	$1ae2                   ; 0x1ae2 <__heap_default_limit+0xae2>
    3de9: 91 0c        	sta	($c),y                  ; 0xc <__rc10>
    3deb: a6 17        	ldx	$17                     ; 0x17 <__rc21>
    3ded: 86 06        	stx	$6                      ; 0x6 <__rc4>
    3def: a6 18        	ldx	$18                     ; 0x18 <__rc22>
    3df1: 86 07        	stx	$7                      ; 0x7 <__rc5>
    3df3: 64 04        	stz	$4                      ; 0x4 <__rc2>
    3df5: 64 05        	stz	$5                      ; 0x5 <__rc3>
    3df7: a6 19        	ldx	$19                     ; 0x19 <__rc23>
    3df9: 86 08        	stx	$8                      ; 0x8 <__rc6>
    3dfb: a6 1d        	ldx	$1d                     ; 0x1d <__zp_bss_size>
    3dfd: 86 09        	stx	$9                      ; 0x9 <__rc7>
    3dff: a2 20        	ldx	#$20
    3e01: 86 0a        	stx	$a                      ; 0xa <__zp_data_size>
    3e03: 64 0b        	stz	$b                      ; 0xb <__rc9>
    3e05: a6 0d        	ldx	$d                      ; 0xd <__rc11>
    3e07: a5 0c        	lda	$c                      ; 0xc <__rc10>
    3e09: 20 a6 69     	jsr	$69a6 <lcopy>
    3e0c: a9 00        	lda	#$0
    3e0e: 18           	clc
    3e0f: 48           	pha
    3e10: a0 14        	ldy	#$14
    3e12: b1 02        	lda	($2),y                  ; 0x2 <__rc0>
    3e14: 85 06        	sta	$6                      ; 0x6 <__rc4>
    3e16: 68           	pla
    3e17: 65 06        	adc	$6                      ; 0x6 <__rc4>
    3e19: a8           	tay
    3e1a: 84 13        	sty	$13                     ; 0x13 <__rc17>
    3e1c: a0 1b        	ldy	#$1b
    3e1e: b1 02        	lda	($2),y                  ; 0x2 <__rc0>
    3e20: 85 04        	sta	$4                      ; 0x4 <__rc2>
    3e22: a0 17        	ldy	#$17
    3e24: b1 02        	lda	($2),y                  ; 0x2 <__rc0>
    3e26: 65 04        	adc	$4                      ; 0x4 <__rc2>
    3e28: 85 0c        	sta	$c                      ; 0xc <__rc10>
    3e2a: a9 00        	lda	#$0
    3e2c: 65 06        	adc	$6                      ; 0x6 <__rc4>
    3e2e: aa           	tax
    3e2f: a9 00        	lda	#$0
    3e31: 48           	pha
    3e32: a0 19        	ldy	#$19
    3e34: b1 02        	lda	($2),y                  ; 0x2 <__rc0>
    3e36: a4 13        	ldy	$13                     ; 0x13 <__rc17>
    3e38: 85 04        	sta	$4                      ; 0x4 <__rc2>
    3e3a: 68           	pla
    3e3b: 65 04        	adc	$4                      ; 0x4 <__rc2>
    3e3d: 86 04        	stx	$4                      ; 0x4 <__rc2>
    3e3f: 85 05        	sta	$5                      ; 0x5 <__rc3>
    3e41: 64 06        	stz	$6                      ; 0x6 <__rc4>
    3e43: a2 18        	ldx	#$18
    3e45: 86 07        	stx	$7                      ; 0x7 <__rc5>
    3e47: 64 08        	stz	$8                      ; 0x8 <__rc6>
    3e49: 64 09        	stz	$9                      ; 0x9 <__rc7>
    3e4b: 64 0a        	stz	$a                      ; 0xa <__zp_data_size>
    3e4d: a2 01        	ldx	#$1
    3e4f: 86 0b        	stx	$b                      ; 0xb <__rc9>
    3e51: a6 0c        	ldx	$c                      ; 0xc <__rc10>
    3e53: 98           	tya
    3e54: 20 a6 69     	jsr	$69a6 <lcopy>
    3e57: a2 00        	ldx	#$0
    3e59: 86 04        	stx	$4                      ; 0x4 <__rc2>
    3e5b: a2 18        	ldx	#$18
    3e5d: 86 05        	stx	$5                      ; 0x5 <__rc3>
    3e5f: a0 16        	ldy	#$16
    3e61: b1 02        	lda	($2),y                  ; 0x2 <__rc0>
    3e63: 85 06        	sta	$6                      ; 0x6 <__rc4>
    3e65: 88           	dey
    3e66: b1 02        	lda	($2),y                  ; 0x2 <__rc0>
    3e68: aa           	tax
    3e69: a0 10        	ldy	#$10
    3e6b: b1 02        	lda	($2),y                  ; 0x2 <__rc0>
    3e6d: 4c 7a 3d     	jmp	$3d7a <donehypclosefile3+0xda1>
    3e70: a9 27        	lda	#$27
    3e72: 18           	clc
    3e73: 65 1c        	adc	$1c                     ; 0x1c <__rc26>
    3e75: 85 04        	sta	$4                      ; 0x4 <__rc2>
    3e77: a9 00        	lda	#$0
    3e79: 65 1b        	adc	$1b                     ; 0x1b <__rc25>
    3e7b: 85 05        	sta	$5                      ; 0x5 <__rc3>
    3e7d: b2 04        	lda	($4),z                  ; 0x4 <__rc2>
    3e7f: aa           	tax
    3e80: b1 04        	lda	($4),y                  ; 0x4 <__rc2>
    3e82: 86 04        	stx	$4                      ; 0x4 <__rc2>
    3e84: 85 05        	sta	$5                      ; 0x5 <__rc3>
    3e86: 38           	sec
    3e87: 5a           	phy
    3e88: a0 21        	ldy	#$21
    3e8a: b1 02        	lda	($2),y                  ; 0x2 <__rc0>
    3e8c: e5 1a        	sbc	$1a                     ; 0x1a <__rc24>
    3e8e: 85 06        	sta	$6                      ; 0x6 <__rc4>
    3e90: a0 23        	ldy	#$23
    3e92: b1 02        	lda	($2),y                  ; 0x2 <__rc0>
    3e94: 7a           	ply
    3e95: e5 17        	sbc	$17                     ; 0x17 <__rc21>
    3e97: 85 07        	sta	$7                      ; 0x7 <__rc5>
    3e99: a9 58        	lda	#$58
    3e9b: 18           	clc
    3e9c: 65 06        	adc	$6                      ; 0x6 <__rc4>
    3e9e: 85 06        	sta	$6                      ; 0x6 <__rc4>
    3ea0: a9 7b        	lda	#$7b
    3ea2: 65 07        	adc	$7                      ; 0x7 <__rc5>
    3ea4: 85 07        	sta	$7                      ; 0x7 <__rc5>
    3ea6: b1 04        	lda	($4),y                  ; 0x4 <__rc2>
    3ea8: a8           	tay
    3ea9: a9 01        	lda	#$1
    3eab: 51 06        	eor	($6),y                  ; 0x6 <__rc4>
    3ead: 91 06        	sta	($6),y                  ; 0x6 <__rc4>
    3eaf: c8           	iny
    3eb0: 98           	tya
    3eb1: a0 01        	ldy	#$1
    3eb3: 91 04        	sta	($4),y                  ; 0x4 <__rc2>
    3eb5: 4c 03 23     	jmp	$2303 <main+0x1ed>
    3eb8: a9 27        	lda	#$27
    3eba: 18           	clc
    3ebb: 65 1c        	adc	$1c                     ; 0x1c <__rc26>
    3ebd: 85 04        	sta	$4                      ; 0x4 <__rc2>
    3ebf: a9 00        	lda	#$0
    3ec1: 65 1b        	adc	$1b                     ; 0x1b <__rc25>
    3ec3: 85 05        	sta	$5                      ; 0x5 <__rc3>
    3ec5: b2 04        	lda	($4),z                  ; 0x4 <__rc2>
    3ec7: aa           	tax
    3ec8: b1 04        	lda	($4),y                  ; 0x4 <__rc2>
    3eca: 86 04        	stx	$4                      ; 0x4 <__rc2>
    3ecc: 85 05        	sta	$5                      ; 0x5 <__rc3>
    3ece: a9 0a        	lda	#$a
    3ed0: 18           	clc
    3ed1: 71 04        	adc	($4),y                  ; 0x4 <__rc2>
    3ed3: 91 04        	sta	($4),y                  ; 0x4 <__rc2>
    3ed5: 4c 03 23     	jmp	$2303 <main+0x1ed>
    3ed8: a9 28        	lda	#$28
    3eda: a0 47        	ldy	#$47
    3edc: 91 1a        	sta	($1a),y                 ; 0x1a <__rc24>
    3ede: b2 1a        	lda	($1a),z                 ; 0x1a <__rc24>
    3ee0: 4c 64 31     	jmp	$3164 <donehypclosefile3+0x18b>
    3ee3: a5 1d        	lda	$1d                     ; 0x1d <__zp_bss_size>
    3ee5: d0 03        	bne	$3eea <donehypclosefile3+0xf11>
    3ee7: 4c e2 42     	jmp	$42e2 <donehypclosefile3+0x1309>
    3eea: 4c 3d 43     	jmp	$433d <donehypclosefile3+0x1364>
    3eed: a6 1d        	ldx	$1d                     ; 0x1d <__zp_bss_size>
    3eef: 86 04        	stx	$4                      ; 0x4 <__rc2>
    3ef1: 4c d9 3f     	jmp	$3fd9 <donehypclosefile3+0x1000>
    3ef4: c8           	iny
    3ef5: c0 51        	cpy	#$51
    3ef7: d0 03        	bne	$3efc <donehypclosefile3+0xf23>
    3ef9: 4c 6d 48     	jmp	$486d <donehyp0att8+0x44>
    3efc: a9 01        	lda	#$1
    3efe: 84 1c        	sty	$1c                     ; 0x1c <__rc26>
    3f00: c9 29        	cmp	#$29
    3f02: b0 f0        	bcs	$3ef4 <donehypclosefile3+0xf1b>
    3f04: a6 04        	ldx	$4                      ; 0x4 <__rc2>
    3f06: 86 1d        	stx	$1d                     ; 0x1d <__zp_bss_size>
    3f08: 85 1f        	sta	$1f                     ; 0x1f <__rc29>
    3f0a: 85 18        	sta	$18                     ; 0x18 <__rc22>
    3f0c: c6 18        	dec	$18                     ; 0x18 <__rc22>
    3f0e: a9 02        	lda	#$2
    3f10: 25 30        	and	$30                     ; 0x30 <option.0>
    3f12: f0 19        	beq	$3f2d <donehypclosefile3+0xf54>
    3f14: a6 18        	ldx	$18                     ; 0x18 <__rc22>
    3f16: 98           	tya
    3f17: 20 29 51     	jsr	$5129 <isallocatedBAMtracksector>
    3f1a: a4 1c        	ldy	$1c                     ; 0x1c <__rc26>
    3f1c: aa           	tax
    3f1d: d0 0e        	bne	$3f2d <donehypclosefile3+0xf54>
    3f1f: a6 1f        	ldx	$1f                     ; 0x1f <__rc29>
    3f21: 98           	tya
    3f22: 20 29 51     	jsr	$5129 <isallocatedBAMtracksector>
    3f25: a4 1c        	ldy	$1c                     ; 0x1c <__rc26>
    3f27: aa           	tax
    3f28: d0 03        	bne	$3f2d <donehypclosefile3+0xf54>
    3f2a: 4c ed 3e     	jmp	$3eed <donehypclosefile3+0xf14>
    3f2d: a6 18        	ldx	$18                     ; 0x18 <__rc22>
    3f2f: 98           	tya
    3f30: 84 19        	sty	$19                     ; 0x19 <__rc23>
    3f32: 20 e2 53     	jsr	$53e2 <tracksectorstring>
    3f35: a6 1d        	ldx	$1d                     ; 0x1d <__zp_bss_size>
    3f37: 86 04        	stx	$4                      ; 0x4 <__rc2>
    3f39: 06 04        	asl	$4                      ; 0x4 <__rc2>
    3f3b: a5 1e        	lda	$1e                     ; 0x1e <__rc28>
    3f3d: 2a           	rol
    3f3e: 06 04        	asl	$4                      ; 0x4 <__rc2>
    3f40: 2a           	rol
    3f41: a2 93        	ldx	#$93
    3f43: 86 04        	stx	$4                      ; 0x4 <__rc2>
    3f45: a2 79        	ldx	#$79
    3f47: 86 05        	stx	$5                      ; 0x5 <__rc3>
    3f49: a2 08        	ldx	#$8
    3f4b: 86 06        	stx	$6                      ; 0x6 <__rc4>
    3f4d: a2 7b        	ldx	#$7b
    3f4f: 86 07        	stx	$7                      ; 0x7 <__rc5>
    3f51: 20 df 59     	jsr	$59df <progress>
    3f54: a6 18        	ldx	$18                     ; 0x18 <__rc22>
    3f56: 86 04        	stx	$4                      ; 0x4 <__rc2>
    3f58: a6 19        	ldx	$19                     ; 0x19 <__rc23>
    3f5a: a5 17        	lda	$17                     ; 0x17 <__rc21>
    3f5c: 20 6f 4a     	jsr	$4a6f <ReadSector>
    3f5f: c9 02        	cmp	#$2
    3f61: a2 01        	ldx	#$1
    3f63: 90 03        	bcc	$3f68 <donehypclosefile3+0xf8f>
    3f65: 4c 04 46     	jmp	$4604 <donehypchdir5+0x51>
    3f68: a0 fd        	ldy	#$fd
    3f6a: 84 04        	sty	$4                      ; 0x4 <__rc2>
    3f6c: a0 0f        	ldy	#$f
    3f6e: 84 05        	sty	$5                      ; 0x5 <__rc3>
    3f70: 64 06        	stz	$6                      ; 0x6 <__rc4>
    3f72: a0 18        	ldy	#$18
    3f74: 84 07        	sty	$7                      ; 0x7 <__rc5>
    3f76: 64 08        	stz	$8                      ; 0x8 <__rc6>
    3f78: 64 09        	stz	$9                      ; 0x9 <__rc7>
    3f7a: 64 0a        	stz	$a                      ; 0xa <__zp_data_size>
    3f7c: 86 0b        	stx	$b                      ; 0xb <__rc9>
    3f7e: a2 6c        	ldx	#$6c
    3f80: a9 00        	lda	#$0
    3f82: 20 a6 69     	jsr	$69a6 <lcopy>
    3f85: a2 fd        	ldx	#$fd
    3f87: 86 04        	stx	$4                      ; 0x4 <__rc2>
    3f89: a2 0f        	ldx	#$f
    3f8b: 86 05        	stx	$5                      ; 0x5 <__rc3>
    3f8d: 64 06        	stz	$6                      ; 0x6 <__rc4>
    3f8f: a2 19        	ldx	#$19
    3f91: 86 07        	stx	$7                      ; 0x7 <__rc5>
    3f93: 64 08        	stz	$8                      ; 0x8 <__rc6>
    3f95: 64 09        	stz	$9                      ; 0x9 <__rc7>
    3f97: 64 0a        	stz	$a                      ; 0xa <__zp_data_size>
    3f99: a2 01        	ldx	#$1
    3f9b: 86 0b        	stx	$b                      ; 0xb <__rc9>
    3f9d: a2 6d        	ldx	#$6d
    3f9f: a9 00        	lda	#$0
    3fa1: 20 a6 69     	jsr	$69a6 <lcopy>
    3fa4: a5 1d        	lda	$1d                     ; 0x1d <__zp_bss_size>
    3fa6: 18           	clc
    3fa7: 69 3c        	adc	#$3c
    3fa9: 85 07        	sta	$7                      ; 0x7 <__rc5>
    3fab: a5 1e        	lda	$1e                     ; 0x1e <__rc28>
    3fad: 69 00        	adc	#$0
    3faf: 85 08        	sta	$8                      ; 0x8 <__rc6>
    3fb1: a9 00        	lda	#$0
    3fb3: 69 08        	adc	#$8
    3fb5: 64 04        	stz	$4                      ; 0x4 <__rc2>
    3fb7: 64 05        	stz	$5                      ; 0x5 <__rc3>
    3fb9: 64 06        	stz	$6                      ; 0x6 <__rc4>
    3fbb: 85 09        	sta	$9                      ; 0x9 <__rc7>
    3fbd: 64 0a        	stz	$a                      ; 0xa <__zp_data_size>
    3fbf: a2 02        	ldx	#$2
    3fc1: 86 0b        	stx	$b                      ; 0xb <__rc9>
    3fc3: a2 18        	ldx	#$18
    3fc5: a9 00        	lda	#$0
    3fc7: 20 a6 69     	jsr	$69a6 <lcopy>
    3fca: 18           	clc
    3fcb: a5 1d        	lda	$1d                     ; 0x1d <__zp_bss_size>
    3fcd: 69 02        	adc	#$2
    3fcf: 85 04        	sta	$4                      ; 0x4 <__rc2>
    3fd1: a5 1e        	lda	$1e                     ; 0x1e <__rc28>
    3fd3: 69 00        	adc	#$0
    3fd5: a4 1c        	ldy	$1c                     ; 0x1c <__rc26>
    3fd7: 85 1e        	sta	$1e                     ; 0x1e <__rc28>
    3fd9: 18           	clc
    3fda: a5 1f        	lda	$1f                     ; 0x1f <__rc29>
    3fdc: 69 02        	adc	#$2
    3fde: 4c 00 3f     	jmp	$3f00 <donehypclosefile3+0xf27>
    3fe1: a0 1f        	ldy	#$1f
    3fe3: b1 02        	lda	($2),y                  ; 0x2 <__rc0>
    3fe5: 4c ff 22     	jmp	$22ff <main+0x1e9>
    3fe8: e0 0d        	cpx	#$d
    3fea: f0 03        	beq	$3fef <donehypclosefile3+0x1016>
    3fec: 4c f0 2e     	jmp	$2ef0 <main+0xdda>
    3fef: a9 27        	lda	#$27
    3ff1: 18           	clc
    3ff2: 65 1c        	adc	$1c                     ; 0x1c <__rc26>
    3ff4: 85 04        	sta	$4                      ; 0x4 <__rc2>
    3ff6: a9 00        	lda	#$0
    3ff8: 65 1b        	adc	$1b                     ; 0x1b <__rc25>
    3ffa: 85 05        	sta	$5                      ; 0x5 <__rc3>
    3ffc: b2 04        	lda	($4),z                  ; 0x4 <__rc2>
    3ffe: 85 06        	sta	$6                      ; 0x6 <__rc4>
    4000: b1 04        	lda	($4),y                  ; 0x4 <__rc2>
    4002: 85 07        	sta	$7                      ; 0x7 <__rc5>
    4004: 5a           	phy
    4005: a5 06        	lda	$6                      ; 0x6 <__rc4>
    4007: a0 23        	ldy	#$23
    4009: 91 02        	sta	($2),y                  ; 0x2 <__rc0>
    400b: a5 07        	lda	$7                      ; 0x7 <__rc5>
    400d: c8           	iny
    400e: 91 02        	sta	($2),y                  ; 0x2 <__rc0>
    4010: 7a           	ply
    4011: b1 06        	lda	($6),y                  ; 0x6 <__rc4>
    4013: aa           	tax
    4014: a5 1f        	lda	$1f                     ; 0x1f <__rc29>
    4016: 20 6e 54     	jsr	$546e <getdirententry>
    4019: a9 00        	lda	#$0
    401b: a6 1e        	ldx	$1e                     ; 0x1e <__rc28>
    401d: e0 01        	cpx	#$1
    401f: 2a           	rol
    4020: 85 06        	sta	$6                      ; 0x6 <__rc4>
    4022: a6 18        	ldx	$18                     ; 0x18 <__rc22>
    4024: e0 01        	cpx	#$1
    4026: 2a           	rol
    4027: a6 19        	ldx	$19                     ; 0x19 <__rc23>
    4029: e0 01        	cpx	#$1
    402b: a6 04        	ldx	$4                      ; 0x4 <__rc2>
    402d: 86 18        	stx	$18                     ; 0x18 <__rc22>
    402f: a6 05        	ldx	$5                      ; 0x5 <__rc3>
    4031: 86 19        	stx	$19                     ; 0x19 <__rc23>
    4033: 2a           	rol
    4034: aa           	tax
    4035: a5 16        	lda	$16                     ; 0x16 <__rc20>
    4037: 48           	pha
    4038: a0 23        	ldy	#$23
    403a: b1 02        	lda	($2),y                  ; 0x2 <__rc0>
    403c: 85 16        	sta	$16                     ; 0x16 <__rc20>
    403e: c8           	iny
    403f: b1 02        	lda	($2),y                  ; 0x2 <__rc0>
    4041: 85 17        	sta	$17                     ; 0x17 <__rc21>
    4043: 68           	pla
    4044: 0a           	asl
    4045: 26 20        	rol	$20                     ; 0x20 <__rc30>
    4047: 86 04        	stx	$4                      ; 0x4 <__rc2>
    4049: 26 04        	rol	$4                      ; 0x4 <__rc2>
    404b: 38           	sec
    404c: e5 1c        	sbc	$1c                     ; 0x1c <__rc26>
    404e: aa           	tax
    404f: a5 20        	lda	$20                     ; 0x20 <__rc30>
    4051: e5 1b        	sbc	$1b                     ; 0x1b <__rc25>
    4053: 85 07        	sta	$7                      ; 0x7 <__rc5>
    4055: a5 04        	lda	$4                      ; 0x4 <__rc2>
    4057: e5 06        	sbc	$6                      ; 0x6 <__rc4>
    4059: 85 06        	sta	$6                      ; 0x6 <__rc4>
    405b: a0 01        	ldy	#$1
    405d: b1 16        	lda	($16),y                 ; 0x16 <__rc20>
    405f: 4a           	lsr
    4060: 64 04        	stz	$4                      ; 0x4 <__rc2>
    4062: 66 04        	ror	$4                      ; 0x4 <__rc2>
    4064: 4a           	lsr
    4065: 85 05        	sta	$5                      ; 0x5 <__rc3>
    4067: 66 04        	ror	$4                      ; 0x4 <__rc2>
    4069: a9 00        	lda	#$0
    406b: 18           	clc
    406c: 65 04        	adc	$4                      ; 0x4 <__rc2>
    406e: a8           	tay
    406f: 8a           	txa
    4070: 65 05        	adc	$5                      ; 0x5 <__rc3>
    4072: 85 05        	sta	$5                      ; 0x5 <__rc3>
    4074: a5 07        	lda	$7                      ; 0x7 <__rc5>
    4076: 69 00        	adc	#$0
    4078: aa           	tax
    4079: a5 06        	lda	$6                      ; 0x6 <__rc4>
    407b: 69 00        	adc	#$0
    407d: 85 04        	sta	$4                      ; 0x4 <__rc2>
    407f: 18           	clc
    4080: 98           	tya
    4081: 69 00        	adc	#$0
    4083: 85 0c        	sta	$c                      ; 0xc <__rc10>
    4085: a5 05        	lda	$5                      ; 0x5 <__rc3>
    4087: 69 1c        	adc	#$1c
    4089: a8           	tay
    408a: 8a           	txa
    408b: 69 00        	adc	#$0
    408d: aa           	tax
    408e: a5 04        	lda	$4                      ; 0x4 <__rc2>
    4090: 69 08        	adc	#$8
    4092: 86 04        	stx	$4                      ; 0x4 <__rc2>
    4094: 85 05        	sta	$5                      ; 0x5 <__rc3>
    4096: a2 5a        	ldx	#$5a
    4098: 86 06        	stx	$6                      ; 0x6 <__rc4>
    409a: a2 7c        	ldx	#$7c
    409c: 86 07        	stx	$7                      ; 0x7 <__rc5>
    409e: 64 08        	stz	$8                      ; 0x8 <__rc6>
    40a0: 64 09        	stz	$9                      ; 0x9 <__rc7>
    40a2: a2 40        	ldx	#$40
    40a4: 86 0a        	stx	$a                      ; 0xa <__zp_data_size>
    40a6: 64 0b        	stz	$b                      ; 0xb <__rc9>
    40a8: 5a           	phy
    40a9: fa           	plx
    40aa: a5 0c        	lda	$c                      ; 0xc <__rc10>
    40ac: 20 a6 69     	jsr	$69a6 <lcopy>
    40af: a9 01        	lda	#$1
    40b1: a0 46        	ldy	#$46
    40b3: 31 16        	and	($16),y                 ; 0x16 <__rc20>
    40b5: 29 01        	and	#$1
    40b7: aa           	tax
    40b8: a0 02        	ldy	#$2
    40ba: b1 18        	lda	($18),y                 ; 0x18 <__rc22>
    40bc: e0 00        	cpx	#$0
    40be: f0 03        	beq	$40c3 <donehypclosefile3+0x10ea>
    40c0: 4c 69 44     	jmp	$4469 <donehypd81detach4+0x69>
    40c3: 29 10        	and	#$10
    40c5: f0 03        	beq	$40ca <donehypclosefile3+0x10f1>
    40c7: 4c 21 46     	jmp	$4621 <donehypchdir5+0x6e>
    40ca: b2 16        	lda	($16),z                 ; 0x16 <__rc20>
    40cc: 85 18        	sta	$18                     ; 0x18 <__rc22>
    40ce: a2 5a        	ldx	#$5a
    40d0: 86 04        	stx	$4                      ; 0x4 <__rc2>
    40d2: a2 7c        	ldx	#$7c
    40d4: 86 05        	stx	$5                      ; 0x5 <__rc3>
    40d6: 20 76 48     	jsr	$4876 <hyppo_setname>
    40d9: a5 18        	lda	$18                     ; 0x18 <__rc22>
    40db: f0 03        	beq	$40e0 <donehypclosefile3+0x1107>
    40dd: 4c 4f 47     	jmp	$474f <donehypchdir6+0x10a>
    40e0: 4c 14 48     	jmp	$4814 <donehyp1att7+0xb0>
    40e3: a9 27        	lda	#$27
    40e5: 18           	clc
    40e6: 65 1c        	adc	$1c                     ; 0x1c <__rc26>
    40e8: 85 04        	sta	$4                      ; 0x4 <__rc2>
    40ea: a9 00        	lda	#$0
    40ec: 65 1b        	adc	$1b                     ; 0x1b <__rc25>
    40ee: 85 05        	sta	$5                      ; 0x5 <__rc3>
    40f0: b2 04        	lda	($4),z                  ; 0x4 <__rc2>
    40f2: 85 06        	sta	$6                      ; 0x6 <__rc4>
    40f4: b1 04        	lda	($4),y                  ; 0x4 <__rc2>
    40f6: 85 07        	sta	$7                      ; 0x7 <__rc5>
    40f8: a9 01        	lda	#$1
    40fa: a0 46        	ldy	#$46
    40fc: 31 06        	and	($6),y                  ; 0x6 <__rc4>
    40fe: 29 01        	and	#$1
    4100: f0 03        	beq	$4105 <donehypclosefile3+0x112c>
    4102: 4c a4 43     	jmp	$43a4 <donehypclosefile3+0x13cb>
    4105: a2 36        	ldx	#$36
    4107: 86 04        	stx	$4                      ; 0x4 <__rc2>
    4109: a2 72        	ldx	#$72
    410b: 86 05        	stx	$5                      ; 0x5 <__rc3>
    410d: a2 b0        	ldx	#$b0
    410f: 86 06        	stx	$6                      ; 0x6 <__rc4>
    4111: a2 77        	ldx	#$77
    4113: 4c 0f 31     	jmp	$310f <donehypclosefile3+0x136>
    4116: a2 4b        	ldx	#$4b
    4118: 86 04        	stx	$4                      ; 0x4 <__rc2>
    411a: a2 14        	ldx	#$14
    411c: 86 05        	stx	$5                      ; 0x5 <__rc3>
    411e: 84 06        	sty	$6                      ; 0x6 <__rc4>
    4120: a2 04        	ldx	#$4
    4122: 8a           	txa
    4123: 20 fd 56     	jsr	$56fd <mcbox>
    4126: a9 20        	lda	#$20
    4128: 05 2b        	ora	$2b                     ; 0x2b <g_curTextColor>
    412a: 85 2b        	sta	$2b                     ; 0x2b <g_curTextColor>
    412c: a2 73        	ldx	#$73
    412e: 86 04        	stx	$4                      ; 0x4 <__rc2>
    4130: a2 71        	ldx	#$71
    4132: 86 05        	stx	$5                      ; 0x5 <__rc3>
    4134: a2 04        	ldx	#$4
    4136: a9 06        	lda	#$6
    4138: 20 e7 56     	jsr	$56e7 <mcputsxy>
    413b: a2 74        	ldx	#$74
    413d: 86 04        	stx	$4                      ; 0x4 <__rc2>
    413f: a2 73        	ldx	#$73
    4141: 86 05        	stx	$5                      ; 0x5 <__rc3>
    4143: a2 04        	ldx	#$4
    4145: a9 19        	lda	#$19
    4147: 20 e7 56     	jsr	$56e7 <mcputsxy>
    414a: a2 e5        	ldx	#$e5
    414c: 86 04        	stx	$4                      ; 0x4 <__rc2>
    414e: a2 74        	ldx	#$74
    4150: 86 05        	stx	$5                      ; 0x5 <__rc3>
    4152: a2 04        	ldx	#$4
    4154: a9 2f        	lda	#$2f
    4156: 20 e7 56     	jsr	$56e7 <mcputsxy>
    4159: a9 df        	lda	#$df
    415b: 25 2b        	and	$2b                     ; 0x2b <g_curTextColor>
    415d: 85 2b        	sta	$2b                     ; 0x2b <g_curTextColor>
    415f: a2 fd        	ldx	#$fd
    4161: 86 04        	stx	$4                      ; 0x4 <__rc2>
    4163: a2 70        	ldx	#$70
    4165: 86 05        	stx	$5                      ; 0x5 <__rc3>
    4167: a5 04        	lda	$4                      ; 0x4 <__rc2>
    4169: a0 23        	ldy	#$23
    416b: 91 02        	sta	($2),y                  ; 0x2 <__rc0>
    416d: a5 05        	lda	$5                      ; 0x5 <__rc3>
    416f: c8           	iny
    4170: 91 02        	sta	($2),y                  ; 0x2 <__rc0>
    4172: 88           	dey
    4173: b1 02        	lda	($2),y                  ; 0x2 <__rc0>
    4175: 85 04        	sta	$4                      ; 0x4 <__rc2>
    4177: c8           	iny
    4178: b1 02        	lda	($2),y                  ; 0x2 <__rc0>
    417a: 85 05        	sta	$5                      ; 0x5 <__rc3>
    417c: a2 14        	ldx	#$14
    417e: a9 07        	lda	#$7
    4180: 20 e7 56     	jsr	$56e7 <mcputsxy>
    4183: a2 f5        	ldx	#$f5
    4185: 86 04        	stx	$4                      ; 0x4 <__rc2>
    4187: a2 72        	ldx	#$72
    4189: 86 05        	stx	$5                      ; 0x5 <__rc3>
    418b: 20 d9 56     	jsr	$56d9 <msprintf>
    418e: a0 23        	ldy	#$23
    4190: b1 02        	lda	($2),y                  ; 0x2 <__rc0>
    4192: 85 04        	sta	$4                      ; 0x4 <__rc2>
    4194: c8           	iny
    4195: b1 02        	lda	($2),y                  ; 0x2 <__rc0>
    4197: 85 05        	sta	$5                      ; 0x5 <__rc3>
    4199: 20 d9 56     	jsr	$56d9 <msprintf>
    419c: a2 6a        	ldx	#$6a
    419e: 86 04        	stx	$4                      ; 0x4 <__rc2>
    41a0: a2 78        	ldx	#$78
    41a2: 86 05        	stx	$5                      ; 0x5 <__rc3>
    41a4: a2 14        	ldx	#$14
    41a6: a9 34        	lda	#$34
    41a8: 20 e7 56     	jsr	$56e7 <mcputsxy>
    41ab: a0 00        	ldy	#$0
    41ad: 4c 1e 30     	jmp	$301e <donehypclosefile3+0x45>
    41b0: a2 18        	ldx	#$18
    41b2: 86 04        	stx	$4                      ; 0x4 <__rc2>
    41b4: a2 75        	ldx	#$75
    41b6: 86 05        	stx	$5                      ; 0x5 <__rc3>
    41b8: a2 10        	ldx	#$10
    41ba: 86 06        	stx	$6                      ; 0x6 <__rc4>
    41bc: a2 7a        	ldx	#$7a
    41be: 86 07        	stx	$7                      ; 0x7 <__rc5>
    41c0: a2 fd        	ldx	#$fd
    41c2: 86 08        	stx	$8                      ; 0x8 <__rc6>
    41c4: a2 70        	ldx	#$70
    41c6: 86 09        	stx	$9                      ; 0x9 <__rc7>
    41c8: 64 0a        	stz	$a                      ; 0xa <__zp_data_size>
    41ca: 64 0b        	stz	$b                      ; 0xb <__rc9>
    41cc: 64 0c        	stz	$c                      ; 0xc <__rc10>
    41ce: a2 00        	ldx	#$0
    41d0: 8a           	txa
    41d1: 20 88 58     	jsr	$5888 <messagebox>
    41d4: aa           	tax
    41d5: d0 03        	bne	$41da <donehypclosefile3+0x1201>
    41d7: 4c 03 23     	jmp	$2303 <main+0x1ed>
    41da: a9 00        	lda	#$0
    41dc: 8d 7f d6     	sta	$d67f                   ; 0xd67f <__heap_start+0x56e7>
    41df: b8           	clv
    41e0: a2 93        	ldx	#$93
    41e2: 86 04        	stx	$4                      ; 0x4 <__rc2>
    41e4: a2 79        	ldx	#$79
    41e6: 86 05        	stx	$5                      ; 0x5 <__rc3>
    41e8: a2 59        	ldx	#$59
    41ea: 86 06        	stx	$6                      ; 0x6 <__rc4>
    41ec: a2 73        	ldx	#$73
    41ee: 86 07        	stx	$7                      ; 0x7 <__rc5>
    41f0: a9 1e        	lda	#$1e
    41f2: 20 df 59     	jsr	$59df <progress>
    41f5: a2 1e        	ldx	#$1e
    41f7: 86 04        	stx	$4                      ; 0x4 <__rc2>
    41f9: 64 05        	stz	$5                      ; 0x5 <__rc3>
    41fb: a2 84        	ldx	#$84
    41fd: a9 80        	lda	#$80
    41ff: 20 5d 6a     	jsr	$6a5d <usleep>
    4202: a9 27        	lda	#$27
    4204: 18           	clc
    4205: 65 1c        	adc	$1c                     ; 0x1c <__rc26>
    4207: 85 04        	sta	$4                      ; 0x4 <__rc2>
    4209: a9 00        	lda	#$0
    420b: 65 1b        	adc	$1b                     ; 0x1b <__rc25>
    420d: 85 05        	sta	$5                      ; 0x5 <__rc3>
    420f: b2 04        	lda	($4),z                  ; 0x4 <__rc2>
    4211: aa           	tax
    4212: a0 01        	ldy	#$1
    4214: b1 04        	lda	($4),y                  ; 0x4 <__rc2>
    4216: 86 04        	stx	$4                      ; 0x4 <__rc2>
    4218: 85 05        	sta	$5                      ; 0x5 <__rc3>
    421a: 98           	tya
    421b: a0 46        	ldy	#$46
    421d: 11 04        	ora	($4),y                  ; 0x4 <__rc2>
    421f: 91 04        	sta	($4),y                  ; 0x4 <__rc2>
    4221: a0 1f        	ldy	#$1f
    4223: b1 02        	lda	($2),y                  ; 0x2 <__rc0>
    4225: 85 1e        	sta	$1e                     ; 0x1e <__rc28>
    4227: 0a           	asl
    4228: 85 06        	sta	$6                      ; 0x6 <__rc4>
    422a: a9 00        	lda	#$0
    422c: 2a           	rol
    422d: 85 07        	sta	$7                      ; 0x7 <__rc5>
    422f: a9 27        	lda	#$27
    4231: 18           	clc
    4232: 65 06        	adc	$6                      ; 0x6 <__rc4>
    4234: 85 06        	sta	$6                      ; 0x6 <__rc4>
    4236: a9 00        	lda	#$0
    4238: 65 07        	adc	$7                      ; 0x7 <__rc5>
    423a: 85 07        	sta	$7                      ; 0x7 <__rc5>
    423c: b2 06        	lda	($6),z                  ; 0x6 <__rc4>
    423e: 85 18        	sta	$18                     ; 0x18 <__rc22>
    4240: a0 01        	ldy	#$1
    4242: b1 06        	lda	($6),y                  ; 0x6 <__rc4>
    4244: 85 19        	sta	$19                     ; 0x19 <__rc23>
    4246: 98           	tya
    4247: a0 46        	ldy	#$46
    4249: 11 18        	ora	($18),y                 ; 0x18 <__rc22>
    424b: 91 18        	sta	($18),y                 ; 0x18 <__rc22>
    424d: a9 28        	lda	#$28
    424f: c8           	iny
    4250: 91 04        	sta	($4),y                  ; 0x4 <__rc2>
    4252: 91 18        	sta	($18),y                 ; 0x18 <__rc22>
    4254: b2 04        	lda	($4),z                  ; 0x4 <__rc2>
    4256: 48           	pha
    4257: a0 18        	ldy	#$18
    4259: b1 02        	lda	($2),y                  ; 0x2 <__rc0>
    425b: aa           	tax
    425c: 68           	pla
    425d: 20 07 5f     	jsr	$5f07 <UpdateSectors>
    4260: b2 18        	lda	($18),z                 ; 0x18 <__rc22>
    4262: 4c 0b 44     	jmp	$440b <donehypd81detach4+0xb>
    4265: a9 27        	lda	#$27
    4267: 18           	clc
    4268: 65 1c        	adc	$1c                     ; 0x1c <__rc26>
    426a: 85 04        	sta	$4                      ; 0x4 <__rc2>
    426c: a9 00        	lda	#$0
    426e: 65 1b        	adc	$1b                     ; 0x1b <__rc25>
    4270: 85 05        	sta	$5                      ; 0x5 <__rc3>
    4272: b2 04        	lda	($4),z                  ; 0x4 <__rc2>
    4274: 85 18        	sta	$18                     ; 0x18 <__rc22>
    4276: b1 04        	lda	($4),y                  ; 0x4 <__rc2>
    4278: 85 19        	sta	$19                     ; 0x19 <__rc23>
    427a: a9 01        	lda	#$1
    427c: a0 46        	ldy	#$46
    427e: 31 18        	and	($18),y                 ; 0x18 <__rc22>
    4280: d0 03        	bne	$4285 <donehypclosefile3+0x12ac>
    4282: 4c b4 42     	jmp	$42b4 <donehypclosefile3+0x12db>
    4285: a0 1f        	ldy	#$1f
    4287: b1 02        	lda	($2),y                  ; 0x2 <__rc0>
    4289: 0a           	asl
    428a: 85 04        	sta	$4                      ; 0x4 <__rc2>
    428c: a9 00        	lda	#$0
    428e: 2a           	rol
    428f: 85 05        	sta	$5                      ; 0x5 <__rc3>
    4291: a9 27        	lda	#$27
    4293: 18           	clc
    4294: 65 04        	adc	$4                      ; 0x4 <__rc2>
    4296: 85 04        	sta	$4                      ; 0x4 <__rc2>
    4298: a9 00        	lda	#$0
    429a: 65 05        	adc	$5                      ; 0x5 <__rc3>
    429c: 85 05        	sta	$5                      ; 0x5 <__rc3>
    429e: b2 04        	lda	($4),z                  ; 0x4 <__rc2>
    42a0: 85 1a        	sta	$1a                     ; 0x1a <__rc24>
    42a2: a0 01        	ldy	#$1
    42a4: b1 04        	lda	($4),y                  ; 0x4 <__rc2>
    42a6: 85 1b        	sta	$1b                     ; 0x1b <__rc25>
    42a8: 98           	tya
    42a9: a0 46        	ldy	#$46
    42ab: 31 1a        	and	($1a),y                 ; 0x1a <__rc24>
    42ad: 29 01        	and	#$1
    42af: f0 03        	beq	$42b4 <donehypclosefile3+0x12db>
    42b1: 4c 24 45     	jmp	$4524 <donehypd81detach4+0x124>
    42b4: a2 55        	ldx	#$55
    42b6: 86 04        	stx	$4                      ; 0x4 <__rc2>
    42b8: a2 71        	ldx	#$71
    42ba: 4c 07 31     	jmp	$3107 <donehypclosefile3+0x12e>
    42bd: e0 11        	cpx	#$11
    42bf: f0 03        	beq	$42c4 <donehypclosefile3+0x12eb>
    42c1: 4c f7 2e     	jmp	$2ef7 <main+0xde1>
    42c4: a9 27        	lda	#$27
    42c6: 18           	clc
    42c7: 65 1c        	adc	$1c                     ; 0x1c <__rc26>
    42c9: 85 04        	sta	$4                      ; 0x4 <__rc2>
    42cb: a9 00        	lda	#$0
    42cd: 65 1b        	adc	$1b                     ; 0x1b <__rc25>
    42cf: 85 05        	sta	$5                      ; 0x5 <__rc3>
    42d1: b2 04        	lda	($4),z                  ; 0x4 <__rc2>
    42d3: aa           	tax
    42d4: b1 04        	lda	($4),y                  ; 0x4 <__rc2>
    42d6: 86 04        	stx	$4                      ; 0x4 <__rc2>
    42d8: 85 05        	sta	$5                      ; 0x5 <__rc3>
    42da: b1 04        	lda	($4),y                  ; 0x4 <__rc2>
    42dc: 1a           	inc
    42dd: 91 04        	sta	($4),y                  ; 0x4 <__rc2>
    42df: 4c 03 23     	jmp	$2303 <main+0x1ed>
    42e2: a6 21        	ldx	$21                     ; 0x21 <__rc31>
    42e4: e0 f5        	cpx	#$f5
    42e6: f0 03        	beq	$42eb <donehypclosefile3+0x1312>
    42e8: 4c 3d 43     	jmp	$433d <donehypclosefile3+0x1364>
    42eb: a6 04        	ldx	$4                      ; 0x4 <__rc2>
    42ed: 86 18        	stx	$18                     ; 0x18 <__rc22>
    42ef: a6 05        	ldx	$5                      ; 0x5 <__rc3>
    42f1: 86 19        	stx	$19                     ; 0x19 <__rc23>
    42f3: a0 18        	ldy	#$18
    42f5: b1 02        	lda	($2),y                  ; 0x2 <__rc0>
    42f7: 20 b2 65     	jsr	$65b2 <sizeselectcurrentifnone>
    42fa: 85 04        	sta	$4                      ; 0x4 <__rc2>
    42fc: 86 05        	stx	$5                      ; 0x5 <__rc3>
    42fe: 18           	clc
    42ff: a5 1f        	lda	$1f                     ; 0x1f <__rc29>
    4301: 69 44        	adc	#$44
    4303: aa           	tax
    4304: a0 1b        	ldy	#$1b
    4306: b1 02        	lda	($2),y                  ; 0x2 <__rc0>
    4308: 69 00        	adc	#$0
    430a: 86 06        	stx	$6                      ; 0x6 <__rc4>
    430c: 85 07        	sta	$7                      ; 0x7 <__rc5>
    430e: a0 01        	ldy	#$1
    4310: b1 06        	lda	($6),y                  ; 0x6 <__rc4>
    4312: c5 05        	cmp	$5                      ; 0x5 <__rc3>
    4314: f0 03        	beq	$4319 <donehypclosefile3+0x1340>
    4316: 4c ec 45     	jmp	$45ec <donehypchdir5+0x39>
    4319: a0 44        	ldy	#$44
    431b: 5a           	phy
    431c: a0 1d        	ldy	#$1d
    431e: b1 02        	lda	($2),y                  ; 0x2 <__rc0>
    4320: 85 06        	sta	$6                      ; 0x6 <__rc4>
    4322: c8           	iny
    4323: b1 02        	lda	($2),y                  ; 0x2 <__rc0>
    4325: 7a           	ply
    4326: 85 07        	sta	$7                      ; 0x7 <__rc5>
    4328: b1 06        	lda	($6),y                  ; 0x6 <__rc4>
    432a: c5 04        	cmp	$4                      ; 0x4 <__rc2>
    432c: b0 03        	bcs	$4331 <donehypclosefile3+0x1358>
    432e: 4c f3 45     	jmp	$45f3 <donehypchdir5+0x40>
    4331: a0 18        	ldy	#$18
    4333: b1 02        	lda	($2),y                  ; 0x2 <__rc0>
    4335: f0 03        	beq	$433a <donehypclosefile3+0x1361>
    4337: 4c ee 46     	jmp	$46ee <donehypchdir6+0xa9>
    433a: 4c b6 47     	jmp	$47b6 <donehyp1att7+0x52>
    433d: 98           	tya
    433e: d0 03        	bne	$4343 <donehypclosefile3+0x136a>
    4340: 4c 03 23     	jmp	$2303 <main+0x1ed>
    4343: a0 18        	ldy	#$18
    4345: b1 02        	lda	($2),y                  ; 0x2 <__rc0>
    4347: d0 03        	bne	$434c <donehypclosefile3+0x1373>
    4349: 4c 97 44     	jmp	$4497 <donehypd81detach4+0x97>
    434c: a2 33        	ldx	#$33
    434e: 86 08        	stx	$8                      ; 0x8 <__rc6>
    4350: a2 76        	ldx	#$76
    4352: 4c 9d 44     	jmp	$449d <donehypd81detach4+0x9d>
    4355: e0 5f        	cpx	#$5f
    4357: d0 03        	bne	$435c <donehypclosefile3+0x1383>
    4359: 4c 34 32     	jmp	$3234 <donehypclosefile3+0x25b>
    435c: a5 21        	lda	$21                     ; 0x21 <__rc31>
    435e: a6 1d        	ldx	$1d                     ; 0x1d <__zp_bss_size>
    4360: d0 04        	bne	$4366 <donehypclosefile3+0x138d>
    4362: c9 91        	cmp	#$91
    4364: f0 1b        	beq	$4381 <donehypclosefile3+0x13a8>
    4366: a6 1d        	ldx	$1d                     ; 0x1d <__zp_bss_size>
    4368: d0 07        	bne	$4371 <donehypclosefile3+0x1398>
    436a: c9 9d        	cmp	#$9d
    436c: d0 03        	bne	$4371 <donehypclosefile3+0x1398>
    436e: 4c 32 44     	jmp	$4432 <donehypd81detach4+0x32>
    4371: a6 1d        	ldx	$1d                     ; 0x1d <__zp_bss_size>
    4373: e0 01        	cpx	#$1
    4375: f0 03        	beq	$437a <donehypclosefile3+0x13a1>
    4377: 4c 13 44     	jmp	$4413 <donehypd81detach4+0x13>
    437a: c9 91        	cmp	#$91
    437c: f0 03        	beq	$4381 <donehypclosefile3+0x13a8>
    437e: 4c 13 44     	jmp	$4413 <donehypd81detach4+0x13>
    4381: a9 27        	lda	#$27
    4383: 18           	clc
    4384: 65 1c        	adc	$1c                     ; 0x1c <__rc26>
    4386: 85 04        	sta	$4                      ; 0x4 <__rc2>
    4388: a9 00        	lda	#$0
    438a: 65 1b        	adc	$1b                     ; 0x1b <__rc25>
    438c: 85 05        	sta	$5                      ; 0x5 <__rc3>
    438e: b2 04        	lda	($4),z                  ; 0x4 <__rc2>
    4390: aa           	tax
    4391: b1 04        	lda	($4),y                  ; 0x4 <__rc2>
    4393: 86 04        	stx	$4                      ; 0x4 <__rc2>
    4395: 85 05        	sta	$5                      ; 0x5 <__rc3>
    4397: b1 04        	lda	($4),y                  ; 0x4 <__rc2>
    4399: d0 03        	bne	$439e <donehypclosefile3+0x13c5>
    439b: 4c 03 23     	jmp	$2303 <main+0x1ed>
    439e: 3a           	dec
    439f: 91 04        	sta	($4),y                  ; 0x4 <__rc2>
    43a1: 4c 03 23     	jmp	$2303 <main+0x1ed>
    43a4: a2 36        	ldx	#$36
    43a6: 86 04        	stx	$4                      ; 0x4 <__rc2>
    43a8: a2 72        	ldx	#$72
    43aa: 86 05        	stx	$5                      ; 0x5 <__rc3>
    43ac: a2 94        	ldx	#$94
    43ae: 86 06        	stx	$6                      ; 0x6 <__rc4>
    43b0: a2 74        	ldx	#$74
    43b2: 86 07        	stx	$7                      ; 0x7 <__rc5>
    43b4: a2 fd        	ldx	#$fd
    43b6: 86 08        	stx	$8                      ; 0x8 <__rc6>
    43b8: a2 70        	ldx	#$70
    43ba: 86 09        	stx	$9                      ; 0x9 <__rc7>
    43bc: 64 0a        	stz	$a                      ; 0xa <__zp_data_size>
    43be: 64 0b        	stz	$b                      ; 0xb <__rc9>
    43c0: 64 0c        	stz	$c                      ; 0xc <__rc10>
    43c2: a2 00        	ldx	#$0
    43c4: 8a           	txa
    43c5: 20 88 58     	jsr	$5888 <messagebox>
    43c8: a0 01        	ldy	#$1
    43ca: aa           	tax
    43cb: d0 03        	bne	$43d0 <donehypclosefile3+0x13f7>
    43cd: 4c 03 23     	jmp	$2303 <main+0x1ed>
    43d0: 5a           	phy
    43d1: a0 1f        	ldy	#$1f
    43d3: b1 02        	lda	($2),y                  ; 0x2 <__rc0>
    43d5: 7a           	ply
    43d6: 85 1e        	sta	$1e                     ; 0x1e <__rc28>
    43d8: 0a           	asl
    43d9: 85 04        	sta	$4                      ; 0x4 <__rc2>
    43db: a9 00        	lda	#$0
    43dd: 2a           	rol
    43de: 85 05        	sta	$5                      ; 0x5 <__rc3>
    43e0: a9 27        	lda	#$27
    43e2: 18           	clc
    43e3: 65 04        	adc	$4                      ; 0x4 <__rc2>
    43e5: 85 04        	sta	$4                      ; 0x4 <__rc2>
    43e7: a9 00        	lda	#$0
    43e9: 65 05        	adc	$5                      ; 0x5 <__rc3>
    43eb: 85 05        	sta	$5                      ; 0x5 <__rc3>
    43ed: a2 00        	ldx	#$0
    43ef: a9 42        	lda	#$42
    43f1: 8d 40 d6     	sta	$d640                   ; 0xd640 <__heap_start+0x56a8>
    43f4: b8           	clv
    43f5: 90 05        	bcc	$43fc <errhypd81detach4>
    43f7: 85 06        	sta	$6                      ; 0x6 <__rc4>
    43f9: 4c 00 44     	jmp	$4400 <donehypd81detach4>

000043fc <errhypd81detach4>:
    43fc: a9 ff        	lda	#$ff
    43fe: 85 06        	sta	$6                      ; 0x6 <__rc4>

00004400 <donehypd81detach4>:
    4400: ea b2 04     	lda	[$4],z                  ; 0x4 <__rc2>
    4403: 85 06        	sta	$6                      ; 0x6 <__rc4>
    4405: b1 04        	lda	($4),y                  ; 0x4 <__rc2>
    4407: 85 07        	sta	$7                      ; 0x7 <__rc5>
    4409: b2 06        	lda	($6),z                  ; 0x6 <__rc4>
    440b: a6 1e        	ldx	$1e                     ; 0x1e <__rc28>
    440d: 20 07 5f     	jsr	$5f07 <UpdateSectors>
    4410: 4c 03 23     	jmp	$2303 <main+0x1ed>
    4413: a6 1d        	ldx	$1d                     ; 0x1d <__zp_bss_size>
    4415: e0 01        	cpx	#$1
    4417: d0 07        	bne	$4420 <donehypd81detach4+0x20>
    4419: c9 94        	cmp	#$94
    441b: d0 03        	bne	$4420 <donehypd81detach4+0x20>
    441d: 4c 70 3e     	jmp	$3e70 <donehypclosefile3+0xe97>
    4420: a6 1d        	ldx	$1d                     ; 0x1d <__zp_bss_size>
    4422: a5 21        	lda	$21                     ; 0x21 <__rc31>
    4424: e0 01        	cpx	#$1
    4426: f0 03        	beq	$442b <donehypd81detach4+0x2b>
    4428: 4c 66 45     	jmp	$4566 <donehypd81detach4+0x166>
    442b: c9 9d        	cmp	#$9d
    442d: f0 03        	beq	$4432 <donehypd81detach4+0x32>
    442f: 4c 66 45     	jmp	$4566 <donehypd81detach4+0x166>
    4432: a9 27        	lda	#$27
    4434: 18           	clc
    4435: 65 1c        	adc	$1c                     ; 0x1c <__rc26>
    4437: 85 04        	sta	$4                      ; 0x4 <__rc2>
    4439: a9 00        	lda	#$0
    443b: 65 1b        	adc	$1b                     ; 0x1b <__rc25>
    443d: 85 05        	sta	$5                      ; 0x5 <__rc3>
    443f: b2 04        	lda	($4),z                  ; 0x4 <__rc2>
    4441: aa           	tax
    4442: b1 04        	lda	($4),y                  ; 0x4 <__rc2>
    4444: 86 04        	stx	$4                      ; 0x4 <__rc2>
    4446: 85 05        	sta	$5                      ; 0x5 <__rc3>
    4448: b1 04        	lda	($4),y                  ; 0x4 <__rc2>
    444a: c9 0b        	cmp	#$b
    444c: b0 03        	bcs	$4451 <donehypd81detach4+0x51>
    444e: 4c 5c 46     	jmp	$465c <donehypchdir6+0x17>
    4451: 18           	clc
    4452: 69 f6        	adc	#$f6
    4454: 91 04        	sta	($4),y                  ; 0x4 <__rc2>
    4456: 4c 03 23     	jmp	$2303 <main+0x1ed>
    4459: a0 1f        	ldy	#$1f
    445b: b1 02        	lda	($2),y                  ; 0x2 <__rc0>
    445d: 85 04        	sta	$4                      ; 0x4 <__rc2>
    445f: c8           	iny
    4460: b1 02        	lda	($2),y                  ; 0x2 <__rc0>
    4462: 85 05        	sta	$5                      ; 0x5 <__rc3>
    4464: b2 04        	lda	($4),z                  ; 0x4 <__rc2>
    4466: 4c 51 46     	jmp	$4651 <donehypchdir6+0xc>
    4469: 29 0f        	and	#$f
    446b: c9 05        	cmp	#$5
    446d: d0 09        	bne	$4478 <donehypd81detach4+0x78>
    446f: b1 16        	lda	($16),y                 ; 0x16 <__rc20>
    4471: c9 ff        	cmp	#$ff
    4473: f0 03        	beq	$4478 <donehypd81detach4+0x78>
    4475: 4c 68 47     	jmp	$4768 <donehyp1att7+0x4>
    4478: 20 f9 66     	jsr	$66f9 <sidbong>
    447b: a0 02        	ldy	#$2
    447d: b1 16        	lda	($16),y                 ; 0x16 <__rc20>
    447f: c9 ff        	cmp	#$ff
    4481: d0 03        	bne	$4486 <donehypd81detach4+0x86>
    4483: 4c 03 23     	jmp	$2303 <main+0x1ed>
    4486: a2 5f        	ldx	#$5f
    4488: 86 04        	stx	$4                      ; 0x4 <__rc2>
    448a: a2 74        	ldx	#$74
    448c: 86 05        	stx	$5                      ; 0x5 <__rc3>
    448e: a2 07        	ldx	#$7
    4490: 86 06        	stx	$6                      ; 0x6 <__rc4>
    4492: a2 79        	ldx	#$79
    4494: 4c 0f 31     	jmp	$310f <donehypclosefile3+0x136>
    4497: a2 d5        	ldx	#$d5
    4499: 86 08        	stx	$8                      ; 0x8 <__rc6>
    449b: a2 71        	ldx	#$71
    449d: 86 09        	stx	$9                      ; 0x9 <__rc7>
    449f: a5 06        	lda	$6                      ; 0x6 <__rc4>
    44a1: 18           	clc
    44a2: 69 05        	adc	#$5
    44a4: 85 06        	sta	$6                      ; 0x6 <__rc4>
    44a6: a5 07        	lda	$7                      ; 0x7 <__rc5>
    44a8: 69 00        	adc	#$0
    44aa: 85 07        	sta	$7                      ; 0x7 <__rc5>
    44ac: a2 72        	ldx	#$72
    44ae: 86 04        	stx	$4                      ; 0x4 <__rc2>
    44b0: a2 7a        	ldx	#$7a
    44b2: 86 05        	stx	$5                      ; 0x5 <__rc3>
    44b4: 64 0a        	stz	$a                      ; 0xa <__zp_data_size>
    44b6: 64 0b        	stz	$b                      ; 0xb <__rc9>
    44b8: 64 0c        	stz	$c                      ; 0xc <__rc10>
    44ba: a2 00        	ldx	#$0
    44bc: 8a           	txa
    44bd: 20 88 58     	jsr	$5888 <messagebox>
    44c0: aa           	tax
    44c1: d0 03        	bne	$44c6 <donehypd81detach4+0xc6>
    44c3: 4c 03 23     	jmp	$2303 <main+0x1ed>
    44c6: a0 18        	ldy	#$18
    44c8: b1 02        	lda	($2),y                  ; 0x2 <__rc0>
    44ca: 20 b2 65     	jsr	$65b2 <sizeselectcurrentifnone>
    44cd: e0 ff        	cpx	#$ff
    44cf: d0 07        	bne	$44d8 <donehypd81detach4+0xd8>
    44d1: c9 ff        	cmp	#$ff
    44d3: d0 03        	bne	$44d8 <donehypd81detach4+0xd8>
    44d5: 4c 03 23     	jmp	$2303 <main+0x1ed>
    44d8: a9 00        	lda	#$0
    44da: a6 1e        	ldx	$1e                     ; 0x1e <__rc28>
    44dc: e0 01        	cpx	#$1
    44de: 2a           	rol
    44df: 85 04        	sta	$4                      ; 0x4 <__rc2>
    44e1: 85 08        	sta	$8                      ; 0x8 <__rc6>
    44e3: a6 18        	ldx	$18                     ; 0x18 <__rc22>
    44e5: e0 01        	cpx	#$1
    44e7: 26 08        	rol	$8                      ; 0x8 <__rc6>
    44e9: a6 19        	ldx	$19                     ; 0x19 <__rc23>
    44eb: e0 01        	cpx	#$1
    44ed: 26 08        	rol	$8                      ; 0x8 <__rc6>
    44ef: a5 16        	lda	$16                     ; 0x16 <__rc20>
    44f1: 0a           	asl
    44f2: 26 20        	rol	$20                     ; 0x20 <__rc30>
    44f4: 26 08        	rol	$8                      ; 0x8 <__rc6>
    44f6: 38           	sec
    44f7: e5 1c        	sbc	$1c                     ; 0x1c <__rc26>
    44f9: a0 17        	ldy	#$17
    44fb: 91 02        	sta	($2),y                  ; 0x2 <__rc0>
    44fd: a0 10        	ldy	#$10
    44ff: 91 02        	sta	($2),y                  ; 0x2 <__rc0>
    4501: a5 20        	lda	$20                     ; 0x20 <__rc30>
    4503: e5 1b        	sbc	$1b                     ; 0x1b <__rc25>
    4505: a0 16        	ldy	#$16
    4507: 91 02        	sta	($2),y                  ; 0x2 <__rc0>
    4509: a0 0f        	ldy	#$f
    450b: 91 02        	sta	($2),y                  ; 0x2 <__rc0>
    450d: a5 08        	lda	$8                      ; 0x8 <__rc6>
    450f: e5 04        	sbc	$4                      ; 0x4 <__rc2>
    4511: 09 08        	ora	#$8
    4513: a0 15        	ldy	#$15
    4515: 91 02        	sta	($2),y                  ; 0x2 <__rc0>
    4517: a0 0e        	ldy	#$e
    4519: 91 02        	sta	($2),y                  ; 0x2 <__rc0>
    451b: a2 70        	ldx	#$70
    451d: 64 04        	stz	$4                      ; 0x4 <__rc2>
    451f: 86 1e        	stx	$1e                     ; 0x1e <__rc28>
    4521: 4c 46 28     	jmp	$2846 <main+0x730>
    4524: a2 5d        	ldx	#$5d
    4526: 86 04        	stx	$4                      ; 0x4 <__rc2>
    4528: a2 73        	ldx	#$73
    452a: 86 05        	stx	$5                      ; 0x5 <__rc3>
    452c: a2 93        	ldx	#$93
    452e: 86 06        	stx	$6                      ; 0x6 <__rc4>
    4530: a2 75        	ldx	#$75
    4532: 86 07        	stx	$7                      ; 0x7 <__rc5>
    4534: a2 fd        	ldx	#$fd
    4536: 86 08        	stx	$8                      ; 0x8 <__rc6>
    4538: a2 70        	ldx	#$70
    453a: 86 09        	stx	$9                      ; 0x9 <__rc7>
    453c: 64 0a        	stz	$a                      ; 0xa <__zp_data_size>
    453e: 64 0b        	stz	$b                      ; 0xb <__rc9>
    4540: 64 0c        	stz	$c                      ; 0xc <__rc10>
    4542: a2 00        	ldx	#$0
    4544: 8a           	txa
    4545: 20 88 58     	jsr	$5888 <messagebox>
    4548: aa           	tax
    4549: d0 03        	bne	$454e <donehypd81detach4+0x14e>
    454b: 4c 03 23     	jmp	$2303 <main+0x1ed>
    454e: a0 18        	ldy	#$18
    4550: b1 02        	lda	($2),y                  ; 0x2 <__rc0>
    4552: 20 f8 4c     	jsr	$4cf8 <GetBAM>
    4555: b2 18        	lda	($18),z                 ; 0x18 <__rc22>
    4557: 85 17        	sta	$17                     ; 0x17 <__rc21>
    4559: b2 1a        	lda	($1a),z                 ; 0x1a <__rc24>
    455b: 85 16        	sta	$16                     ; 0x16 <__rc20>
    455d: a0 01        	ldy	#$1
    455f: 64 04        	stz	$4                      ; 0x4 <__rc2>
    4561: 64 1e        	stz	$1e                     ; 0x1e <__rc28>
    4563: 4c f5 3e     	jmp	$3ef5 <donehypclosefile3+0xf1c>
    4566: a6 1d        	ldx	$1d                     ; 0x1d <__zp_bss_size>
    4568: e0 02        	cpx	#$2
    456a: d0 03        	bne	$456f <donehypd81detach4+0x16f>
    456c: 4c 0f 47     	jmp	$470f <donehypchdir6+0xca>
    456f: a6 1d        	ldx	$1d                     ; 0x1d <__zp_bss_size>
    4571: e0 04        	cpx	#$4
    4573: d0 03        	bne	$4578 <donehypd81detach4+0x178>
    4575: 4c 8a 47     	jmp	$478a <donehyp1att7+0x26>
    4578: a6 1d        	ldx	$1d                     ; 0x1d <__zp_bss_size>
    457a: e0 02        	cpx	#$2
    457c: f0 03        	beq	$4581 <donehypd81detach4+0x181>
    457e: 4c c8 47     	jmp	$47c8 <donehyp1att7+0x64>
    4581: 4c bf 47     	jmp	$47bf <donehyp1att7+0x5b>
    4584: a5 04        	lda	$4                      ; 0x4 <__rc2>
    4586: 18           	clc
    4587: 69 05        	adc	#$5
    4589: 85 18        	sta	$18                     ; 0x18 <__rc22>
    458b: a5 05        	lda	$5                      ; 0x5 <__rc3>
    458d: 69 00        	adc	#$0
    458f: 85 19        	sta	$19                     ; 0x19 <__rc23>
    4591: a6 18        	ldx	$18                     ; 0x18 <__rc22>
    4593: 86 04        	stx	$4                      ; 0x4 <__rc2>
    4595: 85 05        	sta	$5                      ; 0x5 <__rc3>
    4597: 20 76 48     	jsr	$4876 <hyppo_setname>
    459a: a2 00        	ldx	#$0
    459c: a9 34        	lda	#$34
    459e: 8d 40 d6     	sta	$d640                   ; 0xd640 <__heap_start+0x56a8>
    45a1: b8           	clv
    45a2: 90 0b        	bcc	$45af <errhypchdir5>
    45a4: a9 0c        	lda	#$c
    45a6: 8d 40 d6     	sta	$d640                   ; 0xd640 <__heap_start+0x56a8>
    45a9: b8           	clv
    45aa: 85 04        	sta	$4                      ; 0x4 <__rc2>
    45ac: 4c b3 45     	jmp	$45b3 <donehypchdir5>

000045af <errhypchdir5>:
    45af: a9 ff        	lda	#$ff
    45b1: 85 04        	sta	$4                      ; 0x4 <__rc2>

000045b3 <donehypchdir5>:
    45b3: ea           	nop
    45b4: a6 04        	ldx	$4                      ; 0x4 <__rc2>
    45b6: e0 10        	cpx	#$10
    45b8: b0 03        	bcs	$45bd <donehypchdir5+0xa>
    45ba: 4c 40 47     	jmp	$4740 <donehypchdir6+0xfb>
    45bd: 4c 19 47     	jmp	$4719 <donehypchdir6+0xd4>
    45c0: 86 09        	stx	$9                      ; 0x9 <__rc7>
    45c2: a5 18        	lda	$18                     ; 0x18 <__rc22>
    45c4: 18           	clc
    45c5: 69 05        	adc	#$5
    45c7: 85 06        	sta	$6                      ; 0x6 <__rc4>
    45c9: a5 19        	lda	$19                     ; 0x19 <__rc23>
    45cb: 69 00        	adc	#$0
    45cd: 85 07        	sta	$7                      ; 0x7 <__rc5>
    45cf: a2 86        	ldx	#$86
    45d1: 86 04        	stx	$4                      ; 0x4 <__rc2>
    45d3: a2 72        	ldx	#$72
    45d5: 86 05        	stx	$5                      ; 0x5 <__rc3>
    45d7: 64 0a        	stz	$a                      ; 0xa <__zp_data_size>
    45d9: 64 0b        	stz	$b                      ; 0xb <__rc9>
    45db: 64 0c        	stz	$c                      ; 0xc <__rc10>
    45dd: a2 00        	ldx	#$0
    45df: 8a           	txa
    45e0: 20 88 58     	jsr	$5888 <messagebox>
    45e3: aa           	tax
    45e4: f0 03        	beq	$45e9 <donehypchdir5+0x36>
    45e6: 4c f7 46     	jmp	$46f7 <donehypchdir6+0xb2>
    45e9: 4c 03 23     	jmp	$2303 <main+0x1ed>
    45ec: c5 05        	cmp	$5                      ; 0x5 <__rc3>
    45ee: 90 03        	bcc	$45f3 <donehypchdir5+0x40>
    45f0: 4c 31 43     	jmp	$4331 <donehypclosefile3+0x1358>
    45f3: a2 86        	ldx	#$86
    45f5: 86 04        	stx	$4                      ; 0x4 <__rc2>
    45f7: a2 72        	ldx	#$72
    45f9: 86 05        	stx	$5                      ; 0x5 <__rc3>
    45fb: a2 3e        	ldx	#$3e
    45fd: 86 06        	stx	$6                      ; 0x6 <__rc4>
    45ff: a2 72        	ldx	#$72
    4601: 4c 0f 31     	jmp	$310f <donehypclosefile3+0x136>
    4604: b2 1a        	lda	($1a),z                 ; 0x1a <__rc24>
    4606: 48           	pha
    4607: a0 1f        	ldy	#$1f
    4609: b1 02        	lda	($2),y                  ; 0x2 <__rc0>
    460b: aa           	tax
    460c: 68           	pla
    460d: 20 07 5f     	jsr	$5f07 <UpdateSectors>
    4610: 4c 03 23     	jmp	$2303 <main+0x1ed>
    4613: a5 04        	lda	$4                      ; 0x4 <__rc2>
    4615: f0 03        	beq	$461a <donehypchdir5+0x67>
    4617: 4c 71 47     	jmp	$4771 <donehyp1att7+0xd>
    461a: 4c 2d 48     	jmp	$482d <donehyp0att8+0x4>
    461d: 91 16        	sta	($16),y                 ; 0x16 <__rc20>
    461f: 80 2e        	bra	$464f <donehypchdir6+0xa>
    4621: a2 5a        	ldx	#$5a
    4623: 86 04        	stx	$4                      ; 0x4 <__rc2>
    4625: a2 7c        	ldx	#$7c
    4627: 86 05        	stx	$5                      ; 0x5 <__rc3>
    4629: 20 76 48     	jsr	$4876 <hyppo_setname>
    462c: a2 00        	ldx	#$0
    462e: a9 34        	lda	#$34
    4630: 8d 40 d6     	sta	$d640                   ; 0xd640 <__heap_start+0x56a8>
    4633: b8           	clv
    4634: 90 0b        	bcc	$4641 <errhypchdir6>
    4636: a9 0c        	lda	#$c
    4638: 8d 40 d6     	sta	$d640                   ; 0xd640 <__heap_start+0x56a8>
    463b: b8           	clv
    463c: 85 04        	sta	$4                      ; 0x4 <__rc2>
    463e: 4c 45 46     	jmp	$4645 <donehypchdir6>

00004641 <errhypchdir6>:
    4641: a9 ff        	lda	#$ff
    4643: 85 04        	sta	$4                      ; 0x4 <__rc2>

00004645 <donehypchdir6>:
    4645: ea           	nop
    4646: a6 04        	ldx	$4                      ; 0x4 <__rc2>
    4648: e0 10        	cpx	#$10
    464a: 90 03        	bcc	$464f <donehypchdir6+0xa>
    464c: 4c 96 47     	jmp	$4796 <donehyp1att7+0x32>
    464f: b2 16        	lda	($16),z                 ; 0x16 <__rc20>
    4651: 48           	pha
    4652: a0 18        	ldy	#$18
    4654: b1 02        	lda	($2),y                  ; 0x2 <__rc0>
    4656: 85 16        	sta	$16                     ; 0x16 <__rc20>
    4658: 68           	pla
    4659: 4c a7 36     	jmp	$36a7 <donehypclosefile3+0x6ce>
    465c: a9 00        	lda	#$0
    465e: 91 04        	sta	($4),y                  ; 0x4 <__rc2>
    4660: 4c 03 23     	jmp	$2303 <main+0x1ed>
    4663: 20 7b 56     	jsr	$567b <clrhome>
    4666: a2 91        	ldx	#$91
    4668: 86 04        	stx	$4                      ; 0x4 <__rc2>
    466a: a2 72        	ldx	#$72
    466c: 86 05        	stx	$5                      ; 0x5 <__rc3>
    466e: 20 d9 56     	jsr	$56d9 <msprintf>
    4671: a9 80        	lda	#$80
    4673: a2 84        	ldx	#$84
    4675: a0 1e        	ldy	#$1e
    4677: 84 04        	sty	$4                      ; 0x4 <__rc2>
    4679: 64 05        	stz	$5                      ; 0x5 <__rc3>
    467b: 20 5d 6a     	jsr	$6a5d <usleep>
    467e: a2 00        	ldx	#$0
    4680: a9 7e        	lda	#$7e
    4682: 8d 40 d6     	sta	$d640                   ; 0xd640 <__heap_start+0x56a8>
    4685: b8           	clv
    4686: 8a           	txa
    4687: 85 12        	sta	$12                     ; 0x12 <__rc16>
    4689: a8           	tay
    468a: b1 02        	lda	($2),y                  ; 0x2 <__rc0>
    468c: 85 21        	sta	$21                     ; 0x21 <__rc31>
    468e: c8           	iny
    468f: b1 02        	lda	($2),y                  ; 0x2 <__rc0>
    4691: 85 20        	sta	$20                     ; 0x20 <__rc30>
    4693: c8           	iny
    4694: b1 02        	lda	($2),y                  ; 0x2 <__rc0>
    4696: 85 1f        	sta	$1f                     ; 0x1f <__rc29>
    4698: c8           	iny
    4699: b1 02        	lda	($2),y                  ; 0x2 <__rc0>
    469b: 85 1e        	sta	$1e                     ; 0x1e <__rc28>
    469d: c8           	iny
    469e: b1 02        	lda	($2),y                  ; 0x2 <__rc0>
    46a0: 85 1d        	sta	$1d                     ; 0x1d <__zp_bss_size>
    46a2: c8           	iny
    46a3: b1 02        	lda	($2),y                  ; 0x2 <__rc0>
    46a5: 85 1c        	sta	$1c                     ; 0x1c <__rc26>
    46a7: c8           	iny
    46a8: b1 02        	lda	($2),y                  ; 0x2 <__rc0>
    46aa: 85 1b        	sta	$1b                     ; 0x1b <__rc25>
    46ac: c8           	iny
    46ad: b1 02        	lda	($2),y                  ; 0x2 <__rc0>
    46af: 85 1a        	sta	$1a                     ; 0x1a <__rc24>
    46b1: 7a           	ply
    46b2: 84 19        	sty	$19                     ; 0x19 <__rc23>
    46b4: 7a           	ply
    46b5: 84 18        	sty	$18                     ; 0x18 <__rc22>
    46b7: 7a           	ply
    46b8: 84 17        	sty	$17                     ; 0x17 <__rc21>
    46ba: 7a           	ply
    46bb: 84 16        	sty	$16                     ; 0x16 <__rc20>
    46bd: 18           	clc
    46be: a5 02        	lda	$2                      ; 0x2 <__rc0>
    46c0: 69 2b        	adc	#$2b
    46c2: 85 02        	sta	$2                      ; 0x2 <__rc0>
    46c4: a5 03        	lda	$3                      ; 0x3 <__rc1>
    46c6: 69 00        	adc	#$0
    46c8: 85 03        	sta	$3                      ; 0x3 <__rc1>
    46ca: a5 12        	lda	$12                     ; 0x12 <__rc16>
    46cc: 60           	rts
    46cd: a0 1d        	ldy	#$1d
    46cf: b1 02        	lda	($2),y                  ; 0x2 <__rc0>
    46d1: 85 04        	sta	$4                      ; 0x4 <__rc2>
    46d3: c8           	iny
    46d4: b1 02        	lda	($2),y                  ; 0x2 <__rc0>
    46d6: 85 05        	sta	$5                      ; 0x5 <__rc3>
    46d8: b2 04        	lda	($4),z                  ; 0x4 <__rc2>
    46da: 48           	pha
    46db: a0 1c        	ldy	#$1c
    46dd: b1 02        	lda	($2),y                  ; 0x2 <__rc0>
    46df: aa           	tax
    46e0: 68           	pla
    46e1: 20 07 5f     	jsr	$5f07 <UpdateSectors>
    46e4: a0 18        	ldy	#$18
    46e6: b1 02        	lda	($2),y                  ; 0x2 <__rc0>
    46e8: 20 6c 65     	jsr	$656c <Deselect>
    46eb: 4c 03 23     	jmp	$2303 <main+0x1ed>
    46ee: a2 cd        	ldx	#$cd
    46f0: 86 08        	stx	$8                      ; 0x8 <__rc6>
    46f2: a2 77        	ldx	#$77
    46f4: 4c c0 45     	jmp	$45c0 <donehypchdir5+0xd>
    46f7: 64 06        	stz	$6                      ; 0x6 <__rc4>
    46f9: a2 08        	ldx	#$8
    46fb: a0 18        	ldy	#$18
    46fd: b1 02        	lda	($2),y                  ; 0x2 <__rc0>
    46ff: d0 03        	bne	$4704 <donehypchdir6+0xbf>
    4701: 4c 36 48     	jmp	$4836 <donehyp0att8+0xd>
    4704: 64 04        	stz	$4                      ; 0x4 <__rc2>
    4706: a9 00        	lda	#$0
    4708: a0 14        	ldy	#$14
    470a: 91 02        	sta	($2),y                  ; 0x2 <__rc0>
    470c: 4c 41 48     	jmp	$4841 <donehyp0att8+0x18>
    470f: c9 09        	cmp	#$9
    4711: f0 03        	beq	$4716 <donehypchdir6+0xd1>
    4713: 4c 6f 45     	jmp	$456f <donehypd81detach4+0x16f>
    4716: 4c e1 3f     	jmp	$3fe1 <donehypclosefile3+0x1008>
    4719: a2 f1        	ldx	#$f1
    471b: 86 04        	stx	$4                      ; 0x4 <__rc2>
    471d: a2 71        	ldx	#$71
    471f: 86 05        	stx	$5                      ; 0x5 <__rc3>
    4721: a2 4f        	ldx	#$4f
    4723: 86 06        	stx	$6                      ; 0x6 <__rc4>
    4725: a2 74        	ldx	#$74
    4727: 86 07        	stx	$7                      ; 0x7 <__rc5>
    4729: a6 18        	ldx	$18                     ; 0x18 <__rc22>
    472b: 86 08        	stx	$8                      ; 0x8 <__rc6>
    472d: a6 19        	ldx	$19                     ; 0x19 <__rc23>
    472f: 86 09        	stx	$9                      ; 0x9 <__rc7>
    4731: 64 0a        	stz	$a                      ; 0xa <__zp_data_size>
    4733: 64 0b        	stz	$b                      ; 0xb <__rc9>
    4735: 64 0c        	stz	$c                      ; 0xc <__rc10>
    4737: a2 00        	ldx	#$0
    4739: 8a           	txa
    473a: 20 88 58     	jsr	$5888 <messagebox>
    473d: 4c 94 32     	jmp	$3294 <donehypclosefile3+0x2bb>
    4740: b2 1a        	lda	($1a),z                 ; 0x1a <__rc24>
    4742: a6 1f        	ldx	$1f                     ; 0x1f <__rc29>
    4744: 20 07 5f     	jsr	$5f07 <UpdateSectors>
    4747: a5 1f        	lda	$1f                     ; 0x1f <__rc29>
    4749: 20 6c 65     	jsr	$656c <Deselect>
    474c: 4c 94 32     	jmp	$3294 <donehypclosefile3+0x2bb>
    474f: a2 00        	ldx	#$0
    4751: a9 46        	lda	#$46
    4753: 8d 40 d6     	sta	$d640                   ; 0xd640 <__heap_start+0x56a8>
    4756: b8           	clv
    4757: 90 07        	bcc	$4760 <errhyp1att7>
    4759: a9 00        	lda	#$0
    475b: 85 04        	sta	$4                      ; 0x4 <__rc2>
    475d: 4c 64 47     	jmp	$4764 <donehyp1att7>

00004760 <errhyp1att7>:
    4760: a9 ff        	lda	#$ff
    4762: 85 04        	sta	$4                      ; 0x4 <__rc2>

00004764 <donehyp1att7>:
    4764: ea           	nop
    4765: 4c 13 46     	jmp	$4613 <donehypchdir5+0x60>
    4768: a0 03        	ldy	#$3
    476a: b1 18        	lda	($18),y                 ; 0x18 <__rc22>
    476c: a0 47        	ldy	#$47
    476e: 4c 1d 46     	jmp	$461d <donehypchdir5+0x6a>
    4771: a2 6c        	ldx	#$6c
    4773: 86 04        	stx	$4                      ; 0x4 <__rc2>
    4775: a2 72        	ldx	#$72
    4777: 86 05        	stx	$5                      ; 0x5 <__rc3>
    4779: a2 32        	ldx	#$32
    477b: 86 06        	stx	$6                      ; 0x6 <__rc4>
    477d: a2 7a        	ldx	#$7a
    477f: 86 07        	stx	$7                      ; 0x7 <__rc5>
    4781: a2 5a        	ldx	#$5a
    4783: 86 08        	stx	$8                      ; 0x8 <__rc6>
    4785: a2 7c        	ldx	#$7c
    4787: 4c 17 31     	jmp	$3117 <donehypclosefile3+0x13e>
    478a: a6 21        	ldx	$21                     ; 0x21 <__rc31>
    478c: e0 15        	cpx	#$15
    478e: f0 03        	beq	$4793 <donehyp1att7+0x2f>
    4790: 4c 78 45     	jmp	$4578 <donehypd81detach4+0x178>
    4793: 4c 91 30     	jmp	$3091 <donehypclosefile3+0xb8>
    4796: a5 18        	lda	$18                     ; 0x18 <__rc22>
    4798: 18           	clc
    4799: 69 05        	adc	#$5
    479b: 85 08        	sta	$8                      ; 0x8 <__rc6>
    479d: a5 19        	lda	$19                     ; 0x19 <__rc23>
    479f: 69 00        	adc	#$0
    47a1: 85 09        	sta	$9                      ; 0x9 <__rc7>
    47a3: a2 9e        	ldx	#$9e
    47a5: 86 04        	stx	$4                      ; 0x4 <__rc2>
    47a7: a2 79        	ldx	#$79
    47a9: 86 05        	stx	$5                      ; 0x5 <__rc3>
    47ab: a2 4f        	ldx	#$4f
    47ad: 86 06        	stx	$6                      ; 0x6 <__rc4>
    47af: a2 74        	ldx	#$74
    47b1: 86 07        	stx	$7                      ; 0x7 <__rc5>
    47b3: 4c 19 31     	jmp	$3119 <donehypclosefile3+0x140>
    47b6: a2 c5        	ldx	#$c5
    47b8: 86 08        	stx	$8                      ; 0x8 <__rc6>
    47ba: a2 74        	ldx	#$74
    47bc: 4c c0 45     	jmp	$45c0 <donehypchdir5+0xd>
    47bf: a6 21        	ldx	$21                     ; 0x21 <__rc31>
    47c1: e0 94        	cpx	#$94
    47c3: d0 03        	bne	$47c8 <donehyp1att7+0x64>
    47c5: 4c 70 3e     	jmp	$3e70 <donehypclosefile3+0xe97>
    47c8: a6 1d        	ldx	$1d                     ; 0x1d <__zp_bss_size>
    47ca: a5 21        	lda	$21                     ; 0x21 <__rc31>
    47cc: e0 02        	cpx	#$2
    47ce: d0 07        	bne	$47d7 <donehyp1att7+0x73>
    47d0: c9 9d        	cmp	#$9d
    47d2: d0 03        	bne	$47d7 <donehyp1att7+0x73>
    47d4: 4c 32 44     	jmp	$4432 <donehypd81detach4+0x32>
    47d7: a6 1d        	ldx	$1d                     ; 0x1d <__zp_bss_size>
    47d9: e0 04        	cpx	#$4
    47db: d0 22        	bne	$47ff <donehyp1att7+0x9b>
    47dd: c9 12        	cmp	#$12
    47df: d0 1e        	bne	$47ff <donehyp1att7+0x9b>
    47e1: a9 27        	lda	#$27
    47e3: 18           	clc
    47e4: 65 1c        	adc	$1c                     ; 0x1c <__rc26>
    47e6: 85 04        	sta	$4                      ; 0x4 <__rc2>
    47e8: a9 00        	lda	#$0
    47ea: 65 1b        	adc	$1b                     ; 0x1b <__rc25>
    47ec: 85 05        	sta	$5                      ; 0x5 <__rc3>
    47ee: b2 04        	lda	($4),z                  ; 0x4 <__rc2>
    47f0: 85 06        	sta	$6                      ; 0x6 <__rc4>
    47f2: b1 04        	lda	($4),y                  ; 0x4 <__rc2>
    47f4: 85 07        	sta	$7                      ; 0x7 <__rc5>
    47f6: a9 01        	lda	#$1
    47f8: a0 46        	ldy	#$46
    47fa: 11 06        	ora	($6),y                  ; 0x6 <__rc4>
    47fc: 4c 5a 31     	jmp	$315a <donehypclosefile3+0x181>
    47ff: a6 1d        	ldx	$1d                     ; 0x1d <__zp_bss_size>
    4801: e0 02        	cpx	#$2
    4803: f0 03        	beq	$4808 <donehyp1att7+0xa4>
    4805: 4c 91 30     	jmp	$3091 <donehypclosefile3+0xb8>
    4808: a6 21        	ldx	$21                     ; 0x21 <__rc31>
    480a: e0 91        	cpx	#$91
    480c: d0 03        	bne	$4811 <donehyp1att7+0xad>
    480e: 4c 81 43     	jmp	$4381 <donehypclosefile3+0x13a8>
    4811: 4c 91 30     	jmp	$3091 <donehypclosefile3+0xb8>
    4814: a2 00        	ldx	#$0
    4816: a9 40        	lda	#$40
    4818: 8d 40 d6     	sta	$d640                   ; 0xd640 <__heap_start+0x56a8>
    481b: b8           	clv
    481c: 90 07        	bcc	$4825 <errhyp0att8>
    481e: a9 00        	lda	#$0
    4820: 85 04        	sta	$4                      ; 0x4 <__rc2>
    4822: 4c 29 48     	jmp	$4829 <donehyp0att8>

00004825 <errhyp0att8>:
    4825: a9 ff        	lda	#$ff
    4827: 85 04        	sta	$4                      ; 0x4 <__rc2>

00004829 <donehyp0att8>:
    4829: ea           	nop
    482a: 4c 13 46     	jmp	$4613 <donehypchdir5+0x60>
    482d: a9 01        	lda	#$1
    482f: a0 46        	ldy	#$46
    4831: 11 16        	ora	($16),y                 ; 0x16 <__rc20>
    4833: 4c 1d 46     	jmp	$461d <donehypchdir5+0x6a>
    4836: a0 0e        	ldy	#$e
    4838: a9 00        	lda	#$0
    483a: 5a           	phy
    483b: a0 14        	ldy	#$14
    483d: 91 02        	sta	($2),y                  ; 0x2 <__rc0>
    483f: 7a           	ply
    4840: 98           	tya
    4841: a0 1b        	ldy	#$1b
    4843: 91 02        	sta	($2),y                  ; 0x2 <__rc0>
    4845: 8a           	txa
    4846: a0 19        	ldy	#$19
    4848: 91 02        	sta	($2),y                  ; 0x2 <__rc0>
    484a: 38           	sec
    484b: a0 21        	ldy	#$21
    484d: b1 02        	lda	($2),y                  ; 0x2 <__rc0>
    484f: e5 1a        	sbc	$1a                     ; 0x1a <__rc24>
    4851: 85 04        	sta	$4                      ; 0x4 <__rc2>
    4853: a0 23        	ldy	#$23
    4855: b1 02        	lda	($2),y                  ; 0x2 <__rc0>
    4857: e5 17        	sbc	$17                     ; 0x17 <__rc21>
    4859: 85 05        	sta	$5                      ; 0x5 <__rc3>
    485b: a9 58        	lda	#$58
    485d: 18           	clc
    485e: 65 04        	adc	$4                      ; 0x4 <__rc2>
    4860: 85 04        	sta	$4                      ; 0x4 <__rc2>
    4862: a9 7b        	lda	#$7b
    4864: 65 05        	adc	$5                      ; 0x5 <__rc3>
    4866: 85 05        	sta	$5                      ; 0x5 <__rc3>
    4868: a0 00        	ldy	#$0
    486a: 4c 10 37     	jmp	$3710 <donehypclosefile3+0x737>
    486d: a0 01        	ldy	#$1
    486f: 64 19        	stz	$19                     ; 0x19 <__rc23>
    4871: 64 1c        	stz	$1c                     ; 0x1c <__rc26>
    4873: 4c 19 32     	jmp	$3219 <donehypclosefile3+0x240>

00004876 <hyppo_setname>:
    4876: a6 04        	ldx	$4                      ; 0x4 <__rc2>
    4878: 86 06        	stx	$6                      ; 0x6 <__rc4>
    487a: a6 05        	ldx	$5                      ; 0x5 <__rc3>
    487c: 86 07        	stx	$7                      ; 0x7 <__rc5>
    487e: a2 1c        	ldx	#$1c
    4880: a0 00        	ldy	#$0
    4882: 84 04        	sty	$4                      ; 0x4 <__rc2>
    4884: a0 1c        	ldy	#$1c
    4886: 84 05        	sty	$5                      ; 0x5 <__rc3>
    4888: 86 2c        	stx	$2c                     ; 0x2c <fnamehi.2>
    488a: 20 b9 6a     	jsr	$6ab9 <strcpy>
    488d: a4 2c        	ldy	$2c                     ; 0x2c <fnamehi.2>
    488f: a2 00        	ldx	#$0
    4891: a9 2e        	lda	#$2e
    4893: 8d 40 d6     	sta	$d640                   ; 0xd640 <__heap_start+0x56a8>
    4896: b8           	clv
    4897: 90 07        	bcc	$48a0 <errhypsetnam9>
    4899: a9 00        	lda	#$0
    489b: 85 04        	sta	$4                      ; 0x4 <__rc2>
    489d: 4c a4 48     	jmp	$48a4 <donehypsetnam9>

000048a0 <errhypsetnam9>:
    48a0: a9 ff        	lda	#$ff
    48a2: 85 04        	sta	$4                      ; 0x4 <__rc2>

000048a4 <donehypsetnam9>:
    48a4: ea           	nop
    48a5: 60           	rts

000048a6 <getsfn>:
    48a6: a2 00        	ldx	#$0
    48a8: a0 00        	ldy	#$0
    48aa: 80 0e        	bra	$48ba <getsfn+0x14>
    48ac: c9 21        	cmp	#$21
    48ae: 90 09        	bcc	$48b9 <getsfn+0x13>
    48b0: 84 04        	sty	$4                      ; 0x4 <__rc2>
    48b2: e6 04        	inc	$4                      ; 0x4 <__rc2>
    48b4: 99 41 1c     	sta	$1c41,y                 ; 0x1c41 <__heap_default_limit+0xc41>
    48b7: a4 04        	ldy	$4                      ; 0x4 <__rc2>
    48b9: e8           	inx
    48ba: e0 08        	cpx	#$8
    48bc: f0 07        	beq	$48c5 <getsfn+0x1f>
    48be: bd 41 1a     	lda	$1a41,x                 ; 0x1a41 <__heap_default_limit+0xa41>
    48c1: c9 20        	cmp	#$20
    48c3: d0 e7        	bne	$48ac <getsfn+0x6>
    48c5: 64 05        	stz	$5                      ; 0x5 <__rc3>
    48c7: a9 2e        	lda	#$2e
    48c9: 99 41 1c     	sta	$1c41,y                 ; 0x1c41 <__heap_default_limit+0xc41>
    48cc: 98           	tya
    48cd: 1a           	inc
    48ce: a2 00        	ldx	#$0
    48d0: 85 04        	sta	$4                      ; 0x4 <__rc2>
    48d2: 80 10        	bra	$48e4 <getsfn+0x3e>
    48d4: c9 21        	cmp	#$21
    48d6: 90 0b        	bcc	$48e3 <getsfn+0x3d>
    48d8: 84 06        	sty	$6                      ; 0x6 <__rc4>
    48da: a4 04        	ldy	$4                      ; 0x4 <__rc2>
    48dc: 99 41 1c     	sta	$1c41,y                 ; 0x1c41 <__heap_default_limit+0xc41>
    48df: a4 06        	ldy	$6                      ; 0x6 <__rc4>
    48e1: e6 04        	inc	$4                      ; 0x4 <__rc2>
    48e3: e8           	inx
    48e4: e0 03        	cpx	#$3
    48e6: f0 07        	beq	$48ef <getsfn+0x49>
    48e8: bd 49 1a     	lda	$1a49,x                 ; 0x1a49 <__heap_default_limit+0xa49>
    48eb: c9 20        	cmp	#$20
    48ed: d0 e5        	bne	$48d4 <getsfn+0x2e>
    48ef: 98           	tya
    48f0: 1a           	inc
    48f1: d0 02        	bne	$48f5 <getsfn+0x4f>
    48f3: e6 05        	inc	$5                      ; 0x5 <__rc3>
    48f5: a6 05        	ldx	$5                      ; 0x5 <__rc3>
    48f7: d0 0a        	bne	$4903 <getsfn+0x5d>
    48f9: a6 04        	ldx	$4                      ; 0x4 <__rc2>
    48fb: c5 04        	cmp	$4                      ; 0x4 <__rc2>
    48fd: d0 06        	bne	$4905 <getsfn+0x5f>
    48ff: 5a           	phy
    4900: fa           	plx
    4901: 80 02        	bra	$4905 <getsfn+0x5f>
    4903: a6 04        	ldx	$4                      ; 0x4 <__rc2>
    4905: 9e 41 1c     	stz	$1c41,x                 ; 0x1c41 <__heap_default_limit+0xc41>
    4908: 60           	rts

00004909 <ShowAccess>:
    4909: a8           	tay
    490a: a5 05        	lda	$5                      ; 0x5 <__rc3>
    490c: c9 02        	cmp	#$2
    490e: f0 03        	beq	$4913 <ShowAccess+0xa>
    4910: 4c ba 49     	jmp	$49ba <ShowAccess+0xb1>
    4913: a9 f0        	lda	#$f0
    4915: 25 2b        	and	$2b                     ; 0x2b <g_curTextColor>
    4917: 09 03        	ora	#$3
    4919: 85 2b        	sta	$2b                     ; 0x2b <g_curTextColor>
    491b: a5 31        	lda	$31                     ; 0x31 <g_curScreenW>
    491d: a2 16        	ldx	#$16
    491f: 64 05        	stz	$5                      ; 0x5 <__rc3>
    4921: 86 04        	stx	$4                      ; 0x4 <__rc2>
    4923: a2 00        	ldx	#$0
    4925: 20 51 6b     	jsr	$6b51 <__mulhi3>
    4928: 18           	clc
    4929: 69 1a        	adc	#$1a
    492b: a8           	tay
    492c: 85 5e        	sta	$5e                     ; 0x5e <__rc31+0x3d>
    492e: 8a           	txa
    492f: 69 00        	adc	#$0
    4931: 85 5d        	sta	$5d                     ; 0x5d <__rc31+0x3c>
    4933: ad 63 d0     	lda	$d063                   ; 0xd063 <__heap_start+0x50cb>
    4936: 29 07        	and	#$7
    4938: 85 09        	sta	$9                      ; 0x9 <__rc7>
    493a: ae 62 d0     	ldx	$d062                   ; 0xd062 <__heap_start+0x50ca>
    493d: 86 08        	stx	$8                      ; 0x8 <__rc6>
    493f: ae 61 d0     	ldx	$d061                   ; 0xd061 <__heap_start+0x50c9>
    4942: 86 04        	stx	$4                      ; 0x4 <__rc2>
    4944: ae 60 d0     	ldx	$d060                   ; 0xd060 <__heap_start+0x50c8>
    4947: 86 05        	stx	$5                      ; 0x5 <__rc3>
    4949: 18           	clc
    494a: 98           	tya
    494b: 69 00        	adc	#$0
    494d: 85 07        	sta	$7                      ; 0x7 <__rc5>
    494f: a6 5d        	ldx	$5d                     ; 0x5d <__rc31+0x3c>
    4951: 8a           	txa
    4952: 65 04        	adc	$4                      ; 0x4 <__rc2>
    4954: aa           	tax
    4955: a5 08        	lda	$8                      ; 0x8 <__rc6>
    4957: 69 00        	adc	#$0
    4959: 85 04        	sta	$4                      ; 0x4 <__rc2>
    495b: a5 09        	lda	$9                      ; 0x9 <__rc7>
    495d: 69 00        	adc	#$0
    495f: 85 06        	sta	$6                      ; 0x6 <__rc4>
    4961: a5 07        	lda	$7                      ; 0x7 <__rc5>
    4963: 18           	clc
    4964: 65 05        	adc	$5                      ; 0x5 <__rc3>
    4966: a8           	tay
    4967: 8a           	txa
    4968: 69 00        	adc	#$0
    496a: 85 09        	sta	$9                      ; 0x9 <__rc7>
    496c: a5 04        	lda	$4                      ; 0x4 <__rc2>
    496e: 69 00        	adc	#$0
    4970: 85 04        	sta	$4                      ; 0x4 <__rc2>
    4972: a5 06        	lda	$6                      ; 0x6 <__rc4>
    4974: 69 00        	adc	#$0
    4976: a2 20        	ldx	#$20
    4978: 85 05        	sta	$5                      ; 0x5 <__rc3>
    497a: 86 06        	stx	$6                      ; 0x6 <__rc4>
    497c: a2 0c        	ldx	#$c
    497e: 86 07        	stx	$7                      ; 0x7 <__rc5>
    4980: 64 08        	stz	$8                      ; 0x8 <__rc6>
    4982: a6 09        	ldx	$9                      ; 0x9 <__rc7>
    4984: 98           	tya
    4985: 20 0d 6a     	jsr	$6a0d <lfill>
    4988: a6 2b        	ldx	$2b                     ; 0x2b <g_curTextColor>
    498a: a0 f8        	ldy	#$f8
    498c: a9 0f        	lda	#$f
    498e: 84 04        	sty	$4                      ; 0x4 <__rc2>
    4990: 85 05        	sta	$5                      ; 0x5 <__rc3>
    4992: 86 06        	stx	$6                      ; 0x6 <__rc4>
    4994: a2 0c        	ldx	#$c
    4996: 86 07        	stx	$7                      ; 0x7 <__rc5>
    4998: 64 08        	stz	$8                      ; 0x8 <__rc6>
    499a: a6 5d        	ldx	$5d                     ; 0x5d <__rc31+0x3c>
    499c: a5 5e        	lda	$5e                     ; 0x5e <__rc31+0x3d>
    499e: 20 0d 6a     	jsr	$6a0d <lfill>
    49a1: a6 31        	ldx	$31                     ; 0x31 <g_curScreenW>
    49a3: a0 5c        	ldy	#$5c
    49a5: a9 00        	lda	#$0
    49a7: 84 04        	sty	$4                      ; 0x4 <__rc2>
    49a9: 85 05        	sta	$5                      ; 0x5 <__rc3>
    49ab: a9 26        	lda	#$26
    49ad: 20 89 6c     	jsr	$6c89 <__udivmodqi4>
    49b0: a6 5c        	ldx	$5c                     ; 0x5c <__rc31+0x3b>
    49b2: 18           	clc
    49b3: 69 16        	adc	#$16
    49b5: 85 34        	sta	$34                     ; 0x34 <g_curY>
    49b7: 86 33        	stx	$33                     ; 0x33 <g_curX>
    49b9: 60           	rts
    49ba: 85 5d        	sta	$5d                     ; 0x5d <__rc31+0x3c>
    49bc: a9 04        	lda	#$4
    49be: 25 30        	and	$30                     ; 0x30 <option.0>
    49c0: d0 03        	bne	$49c5 <ShowAccess+0xbc>
    49c2: 4c 6e 4a     	jmp	$4a6e <ShowAccess+0x165>
    49c5: a5 2b        	lda	$2b                     ; 0x2b <g_curTextColor>
    49c7: c0 00        	cpy	#$0
    49c9: f0 0c        	beq	$49d7 <ShowAccess+0xce>
    49cb: 84 60        	sty	$60                     ; 0x60 <__rc31+0x3f>
    49cd: 86 5f        	stx	$5f                     ; 0x5f <__rc31+0x3e>
    49cf: a6 04        	ldx	$4                      ; 0x4 <__rc2>
    49d1: 86 5e        	stx	$5e                     ; 0x5e <__rc31+0x3d>
    49d3: a2 0d        	ldx	#$d
    49d5: 80 0a        	bra	$49e1 <ShowAccess+0xd8>
    49d7: 84 60        	sty	$60                     ; 0x60 <__rc31+0x3f>
    49d9: 86 5f        	stx	$5f                     ; 0x5f <__rc31+0x3e>
    49db: a6 04        	ldx	$4                      ; 0x4 <__rc2>
    49dd: 86 5e        	stx	$5e                     ; 0x5e <__rc31+0x3d>
    49df: a2 0f        	ldx	#$f
    49e1: 86 04        	stx	$4                      ; 0x4 <__rc2>
    49e3: 29 d0        	and	#$d0
    49e5: 05 04        	ora	$4                      ; 0x4 <__rc2>
    49e7: 09 20        	ora	#$20
    49e9: 85 2b        	sta	$2b                     ; 0x2b <g_curTextColor>
    49eb: a9 1a        	lda	#$1a
    49ed: a2 16        	ldx	#$16
    49ef: a0 62        	ldy	#$62
    49f1: 84 04        	sty	$4                      ; 0x4 <__rc2>
    49f3: a0 72        	ldy	#$72
    49f5: 84 05        	sty	$5                      ; 0x5 <__rc3>
    49f7: 20 e7 56     	jsr	$56e7 <mcputsxy>
    49fa: a2 01        	ldx	#$1
    49fc: 64 04        	stz	$4                      ; 0x4 <__rc2>
    49fe: 64 05        	stz	$5                      ; 0x5 <__rc3>
    4a00: 86 06        	stx	$6                      ; 0x6 <__rc4>
    4a02: ca           	dex
    4a03: a5 60        	lda	$60                     ; 0x60 <__rc31+0x3f>
    4a05: 20 64 55     	jsr	$5564 <csputdec>
    4a08: a9 f0        	lda	#$f0
    4a0a: 25 2b        	and	$2b                     ; 0x2b <g_curTextColor>
    4a0c: 09 08        	ora	#$8
    4a0e: 85 2b        	sta	$2b                     ; 0x2b <g_curTextColor>
    4a10: a9 54        	lda	#$54
    4a12: 20 40 67     	jsr	$6740 <cputc>
    4a15: a2 02        	ldx	#$2
    4a17: 64 04        	stz	$4                      ; 0x4 <__rc2>
    4a19: 64 05        	stz	$5                      ; 0x5 <__rc3>
    4a1b: 86 06        	stx	$6                      ; 0x6 <__rc4>
    4a1d: a2 00        	ldx	#$0
    4a1f: a5 5f        	lda	$5f                     ; 0x5f <__rc31+0x3e>
    4a21: 20 64 55     	jsr	$5564 <csputdec>
    4a24: a9 f0        	lda	#$f0
    4a26: 25 2b        	and	$2b                     ; 0x2b <g_curTextColor>
    4a28: 09 0e        	ora	#$e
    4a2a: 85 2b        	sta	$2b                     ; 0x2b <g_curTextColor>
    4a2c: a9 53        	lda	#$53
    4a2e: 20 40 67     	jsr	$6740 <cputc>
    4a31: 64 04        	stz	$4                      ; 0x4 <__rc2>
    4a33: 64 05        	stz	$5                      ; 0x5 <__rc3>
    4a35: a2 02        	ldx	#$2
    4a37: 86 06        	stx	$6                      ; 0x6 <__rc4>
    4a39: a2 00        	ldx	#$0
    4a3b: a5 5e        	lda	$5e                     ; 0x5e <__rc31+0x3d>
    4a3d: 20 64 55     	jsr	$5564 <csputdec>
    4a40: a9 20        	lda	#$20
    4a42: 20 40 67     	jsr	$6740 <cputc>
    4a45: a9 f0        	lda	#$f0
    4a47: 25 2b        	and	$2b                     ; 0x2b <g_curTextColor>
    4a49: a0 57        	ldy	#$57
    4a4b: a2 02        	ldx	#$2
    4a4d: 86 04        	stx	$4                      ; 0x4 <__rc2>
    4a4f: a6 5d        	ldx	$5d                     ; 0x5d <__rc31+0x3c>
    4a51: e0 01        	cpx	#$1
    4a53: f0 06        	beq	$4a5b <ShowAccess+0x152>
    4a55: a0 52        	ldy	#$52
    4a57: a2 08        	ldx	#$8
    4a59: 86 04        	stx	$4                      ; 0x4 <__rc2>
    4a5b: 05 04        	ora	$4                      ; 0x4 <__rc2>
    4a5d: 85 2b        	sta	$2b                     ; 0x2b <g_curTextColor>
    4a5f: 98           	tya
    4a60: 20 40 67     	jsr	$6740 <cputc>
    4a63: a9 20        	lda	#$20
    4a65: 20 40 67     	jsr	$6740 <cputc>
    4a68: a9 df        	lda	#$df
    4a6a: 25 2b        	and	$2b                     ; 0x2b <g_curTextColor>
    4a6c: 85 2b        	sta	$2b                     ; 0x2b <g_curTextColor>
    4a6e: 60           	rts

00004a6f <ReadSector>:
    4a6f: 86 57        	stx	$57                     ; 0x57 <__rc31+0x36>
    4a71: 64 05        	stz	$5                      ; 0x5 <__rc3>
    4a73: a4 04        	ldy	$4                      ; 0x4 <__rc2>
    4a75: 84 59        	sty	$59                     ; 0x59 <__rc31+0x38>
    4a77: 85 58        	sta	$58                     ; 0x58 <__rc31+0x37>
    4a79: 20 09 49     	jsr	$4909 <ShowAccess>
    4a7c: a5 57        	lda	$57                     ; 0x57 <__rc31+0x36>
    4a7e: f0 17        	beq	$4a97 <ReadSector+0x28>
    4a80: a4 57        	ldy	$57                     ; 0x57 <__rc31+0x36>
    4a82: a6 59        	ldx	$59                     ; 0x59 <__rc31+0x38>
    4a84: e0 14        	cpx	#$14
    4a86: a2 01        	ldx	#$1
    4a88: b0 02        	bcs	$4a8c <ReadSector+0x1d>
    4a8a: a2 00        	ldx	#$0
    4a8c: 86 5a        	stx	$5a                     ; 0x5a <__rc31+0x39>
    4a8e: a5 58        	lda	$58                     ; 0x58 <__rc31+0x37>
    4a90: b0 08        	bcs	$4a9a <ReadSector+0x2b>
    4a92: 18           	clc
    4a93: 69 28        	adc	#$28
    4a95: 80 06        	bra	$4a9d <ReadSector+0x2e>
    4a97: a9 fc        	lda	#$fc
    4a99: 60           	rts
    4a9a: 18           	clc
    4a9b: 69 20        	adc	#$20
    4a9d: a6 2d        	ldx	$2d                     ; 0x2d <lastdrive>
    4a9f: 5a           	phy
    4aa0: a4 59        	ldy	$59                     ; 0x59 <__rc31+0x38>
    4aa2: 84 04        	sty	$4                      ; 0x4 <__rc2>
    4aa4: 46 04        	lsr	$4                      ; 0x4 <__rc2>
    4aa6: a4 04        	ldy	$4                      ; 0x4 <__rc2>
    4aa8: 84 58        	sty	$58                     ; 0x58 <__rc31+0x37>
    4aaa: 7a           	ply
    4aab: 85 04        	sta	$4                      ; 0x4 <__rc2>
    4aad: e4 04        	cpx	$4                      ; 0x4 <__rc2>
    4aaf: d0 11        	bne	$4ac2 <ReadSector+0x53>
    4ab1: a6 2e        	ldx	$2e                     ; 0x2e <lasttrack>
    4ab3: 84 04        	sty	$4                      ; 0x4 <__rc2>
    4ab5: e4 04        	cpx	$4                      ; 0x4 <__rc2>
    4ab7: d0 09        	bne	$4ac2 <ReadSector+0x53>
    4ab9: a6 58        	ldx	$58                     ; 0x58 <__rc31+0x37>
    4abb: e4 2f        	cpx	$2f                     ; 0x2f <lastdoublesector>
    4abd: d0 03        	bne	$4ac2 <ReadSector+0x53>
    4abf: 4c 27 4b     	jmp	$4b27 <ReadSector+0xb8>
    4ac2: 85 5b        	sta	$5b                     ; 0x5b <__rc31+0x3a>
    4ac4: 8d 80 d0     	sta	$d080                   ; 0xd080 <__heap_start+0x50e8>
    4ac7: a2 20        	ldx	#$20
    4ac9: 8e 81 d0     	stx	$d081                   ; 0xd081 <__heap_start+0x50e9>
    4acc: ae 82 d0     	ldx	$d082                   ; 0xd082 <__heap_start+0x50ea>
    4acf: 30 fb        	bmi	$4acc <ReadSector+0x5d>
    4ad1: a6 57        	ldx	$57                     ; 0x57 <__rc31+0x36>
    4ad3: ca           	dex
    4ad4: 8e 84 d0     	stx	$d084                   ; 0xd084 <__heap_start+0x50ec>
    4ad7: a2 14        	ldx	#$14
    4ad9: a5 59        	lda	$59                     ; 0x59 <__rc31+0x38>
    4adb: 20 44 6c     	jsr	$6c44 <__umodqi3>
    4ade: 4a           	lsr
    4adf: 1a           	inc
    4ae0: 8d 85 d0     	sta	$d085                   ; 0xd085 <__heap_start+0x50ed>
    4ae3: a6 5a        	ldx	$5a                     ; 0x5a <__rc31+0x39>
    4ae5: f0 04        	beq	$4aeb <ReadSector+0x7c>
    4ae7: a2 01        	ldx	#$1
    4ae9: 80 02        	bra	$4aed <ReadSector+0x7e>
    4aeb: a2 00        	ldx	#$0
    4aed: 8e 86 d0     	stx	$d086                   ; 0xd086 <__heap_start+0x50ee>
    4af0: a2 41        	ldx	#$41
    4af2: 8e 81 d0     	stx	$d081                   ; 0xd081 <__heap_start+0x50e9>
    4af5: a4 57        	ldy	$57                     ; 0x57 <__rc31+0x36>
    4af7: ae 82 d0     	ldx	$d082                   ; 0xd082 <__heap_start+0x50ea>
    4afa: 30 fb        	bmi	$4af7 <ReadSector+0x88>
    4afc: ad 82 d0     	lda	$d082                   ; 0xd082 <__heap_start+0x50ea>
    4aff: 29 18        	and	#$18
    4b01: f0 12        	beq	$4b15 <ReadSector+0xa6>
    4b03: a2 40        	ldx	#$40
    4b05: 8e 80 d0     	stx	$d080                   ; 0xd080 <__heap_start+0x50e8>
    4b08: a2 02        	ldx	#$2
    4b0a: 8e 20 d0     	stx	$d020                   ; 0xd020 <__heap_start+0x5088>
    4b0d: 64 2e        	stz	$2e                     ; 0x2e <lasttrack>
    4b0f: ae 82 d0     	ldx	$d082                   ; 0xd082 <__heap_start+0x50ea>
    4b12: a9 ff        	lda	#$ff
    4b14: 60           	rts
    4b15: ad 89 d6     	lda	$d689                   ; 0xd689 <__heap_start+0x56f1>
    4b18: 29 7f        	and	#$7f
    4b1a: 8d 89 d6     	sta	$d689                   ; 0xd689 <__heap_start+0x56f1>
    4b1d: a5 5b        	lda	$5b                     ; 0x5b <__rc31+0x3a>
    4b1f: 85 2d        	sta	$2d                     ; 0x2d <lastdrive>
    4b21: 84 2e        	sty	$2e                     ; 0x2e <lasttrack>
    4b23: a6 58        	ldx	$58                     ; 0x58 <__rc31+0x37>
    4b25: 86 2f        	stx	$2f                     ; 0x2f <lastdoublesector>
    4b27: a6 59        	ldx	$59                     ; 0x59 <__rc31+0x38>
    4b29: 86 04        	stx	$4                      ; 0x4 <__rc2>
    4b2b: 85 06        	sta	$6                      ; 0x6 <__rc4>
    4b2d: a5 59        	lda	$59                     ; 0x59 <__rc31+0x38>
    4b2f: 29 01        	and	#$1
    4b31: 85 57        	sta	$57                     ; 0x57 <__rc31+0x36>
    4b33: a2 02        	ldx	#$2
    4b35: 86 05        	stx	$5                      ; 0x5 <__rc3>
    4b37: 5a           	phy
    4b38: fa           	plx
    4b39: a5 06        	lda	$6                      ; 0x6 <__rc4>
    4b3b: 20 09 49     	jsr	$4909 <ShowAccess>
    4b3e: a5 57        	lda	$57                     ; 0x57 <__rc31+0x36>
    4b40: 60           	rts

00004b41 <WriteSector>:
    4b41: 86 51        	stx	$51                     ; 0x51 <__rc31+0x30>
    4b43: a2 01        	ldx	#$1
    4b45: a4 04        	ldy	$4                      ; 0x4 <__rc2>
    4b47: 84 53        	sty	$53                     ; 0x53 <__rc31+0x32>
    4b49: 86 05        	stx	$5                      ; 0x5 <__rc3>
    4b4b: a6 51        	ldx	$51                     ; 0x51 <__rc31+0x30>
    4b4d: 85 52        	sta	$52                     ; 0x52 <__rc31+0x31>
    4b4f: 20 09 49     	jsr	$4909 <ShowAccess>
    4b52: 64 2e        	stz	$2e                     ; 0x2e <lasttrack>
    4b54: a5 51        	lda	$51                     ; 0x51 <__rc31+0x30>
    4b56: d0 03        	bne	$4b5b <WriteSector+0x1a>
    4b58: 4c df 4b     	jmp	$4bdf <WriteSector+0x9e>
    4b5b: a4 53        	ldy	$53                     ; 0x53 <__rc31+0x32>
    4b5d: c0 14        	cpy	#$14
    4b5f: a2 01        	ldx	#$1
    4b61: b0 02        	bcs	$4b65 <WriteSector+0x24>
    4b63: a2 00        	ldx	#$0
    4b65: 86 54        	stx	$54                     ; 0x54 <__rc31+0x33>
    4b67: a5 52        	lda	$52                     ; 0x52 <__rc31+0x31>
    4b69: b0 05        	bcs	$4b70 <WriteSector+0x2f>
    4b6b: 18           	clc
    4b6c: 69 28        	adc	#$28
    4b6e: 80 03        	bra	$4b73 <WriteSector+0x32>
    4b70: 18           	clc
    4b71: 69 20        	adc	#$20
    4b73: 85 55        	sta	$55                     ; 0x55 <__rc31+0x34>
    4b75: 8d 80 d0     	sta	$d080                   ; 0xd080 <__heap_start+0x50e8>
    4b78: a2 20        	ldx	#$20
    4b7a: 8e 81 d0     	stx	$d081                   ; 0xd081 <__heap_start+0x50e9>
    4b7d: ae 82 d0     	ldx	$d082                   ; 0xd082 <__heap_start+0x50ea>
    4b80: 30 fb        	bmi	$4b7d <WriteSector+0x3c>
    4b82: a6 51        	ldx	$51                     ; 0x51 <__rc31+0x30>
    4b84: ca           	dex
    4b85: 8e 84 d0     	stx	$d084                   ; 0xd084 <__heap_start+0x50ec>
    4b88: a2 14        	ldx	#$14
    4b8a: 84 52        	sty	$52                     ; 0x52 <__rc31+0x31>
    4b8c: 98           	tya
    4b8d: 20 44 6c     	jsr	$6c44 <__umodqi3>
    4b90: 4a           	lsr
    4b91: 1a           	inc
    4b92: 8d 85 d0     	sta	$d085                   ; 0xd085 <__heap_start+0x50ed>
    4b95: a6 54        	ldx	$54                     ; 0x54 <__rc31+0x33>
    4b97: f0 04        	beq	$4b9d <WriteSector+0x5c>
    4b99: a2 01        	ldx	#$1
    4b9b: 80 02        	bra	$4b9f <WriteSector+0x5e>
    4b9d: a2 00        	ldx	#$0
    4b9f: 8e 86 d0     	stx	$d086                   ; 0xd086 <__heap_start+0x50ee>
    4ba2: a2 84        	ldx	#$84
    4ba4: 8e 81 d0     	stx	$d081                   ; 0xd081 <__heap_start+0x50e9>
    4ba7: a6 52        	ldx	$52                     ; 0x52 <__rc31+0x31>
    4ba9: 86 04        	stx	$4                      ; 0x4 <__rc2>
    4bab: ae 82 d0     	ldx	$d082                   ; 0xd082 <__heap_start+0x50ea>
    4bae: 30 fb        	bmi	$4bab <WriteSector+0x6a>
    4bb0: ad 83 d0     	lda	$d083                   ; 0xd083 <__heap_start+0x50eb>
    4bb3: 29 10        	and	#$10
    4bb5: d0 f4        	bne	$4bab <WriteSector+0x6a>
    4bb7: ad 82 d0     	lda	$d082                   ; 0xd082 <__heap_start+0x50ea>
    4bba: 29 18        	and	#$18
    4bbc: f0 0e        	beq	$4bcc <WriteSector+0x8b>
    4bbe: a2 40        	ldx	#$40
    4bc0: 8e 80 d0     	stx	$d080                   ; 0xd080 <__heap_start+0x50e8>
    4bc3: a2 02        	ldx	#$2
    4bc5: 8e 20 d0     	stx	$d020                   ; 0xd020 <__heap_start+0x5088>
    4bc8: ae 82 d0     	ldx	$d082                   ; 0xd082 <__heap_start+0x50ea>
    4bcb: 60           	rts
    4bcc: ad 89 d6     	lda	$d689                   ; 0xd689 <__heap_start+0x56f1>
    4bcf: 29 7f        	and	#$7f
    4bd1: 8d 89 d6     	sta	$d689                   ; 0xd689 <__heap_start+0x56f1>
    4bd4: a2 02        	ldx	#$2
    4bd6: 86 05        	stx	$5                      ; 0x5 <__rc3>
    4bd8: a6 51        	ldx	$51                     ; 0x51 <__rc31+0x30>
    4bda: a5 55        	lda	$55                     ; 0x55 <__rc31+0x34>
    4bdc: 20 09 49     	jsr	$4909 <ShowAccess>
    4bdf: 60           	rts

00004be0 <GetOneSector>:
    4be0: a4 06        	ldy	$6                      ; 0x6 <__rc4>
    4be2: 48           	pha
    4be3: a5 04        	lda	$4                      ; 0x4 <__rc2>
    4be5: 85 54        	sta	$54                     ; 0x54 <__rc31+0x33>
    4be7: a5 05        	lda	$5                      ; 0x5 <__rc3>
    4be9: 85 55        	sta	$55                     ; 0x55 <__rc31+0x34>
    4beb: 68           	pla
    4bec: 84 04        	sty	$4                      ; 0x4 <__rc2>
    4bee: 20 6f 4a     	jsr	$4a6f <ReadSector>
    4bf1: c9 02        	cmp	#$2
    4bf3: b0 2d        	bcs	$4c22 <GetOneSector+0x42>
    4bf5: a0 fd        	ldy	#$fd
    4bf7: aa           	tax
    4bf8: f0 06        	beq	$4c00 <GetOneSector+0x20>
    4bfa: 85 56        	sta	$56                     ; 0x56 <__rc31+0x35>
    4bfc: a2 6d        	ldx	#$6d
    4bfe: 80 04        	bra	$4c04 <GetOneSector+0x24>
    4c00: 85 56        	sta	$56                     ; 0x56 <__rc31+0x35>
    4c02: a2 6c        	ldx	#$6c
    4c04: a9 01        	lda	#$1
    4c06: 84 04        	sty	$4                      ; 0x4 <__rc2>
    4c08: a0 0f        	ldy	#$f
    4c0a: 84 05        	sty	$5                      ; 0x5 <__rc3>
    4c0c: a4 54        	ldy	$54                     ; 0x54 <__rc31+0x33>
    4c0e: 84 06        	sty	$6                      ; 0x6 <__rc4>
    4c10: a4 55        	ldy	$55                     ; 0x55 <__rc31+0x34>
    4c12: 84 07        	sty	$7                      ; 0x7 <__rc5>
    4c14: 64 08        	stz	$8                      ; 0x8 <__rc6>
    4c16: 64 09        	stz	$9                      ; 0x9 <__rc7>
    4c18: 64 0a        	stz	$a                      ; 0xa <__zp_data_size>
    4c1a: 85 0b        	sta	$b                      ; 0xb <__rc9>
    4c1c: 3a           	dec
    4c1d: 20 a6 69     	jsr	$69a6 <lcopy>
    4c20: a5 56        	lda	$56                     ; 0x56 <__rc31+0x35>
    4c22: 60           	rts

00004c23 <PutWholeSector>:
    4c23: 85 49        	sta	$49                     ; 0x49 <__rc31+0x28>
    4c25: 86 4a        	stx	$4a                     ; 0x4a <__rc31+0x29>
    4c27: a4 04        	ldy	$4                      ; 0x4 <__rc2>
    4c29: 84 0c        	sty	$c                      ; 0xc <__rc10>
    4c2b: a4 05        	ldy	$5                      ; 0x5 <__rc3>
    4c2d: 84 0d        	sty	$d                      ; 0xd <__rc11>
    4c2f: a4 06        	ldy	$6                      ; 0x6 <__rc4>
    4c31: 84 4b        	sty	$4b                     ; 0x4b <__rc31+0x2a>
    4c33: a5 06        	lda	$6                      ; 0x6 <__rc4>
    4c35: 29 01        	and	#$1
    4c37: 29 01        	and	#$1
    4c39: d0 1f        	bne	$4c5a <PutWholeSector+0x37>
    4c3b: a0 6c        	ldy	#$6c
    4c3d: a9 fd        	lda	#$fd
    4c3f: a2 0f        	ldx	#$f
    4c41: 64 04        	stz	$4                      ; 0x4 <__rc2>
    4c43: 64 05        	stz	$5                      ; 0x5 <__rc3>
    4c45: 64 06        	stz	$6                      ; 0x6 <__rc4>
    4c47: 84 07        	sty	$7                      ; 0x7 <__rc5>
    4c49: 85 08        	sta	$8                      ; 0x8 <__rc6>
    4c4b: 86 09        	stx	$9                      ; 0x9 <__rc7>
    4c4d: 64 0a        	stz	$a                      ; 0xa <__zp_data_size>
    4c4f: a2 02        	ldx	#$2
    4c51: 86 0b        	stx	$b                      ; 0xb <__rc9>
    4c53: a6 0d        	ldx	$d                      ; 0xd <__rc11>
    4c55: a5 0c        	lda	$c                      ; 0xc <__rc10>
    4c57: 4c 97 4c     	jmp	$4c97 <PutWholeSector+0x74>
    4c5a: a4 06        	ldy	$6                      ; 0x6 <__rc4>
    4c5c: 84 04        	sty	$4                      ; 0x4 <__rc2>
    4c5e: a5 49        	lda	$49                     ; 0x49 <__rc31+0x28>
    4c60: a4 49        	ldy	$49                     ; 0x49 <__rc31+0x28>
    4c62: 84 4c        	sty	$4c                     ; 0x4c <__rc31+0x2b>
    4c64: a4 4a        	ldy	$4a                     ; 0x4a <__rc31+0x29>
    4c66: 84 4d        	sty	$4d                     ; 0x4d <__rc31+0x2c>
    4c68: a4 0c        	ldy	$c                      ; 0xc <__rc10>
    4c6a: 84 49        	sty	$49                     ; 0x49 <__rc31+0x28>
    4c6c: a4 0d        	ldy	$d                      ; 0xd <__rc11>
    4c6e: 84 4a        	sty	$4a                     ; 0x4a <__rc31+0x29>
    4c70: 20 6f 4a     	jsr	$4a6f <ReadSector>
    4c73: a0 6d        	ldy	#$6d
    4c75: a9 fd        	lda	#$fd
    4c77: a2 0f        	ldx	#$f
    4c79: 64 04        	stz	$4                      ; 0x4 <__rc2>
    4c7b: 64 05        	stz	$5                      ; 0x5 <__rc3>
    4c7d: 64 06        	stz	$6                      ; 0x6 <__rc4>
    4c7f: 84 07        	sty	$7                      ; 0x7 <__rc5>
    4c81: 85 08        	sta	$8                      ; 0x8 <__rc6>
    4c83: 86 09        	stx	$9                      ; 0x9 <__rc7>
    4c85: 64 0a        	stz	$a                      ; 0xa <__zp_data_size>
    4c87: a2 01        	ldx	#$1
    4c89: 86 0b        	stx	$b                      ; 0xb <__rc9>
    4c8b: a6 4a        	ldx	$4a                     ; 0x4a <__rc31+0x29>
    4c8d: a5 49        	lda	$49                     ; 0x49 <__rc31+0x28>
    4c8f: a4 4d        	ldy	$4d                     ; 0x4d <__rc31+0x2c>
    4c91: 84 4a        	sty	$4a                     ; 0x4a <__rc31+0x29>
    4c93: a4 4c        	ldy	$4c                     ; 0x4c <__rc31+0x2b>
    4c95: 84 49        	sty	$49                     ; 0x49 <__rc31+0x28>
    4c97: 20 a6 69     	jsr	$69a6 <lcopy>
    4c9a: a5 4b        	lda	$4b                     ; 0x4b <__rc31+0x2a>
    4c9c: 29 fe        	and	#$fe
    4c9e: 85 04        	sta	$4                      ; 0x4 <__rc2>
    4ca0: a6 4a        	ldx	$4a                     ; 0x4a <__rc31+0x29>
    4ca2: a5 49        	lda	$49                     ; 0x49 <__rc31+0x28>
    4ca4: 4c 41 4b     	jmp	$4b41 <WriteSector>

00004ca7 <PutOneSector>:
    4ca7: 85 4b        	sta	$4b                     ; 0x4b <__rc31+0x2a>
    4ca9: 86 4c        	stx	$4c                     ; 0x4c <__rc31+0x2b>
    4cab: a6 06        	ldx	$6                      ; 0x6 <__rc4>
    4cad: a4 04        	ldy	$4                      ; 0x4 <__rc2>
    4caf: 84 4d        	sty	$4d                     ; 0x4d <__rc31+0x2c>
    4cb1: a4 05        	ldy	$5                      ; 0x5 <__rc3>
    4cb3: 84 4e        	sty	$4e                     ; 0x4e <__rc31+0x2d>
    4cb5: a5 06        	lda	$6                      ; 0x6 <__rc4>
    4cb7: 29 01        	and	#$1
    4cb9: 85 4f        	sta	$4f                     ; 0x4f <__rc31+0x2e>
    4cbb: 86 50        	stx	$50                     ; 0x50 <__rc31+0x2f>
    4cbd: 86 04        	stx	$4                      ; 0x4 <__rc2>
    4cbf: a6 4c        	ldx	$4c                     ; 0x4c <__rc31+0x2b>
    4cc1: a5 4b        	lda	$4b                     ; 0x4b <__rc31+0x2a>
    4cc3: 20 6f 4a     	jsr	$4a6f <ReadSector>
    4cc6: 64 06        	stz	$6                      ; 0x6 <__rc4>
    4cc8: a9 6c        	lda	#$6c
    4cca: a0 fd        	ldy	#$fd
    4ccc: a6 4f        	ldx	$4f                     ; 0x4f <__rc31+0x2e>
    4cce: f0 02        	beq	$4cd2 <PutOneSector+0x2b>
    4cd0: a9 6d        	lda	#$6d
    4cd2: a2 01        	ldx	#$1
    4cd4: 64 04        	stz	$4                      ; 0x4 <__rc2>
    4cd6: 64 05        	stz	$5                      ; 0x5 <__rc3>
    4cd8: 85 07        	sta	$7                      ; 0x7 <__rc5>
    4cda: 84 08        	sty	$8                      ; 0x8 <__rc6>
    4cdc: a0 0f        	ldy	#$f
    4cde: 84 09        	sty	$9                      ; 0x9 <__rc7>
    4ce0: 64 0a        	stz	$a                      ; 0xa <__zp_data_size>
    4ce2: 86 0b        	stx	$b                      ; 0xb <__rc9>
    4ce4: a6 4e        	ldx	$4e                     ; 0x4e <__rc31+0x2d>
    4ce6: a5 4d        	lda	$4d                     ; 0x4d <__rc31+0x2c>
    4ce8: 20 a6 69     	jsr	$69a6 <lcopy>
    4ceb: a5 50        	lda	$50                     ; 0x50 <__rc31+0x2f>
    4ced: 29 fe        	and	#$fe
    4cef: 85 04        	sta	$4                      ; 0x4 <__rc2>
    4cf1: a6 4c        	ldx	$4c                     ; 0x4c <__rc31+0x2b>
    4cf3: a5 4b        	lda	$4b                     ; 0x4b <__rc31+0x2a>
    4cf5: 4c 41 4b     	jmp	$4b41 <WriteSector>

00004cf8 <GetBAM>:
    4cf8: 0a           	asl
    4cf9: aa           	tax
    4cfa: a9 00        	lda	#$0
    4cfc: 2a           	rol
    4cfd: a8           	tay
    4cfe: a9 00        	lda	#$0
    4d00: 2a           	rol
    4d01: 85 04        	sta	$4                      ; 0x4 <__rc2>
    4d03: 8a           	txa
    4d04: 18           	clc
    4d05: 69 38        	adc	#$38
    4d07: 85 0c        	sta	$c                      ; 0xc <__rc10>
    4d09: 98           	tya
    4d0a: 69 00        	adc	#$0
    4d0c: 85 06        	sta	$6                      ; 0x6 <__rc4>
    4d0e: a5 04        	lda	$4                      ; 0x4 <__rc2>
    4d10: 69 08        	adc	#$8
    4d12: a2 16        	ldx	#$16
    4d14: a0 02        	ldy	#$2
    4d16: 48           	pha
    4d17: a5 06        	lda	$6                      ; 0x6 <__rc4>
    4d19: 85 04        	sta	$4                      ; 0x4 <__rc2>
    4d1b: 68           	pla
    4d1c: 85 05        	sta	$5                      ; 0x5 <__rc3>
    4d1e: 64 06        	stz	$6                      ; 0x6 <__rc4>
    4d20: 86 07        	stx	$7                      ; 0x7 <__rc5>
    4d22: 64 08        	stz	$8                      ; 0x8 <__rc6>
    4d24: 64 09        	stz	$9                      ; 0x9 <__rc7>
    4d26: 64 0a        	stz	$a                      ; 0xa <__zp_data_size>
    4d28: 84 0b        	sty	$b                      ; 0xb <__rc9>
    4d2a: a6 0c        	ldx	$c                      ; 0xc <__rc10>
    4d2c: a9 00        	lda	#$0
    4d2e: 4c a6 69     	jmp	$69a6 <lcopy>

00004d31 <PutBAM>:
    4d31: 85 4a        	sta	$4a                     ; 0x4a <__rc31+0x29>
    4d33: 86 49        	stx	$49                     ; 0x49 <__rc31+0x28>
    4d35: a6 04        	ldx	$4                      ; 0x4 <__rc2>
    4d37: a0 00        	ldy	#$0
    4d39: 84 04        	sty	$4                      ; 0x4 <__rc2>
    4d3b: a0 16        	ldy	#$16
    4d3d: 84 05        	sty	$5                      ; 0x5 <__rc3>
    4d3f: a0 01        	ldy	#$1
    4d41: 84 06        	sty	$6                      ; 0x6 <__rc4>
    4d43: 20 a7 4c     	jsr	$4ca7 <PutOneSector>
    4d46: ae 00 16     	ldx	$1600                   ; 0x1600 <__heap_default_limit+0x600>
    4d49: ac 01 16     	ldy	$1601                   ; 0x1601 <__heap_default_limit+0x601>
    4d4c: a9 00        	lda	#$0
    4d4e: 85 04        	sta	$4                      ; 0x4 <__rc2>
    4d50: a9 17        	lda	#$17
    4d52: 85 05        	sta	$5                      ; 0x5 <__rc3>
    4d54: 84 06        	sty	$6                      ; 0x6 <__rc4>
    4d56: a5 4a        	lda	$4a                     ; 0x4a <__rc31+0x29>
    4d58: 20 a7 4c     	jsr	$4ca7 <PutOneSector>
    4d5b: a6 49        	ldx	$49                     ; 0x49 <__rc31+0x28>
    4d5d: 86 04        	stx	$4                      ; 0x4 <__rc2>
    4d5f: 06 04        	asl	$4                      ; 0x4 <__rc2>
    4d61: a9 00        	lda	#$0
    4d63: 2a           	rol
    4d64: aa           	tax
    4d65: a9 00        	lda	#$0
    4d67: 2a           	rol
    4d68: a8           	tay
    4d69: a5 04        	lda	$4                      ; 0x4 <__rc2>
    4d6b: 18           	clc
    4d6c: 69 38        	adc	#$38
    4d6e: 85 07        	sta	$7                      ; 0x7 <__rc5>
    4d70: 8a           	txa
    4d71: 69 00        	adc	#$0
    4d73: 85 08        	sta	$8                      ; 0x8 <__rc6>
    4d75: 98           	tya
    4d76: 69 08        	adc	#$8
    4d78: a2 02        	ldx	#$2
    4d7a: 64 04        	stz	$4                      ; 0x4 <__rc2>
    4d7c: 64 05        	stz	$5                      ; 0x5 <__rc3>
    4d7e: 64 06        	stz	$6                      ; 0x6 <__rc4>
    4d80: 85 09        	sta	$9                      ; 0x9 <__rc7>
    4d82: 64 0a        	stz	$a                      ; 0xa <__zp_data_size>
    4d84: 86 0b        	stx	$b                      ; 0xb <__rc9>
    4d86: a2 16        	ldx	#$16
    4d88: a9 00        	lda	#$0
    4d8a: 4c a6 69     	jmp	$69a6 <lcopy>

00004d8d <readblockchain>:
    4d8d: 85 4e        	sta	$4e                     ; 0x4e <__rc31+0x2d>
    4d8f: 86 4f        	stx	$4f                     ; 0x4f <__rc31+0x2e>
    4d91: a6 04        	ldx	$4                      ; 0x4 <__rc2>
    4d93: 86 49        	stx	$49                     ; 0x49 <__rc31+0x28>
    4d95: a6 05        	ldx	$5                      ; 0x5 <__rc3>
    4d97: 86 4a        	stx	$4a                     ; 0x4a <__rc31+0x29>
    4d99: a6 06        	ldx	$6                      ; 0x6 <__rc4>
    4d9b: 86 4b        	stx	$4b                     ; 0x4b <__rc31+0x2a>
    4d9d: a6 07        	ldx	$7                      ; 0x7 <__rc5>
    4d9f: 86 4c        	stx	$4c                     ; 0x4c <__rc31+0x2b>
    4da1: a6 08        	ldx	$8                      ; 0x8 <__rc6>
    4da3: 86 4d        	stx	$4d                     ; 0x4d <__rc31+0x2c>
    4da5: a6 09        	ldx	$9                      ; 0x9 <__rc7>
    4da7: a4 0a        	ldy	$a                      ; 0xa <__zp_data_size>
    4da9: 84 52        	sty	$52                     ; 0x52 <__rc31+0x31>
    4dab: 64 50        	stz	$50                     ; 0x50 <__rc31+0x2f>
    4dad: a9 00        	lda	#$0
    4daf: c5 4c        	cmp	$4c                     ; 0x4c <__rc31+0x2b>
    4db1: d0 09        	bne	$4dbc <readblockchain+0x2f>
    4db3: a4 50        	ldy	$50                     ; 0x50 <__rc31+0x2f>
    4db5: c4 4b        	cpy	$4b                     ; 0x4b <__rc31+0x2a>
    4db7: d0 03        	bne	$4dbc <readblockchain+0x2f>
    4db9: 4c 1a 4e     	jmp	$4e1a <readblockchain+0x8d>
    4dbc: 85 51        	sta	$51                     ; 0x51 <__rc31+0x30>
    4dbe: a0 00        	ldy	#$0
    4dc0: 84 04        	sty	$4                      ; 0x4 <__rc2>
    4dc2: a0 18        	ldy	#$18
    4dc4: 84 05        	sty	$5                      ; 0x5 <__rc3>
    4dc6: a4 52        	ldy	$52                     ; 0x52 <__rc31+0x31>
    4dc8: 84 06        	sty	$6                      ; 0x6 <__rc4>
    4dca: a5 4d        	lda	$4d                     ; 0x4d <__rc31+0x2c>
    4dcc: 20 e0 4b     	jsr	$4be0 <GetOneSector>
    4dcf: c9 02        	cmp	#$2
    4dd1: 90 03        	bcc	$4dd6 <readblockchain+0x49>
    4dd3: 4c 24 4e     	jmp	$4e24 <readblockchain+0x97>
    4dd6: ae 00 18     	ldx	$1800                   ; 0x1800 <__heap_default_limit+0x800>
    4dd9: 86 53        	stx	$53                     ; 0x53 <__rc31+0x32>
    4ddb: a9 00        	lda	#$0
    4ddd: 18           	clc
    4dde: 65 4e        	adc	$4e                     ; 0x4e <__rc31+0x2d>
    4de0: 85 06        	sta	$6                      ; 0x6 <__rc4>
    4de2: a5 50        	lda	$50                     ; 0x50 <__rc31+0x2f>
    4de4: 65 4f        	adc	$4f                     ; 0x4f <__rc31+0x2e>
    4de6: 85 07        	sta	$7                      ; 0x7 <__rc5>
    4de8: a5 51        	lda	$51                     ; 0x51 <__rc31+0x30>
    4dea: 65 49        	adc	$49                     ; 0x49 <__rc31+0x28>
    4dec: 85 08        	sta	$8                      ; 0x8 <__rc6>
    4dee: a9 00        	lda	#$0
    4df0: 65 4a        	adc	$4a                     ; 0x4a <__rc31+0x29>
    4df2: ae 01 18     	ldx	$1801                   ; 0x1801 <__heap_default_limit+0x801>
    4df5: 86 52        	stx	$52                     ; 0x52 <__rc31+0x31>
    4df7: 64 04        	stz	$4                      ; 0x4 <__rc2>
    4df9: 64 05        	stz	$5                      ; 0x5 <__rc3>
    4dfb: 85 09        	sta	$9                      ; 0x9 <__rc7>
    4dfd: 64 0a        	stz	$a                      ; 0xa <__zp_data_size>
    4dff: a2 01        	ldx	#$1
    4e01: 86 0b        	stx	$b                      ; 0xb <__rc9>
    4e03: a2 18        	ldx	#$18
    4e05: a9 00        	lda	#$0
    4e07: 20 a6 69     	jsr	$69a6 <lcopy>
    4e0a: a5 51        	lda	$51                     ; 0x51 <__rc31+0x30>
    4e0c: a6 53        	ldx	$53                     ; 0x53 <__rc31+0x32>
    4e0e: e6 50        	inc	$50                     ; 0x50 <__rc31+0x2f>
    4e10: d0 01        	bne	$4e13 <readblockchain+0x86>
    4e12: 1a           	inc
    4e13: a4 53        	ldy	$53                     ; 0x53 <__rc31+0x32>
    4e15: f0 0a        	beq	$4e21 <readblockchain+0x94>
    4e17: 4c af 4d     	jmp	$4daf <readblockchain+0x22>
    4e1a: a9 fe        	lda	#$fe
    4e1c: e0 00        	cpx	#$0
    4e1e: f0 01        	beq	$4e21 <readblockchain+0x94>
    4e20: 60           	rts
    4e21: a9 00        	lda	#$0
    4e23: 60           	rts
    4e24: a9 ff        	lda	#$ff
    4e26: 60           	rts

00004e27 <BAMSectorUpdate>:
    4e27: a8           	tay
    4e28: c9 29        	cmp	#$29
    4e2a: 90 0e        	bcc	$4e3a <BAMSectorUpdate+0x13>
    4e2c: a4 06        	ldy	$6                      ; 0x6 <__rc4>
    4e2e: 84 55        	sty	$55                     ; 0x55 <__rc31+0x34>
    4e30: a4 07        	ldy	$7                      ; 0x7 <__rc5>
    4e32: 84 56        	sty	$56                     ; 0x56 <__rc31+0x35>
    4e34: 18           	clc
    4e35: 69 d8        	adc	#$d8
    4e37: a8           	tay
    4e38: 80 08        	bra	$4e42 <BAMSectorUpdate+0x1b>
    4e3a: a5 04        	lda	$4                      ; 0x4 <__rc2>
    4e3c: 85 55        	sta	$55                     ; 0x55 <__rc31+0x34>
    4e3e: a5 05        	lda	$5                      ; 0x5 <__rc3>
    4e40: 85 56        	sta	$56                     ; 0x56 <__rc31+0x35>
    4e42: 88           	dey
    4e43: 84 05        	sty	$5                      ; 0x5 <__rc3>
    4e45: a5 08        	lda	$8                      ; 0x8 <__rc6>
    4e47: d0 03        	bne	$4e4c <BAMSectorUpdate+0x25>
    4e49: 4c 90 4e     	jmp	$4e90 <BAMSectorUpdate+0x69>
    4e4c: da           	phx
    4e4d: 7a           	ply
    4e4e: e0 08        	cpx	#$8
    4e50: 90 03        	bcc	$4e55 <BAMSectorUpdate+0x2e>
    4e52: 4c e3 4e     	jmp	$4ee3 <BAMSectorUpdate+0xbc>
    4e55: a2 00        	ldx	#$0
    4e57: 86 5b        	stx	$5b                     ; 0x5b <__rc31+0x3a>
    4e59: a5 05        	lda	$5                      ; 0x5 <__rc3>
    4e5b: 85 59        	sta	$59                     ; 0x59 <__rc31+0x38>
    4e5d: 0a           	asl
    4e5e: 85 04        	sta	$4                      ; 0x4 <__rc2>
    4e60: 8a           	txa
    4e61: 2a           	rol
    4e62: 85 05        	sta	$5                      ; 0x5 <__rc3>
    4e64: a5 04        	lda	$4                      ; 0x4 <__rc2>
    4e66: 0a           	asl
    4e67: aa           	tax
    4e68: a5 05        	lda	$5                      ; 0x5 <__rc3>
    4e6a: 2a           	rol
    4e6b: 85 06        	sta	$6                      ; 0x6 <__rc4>
    4e6d: 18           	clc
    4e6e: 8a           	txa
    4e6f: 65 04        	adc	$4                      ; 0x4 <__rc2>
    4e71: 85 04        	sta	$4                      ; 0x4 <__rc2>
    4e73: a5 06        	lda	$6                      ; 0x6 <__rc4>
    4e75: 65 05        	adc	$5                      ; 0x5 <__rc3>
    4e77: 85 05        	sta	$5                      ; 0x5 <__rc3>
    4e79: 18           	clc
    4e7a: a5 04        	lda	$4                      ; 0x4 <__rc2>
    4e7c: 65 55        	adc	$55                     ; 0x55 <__rc31+0x34>
    4e7e: 85 04        	sta	$4                      ; 0x4 <__rc2>
    4e80: a5 05        	lda	$5                      ; 0x5 <__rc3>
    4e82: 65 56        	adc	$56                     ; 0x56 <__rc31+0x35>
    4e84: aa           	tax
    4e85: 18           	clc
    4e86: a5 04        	lda	$4                      ; 0x4 <__rc2>
    4e88: 69 11        	adc	#$11
    4e8a: 85 57        	sta	$57                     ; 0x57 <__rc31+0x36>
    4e8c: 8a           	txa
    4e8d: 4c 97 50     	jmp	$5097 <BAMSectorUpdate+0x270>
    4e90: da           	phx
    4e91: 7a           	ply
    4e92: e0 08        	cpx	#$8
    4e94: 90 03        	bcc	$4e99 <BAMSectorUpdate+0x72>
    4e96: 4c 41 4f     	jmp	$4f41 <BAMSectorUpdate+0x11a>
    4e99: 64 57        	stz	$57                     ; 0x57 <__rc31+0x36>
    4e9b: a5 05        	lda	$5                      ; 0x5 <__rc3>
    4e9d: 85 59        	sta	$59                     ; 0x59 <__rc31+0x38>
    4e9f: 0a           	asl
    4ea0: 85 04        	sta	$4                      ; 0x4 <__rc2>
    4ea2: a9 00        	lda	#$0
    4ea4: 2a           	rol
    4ea5: 85 05        	sta	$5                      ; 0x5 <__rc3>
    4ea7: a5 04        	lda	$4                      ; 0x4 <__rc2>
    4ea9: 0a           	asl
    4eaa: aa           	tax
    4eab: a5 05        	lda	$5                      ; 0x5 <__rc3>
    4ead: 2a           	rol
    4eae: 85 06        	sta	$6                      ; 0x6 <__rc4>
    4eb0: 18           	clc
    4eb1: 8a           	txa
    4eb2: 65 04        	adc	$4                      ; 0x4 <__rc2>
    4eb4: 85 04        	sta	$4                      ; 0x4 <__rc2>
    4eb6: a5 06        	lda	$6                      ; 0x6 <__rc4>
    4eb8: 65 05        	adc	$5                      ; 0x5 <__rc3>
    4eba: 85 07        	sta	$7                      ; 0x7 <__rc5>
    4ebc: 18           	clc
    4ebd: a5 04        	lda	$4                      ; 0x4 <__rc2>
    4ebf: 65 55        	adc	$55                     ; 0x55 <__rc31+0x34>
    4ec1: 85 06        	sta	$6                      ; 0x6 <__rc4>
    4ec3: a6 55        	ldx	$55                     ; 0x55 <__rc31+0x34>
    4ec5: 86 04        	stx	$4                      ; 0x4 <__rc2>
    4ec7: a6 56        	ldx	$56                     ; 0x56 <__rc31+0x35>
    4ec9: 86 05        	stx	$5                      ; 0x5 <__rc3>
    4ecb: a6 04        	ldx	$4                      ; 0x4 <__rc2>
    4ecd: 86 5b        	stx	$5b                     ; 0x5b <__rc31+0x3a>
    4ecf: a6 05        	ldx	$5                      ; 0x5 <__rc3>
    4ed1: 86 5c        	stx	$5c                     ; 0x5c <__rc31+0x3b>
    4ed3: a5 07        	lda	$7                      ; 0x7 <__rc5>
    4ed5: 65 56        	adc	$56                     ; 0x56 <__rc31+0x35>
    4ed7: aa           	tax
    4ed8: 18           	clc
    4ed9: a5 06        	lda	$6                      ; 0x6 <__rc4>
    4edb: 69 11        	adc	#$11
    4edd: 85 55        	sta	$55                     ; 0x55 <__rc31+0x34>
    4edf: 8a           	txa
    4ee0: 4c db 50     	jmp	$50db <BAMSectorUpdate+0x2b4>
    4ee3: c0 10        	cpy	#$10
    4ee5: a2 01        	ldx	#$1
    4ee7: b0 02        	bcs	$4eeb <BAMSectorUpdate+0xc4>
    4ee9: a2 00        	ldx	#$0
    4eeb: 86 08        	stx	$8                      ; 0x8 <__rc6>
    4eed: a5 55        	lda	$55                     ; 0x55 <__rc31+0x34>
    4eef: 18           	clc
    4ef0: 69 10        	adc	#$10
    4ef2: 85 07        	sta	$7                      ; 0x7 <__rc5>
    4ef4: a5 56        	lda	$56                     ; 0x56 <__rc31+0x35>
    4ef6: 69 00        	adc	#$0
    4ef8: 85 06        	sta	$6                      ; 0x6 <__rc4>
    4efa: a6 05        	ldx	$5                      ; 0x5 <__rc3>
    4efc: 86 59        	stx	$59                     ; 0x59 <__rc31+0x38>
    4efe: 06 05        	asl	$5                      ; 0x5 <__rc3>
    4f00: 64 04        	stz	$4                      ; 0x4 <__rc2>
    4f02: 26 04        	rol	$4                      ; 0x4 <__rc2>
    4f04: a5 05        	lda	$5                      ; 0x5 <__rc3>
    4f06: 0a           	asl
    4f07: a6 04        	ldx	$4                      ; 0x4 <__rc2>
    4f09: 86 09        	stx	$9                      ; 0x9 <__rc7>
    4f0b: 26 09        	rol	$9                      ; 0x9 <__rc7>
    4f0d: a6 09        	ldx	$9                      ; 0x9 <__rc7>
    4f0f: 86 0a        	stx	$a                      ; 0xa <__zp_data_size>
    4f11: a6 08        	ldx	$8                      ; 0x8 <__rc6>
    4f13: f0 03        	beq	$4f18 <BAMSectorUpdate+0xf1>
    4f15: 4c a5 4f     	jmp	$4fa5 <BAMSectorUpdate+0x17e>
    4f18: a2 00        	ldx	#$0
    4f1a: 86 5b        	stx	$5b                     ; 0x5b <__rc31+0x3a>
    4f1c: 18           	clc
    4f1d: aa           	tax
    4f1e: 98           	tya
    4f1f: 69 f8        	adc	#$f8
    4f21: a8           	tay
    4f22: 18           	clc
    4f23: 8a           	txa
    4f24: 65 05        	adc	$5                      ; 0x5 <__rc3>
    4f26: 85 05        	sta	$5                      ; 0x5 <__rc3>
    4f28: a5 09        	lda	$9                      ; 0x9 <__rc7>
    4f2a: 65 04        	adc	$4                      ; 0x4 <__rc2>
    4f2c: 85 04        	sta	$4                      ; 0x4 <__rc2>
    4f2e: a5 07        	lda	$7                      ; 0x7 <__rc5>
    4f30: 18           	clc
    4f31: 65 05        	adc	$5                      ; 0x5 <__rc3>
    4f33: aa           	tax
    4f34: a5 06        	lda	$6                      ; 0x6 <__rc4>
    4f36: 65 04        	adc	$4                      ; 0x4 <__rc2>
    4f38: 85 04        	sta	$4                      ; 0x4 <__rc2>
    4f3a: 18           	clc
    4f3b: 8a           	txa
    4f3c: 69 02        	adc	#$2
    4f3e: 4c 93 50     	jmp	$5093 <BAMSectorUpdate+0x26c>
    4f41: c0 10        	cpy	#$10
    4f43: a2 01        	ldx	#$1
    4f45: b0 02        	bcs	$4f49 <BAMSectorUpdate+0x122>
    4f47: a2 00        	ldx	#$0
    4f49: 86 08        	stx	$8                      ; 0x8 <__rc6>
    4f4b: 64 57        	stz	$57                     ; 0x57 <__rc31+0x36>
    4f4d: a5 55        	lda	$55                     ; 0x55 <__rc31+0x34>
    4f4f: 18           	clc
    4f50: 69 10        	adc	#$10
    4f52: 85 07        	sta	$7                      ; 0x7 <__rc5>
    4f54: a5 56        	lda	$56                     ; 0x56 <__rc31+0x35>
    4f56: 69 00        	adc	#$0
    4f58: 85 06        	sta	$6                      ; 0x6 <__rc4>
    4f5a: a6 05        	ldx	$5                      ; 0x5 <__rc3>
    4f5c: 86 59        	stx	$59                     ; 0x59 <__rc31+0x38>
    4f5e: 06 05        	asl	$5                      ; 0x5 <__rc3>
    4f60: 64 04        	stz	$4                      ; 0x4 <__rc2>
    4f62: 26 04        	rol	$4                      ; 0x4 <__rc2>
    4f64: a5 05        	lda	$5                      ; 0x5 <__rc3>
    4f66: 0a           	asl
    4f67: a6 04        	ldx	$4                      ; 0x4 <__rc2>
    4f69: 86 09        	stx	$9                      ; 0x9 <__rc7>
    4f6b: 26 09        	rol	$9                      ; 0x9 <__rc7>
    4f6d: a6 09        	ldx	$9                      ; 0x9 <__rc7>
    4f6f: 86 0a        	stx	$a                      ; 0xa <__zp_data_size>
    4f71: a6 08        	ldx	$8                      ; 0x8 <__rc6>
    4f73: f0 03        	beq	$4f78 <BAMSectorUpdate+0x151>
    4f75: 4c d7 4f     	jmp	$4fd7 <BAMSectorUpdate+0x1b0>
    4f78: a6 55        	ldx	$55                     ; 0x55 <__rc31+0x34>
    4f7a: 86 5b        	stx	$5b                     ; 0x5b <__rc31+0x3a>
    4f7c: a6 56        	ldx	$56                     ; 0x56 <__rc31+0x35>
    4f7e: 86 5c        	stx	$5c                     ; 0x5c <__rc31+0x3b>
    4f80: 18           	clc
    4f81: aa           	tax
    4f82: 98           	tya
    4f83: 69 f8        	adc	#$f8
    4f85: a8           	tay
    4f86: 18           	clc
    4f87: 8a           	txa
    4f88: 65 05        	adc	$5                      ; 0x5 <__rc3>
    4f8a: 85 05        	sta	$5                      ; 0x5 <__rc3>
    4f8c: a5 09        	lda	$9                      ; 0x9 <__rc7>
    4f8e: 65 04        	adc	$4                      ; 0x4 <__rc2>
    4f90: 85 04        	sta	$4                      ; 0x4 <__rc2>
    4f92: a5 07        	lda	$7                      ; 0x7 <__rc5>
    4f94: 18           	clc
    4f95: 65 05        	adc	$5                      ; 0x5 <__rc3>
    4f97: aa           	tax
    4f98: a5 06        	lda	$6                      ; 0x6 <__rc4>
    4f9a: 65 04        	adc	$4                      ; 0x4 <__rc2>
    4f9c: 85 04        	sta	$4                      ; 0x4 <__rc2>
    4f9e: 18           	clc
    4f9f: 8a           	txa
    4fa0: 69 02        	adc	#$2
    4fa2: 4c d7 50     	jmp	$50d7 <BAMSectorUpdate+0x2b0>
    4fa5: 85 09        	sta	$9                      ; 0x9 <__rc7>
    4fa7: c0 18        	cpy	#$18
    4fa9: 90 03        	bcc	$4fae <BAMSectorUpdate+0x187>
    4fab: 4c 0d 50     	jmp	$500d <BAMSectorUpdate+0x1e6>
    4fae: a2 00        	ldx	#$0
    4fb0: 86 5b        	stx	$5b                     ; 0x5b <__rc31+0x3a>
    4fb2: 18           	clc
    4fb3: 98           	tya
    4fb4: 69 f0        	adc	#$f0
    4fb6: a8           	tay
    4fb7: a5 09        	lda	$9                      ; 0x9 <__rc7>
    4fb9: 18           	clc
    4fba: 65 05        	adc	$5                      ; 0x5 <__rc3>
    4fbc: 85 05        	sta	$5                      ; 0x5 <__rc3>
    4fbe: a5 0a        	lda	$a                      ; 0xa <__zp_data_size>
    4fc0: 65 04        	adc	$4                      ; 0x4 <__rc2>
    4fc2: 85 04        	sta	$4                      ; 0x4 <__rc2>
    4fc4: a5 07        	lda	$7                      ; 0x7 <__rc5>
    4fc6: 18           	clc
    4fc7: 65 05        	adc	$5                      ; 0x5 <__rc3>
    4fc9: aa           	tax
    4fca: a5 06        	lda	$6                      ; 0x6 <__rc4>
    4fcc: 65 04        	adc	$4                      ; 0x4 <__rc2>
    4fce: 85 04        	sta	$4                      ; 0x4 <__rc2>
    4fd0: 18           	clc
    4fd1: 8a           	txa
    4fd2: 69 03        	adc	#$3
    4fd4: 4c 93 50     	jmp	$5093 <BAMSectorUpdate+0x26c>
    4fd7: 85 09        	sta	$9                      ; 0x9 <__rc7>
    4fd9: c0 18        	cpy	#$18
    4fdb: 90 03        	bcc	$4fe0 <BAMSectorUpdate+0x1b9>
    4fdd: 4c 3d 50     	jmp	$503d <BAMSectorUpdate+0x216>
    4fe0: a6 55        	ldx	$55                     ; 0x55 <__rc31+0x34>
    4fe2: 86 5b        	stx	$5b                     ; 0x5b <__rc31+0x3a>
    4fe4: a6 56        	ldx	$56                     ; 0x56 <__rc31+0x35>
    4fe6: 86 5c        	stx	$5c                     ; 0x5c <__rc31+0x3b>
    4fe8: 18           	clc
    4fe9: 98           	tya
    4fea: 69 f0        	adc	#$f0
    4fec: a8           	tay
    4fed: a5 09        	lda	$9                      ; 0x9 <__rc7>
    4fef: 18           	clc
    4ff0: 65 05        	adc	$5                      ; 0x5 <__rc3>
    4ff2: 85 05        	sta	$5                      ; 0x5 <__rc3>
    4ff4: a5 0a        	lda	$a                      ; 0xa <__zp_data_size>
    4ff6: 65 04        	adc	$4                      ; 0x4 <__rc2>
    4ff8: 85 04        	sta	$4                      ; 0x4 <__rc2>
    4ffa: a5 07        	lda	$7                      ; 0x7 <__rc5>
    4ffc: 18           	clc
    4ffd: 65 05        	adc	$5                      ; 0x5 <__rc3>
    4fff: aa           	tax
    5000: a5 06        	lda	$6                      ; 0x6 <__rc4>
    5002: 65 04        	adc	$4                      ; 0x4 <__rc2>
    5004: 85 04        	sta	$4                      ; 0x4 <__rc2>
    5006: 18           	clc
    5007: 8a           	txa
    5008: 69 03        	adc	#$3
    500a: 4c d7 50     	jmp	$50d7 <BAMSectorUpdate+0x2b0>
    500d: a2 00        	ldx	#$0
    500f: 86 5b        	stx	$5b                     ; 0x5b <__rc31+0x3a>
    5011: c0 20        	cpy	#$20
    5013: 90 03        	bcc	$5018 <BAMSectorUpdate+0x1f1>
    5015: 4c 71 50     	jmp	$5071 <BAMSectorUpdate+0x24a>
    5018: 18           	clc
    5019: 98           	tya
    501a: 69 e8        	adc	#$e8
    501c: a8           	tay
    501d: a5 09        	lda	$9                      ; 0x9 <__rc7>
    501f: 18           	clc
    5020: 65 05        	adc	$5                      ; 0x5 <__rc3>
    5022: 85 05        	sta	$5                      ; 0x5 <__rc3>
    5024: a5 0a        	lda	$a                      ; 0xa <__zp_data_size>
    5026: 65 04        	adc	$4                      ; 0x4 <__rc2>
    5028: 85 04        	sta	$4                      ; 0x4 <__rc2>
    502a: a5 07        	lda	$7                      ; 0x7 <__rc5>
    502c: 18           	clc
    502d: 65 05        	adc	$5                      ; 0x5 <__rc3>
    502f: aa           	tax
    5030: a5 06        	lda	$6                      ; 0x6 <__rc4>
    5032: 65 04        	adc	$4                      ; 0x4 <__rc2>
    5034: 85 04        	sta	$4                      ; 0x4 <__rc2>
    5036: 18           	clc
    5037: 8a           	txa
    5038: 69 04        	adc	#$4
    503a: 4c 93 50     	jmp	$5093 <BAMSectorUpdate+0x26c>
    503d: a6 55        	ldx	$55                     ; 0x55 <__rc31+0x34>
    503f: 86 5b        	stx	$5b                     ; 0x5b <__rc31+0x3a>
    5041: a6 56        	ldx	$56                     ; 0x56 <__rc31+0x35>
    5043: 86 5c        	stx	$5c                     ; 0x5c <__rc31+0x3b>
    5045: c0 20        	cpy	#$20
    5047: 90 03        	bcc	$504c <BAMSectorUpdate+0x225>
    5049: 4c b5 50     	jmp	$50b5 <BAMSectorUpdate+0x28e>
    504c: 18           	clc
    504d: 98           	tya
    504e: 69 e8        	adc	#$e8
    5050: a8           	tay
    5051: a5 09        	lda	$9                      ; 0x9 <__rc7>
    5053: 18           	clc
    5054: 65 05        	adc	$5                      ; 0x5 <__rc3>
    5056: 85 05        	sta	$5                      ; 0x5 <__rc3>
    5058: a5 0a        	lda	$a                      ; 0xa <__zp_data_size>
    505a: 65 04        	adc	$4                      ; 0x4 <__rc2>
    505c: 85 04        	sta	$4                      ; 0x4 <__rc2>
    505e: a5 07        	lda	$7                      ; 0x7 <__rc5>
    5060: 18           	clc
    5061: 65 05        	adc	$5                      ; 0x5 <__rc3>
    5063: aa           	tax
    5064: a5 06        	lda	$6                      ; 0x6 <__rc4>
    5066: 65 04        	adc	$4                      ; 0x4 <__rc2>
    5068: 85 04        	sta	$4                      ; 0x4 <__rc2>
    506a: 18           	clc
    506b: 8a           	txa
    506c: 69 04        	adc	#$4
    506e: 4c d7 50     	jmp	$50d7 <BAMSectorUpdate+0x2b0>
    5071: 18           	clc
    5072: 98           	tya
    5073: 69 e0        	adc	#$e0
    5075: a8           	tay
    5076: a5 09        	lda	$9                      ; 0x9 <__rc7>
    5078: 18           	clc
    5079: 65 05        	adc	$5                      ; 0x5 <__rc3>
    507b: 85 05        	sta	$5                      ; 0x5 <__rc3>
    507d: a5 0a        	lda	$a                      ; 0xa <__zp_data_size>
    507f: 65 04        	adc	$4                      ; 0x4 <__rc2>
    5081: 85 04        	sta	$4                      ; 0x4 <__rc2>
    5083: a5 07        	lda	$7                      ; 0x7 <__rc5>
    5085: 18           	clc
    5086: 65 05        	adc	$5                      ; 0x5 <__rc3>
    5088: aa           	tax
    5089: a5 06        	lda	$6                      ; 0x6 <__rc4>
    508b: 65 04        	adc	$4                      ; 0x4 <__rc2>
    508d: 85 04        	sta	$4                      ; 0x4 <__rc2>
    508f: 18           	clc
    5090: 8a           	txa
    5091: 69 05        	adc	#$5
    5093: 85 57        	sta	$57                     ; 0x57 <__rc31+0x36>
    5095: a5 04        	lda	$4                      ; 0x4 <__rc2>
    5097: 69 00        	adc	#$0
    5099: 85 58        	sta	$58                     ; 0x58 <__rc31+0x37>
    509b: a9 01        	lda	#$1
    509d: a2 00        	ldx	#$0
    509f: 84 04        	sty	$4                      ; 0x4 <__rc2>
    50a1: 20 3e 6b     	jsr	$6b3e <__ashlhi3>
    50a4: a2 ff        	ldx	#$ff
    50a6: 86 5a        	stx	$5a                     ; 0x5a <__rc31+0x39>
    50a8: 49 ff        	eor	#$ff
    50aa: 32 57        	and	($57),z                 ; 0x57 <__rc31+0x36>
    50ac: 92 57        	sta	($57),z                 ; 0x57 <__rc31+0x36>
    50ae: a6 5b        	ldx	$5b                     ; 0x5b <__rc31+0x3a>
    50b0: 86 57        	stx	$57                     ; 0x57 <__rc31+0x36>
    50b2: 4c f7 50     	jmp	$50f7 <BAMSectorUpdate+0x2d0>
    50b5: 18           	clc
    50b6: 98           	tya
    50b7: 69 e0        	adc	#$e0
    50b9: a8           	tay
    50ba: a5 09        	lda	$9                      ; 0x9 <__rc7>
    50bc: 18           	clc
    50bd: 65 05        	adc	$5                      ; 0x5 <__rc3>
    50bf: 85 05        	sta	$5                      ; 0x5 <__rc3>
    50c1: a5 0a        	lda	$a                      ; 0xa <__zp_data_size>
    50c3: 65 04        	adc	$4                      ; 0x4 <__rc2>
    50c5: 85 04        	sta	$4                      ; 0x4 <__rc2>
    50c7: a5 07        	lda	$7                      ; 0x7 <__rc5>
    50c9: 18           	clc
    50ca: 65 05        	adc	$5                      ; 0x5 <__rc3>
    50cc: aa           	tax
    50cd: a5 06        	lda	$6                      ; 0x6 <__rc4>
    50cf: 65 04        	adc	$4                      ; 0x4 <__rc2>
    50d1: 85 04        	sta	$4                      ; 0x4 <__rc2>
    50d3: 18           	clc
    50d4: 8a           	txa
    50d5: 69 05        	adc	#$5
    50d7: 85 55        	sta	$55                     ; 0x55 <__rc31+0x34>
    50d9: a5 04        	lda	$4                      ; 0x4 <__rc2>
    50db: 69 00        	adc	#$0
    50dd: 85 56        	sta	$56                     ; 0x56 <__rc31+0x35>
    50df: a9 01        	lda	#$1
    50e1: a2 00        	ldx	#$0
    50e3: 84 04        	sty	$4                      ; 0x4 <__rc2>
    50e5: a8           	tay
    50e6: 84 5a        	sty	$5a                     ; 0x5a <__rc31+0x39>
    50e8: 20 3e 6b     	jsr	$6b3e <__ashlhi3>
    50eb: 12 55        	ora	($55),z                 ; 0x55 <__rc31+0x34>
    50ed: 92 55        	sta	($55),z                 ; 0x55 <__rc31+0x34>
    50ef: a6 5b        	ldx	$5b                     ; 0x5b <__rc31+0x3a>
    50f1: 86 55        	stx	$55                     ; 0x55 <__rc31+0x34>
    50f3: a6 5c        	ldx	$5c                     ; 0x5c <__rc31+0x3b>
    50f5: 86 56        	stx	$56                     ; 0x56 <__rc31+0x35>
    50f7: a6 59        	ldx	$59                     ; 0x59 <__rc31+0x38>
    50f9: 86 04        	stx	$4                      ; 0x4 <__rc2>
    50fb: 06 04        	asl	$4                      ; 0x4 <__rc2>
    50fd: 26 57        	rol	$57                     ; 0x57 <__rc31+0x36>
    50ff: a5 04        	lda	$4                      ; 0x4 <__rc2>
    5101: 0a           	asl
    5102: a6 57        	ldx	$57                     ; 0x57 <__rc31+0x36>
    5104: 86 05        	stx	$5                      ; 0x5 <__rc3>
    5106: 26 05        	rol	$5                      ; 0x5 <__rc3>
    5108: 18           	clc
    5109: 65 04        	adc	$4                      ; 0x4 <__rc2>
    510b: aa           	tax
    510c: a5 05        	lda	$5                      ; 0x5 <__rc3>
    510e: 65 57        	adc	$57                     ; 0x57 <__rc31+0x36>
    5110: 85 04        	sta	$4                      ; 0x4 <__rc2>
    5112: 18           	clc
    5113: 8a           	txa
    5114: 65 55        	adc	$55                     ; 0x55 <__rc31+0x34>
    5116: aa           	tax
    5117: a5 56        	lda	$56                     ; 0x56 <__rc31+0x35>
    5119: 65 04        	adc	$4                      ; 0x4 <__rc2>
    511b: 86 04        	stx	$4                      ; 0x4 <__rc2>
    511d: 85 05        	sta	$5                      ; 0x5 <__rc3>
    511f: a0 10        	ldy	#$10
    5121: 18           	clc
    5122: a5 5a        	lda	$5a                     ; 0x5a <__rc31+0x39>
    5124: 71 04        	adc	($4),y                  ; 0x4 <__rc2>
    5126: 91 04        	sta	($4),y                  ; 0x4 <__rc2>
    5128: 60           	rts

00005129 <isallocatedBAMtracksector>:
    5129: 86 06        	stx	$6                      ; 0x6 <__rc4>
    512b: aa           	tax
    512c: ca           	dex
    512d: 86 09        	stx	$9                      ; 0x9 <__rc7>
    512f: e0 28        	cpx	#$28
    5131: a2 7f        	ldx	#$7f
    5133: 86 04        	stx	$4                      ; 0x4 <__rc2>
    5135: a2 7a        	ldx	#$7a
    5137: 86 05        	stx	$5                      ; 0x5 <__rc3>
    5139: 90 0d        	bcc	$5148 <isallocatedBAMtracksector+0x1f>
    513b: 18           	clc
    513c: 69 d7        	adc	#$d7
    513e: a2 81        	ldx	#$81
    5140: 86 04        	stx	$4                      ; 0x4 <__rc2>
    5142: a2 7a        	ldx	#$7a
    5144: 86 05        	stx	$5                      ; 0x5 <__rc3>
    5146: 85 09        	sta	$9                      ; 0x9 <__rc7>
    5148: b2 04        	lda	($4),z                  ; 0x4 <__rc2>
    514a: 85 08        	sta	$8                      ; 0x8 <__rc6>
    514c: a0 01        	ldy	#$1
    514e: b1 04        	lda	($4),y                  ; 0x4 <__rc2>
    5150: a6 06        	ldx	$6                      ; 0x6 <__rc4>
    5152: e0 08        	cpx	#$8
    5154: 90 03        	bcc	$5159 <isallocatedBAMtracksector+0x30>
    5156: 4c 9b 51     	jmp	$519b <isallocatedBAMtracksector+0x72>
    5159: 64 04        	stz	$4                      ; 0x4 <__rc2>
    515b: a6 09        	ldx	$9                      ; 0x9 <__rc7>
    515d: 86 05        	stx	$5                      ; 0x5 <__rc3>
    515f: 06 05        	asl	$5                      ; 0x5 <__rc3>
    5161: 26 04        	rol	$4                      ; 0x4 <__rc2>
    5163: a6 05        	ldx	$5                      ; 0x5 <__rc3>
    5165: 86 07        	stx	$7                      ; 0x7 <__rc5>
    5167: 06 07        	asl	$7                      ; 0x7 <__rc5>
    5169: aa           	tax
    516a: a4 04        	ldy	$4                      ; 0x4 <__rc2>
    516c: 84 09        	sty	$9                      ; 0x9 <__rc7>
    516e: 26 09        	rol	$9                      ; 0x9 <__rc7>
    5170: 18           	clc
    5171: a5 07        	lda	$7                      ; 0x7 <__rc5>
    5173: 65 05        	adc	$5                      ; 0x5 <__rc3>
    5175: 85 05        	sta	$5                      ; 0x5 <__rc3>
    5177: a5 09        	lda	$9                      ; 0x9 <__rc7>
    5179: 65 04        	adc	$4                      ; 0x4 <__rc2>
    517b: 85 04        	sta	$4                      ; 0x4 <__rc2>
    517d: a5 08        	lda	$8                      ; 0x8 <__rc6>
    517f: 18           	clc
    5180: 65 05        	adc	$5                      ; 0x5 <__rc3>
    5182: a8           	tay
    5183: 8a           	txa
    5184: 65 04        	adc	$4                      ; 0x4 <__rc2>
    5186: 84 04        	sty	$4                      ; 0x4 <__rc2>
    5188: 85 05        	sta	$5                      ; 0x5 <__rc3>
    518a: a0 11        	ldy	#$11
    518c: b1 04        	lda	($4),y                  ; 0x4 <__rc2>
    518e: 85 49        	sta	$49                     ; 0x49 <__rc31+0x28>
    5190: a9 01        	lda	#$1
    5192: a2 00        	ldx	#$0
    5194: a4 06        	ldy	$6                      ; 0x6 <__rc4>
    5196: 84 04        	sty	$4                      ; 0x4 <__rc2>
    5198: 4c 26 52     	jmp	$5226 <isallocatedBAMtracksector+0xfd>
    519b: 85 07        	sta	$7                      ; 0x7 <__rc5>
    519d: a6 06        	ldx	$6                      ; 0x6 <__rc4>
    519f: e0 10        	cpx	#$10
    51a1: 90 03        	bcc	$51a6 <isallocatedBAMtracksector+0x7d>
    51a3: 4c e0 51     	jmp	$51e0 <isallocatedBAMtracksector+0xb7>
    51a6: 64 04        	stz	$4                      ; 0x4 <__rc2>
    51a8: a6 09        	ldx	$9                      ; 0x9 <__rc7>
    51aa: 86 05        	stx	$5                      ; 0x5 <__rc3>
    51ac: 06 05        	asl	$5                      ; 0x5 <__rc3>
    51ae: 26 04        	rol	$4                      ; 0x4 <__rc2>
    51b0: a5 05        	lda	$5                      ; 0x5 <__rc3>
    51b2: 0a           	asl
    51b3: a6 04        	ldx	$4                      ; 0x4 <__rc2>
    51b5: 86 09        	stx	$9                      ; 0x9 <__rc7>
    51b7: 26 09        	rol	$9                      ; 0x9 <__rc7>
    51b9: 18           	clc
    51ba: 65 05        	adc	$5                      ; 0x5 <__rc3>
    51bc: 85 05        	sta	$5                      ; 0x5 <__rc3>
    51be: a5 09        	lda	$9                      ; 0x9 <__rc7>
    51c0: 65 04        	adc	$4                      ; 0x4 <__rc2>
    51c2: 85 04        	sta	$4                      ; 0x4 <__rc2>
    51c4: a5 08        	lda	$8                      ; 0x8 <__rc6>
    51c6: 18           	clc
    51c7: 65 05        	adc	$5                      ; 0x5 <__rc3>
    51c9: aa           	tax
    51ca: a5 07        	lda	$7                      ; 0x7 <__rc5>
    51cc: 65 04        	adc	$4                      ; 0x4 <__rc2>
    51ce: 86 04        	stx	$4                      ; 0x4 <__rc2>
    51d0: 85 05        	sta	$5                      ; 0x5 <__rc3>
    51d2: a0 12        	ldy	#$12
    51d4: b1 04        	lda	($4),y                  ; 0x4 <__rc2>
    51d6: 85 49        	sta	$49                     ; 0x49 <__rc31+0x28>
    51d8: a5 06        	lda	$6                      ; 0x6 <__rc4>
    51da: 18           	clc
    51db: 69 f8        	adc	#$f8
    51dd: 4c 20 52     	jmp	$5220 <isallocatedBAMtracksector+0xf7>
    51e0: a6 06        	ldx	$6                      ; 0x6 <__rc4>
    51e2: e0 18        	cpx	#$18
    51e4: 90 03        	bcc	$51e9 <isallocatedBAMtracksector+0xc0>
    51e6: 4c 37 52     	jmp	$5237 <isallocatedBAMtracksector+0x10e>
    51e9: 64 04        	stz	$4                      ; 0x4 <__rc2>
    51eb: a6 09        	ldx	$9                      ; 0x9 <__rc7>
    51ed: 86 05        	stx	$5                      ; 0x5 <__rc3>
    51ef: 06 05        	asl	$5                      ; 0x5 <__rc3>
    51f1: 26 04        	rol	$4                      ; 0x4 <__rc2>
    51f3: a5 05        	lda	$5                      ; 0x5 <__rc3>
    51f5: 0a           	asl
    51f6: a6 04        	ldx	$4                      ; 0x4 <__rc2>
    51f8: 86 09        	stx	$9                      ; 0x9 <__rc7>
    51fa: 26 09        	rol	$9                      ; 0x9 <__rc7>
    51fc: 18           	clc
    51fd: 65 05        	adc	$5                      ; 0x5 <__rc3>
    51ff: 85 05        	sta	$5                      ; 0x5 <__rc3>
    5201: a5 09        	lda	$9                      ; 0x9 <__rc7>
    5203: 65 04        	adc	$4                      ; 0x4 <__rc2>
    5205: 85 04        	sta	$4                      ; 0x4 <__rc2>
    5207: a5 08        	lda	$8                      ; 0x8 <__rc6>
    5209: 18           	clc
    520a: 65 05        	adc	$5                      ; 0x5 <__rc3>
    520c: aa           	tax
    520d: a5 07        	lda	$7                      ; 0x7 <__rc5>
    520f: 65 04        	adc	$4                      ; 0x4 <__rc2>
    5211: 86 04        	stx	$4                      ; 0x4 <__rc2>
    5213: 85 05        	sta	$5                      ; 0x5 <__rc3>
    5215: a0 13        	ldy	#$13
    5217: b1 04        	lda	($4),y                  ; 0x4 <__rc2>
    5219: 85 49        	sta	$49                     ; 0x49 <__rc31+0x28>
    521b: a5 06        	lda	$6                      ; 0x6 <__rc4>
    521d: 18           	clc
    521e: 69 f0        	adc	#$f0
    5220: a2 00        	ldx	#$0
    5222: 85 04        	sta	$4                      ; 0x4 <__rc2>
    5224: a9 01        	lda	#$1
    5226: 20 3e 6b     	jsr	$6b3e <__ashlhi3>
    5229: a2 01        	ldx	#$1
    522b: a4 49        	ldy	$49                     ; 0x49 <__rc31+0x28>
    522d: 84 04        	sty	$4                      ; 0x4 <__rc2>
    522f: 25 04        	and	$4                      ; 0x4 <__rc2>
    5231: f0 02        	beq	$5235 <isallocatedBAMtracksector+0x10c>
    5233: a2 00        	ldx	#$0
    5235: 8a           	txa
    5236: 60           	rts
    5237: a6 06        	ldx	$6                      ; 0x6 <__rc4>
    5239: e0 20        	cpx	#$20
    523b: a2 01        	ldx	#$1
    523d: b0 02        	bcs	$5241 <isallocatedBAMtracksector+0x118>
    523f: a2 00        	ldx	#$0
    5241: 86 0a        	stx	$a                      ; 0xa <__zp_data_size>
    5243: 64 04        	stz	$4                      ; 0x4 <__rc2>
    5245: 18           	clc
    5246: a6 09        	ldx	$9                      ; 0x9 <__rc7>
    5248: 86 05        	stx	$5                      ; 0x5 <__rc3>
    524a: a5 08        	lda	$8                      ; 0x8 <__rc6>
    524c: 69 10        	adc	#$10
    524e: aa           	tax
    524f: a5 07        	lda	$7                      ; 0x7 <__rc5>
    5251: 69 00        	adc	#$0
    5253: a8           	tay
    5254: 06 05        	asl	$5                      ; 0x5 <__rc3>
    5256: 26 04        	rol	$4                      ; 0x4 <__rc2>
    5258: a5 05        	lda	$5                      ; 0x5 <__rc3>
    525a: 0a           	asl
    525b: 5a           	phy
    525c: a4 04        	ldy	$4                      ; 0x4 <__rc2>
    525e: 84 07        	sty	$7                      ; 0x7 <__rc5>
    5260: 7a           	ply
    5261: 26 07        	rol	$7                      ; 0x7 <__rc5>
    5263: e6 0a        	inc	$a                      ; 0xa <__zp_data_size>
    5265: c6 0a        	dec	$a                      ; 0xa <__zp_data_size>
    5267: d0 24        	bne	$528d <isallocatedBAMtracksector+0x164>
    5269: 18           	clc
    526a: 65 05        	adc	$5                      ; 0x5 <__rc3>
    526c: 85 05        	sta	$5                      ; 0x5 <__rc3>
    526e: a5 07        	lda	$7                      ; 0x7 <__rc5>
    5270: 65 04        	adc	$4                      ; 0x4 <__rc2>
    5272: 85 04        	sta	$4                      ; 0x4 <__rc2>
    5274: 8a           	txa
    5275: 18           	clc
    5276: 65 05        	adc	$5                      ; 0x5 <__rc3>
    5278: aa           	tax
    5279: 98           	tya
    527a: 65 04        	adc	$4                      ; 0x4 <__rc2>
    527c: 86 04        	stx	$4                      ; 0x4 <__rc2>
    527e: 85 05        	sta	$5                      ; 0x5 <__rc3>
    5280: a0 04        	ldy	#$4
    5282: b1 04        	lda	($4),y                  ; 0x4 <__rc2>
    5284: 85 49        	sta	$49                     ; 0x49 <__rc31+0x28>
    5286: a5 06        	lda	$6                      ; 0x6 <__rc4>
    5288: 18           	clc
    5289: 69 e8        	adc	#$e8
    528b: 80 22        	bra	$52af <isallocatedBAMtracksector+0x186>
    528d: 18           	clc
    528e: 65 05        	adc	$5                      ; 0x5 <__rc3>
    5290: 85 05        	sta	$5                      ; 0x5 <__rc3>
    5292: a5 07        	lda	$7                      ; 0x7 <__rc5>
    5294: 65 04        	adc	$4                      ; 0x4 <__rc2>
    5296: 85 04        	sta	$4                      ; 0x4 <__rc2>
    5298: 8a           	txa
    5299: 18           	clc
    529a: 65 05        	adc	$5                      ; 0x5 <__rc3>
    529c: aa           	tax
    529d: 98           	tya
    529e: 65 04        	adc	$4                      ; 0x4 <__rc2>
    52a0: 86 04        	stx	$4                      ; 0x4 <__rc2>
    52a2: 85 05        	sta	$5                      ; 0x5 <__rc3>
    52a4: a0 05        	ldy	#$5
    52a6: b1 04        	lda	($4),y                  ; 0x4 <__rc2>
    52a8: 85 49        	sta	$49                     ; 0x49 <__rc31+0x28>
    52aa: a5 06        	lda	$6                      ; 0x6 <__rc4>
    52ac: 18           	clc
    52ad: 69 e0        	adc	#$e0
    52af: a2 00        	ldx	#$0
    52b1: 85 04        	sta	$4                      ; 0x4 <__rc2>
    52b3: a9 01        	lda	#$1
    52b5: 20 3e 6b     	jsr	$6b3e <__ashlhi3>
    52b8: a6 49        	ldx	$49                     ; 0x49 <__rc31+0x28>
    52ba: 86 04        	stx	$4                      ; 0x4 <__rc2>
    52bc: 25 04        	and	$4                      ; 0x4 <__rc2>
    52be: a2 01        	ldx	#$1
    52c0: a8           	tay
    52c1: f0 03        	beq	$52c6 <isallocatedBAMtracksector+0x19d>
    52c3: 4c 33 52     	jmp	$5233 <isallocatedBAMtracksector+0x10a>
    52c6: 4c 35 52     	jmp	$5235 <isallocatedBAMtracksector+0x10c>

000052c9 <findnextBAMtracksector>:
    52c9: 85 4d        	sta	$4d                     ; 0x4d <__rc31+0x2c>
    52cb: a6 04        	ldx	$4                      ; 0x4 <__rc2>
    52cd: 86 49        	stx	$49                     ; 0x49 <__rc31+0x28>
    52cf: a6 05        	ldx	$5                      ; 0x5 <__rc3>
    52d1: 86 4a        	stx	$4a                     ; 0x4a <__rc31+0x29>
    52d3: a6 06        	ldx	$6                      ; 0x6 <__rc4>
    52d5: 86 4b        	stx	$4b                     ; 0x4b <__rc31+0x2a>
    52d7: a6 07        	ldx	$7                      ; 0x7 <__rc5>
    52d9: 86 4c        	stx	$4c                     ; 0x4c <__rc31+0x2b>
    52db: 64 4e        	stz	$4e                     ; 0x4e <__rc31+0x2d>
    52dd: a0 00        	ldy	#$0
    52df: c0 50        	cpy	#$50
    52e1: d0 03        	bne	$52e6 <findnextBAMtracksector+0x1d>
    52e3: 4c dc 53     	jmp	$53dc <findnextBAMtracksector+0x113>
    52e6: b9 87 7a     	lda	$7a87,y                 ; 0x7a87 <BAMsector+0x8>
    52e9: a6 4d        	ldx	$4d                     ; 0x4d <__rc31+0x2c>
    52eb: f0 01        	beq	$52ee <findnextBAMtracksector+0x25>
    52ed: 1a           	inc
    52ee: c9 50        	cmp	#$50
    52f0: a2 7f        	ldx	#$7f
    52f2: 86 04        	stx	$4                      ; 0x4 <__rc2>
    52f4: a2 7a        	ldx	#$7a
    52f6: 86 05        	stx	$5                      ; 0x5 <__rc3>
    52f8: 84 53        	sty	$53                     ; 0x53 <__rc31+0x32>
    52fa: 90 06        	bcc	$5302 <findnextBAMtracksector+0x39>
    52fc: 64 52        	stz	$52                     ; 0x52 <__rc31+0x31>
    52fe: a9 00        	lda	#$0
    5300: 80 15        	bra	$5317 <findnextBAMtracksector+0x4e>
    5302: c9 28        	cmp	#$28
    5304: b0 04        	bcs	$530a <findnextBAMtracksector+0x41>
    5306: 85 52        	sta	$52                     ; 0x52 <__rc31+0x31>
    5308: 80 0d        	bra	$5317 <findnextBAMtracksector+0x4e>
    530a: 18           	clc
    530b: 85 52        	sta	$52                     ; 0x52 <__rc31+0x31>
    530d: 69 d8        	adc	#$d8
    530f: a2 81        	ldx	#$81
    5311: 86 04        	stx	$4                      ; 0x4 <__rc2>
    5313: a2 7a        	ldx	#$7a
    5315: 86 05        	stx	$5                      ; 0x5 <__rc3>
    5317: 0a           	asl
    5318: 85 06        	sta	$6                      ; 0x6 <__rc4>
    531a: a9 00        	lda	#$0
    531c: 2a           	rol
    531d: 85 07        	sta	$7                      ; 0x7 <__rc5>
    531f: a5 06        	lda	$6                      ; 0x6 <__rc4>
    5321: 0a           	asl
    5322: aa           	tax
    5323: a5 07        	lda	$7                      ; 0x7 <__rc5>
    5325: 2a           	rol
    5326: a8           	tay
    5327: 18           	clc
    5328: 8a           	txa
    5329: 65 06        	adc	$6                      ; 0x6 <__rc4>
    532b: 85 06        	sta	$6                      ; 0x6 <__rc4>
    532d: 98           	tya
    532e: 65 07        	adc	$7                      ; 0x7 <__rc5>
    5330: aa           	tax
    5331: 18           	clc
    5332: a5 06        	lda	$6                      ; 0x6 <__rc4>
    5334: 72 04        	adc	($4),z                  ; 0x4 <__rc2>
    5336: 85 4f        	sta	$4f                     ; 0x4f <__rc31+0x2e>
    5338: a0 01        	ldy	#$1
    533a: 8a           	txa
    533b: 71 04        	adc	($4),y                  ; 0x4 <__rc2>
    533d: 85 50        	sta	$50                     ; 0x50 <__rc31+0x2f>
    533f: a2 00        	ldx	#$0
    5341: 4c 95 53     	jmp	$5395 <findnextBAMtracksector+0xcc>
    5344: e0 10        	cpx	#$10
    5346: b0 0f        	bcs	$5357 <findnextBAMtracksector+0x8e>
    5348: a0 12        	ldy	#$12
    534a: b1 4f        	lda	($4f),y                 ; 0x4f <__rc31+0x2e>
    534c: 85 51        	sta	$51                     ; 0x51 <__rc31+0x30>
    534e: 18           	clc
    534f: 86 54        	stx	$54                     ; 0x54 <__rc31+0x33>
    5351: 8a           	txa
    5352: 69 f8        	adc	#$f8
    5354: 4c 85 53     	jmp	$5385 <findnextBAMtracksector+0xbc>
    5357: e0 18        	cpx	#$18
    5359: b0 0e        	bcs	$5369 <findnextBAMtracksector+0xa0>
    535b: a0 13        	ldy	#$13
    535d: b1 4f        	lda	($4f),y                 ; 0x4f <__rc31+0x2e>
    535f: 85 51        	sta	$51                     ; 0x51 <__rc31+0x30>
    5361: 18           	clc
    5362: 86 54        	stx	$54                     ; 0x54 <__rc31+0x33>
    5364: 8a           	txa
    5365: 69 f0        	adc	#$f0
    5367: 80 1c        	bra	$5385 <findnextBAMtracksector+0xbc>
    5369: e0 20        	cpx	#$20
    536b: 86 54        	stx	$54                     ; 0x54 <__rc31+0x33>
    536d: b0 0c        	bcs	$537b <findnextBAMtracksector+0xb2>
    536f: a0 14        	ldy	#$14
    5371: b1 4f        	lda	($4f),y                 ; 0x4f <__rc31+0x2e>
    5373: 85 51        	sta	$51                     ; 0x51 <__rc31+0x30>
    5375: 18           	clc
    5376: 8a           	txa
    5377: 69 e8        	adc	#$e8
    5379: 80 0a        	bra	$5385 <findnextBAMtracksector+0xbc>
    537b: a0 15        	ldy	#$15
    537d: b1 4f        	lda	($4f),y                 ; 0x4f <__rc31+0x2e>
    537f: 85 51        	sta	$51                     ; 0x51 <__rc31+0x30>
    5381: 18           	clc
    5382: 8a           	txa
    5383: 69 e0        	adc	#$e0
    5385: 85 04        	sta	$4                      ; 0x4 <__rc2>
    5387: a2 00        	ldx	#$0
    5389: a9 01        	lda	#$1
    538b: 20 3e 6b     	jsr	$6b3e <__ashlhi3>
    538e: 25 51        	and	$51                     ; 0x51 <__rc31+0x30>
    5390: d0 20        	bne	$53b2 <findnextBAMtracksector+0xe9>
    5392: a6 54        	ldx	$54                     ; 0x54 <__rc31+0x33>
    5394: e8           	inx
    5395: e0 28        	cpx	#$28
    5397: f0 13        	beq	$53ac <findnextBAMtracksector+0xe3>
    5399: e0 08        	cpx	#$8
    539b: 90 03        	bcc	$53a0 <findnextBAMtracksector+0xd7>
    539d: 4c 44 53     	jmp	$5344 <findnextBAMtracksector+0x7b>
    53a0: a0 11        	ldy	#$11
    53a2: 86 04        	stx	$4                      ; 0x4 <__rc2>
    53a4: b1 4f        	lda	($4f),y                 ; 0x4f <__rc31+0x2e>
    53a6: 85 51        	sta	$51                     ; 0x51 <__rc31+0x30>
    53a8: 86 54        	stx	$54                     ; 0x54 <__rc31+0x33>
    53aa: 80 db        	bra	$5387 <findnextBAMtracksector+0xbe>
    53ac: a4 53        	ldy	$53                     ; 0x53 <__rc31+0x32>
    53ae: c8           	iny
    53af: 4c df 52     	jmp	$52df <findnextBAMtracksector+0x16>
    53b2: a2 01        	ldx	#$1
    53b4: a4 52        	ldy	$52                     ; 0x52 <__rc31+0x31>
    53b6: 84 4d        	sty	$4d                     ; 0x4d <__rc31+0x2c>
    53b8: e6 4d        	inc	$4d                     ; 0x4d <__rc31+0x2c>
    53ba: a0 00        	ldy	#$0
    53bc: 84 04        	sty	$4                      ; 0x4 <__rc2>
    53be: a0 16        	ldy	#$16
    53c0: 84 05        	sty	$5                      ; 0x5 <__rc3>
    53c2: a0 00        	ldy	#$0
    53c4: 84 06        	sty	$6                      ; 0x6 <__rc4>
    53c6: a0 17        	ldy	#$17
    53c8: 84 07        	sty	$7                      ; 0x7 <__rc5>
    53ca: 86 08        	stx	$8                      ; 0x8 <__rc6>
    53cc: a6 54        	ldx	$54                     ; 0x54 <__rc31+0x33>
    53ce: a5 4d        	lda	$4d                     ; 0x4d <__rc31+0x2c>
    53d0: 20 27 4e     	jsr	$4e27 <BAMSectorUpdate>
    53d3: a5 4d        	lda	$4d                     ; 0x4d <__rc31+0x2c>
    53d5: 92 49        	sta	($49),z                 ; 0x49 <__rc31+0x28>
    53d7: a5 54        	lda	$54                     ; 0x54 <__rc31+0x33>
    53d9: 92 4b        	sta	($4b),z                 ; 0x4b <__rc31+0x2a>
    53db: 60           	rts
    53dc: a9 ff        	lda	#$ff
    53de: 64 54        	stz	$54                     ; 0x54 <__rc31+0x33>
    53e0: 80 f3        	bra	$53d5 <findnextBAMtracksector+0x10c>

000053e2 <tracksectorstring>:
    53e2: 86 4b        	stx	$4b                     ; 0x4b <__rc31+0x2a>
    53e4: a2 54        	ldx	#$54
    53e6: 8e 08 7b     	stx	$7b08                   ; 0x7b08 <s>
    53e9: a2 72        	ldx	#$72
    53eb: 8e 09 7b     	stx	$7b09                   ; 0x7b09 <s+0x1>
    53ee: a2 61        	ldx	#$61
    53f0: 8e 0a 7b     	stx	$7b0a                   ; 0x7b0a <s+0x2>
    53f3: a2 63        	ldx	#$63
    53f5: 8e 0b 7b     	stx	$7b0b                   ; 0x7b0b <s+0x3>
    53f8: a2 6b        	ldx	#$6b
    53fa: 8e 0c 7b     	stx	$7b0c                   ; 0x7b0c <s+0x4>
    53fd: a2 3a        	ldx	#$3a
    53ff: 8e 0d 7b     	stx	$7b0d                   ; 0x7b0d <s+0x5>
    5402: a2 20        	ldx	#$20
    5404: 8e 0e 7b     	stx	$7b0e                   ; 0x7b0e <s+0x6>
    5407: a2 4a        	ldx	#$4a
    5409: a0 00        	ldy	#$0
    540b: 86 04        	stx	$4                      ; 0x4 <__rc2>
    540d: 84 05        	sty	$5                      ; 0x5 <__rc3>
    540f: a2 0a        	ldx	#$a
    5411: 20 89 6c     	jsr	$6c89 <__udivmodqi4>
    5414: 18           	clc
    5415: 69 30        	adc	#$30
    5417: aa           	tax
    5418: a5 4a        	lda	$4a                     ; 0x4a <__rc31+0x29>
    541a: 8e 0f 7b     	stx	$7b0f                   ; 0x7b0f <s+0x7>
    541d: 09 30        	ora	#$30
    541f: 8d 10 7b     	sta	$7b10                   ; 0x7b10 <s+0x8>
    5422: a2 53        	ldx	#$53
    5424: 8e 12 7b     	stx	$7b12                   ; 0x7b12 <s+0xa>
    5427: a2 65        	ldx	#$65
    5429: 8e 13 7b     	stx	$7b13                   ; 0x7b13 <s+0xb>
    542c: a2 63        	ldx	#$63
    542e: 8e 14 7b     	stx	$7b14                   ; 0x7b14 <s+0xc>
    5431: a2 74        	ldx	#$74
    5433: 8e 15 7b     	stx	$7b15                   ; 0x7b15 <s+0xd>
    5436: a2 6f        	ldx	#$6f
    5438: 8e 16 7b     	stx	$7b16                   ; 0x7b16 <s+0xe>
    543b: a2 72        	ldx	#$72
    543d: 8e 17 7b     	stx	$7b17                   ; 0x7b17 <s+0xf>
    5440: a2 3a        	ldx	#$3a
    5442: 8e 18 7b     	stx	$7b18                   ; 0x7b18 <s+0x10>
    5445: a2 20        	ldx	#$20
    5447: 8e 11 7b     	stx	$7b11                   ; 0x7b11 <s+0x9>
    544a: 8e 19 7b     	stx	$7b19                   ; 0x7b19 <s+0x11>
    544d: a2 49        	ldx	#$49
    544f: a0 00        	ldy	#$0
    5451: 86 04        	stx	$4                      ; 0x4 <__rc2>
    5453: 84 05        	sty	$5                      ; 0x5 <__rc3>
    5455: a2 0a        	ldx	#$a
    5457: a5 4b        	lda	$4b                     ; 0x4b <__rc31+0x2a>
    5459: 20 89 6c     	jsr	$6c89 <__udivmodqi4>
    545c: a6 49        	ldx	$49                     ; 0x49 <__rc31+0x28>
    545e: 18           	clc
    545f: 69 30        	adc	#$30
    5461: 8d 1a 7b     	sta	$7b1a                   ; 0x7b1a <s+0x12>
    5464: 8a           	txa
    5465: 09 30        	ora	#$30
    5467: 8d 1b 7b     	sta	$7b1b                   ; 0x7b1b <s+0x13>
    546a: 9c 1c 7b     	stz	$7b1c                   ; 0x7b1c <s+0x14>
    546d: 60           	rts

0000546e <getdirententry>:
    546e: 86 55        	stx	$55                     ; 0x55 <__rc31+0x34>
    5470: 0a           	asl
    5471: 85 04        	sta	$4                      ; 0x4 <__rc2>
    5473: a0 00        	ldy	#$0
    5475: 98           	tya
    5476: 2a           	rol
    5477: 85 05        	sta	$5                      ; 0x5 <__rc3>
    5479: 98           	tya
    547a: 2a           	rol
    547b: 85 06        	sta	$6                      ; 0x6 <__rc4>
    547d: a5 04        	lda	$4                      ; 0x4 <__rc2>
    547f: 0a           	asl
    5480: aa           	tax
    5481: a5 05        	lda	$5                      ; 0x5 <__rc3>
    5483: 2a           	rol
    5484: 85 09        	sta	$9                      ; 0x9 <__rc7>
    5486: a5 06        	lda	$6                      ; 0x6 <__rc4>
    5488: 85 08        	sta	$8                      ; 0x8 <__rc6>
    548a: 26 08        	rol	$8                      ; 0x8 <__rc6>
    548c: 8a           	txa
    548d: 0a           	asl
    548e: 26 09        	rol	$9                      ; 0x9 <__rc7>
    5490: 26 08        	rol	$8                      ; 0x8 <__rc6>
    5492: 0a           	asl
    5493: 26 09        	rol	$9                      ; 0x9 <__rc7>
    5495: 26 08        	rol	$8                      ; 0x8 <__rc6>
    5497: 38           	sec
    5498: e5 04        	sbc	$4                      ; 0x4 <__rc2>
    549a: 85 56        	sta	$56                     ; 0x56 <__rc31+0x35>
    549c: a5 09        	lda	$9                      ; 0x9 <__rc7>
    549e: e5 05        	sbc	$5                      ; 0x5 <__rc3>
    54a0: 85 57        	sta	$57                     ; 0x57 <__rc31+0x36>
    54a2: a5 08        	lda	$8                      ; 0x8 <__rc6>
    54a4: e5 06        	sbc	$6                      ; 0x6 <__rc4>
    54a6: a2 08        	ldx	#$8
    54a8: 86 5c        	stx	$5c                     ; 0x5c <__rc31+0x3b>
    54aa: 09 08        	ora	#$8
    54ac: 85 58        	sta	$58                     ; 0x58 <__rc31+0x37>
    54ae: 98           	tya
    54af: 64 5a        	stz	$5a                     ; 0x5a <__rc31+0x39>
    54b1: aa           	tax
    54b2: 86 04        	stx	$4                      ; 0x4 <__rc2>
    54b4: c4 04        	cpy	$4                      ; 0x4 <__rc2>
    54b6: d0 0a        	bne	$54c2 <getdirententry+0x54>
    54b8: 86 5b        	stx	$5b                     ; 0x5b <__rc31+0x3a>
    54ba: a6 5c        	ldx	$5c                     ; 0x5c <__rc31+0x3b>
    54bc: 86 04        	stx	$4                      ; 0x4 <__rc2>
    54be: c5 04        	cmp	$4                      ; 0x4 <__rc2>
    54c0: 80 06        	bra	$54c8 <getdirententry+0x5a>
    54c2: 86 5b        	stx	$5b                     ; 0x5b <__rc31+0x3a>
    54c4: 86 04        	stx	$4                      ; 0x4 <__rc2>
    54c6: c4 04        	cpy	$4                      ; 0x4 <__rc2>
    54c8: a2 00        	ldx	#$0
    54ca: 86 04        	stx	$4                      ; 0x4 <__rc2>
    54cc: a2 00        	ldx	#$0
    54ce: 86 05        	stx	$5                      ; 0x5 <__rc3>
    54d0: 90 03        	bcc	$54d5 <getdirententry+0x67>
    54d2: 4c 4f 55     	jmp	$554f <getdirententry+0xe1>
    54d5: 85 59        	sta	$59                     ; 0x59 <__rc31+0x38>
    54d7: 4a           	lsr
    54d8: 64 04        	stz	$4                      ; 0x4 <__rc2>
    54da: 66 04        	ror	$4                      ; 0x4 <__rc2>
    54dc: 4a           	lsr
    54dd: 66 04        	ror	$4                      ; 0x4 <__rc2>
    54df: 4a           	lsr
    54e0: 85 05        	sta	$5                      ; 0x5 <__rc3>
    54e2: 66 04        	ror	$4                      ; 0x4 <__rc2>
    54e4: a9 00        	lda	#$0
    54e6: 18           	clc
    54e7: 65 04        	adc	$4                      ; 0x4 <__rc2>
    54e9: 85 0c        	sta	$c                      ; 0xc <__rc10>
    54eb: a5 56        	lda	$56                     ; 0x56 <__rc31+0x35>
    54ed: 65 05        	adc	$5                      ; 0x5 <__rc3>
    54ef: 85 0d        	sta	$d                      ; 0xd <__rc11>
    54f1: a5 57        	lda	$57                     ; 0x57 <__rc31+0x36>
    54f3: 69 00        	adc	#$0
    54f5: 85 04        	sta	$4                      ; 0x4 <__rc2>
    54f7: a5 58        	lda	$58                     ; 0x58 <__rc31+0x37>
    54f9: 69 00        	adc	#$0
    54fb: 85 05        	sta	$5                      ; 0x5 <__rc3>
    54fd: a2 c0        	ldx	#$c0
    54ff: 86 06        	stx	$6                      ; 0x6 <__rc4>
    5501: a2 1a        	ldx	#$1a
    5503: 86 07        	stx	$7                      ; 0x7 <__rc5>
    5505: 64 08        	stz	$8                      ; 0x8 <__rc6>
    5507: 64 09        	stz	$9                      ; 0x9 <__rc7>
    5509: a2 20        	ldx	#$20
    550b: 86 0a        	stx	$a                      ; 0xa <__zp_data_size>
    550d: 64 0b        	stz	$b                      ; 0xb <__rc9>
    550f: a6 0d        	ldx	$d                      ; 0xd <__rc11>
    5511: a5 0c        	lda	$c                      ; 0xc <__rc10>
    5513: 20 a6 69     	jsr	$69a6 <lcopy>
    5516: ae c0 1a     	ldx	$1ac0                   ; 0x1ac0 <__heap_default_limit+0xac0>
    5519: f0 0d        	beq	$5528 <getdirententry+0xba>
    551b: 18           	clc
    551c: a5 5c        	lda	$5c                     ; 0x5c <__rc31+0x3b>
    551e: 69 08        	adc	#$8
    5520: 85 5c        	sta	$5c                     ; 0x5c <__rc31+0x3b>
    5522: a5 5b        	lda	$5b                     ; 0x5b <__rc31+0x3a>
    5524: 69 00        	adc	#$0
    5526: 85 5b        	sta	$5b                     ; 0x5b <__rc31+0x3a>
    5528: ae c2 1a     	ldx	$1ac2                   ; 0x1ac2 <__heap_default_limit+0xac2>
    552b: a0 00        	ldy	#$0
    552d: 8a           	txa
    552e: d0 06        	bne	$5536 <getdirententry+0xc8>
    5530: a9 01        	lda	#$1
    5532: 25 30        	and	$30                     ; 0x30 <option.0>
    5534: f0 09        	beq	$553f <getdirententry+0xd1>
    5536: a6 5a        	ldx	$5a                     ; 0x5a <__rc31+0x39>
    5538: e4 55        	cpx	$55                     ; 0x55 <__rc31+0x34>
    553a: f0 0b        	beq	$5547 <getdirententry+0xd9>
    553c: e8           	inx
    553d: 86 5a        	stx	$5a                     ; 0x5a <__rc31+0x39>
    553f: a5 59        	lda	$59                     ; 0x59 <__rc31+0x38>
    5541: 1a           	inc
    5542: a6 5b        	ldx	$5b                     ; 0x5b <__rc31+0x3a>
    5544: 4c b2 54     	jmp	$54b2 <getdirententry+0x44>
    5547: a2 c0        	ldx	#$c0
    5549: 86 04        	stx	$4                      ; 0x4 <__rc2>
    554b: a2 1a        	ldx	#$1a
    554d: 86 05        	stx	$5                      ; 0x5 <__rc3>
    554f: 60           	rts

00005550 <strcopy>:
    5550: a0 00        	ldy	#$0
    5552: 80 03        	bra	$5557 <strcopy+0x7>
    5554: 91 06        	sta	($6),y                  ; 0x6 <__rc4>
    5556: c8           	iny
    5557: b1 04        	lda	($4),y                  ; 0x4 <__rc2>
    5559: f0 04        	beq	$555f <strcopy+0xf>
    555b: c0 10        	cpy	#$10
    555d: 90 f5        	bcc	$5554 <strcopy+0x4>
    555f: a9 00        	lda	#$0
    5561: 91 06        	sta	($6),y                  ; 0x6 <__rc4>
    5563: 60           	rts

00005564 <csputdec>:
    5564: 86 07        	stx	$7                      ; 0x7 <__rc5>
    5566: a6 06        	ldx	$6                      ; 0x6 <__rc4>
    5568: 86 61        	stx	$61                     ; 0x61 <__rc31+0x40>
    556a: a6 04        	ldx	$4                      ; 0x4 <__rc2>
    556c: 86 67        	stx	$67                     ; 0x67 <__rc31+0x46>
    556e: a6 05        	ldx	$5                      ; 0x5 <__rc3>
    5570: 86 68        	stx	$68                     ; 0x68 <__rc31+0x47>
    5572: 64 74        	stz	$74                     ; 0x74 <__rc31+0x53>
    5574: a0 09        	ldy	#$9
    5576: a2 75        	ldx	#$75
    5578: 86 63        	stx	$63                     ; 0x63 <__rc31+0x42>
    557a: a2 00        	ldx	#$0
    557c: 86 64        	stx	$64                     ; 0x64 <__rc31+0x43>
    557e: a6 07        	ldx	$7                      ; 0x7 <__rc5>
    5580: 84 69        	sty	$69                     ; 0x69 <__rc31+0x48>
    5582: 48           	pha
    5583: a5 63        	lda	$63                     ; 0x63 <__rc31+0x42>
    5585: 85 0a        	sta	$a                      ; 0xa <__zp_data_size>
    5587: a5 64        	lda	$64                     ; 0x64 <__rc31+0x43>
    5589: 85 0b        	sta	$b                      ; 0xb <__rc9>
    558b: 68           	pla
    558c: 84 62        	sty	$62                     ; 0x62 <__rc31+0x41>
    558e: a0 0a        	ldy	#$a
    5590: 84 06        	sty	$6                      ; 0x6 <__rc4>
    5592: 64 07        	stz	$7                      ; 0x7 <__rc5>
    5594: 64 08        	stz	$8                      ; 0x8 <__rc6>
    5596: 64 09        	stz	$9                      ; 0x9 <__rc7>
    5598: 86 66        	stx	$66                     ; 0x66 <__rc31+0x45>
    559a: 85 65        	sta	$65                     ; 0x65 <__rc31+0x44>
    559c: 20 21 6e     	jsr	$6e21 <__udivmodsi4>
    559f: 85 07        	sta	$7                      ; 0x7 <__rc5>
    55a1: a9 30        	lda	#$30
    55a3: 05 75        	ora	$75                     ; 0x75 <__rc31+0x54>
    55a5: c6 62        	dec	$62                     ; 0x62 <__rc31+0x41>
    55a7: a4 69        	ldy	$69                     ; 0x69 <__rc31+0x48>
    55a9: 99 6a 00     	sta	$6a,y                   ; 0x6a <__rc31+0x49>
    55ac: a5 68        	lda	$68                     ; 0x68 <__rc31+0x47>
    55ae: d0 0e        	bne	$55be <csputdec+0x5a>
    55b0: a5 67        	lda	$67                     ; 0x67 <__rc31+0x46>
    55b2: d0 0e        	bne	$55c2 <csputdec+0x5e>
    55b4: a5 66        	lda	$66                     ; 0x66 <__rc31+0x45>
    55b6: d0 0e        	bne	$55c6 <csputdec+0x62>
    55b8: a4 65        	ldy	$65                     ; 0x65 <__rc31+0x44>
    55ba: c0 0a        	cpy	#$a
    55bc: 80 0c        	bra	$55ca <csputdec+0x66>
    55be: a4 68        	ldy	$68                     ; 0x68 <__rc31+0x47>
    55c0: 80 06        	bra	$55c8 <csputdec+0x64>
    55c2: a4 67        	ldy	$67                     ; 0x67 <__rc31+0x46>
    55c4: 80 02        	bra	$55c8 <csputdec+0x64>
    55c6: a4 66        	ldy	$66                     ; 0x66 <__rc31+0x45>
    55c8: c0 00        	cpy	#$0
    55ca: a5 07        	lda	$7                      ; 0x7 <__rc5>
    55cc: a4 04        	ldy	$4                      ; 0x4 <__rc2>
    55ce: 84 67        	sty	$67                     ; 0x67 <__rc31+0x46>
    55d0: a4 05        	ldy	$5                      ; 0x5 <__rc3>
    55d2: 84 68        	sty	$68                     ; 0x68 <__rc31+0x47>
    55d4: a4 62        	ldy	$62                     ; 0x62 <__rc31+0x41>
    55d6: 90 03        	bcc	$55db <csputdec+0x77>
    55d8: 4c 80 55     	jmp	$5580 <csputdec+0x1c>
    55db: 38           	sec
    55dc: a9 0a        	lda	#$a
    55de: e5 61        	sbc	$61                     ; 0x61 <__rc31+0x40>
    55e0: 85 05        	sta	$5                      ; 0x5 <__rc3>
    55e2: a9 00        	lda	#$0
    55e4: e9 00        	sbc	#$0
    55e6: 85 06        	sta	$6                      ; 0x6 <__rc4>
    55e8: 80 1d        	bra	$5607 <csputdec+0xa3>
    55ea: c9 00        	cmp	#$0
    55ec: a9 00        	lda	#$0
    55ee: b0 02        	bcs	$55f2 <csputdec+0x8e>
    55f0: a9 01        	lda	#$1
    55f2: c0 00        	cpy	#$0
    55f4: f0 04        	beq	$55fa <csputdec+0x96>
    55f6: 29 01        	and	#$1
    55f8: 80 02        	bra	$55fc <csputdec+0x98>
    55fa: a9 00        	lda	#$0
    55fc: aa           	tax
    55fd: f0 13        	beq	$5612 <csputdec+0xae>
    55ff: a9 20        	lda	#$20
    5601: 99 6a 00     	sta	$6a,y                   ; 0x6a <__rc31+0x49>
    5604: 88           	dey
    5605: a5 06        	lda	$6                      ; 0x6 <__rc4>
    5607: aa           	tax
    5608: d0 e0        	bne	$55ea <csputdec+0x86>
    560a: 84 04        	sty	$4                      ; 0x4 <__rc2>
    560c: a6 05        	ldx	$5                      ; 0x5 <__rc3>
    560e: e4 04        	cpx	$4                      ; 0x4 <__rc2>
    5610: 80 da        	bra	$55ec <csputdec+0x88>
    5612: a9 6a        	lda	#$6a
    5614: 18           	clc
    5615: 84 04        	sty	$4                      ; 0x4 <__rc2>
    5617: 65 04        	adc	$4                      ; 0x4 <__rc2>
    5619: 85 04        	sta	$4                      ; 0x4 <__rc2>
    561b: a9 00        	lda	#$0
    561d: 69 00        	adc	#$0
    561f: 85 05        	sta	$5                      ; 0x5 <__rc3>
    5621: e6 04        	inc	$4                      ; 0x4 <__rc2>
    5623: d0 02        	bne	$5627 <csputdec+0xc3>
    5625: e6 05        	inc	$5                      ; 0x5 <__rc3>
    5627: 4c ea 67     	jmp	$67ea <cputs>

0000562a <asciitoscreencode_s>:
    562a: a2 34        	ldx	#$34
    562c: 86 06        	stx	$6                      ; 0x6 <__rc4>
    562e: a2 03        	ldx	#$3
    5630: 86 07        	stx	$7                      ; 0x7 <__rc5>
    5632: b2 04        	lda	($4),z                  ; 0x4 <__rc2>
    5634: e6 04        	inc	$4                      ; 0x4 <__rc2>
    5636: d0 02        	bne	$563a <asciitoscreencode_s+0x10>
    5638: e6 05        	inc	$5                      ; 0x5 <__rc3>
    563a: a0 20        	ldy	#$20
    563c: c9 a0        	cmp	#$a0
    563e: f0 11        	beq	$5651 <asciitoscreencode_s+0x27>
    5640: aa           	tax
    5641: e0 c0        	cpx	#$c0
    5643: 90 04        	bcc	$5649 <asciitoscreencode_s+0x1f>
    5645: 29 7f        	and	#$7f
    5647: 80 07        	bra	$5650 <asciitoscreencode_s+0x26>
    5649: c9 60        	cmp	#$60
    564b: 90 12        	bcc	$565f <asciitoscreencode_s+0x35>
    564d: 18           	clc
    564e: 69 a0        	adc	#$a0
    5650: a8           	tay
    5651: 98           	tya
    5652: 92 06        	sta	($6),z                  ; 0x6 <__rc4>
    5654: e6 06        	inc	$6                      ; 0x6 <__rc4>
    5656: d0 02        	bne	$565a <asciitoscreencode_s+0x30>
    5658: e6 07        	inc	$7                      ; 0x7 <__rc5>
    565a: 98           	tya
    565b: d0 d5        	bne	$5632 <asciitoscreencode_s+0x8>
    565d: 80 0d        	bra	$566c <asciitoscreencode_s+0x42>
    565f: a8           	tay
    5660: 18           	clc
    5661: 69 a5        	adc	#$a5
    5663: c9 05        	cmp	#$5
    5665: b0 ea        	bcs	$5651 <asciitoscreencode_s+0x27>
    5667: aa           	tax
    5668: b4 22        	ldy	$22,x                   ; 0x22 <__zp_data_start>
    566a: 80 e5        	bra	$5651 <asciitoscreencode_s+0x27>
    566c: ae 34 03     	ldx	$334                    ; 0x334 <__basic_zp_end+0x2a4>
    566f: f0 01        	beq	$5672 <asciitoscreencode_s+0x48>
    5671: 60           	rts
    5672: a2 20        	ldx	#$20
    5674: 8e 34 03     	stx	$334                    ; 0x334 <__basic_zp_end+0x2a4>
    5677: 9c 35 03     	stz	$335                    ; 0x335 <__basic_zp_end+0x2a5>
    567a: 60           	rts

0000567b <clrhome>:
    567b: a6 31        	ldx	$31                     ; 0x31 <g_curScreenW>
    567d: a5 32        	lda	$32                     ; 0x32 <g_curScreenH>
    567f: 86 04        	stx	$4                      ; 0x4 <__rc2>
    5681: 64 05        	stz	$5                      ; 0x5 <__rc3>
    5683: a2 00        	ldx	#$0
    5685: 20 51 6b     	jsr	$6b51 <__mulhi3>
    5688: a8           	tay
    5689: ad 54 d0     	lda	$d054                   ; 0xd054 <__heap_start+0x50bc>
    568c: 29 01        	and	#$1
    568e: 85 04        	sta	$4                      ; 0x4 <__rc2>
    5690: 98           	tya
    5691: 20 3e 6b     	jsr	$6b3e <__ashlhi3>
    5694: 85 07        	sta	$7                      ; 0x7 <__rc5>
    5696: 85 49        	sta	$49                     ; 0x49 <__rc31+0x28>
    5698: 86 08        	stx	$8                      ; 0x8 <__rc6>
    569a: 86 4a        	stx	$4a                     ; 0x4a <__rc31+0x29>
    569c: ad 63 d0     	lda	$d063                   ; 0xd063 <__heap_start+0x50cb>
    569f: 29 07        	and	#$7
    56a1: ae 62 d0     	ldx	$d062                   ; 0xd062 <__heap_start+0x50ca>
    56a4: ac 61 d0     	ldy	$d061                   ; 0xd061 <__heap_start+0x50c9>
    56a7: 84 09        	sty	$9                      ; 0x9 <__rc7>
    56a9: ac 60 d0     	ldy	$d060                   ; 0xd060 <__heap_start+0x50c8>
    56ac: 86 04        	stx	$4                      ; 0x4 <__rc2>
    56ae: 85 05        	sta	$5                      ; 0x5 <__rc3>
    56b0: a2 20        	ldx	#$20
    56b2: 86 06        	stx	$6                      ; 0x6 <__rc4>
    56b4: a6 09        	ldx	$9                      ; 0x9 <__rc7>
    56b6: 98           	tya
    56b7: 20 0d 6a     	jsr	$6a0d <lfill>
    56ba: a6 2b        	ldx	$2b                     ; 0x2b <g_curTextColor>
    56bc: a0 f8        	ldy	#$f8
    56be: a9 0f        	lda	#$f
    56c0: 84 04        	sty	$4                      ; 0x4 <__rc2>
    56c2: 85 05        	sta	$5                      ; 0x5 <__rc3>
    56c4: 86 06        	stx	$6                      ; 0x6 <__rc4>
    56c6: a6 49        	ldx	$49                     ; 0x49 <__rc31+0x28>
    56c8: 86 07        	stx	$7                      ; 0x7 <__rc5>
    56ca: a6 4a        	ldx	$4a                     ; 0x4a <__rc31+0x29>
    56cc: 86 08        	stx	$8                      ; 0x8 <__rc6>
    56ce: a2 00        	ldx	#$0
    56d0: 8a           	txa
    56d1: 20 0d 6a     	jsr	$6a0d <lfill>
    56d4: 64 33        	stz	$33                     ; 0x33 <g_curX>
    56d6: 64 34        	stz	$34                     ; 0x34 <g_curY>
    56d8: 60           	rts

000056d9 <msprintf>:
    56d9: 20 2a 56     	jsr	$562a <asciitoscreencode_s>
    56dc: a2 34        	ldx	#$34
    56de: 86 04        	stx	$4                      ; 0x4 <__rc2>
    56e0: a2 03        	ldx	#$3
    56e2: 86 05        	stx	$5                      ; 0x5 <__rc3>
    56e4: 4c ea 67     	jmp	$67ea <cputs>

000056e7 <mcputsxy>:
    56e7: 85 67        	sta	$67                     ; 0x67 <__rc31+0x46>
    56e9: 86 68        	stx	$68                     ; 0x68 <__rc31+0x47>
    56eb: 20 2a 56     	jsr	$562a <asciitoscreencode_s>
    56ee: a2 34        	ldx	#$34
    56f0: 86 04        	stx	$4                      ; 0x4 <__rc2>
    56f2: a2 03        	ldx	#$3
    56f4: 86 05        	stx	$5                      ; 0x5 <__rc3>
    56f6: a6 68        	ldx	$68                     ; 0x68 <__rc31+0x47>
    56f8: a5 67        	lda	$67                     ; 0x67 <__rc31+0x46>
    56fa: 4c f1 67     	jmp	$67f1 <cputsxy>

000056fd <mcbox>:
    56fd: a8           	tay
    56fe: 86 69        	stx	$69                     ; 0x69 <__rc31+0x48>
    5700: a6 06        	ldx	$6                      ; 0x6 <__rc4>
    5702: 86 6d        	stx	$6d                     ; 0x6d <__rc31+0x4c>
    5704: a6 04        	ldx	$4                      ; 0x4 <__rc2>
    5706: 38           	sec
    5707: 85 04        	sta	$4                      ; 0x4 <__rc2>
    5709: 8a           	txa
    570a: e5 04        	sbc	$4                      ; 0x4 <__rc2>
    570c: 85 67        	sta	$67                     ; 0x67 <__rc31+0x46>
    570e: a9 f0        	lda	#$f0
    5710: 25 2b        	and	$2b                     ; 0x2b <g_curTextColor>
    5712: 09 03        	ora	#$3
    5714: 85 2b        	sta	$2b                     ; 0x2b <g_curTextColor>
    5716: 84 6e        	sty	$6e                     ; 0x6e <__rc31+0x4d>
    5718: 84 6b        	sty	$6b                     ; 0x6b <__rc31+0x4a>
    571a: a5 69        	lda	$69                     ; 0x69 <__rc31+0x48>
    571c: 85 6f        	sta	$6f                     ; 0x6f <__rc31+0x4e>
    571e: 86 70        	stx	$70                     ; 0x70 <__rc31+0x4f>
    5720: 86 68        	stx	$68                     ; 0x68 <__rc31+0x47>
    5722: a6 05        	ldx	$5                      ; 0x5 <__rc3>
    5724: 86 71        	stx	$71                     ; 0x71 <__rc31+0x50>
    5726: 86 6a        	stx	$6a                     ; 0x6a <__rc31+0x49>
    5728: a2 6e        	ldx	#$6e
    572a: a0 00        	ldy	#$0
    572c: 86 04        	stx	$4                      ; 0x4 <__rc2>
    572e: 84 05        	sty	$5                      ; 0x5 <__rc3>
    5730: 20 cc 68     	jsr	$68cc <fillrect>
    5733: a2 70        	ldx	#$70
    5735: 86 04        	stx	$4                      ; 0x4 <__rc2>
    5737: a6 69        	ldx	$69                     ; 0x69 <__rc31+0x48>
    5739: a5 6b        	lda	$6b                     ; 0x6b <__rc31+0x4a>
    573b: 20 49 67     	jsr	$6749 <cputcxy>
    573e: a2 6d        	ldx	#$6d
    5740: 86 04        	stx	$4                      ; 0x4 <__rc2>
    5742: a6 6a        	ldx	$6a                     ; 0x6a <__rc31+0x49>
    5744: a5 6b        	lda	$6b                     ; 0x6b <__rc31+0x4a>
    5746: 20 49 67     	jsr	$6749 <cputcxy>
    5749: a2 6e        	ldx	#$6e
    574b: 86 04        	stx	$4                      ; 0x4 <__rc2>
    574d: a6 69        	ldx	$69                     ; 0x69 <__rc31+0x48>
    574f: a5 68        	lda	$68                     ; 0x68 <__rc31+0x47>
    5751: 20 49 67     	jsr	$6749 <cputcxy>
    5754: a2 7d        	ldx	#$7d
    5756: 86 04        	stx	$4                      ; 0x4 <__rc2>
    5758: a6 6a        	ldx	$6a                     ; 0x6a <__rc31+0x49>
    575a: 86 6c        	stx	$6c                     ; 0x6c <__rc31+0x4b>
    575c: a4 68        	ldy	$68                     ; 0x68 <__rc31+0x47>
    575e: 84 6a        	sty	$6a                     ; 0x6a <__rc31+0x49>
    5760: a5 68        	lda	$68                     ; 0x68 <__rc31+0x47>
    5762: 20 49 67     	jsr	$6749 <cputcxy>
    5765: a5 67        	lda	$67                     ; 0x67 <__rc31+0x46>
    5767: c9 02        	cmp	#$2
    5769: a6 67        	ldx	$67                     ; 0x67 <__rc31+0x46>
    576b: 86 73        	stx	$73                     ; 0x73 <__rc31+0x52>
    576d: b0 02        	bcs	$5771 <mcbox+0x74>
    576f: a9 01        	lda	#$1
    5771: a6 6b        	ldx	$6b                     ; 0x6b <__rc31+0x4a>
    5773: 86 68        	stx	$68                     ; 0x68 <__rc31+0x47>
    5775: 80 1c        	bra	$5793 <mcbox+0x96>
    5777: e6 68        	inc	$68                     ; 0x68 <__rc31+0x47>
    5779: a2 40        	ldx	#$40
    577b: 86 04        	stx	$4                      ; 0x4 <__rc2>
    577d: a6 69        	ldx	$69                     ; 0x69 <__rc31+0x48>
    577f: 85 67        	sta	$67                     ; 0x67 <__rc31+0x46>
    5781: a5 68        	lda	$68                     ; 0x68 <__rc31+0x47>
    5783: 20 49 67     	jsr	$6749 <cputcxy>
    5786: a2 40        	ldx	#$40
    5788: 86 04        	stx	$4                      ; 0x4 <__rc2>
    578a: a6 6c        	ldx	$6c                     ; 0x6c <__rc31+0x4b>
    578c: a5 68        	lda	$68                     ; 0x68 <__rc31+0x47>
    578e: 20 49 67     	jsr	$6749 <cputcxy>
    5791: a5 67        	lda	$67                     ; 0x67 <__rc31+0x46>
    5793: 3a           	dec
    5794: d0 e1        	bne	$5777 <mcbox+0x7a>
    5796: a5 69        	lda	$69                     ; 0x69 <__rc31+0x48>
    5798: 1a           	inc
    5799: a6 6c        	ldx	$6c                     ; 0x6c <__rc31+0x4b>
    579b: 86 68        	stx	$68                     ; 0x68 <__rc31+0x47>
    579d: 85 72        	sta	$72                     ; 0x72 <__rc31+0x51>
    579f: 80 1a        	bra	$57bb <mcbox+0xbe>
    57a1: a2 5d        	ldx	#$5d
    57a3: 86 04        	stx	$4                      ; 0x4 <__rc2>
    57a5: 85 67        	sta	$67                     ; 0x67 <__rc31+0x46>
    57a7: aa           	tax
    57a8: a5 6b        	lda	$6b                     ; 0x6b <__rc31+0x4a>
    57aa: 20 49 67     	jsr	$6749 <cputcxy>
    57ad: a2 5d        	ldx	#$5d
    57af: 86 04        	stx	$4                      ; 0x4 <__rc2>
    57b1: a6 67        	ldx	$67                     ; 0x67 <__rc31+0x46>
    57b3: a5 6a        	lda	$6a                     ; 0x6a <__rc31+0x49>
    57b5: 20 49 67     	jsr	$6749 <cputcxy>
    57b8: a5 67        	lda	$67                     ; 0x67 <__rc31+0x46>
    57ba: 1a           	inc
    57bb: c5 68        	cmp	$68                     ; 0x68 <__rc31+0x47>
    57bd: 90 e2        	bcc	$57a1 <mcbox+0xa4>
    57bf: a5 6d        	lda	$6d                     ; 0x6d <__rc31+0x4c>
    57c1: d0 03        	bne	$57c6 <mcbox+0xc9>
    57c3: 4c 87 58     	jmp	$5887 <mcbox+0x18a>
    57c6: a6 6c        	ldx	$6c                     ; 0x6c <__rc31+0x4b>
    57c8: e4 32        	cpx	$32                     ; 0x32 <g_curScreenH>
    57ca: 90 03        	bcc	$57cf <mcbox+0xd2>
    57cc: 4c 87 58     	jmp	$5887 <mcbox+0x18a>
    57cf: a6 31        	ldx	$31                     ; 0x31 <g_curScreenW>
    57d1: 86 04        	stx	$4                      ; 0x4 <__rc2>
    57d3: a6 6a        	ldx	$6a                     ; 0x6a <__rc31+0x49>
    57d5: e4 04        	cpx	$4                      ; 0x4 <__rc2>
    57d7: 90 03        	bcc	$57dc <mcbox+0xdf>
    57d9: 4c 87 58     	jmp	$5887 <mcbox+0x18a>
    57dc: 64 05        	stz	$5                      ; 0x5 <__rc3>
    57de: a6 6c        	ldx	$6c                     ; 0x6c <__rc31+0x4b>
    57e0: a0 00        	ldy	#$0
    57e2: e8           	inx
    57e3: d0 01        	bne	$57e6 <mcbox+0xe9>
    57e5: c8           	iny
    57e6: 8a           	txa
    57e7: 84 6c        	sty	$6c                     ; 0x6c <__rc31+0x4b>
    57e9: a6 6c        	ldx	$6c                     ; 0x6c <__rc31+0x4b>
    57eb: 85 69        	sta	$69                     ; 0x69 <__rc31+0x48>
    57ed: 20 51 6b     	jsr	$6b51 <__mulhi3>
    57f0: 85 04        	sta	$4                      ; 0x4 <__rc2>
    57f2: 86 05        	stx	$5                      ; 0x5 <__rc3>
    57f4: 64 08        	stz	$8                      ; 0x8 <__rc6>
    57f6: 18           	clc
    57f7: a5 6b        	lda	$6b                     ; 0x6b <__rc31+0x4a>
    57f9: 65 04        	adc	$4                      ; 0x4 <__rc2>
    57fb: aa           	tax
    57fc: a9 00        	lda	#$0
    57fe: 65 05        	adc	$5                      ; 0x5 <__rc3>
    5800: 85 04        	sta	$4                      ; 0x4 <__rc2>
    5802: a9 00        	lda	#$0
    5804: 69 00        	adc	#$0
    5806: 85 05        	sta	$5                      ; 0x5 <__rc3>
    5808: a9 00        	lda	#$0
    580a: 69 00        	adc	#$0
    580c: 85 06        	sta	$6                      ; 0x6 <__rc4>
    580e: 18           	clc
    580f: 8a           	txa
    5810: 69 01        	adc	#$1
    5812: a8           	tay
    5813: a5 04        	lda	$4                      ; 0x4 <__rc2>
    5815: 69 00        	adc	#$0
    5817: 85 09        	sta	$9                      ; 0x9 <__rc7>
    5819: a5 05        	lda	$5                      ; 0x5 <__rc3>
    581b: 69 f8        	adc	#$f8
    581d: 85 04        	sta	$4                      ; 0x4 <__rc2>
    581f: a5 06        	lda	$6                      ; 0x6 <__rc4>
    5821: 69 0f        	adc	#$f
    5823: a2 0b        	ldx	#$b
    5825: 85 05        	sta	$5                      ; 0x5 <__rc3>
    5827: 86 06        	stx	$6                      ; 0x6 <__rc4>
    5829: a6 73        	ldx	$73                     ; 0x73 <__rc31+0x52>
    582b: 86 07        	stx	$7                      ; 0x7 <__rc5>
    582d: a6 09        	ldx	$9                      ; 0x9 <__rc7>
    582f: 98           	tya
    5830: 20 0d 6a     	jsr	$6a0d <lfill>
    5833: a6 6a        	ldx	$6a                     ; 0x6a <__rc31+0x49>
    5835: 86 68        	stx	$68                     ; 0x68 <__rc31+0x47>
    5837: e6 68        	inc	$68                     ; 0x68 <__rc31+0x47>
    5839: a6 72        	ldx	$72                     ; 0x72 <__rc31+0x51>
    583b: 86 67        	stx	$67                     ; 0x67 <__rc31+0x46>
    583d: 64 6a        	stz	$6a                     ; 0x6a <__rc31+0x49>
    583f: 4c 77 58     	jmp	$5877 <mcbox+0x17a>
    5842: c0 00        	cpy	#$0
    5844: b0 03        	bcs	$5849 <mcbox+0x14c>
    5846: 4c 87 58     	jmp	$5887 <mcbox+0x18a>
    5849: a5 31        	lda	$31                     ; 0x31 <g_curScreenW>
    584b: a6 67        	ldx	$67                     ; 0x67 <__rc31+0x46>
    584d: 86 04        	stx	$4                      ; 0x4 <__rc2>
    584f: 64 05        	stz	$5                      ; 0x5 <__rc3>
    5851: a2 00        	ldx	#$0
    5853: 20 51 6b     	jsr	$6b51 <__mulhi3>
    5856: 18           	clc
    5857: 65 68        	adc	$68                     ; 0x68 <__rc31+0x47>
    5859: a8           	tay
    585a: 8a           	txa
    585b: 65 6a        	adc	$6a                     ; 0x6a <__rc31+0x49>
    585d: 85 07        	sta	$7                      ; 0x7 <__rc5>
    585f: a9 f8        	lda	#$f8
    5861: 69 00        	adc	#$0
    5863: 85 04        	sta	$4                      ; 0x4 <__rc2>
    5865: a9 0f        	lda	#$f
    5867: 69 00        	adc	#$0
    5869: 85 05        	sta	$5                      ; 0x5 <__rc3>
    586b: a2 0b        	ldx	#$b
    586d: 86 06        	stx	$6                      ; 0x6 <__rc4>
    586f: a6 07        	ldx	$7                      ; 0x7 <__rc5>
    5871: 98           	tya
    5872: 20 90 20     	jsr	$2090 <lpoke>
    5875: e6 67        	inc	$67                     ; 0x67 <__rc31+0x46>
    5877: a4 6c        	ldy	$6c                     ; 0x6c <__rc31+0x4b>
    5879: f0 03        	beq	$587e <mcbox+0x181>
    587b: 4c 42 58     	jmp	$5842 <mcbox+0x145>
    587e: a6 69        	ldx	$69                     ; 0x69 <__rc31+0x48>
    5880: e4 67        	cpx	$67                     ; 0x67 <__rc31+0x46>
    5882: 90 03        	bcc	$5887 <mcbox+0x18a>
    5884: 4c 49 58     	jmp	$5849 <mcbox+0x14c>
    5887: 60           	rts

00005888 <messagebox>:
    5888: 85 55        	sta	$55                     ; 0x55 <__rc31+0x34>
    588a: 86 56        	stx	$56                     ; 0x56 <__rc31+0x35>
    588c: a6 04        	ldx	$4                      ; 0x4 <__rc2>
    588e: 86 65        	stx	$65                     ; 0x65 <__rc31+0x44>
    5890: a6 05        	ldx	$5                      ; 0x5 <__rc3>
    5892: 86 66        	stx	$66                     ; 0x66 <__rc31+0x45>
    5894: a6 06        	ldx	$6                      ; 0x6 <__rc4>
    5896: 86 63        	stx	$63                     ; 0x63 <__rc31+0x42>
    5898: a6 07        	ldx	$7                      ; 0x7 <__rc5>
    589a: 86 64        	stx	$64                     ; 0x64 <__rc31+0x43>
    589c: a6 08        	ldx	$8                      ; 0x8 <__rc6>
    589e: 86 61        	stx	$61                     ; 0x61 <__rc31+0x40>
    58a0: a6 09        	ldx	$9                      ; 0x9 <__rc7>
    58a2: 86 62        	stx	$62                     ; 0x62 <__rc31+0x41>
    58a4: a9 46        	lda	#$46
    58a6: a2 0c        	ldx	#$c
    58a8: a0 01        	ldy	#$1
    58aa: 85 04        	sta	$4                      ; 0x4 <__rc2>
    58ac: 86 05        	stx	$5                      ; 0x5 <__rc3>
    58ae: 84 06        	sty	$6                      ; 0x6 <__rc4>
    58b0: a2 04        	ldx	#$4
    58b2: a9 0a        	lda	#$a
    58b4: 20 fd 56     	jsr	$56fd <mcbox>
    58b7: a9 20        	lda	#$20
    58b9: 05 2b        	ora	$2b                     ; 0x2b <g_curTextColor>
    58bb: 85 2b        	sta	$2b                     ; 0x2b <g_curTextColor>
    58bd: a9 0e        	lda	#$e
    58bf: a2 73        	ldx	#$73
    58c1: 86 04        	stx	$4                      ; 0x4 <__rc2>
    58c3: a2 71        	ldx	#$71
    58c5: 86 05        	stx	$5                      ; 0x5 <__rc3>
    58c7: a2 04        	ldx	#$4
    58c9: 20 e7 56     	jsr	$56e7 <mcputsxy>
    58cc: a9 28        	lda	#$28
    58ce: a2 e5        	ldx	#$e5
    58d0: 86 04        	stx	$4                      ; 0x4 <__rc2>
    58d2: a2 74        	ldx	#$74
    58d4: 86 05        	stx	$5                      ; 0x5 <__rc3>
    58d6: a2 04        	ldx	#$4
    58d8: 20 e7 56     	jsr	$56e7 <mcputsxy>
    58db: a9 df        	lda	#$df
    58dd: 25 2b        	and	$2b                     ; 0x2b <g_curTextColor>
    58df: 85 2b        	sta	$2b                     ; 0x2b <g_curTextColor>
    58e1: a2 06        	ldx	#$6
    58e3: a4 65        	ldy	$65                     ; 0x65 <__rc31+0x44>
    58e5: 84 04        	sty	$4                      ; 0x4 <__rc2>
    58e7: a4 66        	ldy	$66                     ; 0x66 <__rc31+0x45>
    58e9: 84 05        	sty	$5                      ; 0x5 <__rc3>
    58eb: a9 0c        	lda	#$c
    58ed: 20 e7 56     	jsr	$56e7 <mcputsxy>
    58f0: a2 07        	ldx	#$7
    58f2: a4 63        	ldy	$63                     ; 0x63 <__rc31+0x42>
    58f4: 84 04        	sty	$4                      ; 0x4 <__rc2>
    58f6: a4 64        	ldy	$64                     ; 0x64 <__rc31+0x43>
    58f8: 84 05        	sty	$5                      ; 0x5 <__rc3>
    58fa: a9 0c        	lda	#$c
    58fc: 20 e7 56     	jsr	$56e7 <mcputsxy>
    58ff: a2 08        	ldx	#$8
    5901: a4 61        	ldy	$61                     ; 0x61 <__rc31+0x40>
    5903: 84 04        	sty	$4                      ; 0x4 <__rc2>
    5905: a4 62        	ldy	$62                     ; 0x62 <__rc31+0x41>
    5907: 84 05        	sty	$5                      ; 0x5 <__rc3>
    5909: a9 0c        	lda	#$c
    590b: 20 e7 56     	jsr	$56e7 <mcputsxy>
    590e: a6 55        	ldx	$55                     ; 0x55 <__rc31+0x34>
    5910: e0 03        	cpx	#$3
    5912: f0 03        	beq	$5917 <messagebox+0x8f>
    5914: 4c 78 59     	jmp	$5978 <messagebox+0xf0>
    5917: a2 9a        	ldx	#$9a
    5919: 86 04        	stx	$4                      ; 0x4 <__rc2>
    591b: a2 76        	ldx	#$76
    591d: 86 05        	stx	$5                      ; 0x5 <__rc3>
    591f: 20 2a 56     	jsr	$562a <asciitoscreencode_s>
    5922: a2 34        	ldx	#$34
    5924: 86 04        	stx	$4                      ; 0x4 <__rc2>
    5926: a2 03        	ldx	#$3
    5928: 86 05        	stx	$5                      ; 0x5 <__rc3>
    592a: 20 ea 67     	jsr	$67ea <cputs>
    592d: a2 24        	ldx	#$24
    592f: 86 57        	stx	$57                     ; 0x57 <__rc31+0x36>
    5931: a2 57        	ldx	#$57
    5933: a0 00        	ldy	#$0
    5935: 86 04        	stx	$4                      ; 0x4 <__rc2>
    5937: 84 05        	sty	$5                      ; 0x5 <__rc3>
    5939: e6 04        	inc	$4                      ; 0x4 <__rc2>
    593b: d0 02        	bne	$593f <messagebox+0xb7>
    593d: e6 05        	inc	$5                      ; 0x5 <__rc3>
    593f: a9 30        	lda	#$30
    5941: a2 05        	ldx	#$5
    5943: 64 06        	stz	$6                      ; 0x6 <__rc4>
    5945: 20 01 6e     	jsr	$6e01 <__memset>
    5948: 18           	clc
    5949: a9 57        	lda	#$57
    594b: 69 06        	adc	#$6
    594d: 85 04        	sta	$4                      ; 0x4 <__rc2>
    594f: a9 00        	lda	#$0
    5951: 69 00        	adc	#$0
    5953: 85 05        	sta	$5                      ; 0x5 <__rc3>
    5955: a5 56        	lda	$56                     ; 0x56 <__rc31+0x35>
    5957: 4a           	lsr
    5958: 4a           	lsr
    5959: 4a           	lsr
    595a: 4a           	lsr
    595b: 29 0f        	and	#$f
    595d: aa           	tax
    595e: bd d7 7a     	lda	$7ad7,x                 ; 0x7ad7 <hexDigits>
    5961: aa           	tax
    5962: 86 5e        	stx	$5e                     ; 0x5e <__rc31+0x3d>
    5964: a5 56        	lda	$56                     ; 0x56 <__rc31+0x35>
    5966: 29 0f        	and	#$f
    5968: aa           	tax
    5969: bd d7 7a     	lda	$7ad7,x                 ; 0x7ad7 <hexDigits>
    596c: aa           	tax
    596d: 86 5f        	stx	$5f                     ; 0x5f <__rc31+0x3e>
    596f: 64 60        	stz	$60                     ; 0x60 <__rc31+0x3f>
    5971: a2 24        	ldx	#$24
    5973: 86 5d        	stx	$5d                     ; 0x5d <__rc31+0x3c>
    5975: 20 ea 67     	jsr	$67ea <cputs>
    5978: a9 20        	lda	#$20
    597a: 05 2b        	ora	$2b                     ; 0x2b <g_curTextColor>
    597c: 85 2b        	sta	$2b                     ; 0x2b <g_curTextColor>
    597e: a9 0c        	lda	#$c
    5980: a2 8b        	ldx	#$8b
    5982: 86 04        	stx	$4                      ; 0x4 <__rc2>
    5984: a2 73        	ldx	#$73
    5986: 86 05        	stx	$5                      ; 0x5 <__rc3>
    5988: a2 0a        	ldx	#$a
    598a: 20 e7 56     	jsr	$56e7 <mcputsxy>
    598d: a9 3c        	lda	#$3c
    598f: a2 19        	ldx	#$19
    5991: 86 04        	stx	$4                      ; 0x4 <__rc2>
    5993: a2 74        	ldx	#$74
    5995: 86 05        	stx	$5                      ; 0x5 <__rc3>
    5997: a2 0a        	ldx	#$a
    5999: 20 e7 56     	jsr	$56e7 <mcputsxy>
    599c: a9 df        	lda	#$df
    599e: 25 2b        	and	$2b                     ; 0x2b <g_curTextColor>
    59a0: 85 2b        	sta	$2b                     ; 0x2b <g_curTextColor>
    59a2: a6 55        	ldx	$55                     ; 0x55 <__rc31+0x34>
    59a4: e0 02        	cpx	#$2
    59a6: f0 31        	beq	$59d9 <messagebox+0x151>
    59a8: e0 01        	cpx	#$1
    59aa: d0 1e        	bne	$59ca <messagebox+0x142>
    59ac: a9 02        	lda	#$2
    59ae: a2 f5        	ldx	#$f5
    59b0: 86 04        	stx	$4                      ; 0x4 <__rc2>
    59b2: a2 72        	ldx	#$72
    59b4: 86 05        	stx	$5                      ; 0x5 <__rc3>
    59b6: a2 01        	ldx	#$1
    59b8: 20 e7 56     	jsr	$56e7 <mcputsxy>
    59bb: a9 3a        	lda	#$3a
    59bd: a2 78        	ldx	#$78
    59bf: 86 04        	stx	$4                      ; 0x4 <__rc2>
    59c1: a2 74        	ldx	#$74
    59c3: 86 05        	stx	$5                      ; 0x5 <__rc3>
    59c5: a2 01        	ldx	#$1
    59c7: 20 e7 56     	jsr	$56e7 <mcputsxy>
    59ca: 20 76 69     	jsr	$6976 <cgetc>
    59cd: c9 03        	cmp	#$3
    59cf: f0 0b        	beq	$59dc <messagebox+0x154>
    59d1: c9 1b        	cmp	#$1b
    59d3: f0 07        	beq	$59dc <messagebox+0x154>
    59d5: c9 0d        	cmp	#$d
    59d7: d0 f1        	bne	$59ca <messagebox+0x142>
    59d9: a9 01        	lda	#$1
    59db: 60           	rts
    59dc: a9 00        	lda	#$0
    59de: 60           	rts

000059df <progress>:
    59df: 85 4d        	sta	$4d                     ; 0x4d <__rc31+0x2c>
    59e1: a6 04        	ldx	$4                      ; 0x4 <__rc2>
    59e3: 86 49        	stx	$49                     ; 0x49 <__rc31+0x28>
    59e5: a6 05        	ldx	$5                      ; 0x5 <__rc3>
    59e7: 86 4a        	stx	$4a                     ; 0x4a <__rc31+0x29>
    59e9: a6 06        	ldx	$6                      ; 0x6 <__rc4>
    59eb: 86 4b        	stx	$4b                     ; 0x4b <__rc31+0x2a>
    59ed: a6 07        	ldx	$7                      ; 0x7 <__rc5>
    59ef: 86 4c        	stx	$4c                     ; 0x4c <__rc31+0x2b>
    59f1: a2 83        	ldx	#$83
    59f3: 86 04        	stx	$4                      ; 0x4 <__rc2>
    59f5: a2 7a        	ldx	#$7a
    59f7: 86 05        	stx	$5                      ; 0x5 <__rc3>
    59f9: 20 cc 68     	jsr	$68cc <fillrect>
    59fc: a2 06        	ldx	#$6
    59fe: a4 49        	ldy	$49                     ; 0x49 <__rc31+0x28>
    5a00: 84 04        	sty	$4                      ; 0x4 <__rc2>
    5a02: a4 4a        	ldy	$4a                     ; 0x4a <__rc31+0x29>
    5a04: 84 05        	sty	$5                      ; 0x5 <__rc3>
    5a06: a4 4d        	ldy	$4d                     ; 0x4d <__rc31+0x2c>
    5a08: 84 49        	sty	$49                     ; 0x49 <__rc31+0x28>
    5a0a: a9 0c        	lda	#$c
    5a0c: 20 e7 56     	jsr	$56e7 <mcputsxy>
    5a0f: a2 07        	ldx	#$7
    5a11: a4 4b        	ldy	$4b                     ; 0x4b <__rc31+0x2a>
    5a13: 84 04        	sty	$4                      ; 0x4 <__rc2>
    5a15: a4 4c        	ldy	$4c                     ; 0x4c <__rc31+0x2b>
    5a17: 84 05        	sty	$5                      ; 0x5 <__rc3>
    5a19: a9 0c        	lda	#$c
    5a1b: 20 e7 56     	jsr	$56e7 <mcputsxy>
    5a1e: a2 09        	ldx	#$9
    5a20: a0 a0        	ldy	#$a0
    5a22: 84 04        	sty	$4                      ; 0x4 <__rc2>
    5a24: a9 0c        	lda	#$c
    5a26: 20 49 67     	jsr	$6749 <cputcxy>
    5a29: a5 49        	lda	$49                     ; 0x49 <__rc31+0x28>
    5a2b: 4a           	lsr
    5a2c: 85 4a        	sta	$4a                     ; 0x4a <__rc31+0x29>
    5a2e: a2 00        	ldx	#$0
    5a30: 80 14        	bra	$5a46 <progress+0x67>
    5a32: 86 4b        	stx	$4b                     ; 0x4b <__rc31+0x2a>
    5a34: a9 01        	lda	#$1
    5a36: 29 01        	and	#$1
    5a38: a2 a0        	ldx	#$a0
    5a3a: a8           	tay
    5a3b: d0 02        	bne	$5a3f <progress+0x60>
    5a3d: a2 7b        	ldx	#$7b
    5a3f: 8a           	txa
    5a40: 20 40 67     	jsr	$6740 <cputc>
    5a43: a6 4b        	ldx	$4b                     ; 0x4b <__rc31+0x2a>
    5a45: e8           	inx
    5a46: e0 32        	cpx	#$32
    5a48: f0 0a        	beq	$5a54 <progress+0x75>
    5a4a: e4 4a        	cpx	$4a                     ; 0x4a <__rc31+0x29>
    5a4c: 90 e4        	bcc	$5a32 <progress+0x53>
    5a4e: 86 4b        	stx	$4b                     ; 0x4b <__rc31+0x2a>
    5a50: a9 00        	lda	#$0
    5a52: 80 e2        	bra	$5a36 <progress+0x57>
    5a54: a9 65        	lda	#$65
    5a56: 20 40 67     	jsr	$6740 <cputc>
    5a59: a2 fd        	ldx	#$fd
    5a5b: 86 04        	stx	$4                      ; 0x4 <__rc2>
    5a5d: a2 70        	ldx	#$70
    5a5f: 86 05        	stx	$5                      ; 0x5 <__rc3>
    5a61: 20 2a 56     	jsr	$562a <asciitoscreencode_s>
    5a64: a2 34        	ldx	#$34
    5a66: 86 04        	stx	$4                      ; 0x4 <__rc2>
    5a68: a2 03        	ldx	#$3
    5a6a: 86 05        	stx	$5                      ; 0x5 <__rc3>
    5a6c: 20 ea 67     	jsr	$67ea <cputs>
    5a6f: 64 06        	stz	$6                      ; 0x6 <__rc4>
    5a71: 64 04        	stz	$4                      ; 0x4 <__rc2>
    5a73: 64 05        	stz	$5                      ; 0x5 <__rc3>
    5a75: a2 00        	ldx	#$0
    5a77: a5 49        	lda	$49                     ; 0x49 <__rc31+0x28>
    5a79: 20 64 55     	jsr	$5564 <csputdec>
    5a7c: a9 25        	lda	#$25
    5a7e: 20 40 67     	jsr	$6740 <cputc>
    5a81: a9 0c        	lda	#$c
    5a83: a2 7c        	ldx	#$7c
    5a85: 86 04        	stx	$4                      ; 0x4 <__rc2>
    5a87: a2 77        	ldx	#$77
    5a89: 86 05        	stx	$5                      ; 0x5 <__rc3>
    5a8b: a2 0a        	ldx	#$a
    5a8d: 20 e7 56     	jsr	$56e7 <mcputsxy>
    5a90: a9 3c        	lda	#$3c
    5a92: a2 7c        	ldx	#$7c
    5a94: 86 04        	stx	$4                      ; 0x4 <__rc2>
    5a96: a2 77        	ldx	#$77
    5a98: 86 05        	stx	$5                      ; 0x5 <__rc3>
    5a9a: a2 0a        	ldx	#$a
    5a9c: 4c e7 56     	jmp	$56e7 <mcputsxy>

00005a9f <shortcutprint>:
    5a9f: 85 4a        	sta	$4a                     ; 0x4a <__rc31+0x29>
    5aa1: a6 06        	ldx	$6                      ; 0x6 <__rc4>
    5aa3: 86 4c        	stx	$4c                     ; 0x4c <__rc31+0x2b>
    5aa5: a6 07        	ldx	$7                      ; 0x7 <__rc5>
    5aa7: 86 4d        	stx	$4d                     ; 0x4d <__rc31+0x2c>
    5aa9: a6 2b        	ldx	$2b                     ; 0x2b <g_curTextColor>
    5aab: 86 4b        	stx	$4b                     ; 0x4b <__rc31+0x2a>
    5aad: a9 f0        	lda	#$f0
    5aaf: 25 2b        	and	$2b                     ; 0x2b <g_curTextColor>
    5ab1: 09 01        	ora	#$1
    5ab3: 85 2b        	sta	$2b                     ; 0x2b <g_curTextColor>
    5ab5: 20 d9 56     	jsr	$56d9 <msprintf>
    5ab8: a5 4a        	lda	$4a                     ; 0x4a <__rc31+0x29>
    5aba: f0 04        	beq	$5ac0 <shortcutprint+0x21>
    5abc: a2 03        	ldx	#$3
    5abe: 80 02        	bra	$5ac2 <shortcutprint+0x23>
    5ac0: a2 0c        	ldx	#$c
    5ac2: 86 04        	stx	$4                      ; 0x4 <__rc2>
    5ac4: a5 4b        	lda	$4b                     ; 0x4b <__rc31+0x2a>
    5ac6: 29 d0        	and	#$d0
    5ac8: 05 04        	ora	$4                      ; 0x4 <__rc2>
    5aca: 85 4a        	sta	$4a                     ; 0x4a <__rc31+0x29>
    5acc: 09 20        	ora	#$20
    5ace: 85 2b        	sta	$2b                     ; 0x2b <g_curTextColor>
    5ad0: a6 4c        	ldx	$4c                     ; 0x4c <__rc31+0x2b>
    5ad2: 86 04        	stx	$4                      ; 0x4 <__rc2>
    5ad4: a6 4d        	ldx	$4d                     ; 0x4d <__rc31+0x2c>
    5ad6: 86 05        	stx	$5                      ; 0x5 <__rc3>
    5ad8: 20 d9 56     	jsr	$56d9 <msprintf>
    5adb: a6 4a        	ldx	$4a                     ; 0x4a <__rc31+0x29>
    5add: 86 2b        	stx	$2b                     ; 0x2b <g_curTextColor>
    5adf: 60           	rts

00005ae0 <shortcuts>:
    5ae0: 64 33        	stz	$33                     ; 0x33 <g_curX>
    5ae2: a0 18        	ldy	#$18
    5ae4: 84 34        	sty	$34                     ; 0x34 <g_curY>
    5ae6: a8           	tay
    5ae7: 29 14        	and	#$14
    5ae9: d0 03        	bne	$5aee <shortcuts+0xe>
    5aeb: 4c bc 5b     	jmp	$5bbc <shortcuts+0xdc>
    5aee: a2 d2        	ldx	#$d2
    5af0: 86 04        	stx	$4                      ; 0x4 <__rc2>
    5af2: a2 72        	ldx	#$72
    5af4: 86 05        	stx	$5                      ; 0x5 <__rc3>
    5af6: a2 20        	ldx	#$20
    5af8: 86 06        	stx	$6                      ; 0x6 <__rc4>
    5afa: a2 75        	ldx	#$75
    5afc: 86 07        	stx	$7                      ; 0x7 <__rc5>
    5afe: a9 00        	lda	#$0
    5b00: 20 9f 5a     	jsr	$5a9f <shortcutprint>
    5b03: a2 83        	ldx	#$83
    5b05: 86 04        	stx	$4                      ; 0x4 <__rc2>
    5b07: a2 72        	ldx	#$72
    5b09: 86 05        	stx	$5                      ; 0x5 <__rc3>
    5b0b: a2 65        	ldx	#$65
    5b0d: 86 06        	stx	$6                      ; 0x6 <__rc4>
    5b0f: a2 72        	ldx	#$72
    5b11: 86 07        	stx	$7                      ; 0x7 <__rc5>
    5b13: a9 00        	lda	#$0
    5b15: 20 9f 5a     	jsr	$5a9f <shortcutprint>
    5b18: a2 27        	ldx	#$27
    5b1a: 86 04        	stx	$4                      ; 0x4 <__rc2>
    5b1c: a2 75        	ldx	#$75
    5b1e: 86 05        	stx	$5                      ; 0x5 <__rc3>
    5b20: a2 d5        	ldx	#$d5
    5b22: 86 06        	stx	$6                      ; 0x6 <__rc4>
    5b24: a2 72        	ldx	#$72
    5b26: 86 07        	stx	$7                      ; 0x7 <__rc5>
    5b28: a9 00        	lda	#$0
    5b2a: 20 9f 5a     	jsr	$5a9f <shortcutprint>
    5b2d: a2 88        	ldx	#$88
    5b2f: 86 04        	stx	$4                      ; 0x4 <__rc2>
    5b31: a2 73        	ldx	#$73
    5b33: 86 05        	stx	$5                      ; 0x5 <__rc3>
    5b35: a2 8d        	ldx	#$8d
    5b37: 86 06        	stx	$6                      ; 0x6 <__rc4>
    5b39: a2 74        	ldx	#$74
    5b3b: 86 07        	stx	$7                      ; 0x7 <__rc5>
    5b3d: a9 00        	lda	#$0
    5b3f: 20 9f 5a     	jsr	$5a9f <shortcutprint>
    5b42: a2 dc        	ldx	#$dc
    5b44: 86 04        	stx	$4                      ; 0x4 <__rc2>
    5b46: a2 70        	ldx	#$70
    5b48: 86 05        	stx	$5                      ; 0x5 <__rc3>
    5b4a: a2 10        	ldx	#$10
    5b4c: 86 06        	stx	$6                      ; 0x6 <__rc4>
    5b4e: a2 72        	ldx	#$72
    5b50: 86 07        	stx	$7                      ; 0x7 <__rc5>
    5b52: a9 00        	lda	#$0
    5b54: 20 9f 5a     	jsr	$5a9f <shortcutprint>
    5b57: a2 3f        	ldx	#$3f
    5b59: 86 04        	stx	$4                      ; 0x4 <__rc2>
    5b5b: a2 73        	ldx	#$73
    5b5d: 86 05        	stx	$5                      ; 0x5 <__rc3>
    5b5f: a2 9d        	ldx	#$9d
    5b61: 86 06        	stx	$6                      ; 0x6 <__rc4>
    5b63: a2 77        	ldx	#$77
    5b65: 86 07        	stx	$7                      ; 0x7 <__rc5>
    5b67: a9 00        	lda	#$0
    5b69: 20 9f 5a     	jsr	$5a9f <shortcutprint>
    5b6c: a2 85        	ldx	#$85
    5b6e: 86 04        	stx	$4                      ; 0x4 <__rc2>
    5b70: a2 77        	ldx	#$77
    5b72: 86 05        	stx	$5                      ; 0x5 <__rc3>
    5b74: a2 3d        	ldx	#$3d
    5b76: 86 06        	stx	$6                      ; 0x6 <__rc4>
    5b78: a2 71        	ldx	#$71
    5b7a: 86 07        	stx	$7                      ; 0x7 <__rc5>
    5b7c: a9 00        	lda	#$0
    5b7e: 20 9f 5a     	jsr	$5a9f <shortcutprint>
    5b81: a2 f6        	ldx	#$f6
    5b83: 86 04        	stx	$4                      ; 0x4 <__rc2>
    5b85: a2 78        	ldx	#$78
    5b87: 86 05        	stx	$5                      ; 0x5 <__rc3>
    5b89: a2 12        	ldx	#$12
    5b8b: 86 06        	stx	$6                      ; 0x6 <__rc4>
    5b8d: a2 77        	ldx	#$77
    5b8f: 86 07        	stx	$7                      ; 0x7 <__rc5>
    5b91: a9 00        	lda	#$0
    5b93: 20 9f 5a     	jsr	$5a9f <shortcutprint>
    5b96: a2 b8        	ldx	#$b8
    5b98: 86 04        	stx	$4                      ; 0x4 <__rc2>
    5b9a: a2 75        	ldx	#$75
    5b9c: 86 05        	stx	$5                      ; 0x5 <__rc3>
    5b9e: a2 eb        	ldx	#$eb
    5ba0: 86 06        	stx	$6                      ; 0x6 <__rc4>
    5ba2: a2 77        	ldx	#$77
    5ba4: 86 07        	stx	$7                      ; 0x7 <__rc5>
    5ba6: a9 00        	lda	#$0
    5ba8: 20 9f 5a     	jsr	$5a9f <shortcutprint>
    5bab: a2 df        	ldx	#$df
    5bad: 86 04        	stx	$4                      ; 0x4 <__rc2>
    5baf: a2 70        	ldx	#$70
    5bb1: 86 05        	stx	$5                      ; 0x5 <__rc3>
    5bb3: a2 bb        	ldx	#$bb
    5bb5: 86 06        	stx	$6                      ; 0x6 <__rc4>
    5bb7: a2 75        	ldx	#$75
    5bb9: 4c 86 5d     	jmp	$5d86 <shortcuts+0x2a6>
    5bbc: 98           	tya
    5bbd: 29 08        	and	#$8
    5bbf: f0 03        	beq	$5bc4 <shortcuts+0xe4>
    5bc1: 4c 89 5c     	jmp	$5c89 <shortcuts+0x1a9>
    5bc4: 98           	tya
    5bc5: 29 03        	and	#$3
    5bc7: d0 03        	bne	$5bcc <shortcuts+0xec>
    5bc9: 4c 96 5d     	jmp	$5d96 <shortcuts+0x2b6>
    5bcc: a2 d2        	ldx	#$d2
    5bce: 86 04        	stx	$4                      ; 0x4 <__rc2>
    5bd0: a2 72        	ldx	#$72
    5bd2: 86 05        	stx	$5                      ; 0x5 <__rc3>
    5bd4: a2 65        	ldx	#$65
    5bd6: 86 06        	stx	$6                      ; 0x6 <__rc4>
    5bd8: a2 72        	ldx	#$72
    5bda: 86 07        	stx	$7                      ; 0x7 <__rc5>
    5bdc: a9 01        	lda	#$1
    5bde: 20 9f 5a     	jsr	$5a9f <shortcutprint>
    5be1: a2 83        	ldx	#$83
    5be3: 86 04        	stx	$4                      ; 0x4 <__rc2>
    5be5: a2 72        	ldx	#$72
    5be7: 86 05        	stx	$5                      ; 0x5 <__rc3>
    5be9: a2 68        	ldx	#$68
    5beb: 86 06        	stx	$6                      ; 0x6 <__rc4>
    5bed: a2 73        	ldx	#$73
    5bef: 86 07        	stx	$7                      ; 0x7 <__rc5>
    5bf1: a9 00        	lda	#$0
    5bf3: 20 9f 5a     	jsr	$5a9f <shortcutprint>
    5bf6: a2 27        	ldx	#$27
    5bf8: 86 04        	stx	$4                      ; 0x4 <__rc2>
    5bfa: a2 75        	ldx	#$75
    5bfc: 86 05        	stx	$5                      ; 0x5 <__rc3>
    5bfe: a2 8d        	ldx	#$8d
    5c00: 86 06        	stx	$6                      ; 0x6 <__rc4>
    5c02: a2 74        	ldx	#$74
    5c04: 86 07        	stx	$7                      ; 0x7 <__rc5>
    5c06: a9 00        	lda	#$0
    5c08: 20 9f 5a     	jsr	$5a9f <shortcutprint>
    5c0b: a2 88        	ldx	#$88
    5c0d: 86 04        	stx	$4                      ; 0x4 <__rc2>
    5c0f: a2 73        	ldx	#$73
    5c11: 86 05        	stx	$5                      ; 0x5 <__rc3>
    5c13: a2 68        	ldx	#$68
    5c15: 86 06        	stx	$6                      ; 0x6 <__rc4>
    5c17: a2 73        	ldx	#$73
    5c19: 86 07        	stx	$7                      ; 0x7 <__rc5>
    5c1b: a9 00        	lda	#$0
    5c1d: 20 9f 5a     	jsr	$5a9f <shortcutprint>
    5c20: a2 dc        	ldx	#$dc
    5c22: 86 04        	stx	$4                      ; 0x4 <__rc2>
    5c24: a2 70        	ldx	#$70
    5c26: 86 05        	stx	$5                      ; 0x5 <__rc3>
    5c28: a2 9d        	ldx	#$9d
    5c2a: 86 06        	stx	$6                      ; 0x6 <__rc4>
    5c2c: a2 77        	ldx	#$77
    5c2e: 86 07        	stx	$7                      ; 0x7 <__rc5>
    5c30: a9 00        	lda	#$0
    5c32: 20 9f 5a     	jsr	$5a9f <shortcutprint>
    5c35: a2 3f        	ldx	#$3f
    5c37: 86 04        	stx	$4                      ; 0x4 <__rc2>
    5c39: a2 73        	ldx	#$73
    5c3b: 86 05        	stx	$5                      ; 0x5 <__rc3>
    5c3d: a2 68        	ldx	#$68
    5c3f: 86 06        	stx	$6                      ; 0x6 <__rc4>
    5c41: a2 73        	ldx	#$73
    5c43: 86 07        	stx	$7                      ; 0x7 <__rc5>
    5c45: a9 00        	lda	#$0
    5c47: 20 9f 5a     	jsr	$5a9f <shortcutprint>
    5c4a: a2 85        	ldx	#$85
    5c4c: 86 04        	stx	$4                      ; 0x4 <__rc2>
    5c4e: a2 77        	ldx	#$77
    5c50: 86 05        	stx	$5                      ; 0x5 <__rc3>
    5c52: a2 12        	ldx	#$12
    5c54: 86 06        	stx	$6                      ; 0x6 <__rc4>
    5c56: a2 77        	ldx	#$77
    5c58: 86 07        	stx	$7                      ; 0x7 <__rc5>
    5c5a: a9 01        	lda	#$1
    5c5c: 20 9f 5a     	jsr	$5a9f <shortcutprint>
    5c5f: a2 f6        	ldx	#$f6
    5c61: 86 04        	stx	$4                      ; 0x4 <__rc2>
    5c63: a2 78        	ldx	#$78
    5c65: 86 05        	stx	$5                      ; 0x5 <__rc3>
    5c67: a2 68        	ldx	#$68
    5c69: 86 06        	stx	$6                      ; 0x6 <__rc4>
    5c6b: a2 73        	ldx	#$73
    5c6d: 86 07        	stx	$7                      ; 0x7 <__rc5>
    5c6f: a9 00        	lda	#$0
    5c71: 20 9f 5a     	jsr	$5a9f <shortcutprint>
    5c74: a2 b8        	ldx	#$b8
    5c76: 86 04        	stx	$4                      ; 0x4 <__rc2>
    5c78: a2 75        	ldx	#$75
    5c7a: 86 05        	stx	$5                      ; 0x5 <__rc3>
    5c7c: a2 00        	ldx	#$0
    5c7e: 86 06        	stx	$6                      ; 0x6 <__rc4>
    5c80: a2 79        	ldx	#$79
    5c82: 86 07        	stx	$7                      ; 0x7 <__rc5>
    5c84: a9 01        	lda	#$1
    5c86: 4c 75 5d     	jmp	$5d75 <shortcuts+0x295>
    5c89: a9 01        	lda	#$1
    5c8b: 86 49        	stx	$49                     ; 0x49 <__rc31+0x28>
    5c8d: a2 d2        	ldx	#$d2
    5c8f: 86 04        	stx	$4                      ; 0x4 <__rc2>
    5c91: a2 72        	ldx	#$72
    5c93: 86 05        	stx	$5                      ; 0x5 <__rc3>
    5c95: a2 d8        	ldx	#$d8
    5c97: 86 06        	stx	$6                      ; 0x6 <__rc4>
    5c99: a2 74        	ldx	#$74
    5c9b: 86 07        	stx	$7                      ; 0x7 <__rc5>
    5c9d: 20 9f 5a     	jsr	$5a9f <shortcutprint>
    5ca0: a2 83        	ldx	#$83
    5ca2: 86 04        	stx	$4                      ; 0x4 <__rc2>
    5ca4: a2 72        	ldx	#$72
    5ca6: 86 05        	stx	$5                      ; 0x5 <__rc3>
    5ca8: a2 68        	ldx	#$68
    5caa: 86 06        	stx	$6                      ; 0x6 <__rc4>
    5cac: a2 73        	ldx	#$73
    5cae: 86 07        	stx	$7                      ; 0x7 <__rc5>
    5cb0: a9 00        	lda	#$0
    5cb2: 20 9f 5a     	jsr	$5a9f <shortcutprint>
    5cb5: a2 27        	ldx	#$27
    5cb7: 86 04        	stx	$4                      ; 0x4 <__rc2>
    5cb9: a2 75        	ldx	#$75
    5cbb: 86 05        	stx	$5                      ; 0x5 <__rc3>
    5cbd: a2 c1        	ldx	#$c1
    5cbf: 86 06        	stx	$6                      ; 0x6 <__rc4>
    5cc1: a2 75        	ldx	#$75
    5cc3: 86 07        	stx	$7                      ; 0x7 <__rc5>
    5cc5: a9 01        	lda	#$1
    5cc7: 20 9f 5a     	jsr	$5a9f <shortcutprint>
    5cca: a2 88        	ldx	#$88
    5ccc: 86 04        	stx	$4                      ; 0x4 <__rc2>
    5cce: a2 73        	ldx	#$73
    5cd0: 86 05        	stx	$5                      ; 0x5 <__rc3>
    5cd2: a2 68        	ldx	#$68
    5cd4: 86 06        	stx	$6                      ; 0x6 <__rc4>
    5cd6: a2 73        	ldx	#$73
    5cd8: 86 07        	stx	$7                      ; 0x7 <__rc5>
    5cda: a9 00        	lda	#$0
    5cdc: 20 9f 5a     	jsr	$5a9f <shortcutprint>
    5cdf: a6 49        	ldx	$49                     ; 0x49 <__rc31+0x28>
    5ce1: 86 04        	stx	$4                      ; 0x4 <__rc2>
    5ce3: 06 04        	asl	$4                      ; 0x4 <__rc2>
    5ce5: 64 05        	stz	$5                      ; 0x5 <__rc3>
    5ce7: 26 05        	rol	$5                      ; 0x5 <__rc3>
    5ce9: a9 27        	lda	#$27
    5ceb: 18           	clc
    5cec: 65 04        	adc	$4                      ; 0x4 <__rc2>
    5cee: 85 04        	sta	$4                      ; 0x4 <__rc2>
    5cf0: a9 00        	lda	#$0
    5cf2: 65 05        	adc	$5                      ; 0x5 <__rc3>
    5cf4: 85 05        	sta	$5                      ; 0x5 <__rc3>
    5cf6: b2 04        	lda	($4),z                  ; 0x4 <__rc2>
    5cf8: aa           	tax
    5cf9: a0 01        	ldy	#$1
    5cfb: b1 04        	lda	($4),y                  ; 0x4 <__rc2>
    5cfd: 86 04        	stx	$4                      ; 0x4 <__rc2>
    5cff: 85 05        	sta	$5                      ; 0x5 <__rc3>
    5d01: a0 47        	ldy	#$47
    5d03: b1 04        	lda	($4),y                  ; 0x4 <__rc2>
    5d05: 85 04        	sta	$4                      ; 0x4 <__rc2>
    5d07: a9 01        	lda	#$1
    5d09: a6 04        	ldx	$4                      ; 0x4 <__rc2>
    5d0b: e0 28        	cpx	#$28
    5d0d: f0 02        	beq	$5d11 <shortcuts+0x231>
    5d0f: a9 00        	lda	#$0
    5d11: a2 dc        	ldx	#$dc
    5d13: 86 04        	stx	$4                      ; 0x4 <__rc2>
    5d15: a2 70        	ldx	#$70
    5d17: 86 05        	stx	$5                      ; 0x5 <__rc3>
    5d19: a2 42        	ldx	#$42
    5d1b: 86 06        	stx	$6                      ; 0x6 <__rc4>
    5d1d: a2 73        	ldx	#$73
    5d1f: 86 07        	stx	$7                      ; 0x7 <__rc5>
    5d21: 20 9f 5a     	jsr	$5a9f <shortcutprint>
    5d24: a2 3f        	ldx	#$3f
    5d26: 86 04        	stx	$4                      ; 0x4 <__rc2>
    5d28: a2 73        	ldx	#$73
    5d2a: 86 05        	stx	$5                      ; 0x5 <__rc3>
    5d2c: a2 68        	ldx	#$68
    5d2e: 86 06        	stx	$6                      ; 0x6 <__rc4>
    5d30: a2 73        	ldx	#$73
    5d32: 86 07        	stx	$7                      ; 0x7 <__rc5>
    5d34: a9 00        	lda	#$0
    5d36: 20 9f 5a     	jsr	$5a9f <shortcutprint>
    5d39: a9 01        	lda	#$1
    5d3b: a2 85        	ldx	#$85
    5d3d: 86 04        	stx	$4                      ; 0x4 <__rc2>
    5d3f: a2 77        	ldx	#$77
    5d41: 86 05        	stx	$5                      ; 0x5 <__rc3>
    5d43: a2 54        	ldx	#$54
    5d45: 86 06        	stx	$6                      ; 0x6 <__rc4>
    5d47: a2 79        	ldx	#$79
    5d49: 86 07        	stx	$7                      ; 0x7 <__rc5>
    5d4b: 20 9f 5a     	jsr	$5a9f <shortcutprint>
    5d4e: a2 f6        	ldx	#$f6
    5d50: 86 04        	stx	$4                      ; 0x4 <__rc2>
    5d52: a2 78        	ldx	#$78
    5d54: 86 05        	stx	$5                      ; 0x5 <__rc3>
    5d56: a2 f9        	ldx	#$f9
    5d58: 86 06        	stx	$6                      ; 0x6 <__rc4>
    5d5a: a2 78        	ldx	#$78
    5d5c: 86 07        	stx	$7                      ; 0x7 <__rc5>
    5d5e: a9 00        	lda	#$0
    5d60: 20 9f 5a     	jsr	$5a9f <shortcutprint>
    5d63: a2 b8        	ldx	#$b8
    5d65: 86 04        	stx	$4                      ; 0x4 <__rc2>
    5d67: a2 75        	ldx	#$75
    5d69: 86 05        	stx	$5                      ; 0x5 <__rc3>
    5d6b: a2 68        	ldx	#$68
    5d6d: 86 06        	stx	$6                      ; 0x6 <__rc4>
    5d6f: a2 73        	ldx	#$73
    5d71: 86 07        	stx	$7                      ; 0x7 <__rc5>
    5d73: a9 00        	lda	#$0
    5d75: 20 9f 5a     	jsr	$5a9f <shortcutprint>
    5d78: a2 df        	ldx	#$df
    5d7a: 86 04        	stx	$4                      ; 0x4 <__rc2>
    5d7c: a2 70        	ldx	#$70
    5d7e: 86 05        	stx	$5                      ; 0x5 <__rc3>
    5d80: a2 df        	ldx	#$df
    5d82: 86 06        	stx	$6                      ; 0x6 <__rc4>
    5d84: a2 74        	ldx	#$74
    5d86: 86 07        	stx	$7                      ; 0x7 <__rc5>
    5d88: a9 00        	lda	#$0
    5d8a: 20 9f 5a     	jsr	$5a9f <shortcutprint>
    5d8d: a9 f0        	lda	#$f0
    5d8f: 25 2b        	and	$2b                     ; 0x2b <g_curTextColor>
    5d91: 09 03        	ora	#$3
    5d93: 85 2b        	sta	$2b                     ; 0x2b <g_curTextColor>
    5d95: 60           	rts
    5d96: a2 d2        	ldx	#$d2
    5d98: 86 04        	stx	$4                      ; 0x4 <__rc2>
    5d9a: a2 72        	ldx	#$72
    5d9c: 86 05        	stx	$5                      ; 0x5 <__rc3>
    5d9e: a2 20        	ldx	#$20
    5da0: 86 06        	stx	$6                      ; 0x6 <__rc4>
    5da2: a2 75        	ldx	#$75
    5da4: 86 07        	stx	$7                      ; 0x7 <__rc5>
    5da6: a9 01        	lda	#$1
    5da8: 20 9f 5a     	jsr	$5a9f <shortcutprint>
    5dab: a2 83        	ldx	#$83
    5dad: 86 04        	stx	$4                      ; 0x4 <__rc2>
    5daf: a2 72        	ldx	#$72
    5db1: 86 05        	stx	$5                      ; 0x5 <__rc3>
    5db3: a2 65        	ldx	#$65
    5db5: 86 06        	stx	$6                      ; 0x6 <__rc4>
    5db7: a2 72        	ldx	#$72
    5db9: 86 07        	stx	$7                      ; 0x7 <__rc5>
    5dbb: a9 01        	lda	#$1
    5dbd: 20 9f 5a     	jsr	$5a9f <shortcutprint>
    5dc0: a2 27        	ldx	#$27
    5dc2: 86 04        	stx	$4                      ; 0x4 <__rc2>
    5dc4: a2 75        	ldx	#$75
    5dc6: 86 05        	stx	$5                      ; 0x5 <__rc3>
    5dc8: a2 d5        	ldx	#$d5
    5dca: 86 06        	stx	$6                      ; 0x6 <__rc4>
    5dcc: a2 72        	ldx	#$72
    5dce: 86 07        	stx	$7                      ; 0x7 <__rc5>
    5dd0: a9 00        	lda	#$0
    5dd2: 20 9f 5a     	jsr	$5a9f <shortcutprint>
    5dd5: a2 88        	ldx	#$88
    5dd7: 86 04        	stx	$4                      ; 0x4 <__rc2>
    5dd9: a2 73        	ldx	#$73
    5ddb: 86 05        	stx	$5                      ; 0x5 <__rc3>
    5ddd: a2 8d        	ldx	#$8d
    5ddf: 86 06        	stx	$6                      ; 0x6 <__rc4>
    5de1: a2 74        	ldx	#$74
    5de3: 86 07        	stx	$7                      ; 0x7 <__rc5>
    5de5: a9 00        	lda	#$0
    5de7: 20 9f 5a     	jsr	$5a9f <shortcutprint>
    5dea: a2 dc        	ldx	#$dc
    5dec: 86 04        	stx	$4                      ; 0x4 <__rc2>
    5dee: a2 70        	ldx	#$70
    5df0: 86 05        	stx	$5                      ; 0x5 <__rc3>
    5df2: a2 10        	ldx	#$10
    5df4: 86 06        	stx	$6                      ; 0x6 <__rc4>
    5df6: a2 72        	ldx	#$72
    5df8: 86 07        	stx	$7                      ; 0x7 <__rc5>
    5dfa: a9 01        	lda	#$1
    5dfc: 20 9f 5a     	jsr	$5a9f <shortcutprint>
    5dff: a2 3f        	ldx	#$3f
    5e01: 86 04        	stx	$4                      ; 0x4 <__rc2>
    5e03: a2 73        	ldx	#$73
    5e05: 86 05        	stx	$5                      ; 0x5 <__rc3>
    5e07: a2 9d        	ldx	#$9d
    5e09: 86 06        	stx	$6                      ; 0x6 <__rc4>
    5e0b: a2 77        	ldx	#$77
    5e0d: 86 07        	stx	$7                      ; 0x7 <__rc5>
    5e0f: a9 00        	lda	#$0
    5e11: 20 9f 5a     	jsr	$5a9f <shortcutprint>
    5e14: a2 85        	ldx	#$85
    5e16: 86 04        	stx	$4                      ; 0x4 <__rc2>
    5e18: a2 77        	ldx	#$77
    5e1a: 86 05        	stx	$5                      ; 0x5 <__rc3>
    5e1c: a2 3d        	ldx	#$3d
    5e1e: 86 06        	stx	$6                      ; 0x6 <__rc4>
    5e20: a2 71        	ldx	#$71
    5e22: 86 07        	stx	$7                      ; 0x7 <__rc5>
    5e24: a9 00        	lda	#$0
    5e26: 20 9f 5a     	jsr	$5a9f <shortcutprint>
    5e29: a2 f6        	ldx	#$f6
    5e2b: 86 04        	stx	$4                      ; 0x4 <__rc2>
    5e2d: a2 78        	ldx	#$78
    5e2f: 86 05        	stx	$5                      ; 0x5 <__rc3>
    5e31: a2 12        	ldx	#$12
    5e33: 86 06        	stx	$6                      ; 0x6 <__rc4>
    5e35: a2 77        	ldx	#$77
    5e37: 86 07        	stx	$7                      ; 0x7 <__rc5>
    5e39: a9 01        	lda	#$1
    5e3b: 20 9f 5a     	jsr	$5a9f <shortcutprint>
    5e3e: a2 b8        	ldx	#$b8
    5e40: 86 04        	stx	$4                      ; 0x4 <__rc2>
    5e42: a2 75        	ldx	#$75
    5e44: 86 05        	stx	$5                      ; 0x5 <__rc3>
    5e46: a2 eb        	ldx	#$eb
    5e48: 86 06        	stx	$6                      ; 0x6 <__rc4>
    5e4a: a2 77        	ldx	#$77
    5e4c: 86 07        	stx	$7                      ; 0x7 <__rc5>
    5e4e: a9 01        	lda	#$1
    5e50: 20 9f 5a     	jsr	$5a9f <shortcutprint>
    5e53: a2 df        	ldx	#$df
    5e55: 86 04        	stx	$4                      ; 0x4 <__rc2>
    5e57: a2 70        	ldx	#$70
    5e59: 86 05        	stx	$5                      ; 0x5 <__rc3>
    5e5b: a2 bb        	ldx	#$bb
    5e5d: 86 06        	stx	$6                      ; 0x6 <__rc4>
    5e5f: a2 75        	ldx	#$75
    5e61: 86 07        	stx	$7                      ; 0x7 <__rc5>
    5e63: a9 01        	lda	#$1
    5e65: 4c 8a 5d     	jmp	$5d8a <shortcuts+0x2aa>

00005e68 <optionstring>:
    5e68: 86 08        	stx	$8                      ; 0x8 <__rc6>
    5e6a: a6 06        	ldx	$6                      ; 0x6 <__rc4>
    5e6c: 25 08        	and	$8                      ; 0x8 <__rc6>
    5e6e: f0 04        	beq	$5e74 <optionstring+0xc>
    5e70: a0 2a        	ldy	#$2a
    5e72: 80 02        	bra	$5e76 <optionstring+0xe>
    5e74: a0 6f        	ldy	#$6f
    5e76: 8c 08 7b     	sty	$7b08                   ; 0x7b08 <s>
    5e79: a0 20        	ldy	#$20
    5e7b: 8c 09 7b     	sty	$7b09                   ; 0x7b09 <s+0x1>
    5e7e: a9 3e        	lda	#$3e
    5e80: e4 07        	cpx	$7                      ; 0x7 <__rc5>
    5e82: f0 02        	beq	$5e86 <optionstring+0x1e>
    5e84: a9 20        	lda	#$20
    5e86: 8d 0a 7b     	sta	$7b0a                   ; 0x7b0a <s+0x2>
    5e89: 8c 0b 7b     	sty	$7b0b                   ; 0x7b0b <s+0x3>
    5e8c: a0 00        	ldy	#$0
    5e8e: 80 04        	bra	$5e94 <optionstring+0x2c>
    5e90: 99 0c 7b     	sta	$7b0c,y                 ; 0x7b0c <s+0x4>
    5e93: c8           	iny
    5e94: b1 04        	lda	($4),y                  ; 0x4 <__rc2>
    5e96: f0 04        	beq	$5e9c <optionstring+0x34>
    5e98: c0 28        	cpy	#$28
    5e9a: 90 f4        	bcc	$5e90 <optionstring+0x28>
    5e9c: 38           	sec
    5e9d: a9 10        	lda	#$10
    5e9f: 84 04        	sty	$4                      ; 0x4 <__rc2>
    5ea1: e5 04        	sbc	$4                      ; 0x4 <__rc2>
    5ea3: 90 04        	bcc	$5ea9 <optionstring+0x41>
    5ea5: 85 05        	sta	$5                      ; 0x5 <__rc3>
    5ea7: 80 02        	bra	$5eab <optionstring+0x43>
    5ea9: 64 05        	stz	$5                      ; 0x5 <__rc3>
    5eab: 64 04        	stz	$4                      ; 0x4 <__rc2>
    5ead: 80 13        	bra	$5ec2 <optionstring+0x5a>
    5eaf: a9 0c        	lda	#$c
    5eb1: 18           	clc
    5eb2: 65 04        	adc	$4                      ; 0x4 <__rc2>
    5eb4: 85 08        	sta	$8                      ; 0x8 <__rc6>
    5eb6: a9 7b        	lda	#$7b
    5eb8: 69 00        	adc	#$0
    5eba: 85 09        	sta	$9                      ; 0x9 <__rc7>
    5ebc: a9 20        	lda	#$20
    5ebe: 91 08        	sta	($8),y                  ; 0x8 <__rc6>
    5ec0: e6 04        	inc	$4                      ; 0x4 <__rc2>
    5ec2: a5 05        	lda	$5                      ; 0x5 <__rc3>
    5ec4: c5 04        	cmp	$4                      ; 0x4 <__rc2>
    5ec6: d0 e7        	bne	$5eaf <optionstring+0x47>
    5ec8: c0 11        	cpy	#$11
    5eca: b0 02        	bcs	$5ece <optionstring+0x66>
    5ecc: a0 10        	ldy	#$10
    5ece: 84 04        	sty	$4                      ; 0x4 <__rc2>
    5ed0: 98           	tya
    5ed1: 18           	clc
    5ed2: 69 04        	adc	#$4
    5ed4: a8           	tay
    5ed5: a9 20        	lda	#$20
    5ed7: 99 08 7b     	sta	$7b08,y                 ; 0x7b08 <s>
    5eda: 18           	clc
    5edb: a5 04        	lda	$4                      ; 0x4 <__rc2>
    5edd: 69 05        	adc	#$5
    5edf: a8           	tay
    5ee0: a9 3c        	lda	#$3c
    5ee2: e4 07        	cpx	$7                      ; 0x7 <__rc5>
    5ee4: f0 02        	beq	$5ee8 <optionstring+0x80>
    5ee6: a9 20        	lda	#$20
    5ee8: 99 08 7b     	sta	$7b08,y                 ; 0x7b08 <s>
    5eeb: 18           	clc
    5eec: a5 04        	lda	$4                      ; 0x4 <__rc2>
    5eee: 69 06        	adc	#$6
    5ef0: aa           	tax
    5ef1: 9e 08 7b     	stz	$7b08,x                 ; 0x7b08 <s>
    5ef4: a5 07        	lda	$7                      ; 0x7 <__rc5>
    5ef6: 18           	clc
    5ef7: 69 06        	adc	#$6
    5ef9: a2 08        	ldx	#$8
    5efb: 86 04        	stx	$4                      ; 0x4 <__rc2>
    5efd: a2 7b        	ldx	#$7b
    5eff: 86 05        	stx	$5                      ; 0x5 <__rc3>
    5f01: aa           	tax
    5f02: a9 0c        	lda	#$c
    5f04: 4c e7 56     	jmp	$56e7 <mcputsxy>

00005f07 <UpdateSectors>:
    5f07: 48           	pha
    5f08: 18           	clc
    5f09: a5 02        	lda	$2                      ; 0x2 <__rc0>
    5f0b: 69 f1        	adc	#$f1
    5f0d: 85 02        	sta	$2                      ; 0x2 <__rc0>
    5f0f: a5 03        	lda	$3                      ; 0x3 <__rc1>
    5f11: 69 ff        	adc	#$ff
    5f13: 85 03        	sta	$3                      ; 0x3 <__rc1>
    5f15: 68           	pla
    5f16: a4 16        	ldy	$16                     ; 0x16 <__rc20>
    5f18: 5a           	phy
    5f19: a4 17        	ldy	$17                     ; 0x17 <__rc21>
    5f1b: 5a           	phy
    5f1c: a4 18        	ldy	$18                     ; 0x18 <__rc22>
    5f1e: 5a           	phy
    5f1f: a4 19        	ldy	$19                     ; 0x19 <__rc23>
    5f21: 5a           	phy
    5f22: 48           	pha
    5f23: a5 1a        	lda	$1a                     ; 0x1a <__rc24>
    5f25: a0 07        	ldy	#$7
    5f27: 91 02        	sta	($2),y                  ; 0x2 <__rc0>
    5f29: a5 1b        	lda	$1b                     ; 0x1b <__rc25>
    5f2b: 88           	dey
    5f2c: 91 02        	sta	($2),y                  ; 0x2 <__rc0>
    5f2e: a5 1c        	lda	$1c                     ; 0x1c <__rc26>
    5f30: 88           	dey
    5f31: 91 02        	sta	($2),y                  ; 0x2 <__rc0>
    5f33: a5 1d        	lda	$1d                     ; 0x1d <__zp_bss_size>
    5f35: 88           	dey
    5f36: 91 02        	sta	($2),y                  ; 0x2 <__rc0>
    5f38: a5 1e        	lda	$1e                     ; 0x1e <__rc28>
    5f3a: 88           	dey
    5f3b: 91 02        	sta	($2),y                  ; 0x2 <__rc0>
    5f3d: a5 1f        	lda	$1f                     ; 0x1f <__rc29>
    5f3f: 88           	dey
    5f40: 91 02        	sta	($2),y                  ; 0x2 <__rc0>
    5f42: a5 20        	lda	$20                     ; 0x20 <__rc30>
    5f44: 88           	dey
    5f45: 91 02        	sta	($2),y                  ; 0x2 <__rc0>
    5f47: a5 21        	lda	$21                     ; 0x21 <__rc31>
    5f49: 88           	dey
    5f4a: 91 02        	sta	($2),y                  ; 0x2 <__rc0>
    5f4c: 68           	pla
    5f4d: 85 16        	sta	$16                     ; 0x16 <__rc20>
    5f4f: 86 1e        	stx	$1e                     ; 0x1e <__rc28>
    5f51: 98           	tya
    5f52: 86 17        	stx	$17                     ; 0x17 <__rc21>
    5f54: 06 17        	asl	$17                     ; 0x17 <__rc21>
    5f56: 48           	pha
    5f57: 1a           	inc
    5f58: b0 02        	bcs	$5f5c <UpdateSectors+0x55>
    5f5a: a9 00        	lda	#$0
    5f5c: a0 09        	ldy	#$9
    5f5e: 91 02        	sta	($2),y                  ; 0x2 <__rc0>
    5f60: 68           	pla
    5f61: 2a           	rol
    5f62: 85 04        	sta	$4                      ; 0x4 <__rc2>
    5f64: a9 27        	lda	#$27
    5f66: 18           	clc
    5f67: 65 17        	adc	$17                     ; 0x17 <__rc21>
    5f69: aa           	tax
    5f6a: a9 00        	lda	#$0
    5f6c: 65 04        	adc	$4                      ; 0x4 <__rc2>
    5f6e: a4 17        	ldy	$17                     ; 0x17 <__rc21>
    5f70: 84 06        	sty	$6                      ; 0x6 <__rc4>
    5f72: 06 06        	asl	$6                      ; 0x6 <__rc4>
    5f74: 48           	pha
    5f75: a9 01        	lda	#$1
    5f77: b0 02        	bcs	$5f7b <UpdateSectors+0x74>
    5f79: a9 00        	lda	#$0
    5f7b: a0 08        	ldy	#$8
    5f7d: 91 02        	sta	($2),y                  ; 0x2 <__rc0>
    5f7f: a4 04        	ldy	$4                      ; 0x4 <__rc2>
    5f81: 84 07        	sty	$7                      ; 0x7 <__rc5>
    5f83: 26 07        	rol	$7                      ; 0x7 <__rc5>
    5f85: 06 06        	asl	$6                      ; 0x6 <__rc4>
    5f87: a9 01        	lda	#$1
    5f89: b0 02        	bcs	$5f8d <UpdateSectors+0x86>
    5f8b: a9 00        	lda	#$0
    5f8d: a0 0a        	ldy	#$a
    5f8f: 91 02        	sta	($2),y                  ; 0x2 <__rc0>
    5f91: 26 07        	rol	$7                      ; 0x7 <__rc5>
    5f93: 06 06        	asl	$6                      ; 0x6 <__rc4>
    5f95: a9 01        	lda	#$1
    5f97: b0 02        	bcs	$5f9b <UpdateSectors+0x94>
    5f99: a9 00        	lda	#$0
    5f9b: a0 0b        	ldy	#$b
    5f9d: 91 02        	sta	($2),y                  ; 0x2 <__rc0>
    5f9f: 68           	pla
    5fa0: 26 07        	rol	$7                      ; 0x7 <__rc5>
    5fa2: a4 07        	ldy	$7                      ; 0x7 <__rc5>
    5fa4: 84 21        	sty	$21                     ; 0x21 <__rc31>
    5fa6: 86 04        	stx	$4                      ; 0x4 <__rc2>
    5fa8: 85 05        	sta	$5                      ; 0x5 <__rc3>
    5faa: a0 01        	ldy	#$1
    5fac: b1 04        	lda	($4),y                  ; 0x4 <__rc2>
    5fae: aa           	tax
    5faf: b2 04        	lda	($4),z                  ; 0x4 <__rc2>
    5fb1: 85 1c        	sta	$1c                     ; 0x1c <__rc26>
    5fb3: 85 07        	sta	$7                      ; 0x7 <__rc5>
    5fb5: 86 1d        	stx	$1d                     ; 0x1d <__zp_bss_size>
    5fb7: a0 46        	ldy	#$46
    5fb9: a9 01        	lda	#$1
    5fbb: 31 1c        	and	($1c),y                 ; 0x1c <__rc26>
    5fbd: a0 0d        	ldy	#$d
    5fbf: 91 02        	sta	($2),y                  ; 0x2 <__rc0>
    5fc1: 86 08        	stx	$8                      ; 0x8 <__rc6>
    5fc3: a4 06        	ldy	$6                      ; 0x6 <__rc4>
    5fc5: 84 1f        	sty	$1f                     ; 0x1f <__rc29>
    5fc7: 86 20        	stx	$20                     ; 0x20 <__rc30>
    5fc9: a6 07        	ldx	$7                      ; 0x7 <__rc5>
    5fcb: 86 1a        	stx	$1a                     ; 0x1a <__rc24>
    5fcd: a5 07        	lda	$7                      ; 0x7 <__rc5>
    5fcf: a0 0e        	ldy	#$e
    5fd1: 91 02        	sta	($2),y                  ; 0x2 <__rc0>
    5fd3: 88           	dey
    5fd4: b1 02        	lda	($2),y                  ; 0x2 <__rc0>
    5fd6: d0 03        	bne	$5fdb <UpdateSectors+0xd4>
    5fd8: 4c ea 60     	jmp	$60ea <donegetproc10+0xe3>
    5fdb: a2 00        	ldx	#$0
    5fdd: 86 18        	stx	$18                     ; 0x18 <__rc22>
    5fdf: a2 16        	ldx	#$16
    5fe1: 86 19        	stx	$19                     ; 0x19 <__rc23>
    5fe3: a0 1c        	ldy	#$1c
    5fe5: 84 2c        	sty	$2c                     ; 0x2c <fnamehi.2>
    5fe7: 18           	clc
    5fe8: a5 07        	lda	$7                      ; 0x7 <__rc5>
    5fea: 69 03        	adc	#$3
    5fec: 85 04        	sta	$4                      ; 0x4 <__rc2>
    5fee: a5 08        	lda	$8                      ; 0x8 <__rc6>
    5ff0: 69 00        	adc	#$0
    5ff2: 85 05        	sta	$5                      ; 0x5 <__rc3>
    5ff4: a2 00        	ldx	#$0
    5ff6: a9 48        	lda	#$48
    5ff8: 8d 40 d6     	sta	$d640                   ; 0xd640 <__heap_start+0x56a8>
    5ffb: b8           	clv
    5ffc: 90 05        	bcc	$6003 <errgetproc10>
    5ffe: 85 06        	sta	$6                      ; 0x6 <__rc4>
    6000: 4c 07 60     	jmp	$6007 <donegetproc10>

00006003 <errgetproc10>:
    6003: a9 ff        	lda	#$ff
    6005: 85 06        	sta	$6                      ; 0x6 <__rc4>

00006007 <donegetproc10>:
    6007: ea           	nop
    6008: a5 16        	lda	$16                     ; 0x16 <__rc20>
    600a: f0 13        	beq	$601f <donegetproc10+0x18>
    600c: a0 00        	ldy	#$0
    600e: 80 03        	bra	$6013 <donegetproc10+0xc>
    6010: 91 04        	sta	($4),y                  ; 0x4 <__rc2>
    6012: c8           	iny
    6013: b9 35 1c     	lda	$1c35,y                 ; 0x1c35 <__heap_default_limit+0xc35>
    6016: f0 18        	beq	$6030 <donegetproc10+0x29>
    6018: cc 14 1c     	cpy	$1c14                   ; 0x1c14 <__heap_default_limit+0xc14>
    601b: 90 f3        	bcc	$6010 <donegetproc10+0x9>
    601d: 80 11        	bra	$6030 <donegetproc10+0x29>
    601f: a0 00        	ldy	#$0
    6021: 80 03        	bra	$6026 <donegetproc10+0x1f>
    6023: 91 04        	sta	($4),y                  ; 0x4 <__rc2>
    6025: c8           	iny
    6026: b9 15 1c     	lda	$1c15,y                 ; 0x1c15 <__heap_default_limit+0xc15>
    6029: f0 05        	beq	$6030 <donegetproc10+0x29>
    602b: cc 13 1c     	cpy	$1c13                   ; 0x1c13 <__heap_default_limit+0xc13>
    602e: 90 f3        	bcc	$6023 <donegetproc10+0x1c>
    6030: 84 04        	sty	$4                      ; 0x4 <__rc2>
    6032: a0 0e        	ldy	#$e
    6034: b1 02        	lda	($2),y                  ; 0x2 <__rc0>
    6036: 18           	clc
    6037: 65 04        	adc	$4                      ; 0x4 <__rc2>
    6039: 85 04        	sta	$4                      ; 0x4 <__rc2>
    603b: a5 20        	lda	$20                     ; 0x20 <__rc30>
    603d: 69 00        	adc	#$0
    603f: 85 05        	sta	$5                      ; 0x5 <__rc3>
    6041: a0 03        	ldy	#$3
    6043: a9 00        	lda	#$0
    6045: 91 04        	sta	($4),y                  ; 0x4 <__rc2>
    6047: 64 06        	stz	$6                      ; 0x6 <__rc4>
    6049: a5 1f        	lda	$1f                     ; 0x1f <__rc29>
    604b: 18           	clc
    604c: 65 1e        	adc	$1e                     ; 0x1e <__rc28>
    604e: 85 04        	sta	$4                      ; 0x4 <__rc2>
    6050: a5 21        	lda	$21                     ; 0x21 <__rc31>
    6052: 69 00        	adc	#$0
    6054: 85 05        	sta	$5                      ; 0x5 <__rc3>
    6056: a9 38        	lda	#$38
    6058: 18           	clc
    6059: 65 04        	adc	$4                      ; 0x4 <__rc2>
    605b: 85 1a        	sta	$1a                     ; 0x1a <__rc24>
    605d: a9 7c        	lda	#$7c
    605f: 65 05        	adc	$5                      ; 0x5 <__rc3>
    6061: 85 1b        	sta	$1b                     ; 0x1b <__rc25>
    6063: a0 47        	ldy	#$47
    6065: b1 1c        	lda	($1c),y                 ; 0x1c <__rc26>
    6067: a2 00        	ldx	#$0
    6069: 86 04        	stx	$4                      ; 0x4 <__rc2>
    606b: a2 16        	ldx	#$16
    606d: 86 05        	stx	$5                      ; 0x5 <__rc3>
    606f: aa           	tax
    6070: a5 16        	lda	$16                     ; 0x16 <__rc20>
    6072: 20 e0 4b     	jsr	$4be0 <GetOneSector>
    6075: c9 02        	cmp	#$2
    6077: b0 18        	bcs	$6091 <donegetproc10+0x8a>
    6079: a0 00        	ldy	#$0
    607b: 80 03        	bra	$6080 <donegetproc10+0x79>
    607d: 91 1a        	sta	($1a),y                 ; 0x1a <__rc24>
    607f: c8           	iny
    6080: b9 04 16     	lda	$1604,y                 ; 0x1604 <__heap_default_limit+0x604>
    6083: c9 a0        	cmp	#$a0
    6085: f0 04        	beq	$608b <donegetproc10+0x84>
    6087: c0 10        	cpy	#$10
    6089: 90 f2        	bcc	$607d <donegetproc10+0x76>
    608b: a9 00        	lda	#$0
    608d: 91 1a        	sta	($1a),y                 ; 0x1a <__rc24>
    608f: 80 13        	bra	$60a4 <donegetproc10+0x9d>
    6091: a2 d1        	ldx	#$d1
    6093: 86 04        	stx	$4                      ; 0x4 <__rc2>
    6095: a2 70        	ldx	#$70
    6097: 86 05        	stx	$5                      ; 0x5 <__rc3>
    6099: a6 1a        	ldx	$1a                     ; 0x1a <__rc24>
    609b: 86 06        	stx	$6                      ; 0x6 <__rc4>
    609d: a6 1b        	ldx	$1b                     ; 0x1b <__rc25>
    609f: 86 07        	stx	$7                      ; 0x7 <__rc5>
    60a1: 20 50 55     	jsr	$5550 <strcopy>
    60a4: a0 47        	ldy	#$47
    60a6: b1 1c        	lda	($1c),y                 ; 0x1c <__rc26>
    60a8: a6 1e        	ldx	$1e                     ; 0x1e <__rc28>
    60aa: f0 04        	beq	$60b0 <donegetproc10+0xa9>
    60ac: a2 3a        	ldx	#$3a
    60ae: 80 02        	bra	$60b2 <donegetproc10+0xab>
    60b0: a2 38        	ldx	#$38
    60b2: 64 07        	stz	$7                      ; 0x7 <__rc5>
    60b4: 64 04        	stz	$4                      ; 0x4 <__rc2>
    60b6: a0 08        	ldy	#$8
    60b8: 84 05        	sty	$5                      ; 0x5 <__rc3>
    60ba: a0 02        	ldy	#$2
    60bc: 84 06        	sty	$6                      ; 0x6 <__rc4>
    60be: a4 16        	ldy	$16                     ; 0x16 <__rc20>
    60c0: 84 08        	sty	$8                      ; 0x8 <__rc6>
    60c2: 85 09        	sta	$9                      ; 0x9 <__rc7>
    60c4: a0 01        	ldy	#$1
    60c6: 84 0a        	sty	$a                      ; 0xa <__zp_data_size>
    60c8: a9 00        	lda	#$0
    60ca: 20 8d 4d     	jsr	$4d8d <readblockchain>
    60cd: c9 02        	cmp	#$2
    60cf: b0 03        	bcs	$60d4 <donegetproc10+0xcd>
    60d1: 4c 8c 63     	jmp	$638c <donehypreaddir13+0x16a>
    60d4: a0 46        	ldy	#$46
    60d6: a9 fe        	lda	#$fe
    60d8: 31 1c        	and	($1c),y                 ; 0x1c <__rc26>
    60da: 91 1c        	sta	($1c),y                 ; 0x1c <__rc26>
    60dc: a6 1f        	ldx	$1f                     ; 0x1f <__rc29>
    60de: 86 06        	stx	$6                      ; 0x6 <__rc4>
    60e0: a6 20        	ldx	$20                     ; 0x20 <__rc30>
    60e2: 86 08        	stx	$8                      ; 0x8 <__rc6>
    60e4: a0 0e        	ldy	#$e
    60e6: b1 02        	lda	($2),y                  ; 0x2 <__rc0>
    60e8: 85 1a        	sta	$1a                     ; 0x1a <__rc24>
    60ea: a6 08        	ldx	$8                      ; 0x8 <__rc6>
    60ec: 86 16        	stx	$16                     ; 0x16 <__rc20>
    60ee: a5 06        	lda	$6                      ; 0x6 <__rc4>
    60f0: 18           	clc
    60f1: 65 1e        	adc	$1e                     ; 0x1e <__rc28>
    60f3: 85 04        	sta	$4                      ; 0x4 <__rc2>
    60f5: a5 21        	lda	$21                     ; 0x21 <__rc31>
    60f7: 69 00        	adc	#$0
    60f9: 85 05        	sta	$5                      ; 0x5 <__rc3>
    60fb: a9 38        	lda	#$38
    60fd: 18           	clc
    60fe: 65 04        	adc	$4                      ; 0x4 <__rc2>
    6100: 85 06        	sta	$6                      ; 0x6 <__rc4>
    6102: a9 7c        	lda	#$7c
    6104: 65 05        	adc	$5                      ; 0x5 <__rc3>
    6106: 85 07        	sta	$7                      ; 0x7 <__rc5>
    6108: a2 ff        	ldx	#$ff
    610a: 8a           	txa
    610b: a0 0c        	ldy	#$c
    610d: 91 02        	sta	($2),y                  ; 0x2 <__rc0>
    610f: a2 c8        	ldx	#$c8
    6111: 86 04        	stx	$4                      ; 0x4 <__rc2>
    6113: a2 71        	ldx	#$71
    6115: 86 05        	stx	$5                      ; 0x5 <__rc3>
    6117: 20 50 55     	jsr	$5550 <strcopy>
    611a: a5 1a        	lda	$1a                     ; 0x1a <__rc24>
    611c: 18           	clc
    611d: 69 03        	adc	#$3
    611f: 85 06        	sta	$6                      ; 0x6 <__rc4>
    6121: a5 16        	lda	$16                     ; 0x16 <__rc20>
    6123: 69 00        	adc	#$0
    6125: 85 07        	sta	$7                      ; 0x7 <__rc5>
    6127: a2 c8        	ldx	#$c8
    6129: 86 04        	stx	$4                      ; 0x4 <__rc2>
    612b: a2 71        	ldx	#$71
    612d: 86 05        	stx	$5                      ; 0x5 <__rc3>
    612f: 20 50 55     	jsr	$5550 <strcopy>
    6132: a2 00        	ldx	#$0
    6134: a9 04        	lda	#$4
    6136: 8d 40 d6     	sta	$d640                   ; 0xd640 <__heap_start+0x56a8>
    6139: b8           	clv
    613a: 90 05        	bcc	$6141 <errgetcurdrv11>
    613c: 85 04        	sta	$4                      ; 0x4 <__rc2>
    613e: 4c 45 61     	jmp	$6145 <donegetcurdrv11>

00006141 <errgetcurdrv11>:
    6141: a9 ff        	lda	#$ff
    6143: 85 04        	sta	$4                      ; 0x4 <__rc2>

00006145 <donegetcurdrv11>:
    6145: ea           	nop
    6146: a6 04        	ldx	$4                      ; 0x4 <__rc2>
    6148: e0 ff        	cpx	#$ff
    614a: d0 03        	bne	$614f <donegetcurdrv11+0xa>
    614c: 4c e9 64     	jmp	$64e9 <donehypclosedir14+0x1>
    614f: a2 00        	ldx	#$0
    6151: a9 12        	lda	#$12
    6153: 8d 40 d6     	sta	$d640                   ; 0xd640 <__heap_start+0x56a8>
    6156: b8           	clv
    6157: 90 05        	bcc	$615e <errhypopendir12>
    6159: 85 04        	sta	$4                      ; 0x4 <__rc2>
    615b: 4c 62 61     	jmp	$6162 <donehypopendir12>

0000615e <errhypopendir12>:
    615e: a9 ff        	lda	#$ff
    6160: 85 04        	sta	$4                      ; 0x4 <__rc2>

00006162 <donehypopendir12>:
    6162: ea           	nop
    6163: a6 04        	ldx	$4                      ; 0x4 <__rc2>
    6165: e0 84        	cpx	#$84
    6167: d0 03        	bne	$616c <donehypopendir12+0xa>
    6169: 4c e9 64     	jmp	$64e9 <donehypclosedir14+0x1>
    616c: a4 20        	ldy	$20                     ; 0x20 <__rc30>
    616e: e0 87        	cpx	#$87
    6170: d0 03        	bne	$6175 <donehypopendir12+0x13>
    6172: 4c cc 64     	jmp	$64cc <donehypreaddir13+0x2aa>
    6175: 98           	tya
    6176: e0 ff        	cpx	#$ff
    6178: d0 03        	bne	$617d <donehypopendir12+0x1b>
    617a: 4c eb 64     	jmp	$64eb <donehypclosedir14+0x3>
    617d: 86 1e        	stx	$1e                     ; 0x1e <__rc28>
    617f: a9 00        	lda	#$0
    6181: 48           	pha
    6182: a0 09        	ldy	#$9
    6184: b1 02        	lda	($2),y                  ; 0x2 <__rc0>
    6186: c9 01        	cmp	#$1
    6188: 68           	pla
    6189: 2a           	rol
    618a: 85 04        	sta	$4                      ; 0x4 <__rc2>
    618c: a9 00        	lda	#$0
    618e: 2a           	rol
    618f: 85 05        	sta	$5                      ; 0x5 <__rc3>
    6191: a6 04        	ldx	$4                      ; 0x4 <__rc2>
    6193: 86 08        	stx	$8                      ; 0x8 <__rc6>
    6195: 48           	pha
    6196: 88           	dey
    6197: b1 02        	lda	($2),y                  ; 0x2 <__rc0>
    6199: c9 01        	cmp	#$1
    619b: 68           	pla
    619c: 26 08        	rol	$8                      ; 0x8 <__rc6>
    619e: 85 09        	sta	$9                      ; 0x9 <__rc7>
    61a0: 26 09        	rol	$9                      ; 0x9 <__rc7>
    61a2: a0 0a        	ldy	#$a
    61a4: b1 02        	lda	($2),y                  ; 0x2 <__rc0>
    61a6: c9 01        	cmp	#$1
    61a8: 26 08        	rol	$8                      ; 0x8 <__rc6>
    61aa: 26 09        	rol	$9                      ; 0x9 <__rc7>
    61ac: c8           	iny
    61ad: b1 02        	lda	($2),y                  ; 0x2 <__rc0>
    61af: c9 01        	cmp	#$1
    61b1: 26 08        	rol	$8                      ; 0x8 <__rc6>
    61b3: 26 09        	rol	$9                      ; 0x9 <__rc7>
    61b5: 38           	sec
    61b6: a5 1f        	lda	$1f                     ; 0x1f <__rc29>
    61b8: e5 17        	sbc	$17                     ; 0x17 <__rc21>
    61ba: c8           	iny
    61bb: 91 02        	sta	($2),y                  ; 0x2 <__rc0>
    61bd: a5 08        	lda	$8                      ; 0x8 <__rc6>
    61bf: e5 04        	sbc	$4                      ; 0x4 <__rc2>
    61c1: 88           	dey
    61c2: 91 02        	sta	($2),y                  ; 0x2 <__rc0>
    61c4: a5 09        	lda	$9                      ; 0x9 <__rc7>
    61c6: e5 05        	sbc	$5                      ; 0x5 <__rc3>
    61c8: 88           	dey
    61c9: 91 02        	sta	($2),y                  ; 0x2 <__rc0>
    61cb: 09 08        	ora	#$8
    61cd: 88           	dey
    61ce: 91 02        	sta	($2),y                  ; 0x2 <__rc0>
    61d0: a2 ff        	ldx	#$ff
    61d2: a0 00        	ldy	#$0
    61d4: 64 16        	stz	$16                     ; 0x16 <__rc20>
    61d6: 84 04        	sty	$4                      ; 0x4 <__rc2>
    61d8: a9 01        	lda	#$1
    61da: 86 21        	stx	$21                     ; 0x21 <__rc31>
    61dc: e0 00        	cpx	#$0
    61de: f0 02        	beq	$61e2 <donehypopendir12+0x80>
    61e0: a9 00        	lda	#$0
    61e2: a6 16        	ldx	$16                     ; 0x16 <__rc20>
    61e4: e0 70        	cpx	#$70
    61e6: a2 01        	ldx	#$1
    61e8: a0 01        	ldy	#$1
    61ea: b0 01        	bcs	$61ed <donehypopendir12+0x8b>
    61ec: a8           	tay
    61ed: a5 04        	lda	$4                      ; 0x4 <__rc2>
    61ef: c9 85        	cmp	#$85
    61f1: f0 02        	beq	$61f5 <donehypopendir12+0x93>
    61f3: a2 00        	ldx	#$0
    61f5: a9 01        	lda	#$1
    61f7: c0 00        	cpy	#$0
    61f9: d0 01        	bne	$61fc <donehypopendir12+0x9a>
    61fb: 8a           	txa
    61fc: aa           	tax
    61fd: f0 03        	beq	$6202 <donehypopendir12+0xa0>
    61ff: 4c cf 64     	jmp	$64cf <donehypreaddir13+0x2ad>
    6202: a4 1e        	ldy	$1e                     ; 0x1e <__rc28>
    6204: da           	phx
    6205: a2 00        	ldx	#$0
    6207: 8a           	txa

00006208 <hypreaddirloop13>:
    6208: 9d 00 1a     	sta	$1a00,x                 ; 0x1a00 <__heap_default_limit+0xa00>
    620b: ca           	dex
    620c: d0 fa        	bne	$6208 <hypreaddirloop13>
    620e: fa           	plx
    620f: 98           	tya
    6210: aa           	tax
    6211: a0 1a        	ldy	#$1a
    6213: a9 14        	lda	#$14
    6215: 8d 40 d6     	sta	$d640                   ; 0xd640 <__heap_start+0x56a8>
    6218: b8           	clv
    6219: 90 05        	bcc	$6220 <errhypreaddir13>
    621b: 86 04        	stx	$4                      ; 0x4 <__rc2>
    621d: 4c 22 62     	jmp	$6222 <donehypreaddir13>

00006220 <errhypreaddir13>:
    6220: 85 04        	sta	$4                      ; 0x4 <__rc2>

00006222 <donehypreaddir13>:
    6222: ea           	nop
    6223: ae 40 1a     	ldx	$1a40                   ; 0x1a40 <__heap_default_limit+0xa40>
    6226: e0 40        	cpx	#$40
    6228: a0 3f        	ldy	#$3f
    622a: 84 06        	sty	$6                      ; 0x6 <__rc4>
    622c: a0 1a        	ldy	#$1a
    622e: 84 07        	sty	$7                      ; 0x7 <__rc5>
    6230: b0 0f        	bcs	$6241 <donehypreaddir13+0x1f>
    6232: 86 05        	stx	$5                      ; 0x5 <__rc3>
    6234: a9 00        	lda	#$0
    6236: 18           	clc
    6237: 65 05        	adc	$5                      ; 0x5 <__rc3>
    6239: 85 06        	sta	$6                      ; 0x6 <__rc4>
    623b: a9 1a        	lda	#$1a
    623d: 69 00        	adc	#$0
    623f: 85 07        	sta	$7                      ; 0x7 <__rc5>
    6241: a4 04        	ldy	$4                      ; 0x4 <__rc2>
    6243: a9 00        	lda	#$0
    6245: 92 06        	sta	($6),z                  ; 0x6 <__rc4>
    6247: c0 85        	cpy	#$85
    6249: f0 04        	beq	$624f <donehypreaddir13+0x2d>
    624b: c0 ff        	cpy	#$ff
    624d: d0 0e        	bne	$625d <donehypreaddir13+0x3b>
    624f: a2 20        	ldx	#$20
    6251: 8e ec 7a     	stx	$7aec                   ; 0x7aec <direntryblock2+0x5>
    6254: 9c ed 7a     	stz	$7aed                   ; 0x7aed <direntryblock2+0x6>
    6257: a6 21        	ldx	$21                     ; 0x21 <__rc31>
    6259: ca           	dex
    625a: 4c d6 61     	jmp	$61d6 <donehypopendir12+0x74>
    625d: a9 10        	lda	#$10
    625f: 2d 56 1a     	and	$1a56                   ; 0x1a56 <__heap_default_limit+0xa56>
    6262: d0 1b        	bne	$627f <donehypreaddir13+0x5d>
    6264: ae 49 1a     	ldx	$1a49                   ; 0x1a49 <__heap_default_limit+0xa49>
    6267: e0 64        	cpx	#$64
    6269: f0 04        	beq	$626f <donehypreaddir13+0x4d>
    626b: e0 44        	cpx	#$44
    626d: d0 e0        	bne	$624f <donehypreaddir13+0x2d>
    626f: ae 4a 1a     	ldx	$1a4a                   ; 0x1a4a <__heap_default_limit+0xa4a>
    6272: e0 38        	cpx	#$38
    6274: d0 d9        	bne	$624f <donehypreaddir13+0x2d>
    6276: ae 4b 1a     	ldx	$1a4b                   ; 0x1a4b <__heap_default_limit+0xa4b>
    6279: e0 31        	cpx	#$31
    627b: d0 d2        	bne	$624f <donehypreaddir13+0x2d>
    627d: 80 0e        	bra	$628d <donehypreaddir13+0x6b>
    627f: ae 41 1a     	ldx	$1a41                   ; 0x1a41 <__heap_default_limit+0xa41>
    6282: e0 2e        	cpx	#$2e
    6284: d0 07        	bne	$628d <donehypreaddir13+0x6b>
    6286: ae 42 1a     	ldx	$1a42                   ; 0x1a42 <__heap_default_limit+0xa42>
    6289: e0 20        	cpx	#$20
    628b: f0 d7        	beq	$6264 <donehypreaddir13+0x42>
    628d: 84 18        	sty	$18                     ; 0x18 <__rc22>
    628f: 20 a6 48     	jsr	$48a6 <getsfn>
    6292: 20 a6 48     	jsr	$48a6 <getsfn>
    6295: a2 ec        	ldx	#$ec
    6297: 86 04        	stx	$4                      ; 0x4 <__rc2>
    6299: a2 7a        	ldx	#$7a
    629b: 86 05        	stx	$5                      ; 0x5 <__rc3>
    629d: a2 41        	ldx	#$41
    629f: 86 06        	stx	$6                      ; 0x6 <__rc4>
    62a1: a2 1c        	ldx	#$1c
    62a3: 86 07        	stx	$7                      ; 0x7 <__rc5>
    62a5: 20 b9 6a     	jsr	$6ab9 <strcpy>
    62a8: ae 4e 1a     	ldx	$1a4e                   ; 0x1a4e <__heap_default_limit+0xa4e>
    62ab: ac 50 1a     	ldy	$1a50                   ; 0x1a50 <__heap_default_limit+0xa50>
    62ae: a9 80        	lda	#$80
    62b0: 0d 51 1a     	ora	$1a51                   ; 0x1a51 <__heap_default_limit+0xa51>
    62b3: 8d e7 7a     	sta	$7ae7                   ; 0x7ae7 <direntryblock2>
    62b6: 8c e8 7a     	sty	$7ae8                   ; 0x7ae8 <direntryblock2+0x1>
    62b9: a9 80        	lda	#$80
    62bb: 0d 4f 1a     	ora	$1a4f                   ; 0x1a4f <__heap_default_limit+0xa4f>
    62be: 8d ea 7a     	sta	$7aea                   ; 0x7aea <direntryblock2+0x3>
    62c1: 8e eb 7a     	stx	$7aeb                   ; 0x7aeb <direntryblock2+0x4>
    62c4: a9 40        	lda	#$40
    62c6: 0d 56 1a     	ora	$1a56                   ; 0x1a56 <__heap_default_limit+0xa56>
    62c9: 8d e9 7a     	sta	$7ae9                   ; 0x7ae9 <direntryblock2+0x2>
    62cc: ae 53 1a     	ldx	$1a53                   ; 0x1a53 <__heap_default_limit+0xa53>
    62cf: 86 04        	stx	$4                      ; 0x4 <__rc2>
    62d1: ae 54 1a     	ldx	$1a54                   ; 0x1a54 <__heap_default_limit+0xa54>
    62d4: 86 05        	stx	$5                      ; 0x5 <__rc3>
    62d6: ad 55 1a     	lda	$1a55                   ; 0x1a55 <__heap_default_limit+0xa55>
    62d9: 4a           	lsr
    62da: 66 05        	ror	$5                      ; 0x5 <__rc3>
    62dc: 66 04        	ror	$4                      ; 0x4 <__rc2>
    62de: 4a           	lsr
    62df: a5 05        	lda	$5                      ; 0x5 <__rc3>
    62e1: 6a           	ror
    62e2: 66 04        	ror	$4                      ; 0x4 <__rc2>
    62e4: a6 04        	ldx	$4                      ; 0x4 <__rc2>
    62e6: 8e 05 7b     	stx	$7b05                   ; 0x7b05 <direntryblock2+0x1e>
    62e9: 8d 06 7b     	sta	$7b06                   ; 0x7b06 <direntryblock2+0x1f>
    62ec: a6 16        	ldx	$16                     ; 0x16 <__rc20>
    62ee: 86 1f        	stx	$1f                     ; 0x1f <__rc29>
    62f0: a5 16        	lda	$16                     ; 0x16 <__rc20>
    62f2: 4a           	lsr
    62f3: 64 04        	stz	$4                      ; 0x4 <__rc2>
    62f5: 66 04        	ror	$4                      ; 0x4 <__rc2>
    62f7: 4a           	lsr
    62f8: 66 04        	ror	$4                      ; 0x4 <__rc2>
    62fa: 4a           	lsr
    62fb: 85 16        	sta	$16                     ; 0x16 <__rc20>
    62fd: 66 04        	ror	$4                      ; 0x4 <__rc2>
    62ff: a6 04        	ldx	$4                      ; 0x4 <__rc2>
    6301: 86 17        	stx	$17                     ; 0x17 <__rc21>
    6303: a9 00        	lda	#$0
    6305: 18           	clc
    6306: 65 04        	adc	$4                      ; 0x4 <__rc2>
    6308: 85 06        	sta	$6                      ; 0x6 <__rc4>
    630a: a0 0c        	ldy	#$c
    630c: b1 02        	lda	($2),y                  ; 0x2 <__rc0>
    630e: 85 1b        	sta	$1b                     ; 0x1b <__rc25>
    6310: 65 16        	adc	$16                     ; 0x16 <__rc20>
    6312: 85 07        	sta	$7                      ; 0x7 <__rc5>
    6314: 88           	dey
    6315: b1 02        	lda	($2),y                  ; 0x2 <__rc0>
    6317: 85 1a        	sta	$1a                     ; 0x1a <__rc24>
    6319: 69 00        	adc	#$0
    631b: 85 08        	sta	$8                      ; 0x8 <__rc6>
    631d: a0 09        	ldy	#$9
    631f: b1 02        	lda	($2),y                  ; 0x2 <__rc0>
    6321: 69 00        	adc	#$0
    6323: 9c 07 7b     	stz	$7b07                   ; 0x7b07 <direntryblock2+0x20>
    6326: 64 04        	stz	$4                      ; 0x4 <__rc2>
    6328: 64 05        	stz	$5                      ; 0x5 <__rc3>
    632a: 85 09        	sta	$9                      ; 0x9 <__rc7>
    632c: a2 20        	ldx	#$20
    632e: 86 0a        	stx	$a                      ; 0xa <__zp_data_size>
    6330: 64 0b        	stz	$b                      ; 0xb <__rc9>
    6332: a2 7a        	ldx	#$7a
    6334: a9 e7        	lda	#$e7
    6336: 20 a6 69     	jsr	$69a6 <lcopy>
    6339: 06 17        	asl	$17                     ; 0x17 <__rc21>
    633b: 26 16        	rol	$16                     ; 0x16 <__rc20>
    633d: a9 00        	lda	#$0
    633f: 18           	clc
    6340: 65 17        	adc	$17                     ; 0x17 <__rc21>
    6342: aa           	tax
    6343: a5 1b        	lda	$1b                     ; 0x1b <__rc25>
    6345: 65 16        	adc	$16                     ; 0x16 <__rc20>
    6347: a8           	tay
    6348: a5 1a        	lda	$1a                     ; 0x1a <__rc24>
    634a: 69 00        	adc	#$0
    634c: 85 07        	sta	$7                      ; 0x7 <__rc5>
    634e: 5a           	phy
    634f: a0 0a        	ldy	#$a
    6351: b1 02        	lda	($2),y                  ; 0x2 <__rc0>
    6353: 7a           	ply
    6354: 69 00        	adc	#$0
    6356: 85 04        	sta	$4                      ; 0x4 <__rc2>
    6358: 18           	clc
    6359: 8a           	txa
    635a: 69 00        	adc	#$0
    635c: 85 06        	sta	$6                      ; 0x6 <__rc4>
    635e: 98           	tya
    635f: 69 1c        	adc	#$1c
    6361: aa           	tax
    6362: a5 07        	lda	$7                      ; 0x7 <__rc5>
    6364: 69 00        	adc	#$0
    6366: 85 08        	sta	$8                      ; 0x8 <__rc6>
    6368: a5 04        	lda	$4                      ; 0x4 <__rc2>
    636a: 69 08        	adc	#$8
    636c: 86 07        	stx	$7                      ; 0x7 <__rc5>
    636e: 64 04        	stz	$4                      ; 0x4 <__rc2>
    6370: 64 05        	stz	$5                      ; 0x5 <__rc3>
    6372: 85 09        	sta	$9                      ; 0x9 <__rc7>
    6374: a2 40        	ldx	#$40
    6376: 86 0a        	stx	$a                      ; 0xa <__zp_data_size>
    6378: 64 0b        	stz	$b                      ; 0xb <__rc9>
    637a: a2 1a        	ldx	#$1a
    637c: a9 00        	lda	#$0
    637e: 20 a6 69     	jsr	$69a6 <lcopy>
    6381: a4 18        	ldy	$18                     ; 0x18 <__rc22>
    6383: e6 1f        	inc	$1f                     ; 0x1f <__rc29>
    6385: a6 1f        	ldx	$1f                     ; 0x1f <__rc29>
    6387: 86 16        	stx	$16                     ; 0x16 <__rc20>
    6389: 4c 57 62     	jmp	$6257 <donehypreaddir13+0x35>
    638c: a5 1e        	lda	$1e                     ; 0x1e <__rc28>
    638e: 20 f8 4c     	jsr	$4cf8 <GetBAM>
    6391: a0 10        	ldy	#$10
    6393: 64 06        	stz	$6                      ; 0x6 <__rc4>
    6395: 64 08        	stz	$8                      ; 0x8 <__rc6>
    6397: a5 20        	lda	$20                     ; 0x20 <__rc30>
    6399: a2 00        	ldx	#$0
    639b: 4c e8 63     	jmp	$63e8 <donehypreaddir13+0x1c6>
    639e: 8a           	txa
    639f: 18           	clc
    63a0: 69 d8        	adc	#$d8
    63a2: 5a           	phy
    63a3: a0 00        	ldy	#$0
    63a5: 84 18        	sty	$18                     ; 0x18 <__rc22>
    63a7: a0 17        	ldy	#$17
    63a9: 84 19        	sty	$19                     ; 0x19 <__rc23>
    63ab: 7a           	ply
    63ac: 0a           	asl
    63ad: 85 04        	sta	$4                      ; 0x4 <__rc2>
    63af: a9 00        	lda	#$0
    63b1: 2a           	rol
    63b2: 85 05        	sta	$5                      ; 0x5 <__rc3>
    63b4: a5 04        	lda	$4                      ; 0x4 <__rc2>
    63b6: 0a           	asl
    63b7: 85 07        	sta	$7                      ; 0x7 <__rc5>
    63b9: a5 05        	lda	$5                      ; 0x5 <__rc3>
    63bb: 2a           	rol
    63bc: 85 09        	sta	$9                      ; 0x9 <__rc7>
    63be: a5 07        	lda	$7                      ; 0x7 <__rc5>
    63c0: 18           	clc
    63c1: 65 04        	adc	$4                      ; 0x4 <__rc2>
    63c3: 85 04        	sta	$4                      ; 0x4 <__rc2>
    63c5: a5 09        	lda	$9                      ; 0x9 <__rc7>
    63c7: 65 05        	adc	$5                      ; 0x5 <__rc3>
    63c9: 85 05        	sta	$5                      ; 0x5 <__rc3>
    63cb: a5 04        	lda	$4                      ; 0x4 <__rc2>
    63cd: 18           	clc
    63ce: 65 18        	adc	$18                     ; 0x18 <__rc22>
    63d0: 85 04        	sta	$4                      ; 0x4 <__rc2>
    63d2: a5 05        	lda	$5                      ; 0x5 <__rc3>
    63d4: 65 19        	adc	$19                     ; 0x19 <__rc23>
    63d6: 85 05        	sta	$5                      ; 0x5 <__rc3>
    63d8: 18           	clc
    63d9: a5 06        	lda	$6                      ; 0x6 <__rc4>
    63db: 71 04        	adc	($4),y                  ; 0x4 <__rc2>
    63dd: 85 06        	sta	$6                      ; 0x6 <__rc4>
    63df: a5 08        	lda	$8                      ; 0x8 <__rc6>
    63e1: 69 00        	adc	#$0
    63e3: 85 08        	sta	$8                      ; 0x8 <__rc6>
    63e5: e8           	inx
    63e6: a5 20        	lda	$20                     ; 0x20 <__rc30>
    63e8: e0 50        	cpx	#$50
    63ea: f0 0f        	beq	$63fb <donehypreaddir13+0x1d9>
    63ec: e0 28        	cpx	#$28
    63ee: 90 03        	bcc	$63f3 <donehypreaddir13+0x1d1>
    63f0: 4c 9e 63     	jmp	$639e <donehypreaddir13+0x17c>
    63f3: 8a           	txa
    63f4: e0 27        	cpx	#$27
    63f6: f0 ed        	beq	$63e5 <donehypreaddir13+0x1c3>
    63f8: 4c ac 63     	jmp	$63ac <donehypreaddir13+0x18a>
    63fb: 18           	clc
    63fc: aa           	tax
    63fd: a0 0e        	ldy	#$e
    63ff: b1 02        	lda	($2),y                  ; 0x2 <__rc0>
    6401: 69 44        	adc	#$44
    6403: 85 09        	sta	$9                      ; 0x9 <__rc7>
    6405: 8a           	txa
    6406: 69 00        	adc	#$0
    6408: aa           	tax
    6409: a0 44        	ldy	#$44
    640b: a5 06        	lda	$6                      ; 0x6 <__rc4>
    640d: 91 1c        	sta	($1c),y                 ; 0x1c <__rc26>
    640f: a9 00        	lda	#$0
    6411: 48           	pha
    6412: a0 09        	ldy	#$9
    6414: b1 02        	lda	($2),y                  ; 0x2 <__rc0>
    6416: c9 01        	cmp	#$1
    6418: 68           	pla
    6419: 2a           	rol
    641a: 64 04        	stz	$4                      ; 0x4 <__rc2>
    641c: 26 04        	rol	$4                      ; 0x4 <__rc2>
    641e: 85 05        	sta	$5                      ; 0x5 <__rc3>
    6420: a4 04        	ldy	$4                      ; 0x4 <__rc2>
    6422: 84 0b        	sty	$b                      ; 0xb <__rc9>
    6424: 48           	pha
    6425: a0 08        	ldy	#$8
    6427: b1 02        	lda	($2),y                  ; 0x2 <__rc0>
    6429: c9 01        	cmp	#$1
    642b: 68           	pla
    642c: 2a           	rol
    642d: a4 04        	ldy	$4                      ; 0x4 <__rc2>
    642f: 84 0a        	sty	$a                      ; 0xa <__zp_data_size>
    6431: 26 0a        	rol	$a                      ; 0xa <__zp_data_size>
    6433: 48           	pha
    6434: a0 0a        	ldy	#$a
    6436: b1 02        	lda	($2),y                  ; 0x2 <__rc0>
    6438: c9 01        	cmp	#$1
    643a: 68           	pla
    643b: 2a           	rol
    643c: 26 0a        	rol	$a                      ; 0xa <__zp_data_size>
    643e: 48           	pha
    643f: c8           	iny
    6440: b1 02        	lda	($2),y                  ; 0x2 <__rc0>
    6442: c9 01        	cmp	#$1
    6444: 68           	pla
    6445: 2a           	rol
    6446: a8           	tay
    6447: 26 0a        	rol	$a                      ; 0xa <__zp_data_size>
    6449: 38           	sec
    644a: a5 1f        	lda	$1f                     ; 0x1f <__rc29>
    644c: e5 17        	sbc	$17                     ; 0x17 <__rc21>
    644e: 85 0c        	sta	$c                      ; 0xc <__rc10>
    6450: 98           	tya
    6451: e5 05        	sbc	$5                      ; 0x5 <__rc3>
    6453: 85 04        	sta	$4                      ; 0x4 <__rc2>
    6455: a5 0a        	lda	$a                      ; 0xa <__zp_data_size>
    6457: e5 0b        	sbc	$b                      ; 0xb <__rc9>
    6459: 85 05        	sta	$5                      ; 0x5 <__rc3>
    645b: a4 09        	ldy	$9                      ; 0x9 <__rc7>
    645d: 84 06        	sty	$6                      ; 0x6 <__rc4>
    645f: 86 07        	stx	$7                      ; 0x7 <__rc5>
    6461: a0 01        	ldy	#$1
    6463: a5 08        	lda	$8                      ; 0x8 <__rc6>
    6465: 91 06        	sta	($6),y                  ; 0x6 <__rc4>
    6467: 64 17        	stz	$17                     ; 0x17 <__rc21>
    6469: a0 47        	ldy	#$47
    646b: b1 1c        	lda	($1c),y                 ; 0x1c <__rc26>
    646d: 85 09        	sta	$9                      ; 0x9 <__rc7>
    646f: a5 05        	lda	$5                      ; 0x5 <__rc3>
    6471: 09 08        	ora	#$8
    6473: a2 0e        	ldx	#$e
    6475: a0 03        	ldy	#$3
    6477: 85 05        	sta	$5                      ; 0x5 <__rc3>
    6479: 86 06        	stx	$6                      ; 0x6 <__rc4>
    647b: 64 07        	stz	$7                      ; 0x7 <__rc5>
    647d: a6 16        	ldx	$16                     ; 0x16 <__rc20>
    647f: 86 08        	stx	$8                      ; 0x8 <__rc6>
    6481: 84 0a        	sty	$a                      ; 0xa <__zp_data_size>
    6483: a6 0c        	ldx	$c                      ; 0xc <__rc10>
    6485: a9 00        	lda	#$0
    6487: 20 8d 4d     	jsr	$4d8d <readblockchain>
    648a: c9 02        	cmp	#$2
    648c: 90 05        	bcc	$6493 <donehypreaddir13+0x271>
    648e: a9 ff        	lda	#$ff
    6490: 4c 25 65     	jmp	$6525 <donehypclosedir14+0x3d>
    6493: a2 70        	ldx	#$70
    6495: a9 71        	lda	#$71
    6497: a0 00        	ldy	#$0
    6499: 84 18        	sty	$18                     ; 0x18 <__rc22>
    649b: a0 00        	ldy	#$0
    649d: 84 19        	sty	$19                     ; 0x19 <__rc23>
    649f: 86 16        	stx	$16                     ; 0x16 <__rc20>
    64a1: a6 17        	ldx	$17                     ; 0x17 <__rc21>
    64a3: 30 e9        	bmi	$648e <donehypreaddir13+0x26c>
    64a5: 3a           	dec
    64a6: 85 1a        	sta	$1a                     ; 0x1a <__rc24>
    64a8: aa           	tax
    64a9: a5 1e        	lda	$1e                     ; 0x1e <__rc28>
    64ab: 20 6e 54     	jsr	$546e <getdirententry>
    64ae: a6 05        	ldx	$5                      ; 0x5 <__rc3>
    64b0: a0 ff        	ldy	#$ff
    64b2: c6 16        	dec	$16                     ; 0x16 <__rc20>
    64b4: c4 16        	cpy	$16                     ; 0x16 <__rc20>
    64b6: d0 02        	bne	$64ba <donehypreaddir13+0x298>
    64b8: c6 17        	dec	$17                     ; 0x17 <__rc21>
    64ba: e4 19        	cpx	$19                     ; 0x19 <__rc23>
    64bc: f0 03        	beq	$64c1 <donehypreaddir13+0x29f>
    64be: 4c 23 65     	jmp	$6523 <donehypclosedir14+0x3b>
    64c1: a6 04        	ldx	$4                      ; 0x4 <__rc2>
    64c3: a5 1a        	lda	$1a                     ; 0x1a <__rc24>
    64c5: e4 18        	cpx	$18                     ; 0x18 <__rc22>
    64c7: f0 d8        	beq	$64a1 <donehypreaddir13+0x27f>
    64c9: 4c 25 65     	jmp	$6525 <donehypclosedir14+0x3d>
    64cc: 98           	tya
    64cd: 80 1c        	bra	$64eb <donehypclosedir14+0x3>
    64cf: c6 16        	dec	$16                     ; 0x16 <__rc20>
    64d1: a5 16        	lda	$16                     ; 0x16 <__rc20>
    64d3: a0 0c        	ldy	#$c
    64d5: 91 02        	sta	($2),y                  ; 0x2 <__rc0>
    64d7: a6 1e        	ldx	$1e                     ; 0x1e <__rc28>
    64d9: a9 16        	lda	#$16
    64db: 8d 40 d6     	sta	$d640                   ; 0xd640 <__heap_start+0x56a8>
    64de: b8           	clv
    64df: 90 05        	bcc	$64e6 <errhypclosedir14>
    64e1: 86 04        	stx	$4                      ; 0x4 <__rc2>
    64e3: 4c e8 64     	jmp	$64e8 <donehypclosedir14>

000064e6 <errhypclosedir14>:
    64e6: 85 04        	sta	$4                      ; 0x4 <__rc2>

000064e8 <donehypclosedir14>:
    64e8: ea           	nop
    64e9: a5 20        	lda	$20                     ; 0x20 <__rc30>
    64eb: a0 02        	ldy	#$2
    64ed: aa           	tax
    64ee: 5a           	phy
    64ef: a0 0c        	ldy	#$c
    64f1: b1 02        	lda	($2),y                  ; 0x2 <__rc0>
    64f3: 7a           	ply
    64f4: 91 1c        	sta	($1c),y                 ; 0x1c <__rc26>
    64f6: a0 44        	ldy	#$44
    64f8: 18           	clc
    64f9: 5a           	phy
    64fa: a0 0e        	ldy	#$e
    64fc: b1 02        	lda	($2),y                  ; 0x2 <__rc0>
    64fe: 7a           	ply
    64ff: 69 44        	adc	#$44
    6501: 85 04        	sta	$4                      ; 0x4 <__rc2>
    6503: 8a           	txa
    6504: 69 00        	adc	#$0
    6506: 85 05        	sta	$5                      ; 0x5 <__rc3>
    6508: a9 ff        	lda	#$ff
    650a: 91 1c        	sta	($1c),y                 ; 0x1c <__rc26>
    650c: a0 01        	ldy	#$1
    650e: 91 04        	sta	($4),y                  ; 0x4 <__rc2>
    6510: a0 0d        	ldy	#$d
    6512: b1 02        	lda	($2),y                  ; 0x2 <__rc0>
    6514: f0 13        	beq	$6529 <donehypclosedir14+0x41>
    6516: a9 fe        	lda	#$fe
    6518: a0 44        	ldy	#$44
    651a: 91 1c        	sta	($1c),y                 ; 0x1c <__rc26>
    651c: 1a           	inc
    651d: a0 01        	ldy	#$1
    651f: 91 04        	sta	($4),y                  ; 0x4 <__rc2>
    6521: 80 06        	bra	$6529 <donehypclosedir14+0x41>
    6523: a5 1a        	lda	$1a                     ; 0x1a <__rc24>
    6525: a0 02        	ldy	#$2
    6527: 91 1c        	sta	($1c),y                 ; 0x1c <__rc26>
    6529: a0 00        	ldy	#$0
    652b: b1 02        	lda	($2),y                  ; 0x2 <__rc0>
    652d: 85 21        	sta	$21                     ; 0x21 <__rc31>
    652f: c8           	iny
    6530: b1 02        	lda	($2),y                  ; 0x2 <__rc0>
    6532: 85 20        	sta	$20                     ; 0x20 <__rc30>
    6534: c8           	iny
    6535: b1 02        	lda	($2),y                  ; 0x2 <__rc0>
    6537: 85 1f        	sta	$1f                     ; 0x1f <__rc29>
    6539: c8           	iny
    653a: b1 02        	lda	($2),y                  ; 0x2 <__rc0>
    653c: 85 1e        	sta	$1e                     ; 0x1e <__rc28>
    653e: c8           	iny
    653f: b1 02        	lda	($2),y                  ; 0x2 <__rc0>
    6541: 85 1d        	sta	$1d                     ; 0x1d <__zp_bss_size>
    6543: c8           	iny
    6544: b1 02        	lda	($2),y                  ; 0x2 <__rc0>
    6546: 85 1c        	sta	$1c                     ; 0x1c <__rc26>
    6548: c8           	iny
    6549: b1 02        	lda	($2),y                  ; 0x2 <__rc0>
    654b: 85 1b        	sta	$1b                     ; 0x1b <__rc25>
    654d: c8           	iny
    654e: b1 02        	lda	($2),y                  ; 0x2 <__rc0>
    6550: 85 1a        	sta	$1a                     ; 0x1a <__rc24>
    6552: fa           	plx
    6553: 86 19        	stx	$19                     ; 0x19 <__rc23>
    6555: fa           	plx
    6556: 86 18        	stx	$18                     ; 0x18 <__rc22>
    6558: fa           	plx
    6559: 86 17        	stx	$17                     ; 0x17 <__rc21>
    655b: fa           	plx
    655c: 86 16        	stx	$16                     ; 0x16 <__rc20>
    655e: 18           	clc
    655f: a5 02        	lda	$2                      ; 0x2 <__rc0>
    6561: 69 0f        	adc	#$f
    6563: 85 02        	sta	$2                      ; 0x2 <__rc0>
    6565: a5 03        	lda	$3                      ; 0x3 <__rc1>
    6567: 69 00        	adc	#$0
    6569: 85 03        	sta	$3                      ; 0x3 <__rc1>
    656b: 60           	rts

0000656c <Deselect>:
    656c: 0a           	asl
    656d: a0 00        	ldy	#$0
    656f: 64 04        	stz	$4                      ; 0x4 <__rc2>
    6571: 26 04        	rol	$4                      ; 0x4 <__rc2>
    6573: 0a           	asl
    6574: 26 04        	rol	$4                      ; 0x4 <__rc2>
    6576: 0a           	asl
    6577: 26 04        	rol	$4                      ; 0x4 <__rc2>
    6579: 0a           	asl
    657a: 85 05        	sta	$5                      ; 0x5 <__rc3>
    657c: 26 04        	rol	$4                      ; 0x4 <__rc2>
    657e: 0a           	asl
    657f: a6 04        	ldx	$4                      ; 0x4 <__rc2>
    6581: 86 07        	stx	$7                      ; 0x7 <__rc5>
    6583: 26 07        	rol	$7                      ; 0x7 <__rc5>
    6585: 0a           	asl
    6586: 26 07        	rol	$7                      ; 0x7 <__rc5>
    6588: 0a           	asl
    6589: 26 07        	rol	$7                      ; 0x7 <__rc5>
    658b: 38           	sec
    658c: e5 05        	sbc	$5                      ; 0x5 <__rc3>
    658e: 85 05        	sta	$5                      ; 0x5 <__rc3>
    6590: a5 07        	lda	$7                      ; 0x7 <__rc5>
    6592: e5 04        	sbc	$4                      ; 0x4 <__rc2>
    6594: 85 04        	sta	$4                      ; 0x4 <__rc2>
    6596: a9 58        	lda	#$58
    6598: 18           	clc
    6599: 65 05        	adc	$5                      ; 0x5 <__rc3>
    659b: aa           	tax
    659c: a9 7b        	lda	#$7b
    659e: 65 04        	adc	$4                      ; 0x4 <__rc2>
    65a0: 86 04        	stx	$4                      ; 0x4 <__rc2>
    65a2: 85 05        	sta	$5                      ; 0x5 <__rc3>
    65a4: 80 07        	bra	$65ad <Deselect+0x41>
    65a6: a9 fe        	lda	#$fe
    65a8: 31 04        	and	($4),y                  ; 0x4 <__rc2>
    65aa: 91 04        	sta	($4),y                  ; 0x4 <__rc2>
    65ac: c8           	iny
    65ad: c0 70        	cpy	#$70
    65af: d0 f5        	bne	$65a6 <Deselect+0x3a>
    65b1: 60           	rts

000065b2 <sizeselectcurrentifnone>:
    65b2: 85 49        	sta	$49                     ; 0x49 <__rc31+0x28>
    65b4: 0a           	asl
    65b5: aa           	tax
    65b6: a9 00        	lda	#$0
    65b8: 2a           	rol
    65b9: 85 04        	sta	$4                      ; 0x4 <__rc2>
    65bb: 8a           	txa
    65bc: 86 4f        	stx	$4f                     ; 0x4f <__rc31+0x2e>
    65be: 0a           	asl
    65bf: a6 04        	ldx	$4                      ; 0x4 <__rc2>
    65c1: 86 50        	stx	$50                     ; 0x50 <__rc31+0x2f>
    65c3: 26 04        	rol	$4                      ; 0x4 <__rc2>
    65c5: 0a           	asl
    65c6: 26 04        	rol	$4                      ; 0x4 <__rc2>
    65c8: 0a           	asl
    65c9: 85 05        	sta	$5                      ; 0x5 <__rc3>
    65cb: 26 04        	rol	$4                      ; 0x4 <__rc2>
    65cd: a6 04        	ldx	$4                      ; 0x4 <__rc2>
    65cf: 86 06        	stx	$6                      ; 0x6 <__rc4>
    65d1: 0a           	asl
    65d2: a6 04        	ldx	$4                      ; 0x4 <__rc2>
    65d4: 86 07        	stx	$7                      ; 0x7 <__rc5>
    65d6: 26 07        	rol	$7                      ; 0x7 <__rc5>
    65d8: 0a           	asl
    65d9: 26 07        	rol	$7                      ; 0x7 <__rc5>
    65db: 0a           	asl
    65dc: 26 07        	rol	$7                      ; 0x7 <__rc5>
    65de: 38           	sec
    65df: 85 53        	sta	$53                     ; 0x53 <__rc31+0x32>
    65e1: a6 05        	ldx	$5                      ; 0x5 <__rc3>
    65e3: 86 51        	stx	$51                     ; 0x51 <__rc31+0x30>
    65e5: e5 05        	sbc	$5                      ; 0x5 <__rc3>
    65e7: 85 04        	sta	$4                      ; 0x4 <__rc2>
    65e9: a6 07        	ldx	$7                      ; 0x7 <__rc5>
    65eb: 86 54        	stx	$54                     ; 0x54 <__rc31+0x33>
    65ed: a5 07        	lda	$7                      ; 0x7 <__rc5>
    65ef: a6 06        	ldx	$6                      ; 0x6 <__rc4>
    65f1: 86 52        	stx	$52                     ; 0x52 <__rc31+0x31>
    65f3: e5 06        	sbc	$6                      ; 0x6 <__rc4>
    65f5: 85 05        	sta	$5                      ; 0x5 <__rc3>
    65f7: a9 58        	lda	#$58
    65f9: 18           	clc
    65fa: 65 04        	adc	$4                      ; 0x4 <__rc2>
    65fc: 85 4b        	sta	$4b                     ; 0x4b <__rc31+0x2a>
    65fe: a9 7b        	lda	#$7b
    6600: 65 05        	adc	$5                      ; 0x5 <__rc3>
    6602: 85 4c        	sta	$4c                     ; 0x4c <__rc31+0x2b>
    6604: a9 00        	lda	#$0
    6606: 64 4d        	stz	$4d                     ; 0x4d <__rc31+0x2c>
    6608: aa           	tax
    6609: a8           	tay
    660a: 80 03        	bra	$660f <sizeselectcurrentifnone+0x5d>
    660c: c8           	iny
    660d: a5 4a        	lda	$4a                     ; 0x4a <__rc31+0x29>
    660f: c0 70        	cpy	#$70
    6611: d0 03        	bne	$6616 <sizeselectcurrentifnone+0x64>
    6613: 4c 7d 66     	jmp	$667d <sizeselectcurrentifnone+0xcb>
    6616: 85 4a        	sta	$4a                     ; 0x4a <__rc31+0x29>
    6618: a9 01        	lda	#$1
    661a: 31 4b        	and	($4b),y                 ; 0x4b <__rc31+0x2a>
    661c: f0 ee        	beq	$660c <sizeselectcurrentifnone+0x5a>
    661e: 5a           	phy
    661f: fa           	plx
    6620: a5 49        	lda	$49                     ; 0x49 <__rc31+0x28>
    6622: 84 4e        	sty	$4e                     ; 0x4e <__rc31+0x2d>
    6624: 20 6e 54     	jsr	$546e <getdirententry>
    6627: a5 04        	lda	$4                      ; 0x4 <__rc2>
    6629: 18           	clc
    662a: 69 1e        	adc	#$1e
    662c: 85 06        	sta	$6                      ; 0x6 <__rc4>
    662e: a5 05        	lda	$5                      ; 0x5 <__rc3>
    6630: 69 00        	adc	#$0
    6632: 85 07        	sta	$7                      ; 0x7 <__rc5>
    6634: 18           	clc
    6635: a5 4a        	lda	$4a                     ; 0x4a <__rc31+0x29>
    6637: a0 1e        	ldy	#$1e
    6639: 71 04        	adc	($4),y                  ; 0x4 <__rc2>
    663b: 85 4a        	sta	$4a                     ; 0x4a <__rc31+0x29>
    663d: a5 4d        	lda	$4d                     ; 0x4d <__rc31+0x2c>
    663f: a0 01        	ldy	#$1
    6641: 71 06        	adc	($6),y                  ; 0x6 <__rc4>
    6643: 85 4d        	sta	$4d                     ; 0x4d <__rc31+0x2c>
    6645: a9 0f        	lda	#$f
    6647: c8           	iny
    6648: 31 04        	and	($4),y                  ; 0x4 <__rc2>
    664a: a4 4e        	ldy	$4e                     ; 0x4e <__rc31+0x2d>
    664c: a2 01        	ldx	#$1
    664e: c9 05        	cmp	#$5
    6650: f0 03        	beq	$6655 <sizeselectcurrentifnone+0xa3>
    6652: 4c 0c 66     	jmp	$660c <sizeselectcurrentifnone+0x5a>
    6655: a9 00        	lda	#$0
    6657: a2 01        	ldx	#$1
    6659: 86 04        	stx	$4                      ; 0x4 <__rc2>
    665b: a2 75        	ldx	#$75
    665d: 86 05        	stx	$5                      ; 0x5 <__rc3>
    665f: a2 07        	ldx	#$7
    6661: 86 06        	stx	$6                      ; 0x6 <__rc4>
    6663: a2 79        	ldx	#$79
    6665: 86 07        	stx	$7                      ; 0x7 <__rc5>
    6667: a2 fd        	ldx	#$fd
    6669: 86 08        	stx	$8                      ; 0x8 <__rc6>
    666b: a2 70        	ldx	#$70
    666d: 86 09        	stx	$9                      ; 0x9 <__rc7>
    666f: 64 0a        	stz	$a                      ; 0xa <__zp_data_size>
    6671: 64 0b        	stz	$b                      ; 0xb <__rc9>
    6673: 64 0c        	stz	$c                      ; 0xc <__rc10>
    6675: aa           	tax
    6676: 20 88 58     	jsr	$5888 <messagebox>
    6679: a9 ff        	lda	#$ff
    667b: aa           	tax
    667c: 60           	rts
    667d: e0 00        	cpx	#$0
    667f: f0 03        	beq	$6684 <sizeselectcurrentifnone+0xd2>
    6681: a6 4d        	ldx	$4d                     ; 0x4d <__rc31+0x2c>
    6683: 60           	rts
    6684: 85 4c        	sta	$4c                     ; 0x4c <__rc31+0x2b>
    6686: a9 27        	lda	#$27
    6688: a6 4f        	ldx	$4f                     ; 0x4f <__rc31+0x2e>
    668a: 86 04        	stx	$4                      ; 0x4 <__rc2>
    668c: 18           	clc
    668d: 65 04        	adc	$4                      ; 0x4 <__rc2>
    668f: a8           	tay
    6690: a6 50        	ldx	$50                     ; 0x50 <__rc31+0x2f>
    6692: 86 04        	stx	$4                      ; 0x4 <__rc2>
    6694: a9 00        	lda	#$0
    6696: 65 04        	adc	$4                      ; 0x4 <__rc2>
    6698: 84 04        	sty	$4                      ; 0x4 <__rc2>
    669a: 85 05        	sta	$5                      ; 0x5 <__rc3>
    669c: b2 04        	lda	($4),z                  ; 0x4 <__rc2>
    669e: aa           	tax
    669f: a0 01        	ldy	#$1
    66a1: b1 04        	lda	($4),y                  ; 0x4 <__rc2>
    66a3: 86 04        	stx	$4                      ; 0x4 <__rc2>
    66a5: 85 05        	sta	$5                      ; 0x5 <__rc3>
    66a7: 38           	sec
    66a8: a6 51        	ldx	$51                     ; 0x51 <__rc31+0x30>
    66aa: 86 06        	stx	$6                      ; 0x6 <__rc4>
    66ac: a5 53        	lda	$53                     ; 0x53 <__rc31+0x32>
    66ae: e5 06        	sbc	$6                      ; 0x6 <__rc4>
    66b0: 85 06        	sta	$6                      ; 0x6 <__rc4>
    66b2: a6 52        	ldx	$52                     ; 0x52 <__rc31+0x31>
    66b4: 86 07        	stx	$7                      ; 0x7 <__rc5>
    66b6: a5 54        	lda	$54                     ; 0x54 <__rc31+0x33>
    66b8: e5 07        	sbc	$7                      ; 0x7 <__rc5>
    66ba: 85 07        	sta	$7                      ; 0x7 <__rc5>
    66bc: a9 58        	lda	#$58
    66be: 18           	clc
    66bf: 65 06        	adc	$6                      ; 0x6 <__rc4>
    66c1: 85 06        	sta	$6                      ; 0x6 <__rc4>
    66c3: a9 7b        	lda	#$7b
    66c5: 65 07        	adc	$7                      ; 0x7 <__rc5>
    66c7: 85 07        	sta	$7                      ; 0x7 <__rc5>
    66c9: b1 04        	lda	($4),y                  ; 0x4 <__rc2>
    66cb: a8           	tay
    66cc: a9 01        	lda	#$1
    66ce: 11 06        	ora	($6),y                  ; 0x6 <__rc4>
    66d0: 91 06        	sta	($6),y                  ; 0x6 <__rc4>
    66d2: 5a           	phy
    66d3: fa           	plx
    66d4: a5 49        	lda	$49                     ; 0x49 <__rc31+0x28>
    66d6: 20 6e 54     	jsr	$546e <getdirententry>
    66d9: a5 04        	lda	$4                      ; 0x4 <__rc2>
    66db: 18           	clc
    66dc: 69 1e        	adc	#$1e
    66de: 85 06        	sta	$6                      ; 0x6 <__rc4>
    66e0: a5 05        	lda	$5                      ; 0x5 <__rc3>
    66e2: 69 00        	adc	#$0
    66e4: 85 07        	sta	$7                      ; 0x7 <__rc5>
    66e6: a5 4c        	lda	$4c                     ; 0x4c <__rc31+0x2b>
    66e8: a0 1e        	ldy	#$1e
    66ea: 18           	clc
    66eb: 71 04        	adc	($4),y                  ; 0x4 <__rc2>
    66ed: 85 04        	sta	$4                      ; 0x4 <__rc2>
    66ef: a5 4d        	lda	$4d                     ; 0x4d <__rc31+0x2c>
    66f1: a0 01        	ldy	#$1
    66f3: 71 06        	adc	($6),y                  ; 0x6 <__rc4>
    66f5: aa           	tax
    66f6: a5 04        	lda	$4                      ; 0x4 <__rc2>
    66f8: 60           	rts

000066f9 <sidbong>:
    66f9: a2 1f        	ldx	#$1f
    66fb: 8e 02 d4     	stx	$d402                   ; 0xd402 <__heap_start+0x546a>
    66fe: 64 05        	stz	$5                      ; 0x5 <__rc3>
    6700: 9c 03 d4     	stz	$d403                   ; 0xd403 <__heap_start+0x546b>
    6703: a9 09        	lda	#$9
    6705: 8d 05 d4     	sta	$d405                   ; 0xd405 <__heap_start+0x546d>
    6708: a0 25        	ldy	#$25
    670a: 8c 00 d4     	sty	$d400                   ; 0xd400 <__heap_start+0x5468>
    670d: a0 11        	ldy	#$11
    670f: 8c 01 d4     	sty	$d401                   ; 0xd401 <__heap_start+0x5469>
    6712: 8c 04 d4     	sty	$d404                   ; 0xd404 <__heap_start+0x546c>
    6715: 8e 42 d4     	stx	$d442                   ; 0xd442 <__heap_start+0x54aa>
    6718: 9c 43 d4     	stz	$d443                   ; 0xd443 <__heap_start+0x54ab>
    671b: 8d 45 d4     	sta	$d445                   ; 0xd445 <__heap_start+0x54ad>
    671e: a2 9a        	ldx	#$9a
    6720: 8e 40 d4     	stx	$d440                   ; 0xd440 <__heap_start+0x54a8>
    6723: a2 15        	ldx	#$15
    6725: 8e 41 d4     	stx	$d441                   ; 0xd441 <__heap_start+0x54a9>
    6728: 8c 44 d4     	sty	$d444                   ; 0xd444 <__heap_start+0x54ac>
    672b: a9 40        	lda	#$40
    672d: a2 0d        	ldx	#$d
    672f: a0 03        	ldy	#$3
    6731: 84 04        	sty	$4                      ; 0x4 <__rc2>
    6733: 20 5d 6a     	jsr	$6a5d <usleep>
    6736: a2 10        	ldx	#$10
    6738: 8e 04 d4     	stx	$d404                   ; 0xd404 <__heap_start+0x546c>
    673b: 8e 44 d4     	stx	$d444                   ; 0xd444 <__heap_start+0x54ac>
    673e: 60           	rts

0000673f <escNOP>:
    673f: 60           	rts

00006740 <cputc>:
    6740: 85 04        	sta	$4                      ; 0x4 <__rc2>
    6742: a5 33        	lda	$33                     ; 0x33 <g_curX>
    6744: a6 34        	ldx	$34                     ; 0x34 <g_curY>
    6746: 4c 49 67     	jmp	$6749 <cputcxy>

00006749 <cputcxy>:
    6749: 85 78        	sta	$78                     ; 0x78 <__rc31+0x57>
    674b: a4 04        	ldy	$4                      ; 0x4 <__rc2>
    674d: 84 79        	sty	$79                     ; 0x79 <__rc31+0x58>
    674f: a5 31        	lda	$31                     ; 0x31 <g_curScreenW>
    6751: 86 77        	stx	$77                     ; 0x77 <__rc31+0x56>
    6753: 86 04        	stx	$4                      ; 0x4 <__rc2>
    6755: 64 05        	stz	$5                      ; 0x5 <__rc3>
    6757: a2 00        	ldx	#$0
    6759: 64 75        	stz	$75                     ; 0x75 <__rc31+0x54>
    675b: 20 51 6b     	jsr	$6b51 <__mulhi3>
    675e: 18           	clc
    675f: 65 78        	adc	$78                     ; 0x78 <__rc31+0x57>
    6761: 85 76        	sta	$76                     ; 0x76 <__rc31+0x55>
    6763: 8a           	txa
    6764: 69 00        	adc	#$0
    6766: 85 74        	sta	$74                     ; 0x74 <__rc31+0x53>
    6768: ad 63 d0     	lda	$d063                   ; 0xd063 <__heap_start+0x50cb>
    676b: 29 07        	and	#$7
    676d: a8           	tay
    676e: ae 62 d0     	ldx	$d062                   ; 0xd062 <__heap_start+0x50ca>
    6771: 86 06        	stx	$6                      ; 0x6 <__rc4>
    6773: ae 61 d0     	ldx	$d061                   ; 0xd061 <__heap_start+0x50c9>
    6776: 86 04        	stx	$4                      ; 0x4 <__rc2>
    6778: ae 60 d0     	ldx	$d060                   ; 0xd060 <__heap_start+0x50c8>
    677b: 86 05        	stx	$5                      ; 0x5 <__rc3>
    677d: a5 76        	lda	$76                     ; 0x76 <__rc31+0x55>
    677f: 18           	clc
    6780: 69 00        	adc	#$0
    6782: aa           	tax
    6783: a5 74        	lda	$74                     ; 0x74 <__rc31+0x53>
    6785: 65 04        	adc	$4                      ; 0x4 <__rc2>
    6787: 85 07        	sta	$7                      ; 0x7 <__rc5>
    6789: a5 06        	lda	$6                      ; 0x6 <__rc4>
    678b: 69 00        	adc	#$0
    678d: 85 04        	sta	$4                      ; 0x4 <__rc2>
    678f: 98           	tya
    6790: 69 00        	adc	#$0
    6792: 85 06        	sta	$6                      ; 0x6 <__rc4>
    6794: 8a           	txa
    6795: 18           	clc
    6796: 65 05        	adc	$5                      ; 0x5 <__rc3>
    6798: a8           	tay
    6799: a5 07        	lda	$7                      ; 0x7 <__rc5>
    679b: 69 00        	adc	#$0
    679d: 85 07        	sta	$7                      ; 0x7 <__rc5>
    679f: a5 04        	lda	$4                      ; 0x4 <__rc2>
    67a1: 69 00        	adc	#$0
    67a3: 85 04        	sta	$4                      ; 0x4 <__rc2>
    67a5: a5 06        	lda	$6                      ; 0x6 <__rc4>
    67a7: 69 00        	adc	#$0
    67a9: 85 05        	sta	$5                      ; 0x5 <__rc3>
    67ab: a6 79        	ldx	$79                     ; 0x79 <__rc31+0x58>
    67ad: 86 06        	stx	$6                      ; 0x6 <__rc4>
    67af: a6 07        	ldx	$7                      ; 0x7 <__rc5>
    67b1: 98           	tya
    67b2: 20 90 20     	jsr	$2090 <lpoke>
    67b5: a6 2b        	ldx	$2b                     ; 0x2b <g_curTextColor>
    67b7: a0 f8        	ldy	#$f8
    67b9: a9 0f        	lda	#$f
    67bb: 84 04        	sty	$4                      ; 0x4 <__rc2>
    67bd: 85 05        	sta	$5                      ; 0x5 <__rc3>
    67bf: 86 06        	stx	$6                      ; 0x6 <__rc4>
    67c1: a6 74        	ldx	$74                     ; 0x74 <__rc31+0x53>
    67c3: a5 76        	lda	$76                     ; 0x76 <__rc31+0x55>
    67c5: 20 90 20     	jsr	$2090 <lpoke>
    67c8: a6 31        	ldx	$31                     ; 0x31 <g_curScreenW>
    67ca: ca           	dex
    67cb: e0 ff        	cpx	#$ff
    67cd: d0 02        	bne	$67d1 <cputcxy+0x88>
    67cf: c6 75        	dec	$75                     ; 0x75 <__rc31+0x54>
    67d1: a5 75        	lda	$75                     ; 0x75 <__rc31+0x54>
    67d3: d0 0b        	bne	$67e0 <cputcxy+0x97>
    67d5: e4 78        	cpx	$78                     ; 0x78 <__rc31+0x57>
    67d7: d0 07        	bne	$67e0 <cputcxy+0x97>
    67d9: a4 77        	ldy	$77                     ; 0x77 <__rc31+0x56>
    67db: c8           	iny
    67dc: a2 00        	ldx	#$0
    67de: 80 05        	bra	$67e5 <cputcxy+0x9c>
    67e0: a4 77        	ldy	$77                     ; 0x77 <__rc31+0x56>
    67e2: a6 78        	ldx	$78                     ; 0x78 <__rc31+0x57>
    67e4: e8           	inx
    67e5: 86 33        	stx	$33                     ; 0x33 <g_curX>
    67e7: 84 34        	sty	$34                     ; 0x34 <g_curY>
    67e9: 60           	rts

000067ea <cputs>:
    67ea: a5 33        	lda	$33                     ; 0x33 <g_curX>
    67ec: a6 34        	ldx	$34                     ; 0x34 <g_curY>
    67ee: 4c f1 67     	jmp	$67f1 <cputsxy>

000067f1 <cputsxy>:
    67f1: 85 7f        	sta	$7f                     ; 0x7f <__rc31+0x5e>
    67f3: 86 7e        	stx	$7e                     ; 0x7e <__rc31+0x5d>
    67f5: a6 04        	ldx	$4                      ; 0x4 <__rc2>
    67f7: 86 06        	stx	$6                      ; 0x6 <__rc4>
    67f9: a6 05        	ldx	$5                      ; 0x5 <__rc3>
    67fb: 86 07        	stx	$7                      ; 0x7 <__rc5>
    67fd: a6 06        	ldx	$6                      ; 0x6 <__rc4>
    67ff: 86 7c        	stx	$7c                     ; 0x7c <__rc31+0x5b>
    6801: a6 07        	ldx	$7                      ; 0x7 <__rc5>
    6803: 86 7d        	stx	$7d                     ; 0x7d <__rc31+0x5c>
    6805: 20 f7 6a     	jsr	$6af7 <strlen>
    6808: 85 7b        	sta	$7b                     ; 0x7b <__rc31+0x5a>
    680a: a5 31        	lda	$31                     ; 0x31 <g_curScreenW>
    680c: a6 7e        	ldx	$7e                     ; 0x7e <__rc31+0x5d>
    680e: 86 04        	stx	$4                      ; 0x4 <__rc2>
    6810: 64 05        	stz	$5                      ; 0x5 <__rc3>
    6812: a2 00        	ldx	#$0
    6814: 20 51 6b     	jsr	$6b51 <__mulhi3>
    6817: 86 05        	stx	$5                      ; 0x5 <__rc3>
    6819: a6 7f        	ldx	$7f                     ; 0x7f <__rc31+0x5e>
    681b: 86 04        	stx	$4                      ; 0x4 <__rc2>
    681d: 18           	clc
    681e: 65 04        	adc	$4                      ; 0x4 <__rc2>
    6820: a8           	tay
    6821: 85 81        	sta	$81                     ; 0x81 <__rc31+0x60>
    6823: a5 05        	lda	$5                      ; 0x5 <__rc3>
    6825: 69 00        	adc	#$0
    6827: 85 80        	sta	$80                     ; 0x80 <__rc31+0x5f>
    6829: ad 63 d0     	lda	$d063                   ; 0xd063 <__heap_start+0x50cb>
    682c: 29 07        	and	#$7
    682e: 85 08        	sta	$8                      ; 0x8 <__rc6>
    6830: ae 62 d0     	ldx	$d062                   ; 0xd062 <__heap_start+0x50ca>
    6833: 86 07        	stx	$7                      ; 0x7 <__rc5>
    6835: ae 61 d0     	ldx	$d061                   ; 0xd061 <__heap_start+0x50c9>
    6838: 86 04        	stx	$4                      ; 0x4 <__rc2>
    683a: ae 60 d0     	ldx	$d060                   ; 0xd060 <__heap_start+0x50c8>
    683d: 86 05        	stx	$5                      ; 0x5 <__rc3>
    683f: 18           	clc
    6840: 98           	tya
    6841: 69 00        	adc	#$0
    6843: a8           	tay
    6844: a6 80        	ldx	$80                     ; 0x80 <__rc31+0x5f>
    6846: 8a           	txa
    6847: 65 04        	adc	$4                      ; 0x4 <__rc2>
    6849: 85 09        	sta	$9                      ; 0x9 <__rc7>
    684b: a5 07        	lda	$7                      ; 0x7 <__rc5>
    684d: 69 00        	adc	#$0
    684f: 85 04        	sta	$4                      ; 0x4 <__rc2>
    6851: a5 08        	lda	$8                      ; 0x8 <__rc6>
    6853: 69 00        	adc	#$0
    6855: aa           	tax
    6856: 18           	clc
    6857: 98           	tya
    6858: 65 05        	adc	$5                      ; 0x5 <__rc3>
    685a: 85 06        	sta	$6                      ; 0x6 <__rc4>
    685c: a5 09        	lda	$9                      ; 0x9 <__rc7>
    685e: 69 00        	adc	#$0
    6860: 85 07        	sta	$7                      ; 0x7 <__rc5>
    6862: a5 04        	lda	$4                      ; 0x4 <__rc2>
    6864: 69 00        	adc	#$0
    6866: 85 08        	sta	$8                      ; 0x8 <__rc6>
    6868: 8a           	txa
    6869: 69 00        	adc	#$0
    686b: 64 04        	stz	$4                      ; 0x4 <__rc2>
    686d: 64 05        	stz	$5                      ; 0x5 <__rc3>
    686f: 85 09        	sta	$9                      ; 0x9 <__rc7>
    6871: a6 7b        	ldx	$7b                     ; 0x7b <__rc31+0x5a>
    6873: 86 0a        	stx	$a                      ; 0xa <__zp_data_size>
    6875: 64 0b        	stz	$b                      ; 0xb <__rc9>
    6877: a6 7c        	ldx	$7c                     ; 0x7c <__rc31+0x5b>
    6879: 86 0c        	stx	$c                      ; 0xc <__rc10>
    687b: a6 7d        	ldx	$7d                     ; 0x7d <__rc31+0x5c>
    687d: a5 0c        	lda	$c                      ; 0xc <__rc10>
    687f: 20 a6 69     	jsr	$69a6 <lcopy>
    6882: a6 2b        	ldx	$2b                     ; 0x2b <g_curTextColor>
    6884: a0 f8        	ldy	#$f8
    6886: a9 0f        	lda	#$f
    6888: 84 04        	sty	$4                      ; 0x4 <__rc2>
    688a: 85 05        	sta	$5                      ; 0x5 <__rc3>
    688c: 86 06        	stx	$6                      ; 0x6 <__rc4>
    688e: a6 7b        	ldx	$7b                     ; 0x7b <__rc31+0x5a>
    6890: 86 07        	stx	$7                      ; 0x7 <__rc5>
    6892: 64 08        	stz	$8                      ; 0x8 <__rc6>
    6894: a6 80        	ldx	$80                     ; 0x80 <__rc31+0x5f>
    6896: a5 81        	lda	$81                     ; 0x81 <__rc31+0x60>
    6898: 20 0d 6a     	jsr	$6a0d <lfill>
    689b: a5 7b        	lda	$7b                     ; 0x7b <__rc31+0x5a>
    689d: a6 7f        	ldx	$7f                     ; 0x7f <__rc31+0x5e>
    689f: 86 04        	stx	$4                      ; 0x4 <__rc2>
    68a1: 18           	clc
    68a2: 65 04        	adc	$4                      ; 0x4 <__rc2>
    68a4: 85 08        	sta	$8                      ; 0x8 <__rc6>
    68a6: a9 00        	lda	#$0
    68a8: 69 00        	adc	#$0
    68aa: a6 31        	ldx	$31                     ; 0x31 <g_curScreenW>
    68ac: a0 79        	ldy	#$79
    68ae: 84 06        	sty	$6                      ; 0x6 <__rc4>
    68b0: a0 00        	ldy	#$0
    68b2: 84 07        	sty	$7                      ; 0x7 <__rc5>
    68b4: 86 04        	stx	$4                      ; 0x4 <__rc2>
    68b6: 64 05        	stz	$5                      ; 0x5 <__rc3>
    68b8: aa           	tax
    68b9: a5 08        	lda	$8                      ; 0x8 <__rc6>
    68bb: 20 f9 6c     	jsr	$6cf9 <__udivmodhi4>
    68be: a6 79        	ldx	$79                     ; 0x79 <__rc31+0x58>
    68c0: 18           	clc
    68c1: a4 7e        	ldy	$7e                     ; 0x7e <__rc31+0x5d>
    68c3: 84 04        	sty	$4                      ; 0x4 <__rc2>
    68c5: 65 04        	adc	$4                      ; 0x4 <__rc2>
    68c7: 85 34        	sta	$34                     ; 0x34 <g_curY>
    68c9: 86 33        	stx	$33                     ; 0x33 <g_curX>
    68cb: 60           	rts

000068cc <fillrect>:
    68cc: a6 04        	ldx	$4                      ; 0x4 <__rc2>
    68ce: 86 74        	stx	$74                     ; 0x74 <__rc31+0x53>
    68d0: a6 05        	ldx	$5                      ; 0x5 <__rc3>
    68d2: 86 75        	stx	$75                     ; 0x75 <__rc31+0x54>
    68d4: a0 02        	ldy	#$2
    68d6: b1 04        	lda	($4),y                  ; 0x4 <__rc2>
    68d8: 38           	sec
    68d9: f2 04        	sbc	($4),z                  ; 0x4 <__rc2>
    68db: 85 77        	sta	$77                     ; 0x77 <__rc31+0x56>
    68dd: 88           	dey
    68de: b1 04        	lda	($4),y                  ; 0x4 <__rc2>
    68e0: 85 76        	sta	$76                     ; 0x76 <__rc31+0x55>
    68e2: 4c 6a 69     	jmp	$696a <fillrect+0x9e>
    68e5: a5 31        	lda	$31                     ; 0x31 <g_curScreenW>
    68e7: a6 76        	ldx	$76                     ; 0x76 <__rc31+0x55>
    68e9: 86 04        	stx	$4                      ; 0x4 <__rc2>
    68eb: 64 05        	stz	$5                      ; 0x5 <__rc3>
    68ed: a2 00        	ldx	#$0
    68ef: 20 51 6b     	jsr	$6b51 <__mulhi3>
    68f2: 18           	clc
    68f3: 72 74        	adc	($74),z                 ; 0x74 <__rc31+0x53>
    68f5: 85 78        	sta	$78                     ; 0x78 <__rc31+0x57>
    68f7: 8a           	txa
    68f8: 69 00        	adc	#$0
    68fa: 85 79        	sta	$79                     ; 0x79 <__rc31+0x58>
    68fc: ad 63 d0     	lda	$d063                   ; 0xd063 <__heap_start+0x50cb>
    68ff: 29 07        	and	#$7
    6901: a8           	tay
    6902: ae 62 d0     	ldx	$d062                   ; 0xd062 <__heap_start+0x50ca>
    6905: 86 07        	stx	$7                      ; 0x7 <__rc5>
    6907: ae 61 d0     	ldx	$d061                   ; 0xd061 <__heap_start+0x50c9>
    690a: 86 04        	stx	$4                      ; 0x4 <__rc2>
    690c: ae 60 d0     	ldx	$d060                   ; 0xd060 <__heap_start+0x50c8>
    690f: 86 05        	stx	$5                      ; 0x5 <__rc3>
    6911: a5 78        	lda	$78                     ; 0x78 <__rc31+0x57>
    6913: 18           	clc
    6914: 69 00        	adc	#$0
    6916: 85 06        	sta	$6                      ; 0x6 <__rc4>
    6918: a5 79        	lda	$79                     ; 0x79 <__rc31+0x58>
    691a: 65 04        	adc	$4                      ; 0x4 <__rc2>
    691c: 85 08        	sta	$8                      ; 0x8 <__rc6>
    691e: a5 07        	lda	$7                      ; 0x7 <__rc5>
    6920: 69 00        	adc	#$0
    6922: 85 04        	sta	$4                      ; 0x4 <__rc2>
    6924: 98           	tya
    6925: 69 00        	adc	#$0
    6927: aa           	tax
    6928: 18           	clc
    6929: a5 06        	lda	$6                      ; 0x6 <__rc4>
    692b: 65 05        	adc	$5                      ; 0x5 <__rc3>
    692d: a8           	tay
    692e: a5 08        	lda	$8                      ; 0x8 <__rc6>
    6930: 69 00        	adc	#$0
    6932: 85 09        	sta	$9                      ; 0x9 <__rc7>
    6934: a5 04        	lda	$4                      ; 0x4 <__rc2>
    6936: 69 00        	adc	#$0
    6938: 85 04        	sta	$4                      ; 0x4 <__rc2>
    693a: 8a           	txa
    693b: 69 00        	adc	#$0
    693d: 85 05        	sta	$5                      ; 0x5 <__rc3>
    693f: a2 20        	ldx	#$20
    6941: 86 06        	stx	$6                      ; 0x6 <__rc4>
    6943: a6 77        	ldx	$77                     ; 0x77 <__rc31+0x56>
    6945: 86 07        	stx	$7                      ; 0x7 <__rc5>
    6947: 64 08        	stz	$8                      ; 0x8 <__rc6>
    6949: a6 09        	ldx	$9                      ; 0x9 <__rc7>
    694b: 98           	tya
    694c: 20 0d 6a     	jsr	$6a0d <lfill>
    694f: a2 f8        	ldx	#$f8
    6951: 86 04        	stx	$4                      ; 0x4 <__rc2>
    6953: a2 0f        	ldx	#$f
    6955: 86 05        	stx	$5                      ; 0x5 <__rc3>
    6957: a2 03        	ldx	#$3
    6959: 86 06        	stx	$6                      ; 0x6 <__rc4>
    695b: a6 77        	ldx	$77                     ; 0x77 <__rc31+0x56>
    695d: 86 07        	stx	$7                      ; 0x7 <__rc5>
    695f: 64 08        	stz	$8                      ; 0x8 <__rc6>
    6961: a6 79        	ldx	$79                     ; 0x79 <__rc31+0x58>
    6963: a5 78        	lda	$78                     ; 0x78 <__rc31+0x57>
    6965: 20 0d 6a     	jsr	$6a0d <lfill>
    6968: e6 76        	inc	$76                     ; 0x76 <__rc31+0x55>
    696a: a0 03        	ldy	#$3
    696c: b1 74        	lda	($74),y                 ; 0x74 <__rc31+0x53>
    696e: c5 76        	cmp	$76                     ; 0x76 <__rc31+0x55>
    6970: 90 03        	bcc	$6975 <fillrect+0xa9>
    6972: 4c e5 68     	jmp	$68e5 <fillrect+0x19>
    6975: 60           	rts

00006976 <cgetc>:
    6976: ad 10 d6     	lda	$d610                   ; 0xd610 <__heap_start+0x5678>
    6979: f0 fb        	beq	$6976 <cgetc>
    697b: 9c 10 d6     	stz	$d610                   ; 0xd610 <__heap_start+0x5678>
    697e: 60           	rts

0000697f <do_dma>:
    697f: a2 00        	ldx	#$0
    6981: a0 35        	ldy	#$35
    6983: 84 04        	sty	$4                      ; 0x4 <__rc2>
    6985: a0 00        	ldy	#$0
    6987: 84 05        	sty	$5                      ; 0x5 <__rc3>
    6989: a4 04        	ldy	$4                      ; 0x4 <__rc2>
    698b: a9 47        	lda	#$47
    698d: 8d 2f d0     	sta	$d02f                   ; 0xd02f <__heap_start+0x5097>
    6990: a9 53        	lda	#$53
    6992: 8d 2f d0     	sta	$d02f                   ; 0xd02f <__heap_start+0x5097>
    6995: a9 41        	lda	#$41
    6997: 85 00        	sta	$0                      ; 0x0 <__data_size>
    6999: 9c 02 d7     	stz	$d702                   ; 0xd702 <__heap_start+0x576a>
    699c: 9c 04 d7     	stz	$d704                   ; 0xd704 <__heap_start+0x576c>
    699f: 8e 01 d7     	stx	$d701                   ; 0xd701 <__heap_start+0x5769>
    69a2: 8c 05 d7     	sty	$d705                   ; 0xd705 <__heap_start+0x576d>
    69a5: 60           	rts

000069a6 <lcopy>:
    69a6: 85 0c        	sta	$c                      ; 0xc <__rc10>
    69a8: 86 0d        	stx	$d                      ; 0xd <__rc11>
    69aa: a6 0a        	ldx	$a                      ; 0xa <__zp_data_size>
    69ac: a4 0b        	ldy	$b                      ; 0xb <__rc9>
    69ae: a9 0b        	lda	#$b
    69b0: 85 35        	sta	$35                     ; 0x35 <dmalist>
    69b2: a9 80        	lda	#$80
    69b4: 85 36        	sta	$36                     ; 0x36 <dmalist+0x1>
    69b6: 46 05        	lsr	$5                      ; 0x5 <__rc3>
    69b8: a5 04        	lda	$4                      ; 0x4 <__rc2>
    69ba: 6a           	ror
    69bb: 46 05        	lsr	$5                      ; 0x5 <__rc3>
    69bd: 6a           	ror
    69be: 46 05        	lsr	$5                      ; 0x5 <__rc3>
    69c0: 6a           	ror
    69c1: 46 05        	lsr	$5                      ; 0x5 <__rc3>
    69c3: 6a           	ror
    69c4: 85 37        	sta	$37                     ; 0x37 <dmalist+0x2>
    69c6: a9 81        	lda	#$81
    69c8: 85 38        	sta	$38                     ; 0x38 <dmalist+0x3>
    69ca: 46 09        	lsr	$9                      ; 0x9 <__rc7>
    69cc: a5 08        	lda	$8                      ; 0x8 <__rc6>
    69ce: 6a           	ror
    69cf: 46 09        	lsr	$9                      ; 0x9 <__rc7>
    69d1: 6a           	ror
    69d2: 46 09        	lsr	$9                      ; 0x9 <__rc7>
    69d4: 6a           	ror
    69d5: 46 09        	lsr	$9                      ; 0x9 <__rc7>
    69d7: 6a           	ror
    69d8: 85 39        	sta	$39                     ; 0x39 <dmalist+0x4>
    69da: a9 85        	lda	#$85
    69dc: 85 3a        	sta	$3a                     ; 0x3a <dmalist+0x5>
    69de: a9 01        	lda	#$1
    69e0: 85 3b        	sta	$3b                     ; 0x3b <dmalist+0x6>
    69e2: 64 3c        	stz	$3c                     ; 0x3c <dmalist+0x7>
    69e4: 64 46        	stz	$46                     ; 0x46 <dmalist+0x11>
    69e6: 64 3d        	stz	$3d                     ; 0x3d <dmalist+0x8>
    69e8: 86 3e        	stx	$3e                     ; 0x3e <dmalist+0x9>
    69ea: 84 3f        	sty	$3f                     ; 0x3f <dmalist+0xa>
    69ec: 64 46        	stz	$46                     ; 0x46 <dmalist+0x11>
    69ee: a6 0c        	ldx	$c                      ; 0xc <__rc10>
    69f0: 86 40        	stx	$40                     ; 0x40 <dmalist+0xb>
    69f2: a6 0d        	ldx	$d                      ; 0xd <__rc11>
    69f4: 86 41        	stx	$41                     ; 0x41 <dmalist+0xc>
    69f6: a5 04        	lda	$4                      ; 0x4 <__rc2>
    69f8: 29 0f        	and	#$f
    69fa: 85 42        	sta	$42                     ; 0x42 <dmalist+0xd>
    69fc: a6 06        	ldx	$6                      ; 0x6 <__rc4>
    69fe: 86 43        	stx	$43                     ; 0x43 <dmalist+0xe>
    6a00: a6 07        	ldx	$7                      ; 0x7 <__rc5>
    6a02: 86 44        	stx	$44                     ; 0x44 <dmalist+0xf>
    6a04: a5 08        	lda	$8                      ; 0x8 <__rc6>
    6a06: 29 0f        	and	#$f
    6a08: 85 45        	sta	$45                     ; 0x45 <dmalist+0x10>
    6a0a: 4c 7f 69     	jmp	$697f <do_dma>

00006a0d <lfill>:
    6a0d: 85 09        	sta	$9                      ; 0x9 <__rc7>
    6a0f: 86 0a        	stx	$a                      ; 0xa <__zp_data_size>
    6a11: a6 07        	ldx	$7                      ; 0x7 <__rc5>
    6a13: a4 08        	ldy	$8                      ; 0x8 <__rc6>
    6a15: a9 0b        	lda	#$b
    6a17: 85 35        	sta	$35                     ; 0x35 <dmalist>
    6a19: a9 80        	lda	#$80
    6a1b: 85 36        	sta	$36                     ; 0x36 <dmalist+0x1>
    6a1d: 64 37        	stz	$37                     ; 0x37 <dmalist+0x2>
    6a1f: 1a           	inc
    6a20: 85 38        	sta	$38                     ; 0x38 <dmalist+0x3>
    6a22: 46 05        	lsr	$5                      ; 0x5 <__rc3>
    6a24: a5 04        	lda	$4                      ; 0x4 <__rc2>
    6a26: 6a           	ror
    6a27: 46 05        	lsr	$5                      ; 0x5 <__rc3>
    6a29: 6a           	ror
    6a2a: 46 05        	lsr	$5                      ; 0x5 <__rc3>
    6a2c: 6a           	ror
    6a2d: 46 05        	lsr	$5                      ; 0x5 <__rc3>
    6a2f: 6a           	ror
    6a30: 85 39        	sta	$39                     ; 0x39 <dmalist+0x4>
    6a32: a9 85        	lda	#$85
    6a34: 85 3a        	sta	$3a                     ; 0x3a <dmalist+0x5>
    6a36: a9 01        	lda	#$1
    6a38: 85 3b        	sta	$3b                     ; 0x3b <dmalist+0x6>
    6a3a: 64 3c        	stz	$3c                     ; 0x3c <dmalist+0x7>
    6a3c: a9 03        	lda	#$3
    6a3e: 85 3d        	sta	$3d                     ; 0x3d <dmalist+0x8>
    6a40: 64 46        	stz	$46                     ; 0x46 <dmalist+0x11>
    6a42: 86 3e        	stx	$3e                     ; 0x3e <dmalist+0x9>
    6a44: 84 3f        	sty	$3f                     ; 0x3f <dmalist+0xa>
    6a46: a6 06        	ldx	$6                      ; 0x6 <__rc4>
    6a48: 86 40        	stx	$40                     ; 0x40 <dmalist+0xb>
    6a4a: 64 41        	stz	$41                     ; 0x41 <dmalist+0xc>
    6a4c: a6 09        	ldx	$9                      ; 0x9 <__rc7>
    6a4e: 86 43        	stx	$43                     ; 0x43 <dmalist+0xe>
    6a50: a6 0a        	ldx	$a                      ; 0xa <__zp_data_size>
    6a52: 86 44        	stx	$44                     ; 0x44 <dmalist+0xf>
    6a54: a5 04        	lda	$4                      ; 0x4 <__rc2>
    6a56: 29 0f        	and	#$f
    6a58: 85 45        	sta	$45                     ; 0x45 <dmalist+0x10>
    6a5a: 4c 7f 69     	jmp	$697f <do_dma>

00006a5d <usleep>:
    6a5d: a8           	tay
    6a5e: 86 06        	stx	$6                      ; 0x6 <__rc4>
    6a60: a5 05        	lda	$5                      ; 0x5 <__rc3>
    6a62: 4c 99 6a     	jmp	$6a99 <usleep+0x3c>
    6a65: a6 04        	ldx	$4                      ; 0x4 <__rc2>
    6a67: 80 02        	bra	$6a6b <usleep+0xe>
    6a69: a6 06        	ldx	$6                      ; 0x6 <__rc4>
    6a6b: e0 00        	cpx	#$0
    6a6d: b0 03        	bcs	$6a72 <usleep+0x15>
    6a6f: 4c b8 6a     	jmp	$6ab8 <usleep+0x5b>
    6a72: 85 07        	sta	$7                      ; 0x7 <__rc5>
    6a74: a6 06        	ldx	$6                      ; 0x6 <__rc4>
    6a76: 86 05        	stx	$5                      ; 0x5 <__rc3>
    6a78: ae 12 d0     	ldx	$d012                   ; 0xd012 <__heap_start+0x507a>
    6a7b: 86 06        	stx	$6                      ; 0x6 <__rc4>
    6a7d: ae 12 d0     	ldx	$d012                   ; 0xd012 <__heap_start+0x507a>
    6a80: e4 06        	cpx	$6                      ; 0x6 <__rc4>
    6a82: f0 f9        	beq	$6a7d <usleep+0x20>
    6a84: 18           	clc
    6a85: 98           	tya
    6a86: 69 c0        	adc	#$c0
    6a88: a8           	tay
    6a89: a5 05        	lda	$5                      ; 0x5 <__rc3>
    6a8b: 69 ff        	adc	#$ff
    6a8d: 85 06        	sta	$6                      ; 0x6 <__rc4>
    6a8f: a5 04        	lda	$4                      ; 0x4 <__rc2>
    6a91: 69 ff        	adc	#$ff
    6a93: 85 04        	sta	$4                      ; 0x4 <__rc2>
    6a95: a5 07        	lda	$7                      ; 0x7 <__rc5>
    6a97: 69 ff        	adc	#$ff
    6a99: aa           	tax
    6a9a: d0 15        	bne	$6ab1 <usleep+0x54>
    6a9c: a6 04        	ldx	$4                      ; 0x4 <__rc2>
    6a9e: f0 03        	beq	$6aa3 <usleep+0x46>
    6aa0: 4c 65 6a     	jmp	$6a65 <usleep+0x8>
    6aa3: a6 06        	ldx	$6                      ; 0x6 <__rc4>
    6aa5: f0 03        	beq	$6aaa <usleep+0x4d>
    6aa7: 4c 69 6a     	jmp	$6a69 <usleep+0xc>
    6aaa: c0 41        	cpy	#$41
    6aac: 90 0a        	bcc	$6ab8 <usleep+0x5b>
    6aae: 4c 72 6a     	jmp	$6a72 <usleep+0x15>
    6ab1: c9 00        	cmp	#$0
    6ab3: 90 03        	bcc	$6ab8 <usleep+0x5b>
    6ab5: 4c 72 6a     	jmp	$6a72 <usleep+0x15>
    6ab8: 60           	rts

00006ab9 <strcpy>:
    6ab9: b2 06        	lda	($6),z                  ; 0x6 <__rc4>
    6abb: aa           	tax
    6abc: b2 06        	lda	($6),z                  ; 0x6 <__rc4>
    6abe: 92 04        	sta	($4),z                  ; 0x4 <__rc2>
    6ac0: 8a           	txa
    6ac1: d0 03        	bne	$6ac6 <strcpy+0xd>
    6ac3: 4c f6 6a     	jmp	$6af6 <strcpy+0x3d>
    6ac6: a0 01        	ldy	#$1
    6ac8: a6 04        	ldx	$4                      ; 0x4 <__rc2>
    6aca: 86 08        	stx	$8                      ; 0x8 <__rc6>
    6acc: a6 05        	ldx	$5                      ; 0x5 <__rc3>
    6ace: 86 09        	stx	$9                      ; 0x9 <__rc7>
    6ad0: a6 06        	ldx	$6                      ; 0x6 <__rc4>
    6ad2: 86 0a        	stx	$a                      ; 0xa <__zp_data_size>
    6ad4: a6 07        	ldx	$7                      ; 0x7 <__rc5>
    6ad6: 86 0b        	stx	$b                      ; 0xb <__rc9>
    6ad8: e6 0a        	inc	$a                      ; 0xa <__zp_data_size>
    6ada: d0 02        	bne	$6ade <strcpy+0x25>
    6adc: e6 0b        	inc	$b                      ; 0xb <__rc9>
    6ade: b1 06        	lda	($6),y                  ; 0x6 <__rc4>
    6ae0: aa           	tax
    6ae1: b1 06        	lda	($6),y                  ; 0x6 <__rc4>
    6ae3: 91 08        	sta	($8),y                  ; 0x8 <__rc6>
    6ae5: e6 08        	inc	$8                      ; 0x8 <__rc6>
    6ae7: d0 02        	bne	$6aeb <strcpy+0x32>
    6ae9: e6 09        	inc	$9                      ; 0x9 <__rc7>
    6aeb: a5 0a        	lda	$a                      ; 0xa <__zp_data_size>
    6aed: 85 06        	sta	$6                      ; 0x6 <__rc4>
    6aef: a5 0b        	lda	$b                      ; 0xb <__rc9>
    6af1: 85 07        	sta	$7                      ; 0x7 <__rc5>
    6af3: 8a           	txa
    6af4: d0 e2        	bne	$6ad8 <strcpy+0x1f>
    6af6: 60           	rts

00006af7 <strlen>:
    6af7: b2 04        	lda	($4),z                  ; 0x4 <__rc2>
    6af9: d0 03        	bne	$6afe <strlen+0x7>
    6afb: 4c 2c 6b     	jmp	$6b2c <strlen+0x35>
    6afe: 64 07        	stz	$7                      ; 0x7 <__rc5>
    6b00: a0 01        	ldy	#$1
    6b02: a9 00        	lda	#$0
    6b04: 64 06        	stz	$6                      ; 0x6 <__rc4>
    6b06: aa           	tax
    6b07: e6 06        	inc	$6                      ; 0x6 <__rc4>
    6b09: d0 01        	bne	$6b0c <strlen+0x15>
    6b0b: e8           	inx
    6b0c: 18           	clc
    6b0d: 85 09        	sta	$9                      ; 0x9 <__rc7>
    6b0f: a5 07        	lda	$7                      ; 0x7 <__rc5>
    6b11: 65 04        	adc	$4                      ; 0x4 <__rc2>
    6b13: 85 08        	sta	$8                      ; 0x8 <__rc6>
    6b15: a5 09        	lda	$9                      ; 0x9 <__rc7>
    6b17: 65 05        	adc	$5                      ; 0x5 <__rc3>
    6b19: 85 09        	sta	$9                      ; 0x9 <__rc7>
    6b1b: b1 08        	lda	($8),y                  ; 0x8 <__rc6>
    6b1d: 85 08        	sta	$8                      ; 0x8 <__rc6>
    6b1f: a5 06        	lda	$6                      ; 0x6 <__rc4>
    6b21: 85 07        	sta	$7                      ; 0x7 <__rc5>
    6b23: 8a           	txa
    6b24: e6 08        	inc	$8                      ; 0x8 <__rc6>
    6b26: c6 08        	dec	$8                      ; 0x8 <__rc6>
    6b28: d0 dd        	bne	$6b07 <strlen+0x10>
    6b2a: 80 04        	bra	$6b30 <strlen+0x39>
    6b2c: 64 06        	stz	$6                      ; 0x6 <__rc4>
    6b2e: a2 00        	ldx	#$0
    6b30: a5 06        	lda	$6                      ; 0x6 <__rc4>
    6b32: 60           	rts

00006b33 <__ashlqi3>:
    6b33: e0 00        	cpx	#$0
    6b35: f0 06        	beq	$6b3d <__ashlqi3+0xa>
    6b37: ca           	dex
    6b38: 0a           	asl
    6b39: e0 00        	cpx	#$0
    6b3b: d0 fa        	bne	$6b37 <__ashlqi3+0x4>
    6b3d: 60           	rts

00006b3e <__ashlhi3>:
    6b3e: 86 05        	stx	$5                      ; 0x5 <__rc3>
    6b40: a6 04        	ldx	$4                      ; 0x4 <__rc2>
    6b42: f0 0a        	beq	$6b4e <__ashlhi3+0x10>
    6b44: a6 04        	ldx	$4                      ; 0x4 <__rc2>
    6b46: ca           	dex
    6b47: 0a           	asl
    6b48: 26 05        	rol	$5                      ; 0x5 <__rc3>
    6b4a: e0 00        	cpx	#$0
    6b4c: d0 f8        	bne	$6b46 <__ashlhi3+0x8>
    6b4e: a6 05        	ldx	$5                      ; 0x5 <__rc3>
    6b50: 60           	rts

00006b51 <__mulhi3>:
    6b51: a4 05        	ldy	$5                      ; 0x5 <__rc3>
    6b53: d0 04        	bne	$6b59 <__mulhi3+0x8>
    6b55: a4 04        	ldy	$4                      ; 0x4 <__rc2>
    6b57: f0 25        	beq	$6b7e <__mulhi3+0x2d>
    6b59: 85 06        	sta	$6                      ; 0x6 <__rc4>
    6b5b: 86 07        	stx	$7                      ; 0x7 <__rc5>
    6b5d: a0 00        	ldy	#$0
    6b5f: 98           	tya
    6b60: 46 05        	lsr	$5                      ; 0x5 <__rc3>
    6b62: 66 04        	ror	$4                      ; 0x4 <__rc2>
    6b64: 90 09        	bcc	$6b6f <__mulhi3+0x1e>
    6b66: aa           	tax
    6b67: 98           	tya
    6b68: 18           	clc
    6b69: 65 06        	adc	$6                      ; 0x6 <__rc4>
    6b6b: a8           	tay
    6b6c: 8a           	txa
    6b6d: 65 07        	adc	$7                      ; 0x7 <__rc5>
    6b6f: 06 06        	asl	$6                      ; 0x6 <__rc4>
    6b71: 26 07        	rol	$7                      ; 0x7 <__rc5>
    6b73: a6 05        	ldx	$5                      ; 0x5 <__rc3>
    6b75: d0 e9        	bne	$6b60 <__mulhi3+0xf>
    6b77: a6 04        	ldx	$4                      ; 0x4 <__rc2>
    6b79: d0 e5        	bne	$6b60 <__mulhi3+0xf>
    6b7b: aa           	tax
    6b7c: 98           	tya
    6b7d: 60           	rts
    6b7e: a0 00        	ldy	#$0
    6b80: 98           	tya
    6b81: 80 f8        	bra	$6b7b <__mulhi3+0x2a>

00006b83 <__udivhi3>:
    6b83: 64 06        	stz	$6                      ; 0x6 <__rc4>
    6b85: a4 05        	ldy	$5                      ; 0x5 <__rc3>
    6b87: d0 04        	bne	$6b8d <__udivhi3+0xa>
    6b89: a4 04        	ldy	$4                      ; 0x4 <__rc2>
    6b8b: f0 0e        	beq	$6b9b <__udivhi3+0x18>
    6b8d: 85 09        	sta	$9                      ; 0x9 <__rc7>
    6b8f: 8a           	txa
    6b90: e4 05        	cpx	$5                      ; 0x5 <__rc3>
    6b92: d0 0e        	bne	$6ba2 <__udivhi3+0x1f>
    6b94: a5 09        	lda	$9                      ; 0x9 <__rc7>
    6b96: c5 04        	cmp	$4                      ; 0x4 <__rc2>
    6b98: 8a           	txa
    6b99: b0 0b        	bcs	$6ba6 <__udivhi3+0x23>
    6b9b: a2 00        	ldx	#$0
    6b9d: 86 49        	stx	$49                     ; 0x49 <__rc31+0x28>
    6b9f: 4c 3f 6c     	jmp	$6c3f <__udivhi3+0xbc>
    6ba2: c5 05        	cmp	$5                      ; 0x5 <__rc3>
    6ba4: 90 f5        	bcc	$6b9b <__udivhi3+0x18>
    6ba6: a2 01        	ldx	#$1
    6ba8: 86 49        	stx	$49                     ; 0x49 <__rc31+0x28>
    6baa: a6 05        	ldx	$5                      ; 0x5 <__rc3>
    6bac: 10 03        	bpl	$6bb1 <__udivhi3+0x2e>
    6bae: 4c 3f 6c     	jmp	$6c3f <__udivhi3+0xbc>
    6bb1: a2 00        	ldx	#$0
    6bb3: a4 04        	ldy	$4                      ; 0x4 <__rc2>
    6bb5: 84 07        	sty	$7                      ; 0x7 <__rc5>
    6bb7: a4 05        	ldy	$5                      ; 0x5 <__rc3>
    6bb9: 84 08        	sty	$8                      ; 0x8 <__rc6>
    6bbb: 06 07        	asl	$7                      ; 0x7 <__rc5>
    6bbd: 26 08        	rol	$8                      ; 0x8 <__rc6>
    6bbf: c5 08        	cmp	$8                      ; 0x8 <__rc6>
    6bc1: d0 08        	bne	$6bcb <__udivhi3+0x48>
    6bc3: a4 09        	ldy	$9                      ; 0x9 <__rc7>
    6bc5: c4 07        	cpy	$7                      ; 0x7 <__rc5>
    6bc7: 90 13        	bcc	$6bdc <__udivhi3+0x59>
    6bc9: 80 04        	bra	$6bcf <__udivhi3+0x4c>
    6bcb: c5 08        	cmp	$8                      ; 0x8 <__rc6>
    6bcd: 90 0d        	bcc	$6bdc <__udivhi3+0x59>
    6bcf: e8           	inx
    6bd0: a4 07        	ldy	$7                      ; 0x7 <__rc5>
    6bd2: 84 04        	sty	$4                      ; 0x4 <__rc2>
    6bd4: a4 08        	ldy	$8                      ; 0x8 <__rc6>
    6bd6: 84 05        	sty	$5                      ; 0x5 <__rc3>
    6bd8: 10 e1        	bpl	$6bbb <__udivhi3+0x38>
    6bda: 80 08        	bra	$6be4 <__udivhi3+0x61>
    6bdc: a4 04        	ldy	$4                      ; 0x4 <__rc2>
    6bde: 84 07        	sty	$7                      ; 0x7 <__rc5>
    6be0: a4 05        	ldy	$5                      ; 0x5 <__rc3>
    6be2: 84 08        	sty	$8                      ; 0x8 <__rc6>
    6be4: e0 00        	cpx	#$0
    6be6: d0 03        	bne	$6beb <__udivhi3+0x68>
    6be8: 4c 3f 6c     	jmp	$6c3f <__udivhi3+0xbc>
    6beb: 38           	sec
    6bec: a8           	tay
    6bed: a5 09        	lda	$9                      ; 0x9 <__rc7>
    6bef: e5 07        	sbc	$7                      ; 0x7 <__rc5>
    6bf1: 85 04        	sta	$4                      ; 0x4 <__rc2>
    6bf3: 98           	tya
    6bf4: e5 08        	sbc	$8                      ; 0x8 <__rc6>
    6bf6: a0 01        	ldy	#$1
    6bf8: 84 49        	sty	$49                     ; 0x49 <__rc31+0x28>
    6bfa: 64 06        	stz	$6                      ; 0x6 <__rc4>
    6bfc: 46 08        	lsr	$8                      ; 0x8 <__rc6>
    6bfe: 66 07        	ror	$7                      ; 0x7 <__rc5>
    6c00: a4 49        	ldy	$49                     ; 0x49 <__rc31+0x28>
    6c02: 84 05        	sty	$5                      ; 0x5 <__rc3>
    6c04: 06 05        	asl	$5                      ; 0x5 <__rc3>
    6c06: a0 01        	ldy	#$1
    6c08: b0 02        	bcs	$6c0c <__udivhi3+0x89>
    6c0a: a0 00        	ldy	#$0
    6c0c: 84 09        	sty	$9                      ; 0x9 <__rc7>
    6c0e: a4 05        	ldy	$5                      ; 0x5 <__rc3>
    6c10: 84 49        	sty	$49                     ; 0x49 <__rc31+0x28>
    6c12: c5 08        	cmp	$8                      ; 0x8 <__rc6>
    6c14: d0 23        	bne	$6c39 <__udivhi3+0xb6>
    6c16: a4 04        	ldy	$4                      ; 0x4 <__rc2>
    6c18: c4 07        	cpy	$7                      ; 0x7 <__rc5>
    6c1a: 90 11        	bcc	$6c2d <__udivhi3+0xaa>
    6c1c: a8           	tay
    6c1d: a5 49        	lda	$49                     ; 0x49 <__rc31+0x28>
    6c1f: 09 01        	ora	#$1
    6c21: 85 49        	sta	$49                     ; 0x49 <__rc31+0x28>
    6c23: 38           	sec
    6c24: a5 04        	lda	$4                      ; 0x4 <__rc2>
    6c26: e5 07        	sbc	$7                      ; 0x7 <__rc5>
    6c28: 85 04        	sta	$4                      ; 0x4 <__rc2>
    6c2a: 98           	tya
    6c2b: e5 08        	sbc	$8                      ; 0x8 <__rc6>
    6c2d: a4 09        	ldy	$9                      ; 0x9 <__rc7>
    6c2f: c0 01        	cpy	#$1
    6c31: 26 06        	rol	$6                      ; 0x6 <__rc4>
    6c33: ca           	dex
    6c34: f0 09        	beq	$6c3f <__udivhi3+0xbc>
    6c36: 4c fc 6b     	jmp	$6bfc <__udivhi3+0x79>
    6c39: c5 08        	cmp	$8                      ; 0x8 <__rc6>
    6c3b: b0 df        	bcs	$6c1c <__udivhi3+0x99>
    6c3d: 80 ee        	bra	$6c2d <__udivhi3+0xaa>
    6c3f: a6 06        	ldx	$6                      ; 0x6 <__rc4>
    6c41: a5 49        	lda	$49                     ; 0x49 <__rc31+0x28>
    6c43: 60           	rts

00006c44 <__umodqi3>:
    6c44: e0 00        	cpx	#$0
    6c46: d0 03        	bne	$6c4b <__umodqi3+0x7>
    6c48: 4c 88 6c     	jmp	$6c88 <__umodqi3+0x44>
    6c4b: 86 05        	stx	$5                      ; 0x5 <__rc3>
    6c4d: c5 05        	cmp	$5                      ; 0x5 <__rc3>
    6c4f: b0 03        	bcs	$6c54 <__umodqi3+0x10>
    6c51: 4c 88 6c     	jmp	$6c88 <__umodqi3+0x44>
    6c54: a6 05        	ldx	$5                      ; 0x5 <__rc3>
    6c56: 30 15        	bmi	$6c6d <__umodqi3+0x29>
    6c58: a2 00        	ldx	#$0
    6c5a: a4 05        	ldy	$5                      ; 0x5 <__rc3>
    6c5c: 84 04        	sty	$4                      ; 0x4 <__rc2>
    6c5e: 06 04        	asl	$4                      ; 0x4 <__rc2>
    6c60: c5 04        	cmp	$4                      ; 0x4 <__rc2>
    6c62: 90 0d        	bcc	$6c71 <__umodqi3+0x2d>
    6c64: e8           	inx
    6c65: a4 04        	ldy	$4                      ; 0x4 <__rc2>
    6c67: 84 05        	sty	$5                      ; 0x5 <__rc3>
    6c69: 10 f3        	bpl	$6c5e <__umodqi3+0x1a>
    6c6b: 80 08        	bra	$6c75 <__umodqi3+0x31>
    6c6d: 38           	sec
    6c6e: e5 05        	sbc	$5                      ; 0x5 <__rc3>
    6c70: 60           	rts
    6c71: a4 05        	ldy	$5                      ; 0x5 <__rc3>
    6c73: 84 04        	sty	$4                      ; 0x4 <__rc2>
    6c75: 38           	sec
    6c76: e5 04        	sbc	$4                      ; 0x4 <__rc2>
    6c78: e0 00        	cpx	#$0
    6c7a: f0 0c        	beq	$6c88 <__umodqi3+0x44>
    6c7c: 46 04        	lsr	$4                      ; 0x4 <__rc2>
    6c7e: c5 04        	cmp	$4                      ; 0x4 <__rc2>
    6c80: 90 03        	bcc	$6c85 <__umodqi3+0x41>
    6c82: 38           	sec
    6c83: e5 04        	sbc	$4                      ; 0x4 <__rc2>
    6c85: ca           	dex
    6c86: d0 f4        	bne	$6c7c <__umodqi3+0x38>
    6c88: 60           	rts

00006c89 <__udivmodqi4>:
    6c89: a8           	tay
    6c8a: a9 00        	lda	#$0
    6c8c: e0 00        	cpx	#$0
    6c8e: f0 25        	beq	$6cb5 <__udivmodqi4+0x2c>
    6c90: 86 07        	stx	$7                      ; 0x7 <__rc5>
    6c92: 84 08        	sty	$8                      ; 0x8 <__rc6>
    6c94: c4 07        	cpy	$7                      ; 0x7 <__rc5>
    6c96: b0 03        	bcs	$6c9b <__udivmodqi4+0x12>
    6c98: 4c f2 6c     	jmp	$6cf2 <__udivmodqi4+0x69>
    6c9b: a5 07        	lda	$7                      ; 0x7 <__rc5>
    6c9d: 30 1b        	bmi	$6cba <__udivmodqi4+0x31>
    6c9f: a2 00        	ldx	#$0
    6ca1: a5 07        	lda	$7                      ; 0x7 <__rc5>
    6ca3: 85 06        	sta	$6                      ; 0x6 <__rc4>
    6ca5: 98           	tya
    6ca6: 06 06        	asl	$6                      ; 0x6 <__rc4>
    6ca8: c5 06        	cmp	$6                      ; 0x6 <__rc4>
    6caa: 90 17        	bcc	$6cc3 <__udivmodqi4+0x3a>
    6cac: e8           	inx
    6cad: a4 06        	ldy	$6                      ; 0x6 <__rc4>
    6caf: 84 07        	sty	$7                      ; 0x7 <__rc5>
    6cb1: 10 f3        	bpl	$6ca6 <__udivmodqi4+0x1d>
    6cb3: 80 12        	bra	$6cc7 <__udivmodqi4+0x3e>
    6cb5: 84 08        	sty	$8                      ; 0x8 <__rc6>
    6cb7: 4c f2 6c     	jmp	$6cf2 <__udivmodqi4+0x69>
    6cba: 38           	sec
    6cbb: 98           	tya
    6cbc: e5 07        	sbc	$7                      ; 0x7 <__rc5>
    6cbe: 85 08        	sta	$8                      ; 0x8 <__rc6>
    6cc0: 4c f0 6c     	jmp	$6cf0 <__udivmodqi4+0x67>
    6cc3: a4 07        	ldy	$7                      ; 0x7 <__rc5>
    6cc5: 84 06        	sty	$6                      ; 0x6 <__rc4>
    6cc7: 38           	sec
    6cc8: e5 06        	sbc	$6                      ; 0x6 <__rc4>
    6cca: 85 08        	sta	$8                      ; 0x8 <__rc6>
    6ccc: 8a           	txa
    6ccd: f0 21        	beq	$6cf0 <__udivmodqi4+0x67>
    6ccf: a9 01        	lda	#$1
    6cd1: 46 06        	lsr	$6                      ; 0x6 <__rc4>
    6cd3: 0a           	asl
    6cd4: a8           	tay
    6cd5: a5 08        	lda	$8                      ; 0x8 <__rc6>
    6cd7: c5 06        	cmp	$6                      ; 0x6 <__rc4>
    6cd9: 90 0d        	bcc	$6ce8 <__udivmodqi4+0x5f>
    6cdb: 85 07        	sta	$7                      ; 0x7 <__rc5>
    6cdd: 98           	tya
    6cde: 09 01        	ora	#$1
    6ce0: a8           	tay
    6ce1: 38           	sec
    6ce2: a5 07        	lda	$7                      ; 0x7 <__rc5>
    6ce4: e5 06        	sbc	$6                      ; 0x6 <__rc4>
    6ce6: 85 08        	sta	$8                      ; 0x8 <__rc6>
    6ce8: ca           	dex
    6ce9: 98           	tya
    6cea: e0 00        	cpx	#$0
    6cec: d0 e3        	bne	$6cd1 <__udivmodqi4+0x48>
    6cee: 80 02        	bra	$6cf2 <__udivmodqi4+0x69>
    6cf0: a9 01        	lda	#$1
    6cf2: aa           	tax
    6cf3: a5 08        	lda	$8                      ; 0x8 <__rc6>
    6cf5: 92 04        	sta	($4),z                  ; 0x4 <__rc2>
    6cf7: 8a           	txa
    6cf8: 60           	rts

00006cf9 <__udivmodhi4>:
    6cf9: 86 0c        	stx	$c                      ; 0xc <__rc10>
    6cfb: 64 08        	stz	$8                      ; 0x8 <__rc6>
    6cfd: a4 05        	ldy	$5                      ; 0x5 <__rc3>
    6cff: d0 04        	bne	$6d05 <__udivmodhi4+0xc>
    6d01: a4 04        	ldy	$4                      ; 0x4 <__rc2>
    6d03: f0 08        	beq	$6d0d <__udivmodhi4+0x14>
    6d05: e4 05        	cpx	$5                      ; 0x5 <__rc3>
    6d07: d0 0d        	bne	$6d16 <__udivmodhi4+0x1d>
    6d09: c5 04        	cmp	$4                      ; 0x4 <__rc2>
    6d0b: b0 0d        	bcs	$6d1a <__udivmodhi4+0x21>
    6d0d: a6 0c        	ldx	$c                      ; 0xc <__rc10>
    6d0f: 86 04        	stx	$4                      ; 0x4 <__rc2>
    6d11: a2 00        	ldx	#$0
    6d13: 4c bf 6d     	jmp	$6dbf <__udivmodhi4+0xc6>
    6d16: e4 05        	cpx	$5                      ; 0x5 <__rc3>
    6d18: 90 f3        	bcc	$6d0d <__udivmodhi4+0x14>
    6d1a: a6 05        	ldx	$5                      ; 0x5 <__rc3>
    6d1c: 10 03        	bpl	$6d21 <__udivmodhi4+0x28>
    6d1e: 4c b2 6d     	jmp	$6db2 <__udivmodhi4+0xb9>
    6d21: a2 00        	ldx	#$0
    6d23: a4 04        	ldy	$4                      ; 0x4 <__rc2>
    6d25: 84 09        	sty	$9                      ; 0x9 <__rc7>
    6d27: a4 05        	ldy	$5                      ; 0x5 <__rc3>
    6d29: 84 0a        	sty	$a                      ; 0xa <__zp_data_size>
    6d2b: 06 09        	asl	$9                      ; 0x9 <__rc7>
    6d2d: 26 0a        	rol	$a                      ; 0xa <__zp_data_size>
    6d2f: a4 0c        	ldy	$c                      ; 0xc <__rc10>
    6d31: c4 0a        	cpy	$a                      ; 0xa <__zp_data_size>
    6d33: d0 06        	bne	$6d3b <__udivmodhi4+0x42>
    6d35: c5 09        	cmp	$9                      ; 0x9 <__rc7>
    6d37: b0 08        	bcs	$6d41 <__udivmodhi4+0x48>
    6d39: 80 13        	bra	$6d4e <__udivmodhi4+0x55>
    6d3b: a4 0c        	ldy	$c                      ; 0xc <__rc10>
    6d3d: c4 0a        	cpy	$a                      ; 0xa <__zp_data_size>
    6d3f: 90 0d        	bcc	$6d4e <__udivmodhi4+0x55>
    6d41: e8           	inx
    6d42: a4 09        	ldy	$9                      ; 0x9 <__rc7>
    6d44: 84 04        	sty	$4                      ; 0x4 <__rc2>
    6d46: a4 0a        	ldy	$a                      ; 0xa <__zp_data_size>
    6d48: 84 05        	sty	$5                      ; 0x5 <__rc3>
    6d4a: 10 df        	bpl	$6d2b <__udivmodhi4+0x32>
    6d4c: 80 08        	bra	$6d56 <__udivmodhi4+0x5d>
    6d4e: a4 04        	ldy	$4                      ; 0x4 <__rc2>
    6d50: 84 09        	sty	$9                      ; 0x9 <__rc7>
    6d52: a4 05        	ldy	$5                      ; 0x5 <__rc3>
    6d54: 84 0a        	sty	$a                      ; 0xa <__zp_data_size>
    6d56: 38           	sec
    6d57: e5 09        	sbc	$9                      ; 0x9 <__rc7>
    6d59: a8           	tay
    6d5a: a5 0c        	lda	$c                      ; 0xc <__rc10>
    6d5c: e5 0a        	sbc	$a                      ; 0xa <__zp_data_size>
    6d5e: 85 04        	sta	$4                      ; 0x4 <__rc2>
    6d60: 8a           	txa
    6d61: d0 03        	bne	$6d66 <__udivmodhi4+0x6d>
    6d63: 4c ce 6d     	jmp	$6dce <__udivmodhi4+0xd5>
    6d66: a9 01        	lda	#$1
    6d68: 85 82        	sta	$82                     ; 0x82 <__rc31+0x61>
    6d6a: 64 08        	stz	$8                      ; 0x8 <__rc6>
    6d6c: 98           	tya
    6d6d: 46 0a        	lsr	$a                      ; 0xa <__zp_data_size>
    6d6f: 66 09        	ror	$9                      ; 0x9 <__rc7>
    6d71: a4 82        	ldy	$82                     ; 0x82 <__rc31+0x61>
    6d73: 84 05        	sty	$5                      ; 0x5 <__rc3>
    6d75: 06 05        	asl	$5                      ; 0x5 <__rc3>
    6d77: a0 01        	ldy	#$1
    6d79: b0 02        	bcs	$6d7d <__udivmodhi4+0x84>
    6d7b: a0 00        	ldy	#$0
    6d7d: 84 0b        	sty	$b                      ; 0xb <__rc9>
    6d7f: a4 05        	ldy	$5                      ; 0x5 <__rc3>
    6d81: 84 82        	sty	$82                     ; 0x82 <__rc31+0x61>
    6d83: a4 04        	ldy	$4                      ; 0x4 <__rc2>
    6d85: c4 0a        	cpy	$a                      ; 0xa <__zp_data_size>
    6d87: d0 23        	bne	$6dac <__udivmodhi4+0xb3>
    6d89: c5 09        	cmp	$9                      ; 0x9 <__rc7>
    6d8b: 90 13        	bcc	$6da0 <__udivmodhi4+0xa7>
    6d8d: a8           	tay
    6d8e: a5 82        	lda	$82                     ; 0x82 <__rc31+0x61>
    6d90: 09 01        	ora	#$1
    6d92: 85 82        	sta	$82                     ; 0x82 <__rc31+0x61>
    6d94: 38           	sec
    6d95: 98           	tya
    6d96: e5 09        	sbc	$9                      ; 0x9 <__rc7>
    6d98: a8           	tay
    6d99: a5 04        	lda	$4                      ; 0x4 <__rc2>
    6d9b: e5 0a        	sbc	$a                      ; 0xa <__zp_data_size>
    6d9d: 85 04        	sta	$4                      ; 0x4 <__rc2>
    6d9f: 98           	tya
    6da0: a4 0b        	ldy	$b                      ; 0xb <__rc9>
    6da2: c0 01        	cpy	#$1
    6da4: 26 08        	rol	$8                      ; 0x8 <__rc6>
    6da6: ca           	dex
    6da7: f0 18        	beq	$6dc1 <__udivmodhi4+0xc8>
    6da9: 4c 6d 6d     	jmp	$6d6d <__udivmodhi4+0x74>
    6dac: c4 0a        	cpy	$a                      ; 0xa <__zp_data_size>
    6dae: b0 dd        	bcs	$6d8d <__udivmodhi4+0x94>
    6db0: 80 ee        	bra	$6da0 <__udivmodhi4+0xa7>
    6db2: 38           	sec
    6db3: e5 04        	sbc	$4                      ; 0x4 <__rc2>
    6db5: aa           	tax
    6db6: a5 0c        	lda	$c                      ; 0xc <__rc10>
    6db8: e5 05        	sbc	$5                      ; 0x5 <__rc3>
    6dba: 85 04        	sta	$4                      ; 0x4 <__rc2>
    6dbc: 8a           	txa
    6dbd: a2 01        	ldx	#$1
    6dbf: 86 82        	stx	$82                     ; 0x82 <__rc31+0x61>
    6dc1: 92 06        	sta	($6),z                  ; 0x6 <__rc4>
    6dc3: a0 01        	ldy	#$1
    6dc5: a5 04        	lda	$4                      ; 0x4 <__rc2>
    6dc7: 91 06        	sta	($6),y                  ; 0x6 <__rc4>
    6dc9: a6 08        	ldx	$8                      ; 0x8 <__rc6>
    6dcb: a5 82        	lda	$82                     ; 0x82 <__rc31+0x61>
    6dcd: 60           	rts
    6dce: a2 01        	ldx	#$1
    6dd0: 86 82        	stx	$82                     ; 0x82 <__rc31+0x61>
    6dd2: 98           	tya
    6dd3: 80 ec        	bra	$6dc1 <__udivmodhi4+0xc8>

00006dd5 <memcpy>:
    6dd5: a8           	tay
    6dd6: 8a           	txa
    6dd7: d0 03        	bne	$6ddc <memcpy+0x7>
    6dd9: 98           	tya
    6dda: f0 24        	beq	$6e00 <memcpy+0x2b>
    6ddc: a5 04        	lda	$4                      ; 0x4 <__rc2>
    6dde: 85 08        	sta	$8                      ; 0x8 <__rc6>
    6de0: a5 05        	lda	$5                      ; 0x5 <__rc3>
    6de2: 85 09        	sta	$9                      ; 0x9 <__rc7>
    6de4: b2 06        	lda	($6),z                  ; 0x6 <__rc4>
    6de6: 92 08        	sta	($8),z                  ; 0x8 <__rc6>
    6de8: e6 08        	inc	$8                      ; 0x8 <__rc6>
    6dea: d0 02        	bne	$6dee <memcpy+0x19>
    6dec: e6 09        	inc	$9                      ; 0x9 <__rc7>
    6dee: e6 06        	inc	$6                      ; 0x6 <__rc4>
    6df0: d0 02        	bne	$6df4 <memcpy+0x1f>
    6df2: e6 07        	inc	$7                      ; 0x7 <__rc5>
    6df4: 88           	dey
    6df5: c0 ff        	cpy	#$ff
    6df7: d0 01        	bne	$6dfa <memcpy+0x25>
    6df9: ca           	dex
    6dfa: 8a           	txa
    6dfb: d0 e7        	bne	$6de4 <memcpy+0xf>
    6dfd: 98           	tya
    6dfe: d0 e4        	bne	$6de4 <memcpy+0xf>
    6e00: 60           	rts

00006e01 <__memset>:
    6e01: a4 06        	ldy	$6                      ; 0x6 <__rc4>
    6e03: d0 04        	bne	$6e09 <__memset+0x8>
    6e05: e0 00        	cpx	#$0
    6e07: f0 17        	beq	$6e20 <__memset+0x1f>
    6e09: 92 04        	sta	($4),z                  ; 0x4 <__rc2>
    6e0b: e6 04        	inc	$4                      ; 0x4 <__rc2>
    6e0d: d0 02        	bne	$6e11 <__memset+0x10>
    6e0f: e6 05        	inc	$5                      ; 0x5 <__rc3>
    6e11: ca           	dex
    6e12: e0 ff        	cpx	#$ff
    6e14: d0 02        	bne	$6e18 <__memset+0x17>
    6e16: c6 06        	dec	$6                      ; 0x6 <__rc4>
    6e18: a4 06        	ldy	$6                      ; 0x6 <__rc4>
    6e1a: d0 ed        	bne	$6e09 <__memset+0x8>
    6e1c: e0 00        	cpx	#$0
    6e1e: d0 e9        	bne	$6e09 <__memset+0x8>
    6e20: 60           	rts

00006e21 <__udivmodsi4>:
    6e21: da           	phx
    6e22: 7a           	ply
    6e23: a6 04        	ldx	$4                      ; 0x4 <__rc2>
    6e25: 86 11        	stx	$11                     ; 0x11 <__rc15>
    6e27: a6 05        	ldx	$5                      ; 0x5 <__rc3>
    6e29: 64 0c        	stz	$c                      ; 0xc <__rc10>
    6e2b: e6 09        	inc	$9                      ; 0x9 <__rc7>
    6e2d: c6 09        	dec	$9                      ; 0x9 <__rc7>
    6e2f: d0 15        	bne	$6e46 <__udivmodsi4+0x25>
    6e31: e6 08        	inc	$8                      ; 0x8 <__rc6>
    6e33: c6 08        	dec	$8                      ; 0x8 <__rc6>
    6e35: d0 0f        	bne	$6e46 <__udivmodsi4+0x25>
    6e37: e6 07        	inc	$7                      ; 0x7 <__rc5>
    6e39: c6 07        	dec	$7                      ; 0x7 <__rc5>
    6e3b: d0 09        	bne	$6e46 <__udivmodsi4+0x25>
    6e3d: e6 06        	inc	$6                      ; 0x6 <__rc4>
    6e3f: c6 06        	dec	$6                      ; 0x6 <__rc4>
    6e41: d0 03        	bne	$6e46 <__udivmodsi4+0x25>
    6e43: 4c d6 6f     	jmp	$6fd6 <__udivmodsi4+0x1b5>
    6e46: 84 05        	sty	$5                      ; 0x5 <__rc3>
    6e48: 86 04        	stx	$4                      ; 0x4 <__rc2>
    6e4a: e4 09        	cpx	$9                      ; 0x9 <__rc7>
    6e4c: d0 15        	bne	$6e63 <__udivmodsi4+0x42>
    6e4e: a6 11        	ldx	$11                     ; 0x11 <__rc15>
    6e50: e4 08        	cpx	$8                      ; 0x8 <__rc6>
    6e52: d0 1e        	bne	$6e72 <__udivmodsi4+0x51>
    6e54: a6 05        	ldx	$5                      ; 0x5 <__rc3>
    6e56: e4 07        	cpx	$7                      ; 0x7 <__rc5>
    6e58: f0 03        	beq	$6e5d <__udivmodsi4+0x3c>
    6e5a: 4c be 6f     	jmp	$6fbe <__udivmodsi4+0x19d>
    6e5d: c5 06        	cmp	$6                      ; 0x6 <__rc4>
    6e5f: 90 06        	bcc	$6e67 <__udivmodsi4+0x46>
    6e61: 80 13        	bra	$6e76 <__udivmodsi4+0x55>
    6e63: e4 09        	cpx	$9                      ; 0x9 <__rc7>
    6e65: b0 0f        	bcs	$6e76 <__udivmodsi4+0x55>
    6e67: 84 07        	sty	$7                      ; 0x7 <__rc5>
    6e69: a6 04        	ldx	$4                      ; 0x4 <__rc2>
    6e6b: 86 06        	stx	$6                      ; 0x6 <__rc4>
    6e6d: a2 00        	ldx	#$0
    6e6f: 4c a1 6f     	jmp	$6fa1 <__udivmodsi4+0x180>
    6e72: e4 08        	cpx	$8                      ; 0x8 <__rc6>
    6e74: 90 f1        	bcc	$6e67 <__udivmodsi4+0x46>
    6e76: a6 09        	ldx	$9                      ; 0x9 <__rc7>
    6e78: 10 03        	bpl	$6e7d <__udivmodsi4+0x5c>
    6e7a: 4c 89 6f     	jmp	$6f89 <__udivmodsi4+0x168>
    6e7d: a2 00        	ldx	#$0
    6e7f: a4 06        	ldy	$6                      ; 0x6 <__rc4>
    6e81: 84 0d        	sty	$d                      ; 0xd <__rc11>
    6e83: a4 07        	ldy	$7                      ; 0x7 <__rc5>
    6e85: 84 0e        	sty	$e                      ; 0xe <__rc12>
    6e87: a4 08        	ldy	$8                      ; 0x8 <__rc6>
    6e89: 84 0f        	sty	$f                      ; 0xf <__rc13>
    6e8b: a4 09        	ldy	$9                      ; 0x9 <__rc7>
    6e8d: 84 10        	sty	$10                     ; 0x10 <__rc14>
    6e8f: 06 0d        	asl	$d                      ; 0xd <__rc11>
    6e91: 26 0e        	rol	$e                      ; 0xe <__rc12>
    6e93: 26 0f        	rol	$f                      ; 0xf <__rc13>
    6e95: 26 10        	rol	$10                     ; 0x10 <__rc14>
    6e97: a4 04        	ldy	$4                      ; 0x4 <__rc2>
    6e99: c4 10        	cpy	$10                     ; 0x10 <__rc14>
    6e9b: d0 12        	bne	$6eaf <__udivmodsi4+0x8e>
    6e9d: a4 11        	ldy	$11                     ; 0x11 <__rc15>
    6e9f: c4 0f        	cpy	$f                      ; 0xf <__rc13>
    6ea1: d0 12        	bne	$6eb5 <__udivmodsi4+0x94>
    6ea3: a4 05        	ldy	$5                      ; 0x5 <__rc3>
    6ea5: c4 0e        	cpy	$e                      ; 0xe <__rc12>
    6ea7: d0 12        	bne	$6ebb <__udivmodsi4+0x9a>
    6ea9: c5 0d        	cmp	$d                      ; 0xd <__rc11>
    6eab: 90 28        	bcc	$6ed5 <__udivmodsi4+0xb4>
    6ead: 80 10        	bra	$6ebf <__udivmodsi4+0x9e>
    6eaf: c4 10        	cpy	$10                     ; 0x10 <__rc14>
    6eb1: b0 0c        	bcs	$6ebf <__udivmodsi4+0x9e>
    6eb3: 80 20        	bra	$6ed5 <__udivmodsi4+0xb4>
    6eb5: c4 0f        	cpy	$f                      ; 0xf <__rc13>
    6eb7: 90 1c        	bcc	$6ed5 <__udivmodsi4+0xb4>
    6eb9: 80 04        	bra	$6ebf <__udivmodsi4+0x9e>
    6ebb: c4 0e        	cpy	$e                      ; 0xe <__rc12>
    6ebd: 90 16        	bcc	$6ed5 <__udivmodsi4+0xb4>
    6ebf: e8           	inx
    6ec0: a4 0d        	ldy	$d                      ; 0xd <__rc11>
    6ec2: 84 06        	sty	$6                      ; 0x6 <__rc4>
    6ec4: a4 0e        	ldy	$e                      ; 0xe <__rc12>
    6ec6: 84 07        	sty	$7                      ; 0x7 <__rc5>
    6ec8: a4 0f        	ldy	$f                      ; 0xf <__rc13>
    6eca: 84 08        	sty	$8                      ; 0x8 <__rc6>
    6ecc: a4 10        	ldy	$10                     ; 0x10 <__rc14>
    6ece: 84 09        	sty	$9                      ; 0x9 <__rc7>
    6ed0: 30 13        	bmi	$6ee5 <__udivmodsi4+0xc4>
    6ed2: 4c 8f 6e     	jmp	$6e8f <__udivmodsi4+0x6e>
    6ed5: a4 06        	ldy	$6                      ; 0x6 <__rc4>
    6ed7: 84 0d        	sty	$d                      ; 0xd <__rc11>
    6ed9: a4 07        	ldy	$7                      ; 0x7 <__rc5>
    6edb: 84 0e        	sty	$e                      ; 0xe <__rc12>
    6edd: a4 08        	ldy	$8                      ; 0x8 <__rc6>
    6edf: 84 0f        	sty	$f                      ; 0xf <__rc13>
    6ee1: a4 09        	ldy	$9                      ; 0x9 <__rc7>
    6ee3: 84 10        	sty	$10                     ; 0x10 <__rc14>
    6ee5: 38           	sec
    6ee6: e5 0d        	sbc	$d                      ; 0xd <__rc11>
    6ee8: 85 08        	sta	$8                      ; 0x8 <__rc6>
    6eea: a5 05        	lda	$5                      ; 0x5 <__rc3>
    6eec: e5 0e        	sbc	$e                      ; 0xe <__rc12>
    6eee: 85 07        	sta	$7                      ; 0x7 <__rc5>
    6ef0: a5 11        	lda	$11                     ; 0x11 <__rc15>
    6ef2: e5 0f        	sbc	$f                      ; 0xf <__rc13>
    6ef4: a8           	tay
    6ef5: a5 04        	lda	$4                      ; 0x4 <__rc2>
    6ef7: e5 10        	sbc	$10                     ; 0x10 <__rc14>
    6ef9: 85 06        	sta	$6                      ; 0x6 <__rc4>
    6efb: 8a           	txa
    6efc: d0 03        	bne	$6f01 <__udivmodsi4+0xe0>
    6efe: 4c c8 6f     	jmp	$6fc8 <__udivmodsi4+0x1a7>
    6f01: a9 01        	lda	#$1
    6f03: 85 79        	sta	$79                     ; 0x79 <__rc31+0x58>
    6f05: 64 0c        	stz	$c                      ; 0xc <__rc10>
    6f07: 64 04        	stz	$4                      ; 0x4 <__rc2>
    6f09: 64 05        	stz	$5                      ; 0x5 <__rc3>
    6f0b: 84 11        	sty	$11                     ; 0x11 <__rc15>
    6f0d: a5 08        	lda	$8                      ; 0x8 <__rc6>
    6f0f: 46 10        	lsr	$10                     ; 0x10 <__rc14>
    6f11: 66 0f        	ror	$f                      ; 0xf <__rc13>
    6f13: 66 0e        	ror	$e                      ; 0xe <__rc12>
    6f15: 66 0d        	ror	$d                      ; 0xd <__rc11>
    6f17: a4 79        	ldy	$79                     ; 0x79 <__rc31+0x58>
    6f19: 84 08        	sty	$8                      ; 0x8 <__rc6>
    6f1b: 06 08        	asl	$8                      ; 0x8 <__rc6>
    6f1d: a0 01        	ldy	#$1
    6f1f: b0 02        	bcs	$6f23 <__udivmodsi4+0x102>
    6f21: a0 00        	ldy	#$0
    6f23: 84 09        	sty	$9                      ; 0x9 <__rc7>
    6f25: a4 08        	ldy	$8                      ; 0x8 <__rc6>
    6f27: 84 79        	sty	$79                     ; 0x79 <__rc31+0x58>
    6f29: a4 06        	ldy	$6                      ; 0x6 <__rc4>
    6f2b: c4 10        	cpy	$10                     ; 0x10 <__rc14>
    6f2d: d0 18        	bne	$6f47 <__udivmodsi4+0x126>
    6f2f: a4 11        	ldy	$11                     ; 0x11 <__rc15>
    6f31: c4 0f        	cpy	$f                      ; 0xf <__rc13>
    6f33: f0 03        	beq	$6f38 <__udivmodsi4+0x117>
    6f35: 4c 7b 6f     	jmp	$6f7b <__udivmodsi4+0x15a>
    6f38: a4 07        	ldy	$7                      ; 0x7 <__rc5>
    6f3a: c4 0e        	cpy	$e                      ; 0xe <__rc12>
    6f3c: f0 03        	beq	$6f41 <__udivmodsi4+0x120>
    6f3e: 4c 82 6f     	jmp	$6f82 <__udivmodsi4+0x161>
    6f41: c5 0d        	cmp	$d                      ; 0xd <__rc11>
    6f43: b0 06        	bcs	$6f4b <__udivmodsi4+0x12a>
    6f45: 80 24        	bra	$6f6b <__udivmodsi4+0x14a>
    6f47: c4 10        	cpy	$10                     ; 0x10 <__rc14>
    6f49: 90 20        	bcc	$6f6b <__udivmodsi4+0x14a>
    6f4b: 38           	sec
    6f4c: e5 0d        	sbc	$d                      ; 0xd <__rc11>
    6f4e: 85 08        	sta	$8                      ; 0x8 <__rc6>
    6f50: a5 07        	lda	$7                      ; 0x7 <__rc5>
    6f52: e5 0e        	sbc	$e                      ; 0xe <__rc12>
    6f54: 85 07        	sta	$7                      ; 0x7 <__rc5>
    6f56: a5 11        	lda	$11                     ; 0x11 <__rc15>
    6f58: e5 0f        	sbc	$f                      ; 0xf <__rc13>
    6f5a: a8           	tay
    6f5b: a5 06        	lda	$6                      ; 0x6 <__rc4>
    6f5d: e5 10        	sbc	$10                     ; 0x10 <__rc14>
    6f5f: 85 06        	sta	$6                      ; 0x6 <__rc4>
    6f61: 84 11        	sty	$11                     ; 0x11 <__rc15>
    6f63: a5 79        	lda	$79                     ; 0x79 <__rc31+0x58>
    6f65: 09 01        	ora	#$1
    6f67: 85 79        	sta	$79                     ; 0x79 <__rc31+0x58>
    6f69: a5 08        	lda	$8                      ; 0x8 <__rc6>
    6f6b: a4 09        	ldy	$9                      ; 0x9 <__rc7>
    6f6d: c0 01        	cpy	#$1
    6f6f: 26 0c        	rol	$c                      ; 0xc <__rc10>
    6f71: 26 04        	rol	$4                      ; 0x4 <__rc2>
    6f73: 26 05        	rol	$5                      ; 0x5 <__rc3>
    6f75: ca           	dex
    6f76: f0 2f        	beq	$6fa7 <__udivmodsi4+0x186>
    6f78: 4c 0f 6f     	jmp	$6f0f <__udivmodsi4+0xee>
    6f7b: c4 0f        	cpy	$f                      ; 0xf <__rc13>
    6f7d: 90 ec        	bcc	$6f6b <__udivmodsi4+0x14a>
    6f7f: 4c 4b 6f     	jmp	$6f4b <__udivmodsi4+0x12a>
    6f82: c4 0e        	cpy	$e                      ; 0xe <__rc12>
    6f84: 90 e5        	bcc	$6f6b <__udivmodsi4+0x14a>
    6f86: 4c 4b 6f     	jmp	$6f4b <__udivmodsi4+0x12a>
    6f89: 38           	sec
    6f8a: e5 06        	sbc	$6                      ; 0x6 <__rc4>
    6f8c: aa           	tax
    6f8d: 98           	tya
    6f8e: e5 07        	sbc	$7                      ; 0x7 <__rc5>
    6f90: 85 07        	sta	$7                      ; 0x7 <__rc5>
    6f92: a5 11        	lda	$11                     ; 0x11 <__rc15>
    6f94: e5 08        	sbc	$8                      ; 0x8 <__rc6>
    6f96: 85 11        	sta	$11                     ; 0x11 <__rc15>
    6f98: a5 04        	lda	$4                      ; 0x4 <__rc2>
    6f9a: e5 09        	sbc	$9                      ; 0x9 <__rc7>
    6f9c: 85 06        	sta	$6                      ; 0x6 <__rc4>
    6f9e: 8a           	txa
    6f9f: a2 01        	ldx	#$1
    6fa1: 86 79        	stx	$79                     ; 0x79 <__rc31+0x58>
    6fa3: 64 04        	stz	$4                      ; 0x4 <__rc2>
    6fa5: 64 05        	stz	$5                      ; 0x5 <__rc3>
    6fa7: 92 0a        	sta	($a),z                  ; 0xa <__zp_data_size>
    6fa9: a0 01        	ldy	#$1
    6fab: a5 07        	lda	$7                      ; 0x7 <__rc5>
    6fad: 91 0a        	sta	($a),y                  ; 0xa <__zp_data_size>
    6faf: c8           	iny
    6fb0: a5 11        	lda	$11                     ; 0x11 <__rc15>
    6fb2: 91 0a        	sta	($a),y                  ; 0xa <__zp_data_size>
    6fb4: c8           	iny
    6fb5: a5 06        	lda	$6                      ; 0x6 <__rc4>
    6fb7: 91 0a        	sta	($a),y                  ; 0xa <__zp_data_size>
    6fb9: a6 0c        	ldx	$c                      ; 0xc <__rc10>
    6fbb: a5 79        	lda	$79                     ; 0x79 <__rc31+0x58>
    6fbd: 60           	rts
    6fbe: e4 07        	cpx	$7                      ; 0x7 <__rc5>
    6fc0: b0 03        	bcs	$6fc5 <__udivmodsi4+0x1a4>
    6fc2: 4c 67 6e     	jmp	$6e67 <__udivmodsi4+0x46>
    6fc5: 4c 76 6e     	jmp	$6e76 <__udivmodsi4+0x55>
    6fc8: a2 01        	ldx	#$1
    6fca: 86 79        	stx	$79                     ; 0x79 <__rc31+0x58>
    6fcc: 64 04        	stz	$4                      ; 0x4 <__rc2>
    6fce: 64 05        	stz	$5                      ; 0x5 <__rc3>
    6fd0: 84 11        	sty	$11                     ; 0x11 <__rc15>
    6fd2: a5 08        	lda	$8                      ; 0x8 <__rc6>
    6fd4: 80 d1        	bra	$6fa7 <__udivmodsi4+0x186>
    6fd6: 84 07        	sty	$7                      ; 0x7 <__rc5>
    6fd8: 4c 6b 6e     	jmp	$6e6b <__udivmodsi4+0x4a>
